; generated by Component: ARM Compiler 5.06 update 4 (build 422) Tool: ArmCC [4d3604]
; commandline ArmCC [--c99 --list --split_sections --debug -c --asm --interleave -o.\keil_output\cm_test.o --asm_dir=.\keil_output\ --list_dir=.\keil_output\ --depend=.\keil_output\cm_test.d --cpu=Cortex-M4.fp --apcs=interwork -O3 --diag_suppress=9931 -I..\..\..\chip_5411x\inc -I..\..\..\brd_xpresso54114\inc -I..\..\..\..\..\..\COMMON\SRC\CMSIS_DSP_4_5\inc -IC:\Users\emh203\Documents\GitHub\ESC-M4\CM4_TEST\PROJECTS\KEIL\CM4_TEST_XPRESSO54114\prj_xpresso54114\keil\CM4_TEST_XPRESSO54114\RTE\_iflash_nxp_lpcxpresso_lpc5411X -IC:\Keil_v5\ARM\PACK\Keil\LPC54000_DFP\2.1.0\LPCOpen\lpc5411x\chip_5411x\inc -IC:\Keil_v5\ARM\CMSIS\Include -D__UVISION_VERSION=522 -DCHIP_LPC5411X -DCHIP_LPC5411X -DCORE_M4 -DARM_MATH_CM4 -D__FPU_PRESENT=1 -DBOARD=2 -DABI=1 -DBUILD_CONFIG=3 -DCORE_M4 --omf_browse=.\keil_output\cm_test.crf ..\..\..\..\..\..\COMMON\SRC\TEST\CM_TEST.c]
                          THUMB

                          AREA ||i.main||, CODE, READONLY, ALIGN=2

                          REQUIRE _printf_percent
                          REQUIRE _printf_d
                          REQUIRE _printf_int_dec
                          REQUIRE _printf_s
                          REQUIRE _printf_str
                          REQUIRE _printf_i
                  main PROC
;;;252    
;;;253    int main(void)
000000  b51c              PUSH     {r2-r4,lr}
;;;254    {
;;;255    int i = 0 ;
000002  2500              MOVS     r5,#0
;;;256    volatile float r=1;
000004  eeb70a00          VMOV.F32 s0,#1.00000000
000008  ed8d0a00          VSTR     s0,[sp,#0]
;;;257    volatile uint32_t CycleTimer = 0;
00000c  462e              MOV      r6,r5
;;;258    volatile uint32_t CycleOffset = 0;
00000e  9500              STR      r5,[sp,#0]
;;;259    
;;;260    #if(BOARD==0 || BOARD==1 || BOARD==2)
;;;261    	SystemCoreClockUpdate();
000010  9501              STR      r5,[sp,#4]
000012  f7fffffe          BL       SystemCoreClockUpdate
;;;262    	 fpuInit();
000016  f7fffffe          BL       fpuInit
;;;263    	Board_Init();
00001a  f7fffffe          BL       Board_Init
;;;264    #endif
;;;265    
;;;266    
;;;267    #if (BOARD==3)
;;;268      BOARD_InitPins();
;;;269      BOARD_BootClockRUN();
;;;270      BOARD_InitDebugConsole();
;;;271      SystemCoreClockUpdate();
;;;272    #endif
;;;273    
;;;274    
;;;275    INIT_CYCLE_TIMER;
00001e  f04f24e0          MOV      r4,#0xe000e000
000022  2704              MOVS     r7,#4
000024  6127              STR      r7,[r4,#0x10]
000026  f06f407f          MVN      r0,#0xff000000
00002a  6160              STR      r0,[r4,#0x14]
00002c  61a6              STR      r6,[r4,#0x18]
;;;276    
;;;277    #ifdef ENABLE_BLOCK_PROCESSING
;;;278    
;;;279    	for(i=0;i<MAX_INPUT_SIZE;i++)
;;;280        {
;;;281        	InputData.q31[i] = rand();
00002e  f8df8390          LDR      r8,|L1.960|
000032  f44f5900          MOV      r9,#0x2000            ;279
000036  bf00              NOP      
                  |L1.56|
000038  f7fffffe          BL       rand
00003c  f8480025          STR      r0,[r8,r5,LSL #2]
000040  1c6d              ADDS     r5,r5,#1
000042  454d              CMP      r5,r9                 ;279
000044  dbf8              BLT      |L1.56|
;;;282        }
;;;283    
;;;284    	#ifdef ENABLE_BLOCK_FIR
;;;285    		for(i=0;i<32;i++)
;;;286    		{
;;;287    		#ifdef _f32
;;;288    			FIR_Coef_f32[i] = (float32_t)i/32;
;;;289    		#endif
;;;290    
;;;291    		#ifdef _q31
;;;292    			FIR_Coef_q31[i] = i<<26;
;;;293    		#endif
;;;294    
;;;295    		#ifdef _q15
;;;296    			 	 FIR_Coef_q15[i] = i<<10;
000046  49df              LDR      r1,|L1.964|
000048  2000              MOVS     r0,#0                 ;285
                  |L1.74|
00004a  0282              LSLS     r2,r0,#10
00004c  f8212010          STRH     r2,[r1,r0,LSL #1]
000050  1c40              ADDS     r0,r0,#1
000052  2820              CMP      r0,#0x20              ;285
000054  dbf9              BLT      |L1.74|
;;;297    		#endif
;;;298    		}
;;;299    	#endif
;;;300    
;;;301    #endif
;;;302    
;;;303        CM_PRINTF("Cortex M4/7 Performance Test.\r\n");
000056  a0dc              ADR      r0,|L1.968|
000058  f7fffffe          BL       __2printf
;;;304    		
;;;305    		#ifdef __ARMCC_VERSION
;;;306    		
;;;307    			CM_PRINTF("ARMCC Version: %d\r\n",__ARMCC_VERSION);
00005c  49e2              LDR      r1,|L1.1000|
00005e  a0e3              ADR      r0,|L1.1004|
000060  f7fffffe          BL       __2printf
;;;308    			CM_PRINTF("%s %s %s\r\n",CPU_NAME,OPT_LEVEL,ABI_TYPE);
000064  a3e6              ADR      r3,|L1.1024|
000066  a2e8              ADR      r2,|L1.1032|
000068  a1e8              ADR      r1,|L1.1036|
00006a  a0eb              ADR      r0,|L1.1048|
00006c  f7fffffe          BL       __2printf
;;;309    			CM_PRINTF("NOTES: \r\n");
000070  a0ec              ADR      r0,|L1.1060|
000072  f7fffffe          BL       __2printf
;;;310    		
;;;311    		#else
;;;312    		
;;;313    			CM_PRINTF("GCC Version: %d.%d.%d\r\n",__GNUC__,__GNUC_MINOR__,__GNUC_PATCHLEVEL__);
;;;314    			CM_PRINTF("%s %s %s\r\n",CPU_NAME,OPT_LEVEL,ABI_TYPE);
;;;315    			CM_PRINTF("NOTES: \r\n");
;;;316    	  
;;;317    		#endif
;;;318    
;;;319       	START_CYCLE_TIMER;
000076  61a6              STR      r6,[r4,#0x18]
000078  2505              MOVS     r5,#5
00007a  6125              STR      r5,[r4,#0x10]
;;;320       	STOP_AND_GRAB_CYCLE_TIMER(CycleOffset);
00007c  6127              STR      r7,[r4,#0x10]
00007e  69a0              LDR      r0,[r4,#0x18]
000080  f1c07080          RSB      r0,r0,#0x1000000
;;;321       	CM_PRINTF("Cycle Offset: %d\r\n",CycleOffset);
000084  4601              MOV      r1,r0
000086  9001              STR      r0,[sp,#4]
000088  a0e9              ADR      r0,|L1.1072|
00008a  f7fffffe          BL       __2printf
;;;322    
;;;323       	/***
;;;324       	 *      ____  _      ____   _____ _  __  _____  _____   ____   _____ ______  _____ _____ _____ _   _  _____
;;;325       	 *     |  _ \| |    / __ \ / ____| |/ / |  __ \|  __ \ / __ \ / ____|  ____|/ ____/ ____|_   _| \ | |/ ____|
;;;326       	 *     | |_) | |   | |  | | |    | ' /  | |__) | |__) | |  | | |    | |__  | (___| (___   | | |  \| | |  __
;;;327       	 *     |  _ <| |   | |  | | |    |  <   |  ___/|  _  /| |  | | |    |  __|  \___ \\___ \  | | | . ` | | |_ |
;;;328       	 *     | |_) | |___| |__| | |____| . \  | |    | | \ \| |__| | |____| |____ ____) |___) |_| |_| |\  | |__| |
;;;329       	 *     |____/|______\____/ \_____|_|\_\ |_|    |_|  \_\\____/ \_____|______|_____/_____/|_____|_| \_|\_____|
;;;330       	 *
;;;331       	 *
;;;332       	 */
;;;333    
;;;334    #ifdef ENABLE_BLOCK_PROCESSING
;;;335    
;;;336       	CM_PRINTF("\r\nBlock Processing Functions");
00008e  a0ed              ADR      r0,|L1.1092|
000090  f7fffffe          BL       __2printf
;;;337      	CM_PRINTF("\r\n---------------------------------------------------------------\r\n");
000094  48f3              LDR      r0,|L1.1124|
000096  f7fffffe          BL       __2printf
;;;338       	CM_PRINTF("\r\nLength,16,32,64,128,256,512,1024,2048,4096");
00009a  a0f3              ADR      r0,|L1.1128|
00009c  f7fffffe          BL       __2printf
;;;339    
;;;340    	   /***
;;;341    	    *       __ ____ ___
;;;342    	    *      / _|___ \__ \
;;;343    	    *     | |_  __) | ) |
;;;344    	    *     |  _||__ < / /
;;;345    	    *     | |  ___) / /_
;;;346    	    *     |_| |____/____|
;;;347    	    *
;;;348    	    *
;;;349    	    */
;;;350    
;;;351    	#ifdef _f32
;;;352    
;;;353    			#ifdef ENABLE_CFFT_BR
;;;354    					CM_PRINTF("\r\n");
;;;355    					CM_PRINTF("\r\nCFFT-f32-BitReverse,");
;;;356    					START_CYCLE_TIMER; arm_cfft_f32(&arm_cfft_sR_f32_len16,  &InputData.f32[0], 0, 1);REPORT_CYCLE_TIMER;COMMA;
;;;357    					START_CYCLE_TIMER;arm_cfft_f32(&arm_cfft_sR_f32_len32,   &InputData.f32[0], 0, 1);REPORT_CYCLE_TIMER;COMMA;
;;;358    					START_CYCLE_TIMER;arm_cfft_f32(&arm_cfft_sR_f32_len64,   &InputData.f32[0], 0, 1);REPORT_CYCLE_TIMER;COMMA;
;;;359    					START_CYCLE_TIMER;arm_cfft_f32(&arm_cfft_sR_f32_len128,  &InputData.f32[0], 0, 1);REPORT_CYCLE_TIMER;COMMA;
;;;360    					START_CYCLE_TIMER;arm_cfft_f32(&arm_cfft_sR_f32_len256,  &InputData.f32[0], 0, 1);REPORT_CYCLE_TIMER;COMMA;
;;;361    					START_CYCLE_TIMER;arm_cfft_f32(&arm_cfft_sR_f32_len512,  &InputData.f32[0], 0, 1);REPORT_CYCLE_TIMER;COMMA;
;;;362    					START_CYCLE_TIMER;arm_cfft_f32(&arm_cfft_sR_f32_len1024, &InputData.f32[0], 0, 1);REPORT_CYCLE_TIMER;COMMA;
;;;363    					START_CYCLE_TIMER;arm_cfft_f32(&arm_cfft_sR_f32_len2048, &InputData.f32[0], 0, 1);REPORT_CYCLE_TIMER;COMMA;
;;;364    					START_CYCLE_TIMER;arm_cfft_f32(&arm_cfft_sR_f32_len4096, &InputData.f32[0], 0, 1);REPORT_CYCLE_TIMER;COMMA;
;;;365    		    #endif
;;;366    
;;;367    			#ifdef ENABLE_CFFT_NBR
;;;368    					CM_PRINTF("\r\n");
;;;369    					CM_PRINTF("CFFT-f32-NoBitReverse,");
;;;370    					START_CYCLE_TIMER;arm_cfft_f32(&arm_cfft_sR_f32_len16,   &InputData.f32[0], 0, 0);REPORT_CYCLE_TIMER;COMMA;
;;;371    					START_CYCLE_TIMER;arm_cfft_f32(&arm_cfft_sR_f32_len32,   &InputData.f32[0], 0, 0);REPORT_CYCLE_TIMER;COMMA;
;;;372    					START_CYCLE_TIMER;arm_cfft_f32(&arm_cfft_sR_f32_len64,   &InputData.f32[0], 0, 0);REPORT_CYCLE_TIMER;COMMA;
;;;373    					START_CYCLE_TIMER;arm_cfft_f32(&arm_cfft_sR_f32_len128,  &InputData.f32[0], 0, 0);REPORT_CYCLE_TIMER;COMMA;
;;;374    					START_CYCLE_TIMER;arm_cfft_f32(&arm_cfft_sR_f32_len256,  &InputData.f32[0], 0, 0);REPORT_CYCLE_TIMER;COMMA;
;;;375    					START_CYCLE_TIMER;arm_cfft_f32(&arm_cfft_sR_f32_len512,  &InputData.f32[0], 0, 0);REPORT_CYCLE_TIMER;COMMA;
;;;376    					START_CYCLE_TIMER;arm_cfft_f32(&arm_cfft_sR_f32_len1024, &InputData.f32[0], 0, 0);REPORT_CYCLE_TIMER;COMMA;
;;;377    					START_CYCLE_TIMER;arm_cfft_f32(&arm_cfft_sR_f32_len2048, &InputData.f32[0], 0, 0);REPORT_CYCLE_TIMER;COMMA;
;;;378    					START_CYCLE_TIMER;arm_cfft_f32(&arm_cfft_sR_f32_len4096, &InputData.f32[0], 0, 0);REPORT_CYCLE_TIMER;COMMA;
;;;379    			#endif
;;;380    
;;;381    
;;;382    			#ifdef ENABLE_RFFT_NBR
;;;383    					CM_PRINTF("\r\n");
;;;384    					CM_PRINTF("RFFT-f32-NoBitReverse,");
;;;385    
;;;386    					CM_PRINTF("n/a");COMMA;
;;;387    					arm_rfft_fast_init_f32(&FFT_Inst.rfft_fast_f32,32);START_CYCLE_TIMER;arm_rfft_fast_f32(&FFT_Inst.rfft_fast_f32,&InputData.f32[0], &OutputData.f32[0], 0);REPORT_CYCLE_TIMER;COMMA;
;;;388    					arm_rfft_fast_init_f32(&FFT_Inst.rfft_fast_f32,64);START_CYCLE_TIMER;arm_rfft_fast_f32(&FFT_Inst.rfft_fast_f32,&InputData.f32[0], &OutputData.f32[0], 0);REPORT_CYCLE_TIMER;COMMA;
;;;389    					arm_rfft_fast_init_f32(&FFT_Inst.rfft_fast_f32,128);START_CYCLE_TIMER;arm_rfft_fast_f32(&FFT_Inst.rfft_fast_f32,&InputData.f32[0], &OutputData.f32[0], 0);REPORT_CYCLE_TIMER;COMMA;
;;;390    					arm_rfft_fast_init_f32(&FFT_Inst.rfft_fast_f32,256);START_CYCLE_TIMER;arm_rfft_fast_f32(&FFT_Inst.rfft_fast_f32,&InputData.f32[0], &OutputData.f32[0], 0);REPORT_CYCLE_TIMER;COMMA;
;;;391    					arm_rfft_fast_init_f32(&FFT_Inst.rfft_fast_f32,512);START_CYCLE_TIMER;arm_rfft_fast_f32(&FFT_Inst.rfft_fast_f32,&InputData.f32[0], &OutputData.f32[0], 0);REPORT_CYCLE_TIMER;COMMA;
;;;392    					arm_rfft_fast_init_f32(&FFT_Inst.rfft_fast_f32,1024);START_CYCLE_TIMER;arm_rfft_fast_f32(&FFT_Inst.rfft_fast_f32,&InputData.f32[0], &OutputData.f32[0], 0);REPORT_CYCLE_TIMER;COMMA;
;;;393    					//arm_rfft_fast_init_f32(&FFT_Inst.rfft_fast_f32,2048);START_CYCLE_TIMER;arm_rfft_fast_f32(&FFT_Inst.rfft_fast_f32,&InputData.f32[0], &OutputData.f32[0], 0);REPORT_CYCLE_TIMER;COMMA;
;;;394    					//arm_rfft_fast_init_f32(&FFT_Inst.rfft_fast_f32,4096);START_CYCLE_TIMER;arm_rfft_fast_f32(&FFT_Inst.rfft_fast_f32,&InputData.f32[0], &OutputData.f32[0], 0);REPORT_CYCLE_TIMER;COMMA;
;;;395    			#endif
;;;396    
;;;397    			#ifdef COMPLEX_MAG
;;;398    					CM_PRINTF("\r\n");
;;;399    					CM_PRINTF("ComplexMag-f32,");
;;;400    					START_CYCLE_TIMER;arm_cmplx_mag_f32(&InputData.f32[0],&OutputData.f32[0],16);REPORT_CYCLE_TIMER;COMMA;
;;;401    					START_CYCLE_TIMER;arm_cmplx_mag_f32(&InputData.f32[0],&OutputData.f32[0],32);REPORT_CYCLE_TIMER;COMMA;
;;;402    					START_CYCLE_TIMER;arm_cmplx_mag_f32(&InputData.f32[0],&OutputData.f32[0],64);REPORT_CYCLE_TIMER;COMMA;
;;;403    					START_CYCLE_TIMER;arm_cmplx_mag_f32(&InputData.f32[0],&OutputData.f32[0],128);REPORT_CYCLE_TIMER;COMMA;
;;;404    					START_CYCLE_TIMER;arm_cmplx_mag_f32(&InputData.f32[0],&OutputData.f32[0],256);REPORT_CYCLE_TIMER;COMMA;
;;;405    					START_CYCLE_TIMER;arm_cmplx_mag_f32(&InputData.f32[0],&OutputData.f32[0],512);REPORT_CYCLE_TIMER;COMMA;
;;;406    					START_CYCLE_TIMER;arm_cmplx_mag_f32(&InputData.f32[0],&OutputData.f32[0],1024);REPORT_CYCLE_TIMER;COMMA;
;;;407    					START_CYCLE_TIMER;arm_cmplx_mag_f32(&InputData.f32[0],&OutputData.f32[0],2048);REPORT_CYCLE_TIMER;COMMA;
;;;408    					START_CYCLE_TIMER;arm_cmplx_mag_f32(&InputData.f32[0],&OutputData.f32[0],4096);REPORT_CYCLE_TIMER;COMMA;
;;;409    			#endif
;;;410    
;;;411    			#ifdef COMPLEX_MAG_SQUARED
;;;412    					CM_PRINTF("\r\n");
;;;413    					CM_PRINTF("ComplexMagSquared-f32,");
;;;414    					START_CYCLE_TIMER;arm_cmplx_mag_squared_f32(&InputData.f32[0],&OutputData.f32[0],16);REPORT_CYCLE_TIMER;COMMA;
;;;415    					START_CYCLE_TIMER;arm_cmplx_mag_squared_f32(&InputData.f32[0],&OutputData.f32[0],32);REPORT_CYCLE_TIMER;COMMA;
;;;416    					START_CYCLE_TIMER;arm_cmplx_mag_squared_f32(&InputData.f32[0],&OutputData.f32[0],64);REPORT_CYCLE_TIMER;COMMA;
;;;417    					START_CYCLE_TIMER;arm_cmplx_mag_squared_f32(&InputData.f32[0],&OutputData.f32[0],128);REPORT_CYCLE_TIMER;COMMA;
;;;418    					START_CYCLE_TIMER;arm_cmplx_mag_squared_f32(&InputData.f32[0],&OutputData.f32[0],256);REPORT_CYCLE_TIMER;COMMA;
;;;419    					START_CYCLE_TIMER;arm_cmplx_mag_squared_f32(&InputData.f32[0],&OutputData.f32[0],512);REPORT_CYCLE_TIMER;COMMA;
;;;420    					START_CYCLE_TIMER;arm_cmplx_mag_squared_f32(&InputData.f32[0],&OutputData.f32[0],1024);REPORT_CYCLE_TIMER;COMMA;
;;;421    					START_CYCLE_TIMER;arm_cmplx_mag_squared_f32(&InputData.f32[0],&OutputData.f32[0],2048);REPORT_CYCLE_TIMER;COMMA;
;;;422    					START_CYCLE_TIMER;arm_cmplx_mag_squared_f32(&InputData.f32[0],&OutputData.f32[0],4096);REPORT_CYCLE_TIMER;COMMA;
;;;423    			#endif
;;;424    
;;;425    			#ifdef ENABLE_GOERTZEL
;;;426    
;;;427    					CM_PRINTF("\r\n");
;;;428    					InitGoertzel_f32(&G,180000.0f,1000000.0f,32);
;;;429    					CM_PRINTF("Goertzel_f32,");
;;;430    
;;;431    					G.BlockSize = 16; START_CYCLE_TIMER;r=ProcessGoertzel_f32_Power(&G,&InputData.f32[0]);REPORT_CYCLE_TIMER;COMMA;r*=2;//To Get rid of the warning
;;;432    					G.BlockSize = 32; START_CYCLE_TIMER;r=ProcessGoertzel_f32_Power(&G,&InputData.f32[0]);REPORT_CYCLE_TIMER;COMMA;r*=2;//To Get rid of the warning
;;;433    					G.BlockSize = 64; START_CYCLE_TIMER;r=ProcessGoertzel_f32_Power(&G,&InputData.f32[0]);REPORT_CYCLE_TIMER;COMMA;r*=2;//To Get rid of the warning
;;;434    					G.BlockSize = 128; START_CYCLE_TIMER;r=ProcessGoertzel_f32_Power(&G,&InputData.f32[0]);REPORT_CYCLE_TIMER;COMMA;r*=2;//To Get rid of the warning
;;;435    					G.BlockSize = 256; START_CYCLE_TIMER;r=ProcessGoertzel_f32_Power(&G,&InputData.f32[0]);REPORT_CYCLE_TIMER;COMMA;r*=2;//To Get rid of the warning
;;;436    					G.BlockSize = 512; START_CYCLE_TIMER;r=ProcessGoertzel_f32_Power(&G,&InputData.f32[0]);REPORT_CYCLE_TIMER;COMMA;r*=2;//To Get rid of the warning
;;;437    					G.BlockSize = 1024; START_CYCLE_TIMER;r=ProcessGoertzel_f32_Power(&G,&InputData.f32[0]);REPORT_CYCLE_TIMER;COMMA;r*=2;//To Get rid of the warning
;;;438    					G.BlockSize = 2048; START_CYCLE_TIMER;r=ProcessGoertzel_f32_Power(&G,&InputData.f32[0]);REPORT_CYCLE_TIMER;COMMA;r*=2;//To Get rid of the warning
;;;439    					G.BlockSize = 4096; START_CYCLE_TIMER;r=ProcessGoertzel_f32_Power(&G,&InputData.f32[0]);REPORT_CYCLE_TIMER;COMMA;r*=2;//To Get rid of the warning
;;;440    			#endif
;;;441    
;;;442    			#ifdef ENABLE_BLOCK_IIR
;;;443    					CM_PRINTF("\r\n");
;;;444    					CM_PRINTF("IIR-f32_df1-1Stage,");
;;;445    
;;;446    					arm_biquad_cascade_df1_init_f32(&IIR_Inst.f32_df1,1,&IIR_Coef_f32[0],&IIR_State_f32[0]);
;;;447    
;;;448    					START_CYCLE_TIMER;arm_biquad_cascade_df1_f32(&IIR_Inst.f32_df1,&InputData.f32[0],&OutputData.f32[0],16);REPORT_CYCLE_TIMER;COMMA;
;;;449    					START_CYCLE_TIMER;arm_biquad_cascade_df1_f32(&IIR_Inst.f32_df1,&InputData.f32[0],&OutputData.f32[0],32);REPORT_CYCLE_TIMER;COMMA;
;;;450    					START_CYCLE_TIMER;arm_biquad_cascade_df1_f32(&IIR_Inst.f32_df1,&InputData.f32[0],&OutputData.f32[0],64);REPORT_CYCLE_TIMER;COMMA;
;;;451    					START_CYCLE_TIMER;arm_biquad_cascade_df1_f32(&IIR_Inst.f32_df1,&InputData.f32[0],&OutputData.f32[0],128);REPORT_CYCLE_TIMER;COMMA;
;;;452    					START_CYCLE_TIMER;arm_biquad_cascade_df1_f32(&IIR_Inst.f32_df1,&InputData.f32[0],&OutputData.f32[0],256);REPORT_CYCLE_TIMER;COMMA;
;;;453    					START_CYCLE_TIMER;arm_biquad_cascade_df1_f32(&IIR_Inst.f32_df1,&InputData.f32[0],&OutputData.f32[0],512);REPORT_CYCLE_TIMER;COMMA;
;;;454    					START_CYCLE_TIMER;arm_biquad_cascade_df1_f32(&IIR_Inst.f32_df1,&InputData.f32[0],&OutputData.f32[0],1024);REPORT_CYCLE_TIMER;COMMA;
;;;455    					START_CYCLE_TIMER;arm_biquad_cascade_df1_f32(&IIR_Inst.f32_df1,&InputData.f32[0],&OutputData.f32[0],2048);REPORT_CYCLE_TIMER;COMMA;
;;;456    					START_CYCLE_TIMER;arm_biquad_cascade_df1_f32(&IIR_Inst.f32_df1,&InputData.f32[0],&OutputData.f32[0],4096);REPORT_CYCLE_TIMER;COMMA;
;;;457    
;;;458    					CM_PRINTF("\r\n");
;;;459    					CM_PRINTF("IIR-f32_df2T-1Stage,");
;;;460    
;;;461    					arm_biquad_cascade_df2T_init_f32(&IIR_Inst.f32_df2T,1,&IIR_Coef_f32[0],&IIR_State_f32[0]);
;;;462    
;;;463    					START_CYCLE_TIMER;arm_biquad_cascade_df2T_f32(&IIR_Inst.f32_df2T,&InputData.f32[0],&OutputData.f32[0],16);REPORT_CYCLE_TIMER;COMMA;
;;;464    					START_CYCLE_TIMER;arm_biquad_cascade_df2T_f32(&IIR_Inst.f32_df2T,&InputData.f32[0],&OutputData.f32[0],32);REPORT_CYCLE_TIMER;COMMA;
;;;465    					START_CYCLE_TIMER;arm_biquad_cascade_df2T_f32(&IIR_Inst.f32_df2T,&InputData.f32[0],&OutputData.f32[0],64);REPORT_CYCLE_TIMER;COMMA;
;;;466    					START_CYCLE_TIMER;arm_biquad_cascade_df2T_f32(&IIR_Inst.f32_df2T,&InputData.f32[0],&OutputData.f32[0],128);REPORT_CYCLE_TIMER;COMMA;
;;;467    					START_CYCLE_TIMER;arm_biquad_cascade_df2T_f32(&IIR_Inst.f32_df2T,&InputData.f32[0],&OutputData.f32[0],256);REPORT_CYCLE_TIMER;COMMA;
;;;468    					START_CYCLE_TIMER;arm_biquad_cascade_df2T_f32(&IIR_Inst.f32_df2T,&InputData.f32[0],&OutputData.f32[0],512);REPORT_CYCLE_TIMER;COMMA;
;;;469    					START_CYCLE_TIMER;arm_biquad_cascade_df2T_f32(&IIR_Inst.f32_df2T,&InputData.f32[0],&OutputData.f32[0],1024);REPORT_CYCLE_TIMER;COMMA;
;;;470    					START_CYCLE_TIMER;arm_biquad_cascade_df2T_f32(&IIR_Inst.f32_df2T,&InputData.f32[0],&OutputData.f32[0],2048);REPORT_CYCLE_TIMER;COMMA;
;;;471    					START_CYCLE_TIMER;arm_biquad_cascade_df2T_f32(&IIR_Inst.f32_df2T,&InputData.f32[0],&OutputData.f32[0],4096);REPORT_CYCLE_TIMER;COMMA;
;;;472    				#endif
;;;473    
;;;474    				#ifdef ENABLE_BLOCK_FIR
;;;475    					CM_PRINTF("\r\n");
;;;476    					CM_PRINTF("FIR-f32_8tap,");
;;;477    					arm_fir_init_f32(&FIR_Inst.f32,8,&FIR_Coef_f32[0],&FIR_State.f32[0],2048);
;;;478    					START_CYCLE_TIMER;arm_fir_f32(&FIR_Inst.f32,&InputData.f32[0],&OutputData.f32[0],16);REPORT_CYCLE_TIMER;COMMA;
;;;479    					START_CYCLE_TIMER;arm_fir_f32(&FIR_Inst.f32,&InputData.f32[0],&OutputData.f32[0],32);REPORT_CYCLE_TIMER;COMMA;
;;;480    					START_CYCLE_TIMER;arm_fir_f32(&FIR_Inst.f32,&InputData.f32[0],&OutputData.f32[0],64);REPORT_CYCLE_TIMER;COMMA;
;;;481    					START_CYCLE_TIMER;arm_fir_f32(&FIR_Inst.f32,&InputData.f32[0],&OutputData.f32[0],128);REPORT_CYCLE_TIMER;COMMA;
;;;482    					START_CYCLE_TIMER;arm_fir_f32(&FIR_Inst.f32,&InputData.f32[0],&OutputData.f32[0],256);REPORT_CYCLE_TIMER;COMMA;
;;;483    					START_CYCLE_TIMER;arm_fir_f32(&FIR_Inst.f32,&InputData.f32[0],&OutputData.f32[0],512);REPORT_CYCLE_TIMER;COMMA;
;;;484    					START_CYCLE_TIMER;arm_fir_f32(&FIR_Inst.f32,&InputData.f32[0],&OutputData.f32[0],1024);REPORT_CYCLE_TIMER;COMMA;
;;;485    					START_CYCLE_TIMER;arm_fir_f32(&FIR_Inst.f32,&InputData.f32[0],&OutputData.f32[0],2048);REPORT_CYCLE_TIMER;COMMA;
;;;486    					CM_PRINTF("n/a"); // Not enough memory to do the 4096 case
;;;487    
;;;488    					CM_PRINTF("\r\n");
;;;489    					CM_PRINTF("FIR-f32_16tap,");
;;;490    
;;;491    					arm_fir_init_f32(&FIR_Inst.f32,16,&FIR_Coef_f32[0],&FIR_State.f32[0],2048);
;;;492    					START_CYCLE_TIMER;arm_fir_f32(&FIR_Inst.f32,&InputData.f32[0],&OutputData.f32[0],16);REPORT_CYCLE_TIMER;COMMA;
;;;493    					START_CYCLE_TIMER;arm_fir_f32(&FIR_Inst.f32,&InputData.f32[0],&OutputData.f32[0],32);REPORT_CYCLE_TIMER;COMMA;
;;;494    					START_CYCLE_TIMER;arm_fir_f32(&FIR_Inst.f32,&InputData.f32[0],&OutputData.f32[0],64);REPORT_CYCLE_TIMER;COMMA;
;;;495    					START_CYCLE_TIMER;arm_fir_f32(&FIR_Inst.f32,&InputData.f32[0],&OutputData.f32[0],128);REPORT_CYCLE_TIMER;COMMA;
;;;496    					START_CYCLE_TIMER;arm_fir_f32(&FIR_Inst.f32,&InputData.f32[0],&OutputData.f32[0],256);REPORT_CYCLE_TIMER;COMMA;
;;;497    					START_CYCLE_TIMER;arm_fir_f32(&FIR_Inst.f32,&InputData.f32[0],&OutputData.f32[0],512);REPORT_CYCLE_TIMER;COMMA;
;;;498    					START_CYCLE_TIMER;arm_fir_f32(&FIR_Inst.f32,&InputData.f32[0],&OutputData.f32[0],1024);REPORT_CYCLE_TIMER;COMMA;
;;;499    					START_CYCLE_TIMER;arm_fir_f32(&FIR_Inst.f32,&InputData.f32[0],&OutputData.f32[0],2048);REPORT_CYCLE_TIMER;COMMA;
;;;500    					CM_PRINTF("n/a"); // Not enough memory to do the 4096 case
;;;501    
;;;502    					CM_PRINTF("\r\n");
;;;503    					CM_PRINTF("FIR-f32_32tap,");
;;;504    
;;;505    					arm_fir_init_f32(&FIR_Inst.f32,32,&FIR_Coef_f32[0],&FIR_State.f32[0],2048);
;;;506    					START_CYCLE_TIMER;arm_fir_f32(&FIR_Inst.f32,&InputData.f32[0],&OutputData.f32[0],16);REPORT_CYCLE_TIMER;COMMA;
;;;507    					START_CYCLE_TIMER;arm_fir_f32(&FIR_Inst.f32,&InputData.f32[0],&OutputData.f32[0],32);REPORT_CYCLE_TIMER;COMMA;
;;;508    					START_CYCLE_TIMER;arm_fir_f32(&FIR_Inst.f32,&InputData.f32[0],&OutputData.f32[0],64);REPORT_CYCLE_TIMER;COMMA;
;;;509    					START_CYCLE_TIMER;arm_fir_f32(&FIR_Inst.f32,&InputData.f32[0],&OutputData.f32[0],128);REPORT_CYCLE_TIMER;COMMA;
;;;510    					START_CYCLE_TIMER;arm_fir_f32(&FIR_Inst.f32,&InputData.f32[0],&OutputData.f32[0],256);REPORT_CYCLE_TIMER;COMMA;
;;;511    					START_CYCLE_TIMER;arm_fir_f32(&FIR_Inst.f32,&InputData.f32[0],&OutputData.f32[0],512);REPORT_CYCLE_TIMER;COMMA;
;;;512    					START_CYCLE_TIMER;arm_fir_f32(&FIR_Inst.f32,&InputData.f32[0],&OutputData.f32[0],1024);REPORT_CYCLE_TIMER;COMMA;
;;;513    					START_CYCLE_TIMER;arm_fir_f32(&FIR_Inst.f32,&InputData.f32[0],&OutputData.f32[0],2048);REPORT_CYCLE_TIMER;COMMA;
;;;514    					CM_PRINTF("n/a"); // Not enough memory to do the 4096 case
;;;515    				#endif
;;;516    	#endif
;;;517    
;;;518        	/***
;;;519        	 *            ____  __
;;;520        	 *           |___ \/_ |
;;;521        	 *       __ _  __) || |
;;;522        	 *      / _` ||__ < | |
;;;523        	 *     | (_| |___) || |
;;;524        	 *      \__, |____/ |_|
;;;525        	 *         | |
;;;526        	 *         |_|
;;;527        	 */
;;;528    
;;;529    
;;;530    
;;;531    		#ifdef _q31
;;;532    
;;;533    			#ifdef ENABLE_CFFT_BR
;;;534    				CM_PRINTF("\r\n");
;;;535    				CM_PRINTF("CFFT-q31-BitReverse,");
;;;536    				START_CYCLE_TIMER;arm_cfft_q31(&arm_cfft_sR_q31_len16,   &InputData.q31[0], 0, 1);REPORT_CYCLE_TIMER;COMMA;
;;;537    				START_CYCLE_TIMER;arm_cfft_q31(&arm_cfft_sR_q31_len32,   &InputData.q31[0], 0, 1);REPORT_CYCLE_TIMER;COMMA;
;;;538    				START_CYCLE_TIMER;arm_cfft_q31(&arm_cfft_sR_q31_len64,   &InputData.q31[0], 0, 1);REPORT_CYCLE_TIMER;COMMA;
;;;539    				START_CYCLE_TIMER;arm_cfft_q31(&arm_cfft_sR_q31_len128,  &InputData.q31[0], 0, 1);REPORT_CYCLE_TIMER;COMMA;
;;;540    				START_CYCLE_TIMER;arm_cfft_q31(&arm_cfft_sR_q31_len256,  &InputData.q31[0], 0, 1);REPORT_CYCLE_TIMER;COMMA;
;;;541    				START_CYCLE_TIMER;arm_cfft_q31(&arm_cfft_sR_q31_len512,  &InputData.q31[0], 0, 1);REPORT_CYCLE_TIMER;COMMA;
;;;542    				START_CYCLE_TIMER;arm_cfft_q31(&arm_cfft_sR_q31_len1024, &InputData.q31[0], 0, 1);REPORT_CYCLE_TIMER;COMMA;
;;;543    				START_CYCLE_TIMER;arm_cfft_q31(&arm_cfft_sR_q31_len2048, &InputData.q31[0], 0, 1);REPORT_CYCLE_TIMER;COMMA;
;;;544    				START_CYCLE_TIMER;arm_cfft_q31(&arm_cfft_sR_q31_len4096, &InputData.q31[0], 0, 1);REPORT_CYCLE_TIMER;COMMA;
;;;545    			#endif
;;;546    
;;;547    			#ifdef ENABLE_CFFT_NBR
;;;548    				CM_PRINTF("\r\n");
;;;549    				CM_PRINTF("CFFT-q31-NoBitReverse,");
;;;550    				START_CYCLE_TIMER;arm_cfft_q31(&arm_cfft_sR_q31_len16,   &InputData.q31[0], 0, 0);REPORT_CYCLE_TIMER;COMMA;
;;;551    				START_CYCLE_TIMER;arm_cfft_q31(&arm_cfft_sR_q31_len32,   &InputData.q31[0], 0, 0);REPORT_CYCLE_TIMER;COMMA;
;;;552    				START_CYCLE_TIMER;arm_cfft_q31(&arm_cfft_sR_q31_len64,   &InputData.q31[0], 0, 0);REPORT_CYCLE_TIMER;COMMA;
;;;553    				START_CYCLE_TIMER;arm_cfft_q31(&arm_cfft_sR_q31_len128,  &InputData.q31[0], 0, 0);REPORT_CYCLE_TIMER;COMMA;
;;;554    				START_CYCLE_TIMER;arm_cfft_q31(&arm_cfft_sR_q31_len256,  &InputData.q31[0], 0, 0);REPORT_CYCLE_TIMER;COMMA;
;;;555    				START_CYCLE_TIMER;arm_cfft_q31(&arm_cfft_sR_q31_len512,  &InputData.q31[0], 0, 0);REPORT_CYCLE_TIMER;COMMA;
;;;556    				START_CYCLE_TIMER;arm_cfft_q31(&arm_cfft_sR_q31_len1024, &InputData.q31[0], 0, 0);REPORT_CYCLE_TIMER;COMMA;
;;;557    				START_CYCLE_TIMER;arm_cfft_q31(&arm_cfft_sR_q31_len2048, &InputData.q31[0], 0, 0);REPORT_CYCLE_TIMER;COMMA;
;;;558    				START_CYCLE_TIMER;arm_cfft_q31(&arm_cfft_sR_q31_len4096, &InputData.q31[0], 0, 0);REPORT_CYCLE_TIMER;COMMA;
;;;559    			#endif
;;;560    
;;;561    			#ifdef ENABLE_RFFT_BR
;;;562    				CM_PRINTF("\r\nRFFT-Q31-BitReverse,");
;;;563    				CM_PRINTF("n/a");COMMA;
;;;564    				arm_rfft_init_q31(&FFT_Inst.rfft_q31,32,0,1);START_CYCLE_TIMER;arm_rfft_q31(&FFT_Inst.rfft_q31,&InputData.q31[0], &OutputData.q31[0]);REPORT_CYCLE_TIMER;COMMA;
;;;565    				arm_rfft_init_q31(&FFT_Inst.rfft_q31,64,0,1);START_CYCLE_TIMER;arm_rfft_q31(&FFT_Inst.rfft_q31,&InputData.q31[0], &OutputData.q31[0]);REPORT_CYCLE_TIMER;COMMA;
;;;566    				arm_rfft_init_q31(&FFT_Inst.rfft_q31,128,0,1);START_CYCLE_TIMER;arm_rfft_q31(&FFT_Inst.rfft_q31,&InputData.q31[0], &OutputData.q31[0]);REPORT_CYCLE_TIMER;COMMA;
;;;567    				arm_rfft_init_q31(&FFT_Inst.rfft_q31,256,0,1);START_CYCLE_TIMER;arm_rfft_q31(&FFT_Inst.rfft_q31,&InputData.q31[0], &OutputData.q31[0]);REPORT_CYCLE_TIMER;COMMA;
;;;568    				arm_rfft_init_q31(&FFT_Inst.rfft_q31,512,0,1);START_CYCLE_TIMER;arm_rfft_q31(&FFT_Inst.rfft_q31,&InputData.q31[0], &OutputData.q31[0]);REPORT_CYCLE_TIMER;COMMA;
;;;569    				arm_rfft_init_q31(&FFT_Inst.rfft_q31,1024,0,1);START_CYCLE_TIMER;arm_rfft_q31(&FFT_Inst.rfft_q31,&InputData.q31[0], &OutputData.q31[0]);REPORT_CYCLE_TIMER;COMMA;
;;;570    				arm_rfft_init_q31(&FFT_Inst.rfft_q31,2048,0,1);START_CYCLE_TIMER;arm_rfft_q31(&FFT_Inst.rfft_q31,&InputData.q31[0], &OutputData.q31[0]);REPORT_CYCLE_TIMER;COMMA;
;;;571    				arm_rfft_init_q31(&FFT_Inst.rfft_q31,4096,0,1);START_CYCLE_TIMER;arm_rfft_q31(&FFT_Inst.rfft_q31,&InputData.q31[0], &OutputData.q31[0]);REPORT_CYCLE_TIMER;COMMA;
;;;572    			#endif
;;;573    
;;;574    			#ifdef ENABLE_RFFT_NBR
;;;575    				CM_PRINTF("\r\nRFFT-Q31-NoBitReverse,");
;;;576    				CM_PRINTF("n/a");COMMA;
;;;577    				arm_rfft_init_q31(&FFT_Inst.rfft_q31,32,0,0);START_CYCLE_TIMER;arm_rfft_q31(&FFT_Inst.rfft_q31,&InputData.q31[0], &OutputData.q31[0]);REPORT_CYCLE_TIMER;COMMA;
;;;578    				arm_rfft_init_q31(&FFT_Inst.rfft_q31,64,0,0);START_CYCLE_TIMER;arm_rfft_q31(&FFT_Inst.rfft_q31,&InputData.q31[0], &OutputData.q31[0]);REPORT_CYCLE_TIMER;COMMA;
;;;579    				arm_rfft_init_q31(&FFT_Inst.rfft_q31,128,0,0);START_CYCLE_TIMER;arm_rfft_q31(&FFT_Inst.rfft_q31,&InputData.q31[0], &OutputData.q31[0]);REPORT_CYCLE_TIMER;COMMA;
;;;580    				arm_rfft_init_q31(&FFT_Inst.rfft_q31,256,0,0);START_CYCLE_TIMER;arm_rfft_q31(&FFT_Inst.rfft_q31,&InputData.q31[0], &OutputData.q31[0]);REPORT_CYCLE_TIMER;COMMA;
;;;581    				arm_rfft_init_q31(&FFT_Inst.rfft_q31,512,0,0);START_CYCLE_TIMER;arm_rfft_q31(&FFT_Inst.rfft_q31,&InputData.q31[0], &OutputData.q31[0]);REPORT_CYCLE_TIMER;COMMA;
;;;582    				arm_rfft_init_q31(&FFT_Inst.rfft_q31,1024,0,0);START_CYCLE_TIMER;arm_rfft_q31(&FFT_Inst.rfft_q31,&InputData.q31[0], &OutputData.q31[0]);REPORT_CYCLE_TIMER;COMMA;
;;;583    				arm_rfft_init_q31(&FFT_Inst.rfft_q31,2048,0,0);START_CYCLE_TIMER;arm_rfft_q31(&FFT_Inst.rfft_q31,&InputData.q31[0], &OutputData.q31[0]);REPORT_CYCLE_TIMER;COMMA;
;;;584    				arm_rfft_init_q31(&FFT_Inst.rfft_q31,4096,0,0);START_CYCLE_TIMER;arm_rfft_q31(&FFT_Inst.rfft_q31,&InputData.q31[0], &OutputData.q31[0]);REPORT_CYCLE_TIMER;COMMA;
;;;585    			#endif
;;;586    
;;;587    			#ifdef COMPLEX_MAG_SQUARED
;;;588    				CM_PRINTF("\r\n");
;;;589    				CM_PRINTF("ComplexMag-q31,");
;;;590    				START_CYCLE_TIMER;arm_cmplx_mag_q31(&InputData.q31[0],&OutputData.q31[0],16);REPORT_CYCLE_TIMER;COMMA;
;;;591    				START_CYCLE_TIMER;arm_cmplx_mag_q31(&InputData.q31[0],&OutputData.q31[0],32);REPORT_CYCLE_TIMER;COMMA;
;;;592    				START_CYCLE_TIMER;arm_cmplx_mag_q31(&InputData.q31[0],&OutputData.q31[0],64);REPORT_CYCLE_TIMER;COMMA;
;;;593    				START_CYCLE_TIMER;arm_cmplx_mag_q31(&InputData.q31[0],&OutputData.q31[0],128);REPORT_CYCLE_TIMER;COMMA;
;;;594    				START_CYCLE_TIMER;arm_cmplx_mag_q31(&InputData.q31[0],&OutputData.q31[0],256);REPORT_CYCLE_TIMER;COMMA;
;;;595    				START_CYCLE_TIMER;arm_cmplx_mag_q31(&InputData.q31[0],&OutputData.q31[0],512);REPORT_CYCLE_TIMER;COMMA;
;;;596    				START_CYCLE_TIMER;arm_cmplx_mag_q31(&InputData.q31[0],&OutputData.q31[0],1024);REPORT_CYCLE_TIMER;COMMA;
;;;597    				START_CYCLE_TIMER;arm_cmplx_mag_q31(&InputData.q31[0],&OutputData.q31[0],2048);REPORT_CYCLE_TIMER;COMMA;
;;;598    				START_CYCLE_TIMER;arm_cmplx_mag_q31(&InputData.q31[0],&OutputData.q31[0],4096);REPORT_CYCLE_TIMER;COMMA;
;;;599    			#endif
;;;600    
;;;601    			#ifdef COMPLEX_MAG_SQUARED
;;;602    				CM_PRINTF("\r\n");
;;;603    				CM_PRINTF("ComplexMagSquared-q31,");
;;;604    				START_CYCLE_TIMER;arm_cmplx_mag_squared_q31(&InputData.q31[0],&OutputData.q31[0],16);REPORT_CYCLE_TIMER;COMMA;
;;;605    				START_CYCLE_TIMER;arm_cmplx_mag_squared_q31(&InputData.q31[0],&OutputData.q31[0],32);REPORT_CYCLE_TIMER;COMMA;
;;;606    				START_CYCLE_TIMER;arm_cmplx_mag_squared_q31(&InputData.q31[0],&OutputData.q31[0],64);REPORT_CYCLE_TIMER;COMMA;
;;;607    				START_CYCLE_TIMER;arm_cmplx_mag_squared_q31(&InputData.q31[0],&OutputData.q31[0],128);REPORT_CYCLE_TIMER;COMMA;
;;;608    				START_CYCLE_TIMER;arm_cmplx_mag_squared_q31(&InputData.q31[0],&OutputData.q31[0],256);REPORT_CYCLE_TIMER;COMMA;
;;;609    				START_CYCLE_TIMER;arm_cmplx_mag_squared_q31(&InputData.q31[0],&OutputData.q31[0],512);REPORT_CYCLE_TIMER;COMMA;
;;;610    				START_CYCLE_TIMER;arm_cmplx_mag_squared_q31(&InputData.q31[0],&OutputData.q31[0],1024);REPORT_CYCLE_TIMER;COMMA;
;;;611    				START_CYCLE_TIMER;arm_cmplx_mag_squared_q31(&InputData.q31[0],&OutputData.q31[0],2048);REPORT_CYCLE_TIMER;COMMA;
;;;612    				START_CYCLE_TIMER;arm_cmplx_mag_squared_q31(&InputData.q31[0],&OutputData.q31[0],4096);REPORT_CYCLE_TIMER;COMMA;
;;;613                #endif
;;;614    
;;;615    			#ifdef ENABLE_BLOCK_IIR
;;;616    				CM_PRINTF("\r\n");
;;;617    				CM_PRINTF("IIR-q31_df1-1Stage,");
;;;618    
;;;619    				arm_biquad_cascade_df1_init_q31(&IIR_Inst.q31_df1,1,&IIR_Coef_q31[0],&IIR_State_q31[0],1);
;;;620    
;;;621    				START_CYCLE_TIMER;arm_biquad_cascade_df1_q31(&IIR_Inst.q31_df1,&InputData.q31[0],&OutputData.q31[0],16);REPORT_CYCLE_TIMER;COMMA;
;;;622    				START_CYCLE_TIMER;arm_biquad_cascade_df1_q31(&IIR_Inst.q31_df1,&InputData.q31[0],&OutputData.q31[0],32);REPORT_CYCLE_TIMER;COMMA;
;;;623    				START_CYCLE_TIMER;arm_biquad_cascade_df1_q31(&IIR_Inst.q31_df1,&InputData.q31[0],&OutputData.q31[0],64);REPORT_CYCLE_TIMER;COMMA;
;;;624    				START_CYCLE_TIMER;arm_biquad_cascade_df1_q31(&IIR_Inst.q31_df1,&InputData.q31[0],&OutputData.q31[0],128);REPORT_CYCLE_TIMER;COMMA;
;;;625    				START_CYCLE_TIMER;arm_biquad_cascade_df1_q31(&IIR_Inst.q31_df1,&InputData.q31[0],&OutputData.q31[0],256);REPORT_CYCLE_TIMER;COMMA;
;;;626    				START_CYCLE_TIMER;arm_biquad_cascade_df1_q31(&IIR_Inst.q31_df1,&InputData.q31[0],&OutputData.q31[0],512);REPORT_CYCLE_TIMER;COMMA;
;;;627    				START_CYCLE_TIMER;arm_biquad_cascade_df1_q31(&IIR_Inst.q31_df1,&InputData.q31[0],&OutputData.q31[0],1024);REPORT_CYCLE_TIMER;COMMA;
;;;628    				START_CYCLE_TIMER;arm_biquad_cascade_df1_q31(&IIR_Inst.q31_df1,&InputData.q31[0],&OutputData.q31[0],2048);REPORT_CYCLE_TIMER;COMMA;
;;;629    				START_CYCLE_TIMER;arm_biquad_cascade_df1_q31(&IIR_Inst.q31_df1,&InputData.q31[0],&OutputData.q31[0],4096);REPORT_CYCLE_TIMER;COMMA;
;;;630    
;;;631    				CM_PRINTF("\r\n");
;;;632    				CM_PRINTF("IIR-q31_df1-1Stage-fast,");
;;;633    
;;;634    				arm_biquad_cascade_df1_init_q31(&IIR_Inst.q31_df1,1,&IIR_Coef_q31[0],&IIR_State_q31[0],1);
;;;635    
;;;636    				START_CYCLE_TIMER;arm_biquad_cascade_df1_fast_q31(&IIR_Inst.q31_df1,&InputData.q31[0],&OutputData.q31[0],16);REPORT_CYCLE_TIMER;COMMA;
;;;637    				START_CYCLE_TIMER;arm_biquad_cascade_df1_fast_q31(&IIR_Inst.q31_df1,&InputData.q31[0],&OutputData.q31[0],32);REPORT_CYCLE_TIMER;COMMA;
;;;638    				START_CYCLE_TIMER;arm_biquad_cascade_df1_fast_q31(&IIR_Inst.q31_df1,&InputData.q31[0],&OutputData.q31[0],64);REPORT_CYCLE_TIMER;COMMA;
;;;639    				START_CYCLE_TIMER;arm_biquad_cascade_df1_fast_q31(&IIR_Inst.q31_df1,&InputData.q31[0],&OutputData.q31[0],128);REPORT_CYCLE_TIMER;COMMA;
;;;640    				START_CYCLE_TIMER;arm_biquad_cascade_df1_fast_q31(&IIR_Inst.q31_df1,&InputData.q31[0],&OutputData.q31[0],256);REPORT_CYCLE_TIMER;COMMA;
;;;641    				START_CYCLE_TIMER;arm_biquad_cascade_df1_fast_q31(&IIR_Inst.q31_df1,&InputData.q31[0],&OutputData.q31[0],512);REPORT_CYCLE_TIMER;COMMA;
;;;642    				START_CYCLE_TIMER;arm_biquad_cascade_df1_fast_q31(&IIR_Inst.q31_df1,&InputData.q31[0],&OutputData.q31[0],1024);REPORT_CYCLE_TIMER;COMMA;
;;;643    				START_CYCLE_TIMER;arm_biquad_cascade_df1_fast_q31(&IIR_Inst.q31_df1,&InputData.q31[0],&OutputData.q31[0],2048);REPORT_CYCLE_TIMER;COMMA;
;;;644    				START_CYCLE_TIMER;arm_biquad_cascade_df1_fast_q31(&IIR_Inst.q31_df1,&InputData.q31[0],&OutputData.q31[0],4096);REPORT_CYCLE_TIMER;COMMA;
;;;645    
;;;646    				CM_PRINTF("\r\n");
;;;647    				CM_PRINTF("IIR-q31_64_df1-1Staget,");
;;;648    				arm_biquad_cas_df1_32x64_init_q31(&IIR_Inst.q31_64_df1,1,&IIR_Coef_q31[0],&IIR_State_q63[0],1);
;;;649    				START_CYCLE_TIMER;arm_biquad_cas_df1_32x64_q31(&IIR_Inst.q31_64_df1,&InputData.q31[0],&OutputData.q31[0],16);REPORT_CYCLE_TIMER;COMMA;
;;;650    
;;;651    				START_CYCLE_TIMER;arm_biquad_cas_df1_32x64_q31(&IIR_Inst.q31_64_df1,&InputData.q31[0],&OutputData.q31[0],32);REPORT_CYCLE_TIMER;COMMA;
;;;652    				START_CYCLE_TIMER;arm_biquad_cas_df1_32x64_q31(&IIR_Inst.q31_64_df1,&InputData.q31[0],&OutputData.q31[0],64);REPORT_CYCLE_TIMER;COMMA;
;;;653    				START_CYCLE_TIMER;arm_biquad_cas_df1_32x64_q31(&IIR_Inst.q31_64_df1,&InputData.q31[0],&OutputData.q31[0],128);REPORT_CYCLE_TIMER;COMMA;
;;;654    				START_CYCLE_TIMER;arm_biquad_cas_df1_32x64_q31(&IIR_Inst.q31_64_df1,&InputData.q31[0],&OutputData.q31[0],256);REPORT_CYCLE_TIMER;COMMA;
;;;655    				START_CYCLE_TIMER;arm_biquad_cas_df1_32x64_q31(&IIR_Inst.q31_64_df1,&InputData.q31[0],&OutputData.q31[0],512);REPORT_CYCLE_TIMER;COMMA;
;;;656    				START_CYCLE_TIMER;arm_biquad_cas_df1_32x64_q31(&IIR_Inst.q31_64_df1,&InputData.q31[0],&OutputData.q31[0],1024);REPORT_CYCLE_TIMER;COMMA;
;;;657    				START_CYCLE_TIMER;arm_biquad_cas_df1_32x64_q31(&IIR_Inst.q31_64_df1,&InputData.q31[0],&OutputData.q31[0],2048);REPORT_CYCLE_TIMER;COMMA;
;;;658    				START_CYCLE_TIMER;arm_biquad_cas_df1_32x64_q31(&IIR_Inst.q31_64_df1,&InputData.q31[0],&OutputData.q31[0],4096);REPORT_CYCLE_TIMER;COMMA;
;;;659    	     	#endif
;;;660    
;;;661    			#ifdef ENABLE_BLOCK_FIR
;;;662    				CM_PRINTF("\r\n");
;;;663    				CM_PRINTF("FIR-q31_8tap,");
;;;664    				arm_fir_init_q31(&FIR_Inst.q31,8,&FIR_Coef_q31[0],&FIR_State.q31[0],2048);
;;;665    				START_CYCLE_TIMER;arm_fir_q31(&FIR_Inst.q31,&InputData.q31[0],&OutputData.q31[0],16);REPORT_CYCLE_TIMER;COMMA;
;;;666    				START_CYCLE_TIMER;arm_fir_q31(&FIR_Inst.q31,&InputData.q31[0],&OutputData.q31[0],32);REPORT_CYCLE_TIMER;COMMA;
;;;667    				START_CYCLE_TIMER;arm_fir_q31(&FIR_Inst.q31,&InputData.q31[0],&OutputData.q31[0],64);REPORT_CYCLE_TIMER;COMMA;
;;;668    				START_CYCLE_TIMER;arm_fir_q31(&FIR_Inst.q31,&InputData.q31[0],&OutputData.q31[0],128);REPORT_CYCLE_TIMER;COMMA;
;;;669    				START_CYCLE_TIMER;arm_fir_q31(&FIR_Inst.q31,&InputData.q31[0],&OutputData.q31[0],256);REPORT_CYCLE_TIMER;COMMA;
;;;670    				START_CYCLE_TIMER;arm_fir_q31(&FIR_Inst.q31,&InputData.q31[0],&OutputData.q31[0],512);REPORT_CYCLE_TIMER;COMMA;
;;;671    				START_CYCLE_TIMER;arm_fir_q31(&FIR_Inst.q31,&InputData.q31[0],&OutputData.q31[0],1024);REPORT_CYCLE_TIMER;COMMA;
;;;672    				START_CYCLE_TIMER;arm_fir_q31(&FIR_Inst.q31,&InputData.q31[0],&OutputData.q31[0],2048);REPORT_CYCLE_TIMER;COMMA;
;;;673    				CM_PRINTF("n/a"); // Not enough memory to do the 4096 case
;;;674    
;;;675    				CM_PRINTF("\r\n");
;;;676    				CM_PRINTF("FIR-q31_16tap,");
;;;677    
;;;678    				arm_fir_init_q31(&FIR_Inst.q31,16,&FIR_Coef_q31[0],&FIR_State.q31[0],2048);
;;;679    				START_CYCLE_TIMER;arm_fir_q31(&FIR_Inst.q31,&InputData.q31[0],&OutputData.q31[0],16);REPORT_CYCLE_TIMER;COMMA;
;;;680    				START_CYCLE_TIMER;arm_fir_q31(&FIR_Inst.q31,&InputData.q31[0],&OutputData.q31[0],32);REPORT_CYCLE_TIMER;COMMA;
;;;681    				START_CYCLE_TIMER;arm_fir_q31(&FIR_Inst.q31,&InputData.q31[0],&OutputData.q31[0],64);REPORT_CYCLE_TIMER;COMMA;
;;;682    				START_CYCLE_TIMER;arm_fir_q31(&FIR_Inst.q31,&InputData.q31[0],&OutputData.q31[0],128);REPORT_CYCLE_TIMER;COMMA;
;;;683    				START_CYCLE_TIMER;arm_fir_q31(&FIR_Inst.q31,&InputData.q31[0],&OutputData.q31[0],256);REPORT_CYCLE_TIMER;COMMA;
;;;684    				START_CYCLE_TIMER;arm_fir_q31(&FIR_Inst.q31,&InputData.q31[0],&OutputData.q31[0],512);REPORT_CYCLE_TIMER;COMMA;
;;;685    				START_CYCLE_TIMER;arm_fir_q31(&FIR_Inst.q31,&InputData.q31[0],&OutputData.q31[0],1024);REPORT_CYCLE_TIMER;COMMA;
;;;686    				START_CYCLE_TIMER;arm_fir_q31(&FIR_Inst.q31,&InputData.q31[0],&OutputData.q31[0],2048);REPORT_CYCLE_TIMER;COMMA;
;;;687    				CM_PRINTF("n/a"); // Not enough memory to do the 4096 case
;;;688    
;;;689    				CM_PRINTF("\r\n");
;;;690    				CM_PRINTF("FIR-q31_32tap,");
;;;691    
;;;692    				arm_fir_init_q31(&FIR_Inst.q31,32,&FIR_Coef_q31[0],&FIR_State.q31[0],2048);
;;;693    				START_CYCLE_TIMER;arm_fir_q31(&FIR_Inst.q31,&InputData.q31[0],&OutputData.q31[0],16);REPORT_CYCLE_TIMER;COMMA;
;;;694    				START_CYCLE_TIMER;arm_fir_q31(&FIR_Inst.q31,&InputData.q31[0],&OutputData.q31[0],32);REPORT_CYCLE_TIMER;COMMA;
;;;695    				START_CYCLE_TIMER;arm_fir_q31(&FIR_Inst.q31,&InputData.q31[0],&OutputData.q31[0],64);REPORT_CYCLE_TIMER;COMMA;
;;;696    				START_CYCLE_TIMER;arm_fir_q31(&FIR_Inst.q31,&InputData.q31[0],&OutputData.q31[0],128);REPORT_CYCLE_TIMER;COMMA;
;;;697    				START_CYCLE_TIMER;arm_fir_q31(&FIR_Inst.q31,&InputData.q31[0],&OutputData.q31[0],256);REPORT_CYCLE_TIMER;COMMA;
;;;698    				START_CYCLE_TIMER;arm_fir_q31(&FIR_Inst.q31,&InputData.q31[0],&OutputData.q31[0],512);REPORT_CYCLE_TIMER;COMMA;
;;;699    				START_CYCLE_TIMER;arm_fir_q31(&FIR_Inst.q31,&InputData.q31[0],&OutputData.q31[0],1024);REPORT_CYCLE_TIMER;COMMA;
;;;700    				START_CYCLE_TIMER;arm_fir_q31(&FIR_Inst.q31,&InputData.q31[0],&OutputData.q31[0],2048);REPORT_CYCLE_TIMER;COMMA;
;;;701    				CM_PRINTF("n/a"); // Not enough memory to do the 4096 case
;;;702    			#endif
;;;703    
;;;704    	#endif
;;;705    
;;;706        	/***
;;;707        	 *           __ _____
;;;708        	 *          /_ | ____|
;;;709        	 *       __ _| | |__
;;;710        	 *      / _` | |___ \
;;;711        	 *     | (_| | |___) |
;;;712        	 *      \__, |_|____/
;;;713        	 *         | |
;;;714        	 *         |_|
;;;715        	 */
;;;716    
;;;717    		#ifdef _q15
;;;718    				#ifdef ENABLE_CFFT_BR
;;;719    
;;;720    				CM_PRINTF("\r\n");
0000a0  a0df              ADR      r0,|L1.1056|
0000a2  f7fffffe          BL       __2printf
;;;721    				CM_PRINTF("CFFT-q15-BitReverse,");
0000a6  a0fc              ADR      r0,|L1.1176|
0000a8  f7fffffe          BL       __2printf
;;;722    				START_CYCLE_TIMER;arm_cfft_q15(&arm_cfft_sR_q15_len16,   &InputData.q15[0], 0, 1);REPORT_CYCLE_TIMER;COMMA;
0000ac  61a6              STR      r6,[r4,#0x18]
0000ae  6125              STR      r5,[r4,#0x10]
0000b0  2301              MOVS     r3,#1
0000b2  2200              MOVS     r2,#0
0000b4  49c2              LDR      r1,|L1.960|
0000b6  48fe              LDR      r0,|L1.1200|
0000b8  f7fffffe          BL       arm_cfft_q15
0000bc  6127              STR      r7,[r4,#0x10]
0000be  69a0              LDR      r0,[r4,#0x18]
0000c0  9901              LDR      r1,[sp,#4]
0000c2  f1c07080          RSB      r0,r0,#0x1000000
0000c6  9000              STR      r0,[sp,#0]
0000c8  1a41              SUBS     r1,r0,r1
0000ca  a0fa              ADR      r0,|L1.1204|
0000cc  f7fffffe          BL       __2printf
0000d0  a0f9              ADR      r0,|L1.1208|
0000d2  f7fffffe          BL       __2printf
;;;723    				START_CYCLE_TIMER;arm_cfft_q15(&arm_cfft_sR_q15_len32,   &InputData.q15[0], 0, 1);REPORT_CYCLE_TIMER;COMMA;
0000d6  61a6              STR      r6,[r4,#0x18]
0000d8  6125              STR      r5,[r4,#0x10]
0000da  2301              MOVS     r3,#1
0000dc  2200              MOVS     r2,#0
0000de  49b8              LDR      r1,|L1.960|
0000e0  48f6              LDR      r0,|L1.1212|
0000e2  f7fffffe          BL       arm_cfft_q15
0000e6  6127              STR      r7,[r4,#0x10]
0000e8  69a0              LDR      r0,[r4,#0x18]
0000ea  9901              LDR      r1,[sp,#4]
0000ec  f1c07080          RSB      r0,r0,#0x1000000
0000f0  9000              STR      r0,[sp,#0]
0000f2  1a41              SUBS     r1,r0,r1
0000f4  a0ef              ADR      r0,|L1.1204|
0000f6  f7fffffe          BL       __2printf
0000fa  a0ef              ADR      r0,|L1.1208|
0000fc  f7fffffe          BL       __2printf
;;;724    				START_CYCLE_TIMER;arm_cfft_q15(&arm_cfft_sR_q15_len64,   &InputData.q15[0], 0, 1);REPORT_CYCLE_TIMER;COMMA;
000100  61a6              STR      r6,[r4,#0x18]
000102  6125              STR      r5,[r4,#0x10]
000104  2301              MOVS     r3,#1
000106  2200              MOVS     r2,#0
000108  49ad              LDR      r1,|L1.960|
00010a  48ed              LDR      r0,|L1.1216|
00010c  f7fffffe          BL       arm_cfft_q15
000110  6127              STR      r7,[r4,#0x10]
000112  69a0              LDR      r0,[r4,#0x18]
000114  9901              LDR      r1,[sp,#4]
000116  f1c07080          RSB      r0,r0,#0x1000000
00011a  9000              STR      r0,[sp,#0]
00011c  1a41              SUBS     r1,r0,r1
00011e  a0e5              ADR      r0,|L1.1204|
000120  f7fffffe          BL       __2printf
000124  a0e4              ADR      r0,|L1.1208|
000126  f7fffffe          BL       __2printf
;;;725    				START_CYCLE_TIMER;arm_cfft_q15(&arm_cfft_sR_q15_len128,  &InputData.q15[0], 0, 1);REPORT_CYCLE_TIMER;COMMA;
00012a  61a6              STR      r6,[r4,#0x18]
00012c  6125              STR      r5,[r4,#0x10]
00012e  2301              MOVS     r3,#1
000130  2200              MOVS     r2,#0
000132  49a3              LDR      r1,|L1.960|
000134  48e3              LDR      r0,|L1.1220|
000136  f7fffffe          BL       arm_cfft_q15
00013a  6127              STR      r7,[r4,#0x10]
00013c  69a0              LDR      r0,[r4,#0x18]
00013e  9901              LDR      r1,[sp,#4]
000140  f1c07080          RSB      r0,r0,#0x1000000
000144  9000              STR      r0,[sp,#0]
000146  1a41              SUBS     r1,r0,r1
000148  a0da              ADR      r0,|L1.1204|
00014a  f7fffffe          BL       __2printf
00014e  a0da              ADR      r0,|L1.1208|
000150  f7fffffe          BL       __2printf
;;;726    				START_CYCLE_TIMER;arm_cfft_q15(&arm_cfft_sR_q15_len256,  &InputData.q15[0], 0, 1);REPORT_CYCLE_TIMER;COMMA;
000154  61a6              STR      r6,[r4,#0x18]
000156  6125              STR      r5,[r4,#0x10]
000158  2301              MOVS     r3,#1
00015a  2200              MOVS     r2,#0
00015c  4998              LDR      r1,|L1.960|
00015e  48da              LDR      r0,|L1.1224|
000160  f7fffffe          BL       arm_cfft_q15
000164  6127              STR      r7,[r4,#0x10]
000166  69a0              LDR      r0,[r4,#0x18]
000168  9901              LDR      r1,[sp,#4]
00016a  f1c07080          RSB      r0,r0,#0x1000000
00016e  9000              STR      r0,[sp,#0]
000170  1a41              SUBS     r1,r0,r1
000172  a0d0              ADR      r0,|L1.1204|
000174  f7fffffe          BL       __2printf
000178  a0cf              ADR      r0,|L1.1208|
00017a  f7fffffe          BL       __2printf
;;;727    				START_CYCLE_TIMER;arm_cfft_q15(&arm_cfft_sR_q15_len512,  &InputData.q15[0], 0, 1);REPORT_CYCLE_TIMER;COMMA;
00017e  61a6              STR      r6,[r4,#0x18]
000180  6125              STR      r5,[r4,#0x10]
000182  2301              MOVS     r3,#1
000184  2200              MOVS     r2,#0
000186  498e              LDR      r1,|L1.960|
000188  48d0              LDR      r0,|L1.1228|
00018a  f7fffffe          BL       arm_cfft_q15
00018e  6127              STR      r7,[r4,#0x10]
000190  69a0              LDR      r0,[r4,#0x18]
000192  9901              LDR      r1,[sp,#4]
000194  f1c07080          RSB      r0,r0,#0x1000000
000198  9000              STR      r0,[sp,#0]
00019a  1a41              SUBS     r1,r0,r1
00019c  a0c5              ADR      r0,|L1.1204|
00019e  f7fffffe          BL       __2printf
0001a2  a0c5              ADR      r0,|L1.1208|
0001a4  f7fffffe          BL       __2printf
;;;728    				START_CYCLE_TIMER;arm_cfft_q15(&arm_cfft_sR_q15_len1024, &InputData.q15[0], 0, 1);REPORT_CYCLE_TIMER;COMMA;
0001a8  61a6              STR      r6,[r4,#0x18]
0001aa  6125              STR      r5,[r4,#0x10]
0001ac  2301              MOVS     r3,#1
0001ae  2200              MOVS     r2,#0
0001b0  4983              LDR      r1,|L1.960|
0001b2  48c7              LDR      r0,|L1.1232|
0001b4  f7fffffe          BL       arm_cfft_q15
0001b8  6127              STR      r7,[r4,#0x10]
0001ba  69a0              LDR      r0,[r4,#0x18]
0001bc  9901              LDR      r1,[sp,#4]
0001be  f1c07080          RSB      r0,r0,#0x1000000
0001c2  9000              STR      r0,[sp,#0]
0001c4  1a41              SUBS     r1,r0,r1
0001c6  a0bb              ADR      r0,|L1.1204|
0001c8  f7fffffe          BL       __2printf
0001cc  a0ba              ADR      r0,|L1.1208|
0001ce  f7fffffe          BL       __2printf
;;;729    				START_CYCLE_TIMER;arm_cfft_q15(&arm_cfft_sR_q15_len2048, &InputData.q15[0], 0, 1);REPORT_CYCLE_TIMER;COMMA;
0001d2  61a6              STR      r6,[r4,#0x18]
0001d4  6125              STR      r5,[r4,#0x10]
0001d6  2301              MOVS     r3,#1
0001d8  2200              MOVS     r2,#0
0001da  4979              LDR      r1,|L1.960|
0001dc  48bd              LDR      r0,|L1.1236|
0001de  f7fffffe          BL       arm_cfft_q15
0001e2  6127              STR      r7,[r4,#0x10]
0001e4  69a0              LDR      r0,[r4,#0x18]
0001e6  9901              LDR      r1,[sp,#4]
0001e8  f1c07080          RSB      r0,r0,#0x1000000
0001ec  9000              STR      r0,[sp,#0]
0001ee  1a41              SUBS     r1,r0,r1
0001f0  a0b0              ADR      r0,|L1.1204|
0001f2  f7fffffe          BL       __2printf
0001f6  a0b0              ADR      r0,|L1.1208|
0001f8  f7fffffe          BL       __2printf
;;;730    				START_CYCLE_TIMER;arm_cfft_q31(&arm_cfft_sR_q31_len4096, &InputData.q31[0], 0, 1);REPORT_CYCLE_TIMER;COMMA;
0001fc  61a6              STR      r6,[r4,#0x18]
0001fe  6125              STR      r5,[r4,#0x10]
000200  2301              MOVS     r3,#1
000202  2200              MOVS     r2,#0
000204  496e              LDR      r1,|L1.960|
000206  48b4              LDR      r0,|L1.1240|
000208  f7fffffe          BL       arm_cfft_q31
00020c  6127              STR      r7,[r4,#0x10]
00020e  69a0              LDR      r0,[r4,#0x18]
000210  9901              LDR      r1,[sp,#4]
000212  f1c07080          RSB      r0,r0,#0x1000000
000216  9000              STR      r0,[sp,#0]
000218  1a41              SUBS     r1,r0,r1
00021a  a0a6              ADR      r0,|L1.1204|
00021c  f7fffffe          BL       __2printf
000220  a0a5              ADR      r0,|L1.1208|
000222  f7fffffe          BL       __2printf
;;;731    				#endif
;;;732    
;;;733    				#ifdef ENABLE_CFFT_NBR
;;;734    				CM_PRINTF("\r\n");
000226  a07e              ADR      r0,|L1.1056|
000228  f7fffffe          BL       __2printf
;;;735    				CM_PRINTF("CFFT-q15-NoBitReverse,");
00022c  a0ab              ADR      r0,|L1.1244|
00022e  f7fffffe          BL       __2printf
;;;736    				START_CYCLE_TIMER;arm_cfft_q15(&arm_cfft_sR_q15_len16,   &InputData.q15[0], 0, 0);REPORT_CYCLE_TIMER;COMMA;
000232  61a6              STR      r6,[r4,#0x18]
000234  6125              STR      r5,[r4,#0x10]
000236  2300              MOVS     r3,#0
000238  461a              MOV      r2,r3
00023a  4961              LDR      r1,|L1.960|
00023c  489c              LDR      r0,|L1.1200|
00023e  f7fffffe          BL       arm_cfft_q15
000242  6127              STR      r7,[r4,#0x10]
000244  69a0              LDR      r0,[r4,#0x18]
000246  9901              LDR      r1,[sp,#4]
000248  f1c07080          RSB      r0,r0,#0x1000000
00024c  9000              STR      r0,[sp,#0]
00024e  1a41              SUBS     r1,r0,r1
000250  a098              ADR      r0,|L1.1204|
000252  f7fffffe          BL       __2printf
000256  a098              ADR      r0,|L1.1208|
000258  f7fffffe          BL       __2printf
;;;737    				START_CYCLE_TIMER;arm_cfft_q15(&arm_cfft_sR_q15_len32,   &InputData.q15[0], 0, 0);REPORT_CYCLE_TIMER;COMMA;
00025c  61a6              STR      r6,[r4,#0x18]
00025e  6125              STR      r5,[r4,#0x10]
000260  2300              MOVS     r3,#0
000262  461a              MOV      r2,r3
000264  4956              LDR      r1,|L1.960|
000266  4895              LDR      r0,|L1.1212|
000268  f7fffffe          BL       arm_cfft_q15
00026c  6127              STR      r7,[r4,#0x10]
00026e  69a0              LDR      r0,[r4,#0x18]
000270  9901              LDR      r1,[sp,#4]
000272  f1c07080          RSB      r0,r0,#0x1000000
000276  9000              STR      r0,[sp,#0]
000278  1a41              SUBS     r1,r0,r1
00027a  a08e              ADR      r0,|L1.1204|
00027c  f7fffffe          BL       __2printf
000280  a08d              ADR      r0,|L1.1208|
000282  f7fffffe          BL       __2printf
;;;738    				START_CYCLE_TIMER;arm_cfft_q15(&arm_cfft_sR_q15_len64,   &InputData.q15[0], 0, 0);REPORT_CYCLE_TIMER;COMMA;
000286  61a6              STR      r6,[r4,#0x18]
000288  6125              STR      r5,[r4,#0x10]
00028a  2300              MOVS     r3,#0
00028c  461a              MOV      r2,r3
00028e  494c              LDR      r1,|L1.960|
000290  488b              LDR      r0,|L1.1216|
000292  f7fffffe          BL       arm_cfft_q15
000296  6127              STR      r7,[r4,#0x10]
000298  69a0              LDR      r0,[r4,#0x18]
00029a  9901              LDR      r1,[sp,#4]
00029c  f1c07080          RSB      r0,r0,#0x1000000
0002a0  9000              STR      r0,[sp,#0]
0002a2  1a41              SUBS     r1,r0,r1
0002a4  a083              ADR      r0,|L1.1204|
0002a6  f7fffffe          BL       __2printf
0002aa  a083              ADR      r0,|L1.1208|
0002ac  f7fffffe          BL       __2printf
;;;739    				START_CYCLE_TIMER;arm_cfft_q15(&arm_cfft_sR_q15_len128,  &InputData.q15[0], 0, 0);REPORT_CYCLE_TIMER;COMMA;
0002b0  61a6              STR      r6,[r4,#0x18]
0002b2  6125              STR      r5,[r4,#0x10]
0002b4  2300              MOVS     r3,#0
0002b6  461a              MOV      r2,r3
0002b8  4941              LDR      r1,|L1.960|
0002ba  4882              LDR      r0,|L1.1220|
0002bc  f7fffffe          BL       arm_cfft_q15
0002c0  6127              STR      r7,[r4,#0x10]
0002c2  69a0              LDR      r0,[r4,#0x18]
0002c4  9901              LDR      r1,[sp,#4]
0002c6  f1c07080          RSB      r0,r0,#0x1000000
0002ca  9000              STR      r0,[sp,#0]
0002cc  1a41              SUBS     r1,r0,r1
0002ce  a079              ADR      r0,|L1.1204|
0002d0  f7fffffe          BL       __2printf
0002d4  a078              ADR      r0,|L1.1208|
0002d6  f7fffffe          BL       __2printf
;;;740    				START_CYCLE_TIMER;arm_cfft_q15(&arm_cfft_sR_q15_len256,  &InputData.q15[0], 0, 0);REPORT_CYCLE_TIMER;COMMA;
0002da  61a6              STR      r6,[r4,#0x18]
0002dc  6125              STR      r5,[r4,#0x10]
0002de  2300              MOVS     r3,#0
0002e0  461a              MOV      r2,r3
0002e2  4937              LDR      r1,|L1.960|
0002e4  4878              LDR      r0,|L1.1224|
0002e6  f7fffffe          BL       arm_cfft_q15
0002ea  6127              STR      r7,[r4,#0x10]
0002ec  69a0              LDR      r0,[r4,#0x18]
0002ee  9901              LDR      r1,[sp,#4]
0002f0  f1c07080          RSB      r0,r0,#0x1000000
0002f4  9000              STR      r0,[sp,#0]
0002f6  1a41              SUBS     r1,r0,r1
0002f8  a06e              ADR      r0,|L1.1204|
0002fa  f7fffffe          BL       __2printf
0002fe  a06e              ADR      r0,|L1.1208|
000300  f7fffffe          BL       __2printf
;;;741    				START_CYCLE_TIMER;arm_cfft_q15(&arm_cfft_sR_q15_len512,  &InputData.q15[0], 0, 0);REPORT_CYCLE_TIMER;COMMA;
000304  61a6              STR      r6,[r4,#0x18]
000306  6125              STR      r5,[r4,#0x10]
000308  2300              MOVS     r3,#0
00030a  461a              MOV      r2,r3
00030c  492c              LDR      r1,|L1.960|
00030e  486f              LDR      r0,|L1.1228|
000310  f7fffffe          BL       arm_cfft_q15
000314  6127              STR      r7,[r4,#0x10]
000316  69a0              LDR      r0,[r4,#0x18]
000318  9901              LDR      r1,[sp,#4]
00031a  f1c07080          RSB      r0,r0,#0x1000000
00031e  9000              STR      r0,[sp,#0]
000320  1a41              SUBS     r1,r0,r1
000322  a064              ADR      r0,|L1.1204|
000324  f7fffffe          BL       __2printf
000328  a063              ADR      r0,|L1.1208|
00032a  f7fffffe          BL       __2printf
;;;742    				START_CYCLE_TIMER;arm_cfft_q15(&arm_cfft_sR_q15_len1024, &InputData.q15[0], 0, 0);REPORT_CYCLE_TIMER;COMMA;
00032e  61a6              STR      r6,[r4,#0x18]
000330  6125              STR      r5,[r4,#0x10]
000332  2300              MOVS     r3,#0
000334  461a              MOV      r2,r3
000336  4922              LDR      r1,|L1.960|
000338  4865              LDR      r0,|L1.1232|
00033a  f7fffffe          BL       arm_cfft_q15
00033e  6127              STR      r7,[r4,#0x10]
000340  69a0              LDR      r0,[r4,#0x18]
000342  9901              LDR      r1,[sp,#4]
000344  f1c07080          RSB      r0,r0,#0x1000000
000348  9000              STR      r0,[sp,#0]
00034a  1a41              SUBS     r1,r0,r1
00034c  a059              ADR      r0,|L1.1204|
00034e  f7fffffe          BL       __2printf
000352  a059              ADR      r0,|L1.1208|
000354  f7fffffe          BL       __2printf
;;;743    				START_CYCLE_TIMER;arm_cfft_q15(&arm_cfft_sR_q15_len2048, &InputData.q15[0], 0, 0);REPORT_CYCLE_TIMER;COMMA;
000358  61a6              STR      r6,[r4,#0x18]
00035a  6125              STR      r5,[r4,#0x10]
00035c  2300              MOVS     r3,#0
00035e  461a              MOV      r2,r3
000360  4917              LDR      r1,|L1.960|
000362  485c              LDR      r0,|L1.1236|
000364  f7fffffe          BL       arm_cfft_q15
000368  6127              STR      r7,[r4,#0x10]
00036a  69a0              LDR      r0,[r4,#0x18]
00036c  9901              LDR      r1,[sp,#4]
00036e  f1c07080          RSB      r0,r0,#0x1000000
000372  9000              STR      r0,[sp,#0]
000374  1a41              SUBS     r1,r0,r1
000376  a04f              ADR      r0,|L1.1204|
000378  f7fffffe          BL       __2printf
00037c  a04e              ADR      r0,|L1.1208|
00037e  f7fffffe          BL       __2printf
;;;744    				START_CYCLE_TIMER;arm_cfft_q31(&arm_cfft_sR_q31_len4096, &InputData.q31[0], 0, 0);REPORT_CYCLE_TIMER;COMMA;
000382  61a6              STR      r6,[r4,#0x18]
000384  6125              STR      r5,[r4,#0x10]
000386  2300              MOVS     r3,#0
000388  461a              MOV      r2,r3
00038a  490d              LDR      r1,|L1.960|
00038c  4852              LDR      r0,|L1.1240|
00038e  f7fffffe          BL       arm_cfft_q31
000392  6127              STR      r7,[r4,#0x10]
000394  69a0              LDR      r0,[r4,#0x18]
000396  9901              LDR      r1,[sp,#4]
000398  f1c07080          RSB      r0,r0,#0x1000000
00039c  9000              STR      r0,[sp,#0]
00039e  1a41              SUBS     r1,r0,r1
0003a0  a044              ADR      r0,|L1.1204|
0003a2  f7fffffe          BL       __2printf
0003a6  a044              ADR      r0,|L1.1208|
0003a8  f7fffffe          BL       __2printf
;;;745    				#endif
;;;746    
;;;747    				#ifdef ENABLE_RFFT_BR
;;;748    				CM_PRINTF("\r\nRFFT-Q15-BitReverse,");
0003ac  a051              ADR      r0,|L1.1268|
0003ae  f7fffffe          BL       __2printf
;;;749    				CM_PRINTF("n/a");COMMA;
0003b2  a056              ADR      r0,|L1.1292|
0003b4  f7fffffe          BL       __2printf
0003b8  a03f              ADR      r0,|L1.1208|
0003ba  f7fffffe          BL       __2printf
;;;750    				arm_rfft_init_q15(&FFT_Inst.rfft_q15,32,0,1);START_CYCLE_TIMER  ;arm_rfft_q15(&FFT_Inst.rfft_q15,&InputData.q15[0], &OutputData.q15[0]);REPORT_CYCLE_TIMER;COMMA;
0003be  e0a7              B        |L1.1296|
                  |L1.960|
                          DCD      ||.bss||
                  |L1.964|
                          DCD      ||.bss||+0x120a0
                  |L1.968|
0003c8  436f7274          DCB      "Cortex M4/7 Performance Test.\r\n",0
0003cc  6578204d
0003d0  342f3720
0003d4  50657266
0003d8  6f726d61
0003dc  6e636520
0003e0  54657374
0003e4  2e0d0a00
                  |L1.1000|
                          DCD      0x004d3746
                  |L1.1004|
0003ec  41524d43          DCB      "ARMCC Version: %d\r\n",0
0003f0  43205665
0003f4  7273696f
0003f8  6e3a2025
0003fc  640d0a00
                  |L1.1024|
000400  48617264          DCB      "HardABI",0
000404  41424900
                  |L1.1032|
000408  2d4f3300          DCB      "-O3",0
                  |L1.1036|
00040c  4c504335          DCB      "LPC54114",0
000410  34313134
000414  00      
000415  00                DCB      0
000416  00                DCB      0
000417  00                DCB      0
                  |L1.1048|
000418  25732025          DCB      "%s %s %s"
00041c  73202573
                  |L1.1056|
000420  0d0a00            DCB      "\r\n",0
000423  00                DCB      0
                  |L1.1060|
000424  4e4f5445          DCB      "NOTES: \r\n",0
000428  533a200d
00042c  0a00    
00042e  00                DCB      0
00042f  00                DCB      0
                  |L1.1072|
000430  4379636c          DCB      "Cycle Offset: %d\r\n",0
000434  65204f66
000438  66736574
00043c  3a202564
000440  0d0a00  
000443  00                DCB      0
                  |L1.1092|
000444  0d0a426c          DCB      "\r\nBlock Processing Functions",0
000448  6f636b20
00044c  50726f63
000450  65737369
000454  6e672046
000458  756e6374
00045c  696f6e73
000460  00      
000461  00                DCB      0
000462  00                DCB      0
000463  00                DCB      0
                  |L1.1124|
                          DCD      ||.conststring||
                  |L1.1128|
000468  0d0a4c65          DCB      "\r\nLength,16,32,64,128,256,512,1024,2048,4096",0
00046c  6e677468
000470  2c31362c
000474  33322c36
000478  342c3132
00047c  382c3235
000480  362c3531
000484  322c3130
000488  32342c32
00048c  3034382c
000490  34303936
000494  00      
000495  00                DCB      0
000496  00                DCB      0
000497  00                DCB      0
                  |L1.1176|
000498  43464654          DCB      "CFFT-q15-BitReverse,",0
00049c  2d713135
0004a0  2d426974
0004a4  52657665
0004a8  7273652c
0004ac  00      
0004ad  00                DCB      0
0004ae  00                DCB      0
0004af  00                DCB      0
                  |L1.1200|
                          DCD      arm_cfft_sR_q15_len16
                  |L1.1204|
0004b4  256900            DCB      "%i",0
0004b7  00                DCB      0
                  |L1.1208|
0004b8  2c00              DCB      ",",0
0004ba  00                DCB      0
0004bb  00                DCB      0
                  |L1.1212|
                          DCD      arm_cfft_sR_q15_len32
                  |L1.1216|
                          DCD      arm_cfft_sR_q15_len64
                  |L1.1220|
                          DCD      arm_cfft_sR_q15_len128
                  |L1.1224|
                          DCD      arm_cfft_sR_q15_len256
                  |L1.1228|
                          DCD      arm_cfft_sR_q15_len512
                  |L1.1232|
                          DCD      arm_cfft_sR_q15_len1024
                  |L1.1236|
                          DCD      arm_cfft_sR_q15_len2048
                  |L1.1240|
                          DCD      arm_cfft_sR_q31_len4096
                  |L1.1244|
0004dc  43464654          DCB      "CFFT-q15-NoBitReverse,",0
0004e0  2d713135
0004e4  2d4e6f42
0004e8  69745265
0004ec  76657273
0004f0  652c00  
0004f3  00                DCB      0
                  |L1.1268|
0004f4  0d0a5246          DCB      "\r\nRFFT-Q15-BitReverse,",0
0004f8  46542d51
0004fc  31352d42
000500  69745265
000504  76657273
000508  652c00  
00050b  00                DCB      0
                  |L1.1292|
00050c  6e2f6100          DCB      "n/a",0
                  |L1.1296|
000510  2301              MOVS     r3,#1
000512  2200              MOVS     r2,#0
000514  2120              MOVS     r1,#0x20
000516  48fe              LDR      r0,|L1.2320|
000518  f7fffffe          BL       arm_rfft_init_q15
00051c  61a6              STR      r6,[r4,#0x18]
00051e  6125              STR      r5,[r4,#0x10]
000520  4afc              LDR      r2,|L1.2324|
000522  48fb              LDR      r0,|L1.2320|
000524  f5a24100          SUB      r1,r2,#0x8000
000528  f7fffffe          BL       arm_rfft_q15
00052c  6127              STR      r7,[r4,#0x10]
00052e  69a0              LDR      r0,[r4,#0x18]
000530  9901              LDR      r1,[sp,#4]
000532  f1c07080          RSB      r0,r0,#0x1000000
000536  9000              STR      r0,[sp,#0]
000538  1a41              SUBS     r1,r0,r1
00053a  f2af0088          ADR      r0,|L1.1204|
00053e  f7fffffe          BL       __2printf
000542  f2af008c          ADR      r0,|L1.1208|
000546  f7fffffe          BL       __2printf
;;;751    				arm_rfft_init_q15(&FFT_Inst.rfft_q15,64,0,1);START_CYCLE_TIMER  ;arm_rfft_q15(&FFT_Inst.rfft_q15,&InputData.q15[0], &OutputData.q15[0]);REPORT_CYCLE_TIMER;COMMA;
00054a  2301              MOVS     r3,#1
00054c  2200              MOVS     r2,#0
00054e  2140              MOVS     r1,#0x40
000550  48ef              LDR      r0,|L1.2320|
000552  f7fffffe          BL       arm_rfft_init_q15
000556  61a6              STR      r6,[r4,#0x18]
000558  6125              STR      r5,[r4,#0x10]
00055a  4aee              LDR      r2,|L1.2324|
00055c  48ec              LDR      r0,|L1.2320|
00055e  f5a24100          SUB      r1,r2,#0x8000
000562  f7fffffe          BL       arm_rfft_q15
000566  6127              STR      r7,[r4,#0x10]
000568  69a0              LDR      r0,[r4,#0x18]
00056a  9901              LDR      r1,[sp,#4]
00056c  f1c07080          RSB      r0,r0,#0x1000000
000570  9000              STR      r0,[sp,#0]
000572  1a41              SUBS     r1,r0,r1
000574  f2af00c4          ADR      r0,|L1.1204|
000578  f7fffffe          BL       __2printf
00057c  f2af00c8          ADR      r0,|L1.1208|
000580  f7fffffe          BL       __2printf
;;;752    				arm_rfft_init_q15(&FFT_Inst.rfft_q15,128,0,1);START_CYCLE_TIMER ;arm_rfft_q15(&FFT_Inst.rfft_q15,&InputData.q15[0], &OutputData.q15[0]);REPORT_CYCLE_TIMER;COMMA;
000584  2301              MOVS     r3,#1
000586  2200              MOVS     r2,#0
000588  2180              MOVS     r1,#0x80
00058a  48e1              LDR      r0,|L1.2320|
00058c  f7fffffe          BL       arm_rfft_init_q15
000590  61a6              STR      r6,[r4,#0x18]
000592  6125              STR      r5,[r4,#0x10]
000594  4adf              LDR      r2,|L1.2324|
000596  48de              LDR      r0,|L1.2320|
000598  f5a24100          SUB      r1,r2,#0x8000
00059c  f7fffffe          BL       arm_rfft_q15
0005a0  6127              STR      r7,[r4,#0x10]
0005a2  69a0              LDR      r0,[r4,#0x18]
0005a4  9901              LDR      r1,[sp,#4]
0005a6  f1c07080          RSB      r0,r0,#0x1000000
0005aa  9000              STR      r0,[sp,#0]
0005ac  1a41              SUBS     r1,r0,r1
0005ae  f2af00fc          ADR      r0,|L1.1204|
0005b2  f7fffffe          BL       __2printf
0005b6  f2af1000          ADR      r0,|L1.1208|
0005ba  f7fffffe          BL       __2printf
;;;753    				arm_rfft_init_q15(&FFT_Inst.rfft_q15,256,0,1);START_CYCLE_TIMER ;arm_rfft_q15(&FFT_Inst.rfft_q15,&InputData.q15[0], &OutputData.q15[0]);REPORT_CYCLE_TIMER;COMMA;
0005be  2301              MOVS     r3,#1
0005c0  2200              MOVS     r2,#0
0005c2  0219              LSLS     r1,r3,#8
0005c4  48d2              LDR      r0,|L1.2320|
0005c6  f7fffffe          BL       arm_rfft_init_q15
0005ca  61a6              STR      r6,[r4,#0x18]
0005cc  6125              STR      r5,[r4,#0x10]
0005ce  4ad1              LDR      r2,|L1.2324|
0005d0  48cf              LDR      r0,|L1.2320|
0005d2  f5a24100          SUB      r1,r2,#0x8000
0005d6  f7fffffe          BL       arm_rfft_q15
0005da  6127              STR      r7,[r4,#0x10]
0005dc  69a0              LDR      r0,[r4,#0x18]
0005de  9901              LDR      r1,[sp,#4]
0005e0  f1c07080          RSB      r0,r0,#0x1000000
0005e4  9000              STR      r0,[sp,#0]
0005e6  1a41              SUBS     r1,r0,r1
0005e8  f2af1038          ADR      r0,|L1.1204|
0005ec  f7fffffe          BL       __2printf
0005f0  f2af103c          ADR      r0,|L1.1208|
0005f4  f7fffffe          BL       __2printf
;;;754    				arm_rfft_init_q15(&FFT_Inst.rfft_q15,512,0,1);START_CYCLE_TIMER ;arm_rfft_q15(&FFT_Inst.rfft_q15,&InputData.q15[0], &OutputData.q15[0]);REPORT_CYCLE_TIMER;COMMA;
0005f8  f44f7b00          MOV      r11,#0x200
0005fc  2301              MOVS     r3,#1
0005fe  2200              MOVS     r2,#0
000600  4659              MOV      r1,r11
000602  48c3              LDR      r0,|L1.2320|
000604  f7fffffe          BL       arm_rfft_init_q15
000608  61a6              STR      r6,[r4,#0x18]
00060a  6125              STR      r5,[r4,#0x10]
00060c  4ac1              LDR      r2,|L1.2324|
00060e  48c0              LDR      r0,|L1.2320|
000610  f5a24100          SUB      r1,r2,#0x8000
000614  f7fffffe          BL       arm_rfft_q15
000618  6127              STR      r7,[r4,#0x10]
00061a  69a0              LDR      r0,[r4,#0x18]
00061c  9901              LDR      r1,[sp,#4]
00061e  f1c07080          RSB      r0,r0,#0x1000000
000622  9000              STR      r0,[sp,#0]
000624  1a41              SUBS     r1,r0,r1
000626  f2af1074          ADR      r0,|L1.1204|
00062a  f7fffffe          BL       __2printf
00062e  f2af1078          ADR      r0,|L1.1208|
000632  f7fffffe          BL       __2printf
;;;755    				arm_rfft_init_q15(&FFT_Inst.rfft_q15,1024,0,1);START_CYCLE_TIMER;arm_rfft_q15(&FFT_Inst.rfft_q15,&InputData.q15[0], &OutputData.q15[0]);REPORT_CYCLE_TIMER;COMMA;
000636  2301              MOVS     r3,#1
000638  2200              MOVS     r2,#0
00063a  0299              LSLS     r1,r3,#10
00063c  48b4              LDR      r0,|L1.2320|
00063e  f7fffffe          BL       arm_rfft_init_q15
000642  61a6              STR      r6,[r4,#0x18]
000644  6125              STR      r5,[r4,#0x10]
000646  4ab3              LDR      r2,|L1.2324|
000648  48b1              LDR      r0,|L1.2320|
00064a  f5a24100          SUB      r1,r2,#0x8000
00064e  f7fffffe          BL       arm_rfft_q15
000652  6127              STR      r7,[r4,#0x10]
000654  69a0              LDR      r0,[r4,#0x18]
000656  9901              LDR      r1,[sp,#4]
000658  f1c07080          RSB      r0,r0,#0x1000000
00065c  9000              STR      r0,[sp,#0]
00065e  1a41              SUBS     r1,r0,r1
000660  f2af10b0          ADR      r0,|L1.1204|
000664  f7fffffe          BL       __2printf
000668  f2af10b4          ADR      r0,|L1.1208|
00066c  f7fffffe          BL       __2printf
;;;756    				arm_rfft_init_q15(&FFT_Inst.rfft_q15,2048,0,1);START_CYCLE_TIMER;arm_rfft_q15(&FFT_Inst.rfft_q15,&InputData.q15[0], &OutputData.q15[0]);REPORT_CYCLE_TIMER;COMMA;
000670  2301              MOVS     r3,#1
000672  2200              MOVS     r2,#0
000674  02d9              LSLS     r1,r3,#11
000676  48a6              LDR      r0,|L1.2320|
000678  f7fffffe          BL       arm_rfft_init_q15
00067c  61a6              STR      r6,[r4,#0x18]
00067e  6125              STR      r5,[r4,#0x10]
000680  4aa4              LDR      r2,|L1.2324|
000682  48a3              LDR      r0,|L1.2320|
000684  f5a24100          SUB      r1,r2,#0x8000
000688  f7fffffe          BL       arm_rfft_q15
00068c  6127              STR      r7,[r4,#0x10]
00068e  69a0              LDR      r0,[r4,#0x18]
000690  9901              LDR      r1,[sp,#4]
000692  f1c07080          RSB      r0,r0,#0x1000000
000696  9000              STR      r0,[sp,#0]
000698  1a41              SUBS     r1,r0,r1
00069a  f2af10e8          ADR      r0,|L1.1204|
00069e  f7fffffe          BL       __2printf
0006a2  f2af10ec          ADR      r0,|L1.1208|
0006a6  f7fffffe          BL       __2printf
;;;757    				arm_rfft_init_q15(&FFT_Inst.rfft_q15,4096,0,1);START_CYCLE_TIMER;arm_rfft_q15(&FFT_Inst.rfft_q15,&InputData.q15[0], &OutputData.q15[0]);REPORT_CYCLE_TIMER;COMMA;
0006aa  2301              MOVS     r3,#1
0006ac  2200              MOVS     r2,#0
0006ae  0319              LSLS     r1,r3,#12
0006b0  4897              LDR      r0,|L1.2320|
0006b2  f7fffffe          BL       arm_rfft_init_q15
0006b6  61a6              STR      r6,[r4,#0x18]
0006b8  6125              STR      r5,[r4,#0x10]
0006ba  4a96              LDR      r2,|L1.2324|
0006bc  4894              LDR      r0,|L1.2320|
0006be  f5a24100          SUB      r1,r2,#0x8000
0006c2  f7fffffe          BL       arm_rfft_q15
0006c6  6127              STR      r7,[r4,#0x10]
0006c8  69a0              LDR      r0,[r4,#0x18]
0006ca  9901              LDR      r1,[sp,#4]
0006cc  f1c07080          RSB      r0,r0,#0x1000000
0006d0  9000              STR      r0,[sp,#0]
0006d2  1a41              SUBS     r1,r0,r1
0006d4  f2af2024          ADR      r0,|L1.1204|
0006d8  f7fffffe          BL       __2printf
0006dc  f2af2028          ADR      r0,|L1.1208|
0006e0  f7fffffe          BL       __2printf
;;;758    				#endif
;;;759    
;;;760    				#ifdef ENABLE_RFFT_NBR
;;;761    				CM_PRINTF("\r\nRFFT-Q15-NoBitReverse,");
0006e4  a08c              ADR      r0,|L1.2328|
0006e6  f7fffffe          BL       __2printf
;;;762    				CM_PRINTF("n/a");COMMA;
0006ea  f2af10e0          ADR      r0,|L1.1292|
0006ee  f7fffffe          BL       __2printf
0006f2  f2af203c          ADR      r0,|L1.1208|
0006f6  f7fffffe          BL       __2printf
;;;763    				arm_rfft_init_q15(&FFT_Inst.rfft_q15,32,0,0);START_CYCLE_TIMER  ;arm_rfft_q15(&FFT_Inst.rfft_q15,&InputData.q15[0], &OutputData.q15[0]);REPORT_CYCLE_TIMER;COMMA;
0006fa  2300              MOVS     r3,#0
0006fc  461a              MOV      r2,r3
0006fe  2120              MOVS     r1,#0x20
000700  4883              LDR      r0,|L1.2320|
000702  f7fffffe          BL       arm_rfft_init_q15
000706  61a6              STR      r6,[r4,#0x18]
000708  6125              STR      r5,[r4,#0x10]
00070a  4a82              LDR      r2,|L1.2324|
00070c  4880              LDR      r0,|L1.2320|
00070e  f5a24100          SUB      r1,r2,#0x8000
000712  f7fffffe          BL       arm_rfft_q15
000716  6127              STR      r7,[r4,#0x10]
000718  69a0              LDR      r0,[r4,#0x18]
00071a  9901              LDR      r1,[sp,#4]
00071c  f1c07080          RSB      r0,r0,#0x1000000
000720  9000              STR      r0,[sp,#0]
000722  1a41              SUBS     r1,r0,r1
000724  f2af2074          ADR      r0,|L1.1204|
000728  f7fffffe          BL       __2printf
00072c  f2af2078          ADR      r0,|L1.1208|
000730  f7fffffe          BL       __2printf
;;;764    				arm_rfft_init_q15(&FFT_Inst.rfft_q15,64,0,0);START_CYCLE_TIMER  ;arm_rfft_q15(&FFT_Inst.rfft_q15,&InputData.q15[0], &OutputData.q15[0]);REPORT_CYCLE_TIMER;COMMA;
000734  2300              MOVS     r3,#0
000736  461a              MOV      r2,r3
000738  2140              MOVS     r1,#0x40
00073a  4875              LDR      r0,|L1.2320|
00073c  f7fffffe          BL       arm_rfft_init_q15
000740  61a6              STR      r6,[r4,#0x18]
000742  6125              STR      r5,[r4,#0x10]
000744  4a73              LDR      r2,|L1.2324|
000746  4872              LDR      r0,|L1.2320|
000748  f5a24100          SUB      r1,r2,#0x8000
00074c  f7fffffe          BL       arm_rfft_q15
000750  6127              STR      r7,[r4,#0x10]
000752  69a0              LDR      r0,[r4,#0x18]
000754  9901              LDR      r1,[sp,#4]
000756  f1c07080          RSB      r0,r0,#0x1000000
00075a  9000              STR      r0,[sp,#0]
00075c  1a41              SUBS     r1,r0,r1
00075e  f2af20ac          ADR      r0,|L1.1204|
000762  f7fffffe          BL       __2printf
000766  f2af20b0          ADR      r0,|L1.1208|
00076a  f7fffffe          BL       __2printf
;;;765    				arm_rfft_init_q15(&FFT_Inst.rfft_q15,128,0,0);START_CYCLE_TIMER ;arm_rfft_q15(&FFT_Inst.rfft_q15,&InputData.q15[0], &OutputData.q15[0]);REPORT_CYCLE_TIMER;COMMA;
00076e  2300              MOVS     r3,#0
000770  461a              MOV      r2,r3
000772  2180              MOVS     r1,#0x80
000774  4866              LDR      r0,|L1.2320|
000776  f7fffffe          BL       arm_rfft_init_q15
00077a  61a6              STR      r6,[r4,#0x18]
00077c  6125              STR      r5,[r4,#0x10]
00077e  4a65              LDR      r2,|L1.2324|
000780  4863              LDR      r0,|L1.2320|
000782  f5a24100          SUB      r1,r2,#0x8000
000786  f7fffffe          BL       arm_rfft_q15
00078a  6127              STR      r7,[r4,#0x10]
00078c  69a0              LDR      r0,[r4,#0x18]
00078e  9901              LDR      r1,[sp,#4]
000790  f1c07080          RSB      r0,r0,#0x1000000
000794  9000              STR      r0,[sp,#0]
000796  1a41              SUBS     r1,r0,r1
000798  f2af20e8          ADR      r0,|L1.1204|
00079c  f7fffffe          BL       __2printf
0007a0  f2af20ec          ADR      r0,|L1.1208|
0007a4  f7fffffe          BL       __2printf
;;;766    				arm_rfft_init_q15(&FFT_Inst.rfft_q15,256,0,0);START_CYCLE_TIMER ;arm_rfft_q15(&FFT_Inst.rfft_q15,&InputData.q15[0], &OutputData.q15[0]);REPORT_CYCLE_TIMER;COMMA;
0007a8  2300              MOVS     r3,#0
0007aa  461a              MOV      r2,r3
0007ac  f44f7180          MOV      r1,#0x100
0007b0  4857              LDR      r0,|L1.2320|
0007b2  f7fffffe          BL       arm_rfft_init_q15
0007b6  61a6              STR      r6,[r4,#0x18]
0007b8  6125              STR      r5,[r4,#0x10]
0007ba  4a56              LDR      r2,|L1.2324|
0007bc  4854              LDR      r0,|L1.2320|
0007be  f5a24100          SUB      r1,r2,#0x8000
0007c2  f7fffffe          BL       arm_rfft_q15
0007c6  6127              STR      r7,[r4,#0x10]
0007c8  69a0              LDR      r0,[r4,#0x18]
0007ca  9901              LDR      r1,[sp,#4]
0007cc  f1c07080          RSB      r0,r0,#0x1000000
0007d0  9000              STR      r0,[sp,#0]
0007d2  1a41              SUBS     r1,r0,r1
0007d4  f2af3024          ADR      r0,|L1.1204|
0007d8  f7fffffe          BL       __2printf
0007dc  f2af3028          ADR      r0,|L1.1208|
0007e0  f7fffffe          BL       __2printf
;;;767    				arm_rfft_init_q15(&FFT_Inst.rfft_q15,512,0,0);START_CYCLE_TIMER ;arm_rfft_q15(&FFT_Inst.rfft_q15,&InputData.q15[0], &OutputData.q15[0]);REPORT_CYCLE_TIMER;COMMA;
0007e4  2300              MOVS     r3,#0
0007e6  461a              MOV      r2,r3
0007e8  4659              MOV      r1,r11
0007ea  4849              LDR      r0,|L1.2320|
0007ec  f7fffffe          BL       arm_rfft_init_q15
0007f0  2000              MOVS     r0,#0
0007f2  61a0              STR      r0,[r4,#0x18]
0007f4  2005              MOVS     r0,#5
0007f6  6120              STR      r0,[r4,#0x10]
0007f8  4a46              LDR      r2,|L1.2324|
0007fa  4845              LDR      r0,|L1.2320|
0007fc  f5a24100          SUB      r1,r2,#0x8000
000800  f7fffffe          BL       arm_rfft_q15
000804  6127              STR      r7,[r4,#0x10]
000806  69a0              LDR      r0,[r4,#0x18]
000808  9901              LDR      r1,[sp,#4]
00080a  f1c07080          RSB      r0,r0,#0x1000000
00080e  9000              STR      r0,[sp,#0]
000810  1a41              SUBS     r1,r0,r1
000812  f2af3060          ADR      r0,|L1.1204|
000816  f7fffffe          BL       __2printf
00081a  f2af3064          ADR      r0,|L1.1208|
00081e  f7fffffe          BL       __2printf
;;;768    				arm_rfft_init_q15(&FFT_Inst.rfft_q15,1024,0,0);START_CYCLE_TIMER;arm_rfft_q15(&FFT_Inst.rfft_q15,&InputData.q15[0], &OutputData.q15[0]);REPORT_CYCLE_TIMER;COMMA;
000822  2300              MOVS     r3,#0
000824  461a              MOV      r2,r3
000826  f44f6180          MOV      r1,#0x400
00082a  4839              LDR      r0,|L1.2320|
00082c  f7fffffe          BL       arm_rfft_init_q15
000830  2000              MOVS     r0,#0
000832  61a0              STR      r0,[r4,#0x18]
000834  2005              MOVS     r0,#5
000836  6120              STR      r0,[r4,#0x10]
000838  4a36              LDR      r2,|L1.2324|
00083a  4835              LDR      r0,|L1.2320|
00083c  f5a24100          SUB      r1,r2,#0x8000
000840  f7fffffe          BL       arm_rfft_q15
000844  6127              STR      r7,[r4,#0x10]
000846  69a0              LDR      r0,[r4,#0x18]
000848  9901              LDR      r1,[sp,#4]
00084a  f1c07080          RSB      r0,r0,#0x1000000
00084e  9000              STR      r0,[sp,#0]
000850  1a41              SUBS     r1,r0,r1
000852  f2af30a0          ADR      r0,|L1.1204|
000856  f7fffffe          BL       __2printf
00085a  f2af30a4          ADR      r0,|L1.1208|
00085e  f7fffffe          BL       __2printf
;;;769    				arm_rfft_init_q15(&FFT_Inst.rfft_q15,2048,0,0);START_CYCLE_TIMER;arm_rfft_q15(&FFT_Inst.rfft_q15,&InputData.q15[0], &OutputData.q15[0]);REPORT_CYCLE_TIMER;COMMA;
000862  2300              MOVS     r3,#0
000864  f44f6900          MOV      r9,#0x800
000868  461a              MOV      r2,r3
00086a  4649              MOV      r1,r9
00086c  4828              LDR      r0,|L1.2320|
00086e  f7fffffe          BL       arm_rfft_init_q15
000872  2000              MOVS     r0,#0
000874  61a0              STR      r0,[r4,#0x18]
000876  2005              MOVS     r0,#5
000878  6120              STR      r0,[r4,#0x10]
00087a  4a26              LDR      r2,|L1.2324|
00087c  4824              LDR      r0,|L1.2320|
00087e  f5a24100          SUB      r1,r2,#0x8000
000882  f7fffffe          BL       arm_rfft_q15
000886  6127              STR      r7,[r4,#0x10]
000888  69a0              LDR      r0,[r4,#0x18]
00088a  9901              LDR      r1,[sp,#4]
00088c  f1c07080          RSB      r0,r0,#0x1000000
000890  9000              STR      r0,[sp,#0]
000892  1a41              SUBS     r1,r0,r1
000894  f2af30e4          ADR      r0,|L1.1204|
000898  f7fffffe          BL       __2printf
00089c  f2af30e8          ADR      r0,|L1.1208|
0008a0  f7fffffe          BL       __2printf
;;;770    				arm_rfft_init_q15(&FFT_Inst.rfft_q15,4096,0,0);START_CYCLE_TIMER;arm_rfft_q15(&FFT_Inst.rfft_q15,&InputData.q15[0], &OutputData.q15[0]);REPORT_CYCLE_TIMER;COMMA;
0008a4  2300              MOVS     r3,#0
0008a6  f44f5a80          MOV      r10,#0x1000
0008aa  461a              MOV      r2,r3
0008ac  4651              MOV      r1,r10
0008ae  4818              LDR      r0,|L1.2320|
0008b0  f7fffffe          BL       arm_rfft_init_q15
0008b4  2000              MOVS     r0,#0
0008b6  61a0              STR      r0,[r4,#0x18]
0008b8  2005              MOVS     r0,#5
0008ba  6120              STR      r0,[r4,#0x10]
0008bc  4a15              LDR      r2,|L1.2324|
0008be  4814              LDR      r0,|L1.2320|
0008c0  f5a24100          SUB      r1,r2,#0x8000
0008c4  f7fffffe          BL       arm_rfft_q15
0008c8  6127              STR      r7,[r4,#0x10]
0008ca  69a0              LDR      r0,[r4,#0x18]
0008cc  9901              LDR      r1,[sp,#4]
0008ce  f1c07080          RSB      r0,r0,#0x1000000
0008d2  9000              STR      r0,[sp,#0]
0008d4  1a41              SUBS     r1,r0,r1
0008d6  f2af4024          ADR      r0,|L1.1204|
0008da  f7fffffe          BL       __2printf
0008de  f2af4028          ADR      r0,|L1.1208|
0008e2  f7fffffe          BL       __2printf
;;;771    				#endif
;;;772    
;;;773    				#ifdef COMPLEX_MAG
;;;774    				CM_PRINTF("\r\n");
0008e6  f2af40c8          ADR      r0,|L1.1056|
0008ea  f7fffffe          BL       __2printf
;;;775    				CM_PRINTF("ComplexMag-q15,");
0008ee  a011              ADR      r0,|L1.2356|
0008f0  f7fffffe          BL       __2printf
;;;776    				START_CYCLE_TIMER;arm_cmplx_mag_q15(&InputData.q15[0],&OutputData.q15[0],16);REPORT_CYCLE_TIMER;COMMA;
0008f4  2000              MOVS     r0,#0
0008f6  61a0              STR      r0,[r4,#0x18]
0008f8  2005              MOVS     r0,#5
0008fa  6120              STR      r0,[r4,#0x10]
0008fc  4905              LDR      r1,|L1.2324|
0008fe  2210              MOVS     r2,#0x10
000900  f5a14000          SUB      r0,r1,#0x8000
000904  f7fffffe          BL       arm_cmplx_mag_q15
000908  6127              STR      r7,[r4,#0x10]
00090a  69a0              LDR      r0,[r4,#0x18]
00090c  e01a              B        |L1.2372|
00090e  0000              DCW      0x0000
                  |L1.2320|
                          DCD      ||.bss||+0x12104
                  |L1.2324|
                          DCD      ||.bss||+0x8000
                  |L1.2328|
000918  0d0a5246          DCB      "\r\nRFFT-Q15-NoBitReverse,",0
00091c  46542d51
000920  31352d4e
000924  6f426974
000928  52657665
00092c  7273652c
000930  00      
000931  00                DCB      0
000932  00                DCB      0
000933  00                DCB      0
                  |L1.2356|
000934  436f6d70          DCB      "ComplexMag-q15,",0
000938  6c65784d
00093c  61672d71
000940  31352c00
                  |L1.2372|
000944  f1c07080          RSB      r0,r0,#0x1000000
000948  9901              LDR      r1,[sp,#4]
00094a  9000              STR      r0,[sp,#0]
00094c  1a41              SUBS     r1,r0,r1
00094e  f2af409c          ADR      r0,|L1.1204|
000952  f7fffffe          BL       __2printf
000956  f2af40a0          ADR      r0,|L1.1208|
00095a  f7fffffe          BL       __2printf
;;;777    				START_CYCLE_TIMER;arm_cmplx_mag_q15(&InputData.q15[0],&OutputData.q15[0],32);REPORT_CYCLE_TIMER;COMMA;
00095e  2000              MOVS     r0,#0
000960  61a0              STR      r0,[r4,#0x18]
000962  2005              MOVS     r0,#5
000964  6120              STR      r0,[r4,#0x10]
000966  49ff              LDR      r1,|L1.3428|
000968  2220              MOVS     r2,#0x20
00096a  f5a14000          SUB      r0,r1,#0x8000
00096e  f7fffffe          BL       arm_cmplx_mag_q15
000972  6127              STR      r7,[r4,#0x10]
000974  69a0              LDR      r0,[r4,#0x18]
000976  9901              LDR      r1,[sp,#4]
000978  f1c07080          RSB      r0,r0,#0x1000000
00097c  9000              STR      r0,[sp,#0]
00097e  1a41              SUBS     r1,r0,r1
000980  f2af40d0          ADR      r0,|L1.1204|
000984  f7fffffe          BL       __2printf
000988  f2af40d4          ADR      r0,|L1.1208|
00098c  f7fffffe          BL       __2printf
;;;778    				START_CYCLE_TIMER;arm_cmplx_mag_q15(&InputData.q15[0],&OutputData.q15[0],64);REPORT_CYCLE_TIMER;COMMA;
000990  2000              MOVS     r0,#0
000992  61a0              STR      r0,[r4,#0x18]
000994  2005              MOVS     r0,#5
000996  6120              STR      r0,[r4,#0x10]
000998  49f2              LDR      r1,|L1.3428|
00099a  2240              MOVS     r2,#0x40
00099c  f5a14000          SUB      r0,r1,#0x8000
0009a0  f7fffffe          BL       arm_cmplx_mag_q15
0009a4  6127              STR      r7,[r4,#0x10]
0009a6  69a0              LDR      r0,[r4,#0x18]
0009a8  9901              LDR      r1,[sp,#4]
0009aa  f1c07080          RSB      r0,r0,#0x1000000
0009ae  9000              STR      r0,[sp,#0]
0009b0  1a41              SUBS     r1,r0,r1
0009b2  f2af5000          ADR      r0,|L1.1204|
0009b6  f7fffffe          BL       __2printf
0009ba  f2af5004          ADR      r0,|L1.1208|
0009be  f7fffffe          BL       __2printf
;;;779    				START_CYCLE_TIMER;arm_cmplx_mag_q15(&InputData.q15[0],&OutputData.q15[0],128);REPORT_CYCLE_TIMER;COMMA;
0009c2  2000              MOVS     r0,#0
0009c4  61a0              STR      r0,[r4,#0x18]
0009c6  2005              MOVS     r0,#5
0009c8  6120              STR      r0,[r4,#0x10]
0009ca  49e6              LDR      r1,|L1.3428|
0009cc  2280              MOVS     r2,#0x80
0009ce  f5a14000          SUB      r0,r1,#0x8000
0009d2  f7fffffe          BL       arm_cmplx_mag_q15
0009d6  6127              STR      r7,[r4,#0x10]
0009d8  69a0              LDR      r0,[r4,#0x18]
0009da  9901              LDR      r1,[sp,#4]
0009dc  f1c07080          RSB      r0,r0,#0x1000000
0009e0  9000              STR      r0,[sp,#0]
0009e2  1a41              SUBS     r1,r0,r1
0009e4  f2af5034          ADR      r0,|L1.1204|
0009e8  f7fffffe          BL       __2printf
0009ec  f2af5038          ADR      r0,|L1.1208|
0009f0  f7fffffe          BL       __2printf
;;;780    				START_CYCLE_TIMER;arm_cmplx_mag_q15(&InputData.q15[0],&OutputData.q15[0],256);REPORT_CYCLE_TIMER;COMMA;
0009f4  2000              MOVS     r0,#0
0009f6  61a0              STR      r0,[r4,#0x18]
0009f8  2005              MOVS     r0,#5
0009fa  6120              STR      r0,[r4,#0x10]
0009fc  49d9              LDR      r1,|L1.3428|
0009fe  f44f7280          MOV      r2,#0x100
000a02  f5a14000          SUB      r0,r1,#0x8000
000a06  f7fffffe          BL       arm_cmplx_mag_q15
000a0a  6127              STR      r7,[r4,#0x10]
000a0c  69a0              LDR      r0,[r4,#0x18]
000a0e  9901              LDR      r1,[sp,#4]
000a10  f1c07080          RSB      r0,r0,#0x1000000
000a14  9000              STR      r0,[sp,#0]
000a16  1a41              SUBS     r1,r0,r1
000a18  f2af5068          ADR      r0,|L1.1204|
000a1c  f7fffffe          BL       __2printf
000a20  f2af506c          ADR      r0,|L1.1208|
000a24  f7fffffe          BL       __2printf
;;;781    				START_CYCLE_TIMER;arm_cmplx_mag_q15(&InputData.q15[0],&OutputData.q15[0],512);REPORT_CYCLE_TIMER;COMMA;
000a28  2000              MOVS     r0,#0
000a2a  61a0              STR      r0,[r4,#0x18]
000a2c  2005              MOVS     r0,#5
000a2e  6120              STR      r0,[r4,#0x10]
000a30  49cc              LDR      r1,|L1.3428|
000a32  465a              MOV      r2,r11
000a34  f5a14000          SUB      r0,r1,#0x8000
000a38  f7fffffe          BL       arm_cmplx_mag_q15
000a3c  6127              STR      r7,[r4,#0x10]
000a3e  69a0              LDR      r0,[r4,#0x18]
000a40  9901              LDR      r1,[sp,#4]
000a42  f1c07080          RSB      r0,r0,#0x1000000
000a46  9000              STR      r0,[sp,#0]
000a48  1a41              SUBS     r1,r0,r1
000a4a  f2af5098          ADR      r0,|L1.1204|
000a4e  f7fffffe          BL       __2printf
000a52  f2af509c          ADR      r0,|L1.1208|
000a56  f7fffffe          BL       __2printf
;;;782    				START_CYCLE_TIMER;arm_cmplx_mag_q15(&InputData.q15[0],&OutputData.q15[0],1024);REPORT_CYCLE_TIMER;COMMA;
000a5a  2000              MOVS     r0,#0
000a5c  61a0              STR      r0,[r4,#0x18]
000a5e  2005              MOVS     r0,#5
000a60  6120              STR      r0,[r4,#0x10]
000a62  49c0              LDR      r1,|L1.3428|
000a64  f44f6280          MOV      r2,#0x400
000a68  f5a14000          SUB      r0,r1,#0x8000
000a6c  f7fffffe          BL       arm_cmplx_mag_q15
000a70  6127              STR      r7,[r4,#0x10]
000a72  69a0              LDR      r0,[r4,#0x18]
000a74  9901              LDR      r1,[sp,#4]
000a76  f1c07080          RSB      r0,r0,#0x1000000
000a7a  9000              STR      r0,[sp,#0]
000a7c  1a41              SUBS     r1,r0,r1
000a7e  f2af50cc          ADR      r0,|L1.1204|
000a82  f7fffffe          BL       __2printf
000a86  f2af50d0          ADR      r0,|L1.1208|
000a8a  f7fffffe          BL       __2printf
;;;783    				START_CYCLE_TIMER;arm_cmplx_mag_q15(&InputData.q15[0],&OutputData.q15[0],2048);REPORT_CYCLE_TIMER;COMMA;
000a8e  2000              MOVS     r0,#0
000a90  61a0              STR      r0,[r4,#0x18]
000a92  2005              MOVS     r0,#5
000a94  6120              STR      r0,[r4,#0x10]
000a96  49b3              LDR      r1,|L1.3428|
000a98  464a              MOV      r2,r9
000a9a  f5a14000          SUB      r0,r1,#0x8000
000a9e  f7fffffe          BL       arm_cmplx_mag_q15
000aa2  6127              STR      r7,[r4,#0x10]
000aa4  69a0              LDR      r0,[r4,#0x18]
000aa6  9901              LDR      r1,[sp,#4]
000aa8  f1c07080          RSB      r0,r0,#0x1000000
000aac  9000              STR      r0,[sp,#0]
000aae  1a41              SUBS     r1,r0,r1
000ab0  f2af6000          ADR      r0,|L1.1204|
000ab4  f7fffffe          BL       __2printf
000ab8  f2af6004          ADR      r0,|L1.1208|
000abc  f7fffffe          BL       __2printf
;;;784    				START_CYCLE_TIMER;arm_cmplx_mag_q15(&InputData.q15[0],&OutputData.q15[0],4096);REPORT_CYCLE_TIMER;COMMA;
000ac0  2000              MOVS     r0,#0
000ac2  61a0              STR      r0,[r4,#0x18]
000ac4  2005              MOVS     r0,#5
000ac6  6120              STR      r0,[r4,#0x10]
000ac8  49a6              LDR      r1,|L1.3428|
000aca  4652              MOV      r2,r10
000acc  f5a14000          SUB      r0,r1,#0x8000
000ad0  f7fffffe          BL       arm_cmplx_mag_q15
000ad4  6127              STR      r7,[r4,#0x10]
000ad6  69a0              LDR      r0,[r4,#0x18]
000ad8  9901              LDR      r1,[sp,#4]
000ada  f1c07080          RSB      r0,r0,#0x1000000
000ade  9000              STR      r0,[sp,#0]
000ae0  1a41              SUBS     r1,r0,r1
000ae2  f2af6030          ADR      r0,|L1.1204|
000ae6  f7fffffe          BL       __2printf
000aea  f2af6034          ADR      r0,|L1.1208|
000aee  f7fffffe          BL       __2printf
;;;785    				#endif
;;;786    
;;;787    				#ifdef COMPLEX_MAG_SQUARED
;;;788    				CM_PRINTF("\r\n");
000af2  f2af60d4          ADR      r0,|L1.1056|
000af6  f7fffffe          BL       __2printf
;;;789    				CM_PRINTF("ComplexMagSquared-q15,");
000afa  a09b              ADR      r0,|L1.3432|
000afc  f7fffffe          BL       __2printf
;;;790    				START_CYCLE_TIMER;arm_cmplx_mag_squared_q15(&InputData.q15[0],&OutputData.q15[0],16);REPORT_CYCLE_TIMER;COMMA;
000b00  2000              MOVS     r0,#0
000b02  61a0              STR      r0,[r4,#0x18]
000b04  2005              MOVS     r0,#5
000b06  6120              STR      r0,[r4,#0x10]
000b08  4996              LDR      r1,|L1.3428|
000b0a  2210              MOVS     r2,#0x10
000b0c  f5a14000          SUB      r0,r1,#0x8000
000b10  f7fffffe          BL       arm_cmplx_mag_squared_q15
000b14  6127              STR      r7,[r4,#0x10]
000b16  69a0              LDR      r0,[r4,#0x18]
000b18  9901              LDR      r1,[sp,#4]
000b1a  f1c07080          RSB      r0,r0,#0x1000000
000b1e  9000              STR      r0,[sp,#0]
000b20  1a41              SUBS     r1,r0,r1
000b22  f2af6070          ADR      r0,|L1.1204|
000b26  f7fffffe          BL       __2printf
000b2a  f2af6074          ADR      r0,|L1.1208|
000b2e  f7fffffe          BL       __2printf
;;;791    				START_CYCLE_TIMER;arm_cmplx_mag_squared_q15(&InputData.q15[0],&OutputData.q15[0],32);REPORT_CYCLE_TIMER;COMMA;
000b32  2000              MOVS     r0,#0
000b34  61a0              STR      r0,[r4,#0x18]
000b36  2005              MOVS     r0,#5
000b38  6120              STR      r0,[r4,#0x10]
000b3a  498a              LDR      r1,|L1.3428|
000b3c  2220              MOVS     r2,#0x20
000b3e  f5a14000          SUB      r0,r1,#0x8000
000b42  f7fffffe          BL       arm_cmplx_mag_squared_q15
000b46  6127              STR      r7,[r4,#0x10]
000b48  69a0              LDR      r0,[r4,#0x18]
000b4a  9901              LDR      r1,[sp,#4]
000b4c  f1c07080          RSB      r0,r0,#0x1000000
000b50  9000              STR      r0,[sp,#0]
000b52  1a41              SUBS     r1,r0,r1
000b54  f2af60a4          ADR      r0,|L1.1204|
000b58  f7fffffe          BL       __2printf
000b5c  f2af60a8          ADR      r0,|L1.1208|
000b60  f7fffffe          BL       __2printf
;;;792    				START_CYCLE_TIMER;arm_cmplx_mag_squared_q15(&InputData.q15[0],&OutputData.q15[0],64);REPORT_CYCLE_TIMER;COMMA;
000b64  61a6              STR      r6,[r4,#0x18]
000b66  6125              STR      r5,[r4,#0x10]
000b68  497e              LDR      r1,|L1.3428|
000b6a  2240              MOVS     r2,#0x40
000b6c  f5a14000          SUB      r0,r1,#0x8000
000b70  f7fffffe          BL       arm_cmplx_mag_squared_q15
000b74  6127              STR      r7,[r4,#0x10]
000b76  69a0              LDR      r0,[r4,#0x18]
000b78  9901              LDR      r1,[sp,#4]
000b7a  f1c07080          RSB      r0,r0,#0x1000000
000b7e  9000              STR      r0,[sp,#0]
000b80  1a41              SUBS     r1,r0,r1
000b82  f2af60d0          ADR      r0,|L1.1204|
000b86  f7fffffe          BL       __2printf
000b8a  f2af60d4          ADR      r0,|L1.1208|
000b8e  f7fffffe          BL       __2printf
;;;793    				START_CYCLE_TIMER;arm_cmplx_mag_squared_q15(&InputData.q15[0],&OutputData.q15[0],128);REPORT_CYCLE_TIMER;COMMA;
000b92  61a6              STR      r6,[r4,#0x18]
000b94  6125              STR      r5,[r4,#0x10]
000b96  4973              LDR      r1,|L1.3428|
000b98  2280              MOVS     r2,#0x80
000b9a  f5a14000          SUB      r0,r1,#0x8000
000b9e  f7fffffe          BL       arm_cmplx_mag_squared_q15
000ba2  2004              MOVS     r0,#4
000ba4  6120              STR      r0,[r4,#0x10]
000ba6  69a0              LDR      r0,[r4,#0x18]
000ba8  9901              LDR      r1,[sp,#4]
000baa  f1c07080          RSB      r0,r0,#0x1000000
000bae  9000              STR      r0,[sp,#0]
000bb0  1a41              SUBS     r1,r0,r1
000bb2  f2af7000          ADR      r0,|L1.1204|
000bb6  f7fffffe          BL       __2printf
000bba  f2af7004          ADR      r0,|L1.1208|
000bbe  f7fffffe          BL       __2printf
;;;794    				START_CYCLE_TIMER;arm_cmplx_mag_squared_q15(&InputData.q15[0],&OutputData.q15[0],256);REPORT_CYCLE_TIMER;COMMA;
000bc2  61a6              STR      r6,[r4,#0x18]
000bc4  6125              STR      r5,[r4,#0x10]
000bc6  4967              LDR      r1,|L1.3428|
000bc8  f44f7280          MOV      r2,#0x100
000bcc  f5a14000          SUB      r0,r1,#0x8000
000bd0  f7fffffe          BL       arm_cmplx_mag_squared_q15
000bd4  2004              MOVS     r0,#4
000bd6  6120              STR      r0,[r4,#0x10]
000bd8  69a0              LDR      r0,[r4,#0x18]
000bda  9901              LDR      r1,[sp,#4]
000bdc  f1c07080          RSB      r0,r0,#0x1000000
000be0  9000              STR      r0,[sp,#0]
000be2  1a41              SUBS     r1,r0,r1
000be4  f2af7034          ADR      r0,|L1.1204|
000be8  f7fffffe          BL       __2printf
000bec  f2af7038          ADR      r0,|L1.1208|
000bf0  f7fffffe          BL       __2printf
;;;795    				START_CYCLE_TIMER;arm_cmplx_mag_squared_q15(&InputData.q15[0],&OutputData.q15[0],512);REPORT_CYCLE_TIMER;COMMA;
000bf4  61a6              STR      r6,[r4,#0x18]
000bf6  6125              STR      r5,[r4,#0x10]
000bf8  495a              LDR      r1,|L1.3428|
000bfa  f44f7200          MOV      r2,#0x200
000bfe  f5a14000          SUB      r0,r1,#0x8000
000c02  f7fffffe          BL       arm_cmplx_mag_squared_q15
000c06  2004              MOVS     r0,#4
000c08  6120              STR      r0,[r4,#0x10]
000c0a  69a0              LDR      r0,[r4,#0x18]
000c0c  9901              LDR      r1,[sp,#4]
000c0e  f1c07080          RSB      r0,r0,#0x1000000
000c12  9000              STR      r0,[sp,#0]
000c14  1a41              SUBS     r1,r0,r1
000c16  f2af7064          ADR      r0,|L1.1204|
000c1a  f7fffffe          BL       __2printf
000c1e  f2af7068          ADR      r0,|L1.1208|
000c22  f7fffffe          BL       __2printf
;;;796    				START_CYCLE_TIMER;arm_cmplx_mag_squared_q15(&InputData.q15[0],&OutputData.q15[0],1024);REPORT_CYCLE_TIMER;COMMA;
000c26  61a6              STR      r6,[r4,#0x18]
000c28  6125              STR      r5,[r4,#0x10]
000c2a  494e              LDR      r1,|L1.3428|
000c2c  f44f6b80          MOV      r11,#0x400
000c30  465a              MOV      r2,r11
000c32  f5a14000          SUB      r0,r1,#0x8000
000c36  f7fffffe          BL       arm_cmplx_mag_squared_q15
000c3a  2004              MOVS     r0,#4
000c3c  6120              STR      r0,[r4,#0x10]
000c3e  69a0              LDR      r0,[r4,#0x18]
000c40  9901              LDR      r1,[sp,#4]
000c42  f1c07080          RSB      r0,r0,#0x1000000
000c46  9000              STR      r0,[sp,#0]
000c48  1a41              SUBS     r1,r0,r1
000c4a  f2af7098          ADR      r0,|L1.1204|
000c4e  f7fffffe          BL       __2printf
000c52  f2af709c          ADR      r0,|L1.1208|
000c56  f7fffffe          BL       __2printf
;;;797    				START_CYCLE_TIMER;arm_cmplx_mag_squared_q15(&InputData.q15[0],&OutputData.q15[0],2048);REPORT_CYCLE_TIMER;COMMA;
000c5a  61a6              STR      r6,[r4,#0x18]
000c5c  6125              STR      r5,[r4,#0x10]
000c5e  4941              LDR      r1,|L1.3428|
000c60  464a              MOV      r2,r9
000c62  f5a14000          SUB      r0,r1,#0x8000
000c66  f7fffffe          BL       arm_cmplx_mag_squared_q15
000c6a  2004              MOVS     r0,#4
000c6c  6120              STR      r0,[r4,#0x10]
000c6e  69a0              LDR      r0,[r4,#0x18]
000c70  9901              LDR      r1,[sp,#4]
000c72  f1c07080          RSB      r0,r0,#0x1000000
000c76  9000              STR      r0,[sp,#0]
000c78  1a41              SUBS     r1,r0,r1
000c7a  f2af70c8          ADR      r0,|L1.1204|
000c7e  f7fffffe          BL       __2printf
000c82  f2af70cc          ADR      r0,|L1.1208|
000c86  f7fffffe          BL       __2printf
;;;798    				START_CYCLE_TIMER;arm_cmplx_mag_squared_q15(&InputData.q15[0],&OutputData.q15[0],4096);REPORT_CYCLE_TIMER;COMMA;
000c8a  61a6              STR      r6,[r4,#0x18]
000c8c  6125              STR      r5,[r4,#0x10]
000c8e  4935              LDR      r1,|L1.3428|
000c90  f44f5280          MOV      r2,#0x1000
000c94  f5a14000          SUB      r0,r1,#0x8000
000c98  f7fffffe          BL       arm_cmplx_mag_squared_q15
000c9c  2004              MOVS     r0,#4
000c9e  6120              STR      r0,[r4,#0x10]
000ca0  69a0              LDR      r0,[r4,#0x18]
000ca2  9901              LDR      r1,[sp,#4]
000ca4  f1c07080          RSB      r0,r0,#0x1000000
000ca8  9000              STR      r0,[sp,#0]
000caa  1a41              SUBS     r1,r0,r1
000cac  f2af70fc          ADR      r0,|L1.1204|
000cb0  f7fffffe          BL       __2printf
000cb4  f6af0000          ADR      r0,|L1.1208|
000cb8  f7fffffe          BL       __2printf
;;;799    				#endif
;;;800    
;;;801    			#ifdef ENABLE_BLOCK_IIR
;;;802    				CM_PRINTF("\r\n");
000cbc  f6af00a0          ADR      r0,|L1.1056|
000cc0  f7fffffe          BL       __2printf
;;;803    				CM_PRINTF("IIR-q15_df1-1Stage,");
000cc4  a02e              ADR      r0,|L1.3456|
000cc6  f7fffffe          BL       __2printf
;;;804    
;;;805    				arm_biquad_cascade_df1_init_q15(&IIR_Inst.q15_df1,1,&IIR_Coef_q15[0],&IIR_State_q15[0],1);
000cca  f04f0a01          MOV      r10,#1
000cce  4b31              LDR      r3,|L1.3476|
000cd0  4651              MOV      r1,r10
000cd2  f1030208          ADD      r2,r3,#8
000cd6  4830              LDR      r0,|L1.3480|
000cd8  f8cda000          STR      r10,[sp,#0]
000cdc  f7fffffe          BL       arm_biquad_cascade_df1_init_q15
;;;806    
;;;807    				START_CYCLE_TIMER;arm_biquad_cascade_df1_q15(&IIR_Inst.q15_df1,&InputData.q15[0],&OutputData.q15[0],16);REPORT_CYCLE_TIMER;COMMA;
000ce0  61a6              STR      r6,[r4,#0x18]
000ce2  6125              STR      r5,[r4,#0x10]
000ce4  4a1f              LDR      r2,|L1.3428|
000ce6  2310              MOVS     r3,#0x10
000ce8  f5a24100          SUB      r1,r2,#0x8000
000cec  482a              LDR      r0,|L1.3480|
000cee  f7fffffe          BL       arm_biquad_cascade_df1_q15
000cf2  2004              MOVS     r0,#4
000cf4  6120              STR      r0,[r4,#0x10]
000cf6  69a0              LDR      r0,[r4,#0x18]
000cf8  9901              LDR      r1,[sp,#4]
000cfa  f1c07080          RSB      r0,r0,#0x1000000
000cfe  9000              STR      r0,[sp,#0]
000d00  1a41              SUBS     r1,r0,r1
000d02  f6af0050          ADR      r0,|L1.1204|
000d06  f7fffffe          BL       __2printf
000d0a  f6af0054          ADR      r0,|L1.1208|
000d0e  f7fffffe          BL       __2printf
;;;808    				START_CYCLE_TIMER;arm_biquad_cascade_df1_q15(&IIR_Inst.q15_df1,&InputData.q15[0],&OutputData.q15[0],32);REPORT_CYCLE_TIMER;COMMA;
000d12  61a6              STR      r6,[r4,#0x18]
000d14  6125              STR      r5,[r4,#0x10]
000d16  4a13              LDR      r2,|L1.3428|
000d18  2320              MOVS     r3,#0x20
000d1a  f5a24100          SUB      r1,r2,#0x8000
000d1e  481e              LDR      r0,|L1.3480|
000d20  f7fffffe          BL       arm_biquad_cascade_df1_q15
000d24  2004              MOVS     r0,#4
000d26  6120              STR      r0,[r4,#0x10]
000d28  69a0              LDR      r0,[r4,#0x18]
000d2a  9901              LDR      r1,[sp,#4]
000d2c  f1c07080          RSB      r0,r0,#0x1000000
000d30  9000              STR      r0,[sp,#0]
000d32  1a41              SUBS     r1,r0,r1
000d34  f6af0084          ADR      r0,|L1.1204|
000d38  f7fffffe          BL       __2printf
000d3c  f6af0088          ADR      r0,|L1.1208|
000d40  f7fffffe          BL       __2printf
;;;809    				START_CYCLE_TIMER;arm_biquad_cascade_df1_q15(&IIR_Inst.q15_df1,&InputData.q15[0],&OutputData.q15[0],64);REPORT_CYCLE_TIMER;COMMA;
000d44  61a6              STR      r6,[r4,#0x18]
000d46  6125              STR      r5,[r4,#0x10]
000d48  4a06              LDR      r2,|L1.3428|
000d4a  2340              MOVS     r3,#0x40
000d4c  f5a24100          SUB      r1,r2,#0x8000
000d50  4811              LDR      r0,|L1.3480|
000d52  f7fffffe          BL       arm_biquad_cascade_df1_q15
000d56  2004              MOVS     r0,#4
000d58  6120              STR      r0,[r4,#0x10]
000d5a  69a0              LDR      r0,[r4,#0x18]
000d5c  f1c07080          RSB      r0,r0,#0x1000000
000d60  9000              STR      r0,[sp,#0]
000d62  e01b              B        |L1.3484|
                  |L1.3428|
                          DCD      ||.bss||+0x8000
                  |L1.3432|
000d68  436f6d70          DCB      "ComplexMagSquared-q15,",0
000d6c  6c65784d
000d70  61675371
000d74  75617265
000d78  642d7131
000d7c  352c00  
000d7f  00                DCB      0
                  |L1.3456|
000d80  4949522d          DCB      "IIR-q15_df1-1Stage,",0
000d84  7131355f
000d88  6466312d
000d8c  31537461
000d90  67652c00
                  |L1.3476|
                          DCD      ||.data||
                  |L1.3480|
                          DCD      ||.bss||+0x10000
                  |L1.3484|
000d9c  9901              LDR      r1,[sp,#4]
000d9e  1a41              SUBS     r1,r0,r1
000da0  f6af00f0          ADR      r0,|L1.1204|
000da4  f7fffffe          BL       __2printf
000da8  f6af00f4          ADR      r0,|L1.1208|
000dac  f7fffffe          BL       __2printf
;;;810    				START_CYCLE_TIMER;arm_biquad_cascade_df1_q15(&IIR_Inst.q15_df1,&InputData.q15[0],&OutputData.q15[0],128);REPORT_CYCLE_TIMER;COMMA;
000db0  61a6              STR      r6,[r4,#0x18]
000db2  6125              STR      r5,[r4,#0x10]
000db4  4afe              LDR      r2,|L1.4528|
000db6  2380              MOVS     r3,#0x80
000db8  f5a24100          SUB      r1,r2,#0x8000
000dbc  f5013080          ADD      r0,r1,#0x10000
000dc0  f7fffffe          BL       arm_biquad_cascade_df1_q15
000dc4  2004              MOVS     r0,#4
000dc6  6120              STR      r0,[r4,#0x10]
000dc8  69a0              LDR      r0,[r4,#0x18]
000dca  9901              LDR      r1,[sp,#4]
000dcc  f1c07080          RSB      r0,r0,#0x1000000
000dd0  9000              STR      r0,[sp,#0]
000dd2  1a41              SUBS     r1,r0,r1
000dd4  f6af1024          ADR      r0,|L1.1204|
000dd8  f7fffffe          BL       __2printf
000ddc  f6af1028          ADR      r0,|L1.1208|
000de0  f7fffffe          BL       __2printf
;;;811    				START_CYCLE_TIMER;arm_biquad_cascade_df1_q15(&IIR_Inst.q15_df1,&InputData.q15[0],&OutputData.q15[0],256);REPORT_CYCLE_TIMER;COMMA;
000de4  61a6              STR      r6,[r4,#0x18]
000de6  6125              STR      r5,[r4,#0x10]
000de8  4af1              LDR      r2,|L1.4528|
000dea  f44f7380          MOV      r3,#0x100
000dee  f5a24100          SUB      r1,r2,#0x8000
000df2  f5013080          ADD      r0,r1,#0x10000
000df6  f7fffffe          BL       arm_biquad_cascade_df1_q15
000dfa  2004              MOVS     r0,#4
000dfc  6120              STR      r0,[r4,#0x10]
000dfe  69a0              LDR      r0,[r4,#0x18]
000e00  9901              LDR      r1,[sp,#4]
000e02  f1c07080          RSB      r0,r0,#0x1000000
000e06  9000              STR      r0,[sp,#0]
000e08  1a41              SUBS     r1,r0,r1
000e0a  f6af1058          ADR      r0,|L1.1204|
000e0e  f7fffffe          BL       __2printf
000e12  f6af105c          ADR      r0,|L1.1208|
000e16  f7fffffe          BL       __2printf
;;;812    				START_CYCLE_TIMER;arm_biquad_cascade_df1_q15(&IIR_Inst.q15_df1,&InputData.q15[0],&OutputData.q15[0],512);REPORT_CYCLE_TIMER;COMMA;
000e1a  61a6              STR      r6,[r4,#0x18]
000e1c  6125              STR      r5,[r4,#0x10]
000e1e  4ae4              LDR      r2,|L1.4528|
000e20  f44f7300          MOV      r3,#0x200
000e24  f5a24100          SUB      r1,r2,#0x8000
000e28  f5013080          ADD      r0,r1,#0x10000
000e2c  f7fffffe          BL       arm_biquad_cascade_df1_q15
000e30  2004              MOVS     r0,#4
000e32  6120              STR      r0,[r4,#0x10]
000e34  69a0              LDR      r0,[r4,#0x18]
000e36  9901              LDR      r1,[sp,#4]
000e38  f1c07080          RSB      r0,r0,#0x1000000
000e3c  9000              STR      r0,[sp,#0]
000e3e  1a41              SUBS     r1,r0,r1
000e40  f6af1090          ADR      r0,|L1.1204|
000e44  f7fffffe          BL       __2printf
000e48  f6af1094          ADR      r0,|L1.1208|
000e4c  f7fffffe          BL       __2printf
;;;813    				START_CYCLE_TIMER;arm_biquad_cascade_df1_q15(&IIR_Inst.q15_df1,&InputData.q15[0],&OutputData.q15[0],1024);REPORT_CYCLE_TIMER;COMMA;
000e50  61a6              STR      r6,[r4,#0x18]
000e52  6125              STR      r5,[r4,#0x10]
000e54  4ad6              LDR      r2,|L1.4528|
000e56  465b              MOV      r3,r11
000e58  f5a24100          SUB      r1,r2,#0x8000
000e5c  f5013080          ADD      r0,r1,#0x10000
000e60  f7fffffe          BL       arm_biquad_cascade_df1_q15
000e64  2004              MOVS     r0,#4
000e66  6120              STR      r0,[r4,#0x10]
000e68  69a0              LDR      r0,[r4,#0x18]
000e6a  9901              LDR      r1,[sp,#4]
000e6c  f1c07080          RSB      r0,r0,#0x1000000
000e70  9000              STR      r0,[sp,#0]
000e72  1a41              SUBS     r1,r0,r1
000e74  f6af10c4          ADR      r0,|L1.1204|
000e78  f7fffffe          BL       __2printf
000e7c  f6af10c8          ADR      r0,|L1.1208|
000e80  f7fffffe          BL       __2printf
;;;814    				START_CYCLE_TIMER;arm_biquad_cascade_df1_q15(&IIR_Inst.q15_df1,&InputData.q15[0],&OutputData.q15[0],2048);REPORT_CYCLE_TIMER;COMMA;
000e84  61a6              STR      r6,[r4,#0x18]
000e86  6125              STR      r5,[r4,#0x10]
000e88  4ac9              LDR      r2,|L1.4528|
000e8a  464b              MOV      r3,r9
000e8c  f5a24100          SUB      r1,r2,#0x8000
000e90  f5013080          ADD      r0,r1,#0x10000
000e94  f7fffffe          BL       arm_biquad_cascade_df1_q15
000e98  2004              MOVS     r0,#4
000e9a  6120              STR      r0,[r4,#0x10]
000e9c  69a0              LDR      r0,[r4,#0x18]
000e9e  9901              LDR      r1,[sp,#4]
000ea0  f1c07080          RSB      r0,r0,#0x1000000
000ea4  9000              STR      r0,[sp,#0]
000ea6  1a41              SUBS     r1,r0,r1
000ea8  f6af10f8          ADR      r0,|L1.1204|
000eac  f7fffffe          BL       __2printf
000eb0  f6af10fc          ADR      r0,|L1.1208|
000eb4  f7fffffe          BL       __2printf
;;;815    				START_CYCLE_TIMER;arm_biquad_cascade_df1_q15(&IIR_Inst.q15_df1,&InputData.q15[0],&OutputData.q15[0],4096);REPORT_CYCLE_TIMER;COMMA;
000eb8  61a6              STR      r6,[r4,#0x18]
000eba  6125              STR      r5,[r4,#0x10]
000ebc  4abc              LDR      r2,|L1.4528|
000ebe  f44f5380          MOV      r3,#0x1000
000ec2  f5a24100          SUB      r1,r2,#0x8000
000ec6  f5013080          ADD      r0,r1,#0x10000
000eca  f7fffffe          BL       arm_biquad_cascade_df1_q15
000ece  6127              STR      r7,[r4,#0x10]
000ed0  69a0              LDR      r0,[r4,#0x18]
000ed2  9901              LDR      r1,[sp,#4]
000ed4  f1c07080          RSB      r0,r0,#0x1000000
000ed8  9000              STR      r0,[sp,#0]
000eda  1a41              SUBS     r1,r0,r1
000edc  f6af202c          ADR      r0,|L1.1204|
000ee0  f7fffffe          BL       __2printf
000ee4  f6af2030          ADR      r0,|L1.1208|
000ee8  f7fffffe          BL       __2printf
;;;816    
;;;817    
;;;818    				CM_PRINTF("\r\n");
000eec  f6af20d0          ADR      r0,|L1.1056|
000ef0  f7fffffe          BL       __2printf
;;;819    				CM_PRINTF("IIR-q15_df1-1Stage-fast,");
000ef4  a0af              ADR      r0,|L1.4532|
000ef6  f7fffffe          BL       __2printf
;;;820    
;;;821    				arm_biquad_cascade_df1_init_q15(&IIR_Inst.q15_df1,1,&IIR_Coef_q15[0],&IIR_State_q15[0],1);
000efa  4bb5              LDR      r3,|L1.4560|
000efc  2101              MOVS     r1,#1
000efe  f1030208          ADD      r2,r3,#8
000f02  48b4              LDR      r0,|L1.4564|
000f04  f8cda000          STR      r10,[sp,#0]
000f08  f7fffffe          BL       arm_biquad_cascade_df1_init_q15
;;;822    
;;;823    				START_CYCLE_TIMER;arm_biquad_cascade_df1_fast_q15(&IIR_Inst.q15_df1,&InputData.q15[0],&OutputData.q15[0],16);REPORT_CYCLE_TIMER;COMMA;
000f0c  61a6              STR      r6,[r4,#0x18]
000f0e  6125              STR      r5,[r4,#0x10]
000f10  4aa7              LDR      r2,|L1.4528|
000f12  2310              MOVS     r3,#0x10
000f14  f5a24100          SUB      r1,r2,#0x8000
000f18  48ae              LDR      r0,|L1.4564|
000f1a  f7fffffe          BL       arm_biquad_cascade_df1_fast_q15
000f1e  6127              STR      r7,[r4,#0x10]
000f20  69a0              LDR      r0,[r4,#0x18]
000f22  9901              LDR      r1,[sp,#4]
000f24  f1c07080          RSB      r0,r0,#0x1000000
000f28  9000              STR      r0,[sp,#0]
000f2a  1a41              SUBS     r1,r0,r1
000f2c  f6af207c          ADR      r0,|L1.1204|
000f30  f7fffffe          BL       __2printf
000f34  f6af2080          ADR      r0,|L1.1208|
000f38  f7fffffe          BL       __2printf
;;;824    				START_CYCLE_TIMER;arm_biquad_cascade_df1_fast_q15(&IIR_Inst.q15_df1,&InputData.q15[0],&OutputData.q15[0],32);REPORT_CYCLE_TIMER;COMMA;
000f3c  61a6              STR      r6,[r4,#0x18]
000f3e  6125              STR      r5,[r4,#0x10]
000f40  4a9b              LDR      r2,|L1.4528|
000f42  2320              MOVS     r3,#0x20
000f44  f5a24100          SUB      r1,r2,#0x8000
000f48  48a2              LDR      r0,|L1.4564|
000f4a  f7fffffe          BL       arm_biquad_cascade_df1_fast_q15
000f4e  6127              STR      r7,[r4,#0x10]
000f50  69a0              LDR      r0,[r4,#0x18]
000f52  9901              LDR      r1,[sp,#4]
000f54  f1c07080          RSB      r0,r0,#0x1000000
000f58  9000              STR      r0,[sp,#0]
000f5a  1a41              SUBS     r1,r0,r1
000f5c  f6af20ac          ADR      r0,|L1.1204|
000f60  f7fffffe          BL       __2printf
000f64  f6af20b0          ADR      r0,|L1.1208|
000f68  f7fffffe          BL       __2printf
;;;825    				START_CYCLE_TIMER;arm_biquad_cascade_df1_fast_q15(&IIR_Inst.q15_df1,&InputData.q15[0],&OutputData.q15[0],64);REPORT_CYCLE_TIMER;COMMA;
000f6c  61a6              STR      r6,[r4,#0x18]
000f6e  6125              STR      r5,[r4,#0x10]
000f70  4a8f              LDR      r2,|L1.4528|
000f72  2340              MOVS     r3,#0x40
000f74  f5a24100          SUB      r1,r2,#0x8000
000f78  4896              LDR      r0,|L1.4564|
000f7a  f7fffffe          BL       arm_biquad_cascade_df1_fast_q15
000f7e  6127              STR      r7,[r4,#0x10]
000f80  69a0              LDR      r0,[r4,#0x18]
000f82  9901              LDR      r1,[sp,#4]
000f84  f1c07080          RSB      r0,r0,#0x1000000
000f88  9000              STR      r0,[sp,#0]
000f8a  1a41              SUBS     r1,r0,r1
000f8c  f6af20dc          ADR      r0,|L1.1204|
000f90  f7fffffe          BL       __2printf
000f94  f6af20e0          ADR      r0,|L1.1208|
000f98  f7fffffe          BL       __2printf
;;;826    				START_CYCLE_TIMER;arm_biquad_cascade_df1_fast_q15(&IIR_Inst.q15_df1,&InputData.q15[0],&OutputData.q15[0],128);REPORT_CYCLE_TIMER;COMMA;
000f9c  61a6              STR      r6,[r4,#0x18]
000f9e  6125              STR      r5,[r4,#0x10]
000fa0  4a83              LDR      r2,|L1.4528|
000fa2  2380              MOVS     r3,#0x80
000fa4  f5a24100          SUB      r1,r2,#0x8000
000fa8  488a              LDR      r0,|L1.4564|
000faa  f7fffffe          BL       arm_biquad_cascade_df1_fast_q15
000fae  6127              STR      r7,[r4,#0x10]
000fb0  69a0              LDR      r0,[r4,#0x18]
000fb2  9901              LDR      r1,[sp,#4]
000fb4  f1c07080          RSB      r0,r0,#0x1000000
000fb8  9000              STR      r0,[sp,#0]
000fba  1a41              SUBS     r1,r0,r1
000fbc  f6af300c          ADR      r0,|L1.1204|
000fc0  f7fffffe          BL       __2printf
000fc4  f6af3010          ADR      r0,|L1.1208|
000fc8  f7fffffe          BL       __2printf
;;;827    				START_CYCLE_TIMER;arm_biquad_cascade_df1_fast_q15(&IIR_Inst.q15_df1,&InputData.q15[0],&OutputData.q15[0],256);REPORT_CYCLE_TIMER;COMMA;
000fcc  61a6              STR      r6,[r4,#0x18]
000fce  6125              STR      r5,[r4,#0x10]
000fd0  4a77              LDR      r2,|L1.4528|
000fd2  f44f7380          MOV      r3,#0x100
000fd6  f5a24100          SUB      r1,r2,#0x8000
000fda  487e              LDR      r0,|L1.4564|
000fdc  f7fffffe          BL       arm_biquad_cascade_df1_fast_q15
000fe0  6127              STR      r7,[r4,#0x10]
000fe2  69a0              LDR      r0,[r4,#0x18]
000fe4  9901              LDR      r1,[sp,#4]
000fe6  f1c07080          RSB      r0,r0,#0x1000000
000fea  9000              STR      r0,[sp,#0]
000fec  1a41              SUBS     r1,r0,r1
000fee  f6af303c          ADR      r0,|L1.1204|
000ff2  f7fffffe          BL       __2printf
000ff6  f6af3040          ADR      r0,|L1.1208|
000ffa  f7fffffe          BL       __2printf
;;;828    				START_CYCLE_TIMER;arm_biquad_cascade_df1_fast_q15(&IIR_Inst.q15_df1,&InputData.q15[0],&OutputData.q15[0],512);REPORT_CYCLE_TIMER;COMMA;
000ffe  61a6              STR      r6,[r4,#0x18]
001000  6125              STR      r5,[r4,#0x10]
001002  4a6b              LDR      r2,|L1.4528|
001004  f44f7a00          MOV      r10,#0x200
001008  4653              MOV      r3,r10
00100a  f5a24100          SUB      r1,r2,#0x8000
00100e  4871              LDR      r0,|L1.4564|
001010  f7fffffe          BL       arm_biquad_cascade_df1_fast_q15
001014  6127              STR      r7,[r4,#0x10]
001016  69a0              LDR      r0,[r4,#0x18]
001018  9901              LDR      r1,[sp,#4]
00101a  f1c07080          RSB      r0,r0,#0x1000000
00101e  9000              STR      r0,[sp,#0]
001020  1a41              SUBS     r1,r0,r1
001022  f6af3070          ADR      r0,|L1.1204|
001026  f7fffffe          BL       __2printf
00102a  f6af3074          ADR      r0,|L1.1208|
00102e  f7fffffe          BL       __2printf
;;;829    				START_CYCLE_TIMER;arm_biquad_cascade_df1_fast_q15(&IIR_Inst.q15_df1,&InputData.q15[0],&OutputData.q15[0],1024);REPORT_CYCLE_TIMER;COMMA;
001032  61a6              STR      r6,[r4,#0x18]
001034  6125              STR      r5,[r4,#0x10]
001036  4a5e              LDR      r2,|L1.4528|
001038  f44f6380          MOV      r3,#0x400
00103c  f5a24100          SUB      r1,r2,#0x8000
001040  4864              LDR      r0,|L1.4564|
001042  f7fffffe          BL       arm_biquad_cascade_df1_fast_q15
001046  6127              STR      r7,[r4,#0x10]
001048  69a0              LDR      r0,[r4,#0x18]
00104a  9901              LDR      r1,[sp,#4]
00104c  f1c07080          RSB      r0,r0,#0x1000000
001050  9000              STR      r0,[sp,#0]
001052  1a41              SUBS     r1,r0,r1
001054  f6af30a4          ADR      r0,|L1.1204|
001058  f7fffffe          BL       __2printf
00105c  f6af30a8          ADR      r0,|L1.1208|
001060  f7fffffe          BL       __2printf
;;;830    				START_CYCLE_TIMER;arm_biquad_cascade_df1_fast_q15(&IIR_Inst.q15_df1,&InputData.q15[0],&OutputData.q15[0],2048);REPORT_CYCLE_TIMER;COMMA;
001064  61a6              STR      r6,[r4,#0x18]
001066  6125              STR      r5,[r4,#0x10]
001068  4a51              LDR      r2,|L1.4528|
00106a  464b              MOV      r3,r9
00106c  f5a24100          SUB      r1,r2,#0x8000
001070  4858              LDR      r0,|L1.4564|
001072  f7fffffe          BL       arm_biquad_cascade_df1_fast_q15
001076  6127              STR      r7,[r4,#0x10]
001078  69a0              LDR      r0,[r4,#0x18]
00107a  9901              LDR      r1,[sp,#4]
00107c  f1c07080          RSB      r0,r0,#0x1000000
001080  9000              STR      r0,[sp,#0]
001082  1a41              SUBS     r1,r0,r1
001084  f6af30d4          ADR      r0,|L1.1204|
001088  f7fffffe          BL       __2printf
00108c  f6af30d8          ADR      r0,|L1.1208|
001090  f7fffffe          BL       __2printf
;;;831    				START_CYCLE_TIMER;arm_biquad_cascade_df1_fast_q15(&IIR_Inst.q15_df1,&InputData.q15[0],&OutputData.q15[0],4096);REPORT_CYCLE_TIMER;COMMA;
001094  61a6              STR      r6,[r4,#0x18]
001096  6125              STR      r5,[r4,#0x10]
001098  4a45              LDR      r2,|L1.4528|
00109a  f44f5380          MOV      r3,#0x1000
00109e  f5a24100          SUB      r1,r2,#0x8000
0010a2  484c              LDR      r0,|L1.4564|
0010a4  f7fffffe          BL       arm_biquad_cascade_df1_fast_q15
0010a8  6127              STR      r7,[r4,#0x10]
0010aa  69a0              LDR      r0,[r4,#0x18]
0010ac  9901              LDR      r1,[sp,#4]
0010ae  f1c07080          RSB      r0,r0,#0x1000000
0010b2  9000              STR      r0,[sp,#0]
0010b4  1a41              SUBS     r1,r0,r1
0010b6  f6af4004          ADR      r0,|L1.1204|
0010ba  f7fffffe          BL       __2printf
0010be  f6af4008          ADR      r0,|L1.1208|
0010c2  f7fffffe          BL       __2printf
;;;832    
;;;833    			#endif
;;;834    
;;;835    			#ifdef ENABLE_BLOCK_FIR
;;;836    				CM_PRINTF("\r\n");
0010c6  f6af40a8          ADR      r0,|L1.1056|
0010ca  f7fffffe          BL       __2printf
;;;837    				CM_PRINTF("FIR-q15_8tap,");
0010ce  a042              ADR      r0,|L1.4568|
0010d0  f7fffffe          BL       __2printf
;;;838    				arm_fir_init_q15(&FIR_Inst.q15,8,&FIR_Coef_q15[0],&FIR_State.q15[0],2048);
0010d4  4b3f              LDR      r3,|L1.4564|
0010d6  4a44              LDR      r2,|L1.4584|
0010d8  331c              ADDS     r3,r3,#0x1c
0010da  2108              MOVS     r1,#8
0010dc  f1a3000c          SUB      r0,r3,#0xc
0010e0  f8cd9000          STR      r9,[sp,#0]
0010e4  f7fffffe          BL       arm_fir_init_q15
;;;839    				START_CYCLE_TIMER;arm_fir_q15(&FIR_Inst.q15,&InputData.q15[0],&OutputData.q15[0],16);REPORT_CYCLE_TIMER;COMMA;
0010e8  61a6              STR      r6,[r4,#0x18]
0010ea  6125              STR      r5,[r4,#0x10]
0010ec  4a30              LDR      r2,|L1.4528|
0010ee  4839              LDR      r0,|L1.4564|
0010f0  2310              MOVS     r3,#0x10
0010f2  f5a24100          SUB      r1,r2,#0x8000
0010f6  3010              ADDS     r0,r0,#0x10
0010f8  f7fffffe          BL       arm_fir_q15
0010fc  6127              STR      r7,[r4,#0x10]
0010fe  69a0              LDR      r0,[r4,#0x18]
001100  9901              LDR      r1,[sp,#4]
001102  f1c07080          RSB      r0,r0,#0x1000000
001106  9000              STR      r0,[sp,#0]
001108  1a41              SUBS     r1,r0,r1
00110a  f6af4058          ADR      r0,|L1.1204|
00110e  f7fffffe          BL       __2printf
001112  a034              ADR      r0,|L1.4580|
001114  f7fffffe          BL       __2printf
;;;840    				START_CYCLE_TIMER;arm_fir_q15(&FIR_Inst.q15,&InputData.q15[0],&OutputData.q15[0],32);REPORT_CYCLE_TIMER;COMMA;
001118  61a6              STR      r6,[r4,#0x18]
00111a  6125              STR      r5,[r4,#0x10]
00111c  4a24              LDR      r2,|L1.4528|
00111e  482d              LDR      r0,|L1.4564|
001120  2320              MOVS     r3,#0x20
001122  f5a24100          SUB      r1,r2,#0x8000
001126  3010              ADDS     r0,r0,#0x10
001128  f7fffffe          BL       arm_fir_q15
00112c  6127              STR      r7,[r4,#0x10]
00112e  69a0              LDR      r0,[r4,#0x18]
001130  9901              LDR      r1,[sp,#4]
001132  f1c07080          RSB      r0,r0,#0x1000000
001136  9000              STR      r0,[sp,#0]
001138  1a41              SUBS     r1,r0,r1
00113a  f6af4088          ADR      r0,|L1.1204|
00113e  f7fffffe          BL       __2printf
001142  a028              ADR      r0,|L1.4580|
001144  f7fffffe          BL       __2printf
;;;841    				START_CYCLE_TIMER;arm_fir_q15(&FIR_Inst.q15,&InputData.q15[0],&OutputData.q15[0],64);REPORT_CYCLE_TIMER;COMMA;
001148  61a6              STR      r6,[r4,#0x18]
00114a  6125              STR      r5,[r4,#0x10]
00114c  4a18              LDR      r2,|L1.4528|
00114e  4821              LDR      r0,|L1.4564|
001150  2340              MOVS     r3,#0x40
001152  f5a24100          SUB      r1,r2,#0x8000
001156  3010              ADDS     r0,r0,#0x10
001158  f7fffffe          BL       arm_fir_q15
00115c  6127              STR      r7,[r4,#0x10]
00115e  69a0              LDR      r0,[r4,#0x18]
001160  9901              LDR      r1,[sp,#4]
001162  f1c07080          RSB      r0,r0,#0x1000000
001166  9000              STR      r0,[sp,#0]
001168  1a41              SUBS     r1,r0,r1
00116a  f6af40b8          ADR      r0,|L1.1204|
00116e  f7fffffe          BL       __2printf
001172  a01c              ADR      r0,|L1.4580|
001174  f7fffffe          BL       __2printf
;;;842    				START_CYCLE_TIMER;arm_fir_q15(&FIR_Inst.q15,&InputData.q15[0],&OutputData.q15[0],128);REPORT_CYCLE_TIMER;COMMA;
001178  61a6              STR      r6,[r4,#0x18]
00117a  6125              STR      r5,[r4,#0x10]
00117c  4a0c              LDR      r2,|L1.4528|
00117e  4815              LDR      r0,|L1.4564|
001180  2380              MOVS     r3,#0x80
001182  f5a24100          SUB      r1,r2,#0x8000
001186  3010              ADDS     r0,r0,#0x10
001188  f7fffffe          BL       arm_fir_q15
00118c  6127              STR      r7,[r4,#0x10]
00118e  69a0              LDR      r0,[r4,#0x18]
001190  9901              LDR      r1,[sp,#4]
001192  f1c07080          RSB      r0,r0,#0x1000000
001196  9000              STR      r0,[sp,#0]
001198  1a41              SUBS     r1,r0,r1
00119a  f6af40e8          ADR      r0,|L1.1204|
00119e  f7fffffe          BL       __2printf
0011a2  a010              ADR      r0,|L1.4580|
0011a4  f7fffffe          BL       __2printf
;;;843    				START_CYCLE_TIMER;arm_fir_q15(&FIR_Inst.q15,&InputData.q15[0],&OutputData.q15[0],256);REPORT_CYCLE_TIMER;COMMA;
0011a8  61a6              STR      r6,[r4,#0x18]
0011aa  6125              STR      r5,[r4,#0x10]
0011ac  e01e              B        |L1.4588|
0011ae  0000              DCW      0x0000
                  |L1.4528|
                          DCD      ||.bss||+0x8000
                  |L1.4532|
0011b4  4949522d          DCB      "IIR-q15_df1-1Stage-fast,",0
0011b8  7131355f
0011bc  6466312d
0011c0  31537461
0011c4  67652d66
0011c8  6173742c
0011cc  00      
0011cd  00                DCB      0
0011ce  00                DCB      0
0011cf  00                DCB      0
                  |L1.4560|
                          DCD      ||.data||
                  |L1.4564|
                          DCD      ||.bss||+0x10000
                  |L1.4568|
0011d8  4649522d          DCB      "FIR-q15_8tap"
0011dc  7131355f
0011e0  38746170
                  |L1.4580|
0011e4  2c00              DCB      ",",0
0011e6  00                DCB      0
0011e7  00                DCB      0
                  |L1.4584|
                          DCD      ||.bss||+0x120a0
                  |L1.4588|
0011ec  4aff              LDR      r2,|L1.5612|
0011ee  f44f7380          MOV      r3,#0x100
0011f2  f5a24100          SUB      r1,r2,#0x8000
0011f6  48fe              LDR      r0,|L1.5616|
0011f8  f7fffffe          BL       arm_fir_q15
0011fc  6127              STR      r7,[r4,#0x10]
0011fe  69a0              LDR      r0,[r4,#0x18]
001200  9901              LDR      r1,[sp,#4]
001202  f1c07080          RSB      r0,r0,#0x1000000
001206  9000              STR      r0,[sp,#0]
001208  1a41              SUBS     r1,r0,r1
00120a  f6af5058          ADR      r0,|L1.1204|
00120e  f7fffffe          BL       __2printf
001212  f2af0030          ADR      r0,|L1.4580|
001216  f7fffffe          BL       __2printf
;;;844    				START_CYCLE_TIMER;arm_fir_q15(&FIR_Inst.q15,&InputData.q15[0],&OutputData.q15[0],512);REPORT_CYCLE_TIMER;COMMA;
00121a  61a6              STR      r6,[r4,#0x18]
00121c  6125              STR      r5,[r4,#0x10]
00121e  4af3              LDR      r2,|L1.5612|
001220  4653              MOV      r3,r10
001222  f5a24100          SUB      r1,r2,#0x8000
001226  48f2              LDR      r0,|L1.5616|
001228  f7fffffe          BL       arm_fir_q15
00122c  6127              STR      r7,[r4,#0x10]
00122e  69a0              LDR      r0,[r4,#0x18]
001230  9901              LDR      r1,[sp,#4]
001232  f1c07080          RSB      r0,r0,#0x1000000
001236  9000              STR      r0,[sp,#0]
001238  1a41              SUBS     r1,r0,r1
00123a  f6af5088          ADR      r0,|L1.1204|
00123e  f7fffffe          BL       __2printf
001242  f2af0060          ADR      r0,|L1.4580|
001246  f7fffffe          BL       __2printf
;;;845    				START_CYCLE_TIMER;arm_fir_q15(&FIR_Inst.q15,&InputData.q15[0],&OutputData.q15[0],1024);REPORT_CYCLE_TIMER;COMMA;
00124a  61a6              STR      r6,[r4,#0x18]
00124c  6125              STR      r5,[r4,#0x10]
00124e  4ae7              LDR      r2,|L1.5612|
001250  f44f6380          MOV      r3,#0x400
001254  f5a24100          SUB      r1,r2,#0x8000
001258  48e5              LDR      r0,|L1.5616|
00125a  f7fffffe          BL       arm_fir_q15
00125e  6127              STR      r7,[r4,#0x10]
001260  69a0              LDR      r0,[r4,#0x18]
001262  9901              LDR      r1,[sp,#4]
001264  f1c07080          RSB      r0,r0,#0x1000000
001268  9000              STR      r0,[sp,#0]
00126a  1a41              SUBS     r1,r0,r1
00126c  f6af50bc          ADR      r0,|L1.1204|
001270  f7fffffe          BL       __2printf
001274  f2af0094          ADR      r0,|L1.4580|
001278  f7fffffe          BL       __2printf
;;;846    				START_CYCLE_TIMER;arm_fir_q15(&FIR_Inst.q15,&InputData.q15[0],&OutputData.q15[0],2048);REPORT_CYCLE_TIMER;COMMA;
00127c  61a6              STR      r6,[r4,#0x18]
00127e  6125              STR      r5,[r4,#0x10]
001280  4ada              LDR      r2,|L1.5612|
001282  464b              MOV      r3,r9
001284  f5a24100          SUB      r1,r2,#0x8000
001288  48d9              LDR      r0,|L1.5616|
00128a  f7fffffe          BL       arm_fir_q15
00128e  6127              STR      r7,[r4,#0x10]
001290  69a0              LDR      r0,[r4,#0x18]
001292  9901              LDR      r1,[sp,#4]
001294  f1c07080          RSB      r0,r0,#0x1000000
001298  9000              STR      r0,[sp,#0]
00129a  1a41              SUBS     r1,r0,r1
00129c  f6af50ec          ADR      r0,|L1.1204|
0012a0  f7fffffe          BL       __2printf
0012a4  f2af00c4          ADR      r0,|L1.4580|
0012a8  f7fffffe          BL       __2printf
;;;847    				CM_PRINTF("n/a"); // Not enough memory to do the 4096 case
0012ac  f6af50a4          ADR      r0,|L1.1292|
0012b0  f7fffffe          BL       __2printf
;;;848    
;;;849    				CM_PRINTF("\r\n");
0012b4  f6af6098          ADR      r0,|L1.1056|
0012b8  f7fffffe          BL       __2printf
;;;850    				CM_PRINTF("FIR-q15_16tap,");
0012bc  a0cd              ADR      r0,|L1.5620|
0012be  f7fffffe          BL       __2printf
;;;851    
;;;852    				arm_fir_init_q15(&FIR_Inst.q15,16,&FIR_Coef_q15[0],&FIR_State.q15[0],2048);
0012c2  4bcb              LDR      r3,|L1.5616|
0012c4  4acf              LDR      r2,|L1.5636|
0012c6  330c              ADDS     r3,r3,#0xc
0012c8  2110              MOVS     r1,#0x10
0012ca  48c9              LDR      r0,|L1.5616|
0012cc  f8cd9000          STR      r9,[sp,#0]
0012d0  f7fffffe          BL       arm_fir_init_q15
;;;853    				START_CYCLE_TIMER;arm_fir_q15(&FIR_Inst.q15,&InputData.q15[0],&OutputData.q15[0],16);REPORT_CYCLE_TIMER;COMMA;
0012d4  61a6              STR      r6,[r4,#0x18]
0012d6  6125              STR      r5,[r4,#0x10]
0012d8  4ac4              LDR      r2,|L1.5612|
0012da  2310              MOVS     r3,#0x10
0012dc  f5a24100          SUB      r1,r2,#0x8000
0012e0  48c3              LDR      r0,|L1.5616|
0012e2  f7fffffe          BL       arm_fir_q15
0012e6  6127              STR      r7,[r4,#0x10]
0012e8  69a0              LDR      r0,[r4,#0x18]
0012ea  9901              LDR      r1,[sp,#4]
0012ec  f1c07080          RSB      r0,r0,#0x1000000
0012f0  9000              STR      r0,[sp,#0]
0012f2  1a41              SUBS     r1,r0,r1
0012f4  f6af6044          ADR      r0,|L1.1204|
0012f8  f7fffffe          BL       __2printf
0012fc  f2af101c          ADR      r0,|L1.4580|
001300  f7fffffe          BL       __2printf
;;;854    				START_CYCLE_TIMER;arm_fir_q15(&FIR_Inst.q15,&InputData.q15[0],&OutputData.q15[0],32);REPORT_CYCLE_TIMER;COMMA;
001304  61a6              STR      r6,[r4,#0x18]
001306  6125              STR      r5,[r4,#0x10]
001308  4ab8              LDR      r2,|L1.5612|
00130a  2320              MOVS     r3,#0x20
00130c  f5a24100          SUB      r1,r2,#0x8000
001310  48b7              LDR      r0,|L1.5616|
001312  f7fffffe          BL       arm_fir_q15
001316  6127              STR      r7,[r4,#0x10]
001318  69a0              LDR      r0,[r4,#0x18]
00131a  9901              LDR      r1,[sp,#4]
00131c  f1c07080          RSB      r0,r0,#0x1000000
001320  9000              STR      r0,[sp,#0]
001322  1a41              SUBS     r1,r0,r1
001324  f6af6074          ADR      r0,|L1.1204|
001328  f7fffffe          BL       __2printf
00132c  f2af104c          ADR      r0,|L1.4580|
001330  f7fffffe          BL       __2printf
;;;855    				START_CYCLE_TIMER;arm_fir_q15(&FIR_Inst.q15,&InputData.q15[0],&OutputData.q15[0],64);REPORT_CYCLE_TIMER;COMMA;
001334  61a6              STR      r6,[r4,#0x18]
001336  6125              STR      r5,[r4,#0x10]
001338  4aac              LDR      r2,|L1.5612|
00133a  2340              MOVS     r3,#0x40
00133c  f5a24100          SUB      r1,r2,#0x8000
001340  48ab              LDR      r0,|L1.5616|
001342  f7fffffe          BL       arm_fir_q15
001346  6127              STR      r7,[r4,#0x10]
001348  69a0              LDR      r0,[r4,#0x18]
00134a  9901              LDR      r1,[sp,#4]
00134c  f1c07080          RSB      r0,r0,#0x1000000
001350  9000              STR      r0,[sp,#0]
001352  1a41              SUBS     r1,r0,r1
001354  f6af60a4          ADR      r0,|L1.1204|
001358  f7fffffe          BL       __2printf
00135c  f2af107c          ADR      r0,|L1.4580|
001360  f7fffffe          BL       __2printf
;;;856    				START_CYCLE_TIMER;arm_fir_q15(&FIR_Inst.q15,&InputData.q15[0],&OutputData.q15[0],128);REPORT_CYCLE_TIMER;COMMA;
001364  61a6              STR      r6,[r4,#0x18]
001366  6125              STR      r5,[r4,#0x10]
001368  4aa0              LDR      r2,|L1.5612|
00136a  2380              MOVS     r3,#0x80
00136c  f5a24100          SUB      r1,r2,#0x8000
001370  489f              LDR      r0,|L1.5616|
001372  f7fffffe          BL       arm_fir_q15
001376  6127              STR      r7,[r4,#0x10]
001378  69a0              LDR      r0,[r4,#0x18]
00137a  9901              LDR      r1,[sp,#4]
00137c  f1c07080          RSB      r0,r0,#0x1000000
001380  9000              STR      r0,[sp,#0]
001382  1a41              SUBS     r1,r0,r1
001384  f6af60d4          ADR      r0,|L1.1204|
001388  f7fffffe          BL       __2printf
00138c  f2af10ac          ADR      r0,|L1.4580|
001390  f7fffffe          BL       __2printf
;;;857    				START_CYCLE_TIMER;arm_fir_q15(&FIR_Inst.q15,&InputData.q15[0],&OutputData.q15[0],256);REPORT_CYCLE_TIMER;COMMA;
001394  61a6              STR      r6,[r4,#0x18]
001396  6125              STR      r5,[r4,#0x10]
001398  4a94              LDR      r2,|L1.5612|
00139a  f44f7380          MOV      r3,#0x100
00139e  f5a24100          SUB      r1,r2,#0x8000
0013a2  4893              LDR      r0,|L1.5616|
0013a4  f7fffffe          BL       arm_fir_q15
0013a8  6127              STR      r7,[r4,#0x10]
0013aa  69a0              LDR      r0,[r4,#0x18]
0013ac  9901              LDR      r1,[sp,#4]
0013ae  f1c07080          RSB      r0,r0,#0x1000000
0013b2  9000              STR      r0,[sp,#0]
0013b4  1a41              SUBS     r1,r0,r1
0013b6  f6af7004          ADR      r0,|L1.1204|
0013ba  f7fffffe          BL       __2printf
0013be  f2af10dc          ADR      r0,|L1.4580|
0013c2  f7fffffe          BL       __2printf
;;;858    				START_CYCLE_TIMER;arm_fir_q15(&FIR_Inst.q15,&InputData.q15[0],&OutputData.q15[0],512);REPORT_CYCLE_TIMER;COMMA;
0013c6  61a6              STR      r6,[r4,#0x18]
0013c8  6125              STR      r5,[r4,#0x10]
0013ca  4a88              LDR      r2,|L1.5612|
0013cc  4653              MOV      r3,r10
0013ce  f5a24100          SUB      r1,r2,#0x8000
0013d2  4887              LDR      r0,|L1.5616|
0013d4  f7fffffe          BL       arm_fir_q15
0013d8  6127              STR      r7,[r4,#0x10]
0013da  69a0              LDR      r0,[r4,#0x18]
0013dc  9901              LDR      r1,[sp,#4]
0013de  f1c07080          RSB      r0,r0,#0x1000000
0013e2  9000              STR      r0,[sp,#0]
0013e4  1a41              SUBS     r1,r0,r1
0013e6  f6af7034          ADR      r0,|L1.1204|
0013ea  f7fffffe          BL       __2printf
0013ee  f2af200c          ADR      r0,|L1.4580|
0013f2  f7fffffe          BL       __2printf
;;;859    				START_CYCLE_TIMER;arm_fir_q15(&FIR_Inst.q15,&InputData.q15[0],&OutputData.q15[0],1024);REPORT_CYCLE_TIMER;COMMA;
0013f6  61a6              STR      r6,[r4,#0x18]
0013f8  6125              STR      r5,[r4,#0x10]
0013fa  4a7c              LDR      r2,|L1.5612|
0013fc  f44f6380          MOV      r3,#0x400
001400  f5a24100          SUB      r1,r2,#0x8000
001404  487a              LDR      r0,|L1.5616|
001406  f7fffffe          BL       arm_fir_q15
00140a  6127              STR      r7,[r4,#0x10]
00140c  69a0              LDR      r0,[r4,#0x18]
00140e  9901              LDR      r1,[sp,#4]
001410  f1c07080          RSB      r0,r0,#0x1000000
001414  9000              STR      r0,[sp,#0]
001416  1a41              SUBS     r1,r0,r1
001418  f6af7068          ADR      r0,|L1.1204|
00141c  f7fffffe          BL       __2printf
001420  f2af2040          ADR      r0,|L1.4580|
001424  f7fffffe          BL       __2printf
;;;860    				START_CYCLE_TIMER;arm_fir_q15(&FIR_Inst.q15,&InputData.q15[0],&OutputData.q15[0],2048);REPORT_CYCLE_TIMER;COMMA;
001428  61a6              STR      r6,[r4,#0x18]
00142a  6125              STR      r5,[r4,#0x10]
00142c  4a6f              LDR      r2,|L1.5612|
00142e  464b              MOV      r3,r9
001430  f5a24100          SUB      r1,r2,#0x8000
001434  486e              LDR      r0,|L1.5616|
001436  f7fffffe          BL       arm_fir_q15
00143a  6127              STR      r7,[r4,#0x10]
00143c  69a0              LDR      r0,[r4,#0x18]
00143e  9901              LDR      r1,[sp,#4]
001440  f1c07080          RSB      r0,r0,#0x1000000
001444  9000              STR      r0,[sp,#0]
001446  1a41              SUBS     r1,r0,r1
001448  f6af7098          ADR      r0,|L1.1204|
00144c  f7fffffe          BL       __2printf
001450  f2af2070          ADR      r0,|L1.4580|
001454  f7fffffe          BL       __2printf
;;;861    				CM_PRINTF("n/a"); // Not enough memory to do the 4096 case
001458  f6af7050          ADR      r0,|L1.1292|
00145c  f7fffffe          BL       __2printf
;;;862    
;;;863    				CM_PRINTF("\r\n");
001460  a069              ADR      r0,|L1.5640|
001462  f7fffffe          BL       __2printf
;;;864    				CM_PRINTF("FIR-q15_32tap,");
001466  a069              ADR      r0,|L1.5644|
001468  f7fffffe          BL       __2printf
;;;865    
;;;866    				arm_fir_init_q15(&FIR_Inst.q15,32,&FIR_Coef_q15[0],&FIR_State.q15[0],2048);
00146c  4b60              LDR      r3,|L1.5616|
00146e  4a65              LDR      r2,|L1.5636|
001470  330c              ADDS     r3,r3,#0xc
001472  2120              MOVS     r1,#0x20
001474  485e              LDR      r0,|L1.5616|
001476  f8cd9000          STR      r9,[sp,#0]
00147a  f7fffffe          BL       arm_fir_init_q15
;;;867    				START_CYCLE_TIMER;arm_fir_q15(&FIR_Inst.q15,&InputData.q15[0],&OutputData.q15[0],16);REPORT_CYCLE_TIMER;COMMA;
00147e  61a6              STR      r6,[r4,#0x18]
001480  6125              STR      r5,[r4,#0x10]
001482  4a5a              LDR      r2,|L1.5612|
001484  2310              MOVS     r3,#0x10
001486  f5a24100          SUB      r1,r2,#0x8000
00148a  4859              LDR      r0,|L1.5616|
00148c  f7fffffe          BL       arm_fir_q15
001490  6127              STR      r7,[r4,#0x10]
001492  69a0              LDR      r0,[r4,#0x18]
001494  9901              LDR      r1,[sp,#4]
001496  f1c07080          RSB      r0,r0,#0x1000000
00149a  9000              STR      r0,[sp,#0]
00149c  1a41              SUBS     r1,r0,r1
00149e  f6af70ec          ADR      r0,|L1.1204|
0014a2  f7fffffe          BL       __2printf
0014a6  f2af20c4          ADR      r0,|L1.4580|
0014aa  f7fffffe          BL       __2printf
;;;868    				START_CYCLE_TIMER;arm_fir_q15(&FIR_Inst.q15,&InputData.q15[0],&OutputData.q15[0],32);REPORT_CYCLE_TIMER;COMMA;
0014ae  61a6              STR      r6,[r4,#0x18]
0014b0  6125              STR      r5,[r4,#0x10]
0014b2  4a4e              LDR      r2,|L1.5612|
0014b4  2320              MOVS     r3,#0x20
0014b6  f5a24100          SUB      r1,r2,#0x8000
0014ba  484d              LDR      r0,|L1.5616|
0014bc  f7fffffe          BL       arm_fir_q15
0014c0  6127              STR      r7,[r4,#0x10]
0014c2  69a0              LDR      r0,[r4,#0x18]
0014c4  9901              LDR      r1,[sp,#4]
0014c6  f1c07080          RSB      r0,r0,#0x1000000
0014ca  9000              STR      r0,[sp,#0]
0014cc  1a41              SUBS     r1,r0,r1
0014ce  a053              ADR      r0,|L1.5660|
0014d0  f7fffffe          BL       __2printf
0014d4  f2af20f4          ADR      r0,|L1.4580|
0014d8  f7fffffe          BL       __2printf
;;;869    				START_CYCLE_TIMER;arm_fir_q15(&FIR_Inst.q15,&InputData.q15[0],&OutputData.q15[0],64);REPORT_CYCLE_TIMER;COMMA;
0014dc  61a6              STR      r6,[r4,#0x18]
0014de  6125              STR      r5,[r4,#0x10]
0014e0  4a42              LDR      r2,|L1.5612|
0014e2  2340              MOVS     r3,#0x40
0014e4  f5a24100          SUB      r1,r2,#0x8000
0014e8  4841              LDR      r0,|L1.5616|
0014ea  f7fffffe          BL       arm_fir_q15
0014ee  6127              STR      r7,[r4,#0x10]
0014f0  69a0              LDR      r0,[r4,#0x18]
0014f2  9901              LDR      r1,[sp,#4]
0014f4  f1c07080          RSB      r0,r0,#0x1000000
0014f8  9000              STR      r0,[sp,#0]
0014fa  1a41              SUBS     r1,r0,r1
0014fc  a047              ADR      r0,|L1.5660|
0014fe  f7fffffe          BL       __2printf
001502  f2af3020          ADR      r0,|L1.4580|
001506  f7fffffe          BL       __2printf
;;;870    				START_CYCLE_TIMER;arm_fir_q15(&FIR_Inst.q15,&InputData.q15[0],&OutputData.q15[0],128);REPORT_CYCLE_TIMER;COMMA;
00150a  61a6              STR      r6,[r4,#0x18]
00150c  6125              STR      r5,[r4,#0x10]
00150e  4a37              LDR      r2,|L1.5612|
001510  2380              MOVS     r3,#0x80
001512  f5a24100          SUB      r1,r2,#0x8000
001516  4836              LDR      r0,|L1.5616|
001518  f7fffffe          BL       arm_fir_q15
00151c  6127              STR      r7,[r4,#0x10]
00151e  69a0              LDR      r0,[r4,#0x18]
001520  9901              LDR      r1,[sp,#4]
001522  f1c07080          RSB      r0,r0,#0x1000000
001526  9000              STR      r0,[sp,#0]
001528  1a41              SUBS     r1,r0,r1
00152a  a03c              ADR      r0,|L1.5660|
00152c  f7fffffe          BL       __2printf
001530  f2af3050          ADR      r0,|L1.4580|
001534  f7fffffe          BL       __2printf
;;;871    				START_CYCLE_TIMER;arm_fir_q15(&FIR_Inst.q15,&InputData.q15[0],&OutputData.q15[0],256);REPORT_CYCLE_TIMER;COMMA;
001538  61a6              STR      r6,[r4,#0x18]
00153a  6125              STR      r5,[r4,#0x10]
00153c  4a2b              LDR      r2,|L1.5612|
00153e  f44f7380          MOV      r3,#0x100
001542  f5a24100          SUB      r1,r2,#0x8000
001546  482a              LDR      r0,|L1.5616|
001548  f7fffffe          BL       arm_fir_q15
00154c  6127              STR      r7,[r4,#0x10]
00154e  69a0              LDR      r0,[r4,#0x18]
001550  9901              LDR      r1,[sp,#4]
001552  f1c07080          RSB      r0,r0,#0x1000000
001556  9000              STR      r0,[sp,#0]
001558  1a41              SUBS     r1,r0,r1
00155a  a030              ADR      r0,|L1.5660|
00155c  f7fffffe          BL       __2printf
001560  f2af3080          ADR      r0,|L1.4580|
001564  f7fffffe          BL       __2printf
;;;872    				START_CYCLE_TIMER;arm_fir_q15(&FIR_Inst.q15,&InputData.q15[0],&OutputData.q15[0],512);REPORT_CYCLE_TIMER;COMMA;
001568  61a6              STR      r6,[r4,#0x18]
00156a  6125              STR      r5,[r4,#0x10]
00156c  4a1f              LDR      r2,|L1.5612|
00156e  4653              MOV      r3,r10
001570  f5a24100          SUB      r1,r2,#0x8000
001574  481e              LDR      r0,|L1.5616|
001576  f7fffffe          BL       arm_fir_q15
00157a  6127              STR      r7,[r4,#0x10]
00157c  69a0              LDR      r0,[r4,#0x18]
00157e  9901              LDR      r1,[sp,#4]
001580  f1c07080          RSB      r0,r0,#0x1000000
001584  9000              STR      r0,[sp,#0]
001586  1a41              SUBS     r1,r0,r1
001588  a024              ADR      r0,|L1.5660|
00158a  f7fffffe          BL       __2printf
00158e  f2af30ac          ADR      r0,|L1.4580|
001592  f7fffffe          BL       __2printf
;;;873    				START_CYCLE_TIMER;arm_fir_q15(&FIR_Inst.q15,&InputData.q15[0],&OutputData.q15[0],1024);REPORT_CYCLE_TIMER;COMMA;
001596  61a6              STR      r6,[r4,#0x18]
001598  6125              STR      r5,[r4,#0x10]
00159a  4a14              LDR      r2,|L1.5612|
00159c  f44f6380          MOV      r3,#0x400
0015a0  f5a24100          SUB      r1,r2,#0x8000
0015a4  4812              LDR      r0,|L1.5616|
0015a6  f7fffffe          BL       arm_fir_q15
0015aa  6127              STR      r7,[r4,#0x10]
0015ac  69a0              LDR      r0,[r4,#0x18]
0015ae  9901              LDR      r1,[sp,#4]
0015b0  f1c07080          RSB      r0,r0,#0x1000000
0015b4  9000              STR      r0,[sp,#0]
0015b6  1a41              SUBS     r1,r0,r1
0015b8  a018              ADR      r0,|L1.5660|
0015ba  f7fffffe          BL       __2printf
0015be  f2af30dc          ADR      r0,|L1.4580|
0015c2  f7fffffe          BL       __2printf
;;;874    				START_CYCLE_TIMER;arm_fir_q15(&FIR_Inst.q15,&InputData.q15[0],&OutputData.q15[0],2048);REPORT_CYCLE_TIMER;COMMA;
0015c6  61a6              STR      r6,[r4,#0x18]
0015c8  6125              STR      r5,[r4,#0x10]
0015ca  4a08              LDR      r2,|L1.5612|
0015cc  464b              MOV      r3,r9
0015ce  f5a24100          SUB      r1,r2,#0x8000
0015d2  4807              LDR      r0,|L1.5616|
0015d4  f7fffffe          BL       arm_fir_q15
0015d8  6127              STR      r7,[r4,#0x10]
0015da  69a0              LDR      r0,[r4,#0x18]
0015dc  9901              LDR      r1,[sp,#4]
0015de  f1c07080          RSB      r0,r0,#0x1000000
0015e2  9000              STR      r0,[sp,#0]
0015e4  1a41              SUBS     r1,r0,r1
0015e6  a00d              ADR      r0,|L1.5660|
0015e8  e01a              B        |L1.5664|
0015ea  0000              DCW      0x0000
                  |L1.5612|
                          DCD      ||.bss||+0x8000
                  |L1.5616|
                          DCD      ||.bss||+0x10010
                  |L1.5620|
0015f4  4649522d          DCB      "FIR-q15_16tap,",0
0015f8  7131355f
0015fc  31367461
001600  702c00  
001603  00                DCB      0
                  |L1.5636|
                          DCD      ||.bss||+0x120a0
                  |L1.5640|
001608  0d0a00            DCB      "\r\n",0
00160b  00                DCB      0
                  |L1.5644|
00160c  4649522d          DCB      "FIR-q15_32tap,",0
001610  7131355f
001614  33327461
001618  702c00  
00161b  00                DCB      0
                  |L1.5660|
00161c  256900            DCB      "%i",0
00161f  00                DCB      0
                  |L1.5664|
001620  f7fffffe          BL       __2printf
001624  f2af4044          ADR      r0,|L1.4580|
001628  f7fffffe          BL       __2printf
;;;875    				CM_PRINTF("n/a"); // Not enough memory to do the 4096 case
00162c  4834              LDR      r0,|L1.5888|
00162e  f7fffffe          BL       __2printf
;;;876    		#endif
;;;877    
;;;878    	#endif
;;;879    
;;;880    #endif
;;;881    
;;;882    
;;;883    #ifdef  ENABLE_PER_SAMPLE
;;;884    
;;;885            	/***
;;;886            	 *      _____  ______ _____     _____         __  __ _____  _      ______
;;;887            	 *     |  __ \|  ____|  __ \   / ____|  /\   |  \/  |  __ \| |    |  ____|
;;;888            	 *     | |__) | |__  | |__) | | (___   /  \  | \  / | |__) | |    | |__
;;;889            	 *     |  ___/|  __| |  _  /   \___ \ / /\ \ | |\/| |  ___/| |    |  __|
;;;890            	 *     | |    | |____| | \ \   ____) / ____ \| |  | | |    | |____| |____
;;;891            	 *     |_|    |______|_|  \_\ |_____/_/    \_\_|  |_|_|    |______|______|
;;;892            	 *
;;;893            	 *
;;;894            	 */
;;;895    
;;;896          	CM_PRINTF("\r\n\r\n\r\nSample by Sample Tests");
001632  a034              ADR      r0,|L1.5892|
001634  f7fffffe          BL       __2printf
;;;897          	CM_PRINTF("\r\n---------------------------------------------------------------\r\n");
001638  483a              LDR      r0,|L1.5924|
00163a  f7fffffe          BL       __2printf
;;;898            CM_PRINTF("\r\nIteration,0,1,2,3,4,5,6,7,8,9,10,11,12,13,14,15\r\n");
00163e  a03a              ADR      r0,|L1.5928|
001640  f7fffffe          BL       __2printf
;;;899    
;;;900    		#ifdef _f32
;;;901    
;;;902    			CM_PRINTF("\r\n");
;;;903    			CM_PRINTF("PID-f32,");
;;;904    
;;;905    			PID_Inst.f32.Kp = 0.5;
;;;906    			PID_Inst.f32.Ki = 0.1;
;;;907    			PID_Inst.f32.Kd = 0.05;
;;;908    			arm_pid_init_f32(&PID_Inst.f32,1);
;;;909    
;;;910    			for(i=0;i<16;i++)
;;;911    			{
;;;912    				START_CYCLE_TIMER;r=arm_pid_f32(&PID_Inst.f32,InputData.f32[i]);REPORT_CYCLE_TIMER;COMMA;
;;;913    			}
;;;914    
;;;915    			CM_PRINTF("\r\n");
;;;916    			CM_PRINTF("IIR-f31_64_df1-1Stage,");
;;;917    			arm_biquad_cascade_df1_init_f32(&IIR_Inst.f32_df1,1,(float_t *)&IIR_Coef_f32[0],(float_t *)&IIR_State_f32[0]);
;;;918    
;;;919    			for(i=0;i<15;i++)
;;;920    			{
;;;921    				START_CYCLE_TIMER;arm_biquad_cascade_df1_f32(&IIR_Inst.f32_df1,&InputData.f32[0],&OutputData.f32[0],1);REPORT_CYCLE_TIMER;COMMA;
;;;922    			}
;;;923    
;;;924    			CM_PRINTF("\r\nE-IIR-f32_df1-1Stage,");
;;;925    
;;;926    			E_IIRf.Coef.a[0] = -0.4;
;;;927    			E_IIRf.Coef.a[1] = -0.4;
;;;928    			E_IIRf.Coef.b[0] = -0.1;
;;;929    			E_IIRf.Coef.b[1] = -0.2;
;;;930    			E_IIRf.Coef.b[2] = -0.3;
;;;931    
;;;932    			Init_f32_IIR(&E_IIRf);
;;;933    
;;;934    			for(i=0;i<16;i++)
;;;935    			{
;;;936    				START_CYCLE_TIMER;Compute_f32_IIR(&E_IIRf,InputData.f32[0],&OutputData.f32[0]);REPORT_CYCLE_TIMER;COMMA;
;;;937    			}
;;;938    
;;;939    		#endif
;;;940    
;;;941    
;;;942    
;;;943    
;;;944    		#ifdef _q31
;;;945    
;;;946    			CM_PRINTF("\r\n");
;;;947    			CM_PRINTF("PID-q31,");
;;;948    
;;;949    			PID_Inst.q31.Kp = (q31_t)(0.5 * 0x7fffffff);
;;;950    			PID_Inst.q31.Ki = (q31_t)(0.1 * 0x7fffffff);
;;;951    			PID_Inst.q31.Kd = (q31_t)(0.05 * 0x7fffffff);
;;;952    			arm_pid_init_q31(&PID_Inst.q31,1);
;;;953    
;;;954    			for(i=0;i<15;i++)
;;;955    			{
;;;956    				START_CYCLE_TIMER;r=arm_pid_q31(&PID_Inst.q31,InputData.q31[i]);REPORT_CYCLE_TIMER;COMMA;
;;;957    				r*=2;//To Get rid of the warning
;;;958    			}
;;;959    
;;;960    			CM_PRINTF("\r\n");
;;;961    			CM_PRINTF("IIR-q32_64_df1-1Stage,");
;;;962    			arm_biquad_cas_df1_32x64_init_q31(&IIR_Inst.q31_64_df1,1,&IIR_Coef_q31[0],&IIR_State_q63[0],1);
;;;963    
;;;964    			for(i=0;i<15;i++)
;;;965    			{
;;;966    				START_CYCLE_TIMER;arm_biquad_cas_df1_32x64_q31(&IIR_Inst.q31_64_df1,&InputData.q31[0],&OutputData.q31[0],1);REPORT_CYCLE_TIMER;COMMA;
;;;967    			}
;;;968    
;;;969    			CM_PRINTF("\r\n");
;;;970    			CM_PRINTF("E-IIR-q31_64_df1-1Stage,");
;;;971    
;;;972    			E_IIR.Coef.PostShift = 1;
;;;973    			E_IIR.Coef.a[0] = -0.4;
;;;974    			E_IIR.Coef.a[1] = -0.4;
;;;975    			E_IIR.Coef.b[0] = -0.1;
;;;976    			E_IIR.Coef.b[1] = -0.2;
;;;977    			E_IIR.Coef.b[2] = -0.3;
;;;978    			Init_q31_t_IIR(&E_IIR);
;;;979    
;;;980    			for(i=0;i<15;i++)
;;;981    			{
;;;982    				START_CYCLE_TIMER;Compute_q31_t_IIR(&E_IIR,InputData.q31[0],&OutputData.q31[0]);REPORT_CYCLE_TIMER;COMMA;
;;;983    			}
;;;984    
;;;985    		#endif
;;;986    
;;;987    
;;;988    		#ifdef _q15
;;;989    
;;;990    			CM_PRINTF("\r\n");
001644  f2af0040          ADR      r0,|L1.5640|
001648  f7fffffe          BL       __2printf
;;;991    			CM_PRINTF("PID-q15,");
00164c  a043              ADR      r0,|L1.5980|
00164e  f7fffffe          BL       __2printf
;;;992    
;;;993    			PID_Inst.q15.Kp = (q31_t)(0.5 * 0x7fff);
001652  4845              LDR      r0,|L1.5992|
001654  f64371ff          MOV      r1,#0x3fff
001658  81c1              STRH     r1,[r0,#0xe]
;;;994    			PID_Inst.q15.Ki = (q31_t)(0.1 * 0x7fff);
00165a  f64041cc          MOV      r1,#0xccc
00165e  8201              STRH     r1,[r0,#0x10]
;;;995    			PID_Inst.q15.Kd = (q31_t)(0.05 * 0x7fff);
001660  1049              ASRS     r1,r1,#1
001662  8241              STRH     r1,[r0,#0x12]
;;;996    			arm_pid_init_q15(&PID_Inst.q15,1);
001664  2101              MOVS     r1,#1
001666  f7fffffe          BL       arm_pid_init_q15
00166a  46a1              MOV      r9,r4                 ;275
00166c  4c3e              LDR      r4,|L1.5992|
;;;997    
;;;998    			for(i=0;i<15;i++)
00166e  2600              MOVS     r6,#0
001670  46bb              MOV      r11,r7                ;275
001672  46c2              MOV      r10,r8                ;281
001674  3408              ADDS     r4,r4,#8              ;993
                  |L1.5750|
;;;999    			{
;;;1000   				START_CYCLE_TIMER;r=arm_pid_q15(&PID_Inst.q15,InputData.q15[i]);REPORT_CYCLE_TIMER;COMMA;
001676  2000              MOVS     r0,#0
001678  464b              MOV      r3,r9
00167a  f8c90018          STR      r0,[r9,#0x18]
00167e  f8c95010          STR      r5,[r9,#0x10]
001682  4a39              LDR      r2,|L1.5992|
001684  f93a7016          LDRSH    r7,[r10,r6,LSL #1]
001688  f9b20000          LDRSH    r0,[r2,#0]
00168c  fb20f007          SMUAD    r0,r0,r7
001690  f8d28004          LDR      r8,[r2,#4]
001694  f8d4c000          LDR      r12,[r4,#0]
001698  17c1              ASRS     r1,r0,#31
00169a  fbc801cc          SMLALD   r0,r1,r8,r12
00169e  f9b2c00c          LDRSH    r12,[r2,#0xc]
0016a2  ea4f38cc          LSL      r8,r12,#15
0016a6  eb180000          ADDS     r0,r8,r0
0016aa  eb417ce8          ADC      r12,r1,r8,ASR #31
0016ae  ea4f30d0          LSR      r0,r0,#15
0016b2  ea40404c          ORR      r0,r0,r12,LSL #17
0016b6  f300000f          SSAT     r0,#16,r0
0016ba  ee000a10          VMOV     s0,r0
0016be  8911              LDRH     r1,[r2,#8]
0016c0  8151              STRH     r1,[r2,#0xa]
0016c2  eeb80ac0          VCVT.F32.S32 s0,s0
0016c6  8117              STRH     r7,[r2,#8]
0016c8  8190              STRH     r0,[r2,#0xc]
0016ca  ed8d0a00          VSTR     s0,[sp,#0]
0016ce  f8c3b010          STR      r11,[r3,#0x10]
0016d2  6998              LDR      r0,[r3,#0x18]
0016d4  9901              LDR      r1,[sp,#4]
0016d6  f1c07080          RSB      r0,r0,#0x1000000
0016da  9000              STR      r0,[sp,#0]
0016dc  eba00101          SUB      r1,r0,r1
0016e0  f2af00c8          ADR      r0,|L1.5660|
0016e4  f7fffffe          BL       __2printf
0016e8  f2af5008          ADR      r0,|L1.4580|
0016ec  f7fffffe          BL       __2printf
0016f0  1c76              ADDS     r6,r6,#1
0016f2  2e0f              CMP      r6,#0xf               ;998
0016f4  dbbf              BLT      |L1.5750|
;;;1001   			}
;;;1002   
;;;1003   			#endif
;;;1004   
;;;1005   	CM_PRINTF("\r\n");
0016f6  f2af00f0          ADR      r0,|L1.5640|
0016fa  f7fffffe          BL       __2printf
                  |L1.5886|
;;;1006   #endif
;;;1007   
;;;1008   
;;;1009       while(1)
0016fe  e7fe              B        |L1.5886|
;;;1010       {
;;;1011   
;;;1012       }
;;;1013   }
                          ENDP

                  |L1.5888|
                          DCD      ||i.main||+0x50c
                  |L1.5892|
001704  0d0a0d0a          DCB      "\r\n\r\n\r\nSample by Sample Tests",0
001708  0d0a5361
00170c  6d706c65
001710  20627920
001714  53616d70
001718  6c652054
00171c  65737473
001720  00      
001721  00                DCB      0
001722  00                DCB      0
001723  00                DCB      0
                  |L1.5924|
                          DCD      ||.conststring||
                  |L1.5928|
001728  0d0a4974          DCB      "\r\nIteration,0,1,2,3,4,5,6,7,8,9,10,11,12,13,14,15\r\n"
00172c  65726174
001730  696f6e2c
001734  302c312c
001738  322c332c
00173c  342c352c
001740  362c372c
001744  382c392c
001748  31302c31
00174c  312c3132
001750  2c31332c
001754  31342c31
001758  350d0a  
00175b  00                DCB      0
                  |L1.5980|
00175c  5049442d          DCB      "PID-q15,",0
001760  7131352c
001764  00      
001765  00                DCB      0
001766  00                DCB      0
001767  00                DCB      0
                  |L1.5992|
                          DCD      ||.bss||+0x120e0

                          AREA ||.bss||, DATA, NOINIT, ALIGN=2

                  InputData
                          %        32768
                  OutputData
                          %        32768
                  IIR_Inst
                          %        16
                  FIR_Inst
                          %        12
                  FIR_State
                          %        8324
                  FIR_Coef_q15
                          %        64
                  PID_Inst
                          %        36
                  FFT_Inst
                          %        24

                          AREA ||area_number.4||, DATA, NOINIT, ALIGN=3

                          EXPORTAS ||area_number.4||, ||.bss||
                  E_IIR
                          %        80

                          AREA ||area_number.5||, DATA, NOINIT, ALIGN=2

                          EXPORTAS ||area_number.5||, ||.bss||
                  E_IIRf
                          %        60

                          AREA ||area_number.6||, DATA, NOINIT, ALIGN=2

                          EXPORTAS ||area_number.6||, ||.bss||
                  G
                          %        16

                          AREA ||.conststring||, DATA, READONLY, MERGE=1, STRINGS, ALIGN=2

000000  0d0a2d2d          DCB      "\r\n---------------------------------------------------"
000004  2d2d2d2d
000008  2d2d2d2d
00000c  2d2d2d2d
000010  2d2d2d2d
000014  2d2d2d2d
000018  2d2d2d2d
00001c  2d2d2d2d
000020  2d2d2d2d
000024  2d2d2d2d
000028  2d2d2d2d
00002c  2d2d2d2d
000030  2d2d2d2d
000034  2d      
000035  2d2d2d2d          DCB      "------------\r\n",0
000039  2d2d2d2d
00003d  2d2d2d2d
000041  0d0a00  

                          AREA ||.data||, DATA, ALIGN=1

                  IIR_State_q15
000000  00000000          DCW      0x0000,0x0000
000004  00000000          DCW      0x0000,0x0000
                  IIR_Coef_q15
000008  0ccc1999          DCW      0x0ccc,0x1999
00000c  2666ccce          DCW      0x2666,0xccce
000010  ccce              DCW      0xccce

;*** Start embedded assembler ***

#line 1 "..\\..\\..\\..\\..\\..\\COMMON\\SRC\\TEST\\CM_TEST.c"
	AREA ||.rev16_text||, CODE
	THUMB
	EXPORT |__asm___9_CM_TEST_c_a9048fb2____REV16|
#line 129 "..\\..\\..\\chip_5411x\\inc\\core_cmInstr.h"
|__asm___9_CM_TEST_c_a9048fb2____REV16| PROC
#line 130

 rev16 r0, r0
 bx lr
	ENDP
	AREA ||.revsh_text||, CODE
	THUMB
	EXPORT |__asm___9_CM_TEST_c_a9048fb2____REVSH|
#line 144
|__asm___9_CM_TEST_c_a9048fb2____REVSH| PROC
#line 145

 revsh r0, r0
 bx lr
	ENDP

;*** End   embedded assembler ***

                  __ARM_use_no_argv EQU 0
