
C:\Users\Eli\Documents\LPCXpresso_7.7.2_379\workspace_ESC_M4\CM4_INSTRUCTIONS\O0\CM4_INSTRUCTIONS.axf:     file format elf32-littlearm
C:\Users\Eli\Documents\LPCXpresso_7.7.2_379\workspace_ESC_M4\CM4_INSTRUCTIONS\O0\CM4_INSTRUCTIONS.axf
architecture: arm, flags 0x00000112:
EXEC_P, HAS_SYMS, D_PAGED
start address 0x1a000381

Program Header:
    LOAD off    0x00000000 vaddr 0x10000000 paddr 0x10000000 align 2**15
         filesz 0x00000094 memsz 0x00000234 flags rw-
    LOAD off    0x00008000 vaddr 0x1a000000 paddr 0x1a000000 align 2**15
         filesz 0x00002c50 memsz 0x00002c50 flags r-x
    LOAD off    0x00010000 vaddr 0x10000000 paddr 0x1a002c50 align 2**15
         filesz 0x000000e4 memsz 0x000000e4 flags rw-
private flags = 5000202: [Version5 EABI] [soft-float ABI] [has entry point]

Sections:
Idx Name          Size      VMA       LMA       File off  Algn
  0 .text         00002c50  1a000000  1a000000  00008000  2**3
                  CONTENTS, ALLOC, LOAD, READONLY, CODE
  1 .data         000000e4  10000000  1a002c50  00010000  2**2
                  CONTENTS, ALLOC, LOAD, DATA
  2 .bss          00000150  100000e4  100000e4  000000e4  2**2
                  ALLOC
  3 .debug_info   000003cd  00000000  00000000  000100e4  2**0
                  CONTENTS, READONLY, DEBUGGING
  4 .debug_abbrev 00000193  00000000  00000000  000104b1  2**0
                  CONTENTS, READONLY, DEBUGGING
  5 .debug_aranges 000000b8  00000000  00000000  00010644  2**0
                  CONTENTS, READONLY, DEBUGGING
  6 .debug_ranges 00000080  00000000  00000000  000106fc  2**0
                  CONTENTS, READONLY, DEBUGGING
  7 .debug_macro  00001433  00000000  00000000  0001077c  2**0
                  CONTENTS, READONLY, DEBUGGING
  8 .debug_line   000003ab  00000000  00000000  00011baf  2**0
                  CONTENTS, READONLY, DEBUGGING
  9 .debug_str    000055f8  00000000  00000000  00011f5a  2**0
                  CONTENTS, READONLY, DEBUGGING
 10 .comment      00000070  00000000  00000000  00017552  2**0
                  CONTENTS, READONLY
 11 .ARM.attributes 00000035  00000000  00000000  000175c2  2**0
                  CONTENTS, READONLY
 12 .debug_frame  000001a4  00000000  00000000  000175f8  2**2
                  CONTENTS, READONLY, DEBUGGING
SYMBOL TABLE:
1a000000 l    d  .text	00000000 .text
10000000 l    d  .data	00000000 .data
100000e4 l    d  .bss	00000000 .bss
00000000 l    d  .debug_info	00000000 .debug_info
00000000 l    d  .debug_abbrev	00000000 .debug_abbrev
00000000 l    d  .debug_aranges	00000000 .debug_aranges
00000000 l    d  .debug_ranges	00000000 .debug_ranges
00000000 l    d  .debug_macro	00000000 .debug_macro
00000000 l    d  .debug_line	00000000 .debug_line
00000000 l    d  .debug_str	00000000 .debug_str
00000000 l    d  .comment	00000000 .comment
00000000 l    d  .ARM.attributes	00000000 .ARM.attributes
00000000 l    d  .debug_frame	00000000 .debug_frame
00000000 l    df *ABS*	00000000 cr_startup_lpc43xx.c
00000000 l    df *ABS*	00000000 crp.c
00000000 l    df *ABS*	00000000 CM4_INSTRUCTIONS.c
00000000 l    df *ABS*	00000000 _cr__main.c
00000000 l    df *ABS*	00000000 fpprintf.c
1a000474 l     F .text	0000004c fp_round
1a0004c0 l     F .text	00000026 pr_dec.constprop.1
1a000558 l     F .text	00000900 fp_display
00000000 l    df *ABS*	00000000 initio.c
00000000 l    df *ABS*	00000000 printf.c
00000000 l    df *ABS*	00000000 setvbuf.c
00000000 l    df *ABS*	00000000 stdlib.c
10000000 l     O .data	000000dc _random_number_seed
100000dc l     O .data	00000004 _random_j
100000e0 l     O .data	00000004 _random_k
00000000 l    df *ABS*	00000000 strlen.c
00000000 l    df *ABS*	00000000 memset.c
00000000 l    df *ABS*	00000000 _deferredlazyseek.c
00000000 l    df *ABS*	00000000 _fdopen.c
00000000 l    df *ABS*	00000000 _fflush.c
00000000 l    df *ABS*	00000000 _frexpl.c
00000000 l    df *ABS*	00000000 _ldexpl.c
00000000 l    df *ABS*	00000000 _writebuf.c
00000000 l    df *ABS*	00000000 alloc.c
00000000 l    df *ABS*	00000000 fclose.c
00000000 l    df *ABS*	00000000 fflush.c
00000000 l    df *ABS*	00000000 fseek.c
00000000 l    df *ABS*	00000000 ftell.c
00000000 l    df *ABS*	00000000 remove.c
00000000 l    df *ABS*	00000000 _cr_sbrk.c
00000000 l    df *ABS*	00000000 _do_fflush.c
00000000 l    df *ABS*	00000000 _cr_check_heap.c
00000000 l    df *ABS*	00000000 double.c
00000000 l    df *ABS*	00000000 memcpy.o
1a002b4e l       .text	00000000 memset1a
1a002b3c l       .text	00000000 __bhs_memset4
1a002b3e l       .text	00000000 memset4
1a002b4a l       .text	00000000 memset1
00000000 l    df *ABS*	00000000 __sys_appexit.o
00000000 l    df *ABS*	00000000 __sys_close.o
00000000 l    df *ABS*	00000000 __sys_flen.o
00000000 l    df *ABS*	00000000 __sys_istty.o
00000000 l    df *ABS*	00000000 __sys_remove.o
00000000 l    df *ABS*	00000000 __sys_seek.o
00000000 l    df *ABS*	00000000 __sys_tmpnam.o
00000000 l    df *ABS*	00000000 __sys_write.o
00000000 l    df *ABS*	00000000 _hugeval.c
00000000 l    df *ABS*	00000000 
1a080000 l       *ABS*	00000000 __top_MFlashA512
1a002c50 l       .text	00000000 __exidx_end
1a002c50 l       .text	00000000 _etext
20008000 l       *ABS*	00000000 __top_RamAHB32
1a002c50 l       .text	00000000 __exidx_start
20010000 l       *ABS*	00000000 __top_RamAHB_ETB16
10008000 l       *ABS*	00000000 __top_RamLoc32
2000c000 l       *ABS*	00000000 __top_RamAHB16
1008a000 l       *ABS*	00000000 __top_RamLoc40
1b080000 l       *ABS*	00000000 __top_MFlashB512
1a002a80 g     F .text	00000054 __aeabi_dcmple
1a000460 g     F .text	00000014 __main
1a00023c  w    F .text	00000006 TIMER2_IRQHandler
1a000224  w    F .text	00000006 DebugMon_Handler
1a00023c  w    F .text	00000006 RIT_IRQHandler
1a001d16 g     F .text	00000044 _deferredlazyseek
1a000114 g       .text	00000000 __section_table_start
1a002b5c g     F .text	00000000 __exit
1a00023c  w    F .text	00000006 FLASH_EEPROM_IRQHandler
1a00023c  w    F .text	00000006 I2C0_IRQHandler
1a002ba4 g     F .text	00000000 __sys_tmpnam
1a000eb4 g     F .text	00000054 printf
1a0001fc  w    F .text	00000006 HardFault_Handler
1a000000 g       *ABS*	00000000 __vectors_start__
1a000234  w    F .text	00000006 SysTick_Handler
1a00023c  w    F .text	00000006 SDIO_IRQHandler
1a00023c  w    F .text	00000006 ATIMER_IRQHandler
1a00022c  w    F .text	00000006 PendSV_Handler
1a0001f4  w    F .text	00000006 NMI_Handler
1a000150 g       .text	00000000 __data_section_table_end
1a00023c  w    F .text	00000006 I2C1_IRQHandler
1a00023c  w    F .text	00000006 UART1_IRQHandler
1a00023c  w    F .text	00000006 GPIO5_IRQHandler
1a001d5a g     F .text	00000142 __flsbuf
1a002bb0 g     F .text	00000000 __write
1a00023c  w    F .text	00000006 CAN1_IRQHandler
100000e4 g     O .bss	00000004 errno
1a001fb8 g     F .text	0000004c _ldexpl
1a00023c  w    F .text	00000006 USB1_IRQHandler
100000e8 g     O .bss	00000004 _extra
1a00023c  w    F .text	00000006 I2S0_IRQHandler
1a000460  w    F .text	00000014 __CR_SEMIHOST
1a001f5e g     F .text	0000005a _frexpl
1a00023c  w    F .text	00000006 TIMER3_IRQHandler
1a00023c  w    F .text	00000006 UART0_IRQHandler
1a0001bc g     F .text	00000036 bss_init
1a00023c  w    F .text	00000006 SGPIO_IRQHandler
1a001c4c g     F .text	00000040 setvbuf
10000234 g       .debug_info	00000000 _noinit
1a00023c  w    F .text	00000006 ADC0_IRQHandler
1a002074 g     F .text	000000cc malloc
1a002388 g     F .text	00000014 remove
1a000214  w    F .text	00000006 UsageFault_Handler
1a000e58 g     F .text	0000005c vsnprintf
1a00023c  w    F .text	00000006 GPIO6_IRQHandler
1a002b74 g     F .text	00000000 __sys_flen
1a00023c  w    F .text	00000006 IntDefaultHandler
1a000300 g       .text	00000000 __CRP_WORD_END__
00000000  w      *UND*	00000000 _pvHeapLimit
1a002a2e g     F .text	00000052 __aeabi_dcmplt
1a00023c  w    F .text	00000006 GPIO1_IRQHandler
1a0021fc g     F .text	00000030 fflush
1a002548 g     F .text	00000140 __aeabi_ddiv
1a00023c  w    F .text	00000006 SSP0_IRQHandler
1a002438 g     F .text	00000110 __aeabi_dmul
1a0002fc g     O .text	00000004 CRP_WORD
1a001e9c g     F .text	0000006a _fdopen
1a002b28 g     F .text	00000032 __aeabi_lowlevel_memset
1a00023c  w    F .text	00000006 ADC1_IRQHandler
1a00239c g     F .text	00000040 _sbrk
1a000114 g       .text	00000000 __data_section_table
1a00023c  w    F .text	00000006 RTC_IRQHandler
10000234 g       .bss	00000000 _ebss
1a00023c  w    F .text	00000006 TIMER0_IRQHandler
1a000fac g     F .text	00000c9e __vfprintf
1a00023c  w    F .text	00000006 SPI_IRQHandler
1a00023c  w    F .text	00000006 LCD_IRQHandler
1a00023c  w    F .text	00000006 VADC_IRQHandler
1a002840 g     F .text	00000128 __aeabi_dadd
1a000178 g     F .text	00000042 data_init
1a00023c  w    F .text	00000006 TIMER1_IRQHandler
1a00023c  w    F .text	00000006 UART2_IRQHandler
1a00222c g     F .text	00000110 fseek
1a00023c  w    F .text	00000006 GPIO2_IRQHandler
1a001f06 g     F .text	00000058 _fflush
1a0029a8 g     F .text	00000046 __bhs_ui2d
1a002ad4 g     F .text	00000054 __aeabi_dcmpge
100000e4 g       .bss	00000000 _bss
1a002688 g     F .text	000001b8 __aeabi_dsub
1a001c8c g     F .text	0000003c rand
1a00023c  w    F .text	00000006 I2S1_IRQHandler
10000234 g       .debug_info	00000000 _end_noinit
10008000 g       *ABS*	00000000 _vStackTop
1a00023c  w    F .text	00000006 SSP1_IRQHandler
1a000178 g       .text	00000000 __bss_section_table_end
1a002420 g     F .text	00000018 __check_heap_overflow
1a0029ee g     F .text	00000010 __aeabi_i2d
1a00023c  w    F .text	00000006 USB0_IRQHandler
1a00023c  w    F .text	00000006 GPIO3_IRQHandler
1a00023c  w    F .text	00000006 SCT_IRQHandler
1a0002fc g       .text	00000000 __CRP_WORD_START__
1a002bb0 g     F .text	00000000 __sys_write
1a001d12 g     F .text	00000004 memset
1a000204  w    F .text	00000006 MemManage_Handler
1a000300 g     F .text	0000007c main
1a0023dc g     F .text	00000044 _do_fflush
1a00233c g     F .text	0000004c ftell
1a00023c  w    F .text	00000006 WDT_IRQHandler
1a00021c  w    F .text	00000006 SVC_Handler
1a002190 g     F .text	0000006c fclose
1a00023c  w    F .text	00000006 GPIO7_IRQHandler
1a002b98 g     F .text	00000000 __sys_seek
1a00023c  w    F .text	00000006 SPIFI_IRQHandler
1a00023c  w    F .text	00000006 QEI_IRQHandler
1a000150 g       .text	00000000 __bss_section_table
1a002c48 g     O .text	00000008 __huge_vall
1a002b68 g     F .text	00000000 __sys_close
1a0004e8 g     F .text	0000006c sprintf
1a00023c  w    F .text	00000006 ETH_IRQHandler
1a00023c  w    F .text	00000006 M0CORE_IRQHandler
10000000 g       .debug_info	00000000 _end_uninit_RESERVED
1a002004 g     F .text	00000070 _Cwritebuf
1a00023c  w    F .text	00000006 CAN0_IRQHandler
10000000 g       .data	00000000 _data
10000234 g       .bss	00000000 _pvHeapStart
1a000178 g       .text	00000000 __section_table_end
1a00023c  w    F .text	00000006 GINT0_IRQHandler
1a00023c  w    F .text	00000006 DAC_IRQHandler
1a002b8c g     F .text	00000000 __sys_remove
1a0029fe g     F .text	00000030 __aeabi_dcmpeq
100000e4 g       .data	00000000 _edata
1a00023c  w    F .text	00000006 M0SUB_IRQHandler
1000022c g     O .bss	00000004 __heaps
1a002b5c g     F .text	00000000 __sys_appexit
1a00023c  w    F .text	00000006 GPIO0_IRQHandler
1a000000 g     O .text	00000114 g_pfnVectors
1a000380 g     F .text	000000dc ResetISR
1a002968 g     F .text	00000040 __aeabi_d2iz
10000230 g     O .bss	00000004 __end_of_heap
1a00023c  w    F .text	00000006 DMA_IRQHandler
1a00023c  w    F .text	00000006 EVRT_IRQHandler
1a002170 g     F .text	00000020 _Csys_alloc
1a00020c  w    F .text	00000006 BusFault_Handler
1a001cc8 g     F .text	0000004a strlen
1a00023c  w    F .text	00000006 UART3_IRQHandler
1a00023c  w    F .text	00000006 MCPWM_IRQHandler
1a000f08 g     F .text	000000a4 _initio
1a00023c  w    F .text	00000006 GINT1_IRQHandler
100000ec g     O .bss	00000140 __Ciob
1a002b80 g     F .text	00000000 __sys_istty
1a00023c  w    F .text	00000006 GPIO4_IRQHandler
1a002140 g     F .text	00000030 free



Disassembly of section .text:

1a000000 <g_pfnVectors>:
1a000000:	00 80 00 10 81 03 00 1a f5 01 00 1a fd 01 00 1a     ................
1a000010:	05 02 00 1a 0d 02 00 1a 15 02 00 1a 00 00 00 00     ................
	...
1a00002c:	1d 02 00 1a 25 02 00 1a 00 00 00 00 2d 02 00 1a     ....%.......-...
1a00003c:	35 02 00 1a 3d 02 00 1a 3d 02 00 1a 3d 02 00 1a     5...=...=...=...
1a00004c:	00 00 00 00 3d 02 00 1a 3d 02 00 1a 3d 02 00 1a     ....=...=...=...
1a00005c:	3d 02 00 1a 3d 02 00 1a 3d 02 00 1a 3d 02 00 1a     =...=...=...=...
1a00006c:	3d 02 00 1a 3d 02 00 1a 3d 02 00 1a 3d 02 00 1a     =...=...=...=...
1a00007c:	3d 02 00 1a 3d 02 00 1a 3d 02 00 1a 3d 02 00 1a     =...=...=...=...
1a00008c:	3d 02 00 1a 3d 02 00 1a 3d 02 00 1a 3d 02 00 1a     =...=...=...=...
1a00009c:	3d 02 00 1a 3d 02 00 1a 3d 02 00 1a 3d 02 00 1a     =...=...=...=...
1a0000ac:	3d 02 00 1a 3d 02 00 1a 3d 02 00 1a 3d 02 00 1a     =...=...=...=...
1a0000bc:	3d 02 00 1a 3d 02 00 1a 3d 02 00 1a 3d 02 00 1a     =...=...=...=...
1a0000cc:	3d 02 00 1a 3d 02 00 1a 3d 02 00 1a 3d 02 00 1a     =...=...=...=...
1a0000dc:	3d 02 00 1a 3d 02 00 1a 3d 02 00 1a 3d 02 00 1a     =...=...=...=...
1a0000ec:	3d 02 00 1a 00 00 00 00 3d 02 00 1a 3d 02 00 1a     =.......=...=...
1a0000fc:	3d 02 00 1a 00 00 00 00 3d 02 00 1a 3d 02 00 1a     =.......=...=...
1a00010c:	3d 02 00 1a 3d 02 00 1a                             =...=...

1a000114 <__data_section_table>:
1a000114:	1a002c50 	.word	0x1a002c50
1a000118:	10000000 	.word	0x10000000
1a00011c:	000000e4 	.word	0x000000e4
1a000120:	1a002c50 	.word	0x1a002c50
1a000124:	10080000 	.word	0x10080000
1a000128:	00000000 	.word	0x00000000
1a00012c:	1a002c50 	.word	0x1a002c50
1a000130:	20000000 	.word	0x20000000
1a000134:	00000000 	.word	0x00000000
1a000138:	1a002c50 	.word	0x1a002c50
1a00013c:	20008000 	.word	0x20008000
1a000140:	00000000 	.word	0x00000000
1a000144:	1a002c50 	.word	0x1a002c50
1a000148:	2000c000 	.word	0x2000c000
1a00014c:	00000000 	.word	0x00000000

1a000150 <__bss_section_table>:
1a000150:	100000e4 	.word	0x100000e4
1a000154:	00000150 	.word	0x00000150
1a000158:	10080000 	.word	0x10080000
1a00015c:	00000000 	.word	0x00000000
1a000160:	20000000 	.word	0x20000000
1a000164:	00000000 	.word	0x00000000
1a000168:	20008000 	.word	0x20008000
1a00016c:	00000000 	.word	0x00000000
1a000170:	2000c000 	.word	0x2000c000
1a000174:	00000000 	.word	0x00000000

1a000178 <data_init>:
1a000178:	b480      	push	{r7}
1a00017a:	b089      	sub	sp, #36	; 0x24
1a00017c:	af00      	add	r7, sp, #0
1a00017e:	60f8      	str	r0, [r7, #12]
1a000180:	60b9      	str	r1, [r7, #8]
1a000182:	607a      	str	r2, [r7, #4]
1a000184:	68bb      	ldr	r3, [r7, #8]
1a000186:	61fb      	str	r3, [r7, #28]
1a000188:	68fb      	ldr	r3, [r7, #12]
1a00018a:	61bb      	str	r3, [r7, #24]
1a00018c:	2300      	movs	r3, #0
1a00018e:	617b      	str	r3, [r7, #20]
1a000190:	e00a      	b.n	1a0001a8 <data_init+0x30>
1a000192:	69fb      	ldr	r3, [r7, #28]
1a000194:	1d1a      	adds	r2, r3, #4
1a000196:	61fa      	str	r2, [r7, #28]
1a000198:	69ba      	ldr	r2, [r7, #24]
1a00019a:	1d11      	adds	r1, r2, #4
1a00019c:	61b9      	str	r1, [r7, #24]
1a00019e:	6812      	ldr	r2, [r2, #0]
1a0001a0:	601a      	str	r2, [r3, #0]
1a0001a2:	697b      	ldr	r3, [r7, #20]
1a0001a4:	3304      	adds	r3, #4
1a0001a6:	617b      	str	r3, [r7, #20]
1a0001a8:	697a      	ldr	r2, [r7, #20]
1a0001aa:	687b      	ldr	r3, [r7, #4]
1a0001ac:	429a      	cmp	r2, r3
1a0001ae:	d3f0      	bcc.n	1a000192 <data_init+0x1a>
1a0001b0:	3724      	adds	r7, #36	; 0x24
1a0001b2:	46bd      	mov	sp, r7
1a0001b4:	f85d 7b04 	ldr.w	r7, [sp], #4
1a0001b8:	4770      	bx	lr
1a0001ba:	bf00      	nop

1a0001bc <bss_init>:
1a0001bc:	b480      	push	{r7}
1a0001be:	b085      	sub	sp, #20
1a0001c0:	af00      	add	r7, sp, #0
1a0001c2:	6078      	str	r0, [r7, #4]
1a0001c4:	6039      	str	r1, [r7, #0]
1a0001c6:	687b      	ldr	r3, [r7, #4]
1a0001c8:	60fb      	str	r3, [r7, #12]
1a0001ca:	2300      	movs	r3, #0
1a0001cc:	60bb      	str	r3, [r7, #8]
1a0001ce:	e007      	b.n	1a0001e0 <bss_init+0x24>
1a0001d0:	68fb      	ldr	r3, [r7, #12]
1a0001d2:	1d1a      	adds	r2, r3, #4
1a0001d4:	60fa      	str	r2, [r7, #12]
1a0001d6:	2200      	movs	r2, #0
1a0001d8:	601a      	str	r2, [r3, #0]
1a0001da:	68bb      	ldr	r3, [r7, #8]
1a0001dc:	3304      	adds	r3, #4
1a0001de:	60bb      	str	r3, [r7, #8]
1a0001e0:	68ba      	ldr	r2, [r7, #8]
1a0001e2:	683b      	ldr	r3, [r7, #0]
1a0001e4:	429a      	cmp	r2, r3
1a0001e6:	d3f3      	bcc.n	1a0001d0 <bss_init+0x14>
1a0001e8:	3714      	adds	r7, #20
1a0001ea:	46bd      	mov	sp, r7
1a0001ec:	f85d 7b04 	ldr.w	r7, [sp], #4
1a0001f0:	4770      	bx	lr
1a0001f2:	bf00      	nop

1a0001f4 <NMI_Handler>:
1a0001f4:	b480      	push	{r7}
1a0001f6:	af00      	add	r7, sp, #0
1a0001f8:	e7fe      	b.n	1a0001f8 <NMI_Handler+0x4>
1a0001fa:	bf00      	nop

1a0001fc <HardFault_Handler>:
1a0001fc:	b480      	push	{r7}
1a0001fe:	af00      	add	r7, sp, #0
1a000200:	e7fe      	b.n	1a000200 <HardFault_Handler+0x4>
1a000202:	bf00      	nop

1a000204 <MemManage_Handler>:
1a000204:	b480      	push	{r7}
1a000206:	af00      	add	r7, sp, #0
1a000208:	e7fe      	b.n	1a000208 <MemManage_Handler+0x4>
1a00020a:	bf00      	nop

1a00020c <BusFault_Handler>:
1a00020c:	b480      	push	{r7}
1a00020e:	af00      	add	r7, sp, #0
1a000210:	e7fe      	b.n	1a000210 <BusFault_Handler+0x4>
1a000212:	bf00      	nop

1a000214 <UsageFault_Handler>:
1a000214:	b480      	push	{r7}
1a000216:	af00      	add	r7, sp, #0
1a000218:	e7fe      	b.n	1a000218 <UsageFault_Handler+0x4>
1a00021a:	bf00      	nop

1a00021c <SVC_Handler>:
1a00021c:	b480      	push	{r7}
1a00021e:	af00      	add	r7, sp, #0
1a000220:	e7fe      	b.n	1a000220 <SVC_Handler+0x4>
1a000222:	bf00      	nop

1a000224 <DebugMon_Handler>:
1a000224:	b480      	push	{r7}
1a000226:	af00      	add	r7, sp, #0
1a000228:	e7fe      	b.n	1a000228 <DebugMon_Handler+0x4>
1a00022a:	bf00      	nop

1a00022c <PendSV_Handler>:
1a00022c:	b480      	push	{r7}
1a00022e:	af00      	add	r7, sp, #0
1a000230:	e7fe      	b.n	1a000230 <PendSV_Handler+0x4>
1a000232:	bf00      	nop

1a000234 <SysTick_Handler>:
1a000234:	b480      	push	{r7}
1a000236:	af00      	add	r7, sp, #0
1a000238:	e7fe      	b.n	1a000238 <SysTick_Handler+0x4>
1a00023a:	bf00      	nop

1a00023c <ADC0_IRQHandler>:
1a00023c:	b480      	push	{r7}
1a00023e:	af00      	add	r7, sp, #0
1a000240:	e7fe      	b.n	1a000240 <ADC0_IRQHandler+0x4>
1a000242:	bf00      	nop
1a000244:	ffff ffff 			; <UNDEFINED> instruction: 0xffffffff
1a000248:	ffff ffff 			; <UNDEFINED> instruction: 0xffffffff
1a00024c:	ffff ffff 			; <UNDEFINED> instruction: 0xffffffff
1a000250:	ffff ffff 			; <UNDEFINED> instruction: 0xffffffff
1a000254:	ffff ffff 			; <UNDEFINED> instruction: 0xffffffff
1a000258:	ffff ffff 			; <UNDEFINED> instruction: 0xffffffff
1a00025c:	ffff ffff 			; <UNDEFINED> instruction: 0xffffffff
1a000260:	ffff ffff 			; <UNDEFINED> instruction: 0xffffffff
1a000264:	ffff ffff 			; <UNDEFINED> instruction: 0xffffffff
1a000268:	ffff ffff 			; <UNDEFINED> instruction: 0xffffffff
1a00026c:	ffff ffff 			; <UNDEFINED> instruction: 0xffffffff
1a000270:	ffff ffff 			; <UNDEFINED> instruction: 0xffffffff
1a000274:	ffff ffff 			; <UNDEFINED> instruction: 0xffffffff
1a000278:	ffff ffff 			; <UNDEFINED> instruction: 0xffffffff
1a00027c:	ffff ffff 			; <UNDEFINED> instruction: 0xffffffff
1a000280:	ffff ffff 			; <UNDEFINED> instruction: 0xffffffff
1a000284:	ffff ffff 			; <UNDEFINED> instruction: 0xffffffff
1a000288:	ffff ffff 			; <UNDEFINED> instruction: 0xffffffff
1a00028c:	ffff ffff 			; <UNDEFINED> instruction: 0xffffffff
1a000290:	ffff ffff 			; <UNDEFINED> instruction: 0xffffffff
1a000294:	ffff ffff 			; <UNDEFINED> instruction: 0xffffffff
1a000298:	ffff ffff 			; <UNDEFINED> instruction: 0xffffffff
1a00029c:	ffff ffff 			; <UNDEFINED> instruction: 0xffffffff
1a0002a0:	ffff ffff 			; <UNDEFINED> instruction: 0xffffffff
1a0002a4:	ffff ffff 			; <UNDEFINED> instruction: 0xffffffff
1a0002a8:	ffff ffff 			; <UNDEFINED> instruction: 0xffffffff
1a0002ac:	ffff ffff 			; <UNDEFINED> instruction: 0xffffffff
1a0002b0:	ffff ffff 			; <UNDEFINED> instruction: 0xffffffff
1a0002b4:	ffff ffff 			; <UNDEFINED> instruction: 0xffffffff
1a0002b8:	ffff ffff 			; <UNDEFINED> instruction: 0xffffffff
1a0002bc:	ffff ffff 			; <UNDEFINED> instruction: 0xffffffff
1a0002c0:	ffff ffff 			; <UNDEFINED> instruction: 0xffffffff
1a0002c4:	ffff ffff 			; <UNDEFINED> instruction: 0xffffffff
1a0002c8:	ffff ffff 			; <UNDEFINED> instruction: 0xffffffff
1a0002cc:	ffff ffff 			; <UNDEFINED> instruction: 0xffffffff
1a0002d0:	ffff ffff 			; <UNDEFINED> instruction: 0xffffffff
1a0002d4:	ffff ffff 			; <UNDEFINED> instruction: 0xffffffff
1a0002d8:	ffff ffff 			; <UNDEFINED> instruction: 0xffffffff
1a0002dc:	ffff ffff 			; <UNDEFINED> instruction: 0xffffffff
1a0002e0:	ffff ffff 			; <UNDEFINED> instruction: 0xffffffff
1a0002e4:	ffff ffff 			; <UNDEFINED> instruction: 0xffffffff
1a0002e8:	ffff ffff 			; <UNDEFINED> instruction: 0xffffffff
1a0002ec:	ffff ffff 			; <UNDEFINED> instruction: 0xffffffff
1a0002f0:	ffff ffff 			; <UNDEFINED> instruction: 0xffffffff
1a0002f4:	ffff ffff 			; <UNDEFINED> instruction: 0xffffffff
1a0002f8:	ffff ffff 			; <UNDEFINED> instruction: 0xffffffff

1a0002fc <CRP_WORD>:
1a0002fc:	ffff ffff                                   ....

1a000300 <main>:
1a000300:	b5b0      	push	{r4, r5, r7, lr}
1a000302:	b084      	sub	sp, #16
1a000304:	af00      	add	r7, sp, #0
1a000306:	2302      	movs	r3, #2
1a000308:	60fb      	str	r3, [r7, #12]
1a00030a:	2301      	movs	r3, #1
1a00030c:	60bb      	str	r3, [r7, #8]
1a00030e:	f04f 0200 	mov.w	r2, #0
1a000312:	f04f 0300 	mov.w	r3, #0
1a000316:	e9c7 2300 	strd	r2, r3, [r7]
1a00031a:	f001 fcb7 	bl	1a001c8c <rand>
1a00031e:	60f8      	str	r0, [r7, #12]
1a000320:	f001 fcb4 	bl	1a001c8c <rand>
1a000324:	60b8      	str	r0, [r7, #8]
1a000326:	a313      	add	r3, pc, #76	; (adr r3, 1a000374 <main+0x74>)
1a000328:	e9d3 2300 	ldrd	r2, r3, [r3]
1a00032c:	e9c7 2300 	strd	r2, r3, [r7]
1a000330:	68fb      	ldr	r3, [r7, #12]
1a000332:	4618      	mov	r0, r3
1a000334:	ea4f 71e0 	mov.w	r1, r0, asr #31
1a000338:	68bb      	ldr	r3, [r7, #8]
1a00033a:	461a      	mov	r2, r3
1a00033c:	ea4f 73e2 	mov.w	r3, r2, asr #31
1a000340:	fb02 f501 	mul.w	r5, r2, r1
1a000344:	fb00 f403 	mul.w	r4, r0, r3
1a000348:	442c      	add	r4, r5
1a00034a:	fba0 2302 	umull	r2, r3, r0, r2
1a00034e:	18e1      	adds	r1, r4, r3
1a000350:	460b      	mov	r3, r1
1a000352:	e9d7 0100 	ldrd	r0, r1, [r7]
1a000356:	1812      	adds	r2, r2, r0
1a000358:	eb43 0301 	adc.w	r3, r3, r1
1a00035c:	e9c7 2300 	strd	r2, r3, [r7]
1a000360:	4803      	ldr	r0, [pc, #12]	; (1a000370 <main+0x70>)
1a000362:	e9d7 2300 	ldrd	r2, r3, [r7]
1a000366:	f000 fda5 	bl	1a000eb4 <printf>
1a00036a:	e7fe      	b.n	1a00036a <main+0x6a>
1a00036c:	f3af 8000 	nop.w
1a000370:	1a002bbc 	.word	0x1a002bbc
1a000374:	00000000 	.word	0x00000000
1a000378:	deadbeef 	.word	0xdeadbeef
1a00037c:	f3af 8000 	nop.w

1a000380 <ResetISR>:
1a000380:	b580      	push	{r7, lr}
1a000382:	b088      	sub	sp, #32
1a000384:	af00      	add	r7, sp, #0
1a000386:	b672      	cpsid	i
1a000388:	4b2b      	ldr	r3, [pc, #172]	; (1a000438 <ResetISR+0xb8>)
1a00038a:	617b      	str	r3, [r7, #20]
1a00038c:	697b      	ldr	r3, [r7, #20]
1a00038e:	4a2b      	ldr	r2, [pc, #172]	; (1a00043c <ResetISR+0xbc>)
1a000390:	601a      	str	r2, [r3, #0]
1a000392:	697b      	ldr	r3, [r7, #20]
1a000394:	3304      	adds	r3, #4
1a000396:	4a2a      	ldr	r2, [pc, #168]	; (1a000440 <ResetISR+0xc0>)
1a000398:	601a      	str	r2, [r3, #0]
1a00039a:	4b2a      	ldr	r3, [pc, #168]	; (1a000444 <ResetISR+0xc4>)
1a00039c:	613b      	str	r3, [r7, #16]
1a00039e:	2300      	movs	r3, #0
1a0003a0:	61fb      	str	r3, [r7, #28]
1a0003a2:	e009      	b.n	1a0003b8 <ResetISR+0x38>
1a0003a4:	69fb      	ldr	r3, [r7, #28]
1a0003a6:	009b      	lsls	r3, r3, #2
1a0003a8:	693a      	ldr	r2, [r7, #16]
1a0003aa:	4413      	add	r3, r2
1a0003ac:	f04f 32ff 	mov.w	r2, #4294967295
1a0003b0:	601a      	str	r2, [r3, #0]
1a0003b2:	69fb      	ldr	r3, [r7, #28]
1a0003b4:	3301      	adds	r3, #1
1a0003b6:	61fb      	str	r3, [r7, #28]
1a0003b8:	69fb      	ldr	r3, [r7, #28]
1a0003ba:	2b07      	cmp	r3, #7
1a0003bc:	d9f2      	bls.n	1a0003a4 <ResetISR+0x24>
1a0003be:	b662      	cpsie	i
1a0003c0:	4b21      	ldr	r3, [pc, #132]	; (1a000448 <ResetISR+0xc8>)
1a0003c2:	61bb      	str	r3, [r7, #24]
1a0003c4:	e013      	b.n	1a0003ee <ResetISR+0x6e>
1a0003c6:	69bb      	ldr	r3, [r7, #24]
1a0003c8:	1d1a      	adds	r2, r3, #4
1a0003ca:	61ba      	str	r2, [r7, #24]
1a0003cc:	681b      	ldr	r3, [r3, #0]
1a0003ce:	60fb      	str	r3, [r7, #12]
1a0003d0:	69bb      	ldr	r3, [r7, #24]
1a0003d2:	1d1a      	adds	r2, r3, #4
1a0003d4:	61ba      	str	r2, [r7, #24]
1a0003d6:	681b      	ldr	r3, [r3, #0]
1a0003d8:	60bb      	str	r3, [r7, #8]
1a0003da:	69bb      	ldr	r3, [r7, #24]
1a0003dc:	1d1a      	adds	r2, r3, #4
1a0003de:	61ba      	str	r2, [r7, #24]
1a0003e0:	681b      	ldr	r3, [r3, #0]
1a0003e2:	607b      	str	r3, [r7, #4]
1a0003e4:	68f8      	ldr	r0, [r7, #12]
1a0003e6:	68b9      	ldr	r1, [r7, #8]
1a0003e8:	687a      	ldr	r2, [r7, #4]
1a0003ea:	f7ff fec5 	bl	1a000178 <data_init>
1a0003ee:	69bb      	ldr	r3, [r7, #24]
1a0003f0:	4a16      	ldr	r2, [pc, #88]	; (1a00044c <ResetISR+0xcc>)
1a0003f2:	4293      	cmp	r3, r2
1a0003f4:	d3e7      	bcc.n	1a0003c6 <ResetISR+0x46>
1a0003f6:	e00d      	b.n	1a000414 <ResetISR+0x94>
1a0003f8:	69bb      	ldr	r3, [r7, #24]
1a0003fa:	1d1a      	adds	r2, r3, #4
1a0003fc:	61ba      	str	r2, [r7, #24]
1a0003fe:	681b      	ldr	r3, [r3, #0]
1a000400:	60bb      	str	r3, [r7, #8]
1a000402:	69bb      	ldr	r3, [r7, #24]
1a000404:	1d1a      	adds	r2, r3, #4
1a000406:	61ba      	str	r2, [r7, #24]
1a000408:	681b      	ldr	r3, [r3, #0]
1a00040a:	607b      	str	r3, [r7, #4]
1a00040c:	68b8      	ldr	r0, [r7, #8]
1a00040e:	6879      	ldr	r1, [r7, #4]
1a000410:	f7ff fed4 	bl	1a0001bc <bss_init>
1a000414:	69bb      	ldr	r3, [r7, #24]
1a000416:	4a0e      	ldr	r2, [pc, #56]	; (1a000450 <ResetISR+0xd0>)
1a000418:	4293      	cmp	r3, r2
1a00041a:	d3ed      	bcc.n	1a0003f8 <ResetISR+0x78>
1a00041c:	f8df 003c 	ldr.w	r0, [pc, #60]	; 1a00045c <ResetISR+0xdc>
1a000420:	6801      	ldr	r1, [r0, #0]
1a000422:	f441 0170 	orr.w	r1, r1, #15728640	; 0xf00000
1a000426:	6001      	str	r1, [r0, #0]
1a000428:	4b0a      	ldr	r3, [pc, #40]	; (1a000454 <ResetISR+0xd4>)
1a00042a:	603b      	str	r3, [r7, #0]
1a00042c:	4a0a      	ldr	r2, [pc, #40]	; (1a000458 <ResetISR+0xd8>)
1a00042e:	683b      	ldr	r3, [r7, #0]
1a000430:	601a      	str	r2, [r3, #0]
1a000432:	f000 f815 	bl	1a000460 <__main>
1a000436:	e7fe      	b.n	1a000436 <ResetISR+0xb6>
1a000438:	40053100 	.word	0x40053100
1a00043c:	10df1000 	.word	0x10df1000
1a000440:	01dff7ff 	.word	0x01dff7ff
1a000444:	e000e280 	.word	0xe000e280
1a000448:	1a000114 	.word	0x1a000114
1a00044c:	1a000150 	.word	0x1a000150
1a000450:	1a000178 	.word	0x1a000178
1a000454:	e000ed08 	.word	0xe000ed08
1a000458:	1a000000 	.word	0x1a000000
1a00045c:	e000ed88 	.word	0xe000ed88

1a000460 <__main>:
1a000460:	b508      	push	{r3, lr}
1a000462:	2000      	movs	r0, #0
1a000464:	4601      	mov	r1, r0
1a000466:	4602      	mov	r2, r0
1a000468:	f000 fd4e 	bl	1a000f08 <_initio>
1a00046c:	e8bd 4008 	ldmia.w	sp!, {r3, lr}
1a000470:	f7ff bf46 	b.w	1a000300 <main>

1a000474 <fp_round>:
1a000474:	5c42      	ldrb	r2, [r0, r1]
1a000476:	2a34      	cmp	r2, #52	; 0x34
1a000478:	eb00 0301 	add.w	r3, r0, r1
1a00047c:	dc01      	bgt.n	1a000482 <fp_round+0xe>
1a00047e:	2000      	movs	r0, #0
1a000480:	4770      	bx	lr
1a000482:	2a35      	cmp	r2, #53	; 0x35
1a000484:	d106      	bne.n	1a000494 <fp_round+0x20>
1a000486:	4619      	mov	r1, r3
1a000488:	f811 2f01 	ldrb.w	r2, [r1, #1]!
1a00048c:	2a30      	cmp	r2, #48	; 0x30
1a00048e:	d0fb      	beq.n	1a000488 <fp_round+0x14>
1a000490:	2a00      	cmp	r2, #0
1a000492:	d0f4      	beq.n	1a00047e <fp_round+0xa>
1a000494:	461a      	mov	r2, r3
1a000496:	f812 1d01 	ldrb.w	r1, [r2, #-1]!
1a00049a:	2939      	cmp	r1, #57	; 0x39
1a00049c:	d102      	bne.n	1a0004a4 <fp_round+0x30>
1a00049e:	2130      	movs	r1, #48	; 0x30
1a0004a0:	7011      	strb	r1, [r2, #0]
1a0004a2:	e7f8      	b.n	1a000496 <fp_round+0x22>
1a0004a4:	3101      	adds	r1, #1
1a0004a6:	7011      	strb	r1, [r2, #0]
1a0004a8:	7802      	ldrb	r2, [r0, #0]
1a0004aa:	2a30      	cmp	r2, #48	; 0x30
1a0004ac:	d0e7      	beq.n	1a00047e <fp_round+0xa>
1a0004ae:	1a1a      	subs	r2, r3, r0
1a0004b0:	2a00      	cmp	r2, #0
1a0004b2:	db03      	blt.n	1a0004bc <fp_round+0x48>
1a0004b4:	f813 2901 	ldrb.w	r2, [r3], #-1
1a0004b8:	709a      	strb	r2, [r3, #2]
1a0004ba:	e7f8      	b.n	1a0004ae <fp_round+0x3a>
1a0004bc:	2001      	movs	r0, #1
1a0004be:	4770      	bx	lr

1a0004c0 <pr_dec.constprop.1>:
1a0004c0:	b510      	push	{r4, lr}
1a0004c2:	1f8c      	subs	r4, r1, #6
1a0004c4:	42a1      	cmp	r1, r4
1a0004c6:	d00d      	beq.n	1a0004e4 <pr_dec.constprop.1+0x24>
1a0004c8:	230a      	movs	r3, #10
1a0004ca:	fb90 f3f3 	sdiv	r3, r0, r3
1a0004ce:	ebc3 1243 	rsb	r2, r3, r3, lsl #5
1a0004d2:	3030      	adds	r0, #48	; 0x30
1a0004d4:	ebc3 0282 	rsb	r2, r3, r2, lsl #2
1a0004d8:	eb00 0042 	add.w	r0, r0, r2, lsl #1
1a0004dc:	f801 0901 	strb.w	r0, [r1], #-1
1a0004e0:	4618      	mov	r0, r3
1a0004e2:	e7ef      	b.n	1a0004c4 <pr_dec.constprop.1+0x4>
1a0004e4:	bd10      	pop	{r4, pc}
	...

1a0004e8 <sprintf>:
1a0004e8:	b40e      	push	{r1, r2, r3}
1a0004ea:	b530      	push	{r4, r5, lr}
1a0004ec:	b090      	sub	sp, #64	; 0x40
1a0004ee:	ab13      	add	r3, sp, #76	; 0x4c
1a0004f0:	4605      	mov	r5, r0
1a0004f2:	f853 4b04 	ldr.w	r4, [r3], #4
1a0004f6:	9305      	str	r3, [sp, #20]
1a0004f8:	2100      	movs	r1, #0
1a0004fa:	2228      	movs	r2, #40	; 0x28
1a0004fc:	a806      	add	r0, sp, #24
1a0004fe:	f001 fc08 	bl	1a001d12 <memset>
1a000502:	230a      	movs	r3, #10
1a000504:	9309      	str	r3, [sp, #36]	; 0x24
1a000506:	f06f 4300 	mvn.w	r3, #2147483648	; 0x80000000
1a00050a:	9308      	str	r3, [sp, #32]
1a00050c:	9b05      	ldr	r3, [sp, #20]
1a00050e:	9301      	str	r3, [sp, #4]
1a000510:	4b0f      	ldr	r3, [pc, #60]	; (1a000550 <sprintf+0x68>)
1a000512:	9400      	str	r4, [sp, #0]
1a000514:	9302      	str	r3, [sp, #8]
1a000516:	a806      	add	r0, sp, #24
1a000518:	f06f 4300 	mvn.w	r3, #2147483648	; 0x80000000
1a00051c:	f04f 32ff 	mov.w	r2, #4294967295
1a000520:	9506      	str	r5, [sp, #24]
1a000522:	f000 fd43 	bl	1a000fac <__vfprintf>
1a000526:	9b08      	ldr	r3, [sp, #32]
1a000528:	3b01      	subs	r3, #1
1a00052a:	2b00      	cmp	r3, #0
1a00052c:	4604      	mov	r4, r0
1a00052e:	9308      	str	r3, [sp, #32]
1a000530:	db03      	blt.n	1a00053a <sprintf+0x52>
1a000532:	9b06      	ldr	r3, [sp, #24]
1a000534:	2200      	movs	r2, #0
1a000536:	701a      	strb	r2, [r3, #0]
1a000538:	e003      	b.n	1a000542 <sprintf+0x5a>
1a00053a:	2000      	movs	r0, #0
1a00053c:	a906      	add	r1, sp, #24
1a00053e:	f001 fc0c 	bl	1a001d5a <__flsbuf>
1a000542:	4620      	mov	r0, r4
1a000544:	b010      	add	sp, #64	; 0x40
1a000546:	e8bd 4030 	ldmia.w	sp!, {r4, r5, lr}
1a00054a:	b003      	add	sp, #12
1a00054c:	4770      	bx	lr
1a00054e:	bf00      	nop
1a000550:	1a000559 	.word	0x1a000559
1a000554:	00000000 	.word	0x00000000

1a000558 <fp_display>:
1a000558:	e92d 4ff0 	stmdb	sp!, {r4, r5, r6, r7, r8, r9, sl, fp, lr}
1a00055c:	e9d1 6700 	ldrd	r6, r7, [r1]
1a000560:	b09f      	sub	sp, #124	; 0x7c
1a000562:	4614      	mov	r4, r2
1a000564:	9306      	str	r3, [sp, #24]
1a000566:	f3c7 430f 	ubfx	r3, r7, #16, #16
1a00056a:	f023 030f 	bic.w	r3, r3, #15
1a00056e:	045b      	lsls	r3, r3, #17
1a000570:	0c5b      	lsrs	r3, r3, #17
1a000572:	f647 72f0 	movw	r2, #32752	; 0x7ff0
1a000576:	4293      	cmp	r3, r2
1a000578:	9005      	str	r0, [sp, #20]
1a00057a:	f8dd b0a4 	ldr.w	fp, [sp, #164]	; 0xa4
1a00057e:	9608      	str	r6, [sp, #32]
1a000580:	9707      	str	r7, [sp, #28]
1a000582:	d127      	bne.n	1a0005d4 <fp_display+0x7c>
1a000584:	2300      	movs	r3, #0
1a000586:	70e3      	strb	r3, [r4, #3]
1a000588:	f3c7 0313 	ubfx	r3, r7, #0, #20
1a00058c:	4333      	orrs	r3, r6
1a00058e:	f04f 036e 	mov.w	r3, #110	; 0x6e
1a000592:	d115      	bne.n	1a0005c0 <fp_display+0x68>
1a000594:	2269      	movs	r2, #105	; 0x69
1a000596:	7063      	strb	r3, [r4, #1]
1a000598:	2f00      	cmp	r7, #0
1a00059a:	f04f 0366 	mov.w	r3, #102	; 0x66
1a00059e:	7022      	strb	r2, [r4, #0]
1a0005a0:	70a3      	strb	r3, [r4, #2]
1a0005a2:	da01      	bge.n	1a0005a8 <fp_display+0x50>
1a0005a4:	4b84      	ldr	r3, [pc, #528]	; (1a0007b8 <fp_display+0x260>)
1a0005a6:	e010      	b.n	1a0005ca <fp_display+0x72>
1a0005a8:	9b06      	ldr	r3, [sp, #24]
1a0005aa:	079a      	lsls	r2, r3, #30
1a0005ac:	d406      	bmi.n	1a0005bc <fp_display+0x64>
1a0005ae:	4a83      	ldr	r2, [pc, #524]	; (1a0007bc <fp_display+0x264>)
1a0005b0:	f013 0f04 	tst.w	r3, #4
1a0005b4:	4b82      	ldr	r3, [pc, #520]	; (1a0007c0 <fp_display+0x268>)
1a0005b6:	bf08      	it	eq
1a0005b8:	4613      	moveq	r3, r2
1a0005ba:	e006      	b.n	1a0005ca <fp_display+0x72>
1a0005bc:	4b81      	ldr	r3, [pc, #516]	; (1a0007c4 <fp_display+0x26c>)
1a0005be:	e004      	b.n	1a0005ca <fp_display+0x72>
1a0005c0:	7023      	strb	r3, [r4, #0]
1a0005c2:	2261      	movs	r2, #97	; 0x61
1a0005c4:	70a3      	strb	r3, [r4, #2]
1a0005c6:	4b7d      	ldr	r3, [pc, #500]	; (1a0007bc <fp_display+0x264>)
1a0005c8:	7062      	strb	r2, [r4, #1]
1a0005ca:	9a28      	ldr	r2, [sp, #160]	; 0xa0
1a0005cc:	2003      	movs	r0, #3
1a0005ce:	6013      	str	r3, [r2, #0]
1a0005d0:	f000 bc3f 	b.w	1a000e52 <fp_display+0x8fa>
1a0005d4:	9b05      	ldr	r3, [sp, #20]
1a0005d6:	f023 0320 	bic.w	r3, r3, #32
1a0005da:	2b41      	cmp	r3, #65	; 0x41
1a0005dc:	f000 8244 	beq.w	1a000a68 <fp_display+0x510>
1a0005e0:	4630      	mov	r0, r6
1a0005e2:	4639      	mov	r1, r7
1a0005e4:	2200      	movs	r2, #0
1a0005e6:	2300      	movs	r3, #0
1a0005e8:	f002 fa21 	bl	1a002a2e <__aeabi_dcmplt>
1a0005ec:	b138      	cbz	r0, 1a0005fe <fp_display+0xa6>
1a0005ee:	f107 4300 	add.w	r3, r7, #2147483648	; 0x80000000
1a0005f2:	9a08      	ldr	r2, [sp, #32]
1a0005f4:	461f      	mov	r7, r3
1a0005f6:	2301      	movs	r3, #1
1a0005f8:	4616      	mov	r6, r2
1a0005fa:	9309      	str	r3, [sp, #36]	; 0x24
1a0005fc:	e000      	b.n	1a000600 <fp_display+0xa8>
1a0005fe:	9009      	str	r0, [sp, #36]	; 0x24
1a000600:	4630      	mov	r0, r6
1a000602:	4639      	mov	r1, r7
1a000604:	2200      	movs	r2, #0
1a000606:	2300      	movs	r3, #0
1a000608:	f002 f9f9 	bl	1a0029fe <__aeabi_dcmpeq>
1a00060c:	2800      	cmp	r0, #0
1a00060e:	f040 820d 	bne.w	1a000a2c <fp_display+0x4d4>
1a000612:	aa11      	add	r2, sp, #68	; 0x44
1a000614:	4630      	mov	r0, r6
1a000616:	4639      	mov	r1, r7
1a000618:	f001 fca1 	bl	1a001f5e <_frexpl>
1a00061c:	9a11      	ldr	r2, [sp, #68]	; 0x44
1a00061e:	f240 152d 	movw	r5, #301	; 0x12d
1a000622:	4355      	muls	r5, r2
1a000624:	f5a5 53ab 	sub.w	r3, r5, #5472	; 0x1560
1a000628:	e9cd 0112 	strd	r0, r1, [sp, #72]	; 0x48
1a00062c:	3b1c      	subs	r3, #28
1a00062e:	f44f 757a 	mov.w	r5, #1000	; 0x3e8
1a000632:	2000      	movs	r0, #0
1a000634:	fb93 f5f5 	sdiv	r5, r3, r5
1a000638:	4963      	ldr	r1, [pc, #396]	; (1a0007c8 <fp_display+0x270>)
1a00063a:	1aaa      	subs	r2, r5, r2
1a00063c:	f001 fcbc 	bl	1a001fb8 <_ldexpl>
1a000640:	2d00      	cmp	r5, #0
1a000642:	e9cd 011c 	strd	r0, r1, [sp, #112]	; 0x70
1a000646:	da06      	bge.n	1a000656 <fp_display+0xfe>
1a000648:	a355      	add	r3, pc, #340	; (adr r3, 1a0007a0 <fp_display+0x248>)
1a00064a:	e9d3 2300 	ldrd	r2, r3, [r3]
1a00064e:	426e      	negs	r6, r5
1a000650:	e9cd 2318 	strd	r2, r3, [sp, #96]	; 0x60
1a000654:	e006      	b.n	1a000664 <fp_display+0x10c>
1a000656:	4b5d      	ldr	r3, [pc, #372]	; (1a0007cc <fp_display+0x274>)
1a000658:	f04f 0200 	mov.w	r2, #0
1a00065c:	e9cd 2318 	strd	r2, r3, [sp, #96]	; 0x60
1a000660:	d016      	beq.n	1a000690 <fp_display+0x138>
1a000662:	462e      	mov	r6, r5
1a000664:	07f3      	lsls	r3, r6, #31
1a000666:	d509      	bpl.n	1a00067c <fp_display+0x124>
1a000668:	e9dd 2318 	ldrd	r2, r3, [sp, #96]	; 0x60
1a00066c:	e9dd 011c 	ldrd	r0, r1, [sp, #112]	; 0x70
1a000670:	f001 fee2 	bl	1a002438 <__aeabi_dmul>
1a000674:	2e01      	cmp	r6, #1
1a000676:	e9cd 011c 	strd	r0, r1, [sp, #112]	; 0x70
1a00067a:	d009      	beq.n	1a000690 <fp_display+0x138>
1a00067c:	e9dd 2318 	ldrd	r2, r3, [sp, #96]	; 0x60
1a000680:	e9dd 0118 	ldrd	r0, r1, [sp, #96]	; 0x60
1a000684:	f001 fed8 	bl	1a002438 <__aeabi_dmul>
1a000688:	1076      	asrs	r6, r6, #1
1a00068a:	e9cd 0118 	strd	r0, r1, [sp, #96]	; 0x60
1a00068e:	e7e9      	b.n	1a000664 <fp_display+0x10c>
1a000690:	e9dd 0112 	ldrd	r0, r1, [sp, #72]	; 0x48
1a000694:	e9dd 231c 	ldrd	r2, r3, [sp, #112]	; 0x70
1a000698:	f001 ff56 	bl	1a002548 <__aeabi_ddiv>
1a00069c:	e9cd 0114 	strd	r0, r1, [sp, #80]	; 0x50
1a0006a0:	e9dd 0114 	ldrd	r0, r1, [sp, #80]	; 0x50
1a0006a4:	a340      	add	r3, pc, #256	; (adr r3, 1a0007a8 <fp_display+0x250>)
1a0006a6:	e9d3 2300 	ldrd	r2, r3, [r3]
1a0006aa:	f002 f9c0 	bl	1a002a2e <__aeabi_dcmplt>
1a0006ae:	b188      	cbz	r0, 1a0006d4 <fp_display+0x17c>
1a0006b0:	e9dd 0114 	ldrd	r0, r1, [sp, #80]	; 0x50
1a0006b4:	2200      	movs	r2, #0
1a0006b6:	4b46      	ldr	r3, [pc, #280]	; (1a0007d0 <fp_display+0x278>)
1a0006b8:	f001 febe 	bl	1a002438 <__aeabi_dmul>
1a0006bc:	e9cd 0114 	strd	r0, r1, [sp, #80]	; 0x50
1a0006c0:	e9dd 011c 	ldrd	r0, r1, [sp, #112]	; 0x70
1a0006c4:	2200      	movs	r2, #0
1a0006c6:	4b42      	ldr	r3, [pc, #264]	; (1a0007d0 <fp_display+0x278>)
1a0006c8:	f001 ff3e 	bl	1a002548 <__aeabi_ddiv>
1a0006cc:	3d01      	subs	r5, #1
1a0006ce:	e9cd 011c 	strd	r0, r1, [sp, #112]	; 0x70
1a0006d2:	e7e5      	b.n	1a0006a0 <fp_display+0x148>
1a0006d4:	e9dd 0114 	ldrd	r0, r1, [sp, #80]	; 0x50
1a0006d8:	a335      	add	r3, pc, #212	; (adr r3, 1a0007b0 <fp_display+0x258>)
1a0006da:	e9d3 2300 	ldrd	r2, r3, [r3]
1a0006de:	f002 f9f9 	bl	1a002ad4 <__aeabi_dcmpge>
1a0006e2:	b188      	cbz	r0, 1a000708 <fp_display+0x1b0>
1a0006e4:	e9dd 0114 	ldrd	r0, r1, [sp, #80]	; 0x50
1a0006e8:	2200      	movs	r2, #0
1a0006ea:	4b39      	ldr	r3, [pc, #228]	; (1a0007d0 <fp_display+0x278>)
1a0006ec:	f001 ff2c 	bl	1a002548 <__aeabi_ddiv>
1a0006f0:	e9cd 0114 	strd	r0, r1, [sp, #80]	; 0x50
1a0006f4:	e9dd 011c 	ldrd	r0, r1, [sp, #112]	; 0x70
1a0006f8:	2200      	movs	r2, #0
1a0006fa:	4b35      	ldr	r3, [pc, #212]	; (1a0007d0 <fp_display+0x278>)
1a0006fc:	f001 fe9c 	bl	1a002438 <__aeabi_dmul>
1a000700:	3501      	adds	r5, #1
1a000702:	e9cd 011c 	strd	r0, r1, [sp, #112]	; 0x70
1a000706:	e7e5      	b.n	1a0006d4 <fp_display+0x17c>
1a000708:	e9dd 0114 	ldrd	r0, r1, [sp, #80]	; 0x50
1a00070c:	f002 f92c 	bl	1a002968 <__aeabi_d2iz>
1a000710:	426b      	negs	r3, r5
1a000712:	ea13 0325 	ands.w	r3, r3, r5, asr #32
1a000716:	bf38      	it	cc
1a000718:	462b      	movcc	r3, r5
1a00071a:	4682      	mov	sl, r0
1a00071c:	930e      	str	r3, [sp, #56]	; 0x38
1a00071e:	4650      	mov	r0, sl
1a000720:	f002 f965 	bl	1a0029ee <__aeabi_i2d>
1a000724:	9a11      	ldr	r2, [sp, #68]	; 0x44
1a000726:	1aaa      	subs	r2, r5, r2
1a000728:	f001 fc46 	bl	1a001fb8 <_ldexpl>
1a00072c:	2200      	movs	r2, #0
1a00072e:	2300      	movs	r3, #0
1a000730:	2d00      	cmp	r5, #0
1a000732:	e9cd 0114 	strd	r0, r1, [sp, #80]	; 0x50
1a000736:	e9cd 2316 	strd	r2, r3, [sp, #88]	; 0x58
1a00073a:	da4b      	bge.n	1a0007d4 <fp_display+0x27c>
1a00073c:	a118      	add	r1, pc, #96	; (adr r1, 1a0007a0 <fp_display+0x248>)
1a00073e:	e9d1 0100 	ldrd	r0, r1, [r1]
1a000742:	e9cd 0118 	strd	r0, r1, [sp, #96]	; 0x60
1a000746:	e9cd 231a 	strd	r2, r3, [sp, #104]	; 0x68
1a00074a:	e9dd 8918 	ldrd	r8, r9, [sp, #96]	; 0x60
1a00074e:	f04f 0800 	mov.w	r8, #0
1a000752:	e9dd 0118 	ldrd	r0, r1, [sp, #96]	; 0x60
1a000756:	4642      	mov	r2, r8
1a000758:	464b      	mov	r3, r9
1a00075a:	e9dd 671a 	ldrd	r6, r7, [sp, #104]	; 0x68
1a00075e:	f001 ff93 	bl	1a002688 <__aeabi_dsub>
1a000762:	4602      	mov	r2, r0
1a000764:	460b      	mov	r3, r1
1a000766:	4630      	mov	r0, r6
1a000768:	4639      	mov	r1, r7
1a00076a:	f002 f869 	bl	1a002840 <__aeabi_dadd>
1a00076e:	e9cd 011a 	strd	r0, r1, [sp, #104]	; 0x68
1a000772:	e9cd 8918 	strd	r8, r9, [sp, #96]	; 0x60
1a000776:	e9dd 0118 	ldrd	r0, r1, [sp, #96]	; 0x60
1a00077a:	2200      	movs	r2, #0
1a00077c:	4b13      	ldr	r3, [pc, #76]	; (1a0007cc <fp_display+0x274>)
1a00077e:	f001 fe5b 	bl	1a002438 <__aeabi_dmul>
1a000782:	4602      	mov	r2, r0
1a000784:	460b      	mov	r3, r1
1a000786:	2000      	movs	r0, #0
1a000788:	490f      	ldr	r1, [pc, #60]	; (1a0007c8 <fp_display+0x270>)
1a00078a:	f001 ff7d 	bl	1a002688 <__aeabi_dsub>
1a00078e:	2200      	movs	r2, #0
1a000790:	4b0e      	ldr	r3, [pc, #56]	; (1a0007cc <fp_display+0x274>)
1a000792:	f001 fed9 	bl	1a002548 <__aeabi_ddiv>
1a000796:	e9cd 011a 	strd	r0, r1, [sp, #104]	; 0x68
1a00079a:	e024      	b.n	1a0007e6 <fp_display+0x28e>
1a00079c:	f3af 8000 	nop.w
1a0007a0:	9999999a 	.word	0x9999999a
1a0007a4:	3fc99999 	.word	0x3fc99999
1a0007a8:	00000000 	.word	0x00000000
1a0007ac:	40f86a00 	.word	0x40f86a00
1a0007b0:	00000000 	.word	0x00000000
1a0007b4:	412e8480 	.word	0x412e8480
1a0007b8:	1a002bf6 	.word	0x1a002bf6
1a0007bc:	1a002c44 	.word	0x1a002c44
1a0007c0:	1a002bc6 	.word	0x1a002bc6
1a0007c4:	1a002bc4 	.word	0x1a002bc4
1a0007c8:	3ff00000 	.word	0x3ff00000
1a0007cc:	40140000 	.word	0x40140000
1a0007d0:	40240000 	.word	0x40240000
1a0007d4:	49ae      	ldr	r1, [pc, #696]	; (1a000a90 <fp_display+0x538>)
1a0007d6:	f04f 0000 	mov.w	r0, #0
1a0007da:	e9cd 0118 	strd	r0, r1, [sp, #96]	; 0x60
1a0007de:	e9cd 231a 	strd	r2, r3, [sp, #104]	; 0x68
1a0007e2:	f000 8089 	beq.w	1a0008f8 <fp_display+0x3a0>
1a0007e6:	f8dd c038 	ldr.w	ip, [sp, #56]	; 0x38
1a0007ea:	f01c 0f01 	tst.w	ip, #1
1a0007ee:	d048      	beq.n	1a000882 <fp_display+0x32a>
1a0007f0:	e9dd 0114 	ldrd	r0, r1, [sp, #80]	; 0x50
1a0007f4:	e9dd 231a 	ldrd	r2, r3, [sp, #104]	; 0x68
1a0007f8:	ed9d 7b16 	vldr	d7, [sp, #88]	; 0x58
1a0007fc:	f8cd c03c 	str.w	ip, [sp, #60]	; 0x3c
1a000800:	e9dd 8918 	ldrd	r8, r9, [sp, #96]	; 0x60
1a000804:	ed8d 7b0a 	vstr	d7, [sp, #40]	; 0x28
1a000808:	e9dd 671a 	ldrd	r6, r7, [sp, #104]	; 0x68
1a00080c:	f001 fe14 	bl	1a002438 <__aeabi_dmul>
1a000810:	4632      	mov	r2, r6
1a000812:	e9cd 010c 	strd	r0, r1, [sp, #48]	; 0x30
1a000816:	463b      	mov	r3, r7
1a000818:	4640      	mov	r0, r8
1a00081a:	4649      	mov	r1, r9
1a00081c:	f002 f810 	bl	1a002840 <__aeabi_dadd>
1a000820:	4602      	mov	r2, r0
1a000822:	460b      	mov	r3, r1
1a000824:	e9dd 010a 	ldrd	r0, r1, [sp, #40]	; 0x28
1a000828:	f001 fe06 	bl	1a002438 <__aeabi_dmul>
1a00082c:	4602      	mov	r2, r0
1a00082e:	460b      	mov	r3, r1
1a000830:	e9dd 010c 	ldrd	r0, r1, [sp, #48]	; 0x30
1a000834:	f002 f804 	bl	1a002840 <__aeabi_dadd>
1a000838:	e9cd 0116 	strd	r0, r1, [sp, #88]	; 0x58
1a00083c:	e9dd 2318 	ldrd	r2, r3, [sp, #96]	; 0x60
1a000840:	e9dd 0114 	ldrd	r0, r1, [sp, #80]	; 0x50
1a000844:	f001 fdf8 	bl	1a002438 <__aeabi_dmul>
1a000848:	e9cd 0114 	strd	r0, r1, [sp, #80]	; 0x50
1a00084c:	e9dd 8914 	ldrd	r8, r9, [sp, #80]	; 0x50
1a000850:	f04f 0800 	mov.w	r8, #0
1a000854:	e9dd 0114 	ldrd	r0, r1, [sp, #80]	; 0x50
1a000858:	4642      	mov	r2, r8
1a00085a:	464b      	mov	r3, r9
1a00085c:	f001 ff14 	bl	1a002688 <__aeabi_dsub>
1a000860:	e9dd 6716 	ldrd	r6, r7, [sp, #88]	; 0x58
1a000864:	4602      	mov	r2, r0
1a000866:	460b      	mov	r3, r1
1a000868:	4630      	mov	r0, r6
1a00086a:	4639      	mov	r1, r7
1a00086c:	f001 ffe8 	bl	1a002840 <__aeabi_dadd>
1a000870:	f8dd c03c 	ldr.w	ip, [sp, #60]	; 0x3c
1a000874:	f1bc 0f01 	cmp.w	ip, #1
1a000878:	e9cd 0116 	strd	r0, r1, [sp, #88]	; 0x58
1a00087c:	e9cd 8914 	strd	r8, r9, [sp, #80]	; 0x50
1a000880:	d03a      	beq.n	1a0008f8 <fp_display+0x3a0>
1a000882:	e9dd 0118 	ldrd	r0, r1, [sp, #96]	; 0x60
1a000886:	e9dd 671a 	ldrd	r6, r7, [sp, #104]	; 0x68
1a00088a:	4602      	mov	r2, r0
1a00088c:	460b      	mov	r3, r1
1a00088e:	f8cd c028 	str.w	ip, [sp, #40]	; 0x28
1a000892:	f001 ffd5 	bl	1a002840 <__aeabi_dadd>
1a000896:	4632      	mov	r2, r6
1a000898:	463b      	mov	r3, r7
1a00089a:	e9dd 891a 	ldrd	r8, r9, [sp, #104]	; 0x68
1a00089e:	f001 ffcf 	bl	1a002840 <__aeabi_dadd>
1a0008a2:	4602      	mov	r2, r0
1a0008a4:	460b      	mov	r3, r1
1a0008a6:	4640      	mov	r0, r8
1a0008a8:	4649      	mov	r1, r9
1a0008aa:	f001 fdc5 	bl	1a002438 <__aeabi_dmul>
1a0008ae:	e9cd 011a 	strd	r0, r1, [sp, #104]	; 0x68
1a0008b2:	e9dd 2318 	ldrd	r2, r3, [sp, #96]	; 0x60
1a0008b6:	e9dd 0118 	ldrd	r0, r1, [sp, #96]	; 0x60
1a0008ba:	f001 fdbd 	bl	1a002438 <__aeabi_dmul>
1a0008be:	e9cd 0118 	strd	r0, r1, [sp, #96]	; 0x60
1a0008c2:	e9dd 8918 	ldrd	r8, r9, [sp, #96]	; 0x60
1a0008c6:	f04f 0800 	mov.w	r8, #0
1a0008ca:	e9dd 0118 	ldrd	r0, r1, [sp, #96]	; 0x60
1a0008ce:	4642      	mov	r2, r8
1a0008d0:	464b      	mov	r3, r9
1a0008d2:	f001 fed9 	bl	1a002688 <__aeabi_dsub>
1a0008d6:	e9dd 671a 	ldrd	r6, r7, [sp, #104]	; 0x68
1a0008da:	4602      	mov	r2, r0
1a0008dc:	460b      	mov	r3, r1
1a0008de:	4630      	mov	r0, r6
1a0008e0:	4639      	mov	r1, r7
1a0008e2:	f001 ffad 	bl	1a002840 <__aeabi_dadd>
1a0008e6:	f8dd c028 	ldr.w	ip, [sp, #40]	; 0x28
1a0008ea:	e9cd 011a 	strd	r0, r1, [sp, #104]	; 0x68
1a0008ee:	ea4f 0c6c 	mov.w	ip, ip, asr #1
1a0008f2:	e9cd 8918 	strd	r8, r9, [sp, #96]	; 0x60
1a0008f6:	e778      	b.n	1a0007ea <fp_display+0x292>
1a0008f8:	e9dd 0114 	ldrd	r0, r1, [sp, #80]	; 0x50
1a0008fc:	e9dd 2312 	ldrd	r2, r3, [sp, #72]	; 0x48
1a000900:	f002 f8be 	bl	1a002a80 <__aeabi_dcmple>
1a000904:	b910      	cbnz	r0, 1a00090c <fp_display+0x3b4>
1a000906:	f10a 3aff 	add.w	sl, sl, #4294967295
1a00090a:	e708      	b.n	1a00071e <fp_display+0x1c6>
1a00090c:	e9dd 2314 	ldrd	r2, r3, [sp, #80]	; 0x50
1a000910:	e9dd 0112 	ldrd	r0, r1, [sp, #72]	; 0x48
1a000914:	f001 feb8 	bl	1a002688 <__aeabi_dsub>
1a000918:	e9cd 0112 	strd	r0, r1, [sp, #72]	; 0x48
1a00091c:	e9dd 2316 	ldrd	r2, r3, [sp, #88]	; 0x58
1a000920:	e9dd 0112 	ldrd	r0, r1, [sp, #72]	; 0x48
1a000924:	f001 feb0 	bl	1a002688 <__aeabi_dsub>
1a000928:	e9cd 0112 	strd	r0, r1, [sp, #72]	; 0x48
1a00092c:	e9dd 231c 	ldrd	r2, r3, [sp, #112]	; 0x70
1a000930:	e9dd 0112 	ldrd	r0, r1, [sp, #72]	; 0x48
1a000934:	f001 fe08 	bl	1a002548 <__aeabi_ddiv>
1a000938:	e9cd 0112 	strd	r0, r1, [sp, #72]	; 0x48
1a00093c:	e9dd 0112 	ldrd	r0, r1, [sp, #72]	; 0x48
1a000940:	a351      	add	r3, pc, #324	; (adr r3, 1a000a88 <fp_display+0x530>)
1a000942:	e9d3 2300 	ldrd	r2, r3, [r3]
1a000946:	f001 fd77 	bl	1a002438 <__aeabi_dmul>
1a00094a:	e9cd 0112 	strd	r0, r1, [sp, #72]	; 0x48
1a00094e:	e9dd 0112 	ldrd	r0, r1, [sp, #72]	; 0x48
1a000952:	f002 f809 	bl	1a002968 <__aeabi_d2iz>
1a000956:	e9dd 6712 	ldrd	r6, r7, [sp, #72]	; 0x48
1a00095a:	4680      	mov	r8, r0
1a00095c:	f002 f847 	bl	1a0029ee <__aeabi_i2d>
1a000960:	4602      	mov	r2, r0
1a000962:	460b      	mov	r3, r1
1a000964:	4630      	mov	r0, r6
1a000966:	4639      	mov	r1, r7
1a000968:	f001 fe8e 	bl	1a002688 <__aeabi_dsub>
1a00096c:	a346      	add	r3, pc, #280	; (adr r3, 1a000a88 <fp_display+0x530>)
1a00096e:	e9d3 2300 	ldrd	r2, r3, [r3]
1a000972:	f001 fd61 	bl	1a002438 <__aeabi_dmul>
1a000976:	e9cd 0112 	strd	r0, r1, [sp, #72]	; 0x48
1a00097a:	e9dd 0112 	ldrd	r0, r1, [sp, #72]	; 0x48
1a00097e:	f001 fff3 	bl	1a002968 <__aeabi_d2iz>
1a000982:	4606      	mov	r6, r0
1a000984:	2e00      	cmp	r6, #0
1a000986:	da06      	bge.n	1a000996 <fp_display+0x43e>
1a000988:	f506 2674 	add.w	r6, r6, #999424	; 0xf4000
1a00098c:	f506 7610 	add.w	r6, r6, #576	; 0x240
1a000990:	f108 38ff 	add.w	r8, r8, #4294967295
1a000994:	e7f6      	b.n	1a000984 <fp_display+0x42c>
1a000996:	4b3f      	ldr	r3, [pc, #252]	; (1a000a94 <fp_display+0x53c>)
1a000998:	429e      	cmp	r6, r3
1a00099a:	dd06      	ble.n	1a0009aa <fp_display+0x452>
1a00099c:	f5a6 2674 	sub.w	r6, r6, #999424	; 0xf4000
1a0009a0:	f5a6 7610 	sub.w	r6, r6, #576	; 0x240
1a0009a4:	f108 0801 	add.w	r8, r8, #1
1a0009a8:	e7f5      	b.n	1a000996 <fp_display+0x43e>
1a0009aa:	f1b8 0f00 	cmp.w	r8, #0
1a0009ae:	da06      	bge.n	1a0009be <fp_display+0x466>
1a0009b0:	f508 2874 	add.w	r8, r8, #999424	; 0xf4000
1a0009b4:	f508 7810 	add.w	r8, r8, #576	; 0x240
1a0009b8:	f10a 3aff 	add.w	sl, sl, #4294967295
1a0009bc:	e7f5      	b.n	1a0009aa <fp_display+0x452>
1a0009be:	4598      	cmp	r8, r3
1a0009c0:	dd06      	ble.n	1a0009d0 <fp_display+0x478>
1a0009c2:	f5a8 2874 	sub.w	r8, r8, #999424	; 0xf4000
1a0009c6:	f5a8 7810 	sub.w	r8, r8, #576	; 0x240
1a0009ca:	f10a 0a01 	add.w	sl, sl, #1
1a0009ce:	e7f6      	b.n	1a0009be <fp_display+0x466>
1a0009d0:	4b31      	ldr	r3, [pc, #196]	; (1a000a98 <fp_display+0x540>)
1a0009d2:	459a      	cmp	sl, r3
1a0009d4:	4650      	mov	r0, sl
1a0009d6:	dc11      	bgt.n	1a0009fc <fp_display+0x4a4>
1a0009d8:	4830      	ldr	r0, [pc, #192]	; (1a000a9c <fp_display+0x544>)
1a0009da:	210a      	movs	r1, #10
1a0009dc:	3301      	adds	r3, #1
1a0009de:	fb98 f2f3 	sdiv	r2, r8, r3
1a0009e2:	fb96 f3f3 	sdiv	r3, r6, r3
1a0009e6:	fb00 8802 	mla	r8, r0, r2, r8
1a0009ea:	fb00 6603 	mla	r6, r0, r3, r6
1a0009ee:	fb01 2a0a 	mla	sl, r1, sl, r2
1a0009f2:	fb01 3808 	mla	r8, r1, r8, r3
1a0009f6:	434e      	muls	r6, r1
1a0009f8:	3d01      	subs	r5, #1
1a0009fa:	e01c      	b.n	1a000a36 <fp_display+0x4de>
1a0009fc:	4b25      	ldr	r3, [pc, #148]	; (1a000a94 <fp_display+0x53c>)
1a0009fe:	459a      	cmp	sl, r3
1a000a00:	dd19      	ble.n	1a000a36 <fp_display+0x4de>
1a000a02:	f06f 0309 	mvn.w	r3, #9
1a000a06:	4926      	ldr	r1, [pc, #152]	; (1a000aa0 <fp_display+0x548>)
1a000a08:	220a      	movs	r2, #10
1a000a0a:	fb9a faf2 	sdiv	sl, sl, r2
1a000a0e:	fb03 000a 	mla	r0, r3, sl, r0
1a000a12:	fb01 8000 	mla	r0, r1, r0, r8
1a000a16:	fb90 f8f2 	sdiv	r8, r0, r2
1a000a1a:	fb03 0308 	mla	r3, r3, r8, r0
1a000a1e:	fb01 6603 	mla	r6, r1, r3, r6
1a000a22:	3605      	adds	r6, #5
1a000a24:	3501      	adds	r5, #1
1a000a26:	fb96 f6f2 	sdiv	r6, r6, r2
1a000a2a:	e004      	b.n	1a000a36 <fp_display+0x4de>
1a000a2c:	2600      	movs	r6, #0
1a000a2e:	f06f 0504 	mvn.w	r5, #4
1a000a32:	46b0      	mov	r8, r6
1a000a34:	46b2      	mov	sl, r6
1a000a36:	4621      	mov	r1, r4
1a000a38:	2730      	movs	r7, #48	; 0x30
1a000a3a:	f801 7b06 	strb.w	r7, [r1], #6
1a000a3e:	4650      	mov	r0, sl
1a000a40:	f7ff fd3e 	bl	1a0004c0 <pr_dec.constprop.1>
1a000a44:	4640      	mov	r0, r8
1a000a46:	f104 010c 	add.w	r1, r4, #12
1a000a4a:	f7ff fd39 	bl	1a0004c0 <pr_dec.constprop.1>
1a000a4e:	4630      	mov	r0, r6
1a000a50:	f104 0112 	add.w	r1, r4, #18
1a000a54:	f7ff fd34 	bl	1a0004c0 <pr_dec.constprop.1>
1a000a58:	2300      	movs	r3, #0
1a000a5a:	7523      	strb	r3, [r4, #20]
1a000a5c:	9b09      	ldr	r3, [sp, #36]	; 0x24
1a000a5e:	74e7      	strb	r7, [r4, #19]
1a000a60:	3505      	adds	r5, #5
1a000a62:	ea43 0585 	orr.w	r5, r3, r5, lsl #2
1a000a66:	e000      	b.n	1a000a6a <fp_display+0x512>
1a000a68:	2500      	movs	r5, #0
1a000a6a:	07ef      	lsls	r7, r5, #31
1a000a6c:	d501      	bpl.n	1a000a72 <fp_display+0x51a>
1a000a6e:	4b0d      	ldr	r3, [pc, #52]	; (1a000aa4 <fp_display+0x54c>)
1a000a70:	e01f      	b.n	1a000ab2 <fp_display+0x55a>
1a000a72:	9b06      	ldr	r3, [sp, #24]
1a000a74:	079e      	lsls	r6, r3, #30
1a000a76:	d41b      	bmi.n	1a000ab0 <fp_display+0x558>
1a000a78:	4a0b      	ldr	r2, [pc, #44]	; (1a000aa8 <fp_display+0x550>)
1a000a7a:	f013 0f04 	tst.w	r3, #4
1a000a7e:	4b0b      	ldr	r3, [pc, #44]	; (1a000aac <fp_display+0x554>)
1a000a80:	bf08      	it	eq
1a000a82:	4613      	moveq	r3, r2
1a000a84:	e015      	b.n	1a000ab2 <fp_display+0x55a>
1a000a86:	bf00      	nop
1a000a88:	00000000 	.word	0x00000000
1a000a8c:	412e8480 	.word	0x412e8480
1a000a90:	40140000 	.word	0x40140000
1a000a94:	000f423f 	.word	0x000f423f
1a000a98:	0001869f 	.word	0x0001869f
1a000a9c:	fffe7960 	.word	0xfffe7960
1a000aa0:	000f4240 	.word	0x000f4240
1a000aa4:	1a002bf6 	.word	0x1a002bf6
1a000aa8:	1a002c44 	.word	0x1a002c44
1a000aac:	1a002bc6 	.word	0x1a002bc6
1a000ab0:	4bad      	ldr	r3, [pc, #692]	; (1a000d68 <fp_display+0x810>)
1a000ab2:	9a28      	ldr	r2, [sp, #160]	; 0xa0
1a000ab4:	f8db 6000 	ldr.w	r6, [fp]
1a000ab8:	6013      	str	r3, [r2, #0]
1a000aba:	f025 0501 	bic.w	r5, r5, #1
1a000abe:	2304      	movs	r3, #4
1a000ac0:	fb95 f5f3 	sdiv	r5, r5, r3
1a000ac4:	9b05      	ldr	r3, [sp, #20]
1a000ac6:	2b61      	cmp	r3, #97	; 0x61
1a000ac8:	d010      	beq.n	1a000aec <fp_display+0x594>
1a000aca:	dc06      	bgt.n	1a000ada <fp_display+0x582>
1a000acc:	2b45      	cmp	r3, #69	; 0x45
1a000ace:	d067      	beq.n	1a000ba0 <fp_display+0x648>
1a000ad0:	2b47      	cmp	r3, #71	; 0x47
1a000ad2:	d048      	beq.n	1a000b66 <fp_display+0x60e>
1a000ad4:	2b41      	cmp	r3, #65	; 0x41
1a000ad6:	d144      	bne.n	1a000b62 <fp_display+0x60a>
1a000ad8:	e008      	b.n	1a000aec <fp_display+0x594>
1a000ada:	9b05      	ldr	r3, [sp, #20]
1a000adc:	2b66      	cmp	r3, #102	; 0x66
1a000ade:	f000 80df 	beq.w	1a000ca0 <fp_display+0x748>
1a000ae2:	2b67      	cmp	r3, #103	; 0x67
1a000ae4:	d03f      	beq.n	1a000b66 <fp_display+0x60e>
1a000ae6:	2b65      	cmp	r3, #101	; 0x65
1a000ae8:	d13b      	bne.n	1a000b62 <fp_display+0x60a>
1a000aea:	e059      	b.n	1a000ba0 <fp_display+0x648>
1a000aec:	9b07      	ldr	r3, [sp, #28]
1a000aee:	f3c3 0113 	ubfx	r1, r3, #0, #20
1a000af2:	9b08      	ldr	r3, [sp, #32]
1a000af4:	2000      	movs	r0, #0
1a000af6:	4318      	orrs	r0, r3
1a000af8:	9b07      	ldr	r3, [sp, #28]
1a000afa:	f3c3 520a 	ubfx	r2, r3, #20, #11
1a000afe:	b112      	cbz	r2, 1a000b06 <fp_display+0x5ae>
1a000b00:	f2a2 33ff 	subw	r3, r2, #1023	; 0x3ff
1a000b04:	e004      	b.n	1a000b10 <fp_display+0x5b8>
1a000b06:	ea50 0301 	orrs.w	r3, r0, r1
1a000b0a:	4b98      	ldr	r3, [pc, #608]	; (1a000d6c <fp_display+0x814>)
1a000b0c:	bf08      	it	eq
1a000b0e:	2300      	moveq	r3, #0
1a000b10:	2a00      	cmp	r2, #0
1a000b12:	bf0c      	ite	eq
1a000b14:	2230      	moveq	r2, #48	; 0x30
1a000b16:	2231      	movne	r2, #49	; 0x31
1a000b18:	b966      	cbnz	r6, 1a000b34 <fp_display+0x5dc>
1a000b1a:	9d06      	ldr	r5, [sp, #24]
1a000b1c:	072d      	lsls	r5, r5, #28
1a000b1e:	d409      	bmi.n	1a000b34 <fp_display+0x5dc>
1a000b20:	9d05      	ldr	r5, [sp, #20]
1a000b22:	4993      	ldr	r1, [pc, #588]	; (1a000d70 <fp_display+0x818>)
1a000b24:	4620      	mov	r0, r4
1a000b26:	4c93      	ldr	r4, [pc, #588]	; (1a000d74 <fp_display+0x81c>)
1a000b28:	2d61      	cmp	r5, #97	; 0x61
1a000b2a:	bf08      	it	eq
1a000b2c:	4621      	moveq	r1, r4
1a000b2e:	f7ff fcdb 	bl	1a0004e8 <sprintf>
1a000b32:	e00c      	b.n	1a000b4e <fp_display+0x5f6>
1a000b34:	e9cd 0100 	strd	r0, r1, [sp]
1a000b38:	9302      	str	r3, [sp, #8]
1a000b3a:	4620      	mov	r0, r4
1a000b3c:	4b8e      	ldr	r3, [pc, #568]	; (1a000d78 <fp_display+0x820>)
1a000b3e:	498f      	ldr	r1, [pc, #572]	; (1a000d7c <fp_display+0x824>)
1a000b40:	9c05      	ldr	r4, [sp, #20]
1a000b42:	2c61      	cmp	r4, #97	; 0x61
1a000b44:	bf18      	it	ne
1a000b46:	4619      	movne	r1, r3
1a000b48:	4633      	mov	r3, r6
1a000b4a:	f7ff fccd 	bl	1a0004e8 <sprintf>
1a000b4e:	4a8c      	ldr	r2, [pc, #560]	; (1a000d80 <fp_display+0x828>)
1a000b50:	4b8c      	ldr	r3, [pc, #560]	; (1a000d84 <fp_display+0x82c>)
1a000b52:	9907      	ldr	r1, [sp, #28]
1a000b54:	ea33 0321 	bics.w	r3, r3, r1, asr #32
1a000b58:	bf28      	it	cs
1a000b5a:	4613      	movcs	r3, r2
1a000b5c:	9a28      	ldr	r2, [sp, #160]	; 0xa0
1a000b5e:	6013      	str	r3, [r2, #0]
1a000b60:	e177      	b.n	1a000e52 <fp_display+0x8fa>
1a000b62:	2367      	movs	r3, #103	; 0x67
1a000b64:	9305      	str	r3, [sp, #20]
1a000b66:	9b06      	ldr	r3, [sp, #24]
1a000b68:	2e00      	cmp	r6, #0
1a000b6a:	f443 6300 	orr.w	r3, r3, #2048	; 0x800
1a000b6e:	9306      	str	r3, [sp, #24]
1a000b70:	bfdc      	itt	le
1a000b72:	2301      	movle	r3, #1
1a000b74:	f8cb 3000 	strle.w	r3, [fp]
1a000b78:	f8db 1000 	ldr.w	r1, [fp]
1a000b7c:	2911      	cmp	r1, #17
1a000b7e:	bfd4      	ite	le
1a000b80:	3101      	addle	r1, #1
1a000b82:	2112      	movgt	r1, #18
1a000b84:	4620      	mov	r0, r4
1a000b86:	f7ff fc75 	bl	1a000474 <fp_round>
1a000b8a:	f8db 3000 	ldr.w	r3, [fp]
1a000b8e:	4405      	add	r5, r0
1a000b90:	429d      	cmp	r5, r3
1a000b92:	db7e      	blt.n	1a000c92 <fp_display+0x73a>
1a000b94:	3b01      	subs	r3, #1
1a000b96:	f8cb 3000 	str.w	r3, [fp]
1a000b9a:	9b05      	ldr	r3, [sp, #20]
1a000b9c:	3b02      	subs	r3, #2
1a000b9e:	9305      	str	r3, [sp, #20]
1a000ba0:	f8db 3000 	ldr.w	r3, [fp]
1a000ba4:	2b11      	cmp	r3, #17
1a000ba6:	bfc1      	itttt	gt
1a000ba8:	9a2b      	ldrgt	r2, [sp, #172]	; 0xac
1a000baa:	3b11      	subgt	r3, #17
1a000bac:	6013      	strgt	r3, [r2, #0]
1a000bae:	2311      	movgt	r3, #17
1a000bb0:	bfc8      	it	gt
1a000bb2:	f8cb 3000 	strgt.w	r3, [fp]
1a000bb6:	9b06      	ldr	r3, [sp, #24]
1a000bb8:	f8db 6000 	ldr.w	r6, [fp]
1a000bbc:	f413 6700 	ands.w	r7, r3, #2048	; 0x800
1a000bc0:	f106 0602 	add.w	r6, r6, #2
1a000bc4:	d104      	bne.n	1a000bd0 <fp_display+0x678>
1a000bc6:	4620      	mov	r0, r4
1a000bc8:	4631      	mov	r1, r6
1a000bca:	f7ff fc53 	bl	1a000474 <fp_round>
1a000bce:	4405      	add	r5, r0
1a000bd0:	7863      	ldrb	r3, [r4, #1]
1a000bd2:	7023      	strb	r3, [r4, #0]
1a000bd4:	f8db 3000 	ldr.w	r3, [fp]
1a000bd8:	b923      	cbnz	r3, 1a000be4 <fp_display+0x68c>
1a000bda:	9a06      	ldr	r2, [sp, #24]
1a000bdc:	f640 0308 	movw	r3, #2056	; 0x808
1a000be0:	4013      	ands	r3, r2
1a000be2:	b113      	cbz	r3, 1a000bea <fp_display+0x692>
1a000be4:	232e      	movs	r3, #46	; 0x2e
1a000be6:	7063      	strb	r3, [r4, #1]
1a000be8:	e000      	b.n	1a000bec <fp_display+0x694>
1a000bea:	2601      	movs	r6, #1
1a000bec:	9b2b      	ldr	r3, [sp, #172]	; 0xac
1a000bee:	681b      	ldr	r3, [r3, #0]
1a000bf0:	2b00      	cmp	r3, #0
1a000bf2:	bfc2      	ittt	gt
1a000bf4:	233e      	movgt	r3, #62	; 0x3e
1a000bf6:	55a3      	strbgt	r3, [r4, r6]
1a000bf8:	3601      	addgt	r6, #1
1a000bfa:	b177      	cbz	r7, 1a000c1a <fp_display+0x6c2>
1a000bfc:	9b06      	ldr	r3, [sp, #24]
1a000bfe:	071f      	lsls	r7, r3, #28
1a000c00:	d40b      	bmi.n	1a000c1a <fp_display+0x6c2>
1a000c02:	19a2      	adds	r2, r4, r6
1a000c04:	1b16      	subs	r6, r2, r4
1a000c06:	f812 3d01 	ldrb.w	r3, [r2, #-1]!
1a000c0a:	2b30      	cmp	r3, #48	; 0x30
1a000c0c:	d0fa      	beq.n	1a000c04 <fp_display+0x6ac>
1a000c0e:	2b3e      	cmp	r3, #62	; 0x3e
1a000c10:	d0f8      	beq.n	1a000c04 <fp_display+0x6ac>
1a000c12:	2b2e      	cmp	r3, #46	; 0x2e
1a000c14:	bf08      	it	eq
1a000c16:	f106 36ff 	addeq.w	r6, r6, #4294967295
1a000c1a:	2d00      	cmp	r5, #0
1a000c1c:	f89d 3014 	ldrb.w	r3, [sp, #20]
1a000c20:	55a3      	strb	r3, [r4, r6]
1a000c22:	f106 0201 	add.w	r2, r6, #1
1a000c26:	f106 0302 	add.w	r3, r6, #2
1a000c2a:	bfbb      	ittet	lt
1a000c2c:	426d      	neglt	r5, r5
1a000c2e:	212d      	movlt	r1, #45	; 0x2d
1a000c30:	212b      	movge	r1, #43	; 0x2b
1a000c32:	461e      	movlt	r6, r3
1a000c34:	bfa8      	it	ge
1a000c36:	461e      	movge	r6, r3
1a000c38:	f5b5 7f7a 	cmp.w	r5, #1000	; 0x3e8
1a000c3c:	54a1      	strb	r1, [r4, r2]
1a000c3e:	db0a      	blt.n	1a000c56 <fp_display+0x6fe>
1a000c40:	f44f 727a 	mov.w	r2, #1000	; 0x3e8
1a000c44:	fb95 f2f2 	sdiv	r2, r5, r2
1a000c48:	f102 0130 	add.w	r1, r2, #48	; 0x30
1a000c4c:	54e1      	strb	r1, [r4, r3]
1a000c4e:	494e      	ldr	r1, [pc, #312]	; (1a000d88 <fp_display+0x830>)
1a000c50:	1c5e      	adds	r6, r3, #1
1a000c52:	fb01 5502 	mla	r5, r1, r2, r5
1a000c56:	2d63      	cmp	r5, #99	; 0x63
1a000c58:	dd0a      	ble.n	1a000c70 <fp_display+0x718>
1a000c5a:	2364      	movs	r3, #100	; 0x64
1a000c5c:	fb95 f3f3 	sdiv	r3, r5, r3
1a000c60:	f103 0230 	add.w	r2, r3, #48	; 0x30
1a000c64:	55a2      	strb	r2, [r4, r6]
1a000c66:	f06f 0263 	mvn.w	r2, #99	; 0x63
1a000c6a:	fb02 5503 	mla	r5, r2, r3, r5
1a000c6e:	3601      	adds	r6, #1
1a000c70:	230a      	movs	r3, #10
1a000c72:	fb95 f3f3 	sdiv	r3, r5, r3
1a000c76:	f103 0230 	add.w	r2, r3, #48	; 0x30
1a000c7a:	55a2      	strb	r2, [r4, r6]
1a000c7c:	ebc3 1243 	rsb	r2, r3, r3, lsl #5
1a000c80:	4434      	add	r4, r6
1a000c82:	3530      	adds	r5, #48	; 0x30
1a000c84:	ebc3 0382 	rsb	r3, r3, r2, lsl #2
1a000c88:	eb05 0343 	add.w	r3, r5, r3, lsl #1
1a000c8c:	7063      	strb	r3, [r4, #1]
1a000c8e:	1cb0      	adds	r0, r6, #2
1a000c90:	e0df      	b.n	1a000e52 <fp_display+0x8fa>
1a000c92:	1d2a      	adds	r2, r5, #4
1a000c94:	f6ff af7e 	blt.w	1a000b94 <fp_display+0x63c>
1a000c98:	43ea      	mvns	r2, r5
1a000c9a:	4413      	add	r3, r2
1a000c9c:	f8cb 3000 	str.w	r3, [fp]
1a000ca0:	9a06      	ldr	r2, [sp, #24]
1a000ca2:	f8db 3000 	ldr.w	r3, [fp]
1a000ca6:	2d00      	cmp	r5, #0
1a000ca8:	f402 6700 	and.w	r7, r2, #2048	; 0x800
1a000cac:	da4c      	bge.n	1a000d48 <fp_display+0x7f0>
1a000cae:	f1c5 0800 	rsb	r8, r5, #0
1a000cb2:	1c5a      	adds	r2, r3, #1
1a000cb4:	4590      	cmp	r8, r2
1a000cb6:	dd09      	ble.n	1a000ccc <fp_display+0x774>
1a000cb8:	2330      	movs	r3, #48	; 0x30
1a000cba:	7023      	strb	r3, [r4, #0]
1a000cbc:	232e      	movs	r3, #46	; 0x2e
1a000cbe:	7063      	strb	r3, [r4, #1]
1a000cc0:	9a2b      	ldr	r2, [sp, #172]	; 0xac
1a000cc2:	f8db 3000 	ldr.w	r3, [fp]
1a000cc6:	6013      	str	r3, [r2, #0]
1a000cc8:	2602      	movs	r6, #2
1a000cca:	e038      	b.n	1a000d3e <fp_display+0x7e6>
1a000ccc:	442b      	add	r3, r5
1a000cce:	1c9e      	adds	r6, r3, #2
1a000cd0:	2e12      	cmp	r6, #18
1a000cd2:	bfc1      	itttt	gt
1a000cd4:	9a2b      	ldrgt	r2, [sp, #172]	; 0xac
1a000cd6:	3b11      	subgt	r3, #17
1a000cd8:	6013      	strgt	r3, [r2, #0]
1a000cda:	2613      	movgt	r6, #19
1a000cdc:	b95f      	cbnz	r7, 1a000cf6 <fp_display+0x79e>
1a000cde:	4620      	mov	r0, r4
1a000ce0:	4631      	mov	r1, r6
1a000ce2:	f7ff fbc7 	bl	1a000474 <fp_round>
1a000ce6:	b130      	cbz	r0, 1a000cf6 <fp_display+0x79e>
1a000ce8:	ea7f 0805 	mvns.w	r8, r5
1a000cec:	f106 0601 	add.w	r6, r6, #1
1a000cf0:	d101      	bne.n	1a000cf6 <fp_display+0x79e>
1a000cf2:	7863      	ldrb	r3, [r4, #1]
1a000cf4:	e00d      	b.n	1a000d12 <fp_display+0x7ba>
1a000cf6:	f1b8 0f01 	cmp.w	r8, #1
1a000cfa:	eb04 0306 	add.w	r3, r4, r6
1a000cfe:	d10c      	bne.n	1a000d1a <fp_display+0x7c2>
1a000d00:	1b1a      	subs	r2, r3, r4
1a000d02:	2a00      	cmp	r2, #0
1a000d04:	dd03      	ble.n	1a000d0e <fp_display+0x7b6>
1a000d06:	f813 2901 	ldrb.w	r2, [r3], #-1
1a000d0a:	709a      	strb	r2, [r3, #2]
1a000d0c:	e7f8      	b.n	1a000d00 <fp_display+0x7a8>
1a000d0e:	3601      	adds	r6, #1
1a000d10:	2330      	movs	r3, #48	; 0x30
1a000d12:	7023      	strb	r3, [r4, #0]
1a000d14:	232e      	movs	r3, #46	; 0x2e
1a000d16:	7063      	strb	r3, [r4, #1]
1a000d18:	e011      	b.n	1a000d3e <fp_display+0x7e6>
1a000d1a:	1b1a      	subs	r2, r3, r4
1a000d1c:	2a00      	cmp	r2, #0
1a000d1e:	dd03      	ble.n	1a000d28 <fp_display+0x7d0>
1a000d20:	f813 2901 	ldrb.w	r2, [r3], #-1
1a000d24:	70da      	strb	r2, [r3, #3]
1a000d26:	e7f8      	b.n	1a000d1a <fp_display+0x7c2>
1a000d28:	2330      	movs	r3, #48	; 0x30
1a000d2a:	7023      	strb	r3, [r4, #0]
1a000d2c:	232e      	movs	r3, #46	; 0x2e
1a000d2e:	7063      	strb	r3, [r4, #1]
1a000d30:	9a2a      	ldr	r2, [sp, #168]	; 0xa8
1a000d32:	233c      	movs	r3, #60	; 0x3c
1a000d34:	70a3      	strb	r3, [r4, #2]
1a000d36:	f108 33ff 	add.w	r3, r8, #4294967295
1a000d3a:	3602      	adds	r6, #2
1a000d3c:	6013      	str	r3, [r2, #0]
1a000d3e:	9b2b      	ldr	r3, [sp, #172]	; 0xac
1a000d40:	681b      	ldr	r3, [r3, #0]
1a000d42:	2b00      	cmp	r3, #0
1a000d44:	dc38      	bgt.n	1a000db8 <fp_display+0x860>
1a000d46:	e06c      	b.n	1a000e22 <fp_display+0x8ca>
1a000d48:	eb05 0803 	add.w	r8, r5, r3
1a000d4c:	f108 0602 	add.w	r6, r8, #2
1a000d50:	2e12      	cmp	r6, #18
1a000d52:	dd50      	ble.n	1a000df6 <fp_display+0x89e>
1a000d54:	b9d7      	cbnz	r7, 1a000d8c <fp_display+0x834>
1a000d56:	4620      	mov	r0, r4
1a000d58:	2113      	movs	r1, #19
1a000d5a:	f7ff fb8b 	bl	1a000474 <fp_round>
1a000d5e:	b1a8      	cbz	r0, 1a000d8c <fp_display+0x834>
1a000d60:	3501      	adds	r5, #1
1a000d62:	2614      	movs	r6, #20
1a000d64:	e013      	b.n	1a000d8e <fp_display+0x836>
1a000d66:	bf00      	nop
1a000d68:	1a002bc4 	.word	0x1a002bc4
1a000d6c:	fffffc01 	.word	0xfffffc01
1a000d70:	1a002bd0 	.word	0x1a002bd0
1a000d74:	1a002bc8 	.word	0x1a002bc8
1a000d78:	1a002be7 	.word	0x1a002be7
1a000d7c:	1a002bd8 	.word	0x1a002bd8
1a000d80:	1a002bf6 	.word	0x1a002bf6
1a000d84:	1a002c44 	.word	0x1a002c44
1a000d88:	fffffc18 	.word	0xfffffc18
1a000d8c:	2613      	movs	r6, #19
1a000d8e:	1e72      	subs	r2, r6, #1
1a000d90:	4295      	cmp	r5, r2
1a000d92:	4623      	mov	r3, r4
1a000d94:	da14      	bge.n	1a000dc0 <fp_display+0x868>
1a000d96:	f813 2f01 	ldrb.w	r2, [r3, #1]!
1a000d9a:	f803 2c01 	strb.w	r2, [r3, #-1]
1a000d9e:	1b1a      	subs	r2, r3, r4
1a000da0:	42aa      	cmp	r2, r5
1a000da2:	ddf8      	ble.n	1a000d96 <fp_display+0x83e>
1a000da4:	1963      	adds	r3, r4, r5
1a000da6:	222e      	movs	r2, #46	; 0x2e
1a000da8:	705a      	strb	r2, [r3, #1]
1a000daa:	f8db 3000 	ldr.w	r3, [fp]
1a000dae:	441d      	add	r5, r3
1a000db0:	9b2b      	ldr	r3, [sp, #172]	; 0xac
1a000db2:	3d11      	subs	r5, #17
1a000db4:	601d      	str	r5, [r3, #0]
1a000db6:	b3a5      	cbz	r5, 1a000e22 <fp_display+0x8ca>
1a000db8:	233e      	movs	r3, #62	; 0x3e
1a000dba:	55a3      	strb	r3, [r4, r6]
1a000dbc:	3601      	adds	r6, #1
1a000dbe:	e030      	b.n	1a000e22 <fp_display+0x8ca>
1a000dc0:	f813 1f01 	ldrb.w	r1, [r3, #1]!
1a000dc4:	f803 1c01 	strb.w	r1, [r3, #-1]
1a000dc8:	1b19      	subs	r1, r3, r4
1a000dca:	4291      	cmp	r1, r2
1a000dcc:	dbf8      	blt.n	1a000dc0 <fp_display+0x868>
1a000dce:	19a3      	adds	r3, r4, r6
1a000dd0:	223c      	movs	r2, #60	; 0x3c
1a000dd2:	f803 2c01 	strb.w	r2, [r3, #-1]
1a000dd6:	1bad      	subs	r5, r5, r6
1a000dd8:	9b2a      	ldr	r3, [sp, #168]	; 0xa8
1a000dda:	222e      	movs	r2, #46	; 0x2e
1a000ddc:	3502      	adds	r5, #2
1a000dde:	601d      	str	r5, [r3, #0]
1a000de0:	55a2      	strb	r2, [r4, r6]
1a000de2:	f8db 2000 	ldr.w	r2, [fp]
1a000de6:	1c73      	adds	r3, r6, #1
1a000de8:	b1d2      	cbz	r2, 1a000e20 <fp_display+0x8c8>
1a000dea:	992b      	ldr	r1, [sp, #172]	; 0xac
1a000dec:	600a      	str	r2, [r1, #0]
1a000dee:	223e      	movs	r2, #62	; 0x3e
1a000df0:	3602      	adds	r6, #2
1a000df2:	54e2      	strb	r2, [r4, r3]
1a000df4:	e015      	b.n	1a000e22 <fp_display+0x8ca>
1a000df6:	b93f      	cbnz	r7, 1a000e08 <fp_display+0x8b0>
1a000df8:	4620      	mov	r0, r4
1a000dfa:	4631      	mov	r1, r6
1a000dfc:	f7ff fb3a 	bl	1a000474 <fp_round>
1a000e00:	b110      	cbz	r0, 1a000e08 <fp_display+0x8b0>
1a000e02:	3501      	adds	r5, #1
1a000e04:	f108 0603 	add.w	r6, r8, #3
1a000e08:	4623      	mov	r3, r4
1a000e0a:	f813 2f01 	ldrb.w	r2, [r3, #1]!
1a000e0e:	f803 2c01 	strb.w	r2, [r3, #-1]
1a000e12:	1b1a      	subs	r2, r3, r4
1a000e14:	42aa      	cmp	r2, r5
1a000e16:	ddf8      	ble.n	1a000e0a <fp_display+0x8b2>
1a000e18:	4425      	add	r5, r4
1a000e1a:	232e      	movs	r3, #46	; 0x2e
1a000e1c:	706b      	strb	r3, [r5, #1]
1a000e1e:	e000      	b.n	1a000e22 <fp_display+0x8ca>
1a000e20:	461e      	mov	r6, r3
1a000e22:	b16f      	cbz	r7, 1a000e40 <fp_display+0x8e8>
1a000e24:	9b06      	ldr	r3, [sp, #24]
1a000e26:	0718      	lsls	r0, r3, #28
1a000e28:	d412      	bmi.n	1a000e50 <fp_display+0x8f8>
1a000e2a:	19a0      	adds	r0, r4, r6
1a000e2c:	1b06      	subs	r6, r0, r4
1a000e2e:	f810 3d01 	ldrb.w	r3, [r0, #-1]!
1a000e32:	2b30      	cmp	r3, #48	; 0x30
1a000e34:	d0fa      	beq.n	1a000e2c <fp_display+0x8d4>
1a000e36:	2b3e      	cmp	r3, #62	; 0x3e
1a000e38:	d0f8      	beq.n	1a000e2c <fp_display+0x8d4>
1a000e3a:	2b2e      	cmp	r3, #46	; 0x2e
1a000e3c:	d108      	bne.n	1a000e50 <fp_display+0x8f8>
1a000e3e:	e005      	b.n	1a000e4c <fp_display+0x8f4>
1a000e40:	f8db 3000 	ldr.w	r3, [fp]
1a000e44:	b923      	cbnz	r3, 1a000e50 <fp_display+0x8f8>
1a000e46:	9b06      	ldr	r3, [sp, #24]
1a000e48:	0719      	lsls	r1, r3, #28
1a000e4a:	d401      	bmi.n	1a000e50 <fp_display+0x8f8>
1a000e4c:	1e70      	subs	r0, r6, #1
1a000e4e:	e000      	b.n	1a000e52 <fp_display+0x8fa>
1a000e50:	4630      	mov	r0, r6
1a000e52:	b01f      	add	sp, #124	; 0x7c
1a000e54:	e8bd 8ff0 	ldmia.w	sp!, {r4, r5, r6, r7, r8, r9, sl, fp, pc}

1a000e58 <vsnprintf>:
1a000e58:	b5f0      	push	{r4, r5, r6, r7, lr}
1a000e5a:	b08f      	sub	sp, #60	; 0x3c
1a000e5c:	4604      	mov	r4, r0
1a000e5e:	460d      	mov	r5, r1
1a000e60:	4617      	mov	r7, r2
1a000e62:	2100      	movs	r1, #0
1a000e64:	2228      	movs	r2, #40	; 0x28
1a000e66:	a804      	add	r0, sp, #16
1a000e68:	461e      	mov	r6, r3
1a000e6a:	f000 ff52 	bl	1a001d12 <memset>
1a000e6e:	230a      	movs	r3, #10
1a000e70:	9307      	str	r3, [sp, #28]
1a000e72:	f06f 4300 	mvn.w	r3, #2147483648	; 0x80000000
1a000e76:	9404      	str	r4, [sp, #16]
1a000e78:	9306      	str	r3, [sp, #24]
1a000e7a:	2400      	movs	r4, #0
1a000e7c:	4b0c      	ldr	r3, [pc, #48]	; (1a000eb0 <vsnprintf+0x58>)
1a000e7e:	9302      	str	r3, [sp, #8]
1a000e80:	1e6a      	subs	r2, r5, #1
1a000e82:	4623      	mov	r3, r4
1a000e84:	9700      	str	r7, [sp, #0]
1a000e86:	9601      	str	r6, [sp, #4]
1a000e88:	a804      	add	r0, sp, #16
1a000e8a:	f000 f88f 	bl	1a000fac <__vfprintf>
1a000e8e:	9b06      	ldr	r3, [sp, #24]
1a000e90:	3b01      	subs	r3, #1
1a000e92:	42a3      	cmp	r3, r4
1a000e94:	4605      	mov	r5, r0
1a000e96:	9306      	str	r3, [sp, #24]
1a000e98:	db02      	blt.n	1a000ea0 <vsnprintf+0x48>
1a000e9a:	9b04      	ldr	r3, [sp, #16]
1a000e9c:	701c      	strb	r4, [r3, #0]
1a000e9e:	e003      	b.n	1a000ea8 <vsnprintf+0x50>
1a000ea0:	4620      	mov	r0, r4
1a000ea2:	a904      	add	r1, sp, #16
1a000ea4:	f000 ff59 	bl	1a001d5a <__flsbuf>
1a000ea8:	4628      	mov	r0, r5
1a000eaa:	b00f      	add	sp, #60	; 0x3c
1a000eac:	bdf0      	pop	{r4, r5, r6, r7, pc}
1a000eae:	bf00      	nop
1a000eb0:	1a000559 	.word	0x1a000559

1a000eb4 <printf>:
1a000eb4:	b40f      	push	{r0, r1, r2, r3}
1a000eb6:	b573      	push	{r0, r1, r4, r5, r6, lr}
1a000eb8:	ab06      	add	r3, sp, #24
1a000eba:	4668      	mov	r0, sp
1a000ebc:	f853 5b04 	ldr.w	r5, [r3], #4
1a000ec0:	9301      	str	r3, [sp, #4]
1a000ec2:	2101      	movs	r1, #1
1a000ec4:	462a      	mov	r2, r5
1a000ec6:	f7ff ffc7 	bl	1a000e58 <vsnprintf>
1a000eca:	1e04      	subs	r4, r0, #0
1a000ecc:	dd13      	ble.n	1a000ef6 <printf+0x42>
1a000ece:	1c66      	adds	r6, r4, #1
1a000ed0:	4630      	mov	r0, r6
1a000ed2:	f001 f8cf 	bl	1a002074 <malloc>
1a000ed6:	9000      	str	r0, [sp, #0]
1a000ed8:	b168      	cbz	r0, 1a000ef6 <printf+0x42>
1a000eda:	4631      	mov	r1, r6
1a000edc:	462a      	mov	r2, r5
1a000ede:	9b01      	ldr	r3, [sp, #4]
1a000ee0:	f7ff ffba 	bl	1a000e58 <vsnprintf>
1a000ee4:	4b07      	ldr	r3, [pc, #28]	; (1a000f04 <printf+0x50>)
1a000ee6:	9900      	ldr	r1, [sp, #0]
1a000ee8:	6bd8      	ldr	r0, [r3, #60]	; 0x3c
1a000eea:	4622      	mov	r2, r4
1a000eec:	f001 fe60 	bl	1a002bb0 <__sys_write>
1a000ef0:	9800      	ldr	r0, [sp, #0]
1a000ef2:	f001 f925 	bl	1a002140 <free>
1a000ef6:	4620      	mov	r0, r4
1a000ef8:	b002      	add	sp, #8
1a000efa:	e8bd 4070 	ldmia.w	sp!, {r4, r5, r6, lr}
1a000efe:	b004      	add	sp, #16
1a000f00:	4770      	bx	lr
1a000f02:	bf00      	nop
1a000f04:	100000ec 	.word	0x100000ec

1a000f08 <_initio>:
1a000f08:	b510      	push	{r4, lr}
1a000f0a:	2100      	movs	r1, #0
1a000f0c:	f44f 72a0 	mov.w	r2, #320	; 0x140
1a000f10:	4822      	ldr	r0, [pc, #136]	; (1a000f9c <_initio+0x94>)
1a000f12:	4c23      	ldr	r4, [pc, #140]	; (1a000fa0 <_initio+0x98>)
1a000f14:	f000 fefd 	bl	1a001d12 <memset>
1a000f18:	20c0      	movs	r0, #192	; 0xc0
1a000f1a:	f001 f929 	bl	1a002170 <_Csys_alloc>
1a000f1e:	2100      	movs	r1, #0
1a000f20:	22c0      	movs	r2, #192	; 0xc0
1a000f22:	6020      	str	r0, [r4, #0]
1a000f24:	f000 fef5 	bl	1a001d12 <memset>
1a000f28:	6820      	ldr	r0, [r4, #0]
1a000f2a:	2300      	movs	r3, #0
1a000f2c:	4c1b      	ldr	r4, [pc, #108]	; (1a000f9c <_initio+0x94>)
1a000f2e:	2228      	movs	r2, #40	; 0x28
1a000f30:	2118      	movs	r1, #24
1a000f32:	fb02 4203 	mla	r2, r2, r3, r4
1a000f36:	fb01 0103 	mla	r1, r1, r3, r0
1a000f3a:	3301      	adds	r3, #1
1a000f3c:	2b08      	cmp	r3, #8
1a000f3e:	6251      	str	r1, [r2, #36]	; 0x24
1a000f40:	d1f4      	bne.n	1a000f2c <_initio+0x24>
1a000f42:	4622      	mov	r2, r4
1a000f44:	4917      	ldr	r1, [pc, #92]	; (1a000fa4 <_initio+0x9c>)
1a000f46:	2000      	movs	r0, #0
1a000f48:	f000 ffa8 	bl	1a001e9c <_fdopen>
1a000f4c:	f44f 5380 	mov.w	r3, #4096	; 0x1000
1a000f50:	4620      	mov	r0, r4
1a000f52:	2100      	movs	r1, #0
1a000f54:	f44f 6280 	mov.w	r2, #1024	; 0x400
1a000f58:	f000 fe78 	bl	1a001c4c <setvbuf>
1a000f5c:	f104 0228 	add.w	r2, r4, #40	; 0x28
1a000f60:	4911      	ldr	r1, [pc, #68]	; (1a000fa8 <_initio+0xa0>)
1a000f62:	2001      	movs	r0, #1
1a000f64:	f000 ff9a 	bl	1a001e9c <_fdopen>
1a000f68:	f44f 5380 	mov.w	r3, #4096	; 0x1000
1a000f6c:	f104 0028 	add.w	r0, r4, #40	; 0x28
1a000f70:	2100      	movs	r1, #0
1a000f72:	f44f 6280 	mov.w	r2, #1024	; 0x400
1a000f76:	f000 fe69 	bl	1a001c4c <setvbuf>
1a000f7a:	f104 0250 	add.w	r2, r4, #80	; 0x50
1a000f7e:	490a      	ldr	r1, [pc, #40]	; (1a000fa8 <_initio+0xa0>)
1a000f80:	2002      	movs	r0, #2
1a000f82:	f000 ff8b 	bl	1a001e9c <_fdopen>
1a000f86:	f104 0050 	add.w	r0, r4, #80	; 0x50
1a000f8a:	2100      	movs	r1, #0
1a000f8c:	f44f 6280 	mov.w	r2, #1024	; 0x400
1a000f90:	f44f 5380 	mov.w	r3, #4096	; 0x1000
1a000f94:	e8bd 4010 	ldmia.w	sp!, {r4, lr}
1a000f98:	f000 be58 	b.w	1a001c4c <setvbuf>
1a000f9c:	100000ec 	.word	0x100000ec
1a000fa0:	100000e8 	.word	0x100000e8
1a000fa4:	1a002bf8 	.word	0x1a002bf8
1a000fa8:	1a002bfa 	.word	0x1a002bfa

1a000fac <__vfprintf>:
1a000fac:	e92d 4ff0 	stmdb	sp!, {r4, r5, r6, r7, r8, r9, sl, fp, lr}
1a000fb0:	b0ad      	sub	sp, #180	; 0xb4
1a000fb2:	e9cd 230a 	strd	r2, r3, [sp, #40]	; 0x28
1a000fb6:	f8dd 80dc 	ldr.w	r8, [sp, #220]	; 0xdc
1a000fba:	9b36      	ldr	r3, [sp, #216]	; 0xd8
1a000fbc:	2200      	movs	r2, #0
1a000fbe:	4604      	mov	r4, r0
1a000fc0:	9205      	str	r2, [sp, #20]
1a000fc2:	7818      	ldrb	r0, [r3, #0]
1a000fc4:	1c5d      	adds	r5, r3, #1
1a000fc6:	2800      	cmp	r0, #0
1a000fc8:	f000 863b 	beq.w	1a001c42 <__vfprintf+0xc96>
1a000fcc:	2825      	cmp	r0, #37	; 0x25
1a000fce:	d102      	bne.n	1a000fd6 <__vfprintf+0x2a>
1a000fd0:	462a      	mov	r2, r5
1a000fd2:	2700      	movs	r7, #0
1a000fd4:	e023      	b.n	1a00101e <__vfprintf+0x72>
1a000fd6:	9b05      	ldr	r3, [sp, #20]
1a000fd8:	ea4f 7be3 	mov.w	fp, r3, asr #31
1a000fdc:	461a      	mov	r2, r3
1a000fde:	1c5e      	adds	r6, r3, #1
1a000fe0:	465b      	mov	r3, fp
1a000fe2:	e9dd ab0a 	ldrd	sl, fp, [sp, #40]	; 0x28
1a000fe6:	4552      	cmp	r2, sl
1a000fe8:	eb73 030b 	sbcs.w	r3, r3, fp
1a000fec:	f280 8625 	bge.w	1a001c3a <__vfprintf+0xc8e>
1a000ff0:	68a3      	ldr	r3, [r4, #8]
1a000ff2:	3b01      	subs	r3, #1
1a000ff4:	2b00      	cmp	r3, #0
1a000ff6:	60a3      	str	r3, [r4, #8]
1a000ff8:	db05      	blt.n	1a001006 <__vfprintf+0x5a>
1a000ffa:	6823      	ldr	r3, [r4, #0]
1a000ffc:	1c5a      	adds	r2, r3, #1
1a000ffe:	6022      	str	r2, [r4, #0]
1a001000:	7018      	strb	r0, [r3, #0]
1a001002:	f000 be1a 	b.w	1a001c3a <__vfprintf+0xc8e>
1a001006:	4621      	mov	r1, r4
1a001008:	f000 fea7 	bl	1a001d5a <__flsbuf>
1a00100c:	f000 be15 	b.w	1a001c3a <__vfprintf+0xc8e>
1a001010:	d90b      	bls.n	1a00102a <__vfprintf+0x7e>
1a001012:	f1b9 0f2d 	cmp.w	r9, #45	; 0x2d
1a001016:	d111      	bne.n	1a00103c <__vfprintf+0x90>
1a001018:	f047 0701 	orr.w	r7, r7, #1
1a00101c:	462a      	mov	r2, r5
1a00101e:	f815 9b01 	ldrb.w	r9, [r5], #1
1a001022:	f1b9 0f2b 	cmp.w	r9, #43	; 0x2b
1a001026:	d1f3      	bne.n	1a001010 <__vfprintf+0x64>
1a001028:	e00e      	b.n	1a001048 <__vfprintf+0x9c>
1a00102a:	f1b9 0f20 	cmp.w	r9, #32
1a00102e:	d00e      	beq.n	1a00104e <__vfprintf+0xa2>
1a001030:	f1b9 0f23 	cmp.w	r9, #35	; 0x23
1a001034:	d10e      	bne.n	1a001054 <__vfprintf+0xa8>
1a001036:	f047 0708 	orr.w	r7, r7, #8
1a00103a:	e7ef      	b.n	1a00101c <__vfprintf+0x70>
1a00103c:	f1b9 0f30 	cmp.w	r9, #48	; 0x30
1a001040:	d108      	bne.n	1a001054 <__vfprintf+0xa8>
1a001042:	f447 7700 	orr.w	r7, r7, #512	; 0x200
1a001046:	e7e9      	b.n	1a00101c <__vfprintf+0x70>
1a001048:	f047 0702 	orr.w	r7, r7, #2
1a00104c:	e7e6      	b.n	1a00101c <__vfprintf+0x70>
1a00104e:	f047 0704 	orr.w	r7, r7, #4
1a001052:	e7e3      	b.n	1a00101c <__vfprintf+0x70>
1a001054:	f1b9 0f2a 	cmp.w	r9, #42	; 0x2a
1a001058:	d001      	beq.n	1a00105e <__vfprintf+0xb2>
1a00105a:	2300      	movs	r3, #0
1a00105c:	e00d      	b.n	1a00107a <__vfprintf+0xce>
1a00105e:	f8d8 3000 	ldr.w	r3, [r8]
1a001062:	f892 9001 	ldrb.w	r9, [r2, #1]
1a001066:	2b00      	cmp	r3, #0
1a001068:	f108 0104 	add.w	r1, r8, #4
1a00106c:	bfbc      	itt	lt
1a00106e:	425b      	neglt	r3, r3
1a001070:	f087 0701 	eorlt.w	r7, r7, #1
1a001074:	1c95      	adds	r5, r2, #2
1a001076:	4688      	mov	r8, r1
1a001078:	e00a      	b.n	1a001090 <__vfprintf+0xe4>
1a00107a:	f1a9 0230 	sub.w	r2, r9, #48	; 0x30
1a00107e:	b2d1      	uxtb	r1, r2
1a001080:	2909      	cmp	r1, #9
1a001082:	d805      	bhi.n	1a001090 <__vfprintf+0xe4>
1a001084:	210a      	movs	r1, #10
1a001086:	fb01 2303 	mla	r3, r1, r3, r2
1a00108a:	f815 9b01 	ldrb.w	r9, [r5], #1
1a00108e:	e7f4      	b.n	1a00107a <__vfprintf+0xce>
1a001090:	ea23 73e3 	bic.w	r3, r3, r3, asr #31
1a001094:	f1b9 0f2e 	cmp.w	r9, #46	; 0x2e
1a001098:	930f      	str	r3, [sp, #60]	; 0x3c
1a00109a:	d124      	bne.n	1a0010e6 <__vfprintf+0x13a>
1a00109c:	f895 9000 	ldrb.w	r9, [r5]
1a0010a0:	f1b9 0f2a 	cmp.w	r9, #42	; 0x2a
1a0010a4:	d003      	beq.n	1a0010ae <__vfprintf+0x102>
1a0010a6:	2300      	movs	r3, #0
1a0010a8:	3501      	adds	r5, #1
1a0010aa:	9306      	str	r3, [sp, #24]
1a0010ac:	e008      	b.n	1a0010c0 <__vfprintf+0x114>
1a0010ae:	f8d8 3000 	ldr.w	r3, [r8]
1a0010b2:	f895 9001 	ldrb.w	r9, [r5, #1]
1a0010b6:	9306      	str	r3, [sp, #24]
1a0010b8:	f108 0804 	add.w	r8, r8, #4
1a0010bc:	3502      	adds	r5, #2
1a0010be:	e00c      	b.n	1a0010da <__vfprintf+0x12e>
1a0010c0:	f1a9 0330 	sub.w	r3, r9, #48	; 0x30
1a0010c4:	b2da      	uxtb	r2, r3
1a0010c6:	2a09      	cmp	r2, #9
1a0010c8:	d807      	bhi.n	1a0010da <__vfprintf+0x12e>
1a0010ca:	9906      	ldr	r1, [sp, #24]
1a0010cc:	f815 9b01 	ldrb.w	r9, [r5], #1
1a0010d0:	220a      	movs	r2, #10
1a0010d2:	fb02 3301 	mla	r3, r2, r1, r3
1a0010d6:	9306      	str	r3, [sp, #24]
1a0010d8:	e7f2      	b.n	1a0010c0 <__vfprintf+0x114>
1a0010da:	9b06      	ldr	r3, [sp, #24]
1a0010dc:	2b00      	cmp	r3, #0
1a0010de:	db02      	blt.n	1a0010e6 <__vfprintf+0x13a>
1a0010e0:	f047 0710 	orr.w	r7, r7, #16
1a0010e4:	e001      	b.n	1a0010ea <__vfprintf+0x13e>
1a0010e6:	2300      	movs	r3, #0
1a0010e8:	9306      	str	r3, [sp, #24]
1a0010ea:	f1b9 0f6c 	cmp.w	r9, #108	; 0x6c
1a0010ee:	d10d      	bne.n	1a00110c <__vfprintf+0x160>
1a0010f0:	f895 9000 	ldrb.w	r9, [r5]
1a0010f4:	f1b9 0f6c 	cmp.w	r9, #108	; 0x6c
1a0010f8:	bf03      	ittte	eq
1a0010fa:	f895 9001 	ldrbeq.w	r9, [r5, #1]
1a0010fe:	f047 0760 	orreq.w	r7, r7, #96	; 0x60
1a001102:	3502      	addeq	r5, #2
1a001104:	3501      	addne	r5, #1
1a001106:	bf18      	it	ne
1a001108:	f047 0720 	orrne.w	r7, r7, #32
1a00110c:	f1b9 0f4c 	cmp.w	r9, #76	; 0x4c
1a001110:	d002      	beq.n	1a001118 <__vfprintf+0x16c>
1a001112:	f1b9 0f71 	cmp.w	r9, #113	; 0x71
1a001116:	d104      	bne.n	1a001122 <__vfprintf+0x176>
1a001118:	f895 9000 	ldrb.w	r9, [r5]
1a00111c:	f047 0760 	orr.w	r7, r7, #96	; 0x60
1a001120:	e01f      	b.n	1a001162 <__vfprintf+0x1b6>
1a001122:	f1b9 0f68 	cmp.w	r9, #104	; 0x68
1a001126:	d10e      	bne.n	1a001146 <__vfprintf+0x19a>
1a001128:	f895 9000 	ldrb.w	r9, [r5]
1a00112c:	f1b9 0f68 	cmp.w	r9, #104	; 0x68
1a001130:	bf03      	ittte	eq
1a001132:	f895 9001 	ldrbeq.w	r9, [r5, #1]
1a001136:	f447 7780 	orreq.w	r7, r7, #256	; 0x100
1a00113a:	3502      	addeq	r5, #2
1a00113c:	3501      	addne	r5, #1
1a00113e:	bf18      	it	ne
1a001140:	f047 0780 	orrne.w	r7, r7, #128	; 0x80
1a001144:	e00e      	b.n	1a001164 <__vfprintf+0x1b8>
1a001146:	f1b9 0f6a 	cmp.w	r9, #106	; 0x6a
1a00114a:	d102      	bne.n	1a001152 <__vfprintf+0x1a6>
1a00114c:	f047 0740 	orr.w	r7, r7, #64	; 0x40
1a001150:	e005      	b.n	1a00115e <__vfprintf+0x1b2>
1a001152:	f1b9 0f7a 	cmp.w	r9, #122	; 0x7a
1a001156:	d002      	beq.n	1a00115e <__vfprintf+0x1b2>
1a001158:	f1b9 0f74 	cmp.w	r9, #116	; 0x74
1a00115c:	d102      	bne.n	1a001164 <__vfprintf+0x1b8>
1a00115e:	f895 9000 	ldrb.w	r9, [r5]
1a001162:	3501      	adds	r5, #1
1a001164:	f1b9 0f67 	cmp.w	r9, #103	; 0x67
1a001168:	dc25      	bgt.n	1a0011b6 <__vfprintf+0x20a>
1a00116a:	f1b9 0f65 	cmp.w	r9, #101	; 0x65
1a00116e:	f280 826e 	bge.w	1a00164e <__vfprintf+0x6a2>
1a001172:	f1b9 0f47 	cmp.w	r9, #71	; 0x47
1a001176:	f000 826a 	beq.w	1a00164e <__vfprintf+0x6a2>
1a00117a:	dc0c      	bgt.n	1a001196 <__vfprintf+0x1ea>
1a00117c:	f1b9 0f41 	cmp.w	r9, #65	; 0x41
1a001180:	f000 825f 	beq.w	1a001642 <__vfprintf+0x696>
1a001184:	f1b9 0f45 	cmp.w	r9, #69	; 0x45
1a001188:	f000 8261 	beq.w	1a00164e <__vfprintf+0x6a2>
1a00118c:	f1b9 0f00 	cmp.w	r9, #0
1a001190:	f000 80b4 	beq.w	1a0012fc <__vfprintf+0x350>
1a001194:	e031      	b.n	1a0011fa <__vfprintf+0x24e>
1a001196:	f1b9 0f61 	cmp.w	r9, #97	; 0x61
1a00119a:	f000 8252 	beq.w	1a001642 <__vfprintf+0x696>
1a00119e:	dc04      	bgt.n	1a0011aa <__vfprintf+0x1fe>
1a0011a0:	f1b9 0f58 	cmp.w	r9, #88	; 0x58
1a0011a4:	f000 8171 	beq.w	1a00148a <__vfprintf+0x4de>
1a0011a8:	e027      	b.n	1a0011fa <__vfprintf+0x24e>
1a0011aa:	f1b9 0f63 	cmp.w	r9, #99	; 0x63
1a0011ae:	d01e      	beq.n	1a0011ee <__vfprintf+0x242>
1a0011b0:	f1b9 0f64 	cmp.w	r9, #100	; 0x64
1a0011b4:	e00c      	b.n	1a0011d0 <__vfprintf+0x224>
1a0011b6:	f1b9 0f70 	cmp.w	r9, #112	; 0x70
1a0011ba:	f000 81b4 	beq.w	1a001526 <__vfprintf+0x57a>
1a0011be:	dc0a      	bgt.n	1a0011d6 <__vfprintf+0x22a>
1a0011c0:	f1b9 0f6e 	cmp.w	r9, #110	; 0x6e
1a0011c4:	f000 809f 	beq.w	1a001306 <__vfprintf+0x35a>
1a0011c8:	f300 81b6 	bgt.w	1a001538 <__vfprintf+0x58c>
1a0011cc:	f1b9 0f69 	cmp.w	r9, #105	; 0x69
1a0011d0:	f000 81f4 	beq.w	1a0015bc <__vfprintf+0x610>
1a0011d4:	e011      	b.n	1a0011fa <__vfprintf+0x24e>
1a0011d6:	f1b9 0f75 	cmp.w	r9, #117	; 0x75
1a0011da:	f000 81cd 	beq.w	1a001578 <__vfprintf+0x5cc>
1a0011de:	f1b9 0f78 	cmp.w	r9, #120	; 0x78
1a0011e2:	f000 8179 	beq.w	1a0014d8 <__vfprintf+0x52c>
1a0011e6:	f1b9 0f73 	cmp.w	r9, #115	; 0x73
1a0011ea:	d106      	bne.n	1a0011fa <__vfprintf+0x24e>
1a0011ec:	e0ae      	b.n	1a00134c <__vfprintf+0x3a0>
1a0011ee:	f108 0304 	add.w	r3, r8, #4
1a0011f2:	930e      	str	r3, [sp, #56]	; 0x38
1a0011f4:	f8d8 9000 	ldr.w	r9, [r8]
1a0011f8:	e001      	b.n	1a0011fe <__vfprintf+0x252>
1a0011fa:	f8cd 8038 	str.w	r8, [sp, #56]	; 0x38
1a0011fe:	9b0f      	ldr	r3, [sp, #60]	; 0x3c
1a001200:	f103 3aff 	add.w	sl, r3, #4294967295
1a001204:	f017 0301 	ands.w	r3, r7, #1
1a001208:	9306      	str	r3, [sp, #24]
1a00120a:	d12e      	bne.n	1a00126a <__vfprintf+0x2be>
1a00120c:	f417 7f00 	tst.w	r7, #512	; 0x200
1a001210:	bf14      	ite	ne
1a001212:	f04f 0830 	movne.w	r8, #48	; 0x30
1a001216:	f04f 0820 	moveq.w	r8, #32
1a00121a:	2600      	movs	r6, #0
1a00121c:	2700      	movs	r7, #0
1a00121e:	9b05      	ldr	r3, [sp, #20]
1a001220:	199a      	adds	r2, r3, r6
1a001222:	9b0f      	ldr	r3, [sp, #60]	; 0x3c
1a001224:	f1a3 0a02 	sub.w	sl, r3, #2
1a001228:	ebba 0a06 	subs.w	sl, sl, r6
1a00122c:	d41c      	bmi.n	1a001268 <__vfprintf+0x2bc>
1a00122e:	9b05      	ldr	r3, [sp, #20]
1a001230:	18f0      	adds	r0, r6, r3
1a001232:	eb47 71e3 	adc.w	r1, r7, r3, asr #31
1a001236:	e9dd 230a 	ldrd	r2, r3, [sp, #40]	; 0x28
1a00123a:	4290      	cmp	r0, r2
1a00123c:	eb71 0303 	sbcs.w	r3, r1, r3
1a001240:	da0e      	bge.n	1a001260 <__vfprintf+0x2b4>
1a001242:	68a2      	ldr	r2, [r4, #8]
1a001244:	3a01      	subs	r2, #1
1a001246:	2a00      	cmp	r2, #0
1a001248:	60a2      	str	r2, [r4, #8]
1a00124a:	db05      	blt.n	1a001258 <__vfprintf+0x2ac>
1a00124c:	6822      	ldr	r2, [r4, #0]
1a00124e:	1c51      	adds	r1, r2, #1
1a001250:	6021      	str	r1, [r4, #0]
1a001252:	f882 8000 	strb.w	r8, [r2]
1a001256:	e003      	b.n	1a001260 <__vfprintf+0x2b4>
1a001258:	4640      	mov	r0, r8
1a00125a:	4621      	mov	r1, r4
1a00125c:	f000 fd7d 	bl	1a001d5a <__flsbuf>
1a001260:	3601      	adds	r6, #1
1a001262:	f147 0700 	adc.w	r7, r7, #0
1a001266:	e7da      	b.n	1a00121e <__vfprintf+0x272>
1a001268:	9205      	str	r2, [sp, #20]
1a00126a:	9b05      	ldr	r3, [sp, #20]
1a00126c:	17d9      	asrs	r1, r3, #31
1a00126e:	461a      	mov	r2, r3
1a001270:	f103 0b01 	add.w	fp, r3, #1
1a001274:	460b      	mov	r3, r1
1a001276:	e9dd 010a 	ldrd	r0, r1, [sp, #40]	; 0x28
1a00127a:	4282      	cmp	r2, r0
1a00127c:	418b      	sbcs	r3, r1
1a00127e:	da0e      	bge.n	1a00129e <__vfprintf+0x2f2>
1a001280:	68a3      	ldr	r3, [r4, #8]
1a001282:	3b01      	subs	r3, #1
1a001284:	2b00      	cmp	r3, #0
1a001286:	60a3      	str	r3, [r4, #8]
1a001288:	db05      	blt.n	1a001296 <__vfprintf+0x2ea>
1a00128a:	6823      	ldr	r3, [r4, #0]
1a00128c:	1c5a      	adds	r2, r3, #1
1a00128e:	6022      	str	r2, [r4, #0]
1a001290:	f883 9000 	strb.w	r9, [r3]
1a001294:	e003      	b.n	1a00129e <__vfprintf+0x2f2>
1a001296:	4648      	mov	r0, r9
1a001298:	4621      	mov	r1, r4
1a00129a:	f000 fd5e 	bl	1a001d5a <__flsbuf>
1a00129e:	9b06      	ldr	r3, [sp, #24]
1a0012a0:	b91b      	cbnz	r3, 1a0012aa <__vfprintf+0x2fe>
1a0012a2:	f8cd b014 	str.w	fp, [sp, #20]
1a0012a6:	f000 bcc5 	b.w	1a001c34 <__vfprintf+0xc88>
1a0012aa:	2600      	movs	r6, #0
1a0012ac:	2700      	movs	r7, #0
1a0012ae:	43f3      	mvns	r3, r6
1a0012b0:	eb13 0f0a 	cmn.w	r3, sl
1a0012b4:	d41b      	bmi.n	1a0012ee <__vfprintf+0x342>
1a0012b6:	e9dd 010a 	ldrd	r0, r1, [sp, #40]	; 0x28
1a0012ba:	eb16 020b 	adds.w	r2, r6, fp
1a0012be:	eb47 73eb 	adc.w	r3, r7, fp, asr #31
1a0012c2:	4282      	cmp	r2, r0
1a0012c4:	418b      	sbcs	r3, r1
1a0012c6:	da0e      	bge.n	1a0012e6 <__vfprintf+0x33a>
1a0012c8:	68a3      	ldr	r3, [r4, #8]
1a0012ca:	3b01      	subs	r3, #1
1a0012cc:	2b00      	cmp	r3, #0
1a0012ce:	60a3      	str	r3, [r4, #8]
1a0012d0:	db05      	blt.n	1a0012de <__vfprintf+0x332>
1a0012d2:	6823      	ldr	r3, [r4, #0]
1a0012d4:	1c5a      	adds	r2, r3, #1
1a0012d6:	6022      	str	r2, [r4, #0]
1a0012d8:	2220      	movs	r2, #32
1a0012da:	701a      	strb	r2, [r3, #0]
1a0012dc:	e003      	b.n	1a0012e6 <__vfprintf+0x33a>
1a0012de:	2020      	movs	r0, #32
1a0012e0:	4621      	mov	r1, r4
1a0012e2:	f000 fd3a 	bl	1a001d5a <__flsbuf>
1a0012e6:	3601      	adds	r6, #1
1a0012e8:	f147 0700 	adc.w	r7, r7, #0
1a0012ec:	e7df      	b.n	1a0012ae <__vfprintf+0x302>
1a0012ee:	465b      	mov	r3, fp
1a0012f0:	f1ba 0f00 	cmp.w	sl, #0
1a0012f4:	bfa8      	it	ge
1a0012f6:	4453      	addge	r3, sl
1a0012f8:	f000 bc9b 	b.w	1a001c32 <__vfprintf+0xc86>
1a0012fc:	3d01      	subs	r5, #1
1a0012fe:	f8cd 8038 	str.w	r8, [sp, #56]	; 0x38
1a001302:	f000 bc97 	b.w	1a001c34 <__vfprintf+0xc88>
1a001306:	f108 0304 	add.w	r3, r8, #4
1a00130a:	f017 0f40 	tst.w	r7, #64	; 0x40
1a00130e:	930e      	str	r3, [sp, #56]	; 0x38
1a001310:	f8d8 3000 	ldr.w	r3, [r8]
1a001314:	d006      	beq.n	1a001324 <__vfprintf+0x378>
1a001316:	9a05      	ldr	r2, [sp, #20]
1a001318:	4610      	mov	r0, r2
1a00131a:	17d1      	asrs	r1, r2, #31
1a00131c:	e9c3 0100 	strd	r0, r1, [r3]
1a001320:	f000 bc88 	b.w	1a001c34 <__vfprintf+0xc88>
1a001324:	06be      	lsls	r6, r7, #26
1a001326:	d40d      	bmi.n	1a001344 <__vfprintf+0x398>
1a001328:	05f8      	lsls	r0, r7, #23
1a00132a:	d504      	bpl.n	1a001336 <__vfprintf+0x38a>
1a00132c:	f89d 2014 	ldrb.w	r2, [sp, #20]
1a001330:	701a      	strb	r2, [r3, #0]
1a001332:	f000 bc7f 	b.w	1a001c34 <__vfprintf+0xc88>
1a001336:	0639      	lsls	r1, r7, #24
1a001338:	d504      	bpl.n	1a001344 <__vfprintf+0x398>
1a00133a:	f8bd 2014 	ldrh.w	r2, [sp, #20]
1a00133e:	801a      	strh	r2, [r3, #0]
1a001340:	f000 bc78 	b.w	1a001c34 <__vfprintf+0xc88>
1a001344:	9a05      	ldr	r2, [sp, #20]
1a001346:	601a      	str	r2, [r3, #0]
1a001348:	f000 bc74 	b.w	1a001c34 <__vfprintf+0xc88>
1a00134c:	f108 0304 	add.w	r3, r8, #4
1a001350:	930e      	str	r3, [sp, #56]	; 0x38
1a001352:	f8d8 9000 	ldr.w	r9, [r8]
1a001356:	4bab      	ldr	r3, [pc, #684]	; (1a001604 <__vfprintf+0x658>)
1a001358:	f1b9 0f00 	cmp.w	r9, #0
1a00135c:	bf08      	it	eq
1a00135e:	4699      	moveq	r9, r3
1a001360:	4648      	mov	r0, r9
1a001362:	f000 fcb1 	bl	1a001cc8 <strlen>
1a001366:	06fa      	lsls	r2, r7, #27
1a001368:	4682      	mov	sl, r0
1a00136a:	d503      	bpl.n	1a001374 <__vfprintf+0x3c8>
1a00136c:	9b06      	ldr	r3, [sp, #24]
1a00136e:	4298      	cmp	r0, r3
1a001370:	bfa8      	it	ge
1a001372:	469a      	movge	sl, r3
1a001374:	9b0f      	ldr	r3, [sp, #60]	; 0x3c
1a001376:	ebca 0b03 	rsb	fp, sl, r3
1a00137a:	f017 0301 	ands.w	r3, r7, #1
1a00137e:	9306      	str	r3, [sp, #24]
1a001380:	d131      	bne.n	1a0013e6 <__vfprintf+0x43a>
1a001382:	f417 7f00 	tst.w	r7, #512	; 0x200
1a001386:	bf14      	ite	ne
1a001388:	f04f 0830 	movne.w	r8, #48	; 0x30
1a00138c:	f04f 0820 	moveq.w	r8, #32
1a001390:	2600      	movs	r6, #0
1a001392:	2700      	movs	r7, #0
1a001394:	f10b 32ff 	add.w	r2, fp, #4294967295
1a001398:	1b91      	subs	r1, r2, r6
1a00139a:	2900      	cmp	r1, #0
1a00139c:	db1c      	blt.n	1a0013d8 <__vfprintf+0x42c>
1a00139e:	9b05      	ldr	r3, [sp, #20]
1a0013a0:	18f0      	adds	r0, r6, r3
1a0013a2:	eb47 71e3 	adc.w	r1, r7, r3, asr #31
1a0013a6:	e9dd 230a 	ldrd	r2, r3, [sp, #40]	; 0x28
1a0013aa:	4290      	cmp	r0, r2
1a0013ac:	eb71 0303 	sbcs.w	r3, r1, r3
1a0013b0:	da0e      	bge.n	1a0013d0 <__vfprintf+0x424>
1a0013b2:	68a2      	ldr	r2, [r4, #8]
1a0013b4:	3a01      	subs	r2, #1
1a0013b6:	2a00      	cmp	r2, #0
1a0013b8:	60a2      	str	r2, [r4, #8]
1a0013ba:	db05      	blt.n	1a0013c8 <__vfprintf+0x41c>
1a0013bc:	6822      	ldr	r2, [r4, #0]
1a0013be:	1c51      	adds	r1, r2, #1
1a0013c0:	6021      	str	r1, [r4, #0]
1a0013c2:	f882 8000 	strb.w	r8, [r2]
1a0013c6:	e003      	b.n	1a0013d0 <__vfprintf+0x424>
1a0013c8:	4640      	mov	r0, r8
1a0013ca:	4621      	mov	r1, r4
1a0013cc:	f000 fcc5 	bl	1a001d5a <__flsbuf>
1a0013d0:	3601      	adds	r6, #1
1a0013d2:	f147 0700 	adc.w	r7, r7, #0
1a0013d6:	e7dd      	b.n	1a001394 <__vfprintf+0x3e8>
1a0013d8:	9b05      	ldr	r3, [sp, #20]
1a0013da:	ea2b 7beb 	bic.w	fp, fp, fp, asr #31
1a0013de:	445b      	add	r3, fp
1a0013e0:	9305      	str	r3, [sp, #20]
1a0013e2:	ebcb 0b02 	rsb	fp, fp, r2
1a0013e6:	2600      	movs	r6, #0
1a0013e8:	2700      	movs	r7, #0
1a0013ea:	45b2      	cmp	sl, r6
1a0013ec:	9b05      	ldr	r3, [sp, #20]
1a0013ee:	dd1c      	ble.n	1a00142a <__vfprintf+0x47e>
1a0013f0:	e9dd 010a 	ldrd	r0, r1, [sp, #40]	; 0x28
1a0013f4:	18f2      	adds	r2, r6, r3
1a0013f6:	eb47 73e3 	adc.w	r3, r7, r3, asr #31
1a0013fa:	4282      	cmp	r2, r0
1a0013fc:	418b      	sbcs	r3, r1
1a0013fe:	da10      	bge.n	1a001422 <__vfprintf+0x476>
1a001400:	68a3      	ldr	r3, [r4, #8]
1a001402:	3b01      	subs	r3, #1
1a001404:	2b00      	cmp	r3, #0
1a001406:	60a3      	str	r3, [r4, #8]
1a001408:	eb09 0306 	add.w	r3, r9, r6
1a00140c:	db05      	blt.n	1a00141a <__vfprintf+0x46e>
1a00140e:	6822      	ldr	r2, [r4, #0]
1a001410:	1c51      	adds	r1, r2, #1
1a001412:	6021      	str	r1, [r4, #0]
1a001414:	781b      	ldrb	r3, [r3, #0]
1a001416:	7013      	strb	r3, [r2, #0]
1a001418:	e003      	b.n	1a001422 <__vfprintf+0x476>
1a00141a:	7818      	ldrb	r0, [r3, #0]
1a00141c:	4621      	mov	r1, r4
1a00141e:	f000 fc9c 	bl	1a001d5a <__flsbuf>
1a001422:	3601      	adds	r6, #1
1a001424:	f147 0700 	adc.w	r7, r7, #0
1a001428:	e7df      	b.n	1a0013ea <__vfprintf+0x43e>
1a00142a:	f1ba 0f00 	cmp.w	sl, #0
1a00142e:	bfa8      	it	ge
1a001430:	4453      	addge	r3, sl
1a001432:	9305      	str	r3, [sp, #20]
1a001434:	9b06      	ldr	r3, [sp, #24]
1a001436:	2b00      	cmp	r3, #0
1a001438:	f000 83fc 	beq.w	1a001c34 <__vfprintf+0xc88>
1a00143c:	2600      	movs	r6, #0
1a00143e:	2700      	movs	r7, #0
1a001440:	43f3      	mvns	r3, r6
1a001442:	eb13 0f0b 	cmn.w	r3, fp
1a001446:	9b05      	ldr	r3, [sp, #20]
1a001448:	d41a      	bmi.n	1a001480 <__vfprintf+0x4d4>
1a00144a:	e9dd 010a 	ldrd	r0, r1, [sp, #40]	; 0x28
1a00144e:	18f2      	adds	r2, r6, r3
1a001450:	eb47 73e3 	adc.w	r3, r7, r3, asr #31
1a001454:	4282      	cmp	r2, r0
1a001456:	418b      	sbcs	r3, r1
1a001458:	da0e      	bge.n	1a001478 <__vfprintf+0x4cc>
1a00145a:	68a3      	ldr	r3, [r4, #8]
1a00145c:	3b01      	subs	r3, #1
1a00145e:	2b00      	cmp	r3, #0
1a001460:	60a3      	str	r3, [r4, #8]
1a001462:	db05      	blt.n	1a001470 <__vfprintf+0x4c4>
1a001464:	6823      	ldr	r3, [r4, #0]
1a001466:	1c5a      	adds	r2, r3, #1
1a001468:	6022      	str	r2, [r4, #0]
1a00146a:	2220      	movs	r2, #32
1a00146c:	701a      	strb	r2, [r3, #0]
1a00146e:	e003      	b.n	1a001478 <__vfprintf+0x4cc>
1a001470:	2020      	movs	r0, #32
1a001472:	4621      	mov	r1, r4
1a001474:	f000 fc71 	bl	1a001d5a <__flsbuf>
1a001478:	3601      	adds	r6, #1
1a00147a:	f147 0700 	adc.w	r7, r7, #0
1a00147e:	e7df      	b.n	1a001440 <__vfprintf+0x494>
1a001480:	f1bb 0f00 	cmp.w	fp, #0
1a001484:	bfa8      	it	ge
1a001486:	445b      	addge	r3, fp
1a001488:	e3d3      	b.n	1a001c32 <__vfprintf+0xc86>
1a00148a:	067b      	lsls	r3, r7, #25
1a00148c:	d509      	bpl.n	1a0014a2 <__vfprintf+0x4f6>
1a00148e:	f108 0807 	add.w	r8, r8, #7
1a001492:	f028 0807 	bic.w	r8, r8, #7
1a001496:	f108 0308 	add.w	r3, r8, #8
1a00149a:	930e      	str	r3, [sp, #56]	; 0x38
1a00149c:	e9d8 2300 	ldrd	r2, r3, [r8]
1a0014a0:	e005      	b.n	1a0014ae <__vfprintf+0x502>
1a0014a2:	f108 0304 	add.w	r3, r8, #4
1a0014a6:	f8d8 2000 	ldr.w	r2, [r8]
1a0014aa:	930e      	str	r3, [sp, #56]	; 0x38
1a0014ac:	2300      	movs	r3, #0
1a0014ae:	063e      	lsls	r6, r7, #24
1a0014b0:	d501      	bpl.n	1a0014b6 <__vfprintf+0x50a>
1a0014b2:	b292      	uxth	r2, r2
1a0014b4:	e003      	b.n	1a0014be <__vfprintf+0x512>
1a0014b6:	05f8      	lsls	r0, r7, #23
1a0014b8:	d502      	bpl.n	1a0014c0 <__vfprintf+0x514>
1a0014ba:	f002 02ff 	and.w	r2, r2, #255	; 0xff
1a0014be:	2300      	movs	r3, #0
1a0014c0:	4951      	ldr	r1, [pc, #324]	; (1a001608 <__vfprintf+0x65c>)
1a0014c2:	4852      	ldr	r0, [pc, #328]	; (1a00160c <__vfprintf+0x660>)
1a0014c4:	f017 0f08 	tst.w	r7, #8
1a0014c8:	bf08      	it	eq
1a0014ca:	4608      	moveq	r0, r1
1a0014cc:	06f9      	lsls	r1, r7, #27
1a0014ce:	f140 80d6 	bpl.w	1a00167e <__vfprintf+0x6d2>
1a0014d2:	f427 7700 	bic.w	r7, r7, #512	; 0x200
1a0014d6:	e0d2      	b.n	1a00167e <__vfprintf+0x6d2>
1a0014d8:	067b      	lsls	r3, r7, #25
1a0014da:	d509      	bpl.n	1a0014f0 <__vfprintf+0x544>
1a0014dc:	f108 0807 	add.w	r8, r8, #7
1a0014e0:	f028 0807 	bic.w	r8, r8, #7
1a0014e4:	f108 0308 	add.w	r3, r8, #8
1a0014e8:	930e      	str	r3, [sp, #56]	; 0x38
1a0014ea:	e9d8 2300 	ldrd	r2, r3, [r8]
1a0014ee:	e005      	b.n	1a0014fc <__vfprintf+0x550>
1a0014f0:	f108 0304 	add.w	r3, r8, #4
1a0014f4:	f8d8 2000 	ldr.w	r2, [r8]
1a0014f8:	930e      	str	r3, [sp, #56]	; 0x38
1a0014fa:	2300      	movs	r3, #0
1a0014fc:	063e      	lsls	r6, r7, #24
1a0014fe:	d501      	bpl.n	1a001504 <__vfprintf+0x558>
1a001500:	b292      	uxth	r2, r2
1a001502:	e003      	b.n	1a00150c <__vfprintf+0x560>
1a001504:	05f8      	lsls	r0, r7, #23
1a001506:	d502      	bpl.n	1a00150e <__vfprintf+0x562>
1a001508:	f002 02ff 	and.w	r2, r2, #255	; 0xff
1a00150c:	2300      	movs	r3, #0
1a00150e:	493e      	ldr	r1, [pc, #248]	; (1a001608 <__vfprintf+0x65c>)
1a001510:	483f      	ldr	r0, [pc, #252]	; (1a001610 <__vfprintf+0x664>)
1a001512:	f017 0f08 	tst.w	r7, #8
1a001516:	bf08      	it	eq
1a001518:	4608      	moveq	r0, r1
1a00151a:	06f9      	lsls	r1, r7, #27
1a00151c:	f140 80b1 	bpl.w	1a001682 <__vfprintf+0x6d6>
1a001520:	f427 7700 	bic.w	r7, r7, #512	; 0x200
1a001524:	e0ad      	b.n	1a001682 <__vfprintf+0x6d6>
1a001526:	f108 0304 	add.w	r3, r8, #4
1a00152a:	930e      	str	r3, [sp, #56]	; 0x38
1a00152c:	f8d8 2000 	ldr.w	r2, [r8]
1a001530:	4938      	ldr	r1, [pc, #224]	; (1a001614 <__vfprintf+0x668>)
1a001532:	4837      	ldr	r0, [pc, #220]	; (1a001610 <__vfprintf+0x664>)
1a001534:	2300      	movs	r3, #0
1a001536:	e0a7      	b.n	1a001688 <__vfprintf+0x6dc>
1a001538:	067e      	lsls	r6, r7, #25
1a00153a:	d509      	bpl.n	1a001550 <__vfprintf+0x5a4>
1a00153c:	f108 0807 	add.w	r8, r8, #7
1a001540:	f028 0807 	bic.w	r8, r8, #7
1a001544:	f108 0308 	add.w	r3, r8, #8
1a001548:	930e      	str	r3, [sp, #56]	; 0x38
1a00154a:	e9d8 2300 	ldrd	r2, r3, [r8]
1a00154e:	e005      	b.n	1a00155c <__vfprintf+0x5b0>
1a001550:	f108 0304 	add.w	r3, r8, #4
1a001554:	f8d8 2000 	ldr.w	r2, [r8]
1a001558:	930e      	str	r3, [sp, #56]	; 0x38
1a00155a:	2300      	movs	r3, #0
1a00155c:	0638      	lsls	r0, r7, #24
1a00155e:	d501      	bpl.n	1a001564 <__vfprintf+0x5b8>
1a001560:	b292      	uxth	r2, r2
1a001562:	e003      	b.n	1a00156c <__vfprintf+0x5c0>
1a001564:	05f9      	lsls	r1, r7, #23
1a001566:	d502      	bpl.n	1a00156e <__vfprintf+0x5c2>
1a001568:	f002 02ff 	and.w	r2, r2, #255	; 0xff
1a00156c:	2300      	movs	r3, #0
1a00156e:	f017 0f08 	tst.w	r7, #8
1a001572:	4925      	ldr	r1, [pc, #148]	; (1a001608 <__vfprintf+0x65c>)
1a001574:	4828      	ldr	r0, [pc, #160]	; (1a001618 <__vfprintf+0x66c>)
1a001576:	e059      	b.n	1a00162c <__vfprintf+0x680>
1a001578:	067e      	lsls	r6, r7, #25
1a00157a:	d509      	bpl.n	1a001590 <__vfprintf+0x5e4>
1a00157c:	f108 0807 	add.w	r8, r8, #7
1a001580:	f028 0807 	bic.w	r8, r8, #7
1a001584:	f108 0308 	add.w	r3, r8, #8
1a001588:	930e      	str	r3, [sp, #56]	; 0x38
1a00158a:	e9d8 2300 	ldrd	r2, r3, [r8]
1a00158e:	e005      	b.n	1a00159c <__vfprintf+0x5f0>
1a001590:	f108 0304 	add.w	r3, r8, #4
1a001594:	f8d8 2000 	ldr.w	r2, [r8]
1a001598:	930e      	str	r3, [sp, #56]	; 0x38
1a00159a:	2300      	movs	r3, #0
1a00159c:	0638      	lsls	r0, r7, #24
1a00159e:	d501      	bpl.n	1a0015a4 <__vfprintf+0x5f8>
1a0015a0:	b292      	uxth	r2, r2
1a0015a2:	e003      	b.n	1a0015ac <__vfprintf+0x600>
1a0015a4:	05f9      	lsls	r1, r7, #23
1a0015a6:	d502      	bpl.n	1a0015ae <__vfprintf+0x602>
1a0015a8:	f002 02ff 	and.w	r2, r2, #255	; 0xff
1a0015ac:	2300      	movs	r3, #0
1a0015ae:	f017 0110 	ands.w	r1, r7, #16
1a0015b2:	d068      	beq.n	1a001686 <__vfprintf+0x6da>
1a0015b4:	f427 7700 	bic.w	r7, r7, #512	; 0x200
1a0015b8:	2100      	movs	r1, #0
1a0015ba:	e064      	b.n	1a001686 <__vfprintf+0x6da>
1a0015bc:	067b      	lsls	r3, r7, #25
1a0015be:	d509      	bpl.n	1a0015d4 <__vfprintf+0x628>
1a0015c0:	f108 0807 	add.w	r8, r8, #7
1a0015c4:	f028 0807 	bic.w	r8, r8, #7
1a0015c8:	f108 0308 	add.w	r3, r8, #8
1a0015cc:	930e      	str	r3, [sp, #56]	; 0x38
1a0015ce:	e9d8 2300 	ldrd	r2, r3, [r8]
1a0015d2:	e005      	b.n	1a0015e0 <__vfprintf+0x634>
1a0015d4:	f8d8 2000 	ldr.w	r2, [r8]
1a0015d8:	f108 0304 	add.w	r3, r8, #4
1a0015dc:	930e      	str	r3, [sp, #56]	; 0x38
1a0015de:	17d3      	asrs	r3, r2, #31
1a0015e0:	063e      	lsls	r6, r7, #24
1a0015e2:	d501      	bpl.n	1a0015e8 <__vfprintf+0x63c>
1a0015e4:	b212      	sxth	r2, r2
1a0015e6:	e002      	b.n	1a0015ee <__vfprintf+0x642>
1a0015e8:	05f8      	lsls	r0, r7, #23
1a0015ea:	d501      	bpl.n	1a0015f0 <__vfprintf+0x644>
1a0015ec:	b252      	sxtb	r2, r2
1a0015ee:	17d3      	asrs	r3, r2, #31
1a0015f0:	2a00      	cmp	r2, #0
1a0015f2:	f173 0100 	sbcs.w	r1, r3, #0
1a0015f6:	da13      	bge.n	1a001620 <__vfprintf+0x674>
1a0015f8:	4252      	negs	r2, r2
1a0015fa:	eb63 0343 	sbc.w	r3, r3, r3, lsl #1
1a0015fe:	4807      	ldr	r0, [pc, #28]	; (1a00161c <__vfprintf+0x670>)
1a001600:	e018      	b.n	1a001634 <__vfprintf+0x688>
1a001602:	bf00      	nop
1a001604:	1a002bfc 	.word	0x1a002bfc
1a001608:	1a002c44 	.word	0x1a002c44
1a00160c:	1a002c03 	.word	0x1a002c03
1a001610:	1a002c06 	.word	0x1a002c06
1a001614:	1a002c1c 	.word	0x1a002c1c
1a001618:	1a002c09 	.word	0x1a002c09
1a00161c:	1a002bf6 	.word	0x1a002bf6
1a001620:	07b9      	lsls	r1, r7, #30
1a001622:	d406      	bmi.n	1a001632 <__vfprintf+0x686>
1a001624:	49b5      	ldr	r1, [pc, #724]	; (1a0018fc <__vfprintf+0x950>)
1a001626:	48b6      	ldr	r0, [pc, #728]	; (1a001900 <__vfprintf+0x954>)
1a001628:	f017 0f04 	tst.w	r7, #4
1a00162c:	bf08      	it	eq
1a00162e:	4608      	moveq	r0, r1
1a001630:	e000      	b.n	1a001634 <__vfprintf+0x688>
1a001632:	48b4      	ldr	r0, [pc, #720]	; (1a001904 <__vfprintf+0x958>)
1a001634:	f017 0110 	ands.w	r1, r7, #16
1a001638:	d026      	beq.n	1a001688 <__vfprintf+0x6dc>
1a00163a:	f427 7700 	bic.w	r7, r7, #512	; 0x200
1a00163e:	2100      	movs	r1, #0
1a001640:	e022      	b.n	1a001688 <__vfprintf+0x6dc>
1a001642:	06fb      	lsls	r3, r7, #27
1a001644:	bf5e      	ittt	pl
1a001646:	230d      	movpl	r3, #13
1a001648:	f047 0710 	orrpl.w	r7, r7, #16
1a00164c:	9306      	strpl	r3, [sp, #24]
1a00164e:	f017 0f10 	tst.w	r7, #16
1a001652:	f108 0807 	add.w	r8, r8, #7
1a001656:	9b06      	ldr	r3, [sp, #24]
1a001658:	f028 0807 	bic.w	r8, r8, #7
1a00165c:	bf08      	it	eq
1a00165e:	2306      	moveq	r3, #6
1a001660:	9306      	str	r3, [sp, #24]
1a001662:	f108 0308 	add.w	r3, r8, #8
1a001666:	930e      	str	r3, [sp, #56]	; 0x38
1a001668:	e9d8 2300 	ldrd	r2, r3, [r8]
1a00166c:	2100      	movs	r1, #0
1a00166e:	e9cd 2322 	strd	r2, r3, [sp, #136]	; 0x88
1a001672:	f447 6780 	orr.w	r7, r7, #1024	; 0x400
1a001676:	2200      	movs	r2, #0
1a001678:	2300      	movs	r3, #0
1a00167a:	4608      	mov	r0, r1
1a00167c:	e004      	b.n	1a001688 <__vfprintf+0x6dc>
1a00167e:	49a2      	ldr	r1, [pc, #648]	; (1a001908 <__vfprintf+0x95c>)
1a001680:	e002      	b.n	1a001688 <__vfprintf+0x6dc>
1a001682:	49a2      	ldr	r1, [pc, #648]	; (1a00190c <__vfprintf+0x960>)
1a001684:	e000      	b.n	1a001688 <__vfprintf+0x6dc>
1a001686:	489d      	ldr	r0, [pc, #628]	; (1a0018fc <__vfprintf+0x950>)
1a001688:	9e05      	ldr	r6, [sp, #20]
1a00168a:	901f      	str	r0, [sp, #124]	; 0x7c
1a00168c:	e9dd ab0a 	ldrd	sl, fp, [sp, #40]	; 0x28
1a001690:	ebba 0a06 	subs.w	sl, sl, r6
1a001694:	eb6b 7be6 	sbc.w	fp, fp, r6, asr #31
1a001698:	e9cd ab08 	strd	sl, fp, [sp, #32]
1a00169c:	f04f 30ff 	mov.w	r0, #4294967295
1a0016a0:	9e06      	ldr	r6, [sp, #24]
1a0016a2:	9020      	str	r0, [sp, #128]	; 0x80
1a0016a4:	9021      	str	r0, [sp, #132]	; 0x84
1a0016a6:	961e      	str	r6, [sp, #120]	; 0x78
1a0016a8:	2000      	movs	r0, #0
1a0016aa:	ae24      	add	r6, sp, #144	; 0x90
1a0016ac:	f04f 0e55 	mov.w	lr, #85	; 0x55
1a0016b0:	f800 e006 	strb.w	lr, [r0, r6]
1a0016b4:	3001      	adds	r0, #1
1a0016b6:	2820      	cmp	r0, #32
1a0016b8:	d1f7      	bne.n	1a0016aa <__vfprintf+0x6fe>
1a0016ba:	f417 6f82 	tst.w	r7, #1040	; 0x410
1a0016be:	bf04      	itt	eq
1a0016c0:	2001      	moveq	r0, #1
1a0016c2:	901e      	streq	r0, [sp, #120]	; 0x78
1a0016c4:	f1b9 0f67 	cmp.w	r9, #103	; 0x67
1a0016c8:	dc1b      	bgt.n	1a001702 <__vfprintf+0x756>
1a0016ca:	f1b9 0f65 	cmp.w	r9, #101	; 0x65
1a0016ce:	f280 80d3 	bge.w	1a001878 <__vfprintf+0x8cc>
1a0016d2:	f1b9 0f47 	cmp.w	r9, #71	; 0x47
1a0016d6:	f000 80cf 	beq.w	1a001878 <__vfprintf+0x8cc>
1a0016da:	dc08      	bgt.n	1a0016ee <__vfprintf+0x742>
1a0016dc:	f1b9 0f41 	cmp.w	r9, #65	; 0x41
1a0016e0:	f000 80ca 	beq.w	1a001878 <__vfprintf+0x8cc>
1a0016e4:	f1b9 0f45 	cmp.w	r9, #69	; 0x45
1a0016e8:	f040 80d6 	bne.w	1a001898 <__vfprintf+0x8ec>
1a0016ec:	e0c4      	b.n	1a001878 <__vfprintf+0x8cc>
1a0016ee:	f1b9 0f61 	cmp.w	r9, #97	; 0x61
1a0016f2:	f000 80c1 	beq.w	1a001878 <__vfprintf+0x8cc>
1a0016f6:	f1b9 0f64 	cmp.w	r9, #100	; 0x64
1a0016fa:	d017      	beq.n	1a00172c <__vfprintf+0x780>
1a0016fc:	f1b9 0f58 	cmp.w	r9, #88	; 0x58
1a001700:	e011      	b.n	1a001726 <__vfprintf+0x77a>
1a001702:	f1b9 0f70 	cmp.w	r9, #112	; 0x70
1a001706:	d014      	beq.n	1a001732 <__vfprintf+0x786>
1a001708:	dc08      	bgt.n	1a00171c <__vfprintf+0x770>
1a00170a:	f1b9 0f69 	cmp.w	r9, #105	; 0x69
1a00170e:	d00d      	beq.n	1a00172c <__vfprintf+0x780>
1a001710:	f1b9 0f6f 	cmp.w	r9, #111	; 0x6f
1a001714:	f040 80c0 	bne.w	1a001898 <__vfprintf+0x8ec>
1a001718:	2100      	movs	r1, #0
1a00171a:	e020      	b.n	1a00175e <__vfprintf+0x7b2>
1a00171c:	f1b9 0f75 	cmp.w	r9, #117	; 0x75
1a001720:	d004      	beq.n	1a00172c <__vfprintf+0x780>
1a001722:	f1b9 0f78 	cmp.w	r9, #120	; 0x78
1a001726:	f040 80b7 	bne.w	1a001898 <__vfprintf+0x8ec>
1a00172a:	e002      	b.n	1a001732 <__vfprintf+0x786>
1a00172c:	f04f 0e00 	mov.w	lr, #0
1a001730:	e027      	b.n	1a001782 <__vfprintf+0x7d6>
1a001732:	2000      	movs	r0, #0
1a001734:	ea52 0e03 	orrs.w	lr, r2, r3
1a001738:	4606      	mov	r6, r0
1a00173a:	f000 80ae 	beq.w	1a00189a <__vfprintf+0x8ee>
1a00173e:	f002 060f 	and.w	r6, r2, #15
1a001742:	f811 e006 	ldrb.w	lr, [r1, r6]
1a001746:	ae24      	add	r6, sp, #144	; 0x90
1a001748:	f800 e006 	strb.w	lr, [r0, r6]
1a00174c:	0916      	lsrs	r6, r2, #4
1a00174e:	ea46 7603 	orr.w	r6, r6, r3, lsl #28
1a001752:	ea4f 1e13 	mov.w	lr, r3, lsr #4
1a001756:	4632      	mov	r2, r6
1a001758:	4673      	mov	r3, lr
1a00175a:	3001      	adds	r0, #1
1a00175c:	e7ea      	b.n	1a001734 <__vfprintf+0x788>
1a00175e:	ea52 0003 	orrs.w	r0, r2, r3
1a001762:	460e      	mov	r6, r1
1a001764:	f000 8099 	beq.w	1a00189a <__vfprintf+0x8ee>
1a001768:	f002 0007 	and.w	r0, r2, #7
1a00176c:	ae24      	add	r6, sp, #144	; 0x90
1a00176e:	3030      	adds	r0, #48	; 0x30
1a001770:	5588      	strb	r0, [r1, r6]
1a001772:	08d0      	lsrs	r0, r2, #3
1a001774:	ea40 7043 	orr.w	r0, r0, r3, lsl #29
1a001778:	08de      	lsrs	r6, r3, #3
1a00177a:	4602      	mov	r2, r0
1a00177c:	4633      	mov	r3, r6
1a00177e:	3101      	adds	r1, #1
1a001780:	e7ed      	b.n	1a00175e <__vfprintf+0x7b2>
1a001782:	ea52 0103 	orrs.w	r1, r2, r3
1a001786:	4676      	mov	r6, lr
1a001788:	f000 8087 	beq.w	1a00189a <__vfprintf+0x8ee>
1a00178c:	0891      	lsrs	r1, r2, #2
1a00178e:	ea41 7183 	orr.w	r1, r1, r3, lsl #30
1a001792:	9118      	str	r1, [sp, #96]	; 0x60
1a001794:	0899      	lsrs	r1, r3, #2
1a001796:	9119      	str	r1, [sp, #100]	; 0x64
1a001798:	e9dd 8918 	ldrd	r8, r9, [sp, #96]	; 0x60
1a00179c:	0859      	lsrs	r1, r3, #1
1a00179e:	ea4f 0032 	mov.w	r0, r2, rrx
1a0017a2:	eb18 0800 	adds.w	r8, r8, r0
1a0017a6:	4640      	mov	r0, r8
1a0017a8:	eb49 0901 	adc.w	r9, r9, r1
1a0017ac:	0906      	lsrs	r6, r0, #4
1a0017ae:	4649      	mov	r1, r9
1a0017b0:	ea46 7609 	orr.w	r6, r6, r9, lsl #28
1a0017b4:	9610      	str	r6, [sp, #64]	; 0x40
1a0017b6:	090e      	lsrs	r6, r1, #4
1a0017b8:	9611      	str	r6, [sp, #68]	; 0x44
1a0017ba:	e9dd 8910 	ldrd	r8, r9, [sp, #64]	; 0x40
1a0017be:	eb18 0800 	adds.w	r8, r8, r0
1a0017c2:	4640      	mov	r0, r8
1a0017c4:	eb49 0901 	adc.w	r9, r9, r1
1a0017c8:	0a06      	lsrs	r6, r0, #8
1a0017ca:	4649      	mov	r1, r9
1a0017cc:	ea46 6609 	orr.w	r6, r6, r9, lsl #24
1a0017d0:	9612      	str	r6, [sp, #72]	; 0x48
1a0017d2:	0a0e      	lsrs	r6, r1, #8
1a0017d4:	9613      	str	r6, [sp, #76]	; 0x4c
1a0017d6:	e9dd 8912 	ldrd	r8, r9, [sp, #72]	; 0x48
1a0017da:	eb18 0800 	adds.w	r8, r8, r0
1a0017de:	4640      	mov	r0, r8
1a0017e0:	eb49 0901 	adc.w	r9, r9, r1
1a0017e4:	0c06      	lsrs	r6, r0, #16
1a0017e6:	4649      	mov	r1, r9
1a0017e8:	ea46 4609 	orr.w	r6, r6, r9, lsl #16
1a0017ec:	9614      	str	r6, [sp, #80]	; 0x50
1a0017ee:	0c0e      	lsrs	r6, r1, #16
1a0017f0:	9615      	str	r6, [sp, #84]	; 0x54
1a0017f2:	e9dd 8914 	ldrd	r8, r9, [sp, #80]	; 0x50
1a0017f6:	eb18 0800 	adds.w	r8, r8, r0
1a0017fa:	eb49 0901 	adc.w	r9, r9, r1
1a0017fe:	2600      	movs	r6, #0
1a001800:	961b      	str	r6, [sp, #108]	; 0x6c
1a001802:	f8cd 9068 	str.w	r9, [sp, #104]	; 0x68
1a001806:	4640      	mov	r0, r8
1a001808:	4649      	mov	r1, r9
1a00180a:	e9dd 891a 	ldrd	r8, r9, [sp, #104]	; 0x68
1a00180e:	eb18 0800 	adds.w	r8, r8, r0
1a001812:	eb49 0901 	adc.w	r9, r9, r1
1a001816:	4640      	mov	r0, r8
1a001818:	4649      	mov	r1, r9
1a00181a:	08c6      	lsrs	r6, r0, #3
1a00181c:	08c9      	lsrs	r1, r1, #3
1a00181e:	1d90      	adds	r0, r2, #6
1a001820:	ea46 7649 	orr.w	r6, r6, r9, lsl #29
1a001824:	910d      	str	r1, [sp, #52]	; 0x34
1a001826:	f143 0100 	adc.w	r1, r3, #0
1a00182a:	230a      	movs	r3, #10
1a00182c:	fba6 8903 	umull	r8, r9, r6, r3
1a001830:	960c      	str	r6, [sp, #48]	; 0x30
1a001832:	9e0d      	ldr	r6, [sp, #52]	; 0x34
1a001834:	ebb0 0008 	subs.w	r0, r0, r8
1a001838:	fb03 9906 	mla	r9, r3, r6, r9
1a00183c:	eb61 0109 	sbc.w	r1, r1, r9
1a001840:	0906      	lsrs	r6, r0, #4
1a001842:	ea46 7601 	orr.w	r6, r6, r1, lsl #28
1a001846:	0909      	lsrs	r1, r1, #4
1a001848:	9616      	str	r6, [sp, #88]	; 0x58
1a00184a:	9117      	str	r1, [sp, #92]	; 0x5c
1a00184c:	e9dd 0116 	ldrd	r0, r1, [sp, #88]	; 0x58
1a001850:	e9dd 890c 	ldrd	r8, r9, [sp, #48]	; 0x30
1a001854:	eb10 0008 	adds.w	r0, r0, r8
1a001858:	eb00 0380 	add.w	r3, r0, r0, lsl #2
1a00185c:	f102 0230 	add.w	r2, r2, #48	; 0x30
1a001860:	eba2 0243 	sub.w	r2, r2, r3, lsl #1
1a001864:	ab24      	add	r3, sp, #144	; 0x90
1a001866:	eb41 0109 	adc.w	r1, r1, r9
1a00186a:	f80e 2003 	strb.w	r2, [lr, r3]
1a00186e:	f10e 0e01 	add.w	lr, lr, #1
1a001872:	4602      	mov	r2, r0
1a001874:	460b      	mov	r3, r1
1a001876:	e784      	b.n	1a001782 <__vfprintf+0x7d6>
1a001878:	ab1f      	add	r3, sp, #124	; 0x7c
1a00187a:	9300      	str	r3, [sp, #0]
1a00187c:	ab1e      	add	r3, sp, #120	; 0x78
1a00187e:	9301      	str	r3, [sp, #4]
1a001880:	ab20      	add	r3, sp, #128	; 0x80
1a001882:	9302      	str	r3, [sp, #8]
1a001884:	ab21      	add	r3, sp, #132	; 0x84
1a001886:	9303      	str	r3, [sp, #12]
1a001888:	9e38      	ldr	r6, [sp, #224]	; 0xe0
1a00188a:	4648      	mov	r0, r9
1a00188c:	a922      	add	r1, sp, #136	; 0x88
1a00188e:	aa24      	add	r2, sp, #144	; 0x90
1a001890:	463b      	mov	r3, r7
1a001892:	47b0      	blx	r6
1a001894:	4606      	mov	r6, r0
1a001896:	e000      	b.n	1a00189a <__vfprintf+0x8ee>
1a001898:	2600      	movs	r6, #0
1a00189a:	f417 6380 	ands.w	r3, r7, #1024	; 0x400
1a00189e:	931c      	str	r3, [sp, #112]	; 0x70
1a0018a0:	d00e      	beq.n	1a0018c0 <__vfprintf+0x914>
1a0018a2:	2300      	movs	r3, #0
1a0018a4:	931e      	str	r3, [sp, #120]	; 0x78
1a0018a6:	9b20      	ldr	r3, [sp, #128]	; 0x80
1a0018a8:	2b00      	cmp	r3, #0
1a0018aa:	bfc4      	itt	gt
1a0018ac:	f103 33ff 	addgt.w	r3, r3, #4294967295
1a0018b0:	931e      	strgt	r3, [sp, #120]	; 0x78
1a0018b2:	9b21      	ldr	r3, [sp, #132]	; 0x84
1a0018b4:	2b00      	cmp	r3, #0
1a0018b6:	dd08      	ble.n	1a0018ca <__vfprintf+0x91e>
1a0018b8:	9a1e      	ldr	r2, [sp, #120]	; 0x78
1a0018ba:	3b01      	subs	r3, #1
1a0018bc:	4413      	add	r3, r2
1a0018be:	e003      	b.n	1a0018c8 <__vfprintf+0x91c>
1a0018c0:	9b1e      	ldr	r3, [sp, #120]	; 0x78
1a0018c2:	1b9b      	subs	r3, r3, r6
1a0018c4:	bf48      	it	mi
1a0018c6:	2300      	movmi	r3, #0
1a0018c8:	931e      	str	r3, [sp, #120]	; 0x78
1a0018ca:	9b1e      	ldr	r3, [sp, #120]	; 0x78
1a0018cc:	981f      	ldr	r0, [sp, #124]	; 0x7c
1a0018ce:	eb06 0803 	add.w	r8, r6, r3
1a0018d2:	f000 f9f9 	bl	1a001cc8 <strlen>
1a0018d6:	9b0f      	ldr	r3, [sp, #60]	; 0x3c
1a0018d8:	ebc8 0b03 	rsb	fp, r8, r3
1a0018dc:	f007 0301 	and.w	r3, r7, #1
1a0018e0:	930f      	str	r3, [sp, #60]	; 0x3c
1a0018e2:	f240 2301 	movw	r3, #513	; 0x201
1a0018e6:	403b      	ands	r3, r7
1a0018e8:	ebc0 0b0b 	rsb	fp, r0, fp
1a0018ec:	b183      	cbz	r3, 1a001910 <__vfprintf+0x964>
1a0018ee:	f04f 0a00 	mov.w	sl, #0
1a0018f2:	f04f 0800 	mov.w	r8, #0
1a0018f6:	f04f 0900 	mov.w	r9, #0
1a0018fa:	e03f      	b.n	1a00197c <__vfprintf+0x9d0>
1a0018fc:	1a002c44 	.word	0x1a002c44
1a001900:	1a002bc6 	.word	0x1a002bc6
1a001904:	1a002bc4 	.word	0x1a002bc4
1a001908:	1a002c0b 	.word	0x1a002c0b
1a00190c:	1a002c1c 	.word	0x1a002c1c
1a001910:	f04f 0800 	mov.w	r8, #0
1a001914:	f04f 0900 	mov.w	r9, #0
1a001918:	f10b 33ff 	add.w	r3, fp, #4294967295
1a00191c:	ebc8 0203 	rsb	r2, r8, r3
1a001920:	2a00      	cmp	r2, #0
1a001922:	db19      	blt.n	1a001958 <__vfprintf+0x9ac>
1a001924:	e9dd 2308 	ldrd	r2, r3, [sp, #32]
1a001928:	4590      	cmp	r8, r2
1a00192a:	eb79 0303 	sbcs.w	r3, r9, r3
1a00192e:	da0e      	bge.n	1a00194e <__vfprintf+0x9a2>
1a001930:	68a3      	ldr	r3, [r4, #8]
1a001932:	3b01      	subs	r3, #1
1a001934:	2b00      	cmp	r3, #0
1a001936:	60a3      	str	r3, [r4, #8]
1a001938:	db05      	blt.n	1a001946 <__vfprintf+0x99a>
1a00193a:	6823      	ldr	r3, [r4, #0]
1a00193c:	1c5a      	adds	r2, r3, #1
1a00193e:	6022      	str	r2, [r4, #0]
1a001940:	2220      	movs	r2, #32
1a001942:	701a      	strb	r2, [r3, #0]
1a001944:	e003      	b.n	1a00194e <__vfprintf+0x9a2>
1a001946:	2020      	movs	r0, #32
1a001948:	4621      	mov	r1, r4
1a00194a:	f000 fa06 	bl	1a001d5a <__flsbuf>
1a00194e:	f118 0801 	adds.w	r8, r8, #1
1a001952:	f149 0900 	adc.w	r9, r9, #0
1a001956:	e7df      	b.n	1a001918 <__vfprintf+0x96c>
1a001958:	ea2b 7aeb 	bic.w	sl, fp, fp, asr #31
1a00195c:	ebca 0b03 	rsb	fp, sl, r3
1a001960:	e7c7      	b.n	1a0018f2 <__vfprintf+0x946>
1a001962:	e9dd 0108 	ldrd	r0, r1, [sp, #32]
1a001966:	eb18 020a 	adds.w	r2, r8, sl
1a00196a:	eb49 73ea 	adc.w	r3, r9, sl, asr #31
1a00196e:	4282      	cmp	r2, r0
1a001970:	418b      	sbcs	r3, r1
1a001972:	db0e      	blt.n	1a001992 <__vfprintf+0x9e6>
1a001974:	f118 0801 	adds.w	r8, r8, #1
1a001978:	f149 0900 	adc.w	r9, r9, #0
1a00197c:	9a1f      	ldr	r2, [sp, #124]	; 0x7c
1a00197e:	1c51      	adds	r1, r2, #1
1a001980:	911f      	str	r1, [sp, #124]	; 0x7c
1a001982:	f892 e000 	ldrb.w	lr, [r2]
1a001986:	eb0a 0308 	add.w	r3, sl, r8
1a00198a:	f1be 0f00 	cmp.w	lr, #0
1a00198e:	d1e8      	bne.n	1a001962 <__vfprintf+0x9b6>
1a001990:	e00f      	b.n	1a0019b2 <__vfprintf+0xa06>
1a001992:	68a3      	ldr	r3, [r4, #8]
1a001994:	3b01      	subs	r3, #1
1a001996:	2b00      	cmp	r3, #0
1a001998:	60a3      	str	r3, [r4, #8]
1a00199a:	db05      	blt.n	1a0019a8 <__vfprintf+0x9fc>
1a00199c:	6823      	ldr	r3, [r4, #0]
1a00199e:	1c5a      	adds	r2, r3, #1
1a0019a0:	6022      	str	r2, [r4, #0]
1a0019a2:	f883 e000 	strb.w	lr, [r3]
1a0019a6:	e7e5      	b.n	1a001974 <__vfprintf+0x9c8>
1a0019a8:	4670      	mov	r0, lr
1a0019aa:	4621      	mov	r1, r4
1a0019ac:	f000 f9d5 	bl	1a001d5a <__flsbuf>
1a0019b0:	e7e0      	b.n	1a001974 <__vfprintf+0x9c8>
1a0019b2:	9a0f      	ldr	r2, [sp, #60]	; 0x3c
1a0019b4:	469a      	mov	sl, r3
1a0019b6:	2a00      	cmp	r2, #0
1a0019b8:	d135      	bne.n	1a001a26 <__vfprintf+0xa7a>
1a0019ba:	f417 7f00 	tst.w	r7, #512	; 0x200
1a0019be:	bf14      	ite	ne
1a0019c0:	2730      	movne	r7, #48	; 0x30
1a0019c2:	2720      	moveq	r7, #32
1a0019c4:	2000      	movs	r0, #0
1a0019c6:	2100      	movs	r1, #0
1a0019c8:	e9cd 0106 	strd	r0, r1, [sp, #24]
1a0019cc:	9906      	ldr	r1, [sp, #24]
1a0019ce:	f10b 32ff 	add.w	r2, fp, #4294967295
1a0019d2:	1a51      	subs	r1, r2, r1
1a0019d4:	2900      	cmp	r1, #0
1a0019d6:	db20      	blt.n	1a001a1a <__vfprintf+0xa6e>
1a0019d8:	e9dd 0106 	ldrd	r0, r1, [sp, #24]
1a0019dc:	e9dd 8908 	ldrd	r8, r9, [sp, #32]
1a0019e0:	18c0      	adds	r0, r0, r3
1a0019e2:	eb41 71e3 	adc.w	r1, r1, r3, asr #31
1a0019e6:	4540      	cmp	r0, r8
1a0019e8:	eb71 0209 	sbcs.w	r2, r1, r9
1a0019ec:	da0f      	bge.n	1a001a0e <__vfprintf+0xa62>
1a0019ee:	68a2      	ldr	r2, [r4, #8]
1a0019f0:	3a01      	subs	r2, #1
1a0019f2:	2a00      	cmp	r2, #0
1a0019f4:	60a2      	str	r2, [r4, #8]
1a0019f6:	db04      	blt.n	1a001a02 <__vfprintf+0xa56>
1a0019f8:	6822      	ldr	r2, [r4, #0]
1a0019fa:	1c51      	adds	r1, r2, #1
1a0019fc:	6021      	str	r1, [r4, #0]
1a0019fe:	7017      	strb	r7, [r2, #0]
1a001a00:	e005      	b.n	1a001a0e <__vfprintf+0xa62>
1a001a02:	4638      	mov	r0, r7
1a001a04:	4621      	mov	r1, r4
1a001a06:	931d      	str	r3, [sp, #116]	; 0x74
1a001a08:	f000 f9a7 	bl	1a001d5a <__flsbuf>
1a001a0c:	9b1d      	ldr	r3, [sp, #116]	; 0x74
1a001a0e:	e9dd 0106 	ldrd	r0, r1, [sp, #24]
1a001a12:	3001      	adds	r0, #1
1a001a14:	f141 0100 	adc.w	r1, r1, #0
1a001a18:	e7d6      	b.n	1a0019c8 <__vfprintf+0xa1c>
1a001a1a:	ea2b 7beb 	bic.w	fp, fp, fp, asr #31
1a001a1e:	eb03 0a0b 	add.w	sl, r3, fp
1a001a22:	ebcb 0b02 	rsb	fp, fp, r2
1a001a26:	9b1c      	ldr	r3, [sp, #112]	; 0x70
1a001a28:	2b00      	cmp	r3, #0
1a001a2a:	d07c      	beq.n	1a001b26 <__vfprintf+0xb7a>
1a001a2c:	2700      	movs	r7, #0
1a001a2e:	42b7      	cmp	r7, r6
1a001a30:	f280 80d5 	bge.w	1a001bde <__vfprintf+0xc32>
1a001a34:	ab24      	add	r3, sp, #144	; 0x90
1a001a36:	f817 e003 	ldrb.w	lr, [r7, r3]
1a001a3a:	f1be 0f3c 	cmp.w	lr, #60	; 0x3c
1a001a3e:	d007      	beq.n	1a001a50 <__vfprintf+0xaa4>
1a001a40:	f1be 0f3e 	cmp.w	lr, #62	; 0x3e
1a001a44:	d151      	bne.n	1a001aea <__vfprintf+0xb3e>
1a001a46:	f04f 0800 	mov.w	r8, #0
1a001a4a:	f04f 0900 	mov.w	r9, #0
1a001a4e:	e034      	b.n	1a001aba <__vfprintf+0xb0e>
1a001a50:	f04f 0800 	mov.w	r8, #0
1a001a54:	f04f 0900 	mov.w	r9, #0
1a001a58:	9a20      	ldr	r2, [sp, #128]	; 0x80
1a001a5a:	3a01      	subs	r2, #1
1a001a5c:	2a00      	cmp	r2, #0
1a001a5e:	eb0a 0308 	add.w	r3, sl, r8
1a001a62:	9220      	str	r2, [sp, #128]	; 0x80
1a001a64:	db5c      	blt.n	1a001b20 <__vfprintf+0xb74>
1a001a66:	e9dd 0108 	ldrd	r0, r1, [sp, #32]
1a001a6a:	eb18 020a 	adds.w	r2, r8, sl
1a001a6e:	eb49 73ea 	adc.w	r3, r9, sl, asr #31
1a001a72:	4282      	cmp	r2, r0
1a001a74:	418b      	sbcs	r3, r1
1a001a76:	da0e      	bge.n	1a001a96 <__vfprintf+0xaea>
1a001a78:	68a3      	ldr	r3, [r4, #8]
1a001a7a:	3b01      	subs	r3, #1
1a001a7c:	2b00      	cmp	r3, #0
1a001a7e:	60a3      	str	r3, [r4, #8]
1a001a80:	db05      	blt.n	1a001a8e <__vfprintf+0xae2>
1a001a82:	6823      	ldr	r3, [r4, #0]
1a001a84:	1c5a      	adds	r2, r3, #1
1a001a86:	6022      	str	r2, [r4, #0]
1a001a88:	2230      	movs	r2, #48	; 0x30
1a001a8a:	701a      	strb	r2, [r3, #0]
1a001a8c:	e003      	b.n	1a001a96 <__vfprintf+0xaea>
1a001a8e:	2030      	movs	r0, #48	; 0x30
1a001a90:	4621      	mov	r1, r4
1a001a92:	f000 f962 	bl	1a001d5a <__flsbuf>
1a001a96:	f118 0801 	adds.w	r8, r8, #1
1a001a9a:	f149 0900 	adc.w	r9, r9, #0
1a001a9e:	e7db      	b.n	1a001a58 <__vfprintf+0xaac>
1a001aa0:	e9dd 0108 	ldrd	r0, r1, [sp, #32]
1a001aa4:	eb18 020a 	adds.w	r2, r8, sl
1a001aa8:	eb49 73ea 	adc.w	r3, r9, sl, asr #31
1a001aac:	4282      	cmp	r2, r0
1a001aae:	418b      	sbcs	r3, r1
1a001ab0:	db0b      	blt.n	1a001aca <__vfprintf+0xb1e>
1a001ab2:	f118 0801 	adds.w	r8, r8, #1
1a001ab6:	f149 0900 	adc.w	r9, r9, #0
1a001aba:	9a21      	ldr	r2, [sp, #132]	; 0x84
1a001abc:	3a01      	subs	r2, #1
1a001abe:	2a00      	cmp	r2, #0
1a001ac0:	eb0a 0308 	add.w	r3, sl, r8
1a001ac4:	9221      	str	r2, [sp, #132]	; 0x84
1a001ac6:	daeb      	bge.n	1a001aa0 <__vfprintf+0xaf4>
1a001ac8:	e02a      	b.n	1a001b20 <__vfprintf+0xb74>
1a001aca:	68a3      	ldr	r3, [r4, #8]
1a001acc:	3b01      	subs	r3, #1
1a001ace:	2b00      	cmp	r3, #0
1a001ad0:	60a3      	str	r3, [r4, #8]
1a001ad2:	db05      	blt.n	1a001ae0 <__vfprintf+0xb34>
1a001ad4:	6823      	ldr	r3, [r4, #0]
1a001ad6:	1c5a      	adds	r2, r3, #1
1a001ad8:	6022      	str	r2, [r4, #0]
1a001ada:	2230      	movs	r2, #48	; 0x30
1a001adc:	701a      	strb	r2, [r3, #0]
1a001ade:	e7e8      	b.n	1a001ab2 <__vfprintf+0xb06>
1a001ae0:	4621      	mov	r1, r4
1a001ae2:	2030      	movs	r0, #48	; 0x30
1a001ae4:	f000 f939 	bl	1a001d5a <__flsbuf>
1a001ae8:	e7e3      	b.n	1a001ab2 <__vfprintf+0xb06>
1a001aea:	e9dd 0108 	ldrd	r0, r1, [sp, #32]
1a001aee:	ea4f 79ea 	mov.w	r9, sl, asr #31
1a001af2:	4582      	cmp	sl, r0
1a001af4:	eb79 0201 	sbcs.w	r2, r9, r1
1a001af8:	f10a 0301 	add.w	r3, sl, #1
1a001afc:	da10      	bge.n	1a001b20 <__vfprintf+0xb74>
1a001afe:	68a2      	ldr	r2, [r4, #8]
1a001b00:	3a01      	subs	r2, #1
1a001b02:	2a00      	cmp	r2, #0
1a001b04:	60a2      	str	r2, [r4, #8]
1a001b06:	db05      	blt.n	1a001b14 <__vfprintf+0xb68>
1a001b08:	6822      	ldr	r2, [r4, #0]
1a001b0a:	1c51      	adds	r1, r2, #1
1a001b0c:	6021      	str	r1, [r4, #0]
1a001b0e:	f882 e000 	strb.w	lr, [r2]
1a001b12:	e005      	b.n	1a001b20 <__vfprintf+0xb74>
1a001b14:	4670      	mov	r0, lr
1a001b16:	4621      	mov	r1, r4
1a001b18:	9306      	str	r3, [sp, #24]
1a001b1a:	f000 f91e 	bl	1a001d5a <__flsbuf>
1a001b1e:	9b06      	ldr	r3, [sp, #24]
1a001b20:	3701      	adds	r7, #1
1a001b22:	469a      	mov	sl, r3
1a001b24:	e783      	b.n	1a001a2e <__vfprintf+0xa82>
1a001b26:	f04f 0800 	mov.w	r8, #0
1a001b2a:	f04f 0900 	mov.w	r9, #0
1a001b2e:	9b1e      	ldr	r3, [sp, #120]	; 0x78
1a001b30:	3b01      	subs	r3, #1
1a001b32:	2b00      	cmp	r3, #0
1a001b34:	eb0a 0708 	add.w	r7, sl, r8
1a001b38:	931e      	str	r3, [sp, #120]	; 0x78
1a001b3a:	db1c      	blt.n	1a001b76 <__vfprintf+0xbca>
1a001b3c:	e9dd 0108 	ldrd	r0, r1, [sp, #32]
1a001b40:	eb18 020a 	adds.w	r2, r8, sl
1a001b44:	eb49 73ea 	adc.w	r3, r9, sl, asr #31
1a001b48:	4282      	cmp	r2, r0
1a001b4a:	418b      	sbcs	r3, r1
1a001b4c:	da0e      	bge.n	1a001b6c <__vfprintf+0xbc0>
1a001b4e:	68a3      	ldr	r3, [r4, #8]
1a001b50:	3b01      	subs	r3, #1
1a001b52:	2b00      	cmp	r3, #0
1a001b54:	60a3      	str	r3, [r4, #8]
1a001b56:	db05      	blt.n	1a001b64 <__vfprintf+0xbb8>
1a001b58:	6823      	ldr	r3, [r4, #0]
1a001b5a:	1c5a      	adds	r2, r3, #1
1a001b5c:	6022      	str	r2, [r4, #0]
1a001b5e:	2230      	movs	r2, #48	; 0x30
1a001b60:	701a      	strb	r2, [r3, #0]
1a001b62:	e003      	b.n	1a001b6c <__vfprintf+0xbc0>
1a001b64:	2030      	movs	r0, #48	; 0x30
1a001b66:	4621      	mov	r1, r4
1a001b68:	f000 f8f7 	bl	1a001d5a <__flsbuf>
1a001b6c:	f118 0801 	adds.w	r8, r8, #1
1a001b70:	f149 0900 	adc.w	r9, r9, #0
1a001b74:	e7db      	b.n	1a001b2e <__vfprintf+0xb82>
1a001b76:	ab2c      	add	r3, sp, #176	; 0xb0
1a001b78:	eb03 0a06 	add.w	sl, r3, r6
1a001b7c:	f1aa 0a21 	sub.w	sl, sl, #33	; 0x21
1a001b80:	f04f 0800 	mov.w	r8, #0
1a001b84:	f04f 0900 	mov.w	r9, #0
1a001b88:	ebc8 0306 	rsb	r3, r8, r6
1a001b8c:	2b00      	cmp	r3, #0
1a001b8e:	dd20      	ble.n	1a001bd2 <__vfprintf+0xc26>
1a001b90:	e9dd 0108 	ldrd	r0, r1, [sp, #32]
1a001b94:	eb18 0207 	adds.w	r2, r8, r7
1a001b98:	eb49 73e7 	adc.w	r3, r9, r7, asr #31
1a001b9c:	4282      	cmp	r2, r0
1a001b9e:	418b      	sbcs	r3, r1
1a001ba0:	da10      	bge.n	1a001bc4 <__vfprintf+0xc18>
1a001ba2:	68a3      	ldr	r3, [r4, #8]
1a001ba4:	3b01      	subs	r3, #1
1a001ba6:	2b00      	cmp	r3, #0
1a001ba8:	60a3      	str	r3, [r4, #8]
1a001baa:	db06      	blt.n	1a001bba <__vfprintf+0xc0e>
1a001bac:	6823      	ldr	r3, [r4, #0]
1a001bae:	1c5a      	adds	r2, r3, #1
1a001bb0:	6022      	str	r2, [r4, #0]
1a001bb2:	f89a 2000 	ldrb.w	r2, [sl]
1a001bb6:	701a      	strb	r2, [r3, #0]
1a001bb8:	e004      	b.n	1a001bc4 <__vfprintf+0xc18>
1a001bba:	f89a 0000 	ldrb.w	r0, [sl]
1a001bbe:	4621      	mov	r1, r4
1a001bc0:	f000 f8cb 	bl	1a001d5a <__flsbuf>
1a001bc4:	f118 0801 	adds.w	r8, r8, #1
1a001bc8:	f10a 3aff 	add.w	sl, sl, #4294967295
1a001bcc:	f149 0900 	adc.w	r9, r9, #0
1a001bd0:	e7da      	b.n	1a001b88 <__vfprintf+0xbdc>
1a001bd2:	2e00      	cmp	r6, #0
1a001bd4:	bfac      	ite	ge
1a001bd6:	eb07 0a06 	addge.w	sl, r7, r6
1a001bda:	f107 0a00 	addlt.w	sl, r7, #0
1a001bde:	9b0f      	ldr	r3, [sp, #60]	; 0x3c
1a001be0:	b32b      	cbz	r3, 1a001c2e <__vfprintf+0xc82>
1a001be2:	2600      	movs	r6, #0
1a001be4:	2700      	movs	r7, #0
1a001be6:	43f3      	mvns	r3, r6
1a001be8:	eb13 0f0b 	cmn.w	r3, fp
1a001bec:	d41b      	bmi.n	1a001c26 <__vfprintf+0xc7a>
1a001bee:	e9dd 0108 	ldrd	r0, r1, [sp, #32]
1a001bf2:	eb16 020a 	adds.w	r2, r6, sl
1a001bf6:	eb47 73ea 	adc.w	r3, r7, sl, asr #31
1a001bfa:	4282      	cmp	r2, r0
1a001bfc:	418b      	sbcs	r3, r1
1a001bfe:	da0e      	bge.n	1a001c1e <__vfprintf+0xc72>
1a001c00:	68a3      	ldr	r3, [r4, #8]
1a001c02:	3b01      	subs	r3, #1
1a001c04:	2b00      	cmp	r3, #0
1a001c06:	60a3      	str	r3, [r4, #8]
1a001c08:	db05      	blt.n	1a001c16 <__vfprintf+0xc6a>
1a001c0a:	6823      	ldr	r3, [r4, #0]
1a001c0c:	1c5a      	adds	r2, r3, #1
1a001c0e:	6022      	str	r2, [r4, #0]
1a001c10:	2220      	movs	r2, #32
1a001c12:	701a      	strb	r2, [r3, #0]
1a001c14:	e003      	b.n	1a001c1e <__vfprintf+0xc72>
1a001c16:	2020      	movs	r0, #32
1a001c18:	4621      	mov	r1, r4
1a001c1a:	f000 f89e 	bl	1a001d5a <__flsbuf>
1a001c1e:	3601      	adds	r6, #1
1a001c20:	f147 0700 	adc.w	r7, r7, #0
1a001c24:	e7df      	b.n	1a001be6 <__vfprintf+0xc3a>
1a001c26:	f1bb 0f00 	cmp.w	fp, #0
1a001c2a:	bfa8      	it	ge
1a001c2c:	44da      	addge	sl, fp
1a001c2e:	9b05      	ldr	r3, [sp, #20]
1a001c30:	4453      	add	r3, sl
1a001c32:	9305      	str	r3, [sp, #20]
1a001c34:	f8dd 8038 	ldr.w	r8, [sp, #56]	; 0x38
1a001c38:	9e05      	ldr	r6, [sp, #20]
1a001c3a:	9605      	str	r6, [sp, #20]
1a001c3c:	462b      	mov	r3, r5
1a001c3e:	f7ff b9c0 	b.w	1a000fc2 <__vfprintf+0x16>
1a001c42:	9805      	ldr	r0, [sp, #20]
1a001c44:	b02d      	add	sp, #180	; 0xb4
1a001c46:	e8bd 8ff0 	ldmia.w	sp!, {r4, r5, r6, r7, r8, r9, sl, fp, pc}
1a001c4a:	bf00      	nop

1a001c4c <setvbuf>:
1a001c4c:	b570      	push	{r4, r5, r6, lr}
1a001c4e:	68c4      	ldr	r4, [r0, #12]
1a001c50:	07a5      	lsls	r5, r4, #30
1a001c52:	d017      	beq.n	1a001c84 <setvbuf+0x38>
1a001c54:	f5b2 7f00 	cmp.w	r2, #512	; 0x200
1a001c58:	d009      	beq.n	1a001c6e <setvbuf+0x22>
1a001c5a:	f5b2 6f80 	cmp.w	r2, #1024	; 0x400
1a001c5e:	d003      	beq.n	1a001c68 <setvbuf+0x1c>
1a001c60:	f5b2 7f80 	cmp.w	r2, #256	; 0x100
1a001c64:	d10e      	bne.n	1a001c84 <setvbuf+0x38>
1a001c66:	e002      	b.n	1a001c6e <setvbuf+0x22>
1a001c68:	6a41      	ldr	r1, [r0, #36]	; 0x24
1a001c6a:	2301      	movs	r3, #1
1a001c6c:	e003      	b.n	1a001c76 <setvbuf+0x2a>
1a001c6e:	4d06      	ldr	r5, [pc, #24]	; (1a001c88 <setvbuf+0x3c>)
1a001c70:	1e5e      	subs	r6, r3, #1
1a001c72:	42ae      	cmp	r6, r5
1a001c74:	d806      	bhi.n	1a001c84 <setvbuf+0x38>
1a001c76:	4314      	orrs	r4, r2
1a001c78:	6101      	str	r1, [r0, #16]
1a001c7a:	6001      	str	r1, [r0, #0]
1a001c7c:	61c3      	str	r3, [r0, #28]
1a001c7e:	60c4      	str	r4, [r0, #12]
1a001c80:	2000      	movs	r0, #0
1a001c82:	bd70      	pop	{r4, r5, r6, pc}
1a001c84:	2001      	movs	r0, #1
1a001c86:	bd70      	pop	{r4, r5, r6, pc}
1a001c88:	00fffffe 	.word	0x00fffffe

1a001c8c <rand>:
1a001c8c:	b530      	push	{r4, r5, lr}
1a001c8e:	4c0b      	ldr	r4, [pc, #44]	; (1a001cbc <rand+0x30>)
1a001c90:	490b      	ldr	r1, [pc, #44]	; (1a001cc0 <rand+0x34>)
1a001c92:	6822      	ldr	r2, [r4, #0]
1a001c94:	4d0b      	ldr	r5, [pc, #44]	; (1a001cc4 <rand+0x38>)
1a001c96:	680b      	ldr	r3, [r1, #0]
1a001c98:	f855 0022 	ldr.w	r0, [r5, r2, lsl #2]
1a001c9c:	f845 0023 	str.w	r0, [r5, r3, lsl #2]
1a001ca0:	3a01      	subs	r2, #1
1a001ca2:	6022      	str	r2, [r4, #0]
1a001ca4:	3b01      	subs	r3, #1
1a001ca6:	b912      	cbnz	r2, 1a001cae <rand+0x22>
1a001ca8:	2236      	movs	r2, #54	; 0x36
1a001caa:	6022      	str	r2, [r4, #0]
1a001cac:	e001      	b.n	1a001cb2 <rand+0x26>
1a001cae:	b903      	cbnz	r3, 1a001cb2 <rand+0x26>
1a001cb0:	2336      	movs	r3, #54	; 0x36
1a001cb2:	600b      	str	r3, [r1, #0]
1a001cb4:	f020 4000 	bic.w	r0, r0, #2147483648	; 0x80000000
1a001cb8:	bd30      	pop	{r4, r5, pc}
1a001cba:	bf00      	nop
1a001cbc:	100000dc 	.word	0x100000dc
1a001cc0:	100000e0 	.word	0x100000e0
1a001cc4:	10000000 	.word	0x10000000

1a001cc8 <strlen>:
1a001cc8:	b510      	push	{r4, lr}
1a001cca:	1c42      	adds	r2, r0, #1
1a001ccc:	0783      	lsls	r3, r0, #30
1a001cce:	d005      	beq.n	1a001cdc <strlen+0x14>
1a001cd0:	f810 3b01 	ldrb.w	r3, [r0], #1
1a001cd4:	2b00      	cmp	r3, #0
1a001cd6:	d1f9      	bne.n	1a001ccc <strlen+0x4>
1a001cd8:	1a80      	subs	r0, r0, r2
1a001cda:	bd10      	pop	{r4, pc}
1a001cdc:	4603      	mov	r3, r0
1a001cde:	f850 1b04 	ldr.w	r1, [r0], #4
1a001ce2:	f1a1 3401 	sub.w	r4, r1, #16843009	; 0x1010101
1a001ce6:	ea24 0401 	bic.w	r4, r4, r1
1a001cea:	f014 3f80 	tst.w	r4, #2155905152	; 0x80808080
1a001cee:	d0f5      	beq.n	1a001cdc <strlen+0x14>
1a001cf0:	f011 0fff 	tst.w	r1, #255	; 0xff
1a001cf4:	d00a      	beq.n	1a001d0c <strlen+0x44>
1a001cf6:	f411 4f7f 	tst.w	r1, #65280	; 0xff00
1a001cfa:	d005      	beq.n	1a001d08 <strlen+0x40>
1a001cfc:	f411 0f7f 	tst.w	r1, #16711680	; 0xff0000
1a001d00:	bf14      	ite	ne
1a001d02:	4603      	movne	r3, r0
1a001d04:	3303      	addeq	r3, #3
1a001d06:	e002      	b.n	1a001d0e <strlen+0x46>
1a001d08:	3302      	adds	r3, #2
1a001d0a:	e000      	b.n	1a001d0e <strlen+0x46>
1a001d0c:	3301      	adds	r3, #1
1a001d0e:	1a98      	subs	r0, r3, r2
1a001d10:	bd10      	pop	{r4, pc}

1a001d12 <memset>:
1a001d12:	f000 bf09 	b.w	1a002b28 <__aeabi_lowlevel_memset>

1a001d16 <_deferredlazyseek>:
1a001d16:	68c3      	ldr	r3, [r0, #12]
1a001d18:	6982      	ldr	r2, [r0, #24]
1a001d1a:	f023 0320 	bic.w	r3, r3, #32
1a001d1e:	b510      	push	{r4, lr}
1a001d20:	60c3      	str	r3, [r0, #12]
1a001d22:	6a43      	ldr	r3, [r0, #36]	; 0x24
1a001d24:	685b      	ldr	r3, [r3, #4]
1a001d26:	429a      	cmp	r2, r3
1a001d28:	4604      	mov	r4, r0
1a001d2a:	d00f      	beq.n	1a001d4c <_deferredlazyseek+0x36>
1a001d2c:	f000 f8eb 	bl	1a001f06 <_fflush>
1a001d30:	68e3      	ldr	r3, [r4, #12]
1a001d32:	6a62      	ldr	r2, [r4, #36]	; 0x24
1a001d34:	f423 5340 	bic.w	r3, r3, #12288	; 0x3000
1a001d38:	f023 0310 	bic.w	r3, r3, #16
1a001d3c:	f043 0310 	orr.w	r3, r3, #16
1a001d40:	60e3      	str	r3, [r4, #12]
1a001d42:	6853      	ldr	r3, [r2, #4]
1a001d44:	61a3      	str	r3, [r4, #24]
1a001d46:	6923      	ldr	r3, [r4, #16]
1a001d48:	6093      	str	r3, [r2, #8]
1a001d4a:	6023      	str	r3, [r4, #0]
1a001d4c:	68e3      	ldr	r3, [r4, #12]
1a001d4e:	f423 4380 	bic.w	r3, r3, #16384	; 0x4000
1a001d52:	f023 0340 	bic.w	r3, r3, #64	; 0x40
1a001d56:	60e3      	str	r3, [r4, #12]
1a001d58:	bd10      	pop	{r4, pc}

1a001d5a <__flsbuf>:
1a001d5a:	68cb      	ldr	r3, [r1, #12]
1a001d5c:	f423 2200 	bic.w	r2, r3, #524288	; 0x80000
1a001d60:	069b      	lsls	r3, r3, #26
1a001d62:	b570      	push	{r4, r5, r6, lr}
1a001d64:	4605      	mov	r5, r0
1a001d66:	460c      	mov	r4, r1
1a001d68:	60ca      	str	r2, [r1, #12]
1a001d6a:	d502      	bpl.n	1a001d72 <__flsbuf+0x18>
1a001d6c:	4608      	mov	r0, r1
1a001d6e:	f7ff ffd2 	bl	1a001d16 <_deferredlazyseek>
1a001d72:	68a1      	ldr	r1, [r4, #8]
1a001d74:	68e3      	ldr	r3, [r4, #12]
1a001d76:	1c4e      	adds	r6, r1, #1
1a001d78:	da0d      	bge.n	1a001d96 <__flsbuf+0x3c>
1a001d7a:	0598      	lsls	r0, r3, #22
1a001d7c:	d40b      	bmi.n	1a001d96 <__flsbuf+0x3c>
1a001d7e:	f443 3390 	orr.w	r3, r3, #73728	; 0x12000
1a001d82:	60e3      	str	r3, [r4, #12]
1a001d84:	f06f 0201 	mvn.w	r2, #1
1a001d88:	6823      	ldr	r3, [r4, #0]
1a001d8a:	1a52      	subs	r2, r2, r1
1a001d8c:	60a2      	str	r2, [r4, #8]
1a001d8e:	1c5a      	adds	r2, r3, #1
1a001d90:	6022      	str	r2, [r4, #0]
1a001d92:	701d      	strb	r5, [r3, #0]
1a001d94:	e056      	b.n	1a001e44 <__flsbuf+0xea>
1a001d96:	f241 028a 	movw	r2, #4234	; 0x108a
1a001d9a:	401a      	ands	r2, r3
1a001d9c:	2a02      	cmp	r2, #2
1a001d9e:	461e      	mov	r6, r3
1a001da0:	d005      	beq.n	1a001dae <__flsbuf+0x54>
1a001da2:	2200      	movs	r2, #0
1a001da4:	f043 0380 	orr.w	r3, r3, #128	; 0x80
1a001da8:	60a2      	str	r2, [r4, #8]
1a001daa:	60e3      	str	r3, [r4, #12]
1a001dac:	e052      	b.n	1a001e54 <__flsbuf+0xfa>
1a001dae:	f24a 0110 	movw	r1, #40976	; 0xa010
1a001db2:	4019      	ands	r1, r3
1a001db4:	f5b1 4f00 	cmp.w	r1, #32768	; 0x8000
1a001db8:	d10a      	bne.n	1a001dd0 <__flsbuf+0x76>
1a001dba:	2100      	movs	r1, #0
1a001dbc:	4620      	mov	r0, r4
1a001dbe:	f000 fa35 	bl	1a00222c <fseek>
1a001dc2:	68e3      	ldr	r3, [r4, #12]
1a001dc4:	0699      	lsls	r1, r3, #26
1a001dc6:	d502      	bpl.n	1a001dce <__flsbuf+0x74>
1a001dc8:	4620      	mov	r0, r4
1a001dca:	f7ff ffa4 	bl	1a001d16 <_deferredlazyseek>
1a001dce:	68e6      	ldr	r6, [r4, #12]
1a001dd0:	f446 3390 	orr.w	r3, r6, #73728	; 0x12000
1a001dd4:	f416 6f70 	tst.w	r6, #3840	; 0xf00
1a001dd8:	60e3      	str	r3, [r4, #12]
1a001dda:	d11c      	bne.n	1a001e16 <__flsbuf+0xbc>
1a001ddc:	6960      	ldr	r0, [r4, #20]
1a001dde:	f000 fecf 	bl	1a002b80 <__sys_istty>
1a001de2:	b150      	cbz	r0, 1a001dfa <__flsbuf+0xa0>
1a001de4:	0572      	lsls	r2, r6, #21
1a001de6:	d508      	bpl.n	1a001dfa <__flsbuf+0xa0>
1a001de8:	6a63      	ldr	r3, [r4, #36]	; 0x24
1a001dea:	6123      	str	r3, [r4, #16]
1a001dec:	6023      	str	r3, [r4, #0]
1a001dee:	2301      	movs	r3, #1
1a001df0:	61e3      	str	r3, [r4, #28]
1a001df2:	f446 3392 	orr.w	r3, r6, #74752	; 0x12400
1a001df6:	60e3      	str	r3, [r4, #12]
1a001df8:	e00d      	b.n	1a001e16 <__flsbuf+0xbc>
1a001dfa:	f44f 5080 	mov.w	r0, #4096	; 0x1000
1a001dfe:	f000 f9b7 	bl	1a002170 <_Csys_alloc>
1a001e02:	f44f 5380 	mov.w	r3, #4096	; 0x1000
1a001e06:	68e2      	ldr	r2, [r4, #12]
1a001e08:	61e3      	str	r3, [r4, #28]
1a001e0a:	f446 3394 	orr.w	r3, r6, #75776	; 0x12800
1a001e0e:	431a      	orrs	r2, r3
1a001e10:	6120      	str	r0, [r4, #16]
1a001e12:	6020      	str	r0, [r4, #0]
1a001e14:	60e2      	str	r2, [r4, #12]
1a001e16:	f413 6f10 	tst.w	r3, #2304	; 0x900
1a001e1a:	6821      	ldr	r1, [r4, #0]
1a001e1c:	6926      	ldr	r6, [r4, #16]
1a001e1e:	d01c      	beq.n	1a001e5a <__flsbuf+0x100>
1a001e20:	6a63      	ldr	r3, [r4, #36]	; 0x24
1a001e22:	689b      	ldr	r3, [r3, #8]
1a001e24:	428b      	cmp	r3, r1
1a001e26:	bf2c      	ite	cs
1a001e28:	ebc6 0103 	rsbcs	r1, r6, r3
1a001e2c:	ebc6 0101 	rsbcc	r1, r6, r1
1a001e30:	b951      	cbnz	r1, 1a001e48 <__flsbuf+0xee>
1a001e32:	6a63      	ldr	r3, [r4, #36]	; 0x24
1a001e34:	1c72      	adds	r2, r6, #1
1a001e36:	609a      	str	r2, [r3, #8]
1a001e38:	6022      	str	r2, [r4, #0]
1a001e3a:	69e2      	ldr	r2, [r4, #28]
1a001e3c:	1e51      	subs	r1, r2, #1
1a001e3e:	60a1      	str	r1, [r4, #8]
1a001e40:	60da      	str	r2, [r3, #12]
1a001e42:	7035      	strb	r5, [r6, #0]
1a001e44:	b2e8      	uxtb	r0, r5
1a001e46:	bd70      	pop	{r4, r5, r6, pc}
1a001e48:	4630      	mov	r0, r6
1a001e4a:	4622      	mov	r2, r4
1a001e4c:	f000 f8da 	bl	1a002004 <_Cwritebuf>
1a001e50:	2800      	cmp	r0, #0
1a001e52:	d0ee      	beq.n	1a001e32 <__flsbuf+0xd8>
1a001e54:	f04f 30ff 	mov.w	r0, #4294967295
1a001e58:	bd70      	pop	{r4, r5, r6, pc}
1a001e5a:	1c4a      	adds	r2, r1, #1
1a001e5c:	b2ed      	uxtb	r5, r5
1a001e5e:	6022      	str	r2, [r4, #0]
1a001e60:	700d      	strb	r5, [r1, #0]
1a001e62:	6a60      	ldr	r0, [r4, #36]	; 0x24
1a001e64:	6821      	ldr	r1, [r4, #0]
1a001e66:	6882      	ldr	r2, [r0, #8]
1a001e68:	428a      	cmp	r2, r1
1a001e6a:	bf2c      	ite	cs
1a001e6c:	ebc6 0102 	rsbcs	r1, r6, r2
1a001e70:	ebc6 0101 	rsbcc	r1, r6, r1
1a001e74:	69e2      	ldr	r2, [r4, #28]
1a001e76:	60c2      	str	r2, [r0, #12]
1a001e78:	055b      	lsls	r3, r3, #21
1a001e7a:	d403      	bmi.n	1a001e84 <__flsbuf+0x12a>
1a001e7c:	2d0a      	cmp	r5, #10
1a001e7e:	d001      	beq.n	1a001e84 <__flsbuf+0x12a>
1a001e80:	4291      	cmp	r1, r2
1a001e82:	db09      	blt.n	1a001e98 <__flsbuf+0x13e>
1a001e84:	2300      	movs	r3, #0
1a001e86:	6086      	str	r6, [r0, #8]
1a001e88:	4622      	mov	r2, r4
1a001e8a:	6026      	str	r6, [r4, #0]
1a001e8c:	60a3      	str	r3, [r4, #8]
1a001e8e:	4630      	mov	r0, r6
1a001e90:	f000 f8b8 	bl	1a002004 <_Cwritebuf>
1a001e94:	2800      	cmp	r0, #0
1a001e96:	d1dd      	bne.n	1a001e54 <__flsbuf+0xfa>
1a001e98:	4628      	mov	r0, r5
1a001e9a:	bd70      	pop	{r4, r5, r6, pc}

1a001e9c <_fdopen>:
1a001e9c:	b570      	push	{r4, r5, r6, lr}
1a001e9e:	460d      	mov	r5, r1
1a001ea0:	4606      	mov	r6, r0
1a001ea2:	4610      	mov	r0, r2
1a001ea4:	4614      	mov	r4, r2
1a001ea6:	f000 f973 	bl	1a002190 <fclose>
1a001eaa:	782b      	ldrb	r3, [r5, #0]
1a001eac:	2b72      	cmp	r3, #114	; 0x72
1a001eae:	d00a      	beq.n	1a001ec6 <_fdopen+0x2a>
1a001eb0:	2b77      	cmp	r3, #119	; 0x77
1a001eb2:	d005      	beq.n	1a001ec0 <_fdopen+0x24>
1a001eb4:	2b61      	cmp	r3, #97	; 0x61
1a001eb6:	d123      	bne.n	1a001f00 <_fdopen+0x64>
1a001eb8:	2308      	movs	r3, #8
1a001eba:	f248 0202 	movw	r2, #32770	; 0x8002
1a001ebe:	e004      	b.n	1a001eca <_fdopen+0x2e>
1a001ec0:	2304      	movs	r3, #4
1a001ec2:	2202      	movs	r2, #2
1a001ec4:	e001      	b.n	1a001eca <_fdopen+0x2e>
1a001ec6:	2300      	movs	r3, #0
1a001ec8:	2201      	movs	r2, #1
1a001eca:	f815 1f01 	ldrb.w	r1, [r5, #1]!
1a001ece:	292b      	cmp	r1, #43	; 0x2b
1a001ed0:	d006      	beq.n	1a001ee0 <_fdopen+0x44>
1a001ed2:	2962      	cmp	r1, #98	; 0x62
1a001ed4:	d109      	bne.n	1a001eea <_fdopen+0x4e>
1a001ed6:	f042 0204 	orr.w	r2, r2, #4
1a001eda:	f043 0301 	orr.w	r3, r3, #1
1a001ede:	e7f4      	b.n	1a001eca <_fdopen+0x2e>
1a001ee0:	f042 0203 	orr.w	r2, r2, #3
1a001ee4:	f043 0302 	orr.w	r3, r3, #2
1a001ee8:	e7ef      	b.n	1a001eca <_fdopen+0x2e>
1a001eea:	071b      	lsls	r3, r3, #28
1a001eec:	60e2      	str	r2, [r4, #12]
1a001eee:	6166      	str	r6, [r4, #20]
1a001ef0:	4620      	mov	r0, r4
1a001ef2:	d507      	bpl.n	1a001f04 <_fdopen+0x68>
1a001ef4:	2100      	movs	r1, #0
1a001ef6:	2202      	movs	r2, #2
1a001ef8:	f000 f998 	bl	1a00222c <fseek>
1a001efc:	4620      	mov	r0, r4
1a001efe:	bd70      	pop	{r4, r5, r6, pc}
1a001f00:	2000      	movs	r0, #0
1a001f02:	bd70      	pop	{r4, r5, r6, pc}
1a001f04:	bd70      	pop	{r4, r5, r6, pc}

1a001f06 <_fflush>:
1a001f06:	b538      	push	{r3, r4, r5, lr}
1a001f08:	6a42      	ldr	r2, [r0, #36]	; 0x24
1a001f0a:	6905      	ldr	r5, [r0, #16]
1a001f0c:	6803      	ldr	r3, [r0, #0]
1a001f0e:	6891      	ldr	r1, [r2, #8]
1a001f10:	4604      	mov	r4, r0
1a001f12:	68c0      	ldr	r0, [r0, #12]
1a001f14:	f420 2200 	bic.w	r2, r0, #524288	; 0x80000
1a001f18:	60e2      	str	r2, [r4, #12]
1a001f1a:	f000 0282 	and.w	r2, r0, #130	; 0x82
1a001f1e:	2a02      	cmp	r2, #2
1a001f20:	d002      	beq.n	1a001f28 <_fflush+0x22>
1a001f22:	f04f 30ff 	mov.w	r0, #4294967295
1a001f26:	bd38      	pop	{r3, r4, r5, pc}
1a001f28:	f410 3080 	ands.w	r0, r0, #65536	; 0x10000
1a001f2c:	d016      	beq.n	1a001f5c <_fflush+0x56>
1a001f2e:	4299      	cmp	r1, r3
1a001f30:	bf38      	it	cc
1a001f32:	4619      	movcc	r1, r3
1a001f34:	42a9      	cmp	r1, r5
1a001f36:	d109      	bne.n	1a001f4c <_fflush+0x46>
1a001f38:	6a63      	ldr	r3, [r4, #36]	; 0x24
1a001f3a:	609d      	str	r5, [r3, #8]
1a001f3c:	68e3      	ldr	r3, [r4, #12]
1a001f3e:	6025      	str	r5, [r4, #0]
1a001f40:	2000      	movs	r0, #0
1a001f42:	f423 3380 	bic.w	r3, r3, #65536	; 0x10000
1a001f46:	60a0      	str	r0, [r4, #8]
1a001f48:	60e3      	str	r3, [r4, #12]
1a001f4a:	bd38      	pop	{r3, r4, r5, pc}
1a001f4c:	4628      	mov	r0, r5
1a001f4e:	1b49      	subs	r1, r1, r5
1a001f50:	4622      	mov	r2, r4
1a001f52:	f000 f857 	bl	1a002004 <_Cwritebuf>
1a001f56:	2800      	cmp	r0, #0
1a001f58:	d0ee      	beq.n	1a001f38 <_fflush+0x32>
1a001f5a:	e7e2      	b.n	1a001f22 <_fflush+0x1c>
1a001f5c:	bd38      	pop	{r3, r4, r5, pc}

1a001f5e <_frexpl>:
1a001f5e:	b5f8      	push	{r3, r4, r5, r6, r7, lr}
1a001f60:	4615      	mov	r5, r2
1a001f62:	2300      	movs	r3, #0
1a001f64:	2200      	movs	r2, #0
1a001f66:	4606      	mov	r6, r0
1a001f68:	460f      	mov	r7, r1
1a001f6a:	f000 fd48 	bl	1a0029fe <__aeabi_dcmpeq>
1a001f6e:	b120      	cbz	r0, 1a001f7a <_frexpl+0x1c>
1a001f70:	2300      	movs	r3, #0
1a001f72:	602b      	str	r3, [r5, #0]
1a001f74:	2000      	movs	r0, #0
1a001f76:	2100      	movs	r1, #0
1a001f78:	bdf8      	pop	{r3, r4, r5, r6, r7, pc}
1a001f7a:	f3c7 530a 	ubfx	r3, r7, #20, #11
1a001f7e:	4630      	mov	r0, r6
1a001f80:	4639      	mov	r1, r7
1a001f82:	f2a3 34fe 	subw	r4, r3, #1022	; 0x3fe
1a001f86:	b98b      	cbnz	r3, 1a001fac <_frexpl+0x4e>
1a001f88:	f3c7 0313 	ubfx	r3, r7, #0, #20
1a001f8c:	4632      	mov	r2, r6
1a001f8e:	0fd7      	lsrs	r7, r2, #31
1a001f90:	f403 2600 	and.w	r6, r3, #524288	; 0x80000
1a001f94:	ea47 0343 	orr.w	r3, r7, r3, lsl #1
1a001f98:	f3c3 0313 	ubfx	r3, r3, #0, #20
1a001f9c:	0052      	lsls	r2, r2, #1
1a001f9e:	b11e      	cbz	r6, 1a001fa8 <_frexpl+0x4a>
1a001fa0:	f363 0113 	bfi	r1, r3, #0, #20
1a001fa4:	4610      	mov	r0, r2
1a001fa6:	e001      	b.n	1a001fac <_frexpl+0x4e>
1a001fa8:	3c01      	subs	r4, #1
1a001faa:	e7f0      	b.n	1a001f8e <_frexpl+0x30>
1a001fac:	f240 33fe 	movw	r3, #1022	; 0x3fe
1a001fb0:	602c      	str	r4, [r5, #0]
1a001fb2:	f363 511e 	bfi	r1, r3, #20, #11
1a001fb6:	bdf8      	pop	{r3, r4, r5, r6, r7, pc}

1a001fb8 <_ldexpl>:
1a001fb8:	b570      	push	{r4, r5, r6, lr}
1a001fba:	2300      	movs	r3, #0
1a001fbc:	4616      	mov	r6, r2
1a001fbe:	2200      	movs	r2, #0
1a001fc0:	4604      	mov	r4, r0
1a001fc2:	460d      	mov	r5, r1
1a001fc4:	f000 fd1b 	bl	1a0029fe <__aeabi_dcmpeq>
1a001fc8:	b110      	cbz	r0, 1a001fd0 <_ldexpl+0x18>
1a001fca:	2000      	movs	r0, #0
1a001fcc:	2100      	movs	r1, #0
1a001fce:	bd70      	pop	{r4, r5, r6, pc}
1a001fd0:	f3c5 520a 	ubfx	r2, r5, #20, #11
1a001fd4:	4432      	add	r2, r6
1a001fd6:	f240 73fe 	movw	r3, #2046	; 0x7fe
1a001fda:	429a      	cmp	r2, r3
1a001fdc:	4620      	mov	r0, r4
1a001fde:	4629      	mov	r1, r5
1a001fe0:	dd06      	ble.n	1a001ff0 <_ldexpl+0x38>
1a001fe2:	4b06      	ldr	r3, [pc, #24]	; (1a001ffc <_ldexpl+0x44>)
1a001fe4:	2222      	movs	r2, #34	; 0x22
1a001fe6:	601a      	str	r2, [r3, #0]
1a001fe8:	4b05      	ldr	r3, [pc, #20]	; (1a002000 <_ldexpl+0x48>)
1a001fea:	e9d3 0100 	ldrd	r0, r1, [r3]
1a001fee:	bd70      	pop	{r4, r5, r6, pc}
1a001ff0:	2a00      	cmp	r2, #0
1a001ff2:	ddea      	ble.n	1a001fca <_ldexpl+0x12>
1a001ff4:	f362 511e 	bfi	r1, r2, #20, #11
1a001ff8:	bd70      	pop	{r4, r5, r6, pc}
1a001ffa:	bf00      	nop
1a001ffc:	100000e4 	.word	0x100000e4
1a002000:	1a002c48 	.word	0x1a002c48

1a002004 <_Cwritebuf>:
1a002004:	e92d 41f0 	stmdb	sp!, {r4, r5, r6, r7, r8, lr}
1a002008:	68d5      	ldr	r5, [r2, #12]
1a00200a:	6957      	ldr	r7, [r2, #20]
1a00200c:	02eb      	lsls	r3, r5, #11
1a00200e:	4680      	mov	r8, r0
1a002010:	460e      	mov	r6, r1
1a002012:	4614      	mov	r4, r2
1a002014:	d505      	bpl.n	1a002022 <_Cwritebuf+0x1e>
1a002016:	4638      	mov	r0, r7
1a002018:	f000 fdac 	bl	1a002b74 <__sys_flen>
1a00201c:	f045 0510 	orr.w	r5, r5, #16
1a002020:	61a0      	str	r0, [r4, #24]
1a002022:	4b13      	ldr	r3, [pc, #76]	; (1a002070 <_Cwritebuf+0x6c>)
1a002024:	402b      	ands	r3, r5
1a002026:	b153      	cbz	r3, 1a00203e <_Cwritebuf+0x3a>
1a002028:	4638      	mov	r0, r7
1a00202a:	69a1      	ldr	r1, [r4, #24]
1a00202c:	f000 fdb4 	bl	1a002b98 <__sys_seek>
1a002030:	2800      	cmp	r0, #0
1a002032:	db14      	blt.n	1a00205e <_Cwritebuf+0x5a>
1a002034:	f425 3500 	bic.w	r5, r5, #131072	; 0x20000
1a002038:	f025 0510 	bic.w	r5, r5, #16
1a00203c:	60e5      	str	r5, [r4, #12]
1a00203e:	4632      	mov	r2, r6
1a002040:	4638      	mov	r0, r7
1a002042:	4641      	mov	r1, r8
1a002044:	f000 fdb4 	bl	1a002bb0 <__sys_write>
1a002048:	1b80      	subs	r0, r0, r6
1a00204a:	bf18      	it	ne
1a00204c:	f04f 30ff 	movne.w	r0, #4294967295
1a002050:	f020 4300 	bic.w	r3, r0, #2147483648	; 0x80000000
1a002054:	1af6      	subs	r6, r6, r3
1a002056:	69a3      	ldr	r3, [r4, #24]
1a002058:	441e      	add	r6, r3
1a00205a:	61a6      	str	r6, [r4, #24]
1a00205c:	b128      	cbz	r0, 1a00206a <_Cwritebuf+0x66>
1a00205e:	68e3      	ldr	r3, [r4, #12]
1a002060:	f043 0380 	orr.w	r3, r3, #128	; 0x80
1a002064:	60e3      	str	r3, [r4, #12]
1a002066:	f04f 30ff 	mov.w	r0, #4294967295
1a00206a:	e8bd 81f0 	ldmia.w	sp!, {r4, r5, r6, r7, r8, pc}
1a00206e:	bf00      	nop
1a002070:	00020010 	.word	0x00020010

1a002074 <malloc>:
1a002074:	b5f8      	push	{r3, r4, r5, r6, r7, lr}
1a002076:	4b31      	ldr	r3, [pc, #196]	; (1a00213c <malloc+0xc8>)
1a002078:	1cc5      	adds	r5, r0, #3
1a00207a:	681c      	ldr	r4, [r3, #0]
1a00207c:	08ad      	lsrs	r5, r5, #2
1a00207e:	b198      	cbz	r0, 1a0020a8 <malloc+0x34>
1a002080:	461f      	mov	r7, r3
1a002082:	2600      	movs	r6, #0
1a002084:	f105 0e0a 	add.w	lr, r5, #10
1a002088:	f105 0c03 	add.w	ip, r5, #3
1a00208c:	e005      	b.n	1a00209a <malloc+0x26>
1a00208e:	6823      	ldr	r3, [r4, #0]
1a002090:	f1b3 5f80 	cmp.w	r3, #268435456	; 0x10000000
1a002094:	d014      	beq.n	1a0020c0 <malloc+0x4c>
1a002096:	4626      	mov	r6, r4
1a002098:	68a4      	ldr	r4, [r4, #8]
1a00209a:	2c00      	cmp	r4, #0
1a00209c:	d1f7      	bne.n	1a00208e <malloc+0x1a>
1a00209e:	300c      	adds	r0, #12
1a0020a0:	f000 f97c 	bl	1a00239c <_sbrk>
1a0020a4:	1c43      	adds	r3, r0, #1
1a0020a6:	d110      	bne.n	1a0020ca <malloc+0x56>
1a0020a8:	2000      	movs	r0, #0
1a0020aa:	bdf8      	pop	{r3, r4, r5, r6, r7, pc}
1a0020ac:	6811      	ldr	r1, [r2, #0]
1a0020ae:	f1b1 5f80 	cmp.w	r1, #268435456	; 0x10000000
1a0020b2:	d115      	bne.n	1a0020e0 <malloc+0x6c>
1a0020b4:	6851      	ldr	r1, [r2, #4]
1a0020b6:	440b      	add	r3, r1
1a0020b8:	3303      	adds	r3, #3
1a0020ba:	6063      	str	r3, [r4, #4]
1a0020bc:	6893      	ldr	r3, [r2, #8]
1a0020be:	60a3      	str	r3, [r4, #8]
1a0020c0:	68a2      	ldr	r2, [r4, #8]
1a0020c2:	6863      	ldr	r3, [r4, #4]
1a0020c4:	2a00      	cmp	r2, #0
1a0020c6:	d1f1      	bne.n	1a0020ac <malloc+0x38>
1a0020c8:	e00a      	b.n	1a0020e0 <malloc+0x6c>
1a0020ca:	f04f 5300 	mov.w	r3, #536870912	; 0x20000000
1a0020ce:	e880 0028 	stmia.w	r0, {r3, r5}
1a0020d2:	6084      	str	r4, [r0, #8]
1a0020d4:	b90e      	cbnz	r6, 1a0020da <malloc+0x66>
1a0020d6:	6038      	str	r0, [r7, #0]
1a0020d8:	e000      	b.n	1a0020dc <malloc+0x68>
1a0020da:	60b0      	str	r0, [r6, #8]
1a0020dc:	300c      	adds	r0, #12
1a0020de:	bdf8      	pop	{r3, r4, r5, r6, r7, pc}
1a0020e0:	42ab      	cmp	r3, r5
1a0020e2:	db07      	blt.n	1a0020f4 <malloc+0x80>
1a0020e4:	459c      	cmp	ip, r3
1a0020e6:	db05      	blt.n	1a0020f4 <malloc+0x80>
1a0020e8:	4620      	mov	r0, r4
1a0020ea:	f04f 5300 	mov.w	r3, #536870912	; 0x20000000
1a0020ee:	f840 3b0c 	str.w	r3, [r0], #12
1a0020f2:	bdf8      	pop	{r3, r4, r5, r6, r7, pc}
1a0020f4:	4573      	cmp	r3, lr
1a0020f6:	d911      	bls.n	1a00211c <malloc+0xa8>
1a0020f8:	4620      	mov	r0, r4
1a0020fa:	f04f 5100 	mov.w	r1, #536870912	; 0x20000000
1a0020fe:	6065      	str	r5, [r4, #4]
1a002100:	f840 1b0c 	str.w	r1, [r0], #12
1a002104:	eb00 0185 	add.w	r1, r0, r5, lsl #2
1a002108:	60a1      	str	r1, [r4, #8]
1a00210a:	f04f 5480 	mov.w	r4, #268435456	; 0x10000000
1a00210e:	f840 4025 	str.w	r4, [r0, r5, lsl #2]
1a002112:	1b5d      	subs	r5, r3, r5
1a002114:	3d03      	subs	r5, #3
1a002116:	604d      	str	r5, [r1, #4]
1a002118:	608a      	str	r2, [r1, #8]
1a00211a:	bdf8      	pop	{r3, r4, r5, r6, r7, pc}
1a00211c:	2a00      	cmp	r2, #0
1a00211e:	d1ba      	bne.n	1a002096 <malloc+0x22>
1a002120:	eba0 0083 	sub.w	r0, r0, r3, lsl #2
1a002124:	f000 f93a 	bl	1a00239c <_sbrk>
1a002128:	3001      	adds	r0, #1
1a00212a:	d0bd      	beq.n	1a0020a8 <malloc+0x34>
1a00212c:	f04f 5300 	mov.w	r3, #536870912	; 0x20000000
1a002130:	e884 0028 	stmia.w	r4, {r3, r5}
1a002134:	f104 000c 	add.w	r0, r4, #12
1a002138:	bdf8      	pop	{r3, r4, r5, r6, r7, pc}
1a00213a:	bf00      	nop
1a00213c:	1000022c 	.word	0x1000022c

1a002140 <free>:
1a002140:	b1a8      	cbz	r0, 1a00216e <free+0x2e>
1a002142:	f04f 5380 	mov.w	r3, #268435456	; 0x10000000
1a002146:	f840 3c0c 	str.w	r3, [r0, #-12]
1a00214a:	f850 2c04 	ldr.w	r2, [r0, #-4]
1a00214e:	b172      	cbz	r2, 1a00216e <free+0x2e>
1a002150:	6813      	ldr	r3, [r2, #0]
1a002152:	f1b3 5f80 	cmp.w	r3, #268435456	; 0x10000000
1a002156:	d10a      	bne.n	1a00216e <free+0x2e>
1a002158:	6853      	ldr	r3, [r2, #4]
1a00215a:	f850 1c08 	ldr.w	r1, [r0, #-8]
1a00215e:	440b      	add	r3, r1
1a002160:	3303      	adds	r3, #3
1a002162:	f840 3c08 	str.w	r3, [r0, #-8]
1a002166:	6893      	ldr	r3, [r2, #8]
1a002168:	f840 3c04 	str.w	r3, [r0, #-4]
1a00216c:	e7ed      	b.n	1a00214a <free+0xa>
1a00216e:	4770      	bx	lr

1a002170 <_Csys_alloc>:
1a002170:	b510      	push	{r4, lr}
1a002172:	f7ff ff7f 	bl	1a002074 <malloc>
1a002176:	4604      	mov	r4, r0
1a002178:	b928      	cbnz	r0, 1a002186 <_Csys_alloc+0x16>
1a00217a:	4904      	ldr	r1, [pc, #16]	; (1a00218c <_Csys_alloc+0x1c>)
1a00217c:	2217      	movs	r2, #23
1a00217e:	f000 fd17 	bl	1a002bb0 <__sys_write>
1a002182:	f000 fceb 	bl	1a002b5c <__exit>
1a002186:	4620      	mov	r0, r4
1a002188:	bd10      	pop	{r4, pc}
1a00218a:	bf00      	nop
1a00218c:	1a002c2d 	.word	0x1a002c2d

1a002190 <fclose>:
1a002190:	e92d 41f0 	stmdb	sp!, {r4, r5, r6, r7, r8, lr}
1a002194:	f100 050c 	add.w	r5, r0, #12
1a002198:	e895 01a0 	ldmia.w	r5, {r5, r7, r8}
1a00219c:	07a9      	lsls	r1, r5, #30
1a00219e:	b088      	sub	sp, #32
1a0021a0:	4604      	mov	r4, r0
1a0021a2:	6a46      	ldr	r6, [r0, #36]	; 0x24
1a0021a4:	d025      	beq.n	1a0021f2 <fclose+0x62>
1a0021a6:	072a      	lsls	r2, r5, #28
1a0021a8:	d416      	bmi.n	1a0021d8 <fclose+0x48>
1a0021aa:	f000 f827 	bl	1a0021fc <fflush>
1a0021ae:	4640      	mov	r0, r8
1a0021b0:	f000 fcda 	bl	1a002b68 <__sys_close>
1a0021b4:	052b      	lsls	r3, r5, #20
1a0021b6:	d502      	bpl.n	1a0021be <fclose+0x2e>
1a0021b8:	4638      	mov	r0, r7
1a0021ba:	f7ff ffc1 	bl	1a002140 <free>
1a0021be:	0dad      	lsrs	r5, r5, #22
1a0021c0:	05ad      	lsls	r5, r5, #22
1a0021c2:	f115 4fa5 	cmn.w	r5, #1384120320	; 0x52800000
1a0021c6:	d107      	bne.n	1a0021d8 <fclose+0x48>
1a0021c8:	4668      	mov	r0, sp
1a0021ca:	6a21      	ldr	r1, [r4, #32]
1a0021cc:	2220      	movs	r2, #32
1a0021ce:	f000 fce9 	bl	1a002ba4 <__sys_tmpnam>
1a0021d2:	4668      	mov	r0, sp
1a0021d4:	f000 f8d8 	bl	1a002388 <remove>
1a0021d8:	2100      	movs	r1, #0
1a0021da:	2218      	movs	r2, #24
1a0021dc:	6a60      	ldr	r0, [r4, #36]	; 0x24
1a0021de:	f7ff fd98 	bl	1a001d12 <memset>
1a0021e2:	4620      	mov	r0, r4
1a0021e4:	2100      	movs	r1, #0
1a0021e6:	2228      	movs	r2, #40	; 0x28
1a0021e8:	f7ff fd93 	bl	1a001d12 <memset>
1a0021ec:	6266      	str	r6, [r4, #36]	; 0x24
1a0021ee:	2000      	movs	r0, #0
1a0021f0:	e001      	b.n	1a0021f6 <fclose+0x66>
1a0021f2:	f04f 30ff 	mov.w	r0, #4294967295
1a0021f6:	b008      	add	sp, #32
1a0021f8:	e8bd 81f0 	ldmia.w	sp!, {r4, r5, r6, r7, r8, pc}

1a0021fc <fflush>:
1a0021fc:	b538      	push	{r3, r4, r5, lr}
1a0021fe:	4604      	mov	r4, r0
1a002200:	b118      	cbz	r0, 1a00220a <fflush+0xe>
1a002202:	e8bd 4038 	ldmia.w	sp!, {r3, r4, r5, lr}
1a002206:	f000 b8e9 	b.w	1a0023dc <_do_fflush>
1a00220a:	4605      	mov	r5, r0
1a00220c:	4806      	ldr	r0, [pc, #24]	; (1a002228 <fflush+0x2c>)
1a00220e:	4420      	add	r0, r4
1a002210:	f000 f8e4 	bl	1a0023dc <_do_fflush>
1a002214:	3428      	adds	r4, #40	; 0x28
1a002216:	2800      	cmp	r0, #0
1a002218:	bf18      	it	ne
1a00221a:	f04f 35ff 	movne.w	r5, #4294967295
1a00221e:	f5b4 7fa0 	cmp.w	r4, #320	; 0x140
1a002222:	d1f3      	bne.n	1a00220c <fflush+0x10>
1a002224:	4628      	mov	r0, r5
1a002226:	bd38      	pop	{r3, r4, r5, pc}
1a002228:	100000ec 	.word	0x100000ec

1a00222c <fseek>:
1a00222c:	e92d 43f8 	stmdb	sp!, {r3, r4, r5, r6, r7, r8, r9, lr}
1a002230:	68c6      	ldr	r6, [r0, #12]
1a002232:	4b41      	ldr	r3, [pc, #260]	; (1a002338 <fseek+0x10c>)
1a002234:	f8d0 9014 	ldr.w	r9, [r0, #20]
1a002238:	4033      	ands	r3, r6
1a00223a:	4604      	mov	r4, r0
1a00223c:	460d      	mov	r5, r1
1a00223e:	4690      	mov	r8, r2
1a002240:	2b00      	cmp	r3, #0
1a002242:	d075      	beq.n	1a002330 <fseek+0x104>
1a002244:	4648      	mov	r0, r9
1a002246:	f000 fc9b 	bl	1a002b80 <__sys_istty>
1a00224a:	4607      	mov	r7, r0
1a00224c:	2800      	cmp	r0, #0
1a00224e:	d16f      	bne.n	1a002330 <fseek+0x104>
1a002250:	f1b8 0f01 	cmp.w	r8, #1
1a002254:	d006      	beq.n	1a002264 <fseek+0x38>
1a002256:	f1b8 0f02 	cmp.w	r8, #2
1a00225a:	d008      	beq.n	1a00226e <fseek+0x42>
1a00225c:	f1b8 0f00 	cmp.w	r8, #0
1a002260:	d166      	bne.n	1a002330 <fseek+0x104>
1a002262:	e029      	b.n	1a0022b8 <fseek+0x8c>
1a002264:	4620      	mov	r0, r4
1a002266:	f000 f869 	bl	1a00233c <ftell>
1a00226a:	4405      	add	r5, r0
1a00226c:	e024      	b.n	1a0022b8 <fseek+0x8c>
1a00226e:	4648      	mov	r0, r9
1a002270:	f000 fc80 	bl	1a002b74 <__sys_flen>
1a002274:	f1b0 0e00 	subs.w	lr, r0, #0
1a002278:	f8d4 c00c 	ldr.w	ip, [r4, #12]
1a00227c:	da04      	bge.n	1a002288 <fseek+0x5c>
1a00227e:	f04c 0180 	orr.w	r1, ip, #128	; 0x80
1a002282:	60e1      	str	r1, [r4, #12]
1a002284:	2701      	movs	r7, #1
1a002286:	e054      	b.n	1a002332 <fseek+0x106>
1a002288:	6823      	ldr	r3, [r4, #0]
1a00228a:	6a60      	ldr	r0, [r4, #36]	; 0x24
1a00228c:	461a      	mov	r2, r3
1a00228e:	69a3      	ldr	r3, [r4, #24]
1a002290:	4619      	mov	r1, r3
1a002292:	6883      	ldr	r3, [r0, #8]
1a002294:	4293      	cmp	r3, r2
1a002296:	bf2c      	ite	cs
1a002298:	18c9      	addcs	r1, r1, r3
1a00229a:	1889      	addcc	r1, r1, r2
1a00229c:	6923      	ldr	r3, [r4, #16]
1a00229e:	f01c 0f20 	tst.w	ip, #32
1a0022a2:	eba1 0303 	sub.w	r3, r1, r3
1a0022a6:	d003      	beq.n	1a0022b0 <fseek+0x84>
1a0022a8:	6842      	ldr	r2, [r0, #4]
1a0022aa:	4293      	cmp	r3, r2
1a0022ac:	bfb8      	it	lt
1a0022ae:	4613      	movlt	r3, r2
1a0022b0:	4573      	cmp	r3, lr
1a0022b2:	bfac      	ite	ge
1a0022b4:	18ed      	addge	r5, r5, r3
1a0022b6:	4475      	addlt	r5, lr
1a0022b8:	2d00      	cmp	r5, #0
1a0022ba:	db39      	blt.n	1a002330 <fseek+0x104>
1a0022bc:	f416 5f00 	tst.w	r6, #8192	; 0x2000
1a0022c0:	6a62      	ldr	r2, [r4, #36]	; 0x24
1a0022c2:	d004      	beq.n	1a0022ce <fseek+0xa2>
1a0022c4:	6823      	ldr	r3, [r4, #0]
1a0022c6:	6891      	ldr	r1, [r2, #8]
1a0022c8:	4299      	cmp	r1, r3
1a0022ca:	bf38      	it	cc
1a0022cc:	6093      	strcc	r3, [r2, #8]
1a0022ce:	69a1      	ldr	r1, [r4, #24]
1a0022d0:	428d      	cmp	r5, r1
1a0022d2:	db10      	blt.n	1a0022f6 <fseek+0xca>
1a0022d4:	6890      	ldr	r0, [r2, #8]
1a0022d6:	6823      	ldr	r3, [r4, #0]
1a0022d8:	f8d4 e010 	ldr.w	lr, [r4, #16]
1a0022dc:	4283      	cmp	r3, r0
1a0022de:	bf38      	it	cc
1a0022e0:	4603      	movcc	r3, r0
1a0022e2:	1858      	adds	r0, r3, r1
1a0022e4:	ebce 0000 	rsb	r0, lr, r0
1a0022e8:	4285      	cmp	r5, r0
1a0022ea:	dc04      	bgt.n	1a0022f6 <fseek+0xca>
1a0022ec:	68d0      	ldr	r0, [r2, #12]
1a0022ee:	eb01 0c00 	add.w	ip, r1, r0
1a0022f2:	4565      	cmp	r5, ip
1a0022f4:	db06      	blt.n	1a002304 <fseek+0xd8>
1a0022f6:	2300      	movs	r3, #0
1a0022f8:	60a3      	str	r3, [r4, #8]
1a0022fa:	6063      	str	r3, [r4, #4]
1a0022fc:	f046 0620 	orr.w	r6, r6, #32
1a002300:	6055      	str	r5, [r2, #4]
1a002302:	e00f      	b.n	1a002324 <fseek+0xf8>
1a002304:	1a6d      	subs	r5, r5, r1
1a002306:	07b1      	lsls	r1, r6, #30
1a002308:	bf44      	itt	mi
1a00230a:	1a28      	submi	r0, r5, r0
1a00230c:	60a0      	strmi	r0, [r4, #8]
1a00230e:	07f2      	lsls	r2, r6, #31
1a002310:	bf44      	itt	mi
1a002312:	ebc3 030e 	rsbmi	r3, r3, lr
1a002316:	195b      	addmi	r3, r3, r5
1a002318:	4475      	add	r5, lr
1a00231a:	bf48      	it	mi
1a00231c:	6063      	strmi	r3, [r4, #4]
1a00231e:	6025      	str	r5, [r4, #0]
1a002320:	f026 0620 	bic.w	r6, r6, #32
1a002324:	f426 2603 	bic.w	r6, r6, #536576	; 0x83000
1a002328:	f026 0640 	bic.w	r6, r6, #64	; 0x40
1a00232c:	60e6      	str	r6, [r4, #12]
1a00232e:	e000      	b.n	1a002332 <fseek+0x106>
1a002330:	2702      	movs	r7, #2
1a002332:	4638      	mov	r0, r7
1a002334:	e8bd 83f8 	ldmia.w	sp!, {r3, r4, r5, r6, r7, r8, r9, pc}
1a002338:	00100003 	.word	0x00100003

1a00233c <ftell>:
1a00233c:	68c3      	ldr	r3, [r0, #12]
1a00233e:	079a      	lsls	r2, r3, #30
1a002340:	d105      	bne.n	1a00234e <ftell+0x12>
1a002342:	4b10      	ldr	r3, [pc, #64]	; (1a002384 <ftell+0x48>)
1a002344:	2221      	movs	r2, #33	; 0x21
1a002346:	601a      	str	r2, [r3, #0]
1a002348:	f04f 30ff 	mov.w	r0, #4294967295
1a00234c:	4770      	bx	lr
1a00234e:	f413 2f00 	tst.w	r3, #524288	; 0x80000
1a002352:	f003 0320 	and.w	r3, r3, #32
1a002356:	d00a      	beq.n	1a00236e <ftell+0x32>
1a002358:	b113      	cbz	r3, 1a002360 <ftell+0x24>
1a00235a:	6a43      	ldr	r3, [r0, #36]	; 0x24
1a00235c:	6858      	ldr	r0, [r3, #4]
1a00235e:	e004      	b.n	1a00236a <ftell+0x2e>
1a002360:	6802      	ldr	r2, [r0, #0]
1a002362:	6983      	ldr	r3, [r0, #24]
1a002364:	6900      	ldr	r0, [r0, #16]
1a002366:	4413      	add	r3, r2
1a002368:	1a18      	subs	r0, r3, r0
1a00236a:	3801      	subs	r0, #1
1a00236c:	4770      	bx	lr
1a00236e:	b113      	cbz	r3, 1a002376 <ftell+0x3a>
1a002370:	6a43      	ldr	r3, [r0, #36]	; 0x24
1a002372:	6858      	ldr	r0, [r3, #4]
1a002374:	4770      	bx	lr
1a002376:	6802      	ldr	r2, [r0, #0]
1a002378:	6983      	ldr	r3, [r0, #24]
1a00237a:	6900      	ldr	r0, [r0, #16]
1a00237c:	4413      	add	r3, r2
1a00237e:	1a18      	subs	r0, r3, r0
1a002380:	4770      	bx	lr
1a002382:	bf00      	nop
1a002384:	100000e4 	.word	0x100000e4

1a002388 <remove>:
1a002388:	b510      	push	{r4, lr}
1a00238a:	4604      	mov	r4, r0
1a00238c:	f7ff fc9c 	bl	1a001cc8 <strlen>
1a002390:	4601      	mov	r1, r0
1a002392:	4620      	mov	r0, r4
1a002394:	e8bd 4010 	ldmia.w	sp!, {r4, lr}
1a002398:	f000 bbf8 	b.w	1a002b8c <__sys_remove>

1a00239c <_sbrk>:
1a00239c:	b538      	push	{r3, r4, r5, lr}
1a00239e:	4b0c      	ldr	r3, [pc, #48]	; (1a0023d0 <_sbrk+0x34>)
1a0023a0:	681a      	ldr	r2, [r3, #0]
1a0023a2:	b90a      	cbnz	r2, 1a0023a8 <_sbrk+0xc>
1a0023a4:	4a0b      	ldr	r2, [pc, #44]	; (1a0023d4 <_sbrk+0x38>)
1a0023a6:	601a      	str	r2, [r3, #0]
1a0023a8:	1cc4      	adds	r4, r0, #3
1a0023aa:	681d      	ldr	r5, [r3, #0]
1a0023ac:	f024 0403 	bic.w	r4, r4, #3
1a0023b0:	442c      	add	r4, r5
1a0023b2:	4620      	mov	r0, r4
1a0023b4:	f000 f834 	bl	1a002420 <__check_heap_overflow>
1a0023b8:	b918      	cbnz	r0, 1a0023c2 <_sbrk+0x26>
1a0023ba:	4b05      	ldr	r3, [pc, #20]	; (1a0023d0 <_sbrk+0x34>)
1a0023bc:	4628      	mov	r0, r5
1a0023be:	601c      	str	r4, [r3, #0]
1a0023c0:	bd38      	pop	{r3, r4, r5, pc}
1a0023c2:	4b05      	ldr	r3, [pc, #20]	; (1a0023d8 <_sbrk+0x3c>)
1a0023c4:	220c      	movs	r2, #12
1a0023c6:	601a      	str	r2, [r3, #0]
1a0023c8:	f04f 30ff 	mov.w	r0, #4294967295
1a0023cc:	bd38      	pop	{r3, r4, r5, pc}
1a0023ce:	bf00      	nop
1a0023d0:	10000230 	.word	0x10000230
1a0023d4:	10000234 	.word	0x10000234
1a0023d8:	100000e4 	.word	0x100000e4

1a0023dc <_do_fflush>:
1a0023dc:	68c2      	ldr	r2, [r0, #12]
1a0023de:	f012 0303 	ands.w	r3, r2, #3
1a0023e2:	b570      	push	{r4, r5, r6, lr}
1a0023e4:	4604      	mov	r4, r0
1a0023e6:	d019      	beq.n	1a00241c <_do_fflush+0x40>
1a0023e8:	0693      	lsls	r3, r2, #26
1a0023ea:	d504      	bpl.n	1a0023f6 <_do_fflush+0x1a>
1a0023ec:	6a43      	ldr	r3, [r0, #36]	; 0x24
1a0023ee:	685d      	ldr	r5, [r3, #4]
1a0023f0:	f7ff fc91 	bl	1a001d16 <_deferredlazyseek>
1a0023f4:	e004      	b.n	1a002400 <_do_fflush+0x24>
1a0023f6:	6805      	ldr	r5, [r0, #0]
1a0023f8:	6983      	ldr	r3, [r0, #24]
1a0023fa:	442b      	add	r3, r5
1a0023fc:	6905      	ldr	r5, [r0, #16]
1a0023fe:	1b5d      	subs	r5, r3, r5
1a002400:	68e3      	ldr	r3, [r4, #12]
1a002402:	f423 5340 	bic.w	r3, r3, #12288	; 0x3000
1a002406:	60e3      	str	r3, [r4, #12]
1a002408:	4620      	mov	r0, r4
1a00240a:	f7ff fd7c 	bl	1a001f06 <_fflush>
1a00240e:	4629      	mov	r1, r5
1a002410:	4606      	mov	r6, r0
1a002412:	2200      	movs	r2, #0
1a002414:	4620      	mov	r0, r4
1a002416:	f7ff ff09 	bl	1a00222c <fseek>
1a00241a:	4633      	mov	r3, r6
1a00241c:	4618      	mov	r0, r3
1a00241e:	bd70      	pop	{r4, r5, r6, pc}

1a002420 <__check_heap_overflow>:
1a002420:	4b04      	ldr	r3, [pc, #16]	; (1a002434 <__check_heap_overflow+0x14>)
1a002422:	b123      	cbz	r3, 1a00242e <__check_heap_overflow+0xe>
1a002424:	4298      	cmp	r0, r3
1a002426:	bf34      	ite	cc
1a002428:	2000      	movcc	r0, #0
1a00242a:	2001      	movcs	r0, #1
1a00242c:	4770      	bx	lr
1a00242e:	4618      	mov	r0, r3
1a002430:	4770      	bx	lr
1a002432:	bf00      	nop
1a002434:	00000000 	.word	0x00000000

1a002438 <__aeabi_dmul>:
1a002438:	e92d 43f0 	stmdb	sp!, {r4, r5, r6, r7, r8, r9, lr}
1a00243c:	f3c1 550a 	ubfx	r5, r1, #20, #11
1a002440:	461c      	mov	r4, r3
1a002442:	404b      	eors	r3, r1
1a002444:	2d00      	cmp	r5, #0
1a002446:	d059      	beq.n	1a0024fc <__aeabi_dmul+0xc4>
1a002448:	f240 77ff 	movw	r7, #2047	; 0x7ff
1a00244c:	42bd      	cmp	r5, r7
1a00244e:	d055      	beq.n	1a0024fc <__aeabi_dmul+0xc4>
1a002450:	f3c4 560a 	ubfx	r6, r4, #20, #11
1a002454:	2e00      	cmp	r6, #0
1a002456:	d051      	beq.n	1a0024fc <__aeabi_dmul+0xc4>
1a002458:	42be      	cmp	r6, r7
1a00245a:	d04f      	beq.n	1a0024fc <__aeabi_dmul+0xc4>
1a00245c:	f3c1 0113 	ubfx	r1, r1, #0, #20
1a002460:	f441 1180 	orr.w	r1, r1, #1048576	; 0x100000
1a002464:	ea4f 28c2 	mov.w	r8, r2, lsl #11
1a002468:	ea4f 5e52 	mov.w	lr, r2, lsr #21
1a00246c:	eb06 0c05 	add.w	ip, r6, r5
1a002470:	ea4e 2ec4 	orr.w	lr, lr, r4, lsl #11
1a002474:	fba1 4508 	umull	r4, r5, r1, r8
1a002478:	fba8 8900 	umull	r8, r9, r8, r0
1a00247c:	eb14 0609 	adds.w	r6, r4, r9
1a002480:	f04f 0700 	mov.w	r7, #0
1a002484:	f04e 4e00 	orr.w	lr, lr, #2147483648	; 0x80000000
1a002488:	f147 0700 	adc.w	r7, r7, #0
1a00248c:	fbe0 670e 	umlal	r6, r7, r0, lr
1a002490:	462c      	mov	r4, r5
1a002492:	19e4      	adds	r4, r4, r7
1a002494:	f04f 0500 	mov.w	r5, #0
1a002498:	f145 0500 	adc.w	r5, r5, #0
1a00249c:	fbe1 450e 	umlal	r4, r5, r1, lr
1a0024a0:	f5b5 1f80 	cmp.w	r5, #1048576	; 0x100000
1a0024a4:	f003 4300 	and.w	r3, r3, #2147483648	; 0x80000000
1a0024a8:	ea46 0698 	orr.w	r6, r6, r8, lsr #2
1a0024ac:	d208      	bcs.n	1a0024c0 <__aeabi_dmul+0x88>
1a0024ae:	1924      	adds	r4, r4, r4
1a0024b0:	ea4f 72d6 	mov.w	r2, r6, lsr #31
1a0024b4:	f5ac 6c80 	sub.w	ip, ip, #1024	; 0x400
1a0024b8:	416d      	adcs	r5, r5
1a0024ba:	4314      	orrs	r4, r2
1a0024bc:	0076      	lsls	r6, r6, #1
1a0024be:	e001      	b.n	1a0024c4 <__aeabi_dmul+0x8c>
1a0024c0:	f2ac 3cff 	subw	ip, ip, #1023	; 0x3ff
1a0024c4:	0ff2      	lsrs	r2, r6, #31
1a0024c6:	18a4      	adds	r4, r4, r2
1a0024c8:	f145 0500 	adc.w	r5, r5, #0
1a0024cc:	f240 71fd 	movw	r1, #2045	; 0x7fd
1a0024d0:	f1b6 4f00 	cmp.w	r6, #2147483648	; 0x80000000
1a0024d4:	4622      	mov	r2, r4
1a0024d6:	bf08      	it	eq
1a0024d8:	f024 0201 	biceq.w	r2, r4, #1
1a0024dc:	458c      	cmp	ip, r1
1a0024de:	d805      	bhi.n	1a0024ec <__aeabi_dmul+0xb4>
1a0024e0:	432b      	orrs	r3, r5
1a0024e2:	eb03 510c 	add.w	r1, r3, ip, lsl #20
1a0024e6:	4610      	mov	r0, r2
1a0024e8:	e8bd 83f0 	ldmia.w	sp!, {r4, r5, r6, r7, r8, r9, pc}
1a0024ec:	f1bc 0f00 	cmp.w	ip, #0
1a0024f0:	db0e      	blt.n	1a002510 <__aeabi_dmul+0xd8>
1a0024f2:	f043 43ff 	orr.w	r3, r3, #2139095040	; 0x7f800000
1a0024f6:	f443 03e0 	orr.w	r3, r3, #7340032	; 0x700000
1a0024fa:	e009      	b.n	1a002510 <__aeabi_dmul+0xd8>
1a0024fc:	0049      	lsls	r1, r1, #1
1a0024fe:	f511 1f00 	cmn.w	r1, #2097152	; 0x200000
1a002502:	f003 4300 	and.w	r3, r3, #2147483648	; 0x80000000
1a002506:	d207      	bcs.n	1a002518 <__aeabi_dmul+0xe0>
1a002508:	0062      	lsls	r2, r4, #1
1a00250a:	f512 1f00 	cmn.w	r2, #2097152	; 0x200000
1a00250e:	d204      	bcs.n	1a00251a <__aeabi_dmul+0xe2>
1a002510:	2000      	movs	r0, #0
1a002512:	4619      	mov	r1, r3
1a002514:	e8bd 83f0 	ldmia.w	sp!, {r4, r5, r6, r7, r8, r9, pc}
1a002518:	d109      	bne.n	1a00252e <__aeabi_dmul+0xf6>
1a00251a:	0064      	lsls	r4, r4, #1
1a00251c:	f514 1f00 	cmn.w	r4, #2097152	; 0x200000
1a002520:	d805      	bhi.n	1a00252e <__aeabi_dmul+0xf6>
1a002522:	0d49      	lsrs	r1, r1, #21
1a002524:	0549      	lsls	r1, r1, #21
1a002526:	b111      	cbz	r1, 1a00252e <__aeabi_dmul+0xf6>
1a002528:	0d64      	lsrs	r4, r4, #21
1a00252a:	0564      	lsls	r4, r4, #21
1a00252c:	b91c      	cbnz	r4, 1a002536 <__aeabi_dmul+0xfe>
1a00252e:	2000      	movs	r0, #0
1a002530:	4904      	ldr	r1, [pc, #16]	; (1a002544 <__aeabi_dmul+0x10c>)
1a002532:	e8bd 83f0 	ldmia.w	sp!, {r4, r5, r6, r7, r8, r9, pc}
1a002536:	f043 43ff 	orr.w	r3, r3, #2139095040	; 0x7f800000
1a00253a:	2000      	movs	r0, #0
1a00253c:	f443 01e0 	orr.w	r1, r3, #7340032	; 0x700000
1a002540:	e8bd 83f0 	ldmia.w	sp!, {r4, r5, r6, r7, r8, r9, pc}
1a002544:	7ff80000 	.word	0x7ff80000

1a002548 <__aeabi_ddiv>:
1a002548:	e92d 43f0 	stmdb	sp!, {r4, r5, r6, r7, r8, r9, lr}
1a00254c:	461d      	mov	r5, r3
1a00254e:	f3c1 570a 	ubfx	r7, r1, #20, #11
1a002552:	460b      	mov	r3, r1
1a002554:	462e      	mov	r6, r5
1a002556:	2f00      	cmp	r7, #0
1a002558:	d058      	beq.n	1a00260c <__aeabi_ddiv+0xc4>
1a00255a:	f240 74ff 	movw	r4, #2047	; 0x7ff
1a00255e:	42a7      	cmp	r7, r4
1a002560:	d054      	beq.n	1a00260c <__aeabi_ddiv+0xc4>
1a002562:	f3c5 510a 	ubfx	r1, r5, #20, #11
1a002566:	2900      	cmp	r1, #0
1a002568:	d050      	beq.n	1a00260c <__aeabi_ddiv+0xc4>
1a00256a:	42a1      	cmp	r1, r4
1a00256c:	d04e      	beq.n	1a00260c <__aeabi_ddiv+0xc4>
1a00256e:	0d44      	lsrs	r4, r0, #21
1a002570:	1a7f      	subs	r7, r7, r1
1a002572:	ea85 0103 	eor.w	r1, r5, r3
1a002576:	ea44 23c3 	orr.w	r3, r4, r3, lsl #11
1a00257a:	f043 4500 	orr.w	r5, r3, #2147483648	; 0x80000000
1a00257e:	0d53      	lsrs	r3, r2, #21
1a002580:	ea43 23c6 	orr.w	r3, r3, r6, lsl #11
1a002584:	f043 4900 	orr.w	r9, r3, #2147483648	; 0x80000000
1a002588:	02c4      	lsls	r4, r0, #11
1a00258a:	ea4f 28c2 	mov.w	r8, r2, lsl #11
1a00258e:	454d      	cmp	r5, r9
1a002590:	bf08      	it	eq
1a002592:	4544      	cmpeq	r4, r8
1a002594:	d202      	bcs.n	1a00259c <__aeabi_ddiv+0x54>
1a002596:	f207 30fd 	addw	r0, r7, #1021	; 0x3fd
1a00259a:	e004      	b.n	1a0025a6 <__aeabi_ddiv+0x5e>
1a00259c:	086d      	lsrs	r5, r5, #1
1a00259e:	ea4f 0434 	mov.w	r4, r4, rrx
1a0025a2:	f207 30fe 	addw	r0, r7, #1022	; 0x3fe
1a0025a6:	ea5f 0759 	movs.w	r7, r9, lsr #1
1a0025aa:	ea4f 0638 	mov.w	r6, r8, rrx
1a0025ae:	2335      	movs	r3, #53	; 0x35
1a0025b0:	2200      	movs	r2, #0
1a0025b2:	42bd      	cmp	r5, r7
1a0025b4:	bf08      	it	eq
1a0025b6:	42b4      	cmpeq	r4, r6
1a0025b8:	ea4f 0242 	mov.w	r2, r2, lsl #1
1a0025bc:	d304      	bcc.n	1a0025c8 <__aeabi_ddiv+0x80>
1a0025be:	1ba4      	subs	r4, r4, r6
1a0025c0:	eb65 0507 	sbc.w	r5, r5, r7
1a0025c4:	f042 0201 	orr.w	r2, r2, #1
1a0025c8:	1924      	adds	r4, r4, r4
1a0025ca:	416d      	adcs	r5, r5
1a0025cc:	2b21      	cmp	r3, #33	; 0x21
1a0025ce:	bf08      	it	eq
1a0025d0:	4696      	moveq	lr, r2
1a0025d2:	3b01      	subs	r3, #1
1a0025d4:	d1ed      	bne.n	1a0025b2 <__aeabi_ddiv+0x6a>
1a0025d6:	42bd      	cmp	r5, r7
1a0025d8:	bf08      	it	eq
1a0025da:	42b4      	cmpeq	r4, r6
1a0025dc:	d303      	bcc.n	1a0025e6 <__aeabi_ddiv+0x9e>
1a0025de:	3201      	adds	r2, #1
1a0025e0:	bf08      	it	eq
1a0025e2:	f10e 0e01 	addeq.w	lr, lr, #1
1a0025e6:	f001 4300 	and.w	r3, r1, #2147483648	; 0x80000000
1a0025ea:	f240 71fd 	movw	r1, #2045	; 0x7fd
1a0025ee:	4288      	cmp	r0, r1
1a0025f0:	d804      	bhi.n	1a0025fc <__aeabi_ddiv+0xb4>
1a0025f2:	eb03 5300 	add.w	r3, r3, r0, lsl #20
1a0025f6:	eb03 010e 	add.w	r1, r3, lr
1a0025fa:	e022      	b.n	1a002642 <__aeabi_ddiv+0xfa>
1a0025fc:	2800      	cmp	r0, #0
1a0025fe:	bfa4      	itt	ge
1a002600:	f043 43ff 	orrge.w	r3, r3, #2139095040	; 0x7f800000
1a002604:	f443 03e0 	orrge.w	r3, r3, #7340032	; 0x700000
1a002608:	2000      	movs	r0, #0
1a00260a:	e034      	b.n	1a002676 <__aeabi_ddiv+0x12e>
1a00260c:	0059      	lsls	r1, r3, #1
1a00260e:	f511 1f00 	cmn.w	r1, #2097152	; 0x200000
1a002612:	d803      	bhi.n	1a00261c <__aeabi_ddiv+0xd4>
1a002614:	0070      	lsls	r0, r6, #1
1a002616:	f510 1f00 	cmn.w	r0, #2097152	; 0x200000
1a00261a:	d901      	bls.n	1a002620 <__aeabi_ddiv+0xd8>
1a00261c:	2000      	movs	r0, #0
1a00261e:	e02d      	b.n	1a00267c <__aeabi_ddiv+0x134>
1a002620:	ea46 0203 	orr.w	r2, r6, r3
1a002624:	f3c2 520a 	ubfx	r2, r2, #20, #11
1a002628:	0554      	lsls	r4, r2, #21
1a00262a:	b91a      	cbnz	r2, 1a002634 <__aeabi_ddiv+0xec>
1a00262c:	4915      	ldr	r1, [pc, #84]	; (1a002684 <__aeabi_ddiv+0x13c>)
1a00262e:	4620      	mov	r0, r4
1a002630:	e8bd 83f0 	ldmia.w	sp!, {r4, r5, r6, r7, r8, r9, pc}
1a002634:	0d4a      	lsrs	r2, r1, #21
1a002636:	4073      	eors	r3, r6
1a002638:	0552      	lsls	r2, r2, #21
1a00263a:	f003 4300 	and.w	r3, r3, #2147483648	; 0x80000000
1a00263e:	b91a      	cbnz	r2, 1a002648 <__aeabi_ddiv+0x100>
1a002640:	4619      	mov	r1, r3
1a002642:	4610      	mov	r0, r2
1a002644:	e8bd 83f0 	ldmia.w	sp!, {r4, r5, r6, r7, r8, r9, pc}
1a002648:	0d42      	lsrs	r2, r0, #21
1a00264a:	0552      	lsls	r2, r2, #21
1a00264c:	b922      	cbnz	r2, 1a002658 <__aeabi_ddiv+0x110>
1a00264e:	f043 43ff 	orr.w	r3, r3, #2139095040	; 0x7f800000
1a002652:	f443 01e0 	orr.w	r1, r3, #7340032	; 0x700000
1a002656:	e7f4      	b.n	1a002642 <__aeabi_ddiv+0xfa>
1a002658:	f510 1f00 	cmn.w	r0, #2097152	; 0x200000
1a00265c:	d006      	beq.n	1a00266c <__aeabi_ddiv+0x124>
1a00265e:	f043 43ff 	orr.w	r3, r3, #2139095040	; 0x7f800000
1a002662:	2000      	movs	r0, #0
1a002664:	f443 01e0 	orr.w	r1, r3, #7340032	; 0x700000
1a002668:	e8bd 83f0 	ldmia.w	sp!, {r4, r5, r6, r7, r8, r9, pc}
1a00266c:	f511 1f00 	cmn.w	r1, #2097152	; 0x200000
1a002670:	f04f 0000 	mov.w	r0, #0
1a002674:	d002      	beq.n	1a00267c <__aeabi_ddiv+0x134>
1a002676:	4619      	mov	r1, r3
1a002678:	e8bd 83f0 	ldmia.w	sp!, {r4, r5, r6, r7, r8, r9, pc}
1a00267c:	4901      	ldr	r1, [pc, #4]	; (1a002684 <__aeabi_ddiv+0x13c>)
1a00267e:	e8bd 83f0 	ldmia.w	sp!, {r4, r5, r6, r7, r8, r9, pc}
1a002682:	bf00      	nop
1a002684:	7ff80000 	.word	0x7ff80000

1a002688 <__aeabi_dsub>:
1a002688:	b5f0      	push	{r4, r5, r6, r7, lr}
1a00268a:	461f      	mov	r7, r3
1a00268c:	404b      	eors	r3, r1
1a00268e:	460c      	mov	r4, r1
1a002690:	4605      	mov	r5, r0
1a002692:	4696      	mov	lr, r2
1a002694:	d505      	bpl.n	1a0026a2 <__aeabi_dsub+0x1a>
1a002696:	f107 4300 	add.w	r3, r7, #2147483648	; 0x80000000
1a00269a:	e8bd 40f0 	ldmia.w	sp!, {r4, r5, r6, r7, lr}
1a00269e:	f000 b8cf 	b.w	1a002840 <__aeabi_dadd>
1a0026a2:	42b9      	cmp	r1, r7
1a0026a4:	d303      	bcc.n	1a0026ae <__aeabi_dsub+0x26>
1a0026a6:	4290      	cmp	r0, r2
1a0026a8:	d80b      	bhi.n	1a0026c2 <__aeabi_dsub+0x3a>
1a0026aa:	42b9      	cmp	r1, r7
1a0026ac:	d109      	bne.n	1a0026c2 <__aeabi_dsub+0x3a>
1a0026ae:	f103 4300 	add.w	r3, r3, #2147483648	; 0x80000000
1a0026b2:	405c      	eors	r4, r3
1a0026b4:	405f      	eors	r7, r3
1a0026b6:	ea8e 0305 	eor.w	r3, lr, r5
1a0026ba:	ea8e 0e03 	eor.w	lr, lr, r3
1a0026be:	ea8e 0503 	eor.w	r5, lr, r3
1a0026c2:	0d26      	lsrs	r6, r4, #20
1a0026c4:	f426 6300 	bic.w	r3, r6, #2048	; 0x800
1a0026c8:	f240 71ff 	movw	r1, #2047	; 0x7ff
1a0026cc:	428b      	cmp	r3, r1
1a0026ce:	eba6 5217 	sub.w	r2, r6, r7, lsr #20
1a0026d2:	f000 80a5 	beq.w	1a002820 <__aeabi_dsub+0x198>
1a0026d6:	429a      	cmp	r2, r3
1a0026d8:	f000 809b 	beq.w	1a002812 <__aeabi_dsub+0x18a>
1a0026dc:	f3c4 0113 	ubfx	r1, r4, #0, #20
1a0026e0:	f3c7 0313 	ubfx	r3, r7, #0, #20
1a0026e4:	2a1f      	cmp	r2, #31
1a0026e6:	f441 1180 	orr.w	r1, r1, #1048576	; 0x100000
1a0026ea:	f443 1380 	orr.w	r3, r3, #1048576	; 0x100000
1a0026ee:	d852      	bhi.n	1a002796 <__aeabi_dsub+0x10e>
1a0026f0:	fa23 f002 	lsr.w	r0, r3, r2
1a0026f4:	1a09      	subs	r1, r1, r0
1a0026f6:	fa2e f002 	lsr.w	r0, lr, r2
1a0026fa:	f1c2 0220 	rsb	r2, r2, #32
1a0026fe:	4093      	lsls	r3, r2
1a002700:	4318      	orrs	r0, r3
1a002702:	1a28      	subs	r0, r5, r0
1a002704:	42a8      	cmp	r0, r5
1a002706:	bf88      	it	hi
1a002708:	f101 31ff 	addhi.w	r1, r1, #4294967295
1a00270c:	fa1e f302 	lsls.w	r3, lr, r2
1a002710:	d004      	beq.n	1a00271c <__aeabi_dsub+0x94>
1a002712:	425b      	negs	r3, r3
1a002714:	1e45      	subs	r5, r0, #1
1a002716:	b910      	cbnz	r0, 1a00271e <__aeabi_dsub+0x96>
1a002718:	3901      	subs	r1, #1
1a00271a:	e000      	b.n	1a00271e <__aeabi_dsub+0x96>
1a00271c:	4605      	mov	r5, r0
1a00271e:	f411 1fc0 	tst.w	r1, #1572864	; 0x180000
1a002722:	d157      	bne.n	1a0027d4 <__aeabi_dsub+0x14c>
1a002724:	0fea      	lsrs	r2, r5, #31
1a002726:	0fdb      	lsrs	r3, r3, #31
1a002728:	ea42 0241 	orr.w	r2, r2, r1, lsl #1
1a00272c:	ea43 0345 	orr.w	r3, r3, r5, lsl #1
1a002730:	ea53 0402 	orrs.w	r4, r3, r2
1a002734:	d001      	beq.n	1a00273a <__aeabi_dsub+0xb2>
1a002736:	1eb4      	subs	r4, r6, #2
1a002738:	e002      	b.n	1a002740 <__aeabi_dsub+0xb8>
1a00273a:	4621      	mov	r1, r4
1a00273c:	4620      	mov	r0, r4
1a00273e:	bdf0      	pop	{r4, r5, r6, r7, pc}
1a002740:	0b51      	lsrs	r1, r2, #13
1a002742:	d105      	bne.n	1a002750 <__aeabi_dsub+0xc8>
1a002744:	0e19      	lsrs	r1, r3, #24
1a002746:	ea41 2202 	orr.w	r2, r1, r2, lsl #8
1a00274a:	021b      	lsls	r3, r3, #8
1a00274c:	3c08      	subs	r4, #8
1a00274e:	e7f7      	b.n	1a002740 <__aeabi_dsub+0xb8>
1a002750:	0c51      	lsrs	r1, r2, #17
1a002752:	bf01      	itttt	eq
1a002754:	0f19      	lsreq	r1, r3, #28
1a002756:	ea41 1202 	orreq.w	r2, r1, r2, lsl #4
1a00275a:	011b      	lsleq	r3, r3, #4
1a00275c:	3c04      	subeq	r4, #4
1a00275e:	0cd1      	lsrs	r1, r2, #19
1a002760:	bf01      	itttt	eq
1a002762:	0f99      	lsreq	r1, r3, #30
1a002764:	ea41 0282 	orreq.w	r2, r1, r2, lsl #2
1a002768:	009b      	lsleq	r3, r3, #2
1a00276a:	3c02      	subeq	r4, #2
1a00276c:	0d11      	lsrs	r1, r2, #20
1a00276e:	bf04      	itt	eq
1a002770:	0fd9      	lsreq	r1, r3, #31
1a002772:	f104 34ff 	addeq.w	r4, r4, #4294967295
1a002776:	ea4f 26d6 	mov.w	r6, r6, lsr #11
1a00277a:	bf04      	itt	eq
1a00277c:	ea41 0242 	orreq.w	r2, r1, r2, lsl #1
1a002780:	005b      	lsleq	r3, r3, #1
1a002782:	ebb6 2fd4 	cmp.w	r6, r4, lsr #11
1a002786:	f04f 0000 	mov.w	r0, #0
1a00278a:	bf06      	itte	eq
1a00278c:	eb02 5104 	addeq.w	r1, r2, r4, lsl #20
1a002790:	4618      	moveq	r0, r3
1a002792:	07f1      	lslne	r1, r6, #31
1a002794:	bdf0      	pop	{r4, r5, r6, r7, pc}
1a002796:	2a35      	cmp	r2, #53	; 0x35
1a002798:	d81c      	bhi.n	1a0027d4 <__aeabi_dsub+0x14c>
1a00279a:	f1a2 0420 	sub.w	r4, r2, #32
1a00279e:	fa23 f004 	lsr.w	r0, r3, r4
1a0027a2:	f1c2 0240 	rsb	r2, r2, #64	; 0x40
1a0027a6:	1a28      	subs	r0, r5, r0
1a0027a8:	42a8      	cmp	r0, r5
1a0027aa:	fa03 f302 	lsl.w	r3, r3, r2
1a0027ae:	fa2e f204 	lsr.w	r2, lr, r4
1a0027b2:	bf88      	it	hi
1a0027b4:	f101 31ff 	addhi.w	r1, r1, #4294967295
1a0027b8:	4313      	orrs	r3, r2
1a0027ba:	ea5f 620e 	movs.w	r2, lr, lsl #24
1a0027be:	d002      	beq.n	1a0027c6 <__aeabi_dsub+0x13e>
1a0027c0:	f043 03ff 	orr.w	r3, r3, #255	; 0xff
1a0027c4:	e000      	b.n	1a0027c8 <__aeabi_dsub+0x140>
1a0027c6:	b123      	cbz	r3, 1a0027d2 <__aeabi_dsub+0x14a>
1a0027c8:	425b      	negs	r3, r3
1a0027ca:	1e45      	subs	r5, r0, #1
1a0027cc:	b910      	cbnz	r0, 1a0027d4 <__aeabi_dsub+0x14c>
1a0027ce:	3901      	subs	r1, #1
1a0027d0:	e000      	b.n	1a0027d4 <__aeabi_dsub+0x14c>
1a0027d2:	4605      	mov	r5, r0
1a0027d4:	02ca      	lsls	r2, r1, #11
1a0027d6:	d40c      	bmi.n	1a0027f2 <__aeabi_dsub+0x16a>
1a0027d8:	3e01      	subs	r6, #1
1a0027da:	0572      	lsls	r2, r6, #21
1a0027dc:	d007      	beq.n	1a0027ee <__aeabi_dsub+0x166>
1a0027de:	0fea      	lsrs	r2, r5, #31
1a0027e0:	ea42 0141 	orr.w	r1, r2, r1, lsl #1
1a0027e4:	0fda      	lsrs	r2, r3, #31
1a0027e6:	ea42 0545 	orr.w	r5, r2, r5, lsl #1
1a0027ea:	005b      	lsls	r3, r3, #1
1a0027ec:	e001      	b.n	1a0027f2 <__aeabi_dsub+0x16a>
1a0027ee:	0531      	lsls	r1, r6, #20
1a0027f0:	e01e      	b.n	1a002830 <__aeabi_dsub+0x1a8>
1a0027f2:	2b00      	cmp	r3, #0
1a0027f4:	f421 1280 	bic.w	r2, r1, #1048576	; 0x100000
1a0027f8:	ea4f 5606 	mov.w	r6, r6, lsl #20
1a0027fc:	da07      	bge.n	1a00280e <__aeabi_dsub+0x186>
1a0027fe:	3501      	adds	r5, #1
1a002800:	bf08      	it	eq
1a002802:	3201      	addeq	r2, #1
1a002804:	f1b3 4f00 	cmp.w	r3, #2147483648	; 0x80000000
1a002808:	bf08      	it	eq
1a00280a:	f025 0501 	biceq.w	r5, r5, #1
1a00280e:	1991      	adds	r1, r2, r6
1a002810:	e011      	b.n	1a002836 <__aeabi_dsub+0x1ae>
1a002812:	f240 73fe 	movw	r3, #2046	; 0x7fe
1a002816:	429a      	cmp	r2, r3
1a002818:	d802      	bhi.n	1a002820 <__aeabi_dsub+0x198>
1a00281a:	b95a      	cbnz	r2, 1a002834 <__aeabi_dsub+0x1ac>
1a00281c:	4611      	mov	r1, r2
1a00281e:	e007      	b.n	1a002830 <__aeabi_dsub+0x1a8>
1a002820:	0323      	lsls	r3, r4, #12
1a002822:	f04f 0000 	mov.w	r0, #0
1a002826:	d001      	beq.n	1a00282c <__aeabi_dsub+0x1a4>
1a002828:	4904      	ldr	r1, [pc, #16]	; (1a00283c <__aeabi_dsub+0x1b4>)
1a00282a:	bdf0      	pop	{r4, r5, r6, r7, pc}
1a00282c:	b912      	cbnz	r2, 1a002834 <__aeabi_dsub+0x1ac>
1a00282e:	4903      	ldr	r1, [pc, #12]	; (1a00283c <__aeabi_dsub+0x1b4>)
1a002830:	4610      	mov	r0, r2
1a002832:	bdf0      	pop	{r4, r5, r6, r7, pc}
1a002834:	4621      	mov	r1, r4
1a002836:	4628      	mov	r0, r5
1a002838:	bdf0      	pop	{r4, r5, r6, r7, pc}
1a00283a:	bf00      	nop
1a00283c:	7ff80000 	.word	0x7ff80000

1a002840 <__aeabi_dadd>:
1a002840:	e92d 43f0 	stmdb	sp!, {r4, r5, r6, r7, r8, r9, lr}
1a002844:	461f      	mov	r7, r3
1a002846:	463d      	mov	r5, r7
1a002848:	4616      	mov	r6, r2
1a00284a:	4617      	mov	r7, r2
1a00284c:	ea95 0201 	eors.w	r2, r5, r1
1a002850:	460c      	mov	r4, r1
1a002852:	4603      	mov	r3, r0
1a002854:	d506      	bpl.n	1a002864 <__aeabi_dadd+0x24>
1a002856:	f105 4300 	add.w	r3, r5, #2147483648	; 0x80000000
1a00285a:	4632      	mov	r2, r6
1a00285c:	e8bd 43f0 	ldmia.w	sp!, {r4, r5, r6, r7, r8, r9, lr}
1a002860:	f7ff bf12 	b.w	1a002688 <__aeabi_dsub>
1a002864:	42a9      	cmp	r1, r5
1a002866:	bf3e      	ittt	cc
1a002868:	4054      	eorcc	r4, r2
1a00286a:	4073      	eorcc	r3, r6
1a00286c:	4055      	eorcc	r5, r2
1a00286e:	ea4f 5214 	mov.w	r2, r4, lsr #20
1a002872:	bf38      	it	cc
1a002874:	405f      	eorcc	r7, r3
1a002876:	f422 6100 	bic.w	r1, r2, #2048	; 0x800
1a00287a:	f240 70ff 	movw	r0, #2047	; 0x7ff
1a00287e:	bf38      	it	cc
1a002880:	407b      	eorcc	r3, r7
1a002882:	4281      	cmp	r1, r0
1a002884:	d063      	beq.n	1a00294e <__aeabi_dadd+0x10e>
1a002886:	eba2 5615 	sub.w	r6, r2, r5, lsr #20
1a00288a:	428e      	cmp	r6, r1
1a00288c:	d055      	beq.n	1a00293a <__aeabi_dadd+0xfa>
1a00288e:	f3c4 0413 	ubfx	r4, r4, #0, #20
1a002892:	f3c5 0113 	ubfx	r1, r5, #0, #20
1a002896:	2e1f      	cmp	r6, #31
1a002898:	f444 1480 	orr.w	r4, r4, #1048576	; 0x100000
1a00289c:	f441 1180 	orr.w	r1, r1, #1048576	; 0x100000
1a0028a0:	d80e      	bhi.n	1a0028c0 <__aeabi_dadd+0x80>
1a0028a2:	fa21 f006 	lsr.w	r0, r1, r6
1a0028a6:	4404      	add	r4, r0
1a0028a8:	fa27 f006 	lsr.w	r0, r7, r6
1a0028ac:	f1c6 0620 	rsb	r6, r6, #32
1a0028b0:	40b1      	lsls	r1, r6
1a0028b2:	4301      	orrs	r1, r0
1a0028b4:	185b      	adds	r3, r3, r1
1a0028b6:	bf28      	it	cs
1a0028b8:	3401      	addcs	r4, #1
1a0028ba:	fa07 f106 	lsl.w	r1, r7, r6
1a0028be:	e014      	b.n	1a0028ea <__aeabi_dadd+0xaa>
1a0028c0:	2e35      	cmp	r6, #53	; 0x35
1a0028c2:	d812      	bhi.n	1a0028ea <__aeabi_dadd+0xaa>
1a0028c4:	f1a6 0020 	sub.w	r0, r6, #32
1a0028c8:	fa21 f500 	lsr.w	r5, r1, r0
1a0028cc:	f1c6 0640 	rsb	r6, r6, #64	; 0x40
1a0028d0:	195b      	adds	r3, r3, r5
1a0028d2:	fa27 f000 	lsr.w	r0, r7, r0
1a0028d6:	fa01 f106 	lsl.w	r1, r1, r6
1a0028da:	ea41 0100 	orr.w	r1, r1, r0
1a0028de:	bf28      	it	cs
1a0028e0:	3401      	addcs	r4, #1
1a0028e2:	0638      	lsls	r0, r7, #24
1a0028e4:	bf18      	it	ne
1a0028e6:	f041 01ff 	orrne.w	r1, r1, #255	; 0xff
1a0028ea:	02a0      	lsls	r0, r4, #10
1a0028ec:	d516      	bpl.n	1a00291c <__aeabi_dadd+0xdc>
1a0028ee:	3301      	adds	r3, #1
1a0028f0:	bf08      	it	eq
1a0028f2:	3401      	addeq	r4, #1
1a0028f4:	b909      	cbnz	r1, 1a0028fa <__aeabi_dadd+0xba>
1a0028f6:	f023 0302 	bic.w	r3, r3, #2
1a0028fa:	0515      	lsls	r5, r2, #20
1a0028fc:	eb05 0554 	add.w	r5, r5, r4, lsr #1
1a002900:	0069      	lsls	r1, r5, #1
1a002902:	f511 1f00 	cmn.w	r1, #2097152	; 0x200000
1a002906:	bf37      	itett	cc
1a002908:	07e4      	lslcc	r4, r4, #31
1a00290a:	3201      	addcs	r2, #1
1a00290c:	4629      	movcc	r1, r5
1a00290e:	ea44 0053 	orrcc.w	r0, r4, r3, lsr #1
1a002912:	bf24      	itt	cs
1a002914:	2000      	movcs	r0, #0
1a002916:	0511      	lslcs	r1, r2, #20
1a002918:	e8bd 83f0 	ldmia.w	sp!, {r4, r5, r6, r7, r8, r9, pc}
1a00291c:	2900      	cmp	r1, #0
1a00291e:	f102 32ff 	add.w	r2, r2, #4294967295
1a002922:	da07      	bge.n	1a002934 <__aeabi_dadd+0xf4>
1a002924:	3301      	adds	r3, #1
1a002926:	bf08      	it	eq
1a002928:	3401      	addeq	r4, #1
1a00292a:	f1b1 4f00 	cmp.w	r1, #2147483648	; 0x80000000
1a00292e:	bf08      	it	eq
1a002930:	f023 0301 	biceq.w	r3, r3, #1
1a002934:	eb04 5102 	add.w	r1, r4, r2, lsl #20
1a002938:	e011      	b.n	1a00295e <__aeabi_dadd+0x11e>
1a00293a:	f240 72fe 	movw	r2, #2046	; 0x7fe
1a00293e:	4296      	cmp	r6, r2
1a002940:	d805      	bhi.n	1a00294e <__aeabi_dadd+0x10e>
1a002942:	b95e      	cbnz	r6, 1a00295c <__aeabi_dadd+0x11c>
1a002944:	f004 4100 	and.w	r1, r4, #2147483648	; 0x80000000
1a002948:	4630      	mov	r0, r6
1a00294a:	e8bd 83f0 	ldmia.w	sp!, {r4, r5, r6, r7, r8, r9, pc}
1a00294e:	0322      	lsls	r2, r4, #12
1a002950:	f04f 0000 	mov.w	r0, #0
1a002954:	d002      	beq.n	1a00295c <__aeabi_dadd+0x11c>
1a002956:	4903      	ldr	r1, [pc, #12]	; (1a002964 <__aeabi_dadd+0x124>)
1a002958:	e8bd 83f0 	ldmia.w	sp!, {r4, r5, r6, r7, r8, r9, pc}
1a00295c:	4621      	mov	r1, r4
1a00295e:	4618      	mov	r0, r3
1a002960:	e8bd 83f0 	ldmia.w	sp!, {r4, r5, r6, r7, r8, r9, pc}
1a002964:	7ff80000 	.word	0x7ff80000

1a002968 <__aeabi_d2iz>:
1a002968:	02cb      	lsls	r3, r1, #11
1a00296a:	ea43 5050 	orr.w	r0, r3, r0, lsr #21
1a00296e:	0d0b      	lsrs	r3, r1, #20
1a002970:	f5c3 6383 	rsb	r3, r3, #1048	; 0x418
1a002974:	3306      	adds	r3, #6
1a002976:	f040 4000 	orr.w	r0, r0, #2147483648	; 0x80000000
1a00297a:	2bff      	cmp	r3, #255	; 0xff
1a00297c:	fa20 f003 	lsr.w	r0, r0, r3
1a002980:	d911      	bls.n	1a0029a6 <__aeabi_d2iz+0x3e>
1a002982:	f413 6fe0 	tst.w	r3, #1792	; 0x700
1a002986:	d101      	bne.n	1a00298c <__aeabi_d2iz+0x24>
1a002988:	4240      	negs	r0, r0
1a00298a:	4770      	bx	lr
1a00298c:	f011 4080 	ands.w	r0, r1, #1073741824	; 0x40000000
1a002990:	d009      	beq.n	1a0029a6 <__aeabi_d2iz+0x3e>
1a002992:	004b      	lsls	r3, r1, #1
1a002994:	f513 1f00 	cmn.w	r3, #2097152	; 0x200000
1a002998:	d804      	bhi.n	1a0029a4 <__aeabi_d2iz+0x3c>
1a00299a:	0fc8      	lsrs	r0, r1, #31
1a00299c:	f100 4000 	add.w	r0, r0, #2147483648	; 0x80000000
1a0029a0:	3801      	subs	r0, #1
1a0029a2:	4770      	bx	lr
1a0029a4:	2000      	movs	r0, #0
1a0029a6:	4770      	bx	lr

1a0029a8 <__bhs_ui2d>:
1a0029a8:	b910      	cbnz	r0, 1a0029b0 <__bhs_ui2d+0x8>
1a0029aa:	4603      	mov	r3, r0
1a0029ac:	4602      	mov	r2, r0
1a0029ae:	e01b      	b.n	1a0029e8 <__bhs_ui2d+0x40>
1a0029b0:	0c03      	lsrs	r3, r0, #16
1a0029b2:	bf0c      	ite	eq
1a0029b4:	0400      	lsleq	r0, r0, #16
1a0029b6:	f101 7180 	addne.w	r1, r1, #16777216	; 0x1000000
1a0029ba:	0e03      	lsrs	r3, r0, #24
1a0029bc:	bf0c      	ite	eq
1a0029be:	0200      	lsleq	r0, r0, #8
1a0029c0:	f501 0100 	addne.w	r1, r1, #8388608	; 0x800000
1a0029c4:	0f03      	lsrs	r3, r0, #28
1a0029c6:	bf0c      	ite	eq
1a0029c8:	0100      	lsleq	r0, r0, #4
1a0029ca:	f501 0180 	addne.w	r1, r1, #4194304	; 0x400000
1a0029ce:	0f83      	lsrs	r3, r0, #30
1a0029d0:	bf0c      	ite	eq
1a0029d2:	0080      	lsleq	r0, r0, #2
1a0029d4:	f501 1100 	addne.w	r1, r1, #2097152	; 0x200000
1a0029d8:	2800      	cmp	r0, #0
1a0029da:	bfac      	ite	ge
1a0029dc:	0040      	lslge	r0, r0, #1
1a0029de:	f501 1180 	addlt.w	r1, r1, #1048576	; 0x100000
1a0029e2:	eb01 23e0 	add.w	r3, r1, r0, asr #11
1a0029e6:	0542      	lsls	r2, r0, #21
1a0029e8:	4610      	mov	r0, r2
1a0029ea:	4619      	mov	r1, r3
1a0029ec:	4770      	bx	lr

1a0029ee <__aeabi_i2d>:
1a0029ee:	f010 4100 	ands.w	r1, r0, #2147483648	; 0x80000000
1a0029f2:	bf18      	it	ne
1a0029f4:	4240      	negne	r0, r0
1a0029f6:	f101 4180 	add.w	r1, r1, #1073741824	; 0x40000000
1a0029fa:	f7ff bfd5 	b.w	1a0029a8 <__bhs_ui2d>

1a0029fe <__aeabi_dcmpeq>:
1a0029fe:	b510      	push	{r4, lr}
1a002a00:	460c      	mov	r4, r1
1a002a02:	4619      	mov	r1, r3
1a002a04:	0063      	lsls	r3, r4, #1
1a002a06:	ea53 0e00 	orrs.w	lr, r3, r0
1a002a0a:	d102      	bne.n	1a002a12 <__aeabi_dcmpeq+0x14>
1a002a0c:	ea52 0e41 	orrs.w	lr, r2, r1, lsl #1
1a002a10:	d009      	beq.n	1a002a26 <__aeabi_dcmpeq+0x28>
1a002a12:	428c      	cmp	r4, r1
1a002a14:	d109      	bne.n	1a002a2a <__aeabi_dcmpeq+0x2c>
1a002a16:	4290      	cmp	r0, r2
1a002a18:	d107      	bne.n	1a002a2a <__aeabi_dcmpeq+0x2c>
1a002a1a:	f513 1f00 	cmn.w	r3, #2097152	; 0x200000
1a002a1e:	bf8c      	ite	hi
1a002a20:	2000      	movhi	r0, #0
1a002a22:	2001      	movls	r0, #1
1a002a24:	bd10      	pop	{r4, pc}
1a002a26:	2001      	movs	r0, #1
1a002a28:	bd10      	pop	{r4, pc}
1a002a2a:	2000      	movs	r0, #0
1a002a2c:	bd10      	pop	{r4, pc}

1a002a2e <__aeabi_dcmplt>:
1a002a2e:	b530      	push	{r4, r5, lr}
1a002a30:	460d      	mov	r5, r1
1a002a32:	461c      	mov	r4, r3
1a002a34:	ea54 0305 	orrs.w	r3, r4, r5
1a002a38:	4601      	mov	r1, r0
1a002a3a:	d408      	bmi.n	1a002a4e <__aeabi_dcmplt+0x20>
1a002a3c:	0063      	lsls	r3, r4, #1
1a002a3e:	f513 1f00 	cmn.w	r3, #2097152	; 0x200000
1a002a42:	d81b      	bhi.n	1a002a7c <__aeabi_dcmplt+0x4e>
1a002a44:	42ac      	cmp	r4, r5
1a002a46:	d817      	bhi.n	1a002a78 <__aeabi_dcmplt+0x4a>
1a002a48:	d118      	bne.n	1a002a7c <__aeabi_dcmplt+0x4e>
1a002a4a:	4282      	cmp	r2, r0
1a002a4c:	e010      	b.n	1a002a70 <__aeabi_dcmplt+0x42>
1a002a4e:	0068      	lsls	r0, r5, #1
1a002a50:	f510 1f00 	cmn.w	r0, #2097152	; 0x200000
1a002a54:	d812      	bhi.n	1a002a7c <__aeabi_dcmplt+0x4e>
1a002a56:	0063      	lsls	r3, r4, #1
1a002a58:	f513 1f00 	cmn.w	r3, #2097152	; 0x200000
1a002a5c:	d80e      	bhi.n	1a002a7c <__aeabi_dcmplt+0x4e>
1a002a5e:	4308      	orrs	r0, r1
1a002a60:	d102      	bne.n	1a002a68 <__aeabi_dcmplt+0x3a>
1a002a62:	ea53 0002 	orrs.w	r0, r3, r2
1a002a66:	d00a      	beq.n	1a002a7e <__aeabi_dcmplt+0x50>
1a002a68:	42a5      	cmp	r5, r4
1a002a6a:	d805      	bhi.n	1a002a78 <__aeabi_dcmplt+0x4a>
1a002a6c:	d106      	bne.n	1a002a7c <__aeabi_dcmplt+0x4e>
1a002a6e:	4291      	cmp	r1, r2
1a002a70:	bf94      	ite	ls
1a002a72:	2000      	movls	r0, #0
1a002a74:	2001      	movhi	r0, #1
1a002a76:	bd30      	pop	{r4, r5, pc}
1a002a78:	2001      	movs	r0, #1
1a002a7a:	bd30      	pop	{r4, r5, pc}
1a002a7c:	2000      	movs	r0, #0
1a002a7e:	bd30      	pop	{r4, r5, pc}

1a002a80 <__aeabi_dcmple>:
1a002a80:	b530      	push	{r4, r5, lr}
1a002a82:	ea53 0401 	orrs.w	r4, r3, r1
1a002a86:	d40b      	bmi.n	1a002aa0 <__aeabi_dcmple+0x20>
1a002a88:	005c      	lsls	r4, r3, #1
1a002a8a:	f514 1f00 	cmn.w	r4, #2097152	; 0x200000
1a002a8e:	d81f      	bhi.n	1a002ad0 <__aeabi_dcmple+0x50>
1a002a90:	428b      	cmp	r3, r1
1a002a92:	d81b      	bhi.n	1a002acc <__aeabi_dcmple+0x4c>
1a002a94:	d11c      	bne.n	1a002ad0 <__aeabi_dcmple+0x50>
1a002a96:	4282      	cmp	r2, r0
1a002a98:	bf34      	ite	cc
1a002a9a:	2000      	movcc	r0, #0
1a002a9c:	2001      	movcs	r0, #1
1a002a9e:	bd30      	pop	{r4, r5, pc}
1a002aa0:	004d      	lsls	r5, r1, #1
1a002aa2:	f515 1f00 	cmn.w	r5, #2097152	; 0x200000
1a002aa6:	d813      	bhi.n	1a002ad0 <__aeabi_dcmple+0x50>
1a002aa8:	005c      	lsls	r4, r3, #1
1a002aaa:	f514 1f00 	cmn.w	r4, #2097152	; 0x200000
1a002aae:	d80f      	bhi.n	1a002ad0 <__aeabi_dcmple+0x50>
1a002ab0:	4299      	cmp	r1, r3
1a002ab2:	d80b      	bhi.n	1a002acc <__aeabi_dcmple+0x4c>
1a002ab4:	d101      	bne.n	1a002aba <__aeabi_dcmple+0x3a>
1a002ab6:	4290      	cmp	r0, r2
1a002ab8:	d208      	bcs.n	1a002acc <__aeabi_dcmple+0x4c>
1a002aba:	ea55 0300 	orrs.w	r3, r5, r0
1a002abe:	d107      	bne.n	1a002ad0 <__aeabi_dcmple+0x50>
1a002ac0:	ea54 0302 	orrs.w	r3, r4, r2
1a002ac4:	bf0c      	ite	eq
1a002ac6:	2001      	moveq	r0, #1
1a002ac8:	2000      	movne	r0, #0
1a002aca:	bd30      	pop	{r4, r5, pc}
1a002acc:	2001      	movs	r0, #1
1a002ace:	bd30      	pop	{r4, r5, pc}
1a002ad0:	2000      	movs	r0, #0
1a002ad2:	bd30      	pop	{r4, r5, pc}

1a002ad4 <__aeabi_dcmpge>:
1a002ad4:	b530      	push	{r4, r5, lr}
1a002ad6:	ea53 0401 	orrs.w	r4, r3, r1
1a002ada:	ea4f 0441 	mov.w	r4, r1, lsl #1
1a002ade:	d40a      	bmi.n	1a002af6 <__aeabi_dcmpge+0x22>
1a002ae0:	f514 1f00 	cmn.w	r4, #2097152	; 0x200000
1a002ae4:	d81e      	bhi.n	1a002b24 <__aeabi_dcmpge+0x50>
1a002ae6:	4299      	cmp	r1, r3
1a002ae8:	d81a      	bhi.n	1a002b20 <__aeabi_dcmpge+0x4c>
1a002aea:	d11b      	bne.n	1a002b24 <__aeabi_dcmpge+0x50>
1a002aec:	4290      	cmp	r0, r2
1a002aee:	bf34      	ite	cc
1a002af0:	2000      	movcc	r0, #0
1a002af2:	2001      	movcs	r0, #1
1a002af4:	bd30      	pop	{r4, r5, pc}
1a002af6:	f514 1f00 	cmn.w	r4, #2097152	; 0x200000
1a002afa:	d813      	bhi.n	1a002b24 <__aeabi_dcmpge+0x50>
1a002afc:	005d      	lsls	r5, r3, #1
1a002afe:	f515 1f00 	cmn.w	r5, #2097152	; 0x200000
1a002b02:	d80f      	bhi.n	1a002b24 <__aeabi_dcmpge+0x50>
1a002b04:	428b      	cmp	r3, r1
1a002b06:	d80b      	bhi.n	1a002b20 <__aeabi_dcmpge+0x4c>
1a002b08:	d101      	bne.n	1a002b0e <__aeabi_dcmpge+0x3a>
1a002b0a:	4282      	cmp	r2, r0
1a002b0c:	d208      	bcs.n	1a002b20 <__aeabi_dcmpge+0x4c>
1a002b0e:	ea54 0300 	orrs.w	r3, r4, r0
1a002b12:	d107      	bne.n	1a002b24 <__aeabi_dcmpge+0x50>
1a002b14:	ea55 0302 	orrs.w	r3, r5, r2
1a002b18:	bf0c      	ite	eq
1a002b1a:	2001      	moveq	r0, #1
1a002b1c:	2000      	movne	r0, #0
1a002b1e:	bd30      	pop	{r4, r5, pc}
1a002b20:	2001      	movs	r0, #1
1a002b22:	bd30      	pop	{r4, r5, pc}
1a002b24:	2000      	movs	r0, #0
1a002b26:	bd30      	pop	{r4, r5, pc}

1a002b28 <__aeabi_lowlevel_memset>:
1a002b28:	4603      	mov	r3, r0
1a002b2a:	f013 0f03 	tst.w	r3, #3
1a002b2e:	d10e      	bne.n	1a002b4e <memset1a>
1a002b30:	f001 01ff 	and.w	r1, r1, #255	; 0xff
1a002b34:	ea41 2101 	orr.w	r1, r1, r1, lsl #8
1a002b38:	ea41 4101 	orr.w	r1, r1, r1, lsl #16

1a002b3c <__bhs_memset4>:
1a002b3c:	3a04      	subs	r2, #4

1a002b3e <memset4>:
1a002b3e:	bf24      	itt	cs
1a002b40:	f843 1b04 	strcs.w	r1, [r3], #4
1a002b44:	f1b2 0204 	subscs.w	r2, r2, #4
1a002b48:	d2f9      	bcs.n	1a002b3e <memset4>

1a002b4a <memset1>:
1a002b4a:	f102 0204 	add.w	r2, r2, #4

1a002b4e <memset1a>:
1a002b4e:	3a01      	subs	r2, #1
1a002b50:	bf24      	itt	cs
1a002b52:	f803 1b01 	strbcs.w	r1, [r3], #1
1a002b56:	e7fa      	bcs.n	1a002b4e <memset1a>
1a002b58:	4770      	bx	lr
	...

1a002b5c <__exit>:
1a002b5c:	2018      	movs	r0, #24
1a002b5e:	4901      	ldr	r1, [pc, #4]	; (1a002b64 <__exit+0x8>)
1a002b60:	beab      	bkpt	0x00ab
1a002b62:	4770      	bx	lr
1a002b64:	00020026 	.word	0x00020026

1a002b68 <__sys_close>:
1a002b68:	b403      	push	{r0, r1}
1a002b6a:	4669      	mov	r1, sp
1a002b6c:	2002      	movs	r0, #2
1a002b6e:	beab      	bkpt	0x00ab
1a002b70:	b002      	add	sp, #8
1a002b72:	4770      	bx	lr

1a002b74 <__sys_flen>:
1a002b74:	b403      	push	{r0, r1}
1a002b76:	4669      	mov	r1, sp
1a002b78:	200c      	movs	r0, #12
1a002b7a:	beab      	bkpt	0x00ab
1a002b7c:	b002      	add	sp, #8
1a002b7e:	4770      	bx	lr

1a002b80 <__sys_istty>:
1a002b80:	b403      	push	{r0, r1}
1a002b82:	4669      	mov	r1, sp
1a002b84:	2009      	movs	r0, #9
1a002b86:	beab      	bkpt	0x00ab
1a002b88:	b002      	add	sp, #8
1a002b8a:	4770      	bx	lr

1a002b8c <__sys_remove>:
1a002b8c:	b403      	push	{r0, r1}
1a002b8e:	4669      	mov	r1, sp
1a002b90:	200e      	movs	r0, #14
1a002b92:	beab      	bkpt	0x00ab
1a002b94:	b002      	add	sp, #8
1a002b96:	4770      	bx	lr

1a002b98 <__sys_seek>:
1a002b98:	b403      	push	{r0, r1}
1a002b9a:	4669      	mov	r1, sp
1a002b9c:	200a      	movs	r0, #10
1a002b9e:	beab      	bkpt	0x00ab
1a002ba0:	b002      	add	sp, #8
1a002ba2:	4770      	bx	lr

1a002ba4 <__sys_tmpnam>:
1a002ba4:	b40f      	push	{r0, r1, r2, r3}
1a002ba6:	4669      	mov	r1, sp
1a002ba8:	200d      	movs	r0, #13
1a002baa:	beab      	bkpt	0x00ab
1a002bac:	b004      	add	sp, #16
1a002bae:	4770      	bx	lr

1a002bb0 <__sys_write>:
1a002bb0:	b40f      	push	{r0, r1, r2, r3}
1a002bb2:	4669      	mov	r1, sp
1a002bb4:	2005      	movs	r0, #5
1a002bb6:	beab      	bkpt	0x00ab
1a002bb8:	b004      	add	sp, #16
1a002bba:	4770      	bx	lr
1a002bbc:	73692043 	.word	0x73692043
1a002bc0:	00642520 	.word	0x00642520
1a002bc4:	0020002b 	.word	0x0020002b
1a002bc8:	63257830 	.word	0x63257830
1a002bcc:	00642570 	.word	0x00642570
1a002bd0:	63255830 	.word	0x63255830
1a002bd4:	00642550 	.word	0x00642550
1a002bd8:	63257830 	.word	0x63257830
1a002bdc:	2a2e252e 	.word	0x2a2e252e
1a002be0:	70786c6c 	.word	0x70786c6c
1a002be4:	30006425 	.word	0x30006425
1a002be8:	2e632558 	.word	0x2e632558
1a002bec:	6c2a2e25 	.word	0x6c2a2e25
1a002bf0:	2550586c 	.word	0x2550586c
1a002bf4:	002d0064 	.word	0x002d0064
1a002bf8:	00770072 	.word	0x00770072
1a002bfc:	6c756e28 	.word	0x6c756e28
1a002c00:	3000296c 	.word	0x3000296c
1a002c04:	78300058 	.word	0x78300058
1a002c08:	30003000 	.word	0x30003000
1a002c0c:	34333231 	.word	0x34333231
1a002c10:	38373635 	.word	0x38373635
1a002c14:	43424139 	.word	0x43424139
1a002c18:	00464544 	.word	0x00464544
1a002c1c:	33323130 	.word	0x33323130
1a002c20:	37363534 	.word	0x37363534
1a002c24:	62613938 	.word	0x62613938
1a002c28:	66656463 	.word	0x66656463
1a002c2c:	00          	.byte	0x00
1a002c2d:	2a          	.byte	0x2a
1a002c2e:	2a2a      	.short	0x2a2a
1a002c30:	73435f20 	.word	0x73435f20
1a002c34:	615f7379 	.word	0x615f7379
1a002c38:	636f6c6c 	.word	0x636f6c6c
1a002c3c:	69616620 	.word	0x69616620
1a002c40:	0a64656c 	.word	0x0a64656c
1a002c44:	00000000 	.word	0x00000000

1a002c48 <__huge_vall>:
1a002c48:	ffffffff 7fefffff                       ........
