
C:\Users\emh203\Documents\GitHub\ESC-M4\CM4_TEST\CM4_TEST_XPRESSO54114\-O3 HARD\CM4_TEST_LPC54110_O3_HARD.axf:     file format elf32-littlearm
C:\Users\emh203\Documents\GitHub\ESC-M4\CM4_TEST\CM4_TEST_XPRESSO54114\-O3 HARD\CM4_TEST_LPC54110_O3_HARD.axf
architecture: arm, flags 0x00000112:
EXEC_P, HAS_SYMS, D_PAGED
start address 0x00000151

Program Header:
    LOAD off    0x00010000 vaddr 0x00000000 paddr 0x00000000 align 2**16
         filesz 0x000342a0 memsz 0x000342a0 flags r-x
    LOAD off    0x00050000 vaddr 0x20000000 paddr 0x000342a0 align 2**16
         filesz 0x00000118 memsz 0x0000a520 flags rw-
private flags = 5000400: [Version5 EABI] [hard-float ABI]

Sections:
Idx Name          Size      VMA       LMA       File off  Algn
  0 .text         000342a0  00000000  00000000  00010000  2**3
                  CONTENTS, ALLOC, LOAD, READONLY, CODE
  1 .data         00000118  20000000  000342a0  00050000  2**2
                  CONTENTS, ALLOC, LOAD, DATA
  2 .bss          0000a408  20000118  000343b8  00050118  2**3
                  ALLOC
  3 .uninit_RESERVED 00000000  20000000  20000000  00050118  2**2
                  CONTENTS
  4 .noinit       00000000  2000a520  2000a520  00050118  2**2
                  CONTENTS
  5 .debug_info   0001e1ae  00000000  00000000  00050118  2**0
                  CONTENTS, READONLY, DEBUGGING
  6 .debug_abbrev 000047dd  00000000  00000000  0006e2c6  2**0
                  CONTENTS, READONLY, DEBUGGING
  7 .debug_loc    0000f659  00000000  00000000  00072aa3  2**0
                  CONTENTS, READONLY, DEBUGGING
  8 .debug_aranges 00000c08  00000000  00000000  00082100  2**3
                  CONTENTS, READONLY, DEBUGGING
  9 .debug_ranges 00000d08  00000000  00000000  00082d08  2**0
                  CONTENTS, READONLY, DEBUGGING
 10 .debug_macro  00009503  00000000  00000000  00083a10  2**0
                  CONTENTS, READONLY, DEBUGGING
 11 .debug_line   0000c8a7  00000000  00000000  0008cf13  2**0
                  CONTENTS, READONLY, DEBUGGING
 12 .debug_str    0001ad96  00000000  00000000  000997ba  2**0
                  CONTENTS, READONLY, DEBUGGING
 13 .comment      0000014c  00000000  00000000  000b4550  2**0
                  CONTENTS, READONLY
 14 .ARM.attributes 00000037  00000000  00000000  000b469c  2**0
                  CONTENTS, READONLY
 15 .debug_frame  000022cc  00000000  00000000  000b46d4  2**2
                  CONTENTS, READONLY, DEBUGGING
SYMBOL TABLE:
00000000 l    d  .text	00000000 .text
20000000 l    d  .data	00000000 .data
20000118 l    d  .bss	00000000 .bss
20000000 l    d  .uninit_RESERVED	00000000 .uninit_RESERVED
2000a520 l    d  .noinit	00000000 .noinit
00000000 l    d  .debug_info	00000000 .debug_info
00000000 l    d  .debug_abbrev	00000000 .debug_abbrev
00000000 l    d  .debug_loc	00000000 .debug_loc
00000000 l    d  .debug_aranges	00000000 .debug_aranges
00000000 l    d  .debug_ranges	00000000 .debug_ranges
00000000 l    d  .debug_macro	00000000 .debug_macro
00000000 l    d  .debug_line	00000000 .debug_line
00000000 l    d  .debug_str	00000000 .debug_str
00000000 l    d  .comment	00000000 .comment
00000000 l    d  .ARM.attributes	00000000 .ARM.attributes
00000000 l    d  .debug_frame	00000000 .debug_frame
00000000 l    df *ABS*	00000000 cr_startup_lpc5411x.c
00000000 l    df *ABS*	00000000 crp.c
00000000 l    df *ABS*	00000000 CM4_TEST.c
00000000 l    df *ABS*	00000000 Goertzel.c
00000000 l    df *ABS*	00000000 IIR.c
00000000 l    df *ABS*	00000000 sysinit.c
00000000 l    df *ABS*	00000000 board.c
00003518 l     F .text	00000040 Board_LED_Init
00003558 l     F .text	00000040 Board_TestIO_Init
00003598 l     F .text	0000003c Board_Button_Init
000035d4 l     F .text	0000003c Board_UART_Init
0000be4c l     O .text	00000004 tstBits
0000be50 l     O .text	00000006 btnBits
0000be58 l     O .text	00000006 ledBits
00000000 l    df *ABS*	00000000 board_sysinit.c
000036d0 l     F .text	00000094 ConfigureBridgeSSEL
0000be60 l     O .text	00000030 pinmuxing
00000000 l    df *ABS*	00000000 chip_5411x.c
00000000 l    df *ABS*	00000000 clock_5411x.c
00003960 l     F .text	00000018 Chip_Clock_GetExtClockInRate
00003978 l     F .text	00000012 Chip_Clock_GetRTCOscRate
0000398c l     F .text	0000002c Chip_Clock_GetFROHFRate
000039b8 l     F .text	0000001e Chip_Clock_GetMain_A_ClockSource
000039d8 l     F .text	00000018 Chip_Clock_GetMain_B_ClockSource
000039f0 l     F .text	0000001e Chip_Clock_GetFRGClockSource
00000000 l    df *ABS*	00000000 fpu_init.c
00000000 l    df *ABS*	00000000 pll_5411x.c
00003c9c l     F .text	00000018 Chip_Clock_GetExtClockInRate
00003cb4 l     F .text	00000012 Chip_Clock_GetRTCOscRate
20000160 l     O .bss	00000004 curPllRate
00003cc8 l     F .text	000000a0 pllDecodeN
00003d68 l     F .text	00000088 pllDecodeP
00003df0 l     F .text	000000a0 pllDecodeM
00003f4c l     F .text	00000020 Chip_Clock_GetSystemPLLOutFromSetupUpdate
00000000 l    df *ABS*	00000000 syscon_5411x.c
00000000 l    df *ABS*	00000000 sysinit_5411x.c
00004238 l     F .text	00000034 Chip_SYSCON_SetFLASHAccess
0000426c l     F .text	00000020 Chip_Clock_SetMain_A_ClockSource
0000428c l     F .text	00000020 Chip_Clock_SetMain_B_ClockSource
000042ac l     F .text	00000020 Chip_Clock_SetAsyncSysconClockSource
000042cc l     F .text	0000003c Chip_Clock_SetMainClockSource
00004308 l     F .text	00000068 setupFlashClocks
00000000 l    df *ABS*	00000000 timer_5411x.c
00000000 l    df *ABS*	00000000 uart_5411x.c
00004418 l     F .text	0000002c Chip_SYSCON_SetUSARTFRGCtrl
00004444 l     F .text	00000026 Chip_Clock_SetFLEXCOMMClockSource
0000446c l     F .text	00000020 Chip_Clock_SetFRGClockSource
0000448c l     F .text	0000001e Chip_Clock_GetFRGClockSource
000044ac l     F .text	00000020 Chip_UART_SendByte
000044cc l     F .text	0000001a Chip_UART_GetFIFOStatus
000044e8 l     F .text	00000030 Chip_UART_SetFIFOCfg
00004518 l     F .text	0000001a Chip_UART_FlushFIFOs
00004534 l     F .text	00000064 _UART_DivClk
00004598 l     F .text	00000052 _UART_GetHighDiv
000045ec l     F .text	00000070 _CalcErr
0000465c l     F .text	000000e4 _UART_CalcDiv
00004740 l     F .text	000000c8 _UART_CalcMul
00000000 l    df *ABS*	00000000 flexcomm_5411x.c
00004990 l     F .text	00000088 Chip_SYSCON_PeriphReset
00004a18 l     F .text	00000038 Chip_SYSCON_EnableWakeup
00004a50 l     F .text	00000026 Chip_Clock_SetFLEXCOMMClockSource
00000000 l    df *ABS*	00000000 arm_cfft_f32.c
00000000 l    df *ABS*	00000000 arm_cfft_q15.c
00000000 l    df *ABS*	00000000 arm_cfft_q31.c
00000000 l    df *ABS*	00000000 arm_cfft_radix4_q15.c
00000000 l    df *ABS*	00000000 arm_cfft_radix4_q31.c
00000000 l    df *ABS*	00000000 arm_cfft_radix8_f32.c
00000000 l    df *ABS*	00000000 arm_biquad_cascade_df1_32x64_init_q31.c
00000000 l    df *ABS*	00000000 arm_biquad_cascade_df1_32x64_q31.c
00000000 l    df *ABS*	00000000 arm_biquad_cascade_df1_f32.c
00000000 l    df *ABS*	00000000 arm_biquad_cascade_df1_fast_q15.c
00000000 l    df *ABS*	00000000 arm_biquad_cascade_df1_fast_q31.c
00000000 l    df *ABS*	00000000 arm_biquad_cascade_df1_init_f32.c
00000000 l    df *ABS*	00000000 arm_biquad_cascade_df1_init_q15.c
00000000 l    df *ABS*	00000000 arm_biquad_cascade_df1_init_q31.c
00000000 l    df *ABS*	00000000 arm_biquad_cascade_df1_q15.c
00000000 l    df *ABS*	00000000 arm_biquad_cascade_df1_q31.c
00000000 l    df *ABS*	00000000 arm_biquad_cascade_df2T_f32.c
00000000 l    df *ABS*	00000000 arm_biquad_cascade_df2T_init_f32.c
00000000 l    df *ABS*	00000000 arm_fir_f32.c
00000000 l    df *ABS*	00000000 arm_fir_init_f32.c
00000000 l    df *ABS*	00000000 arm_fir_init_q15.c
00000000 l    df *ABS*	00000000 arm_fir_init_q31.c
00000000 l    df *ABS*	00000000 arm_fir_q15.c
00000000 l    df *ABS*	00000000 arm_fir_q31.c
00000000 l    df *ABS*	00000000 arm_pid_init_f32.c
00000000 l    df *ABS*	00000000 arm_pid_init_q15.c
00000000 l    df *ABS*	00000000 arm_pid_init_q31.c
00000000 l    df *ABS*	00000000 arm_cmplx_mag_f32.c
00000000 l    df *ABS*	00000000 arm_cmplx_mag_q15.c
00000000 l    df *ABS*	00000000 arm_cmplx_mag_q31.c
00000000 l    df *ABS*	00000000 arm_cmplx_mag_squared_f32.c
00000000 l    df *ABS*	00000000 arm_cmplx_mag_squared_q15.c
00000000 l    df *ABS*	00000000 arm_cmplx_mag_squared_q31.c
00000000 l    df *ABS*	00000000 arm_bitreversal2.o
00008c78 l       .text	00000000 arm_bitreversal_32_0
00008ce2 l       .text	00000000 arm_bitreversal_16_0
00000000 l    df *ABS*	00000000 arm_sqrt_q15.c
00000000 l    df *ABS*	00000000 arm_sqrt_q31.c
00000000 l    df *ABS*	00000000 _cr__main.c
00000000 l    df *ABS*	00000000 cosf.c
00000000 l    df *ABS*	00000000 sinf.c
00000000 l    df *ABS*	00000000 sqrtf_m4_hardfp.o
00000000 l    df *ABS*	00000000 memset.c
00000000 l    df *ABS*	00000000 fpprintf.c
00008f70 l     F .text	0000004e fp_round
00008fbe l     F .text	00000026 pr_dec.constprop.1
00009050 l     F .text	000008fe fp_display
00000000 l    df *ABS*	00000000 initio.c
00000000 l    df *ABS*	00000000 printf.c
00000000 l    df *ABS*	00000000 setvbuf.c
00000000 l    df *ABS*	00000000 stdlib.c
20000034 l     O .data	000000dc _random_number_seed
20000110 l     O .data	00000004 _random_j
20000114 l     O .data	00000004 _random_k
00000000 l    df *ABS*	00000000 strlen.c
00000000 l    df *ABS*	00000000 _sincosf.c
00000000 l    df *ABS*	00000000 fabsf.c
00000000 l    df *ABS*	00000000 _deferredlazyseek.c
00000000 l    df *ABS*	00000000 _fdopen.c
00000000 l    df *ABS*	00000000 _fflush.c
00000000 l    df *ABS*	00000000 _frexpl.c
00000000 l    df *ABS*	00000000 _ldexpl.c
00000000 l    df *ABS*	00000000 _writebuf.c
00000000 l    df *ABS*	00000000 alloc.c
00000000 l    df *ABS*	00000000 fclose.c
00000000 l    df *ABS*	00000000 fflush.c
00000000 l    df *ABS*	00000000 fseek.c
00000000 l    df *ABS*	00000000 ftell.c
00000000 l    df *ABS*	00000000 remove.c
00000000 l    df *ABS*	00000000 _cr_sbrk.c
00000000 l    df *ABS*	00000000 _do_fflush.c
00000000 l    df *ABS*	00000000 _cr_check_heap.c
00000000 l    df *ABS*	00000000 division_64.o
0000b188 l       .text	00000000 ldiv64
0000b226 l       .text	00000000 ldiv_divzero
0000b158 l       .text	00000000 ldiv32
0000b232 l       .text	00000000 udiv6432
0000b160 l       .text	00000000 ldiv_return
0000b176 l       .text	00000000 ldiv_sign
0000b210 l       .text	00000000 ldiv_res01
0000b24e l       .text	00000000 udiv6432_entry
0000b23a l       .text	00000000 udiv6432_loop1
0000b250 l       .text	00000000 udiv6432_loop
00000000 l    df *ABS*	00000000 division_idiv0.o
00000000 l    df *ABS*	00000000 double.c
00000000 l    df *ABS*	00000000 float.c
00000000 l    df *ABS*	00000000 memcpy.o
0000ba42 l       .text	00000000 memset1a
0000ba30 l       .text	00000000 __bhs_memset4
0000ba32 l       .text	00000000 memset4
0000ba3e l       .text	00000000 memset1
00000000 l    df *ABS*	00000000 __sys_appexit.o
00000000 l    df *ABS*	00000000 __sys_close.o
00000000 l    df *ABS*	00000000 __sys_flen.o
00000000 l    df *ABS*	00000000 __sys_istty.o
00000000 l    df *ABS*	00000000 __sys_remove.o
00000000 l    df *ABS*	00000000 __sys_seek.o
00000000 l    df *ABS*	00000000 __sys_tmpnam.o
00000000 l    df *ABS*	00000000 arm_const_structs.c
00000000 l    df *ABS*	00000000 arm_common_tables.c
00000000 l    df *ABS*	00000000 _hugeval.c
200002b8 g     O .bss	00000040 FIR_Coef_q15
00021468 g     O .text	00003000 twiddleCoef_2048_q31
000081d0 g     F .text	00000022 arm_fir_init_q31
0000b93a g     F .text	00000054 __aeabi_dcmple
0002bf10 g     O .text	00008000 twiddleCoef_4096
00000118  w    F .text	00000002 SCT0_IRQHandler
0001fa28 g     O .text	000000c0 twiddleCoef_64_q15
00008efc g     F .text	00000014 __main
0000010c  w    F .text	00000002 DebugMon_Handler
00008bac g     F .text	000000bc arm_cmplx_mag_squared_q31
0000a9f8 g     F .text	00000044 _deferredlazyseek
00000000 g       *ABS*	00000000 __base_MFlash256
00007890 g     F .text	0000001e arm_biquad_cascade_df1_init_q31
0000c030 g     O .text	00000010 arm_cfft_sR_q31_len128
00005218 g     F .text	000000f2 arm_cfft_f32
0000bec0 g     O .text	00000010 arm_cfft_sR_q31_len512
000000e0 g       .text	00000000 __section_table_start
0000ba50 g     F .text	00000000 __exit
0000417c g     F .text	0000002e Chip_SYSCON_Enable_ASYNC_Syscon
0000ba98 g     F .text	00000000 __sys_tmpnam
000099ac g     F .text	00000054 printf
20000118 g     O .bss	00000010 IIR_State_q31
0000bf50 g     O .text	00000010 arm_cfft_sR_f32_len64
000000f8  w    F .text	00000002 HardFault_Handler
00000118  w    F .text	00000002 WDT_BOD_IRQHandler
00000118  w    F .text	00000002 FLEXCOMM5_IRQHandler
00000000 g       *ABS*	00000000 __vectors_start__
000081a4 g     F .text	0000002c arm_fir_init_q15
00000118  w    F .text	00000002 FLEXCOMM7_IRQHandler
00000114  w    F .text	00000002 SysTick_Handler
00004900 g     F .text	0000008e Chip_UART_SetBaud
00004370 g     F .text	0000006c Chip_SetupFROClocking
000053d4 g     F .text	000000c6 arm_cfft_radix4by2_inverse_q15
00000110  w    F .text	00000002 PendSV_Handler
00003f0c g     F .text	00000040 findPllMMult
000000f4  w    F .text	00000002 NMI_Handler
00003b38 g     F .text	0000001e Chip_Clock_GetSystemClockRate
000342a0 g       .text	00000000 __exidx_end
000000ec g       .text	00000000 __data_section_table_end
00000118  w    F .text	00000002 MRT_IRQHandler
0002bb20 g     O .text	000001e0 armBitRevIndexTable_fixed_256
0000aa3c g     F .text	00000140 __flsbuf
000081f4 g     F .text	0000028c arm_fir_q15
0000bfc0 g     O .text	00000010 arm_cfft_sR_q15_len128
0001e600 g     O .text	00000100 twiddleCoef_32
dffd79be g       *ABS*	00000000 __valid_user_code_checksum
2000a518 g     O .bss	00000004 __SWVtrace_Enabled
200002a8 g     O .bss	00000004 errno
0000589c g     F .text	0000025a arm_radix4_butterfly_q15
000342a0 g       .text	00000000 _etext
0000acb0 g     F .text	00000060 _ldexpl
20000164 g     O .bss	00000004 _extra
00008748 g     F .text	0000003e arm_pid_init_q15
0000c010 g     O .text	00000010 arm_cfft_sR_q31_len1024
00005558 g     F .text	00000146 arm_cfft_radix4by2_q31
00008f66 g     F .text	00000000 sqrtf
00008efc  w    F .text	00000014 __CR_SEMIHOST
0000c040 g     O .text	00000010 arm_cfft_sR_q31_len64
0000ac40 g     F .text	00000070 _frexpl
00000118  w    F .text	00000002 ADC_SEQB_IRQHandler
00003380 g     F .text	0000005c ProcessGoertzel_f32_Power
0000bed0 g     O .text	00000010 arm_cfft_sR_q15_len16
00000138 g     F .text	00000018 bss_init
00026368 g     O .text	00000c00 twiddleCoef_512_q31
000043dc g     F .text	0000003c Chip_TIMER_Reset
00007d88 g     F .text	000003f8 arm_fir_f32
00008d28 g     F .text	000000e4 arm_sqrt_q15
0000bfb0 g     O .text	00000010 arm_cfft_sR_q31_len2048
00007d70 g     F .text	00000018 arm_biquad_cascade_df2T_init_f32
0000a7ec g     F .text	00000040 setvbuf
00008cd2 g       .text	00000000 arm_bitreversal_16
00028d28 g     O .text	00000200 twiddleCoef_64
00008994 g     F .text	000000fa arm_cmplx_mag_q31
000079ec g     F .text	00000226 arm_biquad_cascade_df1_q31
0000b138 g     F .text	00000174 __aeabi_uldivmod
2000a520 g       .noinit	00000000 _noinit
2000a51c g     O .bss	00000004 SystemCoreClock
000078b0 g     F .text	0000013a arm_biquad_cascade_df1_q15
00003ecc g     F .text	0000003e findPllPostDiv
00004808 g     F .text	00000032 Chip_UART_Init
00000118  w    F .text	00000002 HWVAD_IRQHandler
0000ad78 g     F .text	000000c8 malloc
0000b088 g     F .text	00000014 remove
000048d8 g     F .text	00000026 Chip_UART_CalculateBaud
00016580 g     O .text	00000080 twiddleCoef_16
20000000 g     O .data	00000014 IIR_Coef_f32
0000bf20 g     O .text	00000010 arm_cfft_sR_f32_len16
00000104  w    F .text	00000002 UsageFault_Handler
20028000 g       *ABS*	00000000 __top_RAM
00000118  w    F .text	00000002 FLEXCOMM3_IRQHandler
00009950 g     F .text	0000005c vsnprintf
00007858 g     F .text	00000018 arm_biquad_cascade_df1_init_f32
0000379c g     F .text	00000028 Board_SetupClocking
000212e8 g     O .text	00000180 twiddleCoef_64_q31
0000ba68 g     F .text	00000000 __sys_flen
000087bc g     F .text	00000132 arm_cmplx_mag_f32
00003f6c g     F .text	00000064 Chip_Clock_GetSystemPLLInClockRate
00008788 g     F .text	00000032 arm_pid_init_q31
00000118  w    F .text	00000002 CT32B2_IRQHandler
00000118  w    F .text	00000002 PIN_INT6_IRQHandler
00000118  w    F .text	00000002 IntDefaultHandler
00024d68 g     O .text	00000600 twiddleCoef_256_q31
00000300 g       .text	00000000 __CRP_WORD_END__
0000a9e8 g     F .text	00000010 fabsf
0000bfa0 g     O .text	00000010 arm_cfft_sR_q31_len32
00000118  w    F .text	00000002 PIN_INT4_IRQHandler
00000000  w      *UND*	00000000 _pvHeapLimit
0000b8e2 g     F .text	00000058 __aeabi_dcmplt
0000aefc g     F .text	00000030 fflush
0000b3c0 g     F .text	0000013c __aeabi_ddiv
0000bf90 g     O .text	00000010 arm_cfft_sR_q15_len256
00000118  w    F .text	00000002 FLEXCOMM6_IRQHandler
000342a0 g       .text	00000000 __exidx_start
0000b2b0 g     F .text	00000110 __aeabi_dmul
00011170 g     O .text	00001f80 armBitRevIndexTable_fixed_4096
000002fc g     O .text	00000004 CRP_WORD
20000158 g     O .bss	00000008 IIR_State_q15
0001f5c8 g     O .text	00000060 armBitRevIndexTable32
0000be48 g     O .text	00000004 ExtClockIn
0000ab7c g     F .text	0000006a _fdopen
00003e90 g     F .text	0000003a findPllPreDiv
0000ba1c g     F .text	00000032 __aeabi_lowlevel_memset
0000723c g     F .text	00000144 arm_biquad_cascade_df1_f32
000110b0 g     O .text	000000c0 twiddleCoef_32_q31
0002b780 g     O .text	00000370 armBitRevIndexTable256
0000b09c g     F .text	00000040 _sbrk
200002f8 g     O .bss	00000050 E_IIR
20000348 g     O .bss	00002080 FIR_State
00003678 g     F .text	00000058 Board_Init
00005af8 g     F .text	0000025a arm_radix4_butterfly_inverse_q15
20000128 g     O .bss	00000010 IIR_State_f32
000000e0 g       .text	00000000 __data_section_table
00008f10 g     F .text	00000030 cosf
0002b228 g     O .text	000003c0 armBitRevIndexTable_fixed_512
0000b7c4 g     F .text	00000058 __aeabi_d2f
00000118  w    F .text	00000002 RTC_IRQHandler
2000a520 g       .bss	00000000 _ebss
0000bf60 g     O .text	00000010 arm_cfft_sR_q31_len16
00000118  w    F .text	00000002 FLEXCOMM0_IRQHandler
00009aa4 g     F .text	00000d46 __vfprintf
00003b10 g     F .text	00000028 Chip_Clock_GetMainClockRate
00000118  w    F .text	00000002 USB_NEEDCLK_IRQHandler
0002aea8 g     O .text	00000380 armBitRevIndexTable512
00000118  w    F .text	00000002 CT32B3_IRQHandler
00026f68 g     O .text	00001dc0 armBitRevIndexTable2048
0000b6b0 g     F .text	00000114 __aeabi_dadd
0000011c g     F .text	0000001c data_init
00003fd0 g     F .text	00000144 Chip_Clock_GetSystemPLLOutFromSetup
000065a4 g     F .text	000005b6 arm_radix8_butterfly_f32
00007870 g     F .text	0000001e arm_biquad_cascade_df1_init_q15
0000bee0 g     O .text	00000010 arm_cfft_sR_f32_len256
00028f28 g     O .text	00001f80 armBitRevIndexTable4096
000037e4 g     F .text	0000004c Chip_POWER_SetFROHFRate
0000af2c g     F .text	00000110 fseek
00005d54 g     F .text	0000042a arm_radix4_butterfly_q31
00000000 g       *ABS*	00000000 __base_Flash
00000118  w    F .text	00000002 CT32B1_IRQHandler
0002bd70 g     O .text	000001a0 armBitRevIndexTable128
0000abe6 g     F .text	00000058 _fflush
00000118  w    F .text	00000002 PIN_INT5_IRQHandler
0000b85c g     F .text	00000046 __bhs_ui2d
00040000 g       *ABS*	00000000 __top_MFlash256
0000b98e g     F .text	00000054 __aeabi_dcmpge
00000118  w    F .text	00000002 PIN_INT2_IRQHandler
0000a8b8 g     F .text	00000130 _sincosf
00000118  w    F .text	00000002 FLEXCOMM2_IRQHandler
20000118 g       .bss	00000000 _bss
0000beb0 g     O .text	00000010 arm_cfft_sR_q15_len1024
0000b4fc g     F .text	000001b4 __aeabi_dsub
200023c8 g     O .bss	00000024 PID_Inst
0002bd00 g     O .text	00000070 armBitRevIndexTable_fixed_64
00003ab0 g     F .text	00000060 Chip_Clock_EnablePeriphClock
0000a82c g     F .text	0000003c rand
0000bf80 g     O .text	00000010 arm_cfft_sR_q15_len64
0000bf70 g     O .text	00000010 arm_cfft_sR_f32_len1024
00007380 g     F .text	000000fa arm_biquad_cascade_df1_fast_q15
0002b600 g     O .text	00000180 twiddleCoef_128_q15
00040000 g       *ABS*	00000000 __top_Flash
2000a520 g       .noinit	00000000 _end_noinit
20028000 g       *ABS*	00000000 _vStackTop
0001f628 g     O .text	00000400 twiddleCoef_128
200023ec g     O .bss	00000010 G
00013920 g     O .text	00000800 twiddleCoef_256
00014d20 g     O .text	00001800 twiddleCoef_1024_q31
0000c130 g     O .text	00004000 twiddleCoef_2048
00000118  w    F .text	00000002 PIN_INT7_IRQHandler
000057e0 g     F .text	000000bc arm_cfft_q31
000000f4 g       .text	00000000 __bss_section_table_end
0002baf0 g     O .text	00000030 armBitRevIndexTable_fixed_32
00008b2c g     F .text	00000080 arm_cmplx_mag_squared_q15
20000000 g       *ABS*	00000000 __base_Ram0_160
0000b120 g     F .text	00000018 __check_heap_overflow
0000b8a2 g     F .text	00000010 __aeabi_i2d
00000118  w    F .text	00000002 ADC_THCMP_IRQHandler
00000118  w    F .text	00000002 PIN_INT1_IRQHandler
00000118  w    F .text	00000002 USB_IRQHandler
200023fc g     O .bss	00004000 InputData
0000bfd0 g     O .text	00000010 arm_cfft_sR_q31_len256
000056a0 g     F .text	0000013e arm_cfft_radix4by2_inverse_q31
0000747c g     F .text	000003da arm_biquad_cascade_df1_fast_q31
00003830 g     F .text	00000118 Chip_POWER_SetVoltage
20000138 g     O .bss	00000020 IIR_State_q63
00003638 g     F .text	0000001c Board_UARTPutChar
0000bef0 g     O .text	00000010 arm_cfft_sR_f32_len2048
0000483c g     F .text	00000050 Chip_UART_Send
00000118  w    F .text	00000002 CT32B4_IRQHandler
00004114 g     F .text	00000068 Chip_Clock_GetSystemPLLOutClockRate
00000118  w    F .text	00000002 IOH_IRQHandler
000002fc g       .text	00000000 __CRP_WORD_START__
00003654 g     F .text	0000001a __sys_write
00008710 g     F .text	00000036 arm_pid_init_f32
00008f6c g     F .text	00000004 memset
000000fc  w    F .text	00000002 MemManage_Handler
00000300 g     F .text	00003040 main
00016520 g     O .text	00000060 twiddleCoef_32_q15
0001f510 g     O .text	00000030 twiddleCoef_16_q15
0000b0dc g     F .text	00000044 _do_fflush
000033f0 g     F .text	0000010c Compute_q31_t_IIR
0000b03c g     F .text	0000004c ftell
00000118  w    F .text	00000002 MAILBOX_IRQHandler
20000020 g     O .data	00000014 IIR_Coef_q31
00000108  w    F .text	00000002 SVC_Handler
0000ae90 g     F .text	0000006c fclose
00003b58 g     F .text	00000060 Chip_Clock_GetFRGInClockRate
0000bf00 g     O .text	00000010 arm_cfft_sR_q31_len4096
00025368 g     O .text	00001000 twiddleCoef_512
0001e700 g     O .text	00000e10 armBitRevIndexTable1024
00000118  w    F .text	00000002 ADC_SEQA_IRQHandler
0000ba8c g     F .text	00000000 __sys_seek
0000b13c g     F .text	00000000 __bhs_ldivmod1
00003c28 g     F .text	00000074 fpuInit
00000118  w    F .text	00000002 PIN_INT0_IRQHandler
00008c68 g       .text	00000000 arm_bitreversal_32
00003a70 g     F .text	00000040 Chip_Clock_GetMain_B_ClockRate
000034fc g     F .text	0000001c SystemInit
00014120 g     O .text	00000c00 twiddleCoef_1024_q15
00000118  w    F .text	00000002 SPIFI_IRQHandler
000088f0 g     F .text	000000a2 arm_cmplx_mag_q15
000000ec g       .text	00000000 __bss_section_table
00003bb8 g     F .text	00000070 Chip_Clock_GetWDTOSCRate
00034280 g     O .text	00000008 __huge_vall
0000ba5c g     F .text	00000000 __sys_close
0000488c g     F .text	0000004a Chip_UART_SendBlocking
00008fe4 g     F .text	0000006c sprintf
00008480 g     F .text	00000290 arm_fir_q31
00007c14 g     F .text	0000015a arm_biquad_cascade_df2T_f32
00003764 g     F .text	00000038 Board_SetupMuxing
00003a10 g     F .text	00000060 Chip_Clock_GetMain_A_ClockRate
00000118  w    F .text	00000002 UTICK_IRQHandler
00000118  w    F .text	00000002 CT32B0_IRQHandler
000041ac g     F .text	0000008c Chip_SYSCON_PowerUp
00008e0c g     F .text	000000f0 arm_sqrt_q31
200063fc g     O .bss	00000080 FIR_Coef_f32
20000000 g       .uninit_RESERVED	00000000 _end_uninit_RESERVED
0000530c g     F .text	000000c6 arm_cfft_radix4by2_q15
0000ad10 g     F .text	00000068 _Cwritebuf
00003340 g     F .text	0000003e InitGoertzel_f32
20000000 g       .data	00000000 _data
2000a520 g       .bss	00000000 _pvHeapStart
000000f4 g       .text	00000000 __section_table_end
00008180 g     F .text	00000022 arm_fir_init_f32
000033dc g     F .text	00000014 Init_q31_t_IIR
00008f40 g     F .text	00000026 sinf
0000c000 g     O .text	00000010 arm_cfft_sR_f32_len512
00000118  w    F .text	00000002 GINT0_IRQHandler
00000118  w    F .text	00000002 FLEXCOMM4_IRQHandler
0000bf30 g     O .text	00000010 arm_cfft_sR_q15_len512
2000647c g     O .bss	0000000c FIR_Inst
00003670 g     F .text	00000008 Board_Debug_Init
0000ba80 g     F .text	00000000 __sys_remove
0000b8b2 g     F .text	00000030 __aeabi_dcmpeq
20000118 g       .data	00000000 _edata
00004b88 g     F .text	0000008e Chip_FLEXCOMM_SetPeriph
0000bff0 g     O .text	00000010 arm_cfft_sR_f32_len128
00004d98 g     F .text	00000480 arm_cfft_radix8by4_f32
00006180 g     F .text	00000422 arm_radix4_butterfly_inverse_q31
00000118  w    F .text	00000002 FLEXCOMM1_IRQHandler
00024468 g     O .text	00000300 twiddleCoef_256_q15
000130f0 g     O .text	00000070 armBitRevIndexTable64
0001f540 g     O .text	00000060 twiddleCoef_16_q31
200002ac g     O .bss	00000004 __heaps
0000ba50 g     F .text	00000000 __sys_appexit
0000c020 g     O .text	00000010 arm_cfft_sR_f32_len4096
20000000 g       *ABS*	00000000 __base_RAM
00000000 g     O .text	000000e0 g_pfnVectors
00000150 g     F .text	000000a4 ResetISR
0000c050 g     O .text	000000e0 armBitRevIndexTable_fixed_128
00003948 g     F .text	00000018 SystemCoreClockUpdate
00004b14 g     F .text	00000074 Chip_FLEXCOMM_Init
0000b81c g     F .text	00000040 __aeabi_d2iz
00004a78 g     F .text	0000009c Chip_FLEXCOMM_GetIndex
200002b0 g     O .bss	00000004 __end_of_heap
00016600 g     O .text	00006000 twiddleCoef_4096_q31
0001c600 g     O .text	00002000 twiddleCoef_1024
00000118  w    F .text	00000002 DMA_IRQHandler
0000ae70 g     F .text	00000020 _Csys_alloc
0000b2ac g     F .text	00000002 __aeabi_idiv0
00000118  w    F .text	00000002 Reserved38_IRQHandler
00000118  w    F .text	00000002 PIN_INT3_IRQHandler
20000014 g     O .data	0000000a IIR_Coef_q15
00000100  w    F .text	00000002 BusFault_Handler
0000a868 g     F .text	0000004a strlen
0000bf10 g     O .text	00000010 arm_cfft_sR_q15_len32
0000bf40 g     O .text	00000010 arm_cfft_sR_f32_len32
0000bfe0 g     O .text	00000010 arm_cfft_sR_q15_len2048
20006488 g     O .bss	00000080 FIR_Coef_q31
0000549c g     F .text	000000bc arm_cfft_q15
0002b5e8 g     O .text	00000018 armBitRevIndexTable_fixed_16
00003610 g     F .text	00000028 Board_LED_Set
0000b9e4 g     F .text	00000038 __aeabi_f2d
00010130 g     O .text	00000f80 armBitRevIndexTable_fixed_2048
0001fae8 g     O .text	00001800 twiddleCoef_2048_q15
00033f10 g     O .text	00000300 twiddleCoef_128_q31
00009a00 g     F .text	000000a4 _initio
20006508 g     O .bss	00004000 OutputData
00000118  w    F .text	00000002 GINT1_IRQHandler
00024768 g     O .text	00000600 twiddleCoef_512_q15
00013160 g     O .text	000007c0 armBitRevIndexTable_fixed_1024
20000168 g     O .bss	00000140 __Ciob
20028000 g       *ABS*	00000000 __top_Ram0_160
0000ba74 g     F .text	00000000 __sys_istty
0001f5a0 g     O .text	00000028 armBitRevIndexTable16
00004c18 g     F .text	00000180 arm_cfft_radix8by2_f32
00006b7c g     F .text	000006c0 arm_biquad_cas_df1_32x64_q31
00006b5c g     F .text	0000001e arm_biquad_cas_df1_32x64_init_q31
00000118  w    F .text	00000002 DMIC_IRQHandler
00008a90 g     F .text	0000009c arm_cmplx_mag_squared_f32
0000ae40 g     F .text	00000030 free
000037c4 g     F .text	00000020 Board_SystemInit
2000a508 g     O .bss	00000010 IIR_Inst



Disassembly of section .text:

00000000 <g_pfnVectors>:
       0:	00 80 02 20 51 01 00 00 f5 00 00 00 f9 00 00 00     ... Q...........
      10:	fd 00 00 00 01 01 00 00 05 01 00 00 be 79 fd df     .............y..
	...
      2c:	09 01 00 00 0d 01 00 00 00 00 00 00 11 01 00 00     ................
      3c:	15 01 00 00 19 01 00 00 19 01 00 00 19 01 00 00     ................
      4c:	19 01 00 00 19 01 00 00 19 01 00 00 19 01 00 00     ................
      5c:	19 01 00 00 19 01 00 00 19 01 00 00 19 01 00 00     ................
      6c:	19 01 00 00 19 01 00 00 19 01 00 00 19 01 00 00     ................
      7c:	19 01 00 00 19 01 00 00 19 01 00 00 19 01 00 00     ................
      8c:	19 01 00 00 19 01 00 00 19 01 00 00 19 01 00 00     ................
      9c:	19 01 00 00 19 01 00 00 19 01 00 00 19 01 00 00     ................
      ac:	19 01 00 00 19 01 00 00 19 01 00 00 19 01 00 00     ................
      bc:	19 01 00 00 19 01 00 00 19 01 00 00 19 01 00 00     ................
      cc:	19 01 00 00 19 01 00 00 19 01 00 00 19 01 00 00     ................
      dc:	19 01 00 00                                         ....

000000e0 <__data_section_table>:
      e0:	000342a0 	.word	0x000342a0
      e4:	20000000 	.word	0x20000000
      e8:	00000118 	.word	0x00000118

000000ec <__bss_section_table>:
      ec:	20000118 	.word	0x20000118
      f0:	0000a408 	.word	0x0000a408

000000f4 <NMI_Handler>:
      f4:	e7fe      	b.n	f4 <NMI_Handler>
      f6:	bf00      	nop

000000f8 <HardFault_Handler>:
      f8:	e7fe      	b.n	f8 <HardFault_Handler>
      fa:	bf00      	nop

000000fc <MemManage_Handler>:
      fc:	e7fe      	b.n	fc <MemManage_Handler>
      fe:	bf00      	nop

00000100 <BusFault_Handler>:
     100:	e7fe      	b.n	100 <BusFault_Handler>
     102:	bf00      	nop

00000104 <UsageFault_Handler>:
     104:	e7fe      	b.n	104 <UsageFault_Handler>
     106:	bf00      	nop

00000108 <SVC_Handler>:
     108:	e7fe      	b.n	108 <SVC_Handler>
     10a:	bf00      	nop

0000010c <DebugMon_Handler>:
     10c:	e7fe      	b.n	10c <DebugMon_Handler>
     10e:	bf00      	nop

00000110 <PendSV_Handler>:
     110:	e7fe      	b.n	110 <PendSV_Handler>
     112:	bf00      	nop

00000114 <SysTick_Handler>:
     114:	e7fe      	b.n	114 <SysTick_Handler>
     116:	bf00      	nop

00000118 <ADC_SEQA_IRQHandler>:
     118:	e7fe      	b.n	118 <ADC_SEQA_IRQHandler>
     11a:	bf00      	nop

0000011c <data_init>:
     11c:	b15a      	cbz	r2, 136 <data_init+0x1a>
     11e:	b410      	push	{r4}
     120:	3904      	subs	r1, #4
     122:	2300      	movs	r3, #0
     124:	3304      	adds	r3, #4
     126:	f850 4b04 	ldr.w	r4, [r0], #4
     12a:	f841 4f04 	str.w	r4, [r1, #4]!
     12e:	429a      	cmp	r2, r3
     130:	d8f8      	bhi.n	124 <data_init+0x8>
     132:	f85d 4b04 	ldr.w	r4, [sp], #4
     136:	4770      	bx	lr

00000138 <bss_init>:
     138:	b149      	cbz	r1, 14e <bss_init+0x16>
     13a:	b410      	push	{r4}
     13c:	4603      	mov	r3, r0
     13e:	2400      	movs	r4, #0
     140:	f843 4b04 	str.w	r4, [r3], #4
     144:	1a1a      	subs	r2, r3, r0
     146:	4291      	cmp	r1, r2
     148:	d8fa      	bhi.n	140 <bss_init+0x8>
     14a:	f85d 4b04 	ldr.w	r4, [sp], #4
     14e:	4770      	bx	lr

00000150 <ResetISR>:
     150:	4b21      	ldr	r3, [pc, #132]	; (1d8 <ResetISR+0x88>)
     152:	b570      	push	{r4, r5, r6, lr}
     154:	2210      	movs	r2, #16
     156:	4c21      	ldr	r4, [pc, #132]	; (1dc <ResetISR+0x8c>)
     158:	4e21      	ldr	r6, [pc, #132]	; (1e0 <ResetISR+0x90>)
     15a:	601a      	str	r2, [r3, #0]
     15c:	42b4      	cmp	r4, r6
     15e:	d211      	bcs.n	184 <ResetISR+0x34>
     160:	e894 0006 	ldmia.w	r4, {r1, r2}
     164:	340c      	adds	r4, #12
     166:	f854 5c04 	ldr.w	r5, [r4, #-4]
     16a:	2d00      	cmp	r5, #0
     16c:	d0f6      	beq.n	15c <ResetISR+0xc>
     16e:	3a04      	subs	r2, #4
     170:	2300      	movs	r3, #0
     172:	3304      	adds	r3, #4
     174:	f851 0b04 	ldr.w	r0, [r1], #4
     178:	f842 0f04 	str.w	r0, [r2, #4]!
     17c:	429d      	cmp	r5, r3
     17e:	d8f8      	bhi.n	172 <ResetISR+0x22>
     180:	42b4      	cmp	r4, r6
     182:	d3ed      	bcc.n	160 <ResetISR+0x10>
     184:	4b17      	ldr	r3, [pc, #92]	; (1e4 <ResetISR+0x94>)
     186:	429c      	cmp	r4, r3
     188:	d214      	bcs.n	1b4 <ResetISR+0x64>
     18a:	f104 0608 	add.w	r6, r4, #8
     18e:	3307      	adds	r3, #7
     190:	1b9b      	subs	r3, r3, r6
     192:	f023 0307 	bic.w	r3, r3, #7
     196:	3310      	adds	r3, #16
     198:	441c      	add	r4, r3
     19a:	2500      	movs	r5, #0
     19c:	e916 0003 	ldmdb	r6, {r0, r1}
     1a0:	4603      	mov	r3, r0
     1a2:	b121      	cbz	r1, 1ae <ResetISR+0x5e>
     1a4:	f843 5b04 	str.w	r5, [r3], #4
     1a8:	1a1a      	subs	r2, r3, r0
     1aa:	4291      	cmp	r1, r2
     1ac:	d8fa      	bhi.n	1a4 <ResetISR+0x54>
     1ae:	3608      	adds	r6, #8
     1b0:	42a6      	cmp	r6, r4
     1b2:	d1f3      	bne.n	19c <ResetISR+0x4c>
     1b4:	4908      	ldr	r1, [pc, #32]	; (1d8 <ResetISR+0x88>)
     1b6:	4c0c      	ldr	r4, [pc, #48]	; (1e8 <ResetISR+0x98>)
     1b8:	4b0c      	ldr	r3, [pc, #48]	; (1ec <ResetISR+0x9c>)
     1ba:	4a0d      	ldr	r2, [pc, #52]	; (1f0 <ResetISR+0xa0>)
     1bc:	f44f 5000 	mov.w	r0, #8192	; 0x2000
     1c0:	2500      	movs	r5, #0
     1c2:	6025      	str	r5, [r4, #0]
     1c4:	6008      	str	r0, [r1, #0]
     1c6:	681b      	ldr	r3, [r3, #0]
     1c8:	f3c3 3340 	ubfx	r3, r3, #13, #1
     1cc:	6013      	str	r3, [r2, #0]
     1ce:	f003 f995 	bl	34fc <SystemInit>
     1d2:	f008 fe93 	bl	8efc <__main>
     1d6:	e7fe      	b.n	1d6 <ResetISR+0x86>
     1d8:	40000220 	.word	0x40000220
     1dc:	000000e0 	.word	0x000000e0
     1e0:	000000ec 	.word	0x000000ec
     1e4:	000000f4 	.word	0x000000f4
     1e8:	40000304 	.word	0x40000304
     1ec:	40000200 	.word	0x40000200
     1f0:	2000a518 	.word	0x2000a518
     1f4:	ffffffff 	.word	0xffffffff
     1f8:	ffffffff 	.word	0xffffffff
     1fc:	ffffffff 	.word	0xffffffff
     200:	ffffffff 	.word	0xffffffff
     204:	ffffffff 	.word	0xffffffff
     208:	ffffffff 	.word	0xffffffff
     20c:	ffffffff 	.word	0xffffffff
     210:	ffffffff 	.word	0xffffffff
     214:	ffffffff 	.word	0xffffffff
     218:	ffffffff 	.word	0xffffffff
     21c:	ffffffff 	.word	0xffffffff
     220:	ffffffff 	.word	0xffffffff
     224:	ffffffff 	.word	0xffffffff
     228:	ffffffff 	.word	0xffffffff
     22c:	ffffffff 	.word	0xffffffff
     230:	ffffffff 	.word	0xffffffff
     234:	ffffffff 	.word	0xffffffff
     238:	ffffffff 	.word	0xffffffff
     23c:	ffffffff 	.word	0xffffffff
     240:	ffffffff 	.word	0xffffffff
     244:	ffffffff 	.word	0xffffffff
     248:	ffffffff 	.word	0xffffffff
     24c:	ffffffff 	.word	0xffffffff
     250:	ffffffff 	.word	0xffffffff
     254:	ffffffff 	.word	0xffffffff
     258:	ffffffff 	.word	0xffffffff
     25c:	ffffffff 	.word	0xffffffff
     260:	ffffffff 	.word	0xffffffff
     264:	ffffffff 	.word	0xffffffff
     268:	ffffffff 	.word	0xffffffff
     26c:	ffffffff 	.word	0xffffffff
     270:	ffffffff 	.word	0xffffffff
     274:	ffffffff 	.word	0xffffffff
     278:	ffffffff 	.word	0xffffffff
     27c:	ffffffff 	.word	0xffffffff
     280:	ffffffff 	.word	0xffffffff
     284:	ffffffff 	.word	0xffffffff
     288:	ffffffff 	.word	0xffffffff
     28c:	ffffffff 	.word	0xffffffff
     290:	ffffffff 	.word	0xffffffff
     294:	ffffffff 	.word	0xffffffff
     298:	ffffffff 	.word	0xffffffff
     29c:	ffffffff 	.word	0xffffffff
     2a0:	ffffffff 	.word	0xffffffff
     2a4:	ffffffff 	.word	0xffffffff
     2a8:	ffffffff 	.word	0xffffffff
     2ac:	ffffffff 	.word	0xffffffff
     2b0:	ffffffff 	.word	0xffffffff
     2b4:	ffffffff 	.word	0xffffffff
     2b8:	ffffffff 	.word	0xffffffff
     2bc:	ffffffff 	.word	0xffffffff
     2c0:	ffffffff 	.word	0xffffffff
     2c4:	ffffffff 	.word	0xffffffff
     2c8:	ffffffff 	.word	0xffffffff
     2cc:	ffffffff 	.word	0xffffffff
     2d0:	ffffffff 	.word	0xffffffff
     2d4:	ffffffff 	.word	0xffffffff
     2d8:	ffffffff 	.word	0xffffffff
     2dc:	ffffffff 	.word	0xffffffff
     2e0:	ffffffff 	.word	0xffffffff
     2e4:	ffffffff 	.word	0xffffffff
     2e8:	ffffffff 	.word	0xffffffff
     2ec:	ffffffff 	.word	0xffffffff
     2f0:	ffffffff 	.word	0xffffffff
     2f4:	ffffffff 	.word	0xffffffff
     2f8:	ffffffff 	.word	0xffffffff

000002fc <CRP_WORD>:
     2fc:	ffffffff                                ....

00000300 <main>:
     300:	e92d 4ff0 	stmdb	sp!, {r4, r5, r6, r7, r8, r9, sl, fp, lr}
     304:	b089      	sub	sp, #36	; 0x24
     306:	f04f 537e 	mov.w	r3, #1065353216	; 0x3f800000
     30a:	9307      	str	r3, [sp, #28]
     30c:	f003 fb1c 	bl	3948 <SystemCoreClockUpdate>
     310:	f003 f9b2 	bl	3678 <Board_Init>
     314:	2101      	movs	r1, #1
     316:	2000      	movs	r0, #0
     318:	f003 f97a 	bl	3610 <Board_LED_Set>
     31c:	f003 fc84 	bl	3c28 <fpuInit>
     320:	48bd      	ldr	r0, [pc, #756]	; (618 <main+0x318>)
     322:	49be      	ldr	r1, [pc, #760]	; (61c <main+0x31c>)
     324:	4abe      	ldr	r2, [pc, #760]	; (620 <main+0x320>)
     326:	ed9f 7abf 	vldr	s14, [pc, #764]	; 624 <main+0x324>
     32a:	2300      	movs	r3, #0
     32c:	ee07 3a90 	vmov	s15, r3
     330:	eef8 7ae7 	vcvt.f32.s32	s15, s15
     334:	069d      	lsls	r5, r3, #26
     336:	029c      	lsls	r4, r3, #10
     338:	ee67 7a87 	vmul.f32	s15, s15, s14
     33c:	3301      	adds	r3, #1
     33e:	2b20      	cmp	r3, #32
     340:	ece0 7a01 	vstmia	r0!, {s15}
     344:	f841 5f04 	str.w	r5, [r1, #4]!
     348:	f822 4f02 	strh.w	r4, [r2, #2]!
     34c:	d1ee      	bne.n	32c <main+0x2c>
     34e:	203a      	movs	r0, #58	; 0x3a
     350:	f003 fbae 	bl	3ab0 <Chip_Clock_EnablePeriphClock>
     354:	f04f 4380 	mov.w	r3, #1073741824	; 0x40000000
     358:	f04f 7280 	mov.w	r2, #16777216	; 0x1000000
     35c:	f8c3 2124 	str.w	r2, [r3, #292]	; 0x124
     360:	bf00      	nop
     362:	bf00      	nop
     364:	bf00      	nop
     366:	bf00      	nop
     368:	4caf      	ldr	r4, [pc, #700]	; (628 <main+0x328>)
     36a:	f8c3 2144 	str.w	r2, [r3, #324]	; 0x144
     36e:	4620      	mov	r0, r4
     370:	f8df b318 	ldr.w	fp, [pc, #792]	; 68c <main+0x38c>
     374:	f004 f832 	bl	43dc <Chip_TIMER_Reset>
     378:	2300      	movs	r3, #0
     37a:	6063      	str	r3, [r4, #4]
     37c:	f50b 4580 	add.w	r5, fp, #16384	; 0x4000
     380:	465c      	mov	r4, fp
     382:	f00a fa53 	bl	a82c <rand>
     386:	f844 0f04 	str.w	r0, [r4, #4]!
     38a:	42a5      	cmp	r5, r4
     38c:	d1f9      	bne.n	382 <main+0x82>
     38e:	48a7      	ldr	r0, [pc, #668]	; (62c <main+0x32c>)
     390:	4da5      	ldr	r5, [pc, #660]	; (628 <main+0x328>)
     392:	f8df 82fc 	ldr.w	r8, [pc, #764]	; 690 <main+0x390>
     396:	f8df a2fc 	ldr.w	sl, [pc, #764]	; 694 <main+0x394>
     39a:	f009 fb07 	bl	99ac <printf>
     39e:	2301      	movs	r3, #1
     3a0:	2204      	movs	r2, #4
     3a2:	2105      	movs	r1, #5
     3a4:	48a2      	ldr	r0, [pc, #648]	; (630 <main+0x330>)
     3a6:	f009 fb01 	bl	99ac <printf>
     3aa:	4ba2      	ldr	r3, [pc, #648]	; (634 <main+0x334>)
     3ac:	4aa2      	ldr	r2, [pc, #648]	; (638 <main+0x338>)
     3ae:	49a3      	ldr	r1, [pc, #652]	; (63c <main+0x33c>)
     3b0:	48a3      	ldr	r0, [pc, #652]	; (640 <main+0x340>)
     3b2:	2600      	movs	r6, #0
     3b4:	2701      	movs	r7, #1
     3b6:	f009 faf9 	bl	99ac <printf>
     3ba:	4628      	mov	r0, r5
     3bc:	f004 f80e 	bl	43dc <Chip_TIMER_Reset>
     3c0:	606f      	str	r7, [r5, #4]
     3c2:	606e      	str	r6, [r5, #4]
     3c4:	68ac      	ldr	r4, [r5, #8]
     3c6:	489f      	ldr	r0, [pc, #636]	; (644 <main+0x344>)
     3c8:	4621      	mov	r1, r4
     3ca:	f009 faef 	bl	99ac <printf>
     3ce:	4621      	mov	r1, r4
     3d0:	489d      	ldr	r0, [pc, #628]	; (648 <main+0x348>)
     3d2:	f009 faeb 	bl	99ac <printf>
     3d6:	489d      	ldr	r0, [pc, #628]	; (64c <main+0x34c>)
     3d8:	f009 fae8 	bl	99ac <printf>
     3dc:	489c      	ldr	r0, [pc, #624]	; (650 <main+0x350>)
     3de:	f009 fae5 	bl	99ac <printf>
     3e2:	489c      	ldr	r0, [pc, #624]	; (654 <main+0x354>)
     3e4:	f009 fae2 	bl	99ac <printf>
     3e8:	4628      	mov	r0, r5
     3ea:	f003 fff7 	bl	43dc <Chip_TIMER_Reset>
     3ee:	463b      	mov	r3, r7
     3f0:	4632      	mov	r2, r6
     3f2:	606f      	str	r7, [r5, #4]
     3f4:	4998      	ldr	r1, [pc, #608]	; (658 <main+0x358>)
     3f6:	4899      	ldr	r0, [pc, #612]	; (65c <main+0x35c>)
     3f8:	f004 ff0e 	bl	5218 <arm_cfft_f32>
     3fc:	606e      	str	r6, [r5, #4]
     3fe:	68a9      	ldr	r1, [r5, #8]
     400:	4897      	ldr	r0, [pc, #604]	; (660 <main+0x360>)
     402:	1b09      	subs	r1, r1, r4
     404:	f009 fad2 	bl	99ac <printf>
     408:	4896      	ldr	r0, [pc, #600]	; (664 <main+0x364>)
     40a:	f009 facf 	bl	99ac <printf>
     40e:	4628      	mov	r0, r5
     410:	f003 ffe4 	bl	43dc <Chip_TIMER_Reset>
     414:	463b      	mov	r3, r7
     416:	4632      	mov	r2, r6
     418:	606f      	str	r7, [r5, #4]
     41a:	498f      	ldr	r1, [pc, #572]	; (658 <main+0x358>)
     41c:	4892      	ldr	r0, [pc, #584]	; (668 <main+0x368>)
     41e:	f004 fefb 	bl	5218 <arm_cfft_f32>
     422:	606e      	str	r6, [r5, #4]
     424:	68a9      	ldr	r1, [r5, #8]
     426:	488e      	ldr	r0, [pc, #568]	; (660 <main+0x360>)
     428:	1b09      	subs	r1, r1, r4
     42a:	f009 fabf 	bl	99ac <printf>
     42e:	488d      	ldr	r0, [pc, #564]	; (664 <main+0x364>)
     430:	f009 fabc 	bl	99ac <printf>
     434:	4628      	mov	r0, r5
     436:	f003 ffd1 	bl	43dc <Chip_TIMER_Reset>
     43a:	463b      	mov	r3, r7
     43c:	4632      	mov	r2, r6
     43e:	606f      	str	r7, [r5, #4]
     440:	4985      	ldr	r1, [pc, #532]	; (658 <main+0x358>)
     442:	488a      	ldr	r0, [pc, #552]	; (66c <main+0x36c>)
     444:	f004 fee8 	bl	5218 <arm_cfft_f32>
     448:	606e      	str	r6, [r5, #4]
     44a:	68a9      	ldr	r1, [r5, #8]
     44c:	4884      	ldr	r0, [pc, #528]	; (660 <main+0x360>)
     44e:	1b09      	subs	r1, r1, r4
     450:	f009 faac 	bl	99ac <printf>
     454:	4883      	ldr	r0, [pc, #524]	; (664 <main+0x364>)
     456:	f009 faa9 	bl	99ac <printf>
     45a:	4628      	mov	r0, r5
     45c:	f003 ffbe 	bl	43dc <Chip_TIMER_Reset>
     460:	463b      	mov	r3, r7
     462:	4632      	mov	r2, r6
     464:	606f      	str	r7, [r5, #4]
     466:	497c      	ldr	r1, [pc, #496]	; (658 <main+0x358>)
     468:	4881      	ldr	r0, [pc, #516]	; (670 <main+0x370>)
     46a:	f004 fed5 	bl	5218 <arm_cfft_f32>
     46e:	606e      	str	r6, [r5, #4]
     470:	68a9      	ldr	r1, [r5, #8]
     472:	487b      	ldr	r0, [pc, #492]	; (660 <main+0x360>)
     474:	1b09      	subs	r1, r1, r4
     476:	f009 fa99 	bl	99ac <printf>
     47a:	487a      	ldr	r0, [pc, #488]	; (664 <main+0x364>)
     47c:	f009 fa96 	bl	99ac <printf>
     480:	4628      	mov	r0, r5
     482:	f003 ffab 	bl	43dc <Chip_TIMER_Reset>
     486:	463b      	mov	r3, r7
     488:	4632      	mov	r2, r6
     48a:	606f      	str	r7, [r5, #4]
     48c:	4972      	ldr	r1, [pc, #456]	; (658 <main+0x358>)
     48e:	4879      	ldr	r0, [pc, #484]	; (674 <main+0x374>)
     490:	f004 fec2 	bl	5218 <arm_cfft_f32>
     494:	606e      	str	r6, [r5, #4]
     496:	68a9      	ldr	r1, [r5, #8]
     498:	4871      	ldr	r0, [pc, #452]	; (660 <main+0x360>)
     49a:	1b09      	subs	r1, r1, r4
     49c:	f009 fa86 	bl	99ac <printf>
     4a0:	4870      	ldr	r0, [pc, #448]	; (664 <main+0x364>)
     4a2:	f009 fa83 	bl	99ac <printf>
     4a6:	4628      	mov	r0, r5
     4a8:	f003 ff98 	bl	43dc <Chip_TIMER_Reset>
     4ac:	463b      	mov	r3, r7
     4ae:	4632      	mov	r2, r6
     4b0:	606f      	str	r7, [r5, #4]
     4b2:	4969      	ldr	r1, [pc, #420]	; (658 <main+0x358>)
     4b4:	4870      	ldr	r0, [pc, #448]	; (678 <main+0x378>)
     4b6:	f004 feaf 	bl	5218 <arm_cfft_f32>
     4ba:	606e      	str	r6, [r5, #4]
     4bc:	68a9      	ldr	r1, [r5, #8]
     4be:	4868      	ldr	r0, [pc, #416]	; (660 <main+0x360>)
     4c0:	1b09      	subs	r1, r1, r4
     4c2:	f009 fa73 	bl	99ac <printf>
     4c6:	4867      	ldr	r0, [pc, #412]	; (664 <main+0x364>)
     4c8:	f009 fa70 	bl	99ac <printf>
     4cc:	4628      	mov	r0, r5
     4ce:	f003 ff85 	bl	43dc <Chip_TIMER_Reset>
     4d2:	463b      	mov	r3, r7
     4d4:	4632      	mov	r2, r6
     4d6:	606f      	str	r7, [r5, #4]
     4d8:	495f      	ldr	r1, [pc, #380]	; (658 <main+0x358>)
     4da:	4868      	ldr	r0, [pc, #416]	; (67c <main+0x37c>)
     4dc:	f004 fe9c 	bl	5218 <arm_cfft_f32>
     4e0:	606e      	str	r6, [r5, #4]
     4e2:	68a9      	ldr	r1, [r5, #8]
     4e4:	485e      	ldr	r0, [pc, #376]	; (660 <main+0x360>)
     4e6:	1b09      	subs	r1, r1, r4
     4e8:	f009 fa60 	bl	99ac <printf>
     4ec:	485d      	ldr	r0, [pc, #372]	; (664 <main+0x364>)
     4ee:	f009 fa5d 	bl	99ac <printf>
     4f2:	4628      	mov	r0, r5
     4f4:	f003 ff72 	bl	43dc <Chip_TIMER_Reset>
     4f8:	463b      	mov	r3, r7
     4fa:	4632      	mov	r2, r6
     4fc:	606f      	str	r7, [r5, #4]
     4fe:	4956      	ldr	r1, [pc, #344]	; (658 <main+0x358>)
     500:	485f      	ldr	r0, [pc, #380]	; (680 <main+0x380>)
     502:	f004 fe89 	bl	5218 <arm_cfft_f32>
     506:	606e      	str	r6, [r5, #4]
     508:	68a9      	ldr	r1, [r5, #8]
     50a:	4855      	ldr	r0, [pc, #340]	; (660 <main+0x360>)
     50c:	1b09      	subs	r1, r1, r4
     50e:	f009 fa4d 	bl	99ac <printf>
     512:	4854      	ldr	r0, [pc, #336]	; (664 <main+0x364>)
     514:	f009 fa4a 	bl	99ac <printf>
     518:	4628      	mov	r0, r5
     51a:	f003 ff5f 	bl	43dc <Chip_TIMER_Reset>
     51e:	463b      	mov	r3, r7
     520:	4632      	mov	r2, r6
     522:	606f      	str	r7, [r5, #4]
     524:	494c      	ldr	r1, [pc, #304]	; (658 <main+0x358>)
     526:	4857      	ldr	r0, [pc, #348]	; (684 <main+0x384>)
     528:	f004 fe76 	bl	5218 <arm_cfft_f32>
     52c:	606e      	str	r6, [r5, #4]
     52e:	68a9      	ldr	r1, [r5, #8]
     530:	484b      	ldr	r0, [pc, #300]	; (660 <main+0x360>)
     532:	1b09      	subs	r1, r1, r4
     534:	f009 fa3a 	bl	99ac <printf>
     538:	484a      	ldr	r0, [pc, #296]	; (664 <main+0x364>)
     53a:	f009 fa37 	bl	99ac <printf>
     53e:	4844      	ldr	r0, [pc, #272]	; (650 <main+0x350>)
     540:	f009 fa34 	bl	99ac <printf>
     544:	4850      	ldr	r0, [pc, #320]	; (688 <main+0x388>)
     546:	f009 fa31 	bl	99ac <printf>
     54a:	4628      	mov	r0, r5
     54c:	f003 ff46 	bl	43dc <Chip_TIMER_Reset>
     550:	4633      	mov	r3, r6
     552:	4632      	mov	r2, r6
     554:	606f      	str	r7, [r5, #4]
     556:	4940      	ldr	r1, [pc, #256]	; (658 <main+0x358>)
     558:	4840      	ldr	r0, [pc, #256]	; (65c <main+0x35c>)
     55a:	f004 fe5d 	bl	5218 <arm_cfft_f32>
     55e:	606e      	str	r6, [r5, #4]
     560:	68a9      	ldr	r1, [r5, #8]
     562:	483f      	ldr	r0, [pc, #252]	; (660 <main+0x360>)
     564:	1b09      	subs	r1, r1, r4
     566:	f009 fa21 	bl	99ac <printf>
     56a:	483e      	ldr	r0, [pc, #248]	; (664 <main+0x364>)
     56c:	f009 fa1e 	bl	99ac <printf>
     570:	4628      	mov	r0, r5
     572:	f003 ff33 	bl	43dc <Chip_TIMER_Reset>
     576:	4633      	mov	r3, r6
     578:	4632      	mov	r2, r6
     57a:	606f      	str	r7, [r5, #4]
     57c:	4936      	ldr	r1, [pc, #216]	; (658 <main+0x358>)
     57e:	483a      	ldr	r0, [pc, #232]	; (668 <main+0x368>)
     580:	f004 fe4a 	bl	5218 <arm_cfft_f32>
     584:	606e      	str	r6, [r5, #4]
     586:	68a9      	ldr	r1, [r5, #8]
     588:	4835      	ldr	r0, [pc, #212]	; (660 <main+0x360>)
     58a:	1b09      	subs	r1, r1, r4
     58c:	f009 fa0e 	bl	99ac <printf>
     590:	4834      	ldr	r0, [pc, #208]	; (664 <main+0x364>)
     592:	f009 fa0b 	bl	99ac <printf>
     596:	4628      	mov	r0, r5
     598:	f003 ff20 	bl	43dc <Chip_TIMER_Reset>
     59c:	4633      	mov	r3, r6
     59e:	4632      	mov	r2, r6
     5a0:	606f      	str	r7, [r5, #4]
     5a2:	492d      	ldr	r1, [pc, #180]	; (658 <main+0x358>)
     5a4:	4831      	ldr	r0, [pc, #196]	; (66c <main+0x36c>)
     5a6:	f004 fe37 	bl	5218 <arm_cfft_f32>
     5aa:	606e      	str	r6, [r5, #4]
     5ac:	68a9      	ldr	r1, [r5, #8]
     5ae:	482c      	ldr	r0, [pc, #176]	; (660 <main+0x360>)
     5b0:	1b09      	subs	r1, r1, r4
     5b2:	f009 f9fb 	bl	99ac <printf>
     5b6:	482b      	ldr	r0, [pc, #172]	; (664 <main+0x364>)
     5b8:	f009 f9f8 	bl	99ac <printf>
     5bc:	4628      	mov	r0, r5
     5be:	f003 ff0d 	bl	43dc <Chip_TIMER_Reset>
     5c2:	4633      	mov	r3, r6
     5c4:	4632      	mov	r2, r6
     5c6:	606f      	str	r7, [r5, #4]
     5c8:	4923      	ldr	r1, [pc, #140]	; (658 <main+0x358>)
     5ca:	4829      	ldr	r0, [pc, #164]	; (670 <main+0x370>)
     5cc:	f004 fe24 	bl	5218 <arm_cfft_f32>
     5d0:	606e      	str	r6, [r5, #4]
     5d2:	68a9      	ldr	r1, [r5, #8]
     5d4:	4822      	ldr	r0, [pc, #136]	; (660 <main+0x360>)
     5d6:	1b09      	subs	r1, r1, r4
     5d8:	f009 f9e8 	bl	99ac <printf>
     5dc:	4821      	ldr	r0, [pc, #132]	; (664 <main+0x364>)
     5de:	f009 f9e5 	bl	99ac <printf>
     5e2:	4628      	mov	r0, r5
     5e4:	f003 fefa 	bl	43dc <Chip_TIMER_Reset>
     5e8:	4633      	mov	r3, r6
     5ea:	4632      	mov	r2, r6
     5ec:	606f      	str	r7, [r5, #4]
     5ee:	491a      	ldr	r1, [pc, #104]	; (658 <main+0x358>)
     5f0:	4820      	ldr	r0, [pc, #128]	; (674 <main+0x374>)
     5f2:	f004 fe11 	bl	5218 <arm_cfft_f32>
     5f6:	606e      	str	r6, [r5, #4]
     5f8:	68a9      	ldr	r1, [r5, #8]
     5fa:	4819      	ldr	r0, [pc, #100]	; (660 <main+0x360>)
     5fc:	1b09      	subs	r1, r1, r4
     5fe:	f009 f9d5 	bl	99ac <printf>
     602:	4818      	ldr	r0, [pc, #96]	; (664 <main+0x364>)
     604:	f009 f9d2 	bl	99ac <printf>
     608:	4628      	mov	r0, r5
     60a:	f003 fee7 	bl	43dc <Chip_TIMER_Reset>
     60e:	4633      	mov	r3, r6
     610:	4632      	mov	r2, r6
     612:	606f      	str	r7, [r5, #4]
     614:	e040      	b.n	698 <main+0x398>
     616:	bf00      	nop
     618:	200063fc 	.word	0x200063fc
     61c:	20006484 	.word	0x20006484
     620:	200002b6 	.word	0x200002b6
     624:	3d000000 	.word	0x3d000000
     628:	40008000 	.word	0x40008000
     62c:	0000baa4 	.word	0x0000baa4
     630:	0000bac4 	.word	0x0000bac4
     634:	0000badc 	.word	0x0000badc
     638:	0000bae4 	.word	0x0000bae4
     63c:	0000bae8 	.word	0x0000bae8
     640:	0000baf4 	.word	0x0000baf4
     644:	0000bb00 	.word	0x0000bb00
     648:	0000bb14 	.word	0x0000bb14
     64c:	0000bb34 	.word	0x0000bb34
     650:	0000bb10 	.word	0x0000bb10
     654:	0000bb60 	.word	0x0000bb60
     658:	200023fc 	.word	0x200023fc
     65c:	0000bf20 	.word	0x0000bf20
     660:	0000bb78 	.word	0x0000bb78
     664:	0000bcd8 	.word	0x0000bcd8
     668:	0000bf40 	.word	0x0000bf40
     66c:	0000bf50 	.word	0x0000bf50
     670:	0000bff0 	.word	0x0000bff0
     674:	0000bee0 	.word	0x0000bee0
     678:	0000c000 	.word	0x0000c000
     67c:	0000bf70 	.word	0x0000bf70
     680:	0000bef0 	.word	0x0000bef0
     684:	0000c020 	.word	0x0000c020
     688:	0000bb7c 	.word	0x0000bb7c
     68c:	200023f8 	.word	0x200023f8
     690:	200023ec 	.word	0x200023ec
     694:	200023c8 	.word	0x200023c8
     698:	49b8      	ldr	r1, [pc, #736]	; (97c <main+0x67c>)
     69a:	48b9      	ldr	r0, [pc, #740]	; (980 <main+0x680>)
     69c:	f004 fdbc 	bl	5218 <arm_cfft_f32>
     6a0:	606e      	str	r6, [r5, #4]
     6a2:	68a9      	ldr	r1, [r5, #8]
     6a4:	48b7      	ldr	r0, [pc, #732]	; (984 <main+0x684>)
     6a6:	1b09      	subs	r1, r1, r4
     6a8:	f009 f980 	bl	99ac <printf>
     6ac:	48b6      	ldr	r0, [pc, #728]	; (988 <main+0x688>)
     6ae:	f009 f97d 	bl	99ac <printf>
     6b2:	4628      	mov	r0, r5
     6b4:	f003 fe92 	bl	43dc <Chip_TIMER_Reset>
     6b8:	4633      	mov	r3, r6
     6ba:	4632      	mov	r2, r6
     6bc:	606f      	str	r7, [r5, #4]
     6be:	49af      	ldr	r1, [pc, #700]	; (97c <main+0x67c>)
     6c0:	48b2      	ldr	r0, [pc, #712]	; (98c <main+0x68c>)
     6c2:	f004 fda9 	bl	5218 <arm_cfft_f32>
     6c6:	606e      	str	r6, [r5, #4]
     6c8:	68a9      	ldr	r1, [r5, #8]
     6ca:	48ae      	ldr	r0, [pc, #696]	; (984 <main+0x684>)
     6cc:	1b09      	subs	r1, r1, r4
     6ce:	f009 f96d 	bl	99ac <printf>
     6d2:	48ad      	ldr	r0, [pc, #692]	; (988 <main+0x688>)
     6d4:	f009 f96a 	bl	99ac <printf>
     6d8:	4628      	mov	r0, r5
     6da:	f003 fe7f 	bl	43dc <Chip_TIMER_Reset>
     6de:	4633      	mov	r3, r6
     6e0:	4632      	mov	r2, r6
     6e2:	606f      	str	r7, [r5, #4]
     6e4:	49a5      	ldr	r1, [pc, #660]	; (97c <main+0x67c>)
     6e6:	48aa      	ldr	r0, [pc, #680]	; (990 <main+0x690>)
     6e8:	f004 fd96 	bl	5218 <arm_cfft_f32>
     6ec:	606e      	str	r6, [r5, #4]
     6ee:	68a9      	ldr	r1, [r5, #8]
     6f0:	48a4      	ldr	r0, [pc, #656]	; (984 <main+0x684>)
     6f2:	1b09      	subs	r1, r1, r4
     6f4:	f009 f95a 	bl	99ac <printf>
     6f8:	48a3      	ldr	r0, [pc, #652]	; (988 <main+0x688>)
     6fa:	f009 f957 	bl	99ac <printf>
     6fe:	4628      	mov	r0, r5
     700:	f003 fe6c 	bl	43dc <Chip_TIMER_Reset>
     704:	4633      	mov	r3, r6
     706:	4632      	mov	r2, r6
     708:	606f      	str	r7, [r5, #4]
     70a:	499c      	ldr	r1, [pc, #624]	; (97c <main+0x67c>)
     70c:	48a1      	ldr	r0, [pc, #644]	; (994 <main+0x694>)
     70e:	f004 fd83 	bl	5218 <arm_cfft_f32>
     712:	606e      	str	r6, [r5, #4]
     714:	68a9      	ldr	r1, [r5, #8]
     716:	489b      	ldr	r0, [pc, #620]	; (984 <main+0x684>)
     718:	1b09      	subs	r1, r1, r4
     71a:	f009 f947 	bl	99ac <printf>
     71e:	489a      	ldr	r0, [pc, #616]	; (988 <main+0x688>)
     720:	f009 f944 	bl	99ac <printf>
     724:	489c      	ldr	r0, [pc, #624]	; (998 <main+0x698>)
     726:	f009 f941 	bl	99ac <printf>
     72a:	489c      	ldr	r0, [pc, #624]	; (99c <main+0x69c>)
     72c:	f009 f93e 	bl	99ac <printf>
     730:	4628      	mov	r0, r5
     732:	f003 fe53 	bl	43dc <Chip_TIMER_Reset>
     736:	2210      	movs	r2, #16
     738:	606f      	str	r7, [r5, #4]
     73a:	4999      	ldr	r1, [pc, #612]	; (9a0 <main+0x6a0>)
     73c:	488f      	ldr	r0, [pc, #572]	; (97c <main+0x67c>)
     73e:	f008 f83d 	bl	87bc <arm_cmplx_mag_f32>
     742:	606e      	str	r6, [r5, #4]
     744:	68a9      	ldr	r1, [r5, #8]
     746:	488f      	ldr	r0, [pc, #572]	; (984 <main+0x684>)
     748:	1b09      	subs	r1, r1, r4
     74a:	f009 f92f 	bl	99ac <printf>
     74e:	488e      	ldr	r0, [pc, #568]	; (988 <main+0x688>)
     750:	f009 f92c 	bl	99ac <printf>
     754:	4628      	mov	r0, r5
     756:	f003 fe41 	bl	43dc <Chip_TIMER_Reset>
     75a:	2220      	movs	r2, #32
     75c:	606f      	str	r7, [r5, #4]
     75e:	4990      	ldr	r1, [pc, #576]	; (9a0 <main+0x6a0>)
     760:	4886      	ldr	r0, [pc, #536]	; (97c <main+0x67c>)
     762:	f008 f82b 	bl	87bc <arm_cmplx_mag_f32>
     766:	606e      	str	r6, [r5, #4]
     768:	68a9      	ldr	r1, [r5, #8]
     76a:	4886      	ldr	r0, [pc, #536]	; (984 <main+0x684>)
     76c:	1b09      	subs	r1, r1, r4
     76e:	f009 f91d 	bl	99ac <printf>
     772:	4885      	ldr	r0, [pc, #532]	; (988 <main+0x688>)
     774:	f009 f91a 	bl	99ac <printf>
     778:	4628      	mov	r0, r5
     77a:	f003 fe2f 	bl	43dc <Chip_TIMER_Reset>
     77e:	2240      	movs	r2, #64	; 0x40
     780:	606f      	str	r7, [r5, #4]
     782:	4987      	ldr	r1, [pc, #540]	; (9a0 <main+0x6a0>)
     784:	487d      	ldr	r0, [pc, #500]	; (97c <main+0x67c>)
     786:	f008 f819 	bl	87bc <arm_cmplx_mag_f32>
     78a:	606e      	str	r6, [r5, #4]
     78c:	68a9      	ldr	r1, [r5, #8]
     78e:	487d      	ldr	r0, [pc, #500]	; (984 <main+0x684>)
     790:	1b09      	subs	r1, r1, r4
     792:	f009 f90b 	bl	99ac <printf>
     796:	487c      	ldr	r0, [pc, #496]	; (988 <main+0x688>)
     798:	f009 f908 	bl	99ac <printf>
     79c:	4628      	mov	r0, r5
     79e:	f003 fe1d 	bl	43dc <Chip_TIMER_Reset>
     7a2:	2280      	movs	r2, #128	; 0x80
     7a4:	606f      	str	r7, [r5, #4]
     7a6:	497e      	ldr	r1, [pc, #504]	; (9a0 <main+0x6a0>)
     7a8:	4874      	ldr	r0, [pc, #464]	; (97c <main+0x67c>)
     7aa:	f008 f807 	bl	87bc <arm_cmplx_mag_f32>
     7ae:	606e      	str	r6, [r5, #4]
     7b0:	68a9      	ldr	r1, [r5, #8]
     7b2:	4874      	ldr	r0, [pc, #464]	; (984 <main+0x684>)
     7b4:	1b09      	subs	r1, r1, r4
     7b6:	f009 f8f9 	bl	99ac <printf>
     7ba:	4873      	ldr	r0, [pc, #460]	; (988 <main+0x688>)
     7bc:	f009 f8f6 	bl	99ac <printf>
     7c0:	4628      	mov	r0, r5
     7c2:	f003 fe0b 	bl	43dc <Chip_TIMER_Reset>
     7c6:	f44f 7280 	mov.w	r2, #256	; 0x100
     7ca:	606f      	str	r7, [r5, #4]
     7cc:	4974      	ldr	r1, [pc, #464]	; (9a0 <main+0x6a0>)
     7ce:	486b      	ldr	r0, [pc, #428]	; (97c <main+0x67c>)
     7d0:	f007 fff4 	bl	87bc <arm_cmplx_mag_f32>
     7d4:	606e      	str	r6, [r5, #4]
     7d6:	68a9      	ldr	r1, [r5, #8]
     7d8:	486a      	ldr	r0, [pc, #424]	; (984 <main+0x684>)
     7da:	1b09      	subs	r1, r1, r4
     7dc:	f009 f8e6 	bl	99ac <printf>
     7e0:	4869      	ldr	r0, [pc, #420]	; (988 <main+0x688>)
     7e2:	f009 f8e3 	bl	99ac <printf>
     7e6:	4628      	mov	r0, r5
     7e8:	f003 fdf8 	bl	43dc <Chip_TIMER_Reset>
     7ec:	f44f 7200 	mov.w	r2, #512	; 0x200
     7f0:	606f      	str	r7, [r5, #4]
     7f2:	496b      	ldr	r1, [pc, #428]	; (9a0 <main+0x6a0>)
     7f4:	4861      	ldr	r0, [pc, #388]	; (97c <main+0x67c>)
     7f6:	f007 ffe1 	bl	87bc <arm_cmplx_mag_f32>
     7fa:	606e      	str	r6, [r5, #4]
     7fc:	68a9      	ldr	r1, [r5, #8]
     7fe:	4861      	ldr	r0, [pc, #388]	; (984 <main+0x684>)
     800:	1b09      	subs	r1, r1, r4
     802:	f009 f8d3 	bl	99ac <printf>
     806:	4860      	ldr	r0, [pc, #384]	; (988 <main+0x688>)
     808:	f009 f8d0 	bl	99ac <printf>
     80c:	4628      	mov	r0, r5
     80e:	f003 fde5 	bl	43dc <Chip_TIMER_Reset>
     812:	f44f 6280 	mov.w	r2, #1024	; 0x400
     816:	606f      	str	r7, [r5, #4]
     818:	4961      	ldr	r1, [pc, #388]	; (9a0 <main+0x6a0>)
     81a:	4858      	ldr	r0, [pc, #352]	; (97c <main+0x67c>)
     81c:	f007 ffce 	bl	87bc <arm_cmplx_mag_f32>
     820:	606e      	str	r6, [r5, #4]
     822:	68a9      	ldr	r1, [r5, #8]
     824:	4857      	ldr	r0, [pc, #348]	; (984 <main+0x684>)
     826:	1b09      	subs	r1, r1, r4
     828:	f009 f8c0 	bl	99ac <printf>
     82c:	4856      	ldr	r0, [pc, #344]	; (988 <main+0x688>)
     82e:	f009 f8bd 	bl	99ac <printf>
     832:	4628      	mov	r0, r5
     834:	f003 fdd2 	bl	43dc <Chip_TIMER_Reset>
     838:	f44f 6200 	mov.w	r2, #2048	; 0x800
     83c:	606f      	str	r7, [r5, #4]
     83e:	4958      	ldr	r1, [pc, #352]	; (9a0 <main+0x6a0>)
     840:	484e      	ldr	r0, [pc, #312]	; (97c <main+0x67c>)
     842:	f007 ffbb 	bl	87bc <arm_cmplx_mag_f32>
     846:	606e      	str	r6, [r5, #4]
     848:	68a9      	ldr	r1, [r5, #8]
     84a:	484e      	ldr	r0, [pc, #312]	; (984 <main+0x684>)
     84c:	1b09      	subs	r1, r1, r4
     84e:	f009 f8ad 	bl	99ac <printf>
     852:	484d      	ldr	r0, [pc, #308]	; (988 <main+0x688>)
     854:	f009 f8aa 	bl	99ac <printf>
     858:	4628      	mov	r0, r5
     85a:	f003 fdbf 	bl	43dc <Chip_TIMER_Reset>
     85e:	f44f 5280 	mov.w	r2, #4096	; 0x1000
     862:	606f      	str	r7, [r5, #4]
     864:	494e      	ldr	r1, [pc, #312]	; (9a0 <main+0x6a0>)
     866:	4845      	ldr	r0, [pc, #276]	; (97c <main+0x67c>)
     868:	f007 ffa8 	bl	87bc <arm_cmplx_mag_f32>
     86c:	606e      	str	r6, [r5, #4]
     86e:	68a9      	ldr	r1, [r5, #8]
     870:	4844      	ldr	r0, [pc, #272]	; (984 <main+0x684>)
     872:	1b09      	subs	r1, r1, r4
     874:	f009 f89a 	bl	99ac <printf>
     878:	4843      	ldr	r0, [pc, #268]	; (988 <main+0x688>)
     87a:	f009 f897 	bl	99ac <printf>
     87e:	4846      	ldr	r0, [pc, #280]	; (998 <main+0x698>)
     880:	f009 f894 	bl	99ac <printf>
     884:	4847      	ldr	r0, [pc, #284]	; (9a4 <main+0x6a4>)
     886:	f009 f891 	bl	99ac <printf>
     88a:	4628      	mov	r0, r5
     88c:	f003 fda6 	bl	43dc <Chip_TIMER_Reset>
     890:	2210      	movs	r2, #16
     892:	606f      	str	r7, [r5, #4]
     894:	4942      	ldr	r1, [pc, #264]	; (9a0 <main+0x6a0>)
     896:	4839      	ldr	r0, [pc, #228]	; (97c <main+0x67c>)
     898:	f008 f8fa 	bl	8a90 <arm_cmplx_mag_squared_f32>
     89c:	606e      	str	r6, [r5, #4]
     89e:	68a9      	ldr	r1, [r5, #8]
     8a0:	4838      	ldr	r0, [pc, #224]	; (984 <main+0x684>)
     8a2:	1b09      	subs	r1, r1, r4
     8a4:	f009 f882 	bl	99ac <printf>
     8a8:	4837      	ldr	r0, [pc, #220]	; (988 <main+0x688>)
     8aa:	f009 f87f 	bl	99ac <printf>
     8ae:	4628      	mov	r0, r5
     8b0:	f003 fd94 	bl	43dc <Chip_TIMER_Reset>
     8b4:	2220      	movs	r2, #32
     8b6:	606f      	str	r7, [r5, #4]
     8b8:	4939      	ldr	r1, [pc, #228]	; (9a0 <main+0x6a0>)
     8ba:	4830      	ldr	r0, [pc, #192]	; (97c <main+0x67c>)
     8bc:	f008 f8e8 	bl	8a90 <arm_cmplx_mag_squared_f32>
     8c0:	606e      	str	r6, [r5, #4]
     8c2:	68a9      	ldr	r1, [r5, #8]
     8c4:	482f      	ldr	r0, [pc, #188]	; (984 <main+0x684>)
     8c6:	1b09      	subs	r1, r1, r4
     8c8:	f009 f870 	bl	99ac <printf>
     8cc:	482e      	ldr	r0, [pc, #184]	; (988 <main+0x688>)
     8ce:	f009 f86d 	bl	99ac <printf>
     8d2:	4628      	mov	r0, r5
     8d4:	f003 fd82 	bl	43dc <Chip_TIMER_Reset>
     8d8:	2240      	movs	r2, #64	; 0x40
     8da:	606f      	str	r7, [r5, #4]
     8dc:	4930      	ldr	r1, [pc, #192]	; (9a0 <main+0x6a0>)
     8de:	4827      	ldr	r0, [pc, #156]	; (97c <main+0x67c>)
     8e0:	f008 f8d6 	bl	8a90 <arm_cmplx_mag_squared_f32>
     8e4:	606e      	str	r6, [r5, #4]
     8e6:	68a9      	ldr	r1, [r5, #8]
     8e8:	4826      	ldr	r0, [pc, #152]	; (984 <main+0x684>)
     8ea:	1b09      	subs	r1, r1, r4
     8ec:	f009 f85e 	bl	99ac <printf>
     8f0:	4825      	ldr	r0, [pc, #148]	; (988 <main+0x688>)
     8f2:	f009 f85b 	bl	99ac <printf>
     8f6:	4628      	mov	r0, r5
     8f8:	f003 fd70 	bl	43dc <Chip_TIMER_Reset>
     8fc:	2280      	movs	r2, #128	; 0x80
     8fe:	606f      	str	r7, [r5, #4]
     900:	4927      	ldr	r1, [pc, #156]	; (9a0 <main+0x6a0>)
     902:	481e      	ldr	r0, [pc, #120]	; (97c <main+0x67c>)
     904:	f008 f8c4 	bl	8a90 <arm_cmplx_mag_squared_f32>
     908:	606e      	str	r6, [r5, #4]
     90a:	68a9      	ldr	r1, [r5, #8]
     90c:	481d      	ldr	r0, [pc, #116]	; (984 <main+0x684>)
     90e:	1b09      	subs	r1, r1, r4
     910:	f009 f84c 	bl	99ac <printf>
     914:	481c      	ldr	r0, [pc, #112]	; (988 <main+0x688>)
     916:	f009 f849 	bl	99ac <printf>
     91a:	4628      	mov	r0, r5
     91c:	f003 fd5e 	bl	43dc <Chip_TIMER_Reset>
     920:	f44f 7280 	mov.w	r2, #256	; 0x100
     924:	606f      	str	r7, [r5, #4]
     926:	491e      	ldr	r1, [pc, #120]	; (9a0 <main+0x6a0>)
     928:	4814      	ldr	r0, [pc, #80]	; (97c <main+0x67c>)
     92a:	f008 f8b1 	bl	8a90 <arm_cmplx_mag_squared_f32>
     92e:	606e      	str	r6, [r5, #4]
     930:	68a9      	ldr	r1, [r5, #8]
     932:	4814      	ldr	r0, [pc, #80]	; (984 <main+0x684>)
     934:	1b09      	subs	r1, r1, r4
     936:	f009 f839 	bl	99ac <printf>
     93a:	4813      	ldr	r0, [pc, #76]	; (988 <main+0x688>)
     93c:	f009 f836 	bl	99ac <printf>
     940:	4628      	mov	r0, r5
     942:	f003 fd4b 	bl	43dc <Chip_TIMER_Reset>
     946:	f44f 7200 	mov.w	r2, #512	; 0x200
     94a:	606f      	str	r7, [r5, #4]
     94c:	4914      	ldr	r1, [pc, #80]	; (9a0 <main+0x6a0>)
     94e:	480b      	ldr	r0, [pc, #44]	; (97c <main+0x67c>)
     950:	f008 f89e 	bl	8a90 <arm_cmplx_mag_squared_f32>
     954:	606e      	str	r6, [r5, #4]
     956:	68a9      	ldr	r1, [r5, #8]
     958:	480a      	ldr	r0, [pc, #40]	; (984 <main+0x684>)
     95a:	1b09      	subs	r1, r1, r4
     95c:	f009 f826 	bl	99ac <printf>
     960:	4809      	ldr	r0, [pc, #36]	; (988 <main+0x688>)
     962:	f009 f823 	bl	99ac <printf>
     966:	4628      	mov	r0, r5
     968:	f003 fd38 	bl	43dc <Chip_TIMER_Reset>
     96c:	f44f 6280 	mov.w	r2, #1024	; 0x400
     970:	606f      	str	r7, [r5, #4]
     972:	490b      	ldr	r1, [pc, #44]	; (9a0 <main+0x6a0>)
     974:	4801      	ldr	r0, [pc, #4]	; (97c <main+0x67c>)
     976:	f008 f88b 	bl	8a90 <arm_cmplx_mag_squared_f32>
     97a:	e015      	b.n	9a8 <main+0x6a8>
     97c:	200023fc 	.word	0x200023fc
     980:	0000c000 	.word	0x0000c000
     984:	0000bb78 	.word	0x0000bb78
     988:	0000bcd8 	.word	0x0000bcd8
     98c:	0000bf70 	.word	0x0000bf70
     990:	0000bef0 	.word	0x0000bef0
     994:	0000c020 	.word	0x0000c020
     998:	0000bb10 	.word	0x0000bb10
     99c:	0000bb94 	.word	0x0000bb94
     9a0:	20006508 	.word	0x20006508
     9a4:	0000bba4 	.word	0x0000bba4
     9a8:	606e      	str	r6, [r5, #4]
     9aa:	68a9      	ldr	r1, [r5, #8]
     9ac:	48c7      	ldr	r0, [pc, #796]	; (ccc <main+0x9cc>)
     9ae:	1b09      	subs	r1, r1, r4
     9b0:	f008 fffc 	bl	99ac <printf>
     9b4:	48c6      	ldr	r0, [pc, #792]	; (cd0 <main+0x9d0>)
     9b6:	f008 fff9 	bl	99ac <printf>
     9ba:	4628      	mov	r0, r5
     9bc:	f003 fd0e 	bl	43dc <Chip_TIMER_Reset>
     9c0:	f44f 6200 	mov.w	r2, #2048	; 0x800
     9c4:	606f      	str	r7, [r5, #4]
     9c6:	49c3      	ldr	r1, [pc, #780]	; (cd4 <main+0x9d4>)
     9c8:	48c3      	ldr	r0, [pc, #780]	; (cd8 <main+0x9d8>)
     9ca:	f008 f861 	bl	8a90 <arm_cmplx_mag_squared_f32>
     9ce:	606e      	str	r6, [r5, #4]
     9d0:	68a9      	ldr	r1, [r5, #8]
     9d2:	48be      	ldr	r0, [pc, #760]	; (ccc <main+0x9cc>)
     9d4:	1b09      	subs	r1, r1, r4
     9d6:	f008 ffe9 	bl	99ac <printf>
     9da:	48bd      	ldr	r0, [pc, #756]	; (cd0 <main+0x9d0>)
     9dc:	f008 ffe6 	bl	99ac <printf>
     9e0:	4628      	mov	r0, r5
     9e2:	f003 fcfb 	bl	43dc <Chip_TIMER_Reset>
     9e6:	f44f 5280 	mov.w	r2, #4096	; 0x1000
     9ea:	606f      	str	r7, [r5, #4]
     9ec:	49b9      	ldr	r1, [pc, #740]	; (cd4 <main+0x9d4>)
     9ee:	48ba      	ldr	r0, [pc, #744]	; (cd8 <main+0x9d8>)
     9f0:	f008 f84e 	bl	8a90 <arm_cmplx_mag_squared_f32>
     9f4:	606e      	str	r6, [r5, #4]
     9f6:	68a9      	ldr	r1, [r5, #8]
     9f8:	48b4      	ldr	r0, [pc, #720]	; (ccc <main+0x9cc>)
     9fa:	1b09      	subs	r1, r1, r4
     9fc:	f008 ffd6 	bl	99ac <printf>
     a00:	48b3      	ldr	r0, [pc, #716]	; (cd0 <main+0x9d0>)
     a02:	f008 ffd3 	bl	99ac <printf>
     a06:	48b5      	ldr	r0, [pc, #724]	; (cdc <main+0x9dc>)
     a08:	f008 ffd0 	bl	99ac <printf>
     a0c:	eddf 0ab4 	vldr	s1, [pc, #720]	; ce0 <main+0x9e0>
     a10:	ed9f 0ab4 	vldr	s0, [pc, #720]	; ce4 <main+0x9e4>
     a14:	2120      	movs	r1, #32
     a16:	4640      	mov	r0, r8
     a18:	f002 fc92 	bl	3340 <InitGoertzel_f32>
     a1c:	48b2      	ldr	r0, [pc, #712]	; (ce8 <main+0x9e8>)
     a1e:	f008 ffc5 	bl	99ac <printf>
     a22:	2310      	movs	r3, #16
     a24:	4628      	mov	r0, r5
     a26:	f8c8 3008 	str.w	r3, [r8, #8]
     a2a:	f003 fcd7 	bl	43dc <Chip_TIMER_Reset>
     a2e:	4640      	mov	r0, r8
     a30:	606f      	str	r7, [r5, #4]
     a32:	49a9      	ldr	r1, [pc, #676]	; (cd8 <main+0x9d8>)
     a34:	f002 fca4 	bl	3380 <ProcessGoertzel_f32_Power>
     a38:	ed8d 0a07 	vstr	s0, [sp, #28]
     a3c:	606e      	str	r6, [r5, #4]
     a3e:	68a9      	ldr	r1, [r5, #8]
     a40:	48a2      	ldr	r0, [pc, #648]	; (ccc <main+0x9cc>)
     a42:	1b09      	subs	r1, r1, r4
     a44:	f008 ffb2 	bl	99ac <printf>
     a48:	48a1      	ldr	r0, [pc, #644]	; (cd0 <main+0x9d0>)
     a4a:	f008 ffaf 	bl	99ac <printf>
     a4e:	eddd 7a07 	vldr	s15, [sp, #28]
     a52:	ee77 7aa7 	vadd.f32	s15, s15, s15
     a56:	2320      	movs	r3, #32
     a58:	4628      	mov	r0, r5
     a5a:	f8c8 3008 	str.w	r3, [r8, #8]
     a5e:	edcd 7a07 	vstr	s15, [sp, #28]
     a62:	f003 fcbb 	bl	43dc <Chip_TIMER_Reset>
     a66:	4640      	mov	r0, r8
     a68:	606f      	str	r7, [r5, #4]
     a6a:	499b      	ldr	r1, [pc, #620]	; (cd8 <main+0x9d8>)
     a6c:	f002 fc88 	bl	3380 <ProcessGoertzel_f32_Power>
     a70:	ed8d 0a07 	vstr	s0, [sp, #28]
     a74:	606e      	str	r6, [r5, #4]
     a76:	68a9      	ldr	r1, [r5, #8]
     a78:	4894      	ldr	r0, [pc, #592]	; (ccc <main+0x9cc>)
     a7a:	1b09      	subs	r1, r1, r4
     a7c:	f008 ff96 	bl	99ac <printf>
     a80:	4893      	ldr	r0, [pc, #588]	; (cd0 <main+0x9d0>)
     a82:	f008 ff93 	bl	99ac <printf>
     a86:	eddd 7a07 	vldr	s15, [sp, #28]
     a8a:	ee77 7aa7 	vadd.f32	s15, s15, s15
     a8e:	2340      	movs	r3, #64	; 0x40
     a90:	4628      	mov	r0, r5
     a92:	f8c8 3008 	str.w	r3, [r8, #8]
     a96:	edcd 7a07 	vstr	s15, [sp, #28]
     a9a:	f003 fc9f 	bl	43dc <Chip_TIMER_Reset>
     a9e:	4640      	mov	r0, r8
     aa0:	606f      	str	r7, [r5, #4]
     aa2:	498d      	ldr	r1, [pc, #564]	; (cd8 <main+0x9d8>)
     aa4:	f002 fc6c 	bl	3380 <ProcessGoertzel_f32_Power>
     aa8:	ed8d 0a07 	vstr	s0, [sp, #28]
     aac:	606e      	str	r6, [r5, #4]
     aae:	68a9      	ldr	r1, [r5, #8]
     ab0:	4886      	ldr	r0, [pc, #536]	; (ccc <main+0x9cc>)
     ab2:	1b09      	subs	r1, r1, r4
     ab4:	f008 ff7a 	bl	99ac <printf>
     ab8:	4885      	ldr	r0, [pc, #532]	; (cd0 <main+0x9d0>)
     aba:	f008 ff77 	bl	99ac <printf>
     abe:	eddd 7a07 	vldr	s15, [sp, #28]
     ac2:	ee77 7aa7 	vadd.f32	s15, s15, s15
     ac6:	2380      	movs	r3, #128	; 0x80
     ac8:	4628      	mov	r0, r5
     aca:	f8c8 3008 	str.w	r3, [r8, #8]
     ace:	edcd 7a07 	vstr	s15, [sp, #28]
     ad2:	f003 fc83 	bl	43dc <Chip_TIMER_Reset>
     ad6:	4640      	mov	r0, r8
     ad8:	606f      	str	r7, [r5, #4]
     ada:	497f      	ldr	r1, [pc, #508]	; (cd8 <main+0x9d8>)
     adc:	f002 fc50 	bl	3380 <ProcessGoertzel_f32_Power>
     ae0:	ed8d 0a07 	vstr	s0, [sp, #28]
     ae4:	606e      	str	r6, [r5, #4]
     ae6:	68a9      	ldr	r1, [r5, #8]
     ae8:	4878      	ldr	r0, [pc, #480]	; (ccc <main+0x9cc>)
     aea:	1b09      	subs	r1, r1, r4
     aec:	f008 ff5e 	bl	99ac <printf>
     af0:	4877      	ldr	r0, [pc, #476]	; (cd0 <main+0x9d0>)
     af2:	f008 ff5b 	bl	99ac <printf>
     af6:	eddd 7a07 	vldr	s15, [sp, #28]
     afa:	ee77 7aa7 	vadd.f32	s15, s15, s15
     afe:	f44f 7380 	mov.w	r3, #256	; 0x100
     b02:	4628      	mov	r0, r5
     b04:	f8c8 3008 	str.w	r3, [r8, #8]
     b08:	edcd 7a07 	vstr	s15, [sp, #28]
     b0c:	f003 fc66 	bl	43dc <Chip_TIMER_Reset>
     b10:	4640      	mov	r0, r8
     b12:	606f      	str	r7, [r5, #4]
     b14:	4970      	ldr	r1, [pc, #448]	; (cd8 <main+0x9d8>)
     b16:	f002 fc33 	bl	3380 <ProcessGoertzel_f32_Power>
     b1a:	ed8d 0a07 	vstr	s0, [sp, #28]
     b1e:	606e      	str	r6, [r5, #4]
     b20:	68a9      	ldr	r1, [r5, #8]
     b22:	486a      	ldr	r0, [pc, #424]	; (ccc <main+0x9cc>)
     b24:	1b09      	subs	r1, r1, r4
     b26:	f008 ff41 	bl	99ac <printf>
     b2a:	4869      	ldr	r0, [pc, #420]	; (cd0 <main+0x9d0>)
     b2c:	f008 ff3e 	bl	99ac <printf>
     b30:	eddd 7a07 	vldr	s15, [sp, #28]
     b34:	ee77 7aa7 	vadd.f32	s15, s15, s15
     b38:	f44f 7300 	mov.w	r3, #512	; 0x200
     b3c:	4628      	mov	r0, r5
     b3e:	f8c8 3008 	str.w	r3, [r8, #8]
     b42:	edcd 7a07 	vstr	s15, [sp, #28]
     b46:	f003 fc49 	bl	43dc <Chip_TIMER_Reset>
     b4a:	4640      	mov	r0, r8
     b4c:	606f      	str	r7, [r5, #4]
     b4e:	4962      	ldr	r1, [pc, #392]	; (cd8 <main+0x9d8>)
     b50:	f002 fc16 	bl	3380 <ProcessGoertzel_f32_Power>
     b54:	ed8d 0a07 	vstr	s0, [sp, #28]
     b58:	606e      	str	r6, [r5, #4]
     b5a:	68a9      	ldr	r1, [r5, #8]
     b5c:	485b      	ldr	r0, [pc, #364]	; (ccc <main+0x9cc>)
     b5e:	1b09      	subs	r1, r1, r4
     b60:	f008 ff24 	bl	99ac <printf>
     b64:	485a      	ldr	r0, [pc, #360]	; (cd0 <main+0x9d0>)
     b66:	f008 ff21 	bl	99ac <printf>
     b6a:	eddd 7a07 	vldr	s15, [sp, #28]
     b6e:	ee77 7aa7 	vadd.f32	s15, s15, s15
     b72:	f44f 6380 	mov.w	r3, #1024	; 0x400
     b76:	4628      	mov	r0, r5
     b78:	f8c8 3008 	str.w	r3, [r8, #8]
     b7c:	edcd 7a07 	vstr	s15, [sp, #28]
     b80:	f003 fc2c 	bl	43dc <Chip_TIMER_Reset>
     b84:	4640      	mov	r0, r8
     b86:	606f      	str	r7, [r5, #4]
     b88:	4953      	ldr	r1, [pc, #332]	; (cd8 <main+0x9d8>)
     b8a:	f002 fbf9 	bl	3380 <ProcessGoertzel_f32_Power>
     b8e:	ed8d 0a07 	vstr	s0, [sp, #28]
     b92:	606e      	str	r6, [r5, #4]
     b94:	68a9      	ldr	r1, [r5, #8]
     b96:	484d      	ldr	r0, [pc, #308]	; (ccc <main+0x9cc>)
     b98:	1b09      	subs	r1, r1, r4
     b9a:	f008 ff07 	bl	99ac <printf>
     b9e:	484c      	ldr	r0, [pc, #304]	; (cd0 <main+0x9d0>)
     ba0:	f008 ff04 	bl	99ac <printf>
     ba4:	eddd 7a07 	vldr	s15, [sp, #28]
     ba8:	ee77 7aa7 	vadd.f32	s15, s15, s15
     bac:	f44f 6900 	mov.w	r9, #2048	; 0x800
     bb0:	4628      	mov	r0, r5
     bb2:	edcd 7a07 	vstr	s15, [sp, #28]
     bb6:	f8c8 9008 	str.w	r9, [r8, #8]
     bba:	f003 fc0f 	bl	43dc <Chip_TIMER_Reset>
     bbe:	4640      	mov	r0, r8
     bc0:	606f      	str	r7, [r5, #4]
     bc2:	4945      	ldr	r1, [pc, #276]	; (cd8 <main+0x9d8>)
     bc4:	f002 fbdc 	bl	3380 <ProcessGoertzel_f32_Power>
     bc8:	ed8d 0a07 	vstr	s0, [sp, #28]
     bcc:	606e      	str	r6, [r5, #4]
     bce:	68a9      	ldr	r1, [r5, #8]
     bd0:	483e      	ldr	r0, [pc, #248]	; (ccc <main+0x9cc>)
     bd2:	1b09      	subs	r1, r1, r4
     bd4:	f008 feea 	bl	99ac <printf>
     bd8:	483d      	ldr	r0, [pc, #244]	; (cd0 <main+0x9d0>)
     bda:	f008 fee7 	bl	99ac <printf>
     bde:	eddd 7a07 	vldr	s15, [sp, #28]
     be2:	ee77 7aa7 	vadd.f32	s15, s15, s15
     be6:	f44f 5380 	mov.w	r3, #4096	; 0x1000
     bea:	4628      	mov	r0, r5
     bec:	f8c8 3008 	str.w	r3, [r8, #8]
     bf0:	edcd 7a07 	vstr	s15, [sp, #28]
     bf4:	f003 fbf2 	bl	43dc <Chip_TIMER_Reset>
     bf8:	4640      	mov	r0, r8
     bfa:	606f      	str	r7, [r5, #4]
     bfc:	4936      	ldr	r1, [pc, #216]	; (cd8 <main+0x9d8>)
     bfe:	f8df 80d8 	ldr.w	r8, [pc, #216]	; cd8 <main+0x9d8>
     c02:	f002 fbbd 	bl	3380 <ProcessGoertzel_f32_Power>
     c06:	ed8d 0a07 	vstr	s0, [sp, #28]
     c0a:	606e      	str	r6, [r5, #4]
     c0c:	68a9      	ldr	r1, [r5, #8]
     c0e:	482f      	ldr	r0, [pc, #188]	; (ccc <main+0x9cc>)
     c10:	1b09      	subs	r1, r1, r4
     c12:	f008 fecb 	bl	99ac <printf>
     c16:	482e      	ldr	r0, [pc, #184]	; (cd0 <main+0x9d0>)
     c18:	f008 fec8 	bl	99ac <printf>
     c1c:	eddd 7a07 	vldr	s15, [sp, #28]
     c20:	482e      	ldr	r0, [pc, #184]	; (cdc <main+0x9dc>)
     c22:	ee77 7aa7 	vadd.f32	s15, s15, s15
     c26:	edcd 7a07 	vstr	s15, [sp, #28]
     c2a:	f008 febf 	bl	99ac <printf>
     c2e:	482f      	ldr	r0, [pc, #188]	; (cec <main+0x9ec>)
     c30:	f008 febc 	bl	99ac <printf>
     c34:	4639      	mov	r1, r7
     c36:	4b2e      	ldr	r3, [pc, #184]	; (cf0 <main+0x9f0>)
     c38:	4a2e      	ldr	r2, [pc, #184]	; (cf4 <main+0x9f4>)
     c3a:	482f      	ldr	r0, [pc, #188]	; (cf8 <main+0x9f8>)
     c3c:	f006 fe0c 	bl	7858 <arm_biquad_cascade_df1_init_f32>
     c40:	4628      	mov	r0, r5
     c42:	f003 fbcb 	bl	43dc <Chip_TIMER_Reset>
     c46:	2310      	movs	r3, #16
     c48:	4a22      	ldr	r2, [pc, #136]	; (cd4 <main+0x9d4>)
     c4a:	606f      	str	r7, [r5, #4]
     c4c:	4922      	ldr	r1, [pc, #136]	; (cd8 <main+0x9d8>)
     c4e:	482a      	ldr	r0, [pc, #168]	; (cf8 <main+0x9f8>)
     c50:	f006 faf4 	bl	723c <arm_biquad_cascade_df1_f32>
     c54:	606e      	str	r6, [r5, #4]
     c56:	68a9      	ldr	r1, [r5, #8]
     c58:	481c      	ldr	r0, [pc, #112]	; (ccc <main+0x9cc>)
     c5a:	1b09      	subs	r1, r1, r4
     c5c:	f008 fea6 	bl	99ac <printf>
     c60:	481b      	ldr	r0, [pc, #108]	; (cd0 <main+0x9d0>)
     c62:	f008 fea3 	bl	99ac <printf>
     c66:	4628      	mov	r0, r5
     c68:	f003 fbb8 	bl	43dc <Chip_TIMER_Reset>
     c6c:	2320      	movs	r3, #32
     c6e:	4a19      	ldr	r2, [pc, #100]	; (cd4 <main+0x9d4>)
     c70:	606f      	str	r7, [r5, #4]
     c72:	4919      	ldr	r1, [pc, #100]	; (cd8 <main+0x9d8>)
     c74:	4820      	ldr	r0, [pc, #128]	; (cf8 <main+0x9f8>)
     c76:	f006 fae1 	bl	723c <arm_biquad_cascade_df1_f32>
     c7a:	606e      	str	r6, [r5, #4]
     c7c:	68a9      	ldr	r1, [r5, #8]
     c7e:	4813      	ldr	r0, [pc, #76]	; (ccc <main+0x9cc>)
     c80:	1b09      	subs	r1, r1, r4
     c82:	f008 fe93 	bl	99ac <printf>
     c86:	4812      	ldr	r0, [pc, #72]	; (cd0 <main+0x9d0>)
     c88:	f008 fe90 	bl	99ac <printf>
     c8c:	4628      	mov	r0, r5
     c8e:	f003 fba5 	bl	43dc <Chip_TIMER_Reset>
     c92:	2340      	movs	r3, #64	; 0x40
     c94:	4a0f      	ldr	r2, [pc, #60]	; (cd4 <main+0x9d4>)
     c96:	606f      	str	r7, [r5, #4]
     c98:	490f      	ldr	r1, [pc, #60]	; (cd8 <main+0x9d8>)
     c9a:	4817      	ldr	r0, [pc, #92]	; (cf8 <main+0x9f8>)
     c9c:	f006 face 	bl	723c <arm_biquad_cascade_df1_f32>
     ca0:	606e      	str	r6, [r5, #4]
     ca2:	68a9      	ldr	r1, [r5, #8]
     ca4:	4809      	ldr	r0, [pc, #36]	; (ccc <main+0x9cc>)
     ca6:	1b09      	subs	r1, r1, r4
     ca8:	f008 fe80 	bl	99ac <printf>
     cac:	4808      	ldr	r0, [pc, #32]	; (cd0 <main+0x9d0>)
     cae:	f008 fe7d 	bl	99ac <printf>
     cb2:	4628      	mov	r0, r5
     cb4:	f003 fb92 	bl	43dc <Chip_TIMER_Reset>
     cb8:	2380      	movs	r3, #128	; 0x80
     cba:	4a06      	ldr	r2, [pc, #24]	; (cd4 <main+0x9d4>)
     cbc:	606f      	str	r7, [r5, #4]
     cbe:	4906      	ldr	r1, [pc, #24]	; (cd8 <main+0x9d8>)
     cc0:	480d      	ldr	r0, [pc, #52]	; (cf8 <main+0x9f8>)
     cc2:	f006 fabb 	bl	723c <arm_biquad_cascade_df1_f32>
     cc6:	606e      	str	r6, [r5, #4]
     cc8:	68a9      	ldr	r1, [r5, #8]
     cca:	e017      	b.n	cfc <main+0x9fc>
     ccc:	0000bb78 	.word	0x0000bb78
     cd0:	0000bcd8 	.word	0x0000bcd8
     cd4:	20006508 	.word	0x20006508
     cd8:	200023fc 	.word	0x200023fc
     cdc:	0000bb10 	.word	0x0000bb10
     ce0:	49742400 	.word	0x49742400
     ce4:	482fc800 	.word	0x482fc800
     ce8:	0000bbbc 	.word	0x0000bbbc
     cec:	0000bbcc 	.word	0x0000bbcc
     cf0:	20000128 	.word	0x20000128
     cf4:	20000000 	.word	0x20000000
     cf8:	2000a508 	.word	0x2000a508
     cfc:	48b4      	ldr	r0, [pc, #720]	; (fd0 <main+0xcd0>)
     cfe:	1b09      	subs	r1, r1, r4
     d00:	f008 fe54 	bl	99ac <printf>
     d04:	48b3      	ldr	r0, [pc, #716]	; (fd4 <main+0xcd4>)
     d06:	f008 fe51 	bl	99ac <printf>
     d0a:	4628      	mov	r0, r5
     d0c:	f003 fb66 	bl	43dc <Chip_TIMER_Reset>
     d10:	f44f 7380 	mov.w	r3, #256	; 0x100
     d14:	4ab0      	ldr	r2, [pc, #704]	; (fd8 <main+0xcd8>)
     d16:	606f      	str	r7, [r5, #4]
     d18:	49b0      	ldr	r1, [pc, #704]	; (fdc <main+0xcdc>)
     d1a:	48b1      	ldr	r0, [pc, #708]	; (fe0 <main+0xce0>)
     d1c:	f006 fa8e 	bl	723c <arm_biquad_cascade_df1_f32>
     d20:	606e      	str	r6, [r5, #4]
     d22:	68a9      	ldr	r1, [r5, #8]
     d24:	48aa      	ldr	r0, [pc, #680]	; (fd0 <main+0xcd0>)
     d26:	1b09      	subs	r1, r1, r4
     d28:	f008 fe40 	bl	99ac <printf>
     d2c:	48a9      	ldr	r0, [pc, #676]	; (fd4 <main+0xcd4>)
     d2e:	f008 fe3d 	bl	99ac <printf>
     d32:	4628      	mov	r0, r5
     d34:	f003 fb52 	bl	43dc <Chip_TIMER_Reset>
     d38:	f44f 7300 	mov.w	r3, #512	; 0x200
     d3c:	4aa6      	ldr	r2, [pc, #664]	; (fd8 <main+0xcd8>)
     d3e:	606f      	str	r7, [r5, #4]
     d40:	49a6      	ldr	r1, [pc, #664]	; (fdc <main+0xcdc>)
     d42:	48a7      	ldr	r0, [pc, #668]	; (fe0 <main+0xce0>)
     d44:	f006 fa7a 	bl	723c <arm_biquad_cascade_df1_f32>
     d48:	606e      	str	r6, [r5, #4]
     d4a:	68a9      	ldr	r1, [r5, #8]
     d4c:	48a0      	ldr	r0, [pc, #640]	; (fd0 <main+0xcd0>)
     d4e:	1b09      	subs	r1, r1, r4
     d50:	f008 fe2c 	bl	99ac <printf>
     d54:	489f      	ldr	r0, [pc, #636]	; (fd4 <main+0xcd4>)
     d56:	f008 fe29 	bl	99ac <printf>
     d5a:	4628      	mov	r0, r5
     d5c:	f003 fb3e 	bl	43dc <Chip_TIMER_Reset>
     d60:	f44f 6380 	mov.w	r3, #1024	; 0x400
     d64:	4a9c      	ldr	r2, [pc, #624]	; (fd8 <main+0xcd8>)
     d66:	606f      	str	r7, [r5, #4]
     d68:	499c      	ldr	r1, [pc, #624]	; (fdc <main+0xcdc>)
     d6a:	489d      	ldr	r0, [pc, #628]	; (fe0 <main+0xce0>)
     d6c:	f006 fa66 	bl	723c <arm_biquad_cascade_df1_f32>
     d70:	606e      	str	r6, [r5, #4]
     d72:	68a9      	ldr	r1, [r5, #8]
     d74:	4896      	ldr	r0, [pc, #600]	; (fd0 <main+0xcd0>)
     d76:	1b09      	subs	r1, r1, r4
     d78:	f008 fe18 	bl	99ac <printf>
     d7c:	4895      	ldr	r0, [pc, #596]	; (fd4 <main+0xcd4>)
     d7e:	f008 fe15 	bl	99ac <printf>
     d82:	4628      	mov	r0, r5
     d84:	f003 fb2a 	bl	43dc <Chip_TIMER_Reset>
     d88:	464b      	mov	r3, r9
     d8a:	4a93      	ldr	r2, [pc, #588]	; (fd8 <main+0xcd8>)
     d8c:	606f      	str	r7, [r5, #4]
     d8e:	4993      	ldr	r1, [pc, #588]	; (fdc <main+0xcdc>)
     d90:	4893      	ldr	r0, [pc, #588]	; (fe0 <main+0xce0>)
     d92:	f006 fa53 	bl	723c <arm_biquad_cascade_df1_f32>
     d96:	606e      	str	r6, [r5, #4]
     d98:	68a9      	ldr	r1, [r5, #8]
     d9a:	488d      	ldr	r0, [pc, #564]	; (fd0 <main+0xcd0>)
     d9c:	1b09      	subs	r1, r1, r4
     d9e:	f008 fe05 	bl	99ac <printf>
     da2:	488c      	ldr	r0, [pc, #560]	; (fd4 <main+0xcd4>)
     da4:	f008 fe02 	bl	99ac <printf>
     da8:	4628      	mov	r0, r5
     daa:	f003 fb17 	bl	43dc <Chip_TIMER_Reset>
     dae:	f44f 5380 	mov.w	r3, #4096	; 0x1000
     db2:	4a89      	ldr	r2, [pc, #548]	; (fd8 <main+0xcd8>)
     db4:	606f      	str	r7, [r5, #4]
     db6:	4989      	ldr	r1, [pc, #548]	; (fdc <main+0xcdc>)
     db8:	4889      	ldr	r0, [pc, #548]	; (fe0 <main+0xce0>)
     dba:	f006 fa3f 	bl	723c <arm_biquad_cascade_df1_f32>
     dbe:	606e      	str	r6, [r5, #4]
     dc0:	68a9      	ldr	r1, [r5, #8]
     dc2:	4883      	ldr	r0, [pc, #524]	; (fd0 <main+0xcd0>)
     dc4:	1b09      	subs	r1, r1, r4
     dc6:	f008 fdf1 	bl	99ac <printf>
     dca:	4882      	ldr	r0, [pc, #520]	; (fd4 <main+0xcd4>)
     dcc:	f008 fdee 	bl	99ac <printf>
     dd0:	4884      	ldr	r0, [pc, #528]	; (fe4 <main+0xce4>)
     dd2:	f008 fdeb 	bl	99ac <printf>
     dd6:	4884      	ldr	r0, [pc, #528]	; (fe8 <main+0xce8>)
     dd8:	f008 fde8 	bl	99ac <printf>
     ddc:	4639      	mov	r1, r7
     dde:	4b83      	ldr	r3, [pc, #524]	; (fec <main+0xcec>)
     de0:	4a83      	ldr	r2, [pc, #524]	; (ff0 <main+0xcf0>)
     de2:	487f      	ldr	r0, [pc, #508]	; (fe0 <main+0xce0>)
     de4:	f006 ffc4 	bl	7d70 <arm_biquad_cascade_df2T_init_f32>
     de8:	4628      	mov	r0, r5
     dea:	f003 faf7 	bl	43dc <Chip_TIMER_Reset>
     dee:	2310      	movs	r3, #16
     df0:	4a79      	ldr	r2, [pc, #484]	; (fd8 <main+0xcd8>)
     df2:	606f      	str	r7, [r5, #4]
     df4:	4979      	ldr	r1, [pc, #484]	; (fdc <main+0xcdc>)
     df6:	487a      	ldr	r0, [pc, #488]	; (fe0 <main+0xce0>)
     df8:	f006 ff0c 	bl	7c14 <arm_biquad_cascade_df2T_f32>
     dfc:	606e      	str	r6, [r5, #4]
     dfe:	68a9      	ldr	r1, [r5, #8]
     e00:	4873      	ldr	r0, [pc, #460]	; (fd0 <main+0xcd0>)
     e02:	1b09      	subs	r1, r1, r4
     e04:	f008 fdd2 	bl	99ac <printf>
     e08:	4872      	ldr	r0, [pc, #456]	; (fd4 <main+0xcd4>)
     e0a:	f008 fdcf 	bl	99ac <printf>
     e0e:	4628      	mov	r0, r5
     e10:	f003 fae4 	bl	43dc <Chip_TIMER_Reset>
     e14:	2320      	movs	r3, #32
     e16:	4a70      	ldr	r2, [pc, #448]	; (fd8 <main+0xcd8>)
     e18:	606f      	str	r7, [r5, #4]
     e1a:	4970      	ldr	r1, [pc, #448]	; (fdc <main+0xcdc>)
     e1c:	4870      	ldr	r0, [pc, #448]	; (fe0 <main+0xce0>)
     e1e:	f006 fef9 	bl	7c14 <arm_biquad_cascade_df2T_f32>
     e22:	606e      	str	r6, [r5, #4]
     e24:	68a9      	ldr	r1, [r5, #8]
     e26:	486a      	ldr	r0, [pc, #424]	; (fd0 <main+0xcd0>)
     e28:	1b09      	subs	r1, r1, r4
     e2a:	f008 fdbf 	bl	99ac <printf>
     e2e:	4869      	ldr	r0, [pc, #420]	; (fd4 <main+0xcd4>)
     e30:	f008 fdbc 	bl	99ac <printf>
     e34:	4628      	mov	r0, r5
     e36:	f003 fad1 	bl	43dc <Chip_TIMER_Reset>
     e3a:	2340      	movs	r3, #64	; 0x40
     e3c:	4a66      	ldr	r2, [pc, #408]	; (fd8 <main+0xcd8>)
     e3e:	606f      	str	r7, [r5, #4]
     e40:	4966      	ldr	r1, [pc, #408]	; (fdc <main+0xcdc>)
     e42:	4867      	ldr	r0, [pc, #412]	; (fe0 <main+0xce0>)
     e44:	f006 fee6 	bl	7c14 <arm_biquad_cascade_df2T_f32>
     e48:	606e      	str	r6, [r5, #4]
     e4a:	68a9      	ldr	r1, [r5, #8]
     e4c:	4860      	ldr	r0, [pc, #384]	; (fd0 <main+0xcd0>)
     e4e:	1b09      	subs	r1, r1, r4
     e50:	f008 fdac 	bl	99ac <printf>
     e54:	485f      	ldr	r0, [pc, #380]	; (fd4 <main+0xcd4>)
     e56:	f008 fda9 	bl	99ac <printf>
     e5a:	4628      	mov	r0, r5
     e5c:	f003 fabe 	bl	43dc <Chip_TIMER_Reset>
     e60:	2380      	movs	r3, #128	; 0x80
     e62:	4a5d      	ldr	r2, [pc, #372]	; (fd8 <main+0xcd8>)
     e64:	606f      	str	r7, [r5, #4]
     e66:	495d      	ldr	r1, [pc, #372]	; (fdc <main+0xcdc>)
     e68:	485d      	ldr	r0, [pc, #372]	; (fe0 <main+0xce0>)
     e6a:	f006 fed3 	bl	7c14 <arm_biquad_cascade_df2T_f32>
     e6e:	606e      	str	r6, [r5, #4]
     e70:	68a9      	ldr	r1, [r5, #8]
     e72:	4857      	ldr	r0, [pc, #348]	; (fd0 <main+0xcd0>)
     e74:	1b09      	subs	r1, r1, r4
     e76:	f008 fd99 	bl	99ac <printf>
     e7a:	4856      	ldr	r0, [pc, #344]	; (fd4 <main+0xcd4>)
     e7c:	f008 fd96 	bl	99ac <printf>
     e80:	4628      	mov	r0, r5
     e82:	f003 faab 	bl	43dc <Chip_TIMER_Reset>
     e86:	f44f 7380 	mov.w	r3, #256	; 0x100
     e8a:	4a53      	ldr	r2, [pc, #332]	; (fd8 <main+0xcd8>)
     e8c:	606f      	str	r7, [r5, #4]
     e8e:	4953      	ldr	r1, [pc, #332]	; (fdc <main+0xcdc>)
     e90:	4853      	ldr	r0, [pc, #332]	; (fe0 <main+0xce0>)
     e92:	f006 febf 	bl	7c14 <arm_biquad_cascade_df2T_f32>
     e96:	606e      	str	r6, [r5, #4]
     e98:	68a9      	ldr	r1, [r5, #8]
     e9a:	484d      	ldr	r0, [pc, #308]	; (fd0 <main+0xcd0>)
     e9c:	1b09      	subs	r1, r1, r4
     e9e:	f008 fd85 	bl	99ac <printf>
     ea2:	484c      	ldr	r0, [pc, #304]	; (fd4 <main+0xcd4>)
     ea4:	f008 fd82 	bl	99ac <printf>
     ea8:	4628      	mov	r0, r5
     eaa:	f003 fa97 	bl	43dc <Chip_TIMER_Reset>
     eae:	f44f 7300 	mov.w	r3, #512	; 0x200
     eb2:	4a49      	ldr	r2, [pc, #292]	; (fd8 <main+0xcd8>)
     eb4:	606f      	str	r7, [r5, #4]
     eb6:	4949      	ldr	r1, [pc, #292]	; (fdc <main+0xcdc>)
     eb8:	4849      	ldr	r0, [pc, #292]	; (fe0 <main+0xce0>)
     eba:	f006 feab 	bl	7c14 <arm_biquad_cascade_df2T_f32>
     ebe:	606e      	str	r6, [r5, #4]
     ec0:	68a9      	ldr	r1, [r5, #8]
     ec2:	4843      	ldr	r0, [pc, #268]	; (fd0 <main+0xcd0>)
     ec4:	1b09      	subs	r1, r1, r4
     ec6:	f008 fd71 	bl	99ac <printf>
     eca:	4842      	ldr	r0, [pc, #264]	; (fd4 <main+0xcd4>)
     ecc:	f008 fd6e 	bl	99ac <printf>
     ed0:	4628      	mov	r0, r5
     ed2:	f003 fa83 	bl	43dc <Chip_TIMER_Reset>
     ed6:	f44f 6380 	mov.w	r3, #1024	; 0x400
     eda:	4a3f      	ldr	r2, [pc, #252]	; (fd8 <main+0xcd8>)
     edc:	606f      	str	r7, [r5, #4]
     ede:	493f      	ldr	r1, [pc, #252]	; (fdc <main+0xcdc>)
     ee0:	483f      	ldr	r0, [pc, #252]	; (fe0 <main+0xce0>)
     ee2:	f006 fe97 	bl	7c14 <arm_biquad_cascade_df2T_f32>
     ee6:	606e      	str	r6, [r5, #4]
     ee8:	68a9      	ldr	r1, [r5, #8]
     eea:	4839      	ldr	r0, [pc, #228]	; (fd0 <main+0xcd0>)
     eec:	1b09      	subs	r1, r1, r4
     eee:	f008 fd5d 	bl	99ac <printf>
     ef2:	4838      	ldr	r0, [pc, #224]	; (fd4 <main+0xcd4>)
     ef4:	f008 fd5a 	bl	99ac <printf>
     ef8:	4628      	mov	r0, r5
     efa:	f003 fa6f 	bl	43dc <Chip_TIMER_Reset>
     efe:	464b      	mov	r3, r9
     f00:	4a35      	ldr	r2, [pc, #212]	; (fd8 <main+0xcd8>)
     f02:	606f      	str	r7, [r5, #4]
     f04:	4935      	ldr	r1, [pc, #212]	; (fdc <main+0xcdc>)
     f06:	4836      	ldr	r0, [pc, #216]	; (fe0 <main+0xce0>)
     f08:	f006 fe84 	bl	7c14 <arm_biquad_cascade_df2T_f32>
     f0c:	606e      	str	r6, [r5, #4]
     f0e:	68a9      	ldr	r1, [r5, #8]
     f10:	482f      	ldr	r0, [pc, #188]	; (fd0 <main+0xcd0>)
     f12:	1b09      	subs	r1, r1, r4
     f14:	f008 fd4a 	bl	99ac <printf>
     f18:	482e      	ldr	r0, [pc, #184]	; (fd4 <main+0xcd4>)
     f1a:	f008 fd47 	bl	99ac <printf>
     f1e:	4628      	mov	r0, r5
     f20:	f003 fa5c 	bl	43dc <Chip_TIMER_Reset>
     f24:	f44f 5380 	mov.w	r3, #4096	; 0x1000
     f28:	4a2b      	ldr	r2, [pc, #172]	; (fd8 <main+0xcd8>)
     f2a:	606f      	str	r7, [r5, #4]
     f2c:	492b      	ldr	r1, [pc, #172]	; (fdc <main+0xcdc>)
     f2e:	482c      	ldr	r0, [pc, #176]	; (fe0 <main+0xce0>)
     f30:	f006 fe70 	bl	7c14 <arm_biquad_cascade_df2T_f32>
     f34:	606e      	str	r6, [r5, #4]
     f36:	68a9      	ldr	r1, [r5, #8]
     f38:	4825      	ldr	r0, [pc, #148]	; (fd0 <main+0xcd0>)
     f3a:	1b09      	subs	r1, r1, r4
     f3c:	f008 fd36 	bl	99ac <printf>
     f40:	4824      	ldr	r0, [pc, #144]	; (fd4 <main+0xcd4>)
     f42:	f008 fd33 	bl	99ac <printf>
     f46:	4827      	ldr	r0, [pc, #156]	; (fe4 <main+0xce4>)
     f48:	f008 fd30 	bl	99ac <printf>
     f4c:	4829      	ldr	r0, [pc, #164]	; (ff4 <main+0xcf4>)
     f4e:	f008 fd2d 	bl	99ac <printf>
     f52:	4b29      	ldr	r3, [pc, #164]	; (ff8 <main+0xcf8>)
     f54:	4a29      	ldr	r2, [pc, #164]	; (ffc <main+0xcfc>)
     f56:	f8cd 9000 	str.w	r9, [sp]
     f5a:	2108      	movs	r1, #8
     f5c:	4828      	ldr	r0, [pc, #160]	; (1000 <main+0xd00>)
     f5e:	f007 f90f 	bl	8180 <arm_fir_init_f32>
     f62:	4628      	mov	r0, r5
     f64:	f003 fa3a 	bl	43dc <Chip_TIMER_Reset>
     f68:	2310      	movs	r3, #16
     f6a:	4a1b      	ldr	r2, [pc, #108]	; (fd8 <main+0xcd8>)
     f6c:	606f      	str	r7, [r5, #4]
     f6e:	491b      	ldr	r1, [pc, #108]	; (fdc <main+0xcdc>)
     f70:	4823      	ldr	r0, [pc, #140]	; (1000 <main+0xd00>)
     f72:	f006 ff09 	bl	7d88 <arm_fir_f32>
     f76:	606e      	str	r6, [r5, #4]
     f78:	68a9      	ldr	r1, [r5, #8]
     f7a:	4815      	ldr	r0, [pc, #84]	; (fd0 <main+0xcd0>)
     f7c:	1b09      	subs	r1, r1, r4
     f7e:	f008 fd15 	bl	99ac <printf>
     f82:	4814      	ldr	r0, [pc, #80]	; (fd4 <main+0xcd4>)
     f84:	f008 fd12 	bl	99ac <printf>
     f88:	4628      	mov	r0, r5
     f8a:	f003 fa27 	bl	43dc <Chip_TIMER_Reset>
     f8e:	2320      	movs	r3, #32
     f90:	4a11      	ldr	r2, [pc, #68]	; (fd8 <main+0xcd8>)
     f92:	606f      	str	r7, [r5, #4]
     f94:	4911      	ldr	r1, [pc, #68]	; (fdc <main+0xcdc>)
     f96:	481a      	ldr	r0, [pc, #104]	; (1000 <main+0xd00>)
     f98:	f006 fef6 	bl	7d88 <arm_fir_f32>
     f9c:	606e      	str	r6, [r5, #4]
     f9e:	68a9      	ldr	r1, [r5, #8]
     fa0:	480b      	ldr	r0, [pc, #44]	; (fd0 <main+0xcd0>)
     fa2:	1b09      	subs	r1, r1, r4
     fa4:	f008 fd02 	bl	99ac <printf>
     fa8:	480a      	ldr	r0, [pc, #40]	; (fd4 <main+0xcd4>)
     faa:	f008 fcff 	bl	99ac <printf>
     fae:	4628      	mov	r0, r5
     fb0:	f003 fa14 	bl	43dc <Chip_TIMER_Reset>
     fb4:	2340      	movs	r3, #64	; 0x40
     fb6:	4a08      	ldr	r2, [pc, #32]	; (fd8 <main+0xcd8>)
     fb8:	606f      	str	r7, [r5, #4]
     fba:	4908      	ldr	r1, [pc, #32]	; (fdc <main+0xcdc>)
     fbc:	4810      	ldr	r0, [pc, #64]	; (1000 <main+0xd00>)
     fbe:	f006 fee3 	bl	7d88 <arm_fir_f32>
     fc2:	606e      	str	r6, [r5, #4]
     fc4:	68a9      	ldr	r1, [r5, #8]
     fc6:	4802      	ldr	r0, [pc, #8]	; (fd0 <main+0xcd0>)
     fc8:	1b09      	subs	r1, r1, r4
     fca:	f008 fcef 	bl	99ac <printf>
     fce:	e019      	b.n	1004 <main+0xd04>
     fd0:	0000bb78 	.word	0x0000bb78
     fd4:	0000bcd8 	.word	0x0000bcd8
     fd8:	20006508 	.word	0x20006508
     fdc:	200023fc 	.word	0x200023fc
     fe0:	2000a508 	.word	0x2000a508
     fe4:	0000bb10 	.word	0x0000bb10
     fe8:	0000bbe0 	.word	0x0000bbe0
     fec:	20000128 	.word	0x20000128
     ff0:	20000000 	.word	0x20000000
     ff4:	0000bbf8 	.word	0x0000bbf8
     ff8:	20000348 	.word	0x20000348
     ffc:	200063fc 	.word	0x200063fc
    1000:	2000647c 	.word	0x2000647c
    1004:	48b3      	ldr	r0, [pc, #716]	; (12d4 <main+0xfd4>)
    1006:	f008 fcd1 	bl	99ac <printf>
    100a:	4628      	mov	r0, r5
    100c:	f003 f9e6 	bl	43dc <Chip_TIMER_Reset>
    1010:	2380      	movs	r3, #128	; 0x80
    1012:	4ab1      	ldr	r2, [pc, #708]	; (12d8 <main+0xfd8>)
    1014:	606f      	str	r7, [r5, #4]
    1016:	49b1      	ldr	r1, [pc, #708]	; (12dc <main+0xfdc>)
    1018:	48b1      	ldr	r0, [pc, #708]	; (12e0 <main+0xfe0>)
    101a:	f006 feb5 	bl	7d88 <arm_fir_f32>
    101e:	606e      	str	r6, [r5, #4]
    1020:	68a9      	ldr	r1, [r5, #8]
    1022:	48b0      	ldr	r0, [pc, #704]	; (12e4 <main+0xfe4>)
    1024:	1b09      	subs	r1, r1, r4
    1026:	f008 fcc1 	bl	99ac <printf>
    102a:	48aa      	ldr	r0, [pc, #680]	; (12d4 <main+0xfd4>)
    102c:	f008 fcbe 	bl	99ac <printf>
    1030:	4628      	mov	r0, r5
    1032:	f003 f9d3 	bl	43dc <Chip_TIMER_Reset>
    1036:	f44f 7380 	mov.w	r3, #256	; 0x100
    103a:	4aa7      	ldr	r2, [pc, #668]	; (12d8 <main+0xfd8>)
    103c:	606f      	str	r7, [r5, #4]
    103e:	49a7      	ldr	r1, [pc, #668]	; (12dc <main+0xfdc>)
    1040:	48a7      	ldr	r0, [pc, #668]	; (12e0 <main+0xfe0>)
    1042:	f006 fea1 	bl	7d88 <arm_fir_f32>
    1046:	606e      	str	r6, [r5, #4]
    1048:	68a9      	ldr	r1, [r5, #8]
    104a:	48a6      	ldr	r0, [pc, #664]	; (12e4 <main+0xfe4>)
    104c:	1b09      	subs	r1, r1, r4
    104e:	f008 fcad 	bl	99ac <printf>
    1052:	48a0      	ldr	r0, [pc, #640]	; (12d4 <main+0xfd4>)
    1054:	f008 fcaa 	bl	99ac <printf>
    1058:	4628      	mov	r0, r5
    105a:	f003 f9bf 	bl	43dc <Chip_TIMER_Reset>
    105e:	f44f 7300 	mov.w	r3, #512	; 0x200
    1062:	4a9d      	ldr	r2, [pc, #628]	; (12d8 <main+0xfd8>)
    1064:	606f      	str	r7, [r5, #4]
    1066:	499d      	ldr	r1, [pc, #628]	; (12dc <main+0xfdc>)
    1068:	489d      	ldr	r0, [pc, #628]	; (12e0 <main+0xfe0>)
    106a:	f006 fe8d 	bl	7d88 <arm_fir_f32>
    106e:	606e      	str	r6, [r5, #4]
    1070:	68a9      	ldr	r1, [r5, #8]
    1072:	489c      	ldr	r0, [pc, #624]	; (12e4 <main+0xfe4>)
    1074:	1b09      	subs	r1, r1, r4
    1076:	f008 fc99 	bl	99ac <printf>
    107a:	4896      	ldr	r0, [pc, #600]	; (12d4 <main+0xfd4>)
    107c:	f008 fc96 	bl	99ac <printf>
    1080:	4628      	mov	r0, r5
    1082:	f003 f9ab 	bl	43dc <Chip_TIMER_Reset>
    1086:	f44f 6380 	mov.w	r3, #1024	; 0x400
    108a:	4a93      	ldr	r2, [pc, #588]	; (12d8 <main+0xfd8>)
    108c:	606f      	str	r7, [r5, #4]
    108e:	4993      	ldr	r1, [pc, #588]	; (12dc <main+0xfdc>)
    1090:	4893      	ldr	r0, [pc, #588]	; (12e0 <main+0xfe0>)
    1092:	f006 fe79 	bl	7d88 <arm_fir_f32>
    1096:	606e      	str	r6, [r5, #4]
    1098:	68a9      	ldr	r1, [r5, #8]
    109a:	4892      	ldr	r0, [pc, #584]	; (12e4 <main+0xfe4>)
    109c:	1b09      	subs	r1, r1, r4
    109e:	f008 fc85 	bl	99ac <printf>
    10a2:	488c      	ldr	r0, [pc, #560]	; (12d4 <main+0xfd4>)
    10a4:	f008 fc82 	bl	99ac <printf>
    10a8:	4628      	mov	r0, r5
    10aa:	f003 f997 	bl	43dc <Chip_TIMER_Reset>
    10ae:	464b      	mov	r3, r9
    10b0:	4a89      	ldr	r2, [pc, #548]	; (12d8 <main+0xfd8>)
    10b2:	606f      	str	r7, [r5, #4]
    10b4:	4989      	ldr	r1, [pc, #548]	; (12dc <main+0xfdc>)
    10b6:	488a      	ldr	r0, [pc, #552]	; (12e0 <main+0xfe0>)
    10b8:	f006 fe66 	bl	7d88 <arm_fir_f32>
    10bc:	606e      	str	r6, [r5, #4]
    10be:	68a9      	ldr	r1, [r5, #8]
    10c0:	4888      	ldr	r0, [pc, #544]	; (12e4 <main+0xfe4>)
    10c2:	1b09      	subs	r1, r1, r4
    10c4:	f008 fc72 	bl	99ac <printf>
    10c8:	4882      	ldr	r0, [pc, #520]	; (12d4 <main+0xfd4>)
    10ca:	f008 fc6f 	bl	99ac <printf>
    10ce:	4886      	ldr	r0, [pc, #536]	; (12e8 <main+0xfe8>)
    10d0:	f008 fc6c 	bl	99ac <printf>
    10d4:	4885      	ldr	r0, [pc, #532]	; (12ec <main+0xfec>)
    10d6:	f008 fc69 	bl	99ac <printf>
    10da:	4885      	ldr	r0, [pc, #532]	; (12f0 <main+0xff0>)
    10dc:	f008 fc66 	bl	99ac <printf>
    10e0:	4b84      	ldr	r3, [pc, #528]	; (12f4 <main+0xff4>)
    10e2:	4a85      	ldr	r2, [pc, #532]	; (12f8 <main+0xff8>)
    10e4:	f8cd 9000 	str.w	r9, [sp]
    10e8:	2110      	movs	r1, #16
    10ea:	487d      	ldr	r0, [pc, #500]	; (12e0 <main+0xfe0>)
    10ec:	f007 f848 	bl	8180 <arm_fir_init_f32>
    10f0:	4628      	mov	r0, r5
    10f2:	f003 f973 	bl	43dc <Chip_TIMER_Reset>
    10f6:	2310      	movs	r3, #16
    10f8:	4a77      	ldr	r2, [pc, #476]	; (12d8 <main+0xfd8>)
    10fa:	606f      	str	r7, [r5, #4]
    10fc:	4977      	ldr	r1, [pc, #476]	; (12dc <main+0xfdc>)
    10fe:	4878      	ldr	r0, [pc, #480]	; (12e0 <main+0xfe0>)
    1100:	f006 fe42 	bl	7d88 <arm_fir_f32>
    1104:	606e      	str	r6, [r5, #4]
    1106:	68a9      	ldr	r1, [r5, #8]
    1108:	4876      	ldr	r0, [pc, #472]	; (12e4 <main+0xfe4>)
    110a:	1b09      	subs	r1, r1, r4
    110c:	f008 fc4e 	bl	99ac <printf>
    1110:	4870      	ldr	r0, [pc, #448]	; (12d4 <main+0xfd4>)
    1112:	f008 fc4b 	bl	99ac <printf>
    1116:	4628      	mov	r0, r5
    1118:	f003 f960 	bl	43dc <Chip_TIMER_Reset>
    111c:	2320      	movs	r3, #32
    111e:	4a6e      	ldr	r2, [pc, #440]	; (12d8 <main+0xfd8>)
    1120:	606f      	str	r7, [r5, #4]
    1122:	496e      	ldr	r1, [pc, #440]	; (12dc <main+0xfdc>)
    1124:	486e      	ldr	r0, [pc, #440]	; (12e0 <main+0xfe0>)
    1126:	f006 fe2f 	bl	7d88 <arm_fir_f32>
    112a:	606e      	str	r6, [r5, #4]
    112c:	68a9      	ldr	r1, [r5, #8]
    112e:	486d      	ldr	r0, [pc, #436]	; (12e4 <main+0xfe4>)
    1130:	1b09      	subs	r1, r1, r4
    1132:	f008 fc3b 	bl	99ac <printf>
    1136:	4867      	ldr	r0, [pc, #412]	; (12d4 <main+0xfd4>)
    1138:	f008 fc38 	bl	99ac <printf>
    113c:	4628      	mov	r0, r5
    113e:	f003 f94d 	bl	43dc <Chip_TIMER_Reset>
    1142:	2340      	movs	r3, #64	; 0x40
    1144:	4a64      	ldr	r2, [pc, #400]	; (12d8 <main+0xfd8>)
    1146:	606f      	str	r7, [r5, #4]
    1148:	4964      	ldr	r1, [pc, #400]	; (12dc <main+0xfdc>)
    114a:	4865      	ldr	r0, [pc, #404]	; (12e0 <main+0xfe0>)
    114c:	f006 fe1c 	bl	7d88 <arm_fir_f32>
    1150:	606e      	str	r6, [r5, #4]
    1152:	68a9      	ldr	r1, [r5, #8]
    1154:	4863      	ldr	r0, [pc, #396]	; (12e4 <main+0xfe4>)
    1156:	1b09      	subs	r1, r1, r4
    1158:	f008 fc28 	bl	99ac <printf>
    115c:	485d      	ldr	r0, [pc, #372]	; (12d4 <main+0xfd4>)
    115e:	f008 fc25 	bl	99ac <printf>
    1162:	4628      	mov	r0, r5
    1164:	f003 f93a 	bl	43dc <Chip_TIMER_Reset>
    1168:	2380      	movs	r3, #128	; 0x80
    116a:	4a5b      	ldr	r2, [pc, #364]	; (12d8 <main+0xfd8>)
    116c:	606f      	str	r7, [r5, #4]
    116e:	495b      	ldr	r1, [pc, #364]	; (12dc <main+0xfdc>)
    1170:	485b      	ldr	r0, [pc, #364]	; (12e0 <main+0xfe0>)
    1172:	f006 fe09 	bl	7d88 <arm_fir_f32>
    1176:	606e      	str	r6, [r5, #4]
    1178:	68a9      	ldr	r1, [r5, #8]
    117a:	485a      	ldr	r0, [pc, #360]	; (12e4 <main+0xfe4>)
    117c:	1b09      	subs	r1, r1, r4
    117e:	f008 fc15 	bl	99ac <printf>
    1182:	4854      	ldr	r0, [pc, #336]	; (12d4 <main+0xfd4>)
    1184:	f008 fc12 	bl	99ac <printf>
    1188:	4628      	mov	r0, r5
    118a:	f003 f927 	bl	43dc <Chip_TIMER_Reset>
    118e:	f44f 7380 	mov.w	r3, #256	; 0x100
    1192:	4a51      	ldr	r2, [pc, #324]	; (12d8 <main+0xfd8>)
    1194:	606f      	str	r7, [r5, #4]
    1196:	4951      	ldr	r1, [pc, #324]	; (12dc <main+0xfdc>)
    1198:	4851      	ldr	r0, [pc, #324]	; (12e0 <main+0xfe0>)
    119a:	f006 fdf5 	bl	7d88 <arm_fir_f32>
    119e:	606e      	str	r6, [r5, #4]
    11a0:	68a9      	ldr	r1, [r5, #8]
    11a2:	4850      	ldr	r0, [pc, #320]	; (12e4 <main+0xfe4>)
    11a4:	1b09      	subs	r1, r1, r4
    11a6:	f008 fc01 	bl	99ac <printf>
    11aa:	484a      	ldr	r0, [pc, #296]	; (12d4 <main+0xfd4>)
    11ac:	f008 fbfe 	bl	99ac <printf>
    11b0:	4628      	mov	r0, r5
    11b2:	f003 f913 	bl	43dc <Chip_TIMER_Reset>
    11b6:	f44f 7300 	mov.w	r3, #512	; 0x200
    11ba:	4a47      	ldr	r2, [pc, #284]	; (12d8 <main+0xfd8>)
    11bc:	606f      	str	r7, [r5, #4]
    11be:	4947      	ldr	r1, [pc, #284]	; (12dc <main+0xfdc>)
    11c0:	4847      	ldr	r0, [pc, #284]	; (12e0 <main+0xfe0>)
    11c2:	f006 fde1 	bl	7d88 <arm_fir_f32>
    11c6:	606e      	str	r6, [r5, #4]
    11c8:	68a9      	ldr	r1, [r5, #8]
    11ca:	4846      	ldr	r0, [pc, #280]	; (12e4 <main+0xfe4>)
    11cc:	1b09      	subs	r1, r1, r4
    11ce:	f008 fbed 	bl	99ac <printf>
    11d2:	4840      	ldr	r0, [pc, #256]	; (12d4 <main+0xfd4>)
    11d4:	f008 fbea 	bl	99ac <printf>
    11d8:	4628      	mov	r0, r5
    11da:	f003 f8ff 	bl	43dc <Chip_TIMER_Reset>
    11de:	f44f 6380 	mov.w	r3, #1024	; 0x400
    11e2:	4a3d      	ldr	r2, [pc, #244]	; (12d8 <main+0xfd8>)
    11e4:	606f      	str	r7, [r5, #4]
    11e6:	493d      	ldr	r1, [pc, #244]	; (12dc <main+0xfdc>)
    11e8:	483d      	ldr	r0, [pc, #244]	; (12e0 <main+0xfe0>)
    11ea:	f006 fdcd 	bl	7d88 <arm_fir_f32>
    11ee:	606e      	str	r6, [r5, #4]
    11f0:	68a9      	ldr	r1, [r5, #8]
    11f2:	483c      	ldr	r0, [pc, #240]	; (12e4 <main+0xfe4>)
    11f4:	1b09      	subs	r1, r1, r4
    11f6:	f008 fbd9 	bl	99ac <printf>
    11fa:	4836      	ldr	r0, [pc, #216]	; (12d4 <main+0xfd4>)
    11fc:	f008 fbd6 	bl	99ac <printf>
    1200:	4628      	mov	r0, r5
    1202:	f003 f8eb 	bl	43dc <Chip_TIMER_Reset>
    1206:	464b      	mov	r3, r9
    1208:	4a33      	ldr	r2, [pc, #204]	; (12d8 <main+0xfd8>)
    120a:	606f      	str	r7, [r5, #4]
    120c:	4933      	ldr	r1, [pc, #204]	; (12dc <main+0xfdc>)
    120e:	4834      	ldr	r0, [pc, #208]	; (12e0 <main+0xfe0>)
    1210:	f006 fdba 	bl	7d88 <arm_fir_f32>
    1214:	606e      	str	r6, [r5, #4]
    1216:	68a9      	ldr	r1, [r5, #8]
    1218:	4832      	ldr	r0, [pc, #200]	; (12e4 <main+0xfe4>)
    121a:	1b09      	subs	r1, r1, r4
    121c:	f008 fbc6 	bl	99ac <printf>
    1220:	482c      	ldr	r0, [pc, #176]	; (12d4 <main+0xfd4>)
    1222:	f008 fbc3 	bl	99ac <printf>
    1226:	4830      	ldr	r0, [pc, #192]	; (12e8 <main+0xfe8>)
    1228:	f008 fbc0 	bl	99ac <printf>
    122c:	482f      	ldr	r0, [pc, #188]	; (12ec <main+0xfec>)
    122e:	f008 fbbd 	bl	99ac <printf>
    1232:	4832      	ldr	r0, [pc, #200]	; (12fc <main+0xffc>)
    1234:	f008 fbba 	bl	99ac <printf>
    1238:	4b2e      	ldr	r3, [pc, #184]	; (12f4 <main+0xff4>)
    123a:	4a2f      	ldr	r2, [pc, #188]	; (12f8 <main+0xff8>)
    123c:	f8cd 9000 	str.w	r9, [sp]
    1240:	2120      	movs	r1, #32
    1242:	4827      	ldr	r0, [pc, #156]	; (12e0 <main+0xfe0>)
    1244:	f006 ff9c 	bl	8180 <arm_fir_init_f32>
    1248:	4628      	mov	r0, r5
    124a:	f003 f8c7 	bl	43dc <Chip_TIMER_Reset>
    124e:	2310      	movs	r3, #16
    1250:	4a21      	ldr	r2, [pc, #132]	; (12d8 <main+0xfd8>)
    1252:	606f      	str	r7, [r5, #4]
    1254:	4921      	ldr	r1, [pc, #132]	; (12dc <main+0xfdc>)
    1256:	4822      	ldr	r0, [pc, #136]	; (12e0 <main+0xfe0>)
    1258:	f006 fd96 	bl	7d88 <arm_fir_f32>
    125c:	606e      	str	r6, [r5, #4]
    125e:	68a9      	ldr	r1, [r5, #8]
    1260:	4820      	ldr	r0, [pc, #128]	; (12e4 <main+0xfe4>)
    1262:	1b09      	subs	r1, r1, r4
    1264:	f008 fba2 	bl	99ac <printf>
    1268:	481a      	ldr	r0, [pc, #104]	; (12d4 <main+0xfd4>)
    126a:	f008 fb9f 	bl	99ac <printf>
    126e:	4628      	mov	r0, r5
    1270:	f003 f8b4 	bl	43dc <Chip_TIMER_Reset>
    1274:	2320      	movs	r3, #32
    1276:	4a18      	ldr	r2, [pc, #96]	; (12d8 <main+0xfd8>)
    1278:	606f      	str	r7, [r5, #4]
    127a:	4918      	ldr	r1, [pc, #96]	; (12dc <main+0xfdc>)
    127c:	4818      	ldr	r0, [pc, #96]	; (12e0 <main+0xfe0>)
    127e:	f006 fd83 	bl	7d88 <arm_fir_f32>
    1282:	606e      	str	r6, [r5, #4]
    1284:	68a9      	ldr	r1, [r5, #8]
    1286:	4817      	ldr	r0, [pc, #92]	; (12e4 <main+0xfe4>)
    1288:	1b09      	subs	r1, r1, r4
    128a:	f008 fb8f 	bl	99ac <printf>
    128e:	4811      	ldr	r0, [pc, #68]	; (12d4 <main+0xfd4>)
    1290:	f008 fb8c 	bl	99ac <printf>
    1294:	4628      	mov	r0, r5
    1296:	f003 f8a1 	bl	43dc <Chip_TIMER_Reset>
    129a:	2340      	movs	r3, #64	; 0x40
    129c:	4a0e      	ldr	r2, [pc, #56]	; (12d8 <main+0xfd8>)
    129e:	606f      	str	r7, [r5, #4]
    12a0:	490e      	ldr	r1, [pc, #56]	; (12dc <main+0xfdc>)
    12a2:	480f      	ldr	r0, [pc, #60]	; (12e0 <main+0xfe0>)
    12a4:	f006 fd70 	bl	7d88 <arm_fir_f32>
    12a8:	606e      	str	r6, [r5, #4]
    12aa:	68a9      	ldr	r1, [r5, #8]
    12ac:	480d      	ldr	r0, [pc, #52]	; (12e4 <main+0xfe4>)
    12ae:	1b09      	subs	r1, r1, r4
    12b0:	f008 fb7c 	bl	99ac <printf>
    12b4:	4807      	ldr	r0, [pc, #28]	; (12d4 <main+0xfd4>)
    12b6:	f008 fb79 	bl	99ac <printf>
    12ba:	4628      	mov	r0, r5
    12bc:	f003 f88e 	bl	43dc <Chip_TIMER_Reset>
    12c0:	2380      	movs	r3, #128	; 0x80
    12c2:	4a05      	ldr	r2, [pc, #20]	; (12d8 <main+0xfd8>)
    12c4:	606f      	str	r7, [r5, #4]
    12c6:	4905      	ldr	r1, [pc, #20]	; (12dc <main+0xfdc>)
    12c8:	4805      	ldr	r0, [pc, #20]	; (12e0 <main+0xfe0>)
    12ca:	f006 fd5d 	bl	7d88 <arm_fir_f32>
    12ce:	606e      	str	r6, [r5, #4]
    12d0:	68a9      	ldr	r1, [r5, #8]
    12d2:	e015      	b.n	1300 <main+0x1000>
    12d4:	0000bcd8 	.word	0x0000bcd8
    12d8:	20006508 	.word	0x20006508
    12dc:	200023fc 	.word	0x200023fc
    12e0:	2000647c 	.word	0x2000647c
    12e4:	0000bb78 	.word	0x0000bb78
    12e8:	0000bc08 	.word	0x0000bc08
    12ec:	0000bb10 	.word	0x0000bb10
    12f0:	0000bc0c 	.word	0x0000bc0c
    12f4:	20000348 	.word	0x20000348
    12f8:	200063fc 	.word	0x200063fc
    12fc:	0000bc1c 	.word	0x0000bc1c
    1300:	48b9      	ldr	r0, [pc, #740]	; (15e8 <main+0x12e8>)
    1302:	1b09      	subs	r1, r1, r4
    1304:	f008 fb52 	bl	99ac <printf>
    1308:	48b8      	ldr	r0, [pc, #736]	; (15ec <main+0x12ec>)
    130a:	f008 fb4f 	bl	99ac <printf>
    130e:	4628      	mov	r0, r5
    1310:	f003 f864 	bl	43dc <Chip_TIMER_Reset>
    1314:	f44f 7380 	mov.w	r3, #256	; 0x100
    1318:	4ab5      	ldr	r2, [pc, #724]	; (15f0 <main+0x12f0>)
    131a:	606f      	str	r7, [r5, #4]
    131c:	49b5      	ldr	r1, [pc, #724]	; (15f4 <main+0x12f4>)
    131e:	48b6      	ldr	r0, [pc, #728]	; (15f8 <main+0x12f8>)
    1320:	f006 fd32 	bl	7d88 <arm_fir_f32>
    1324:	606e      	str	r6, [r5, #4]
    1326:	68a9      	ldr	r1, [r5, #8]
    1328:	48af      	ldr	r0, [pc, #700]	; (15e8 <main+0x12e8>)
    132a:	1b09      	subs	r1, r1, r4
    132c:	f008 fb3e 	bl	99ac <printf>
    1330:	48ae      	ldr	r0, [pc, #696]	; (15ec <main+0x12ec>)
    1332:	f008 fb3b 	bl	99ac <printf>
    1336:	4628      	mov	r0, r5
    1338:	f003 f850 	bl	43dc <Chip_TIMER_Reset>
    133c:	f44f 7300 	mov.w	r3, #512	; 0x200
    1340:	4aab      	ldr	r2, [pc, #684]	; (15f0 <main+0x12f0>)
    1342:	606f      	str	r7, [r5, #4]
    1344:	49ab      	ldr	r1, [pc, #684]	; (15f4 <main+0x12f4>)
    1346:	48ac      	ldr	r0, [pc, #688]	; (15f8 <main+0x12f8>)
    1348:	f006 fd1e 	bl	7d88 <arm_fir_f32>
    134c:	606e      	str	r6, [r5, #4]
    134e:	68a9      	ldr	r1, [r5, #8]
    1350:	48a5      	ldr	r0, [pc, #660]	; (15e8 <main+0x12e8>)
    1352:	1b09      	subs	r1, r1, r4
    1354:	f008 fb2a 	bl	99ac <printf>
    1358:	48a4      	ldr	r0, [pc, #656]	; (15ec <main+0x12ec>)
    135a:	f008 fb27 	bl	99ac <printf>
    135e:	4628      	mov	r0, r5
    1360:	f003 f83c 	bl	43dc <Chip_TIMER_Reset>
    1364:	f44f 6380 	mov.w	r3, #1024	; 0x400
    1368:	4aa1      	ldr	r2, [pc, #644]	; (15f0 <main+0x12f0>)
    136a:	606f      	str	r7, [r5, #4]
    136c:	49a1      	ldr	r1, [pc, #644]	; (15f4 <main+0x12f4>)
    136e:	48a2      	ldr	r0, [pc, #648]	; (15f8 <main+0x12f8>)
    1370:	f006 fd0a 	bl	7d88 <arm_fir_f32>
    1374:	606e      	str	r6, [r5, #4]
    1376:	68a9      	ldr	r1, [r5, #8]
    1378:	489b      	ldr	r0, [pc, #620]	; (15e8 <main+0x12e8>)
    137a:	1b09      	subs	r1, r1, r4
    137c:	f008 fb16 	bl	99ac <printf>
    1380:	489a      	ldr	r0, [pc, #616]	; (15ec <main+0x12ec>)
    1382:	f008 fb13 	bl	99ac <printf>
    1386:	4628      	mov	r0, r5
    1388:	f003 f828 	bl	43dc <Chip_TIMER_Reset>
    138c:	464b      	mov	r3, r9
    138e:	4a98      	ldr	r2, [pc, #608]	; (15f0 <main+0x12f0>)
    1390:	606f      	str	r7, [r5, #4]
    1392:	4998      	ldr	r1, [pc, #608]	; (15f4 <main+0x12f4>)
    1394:	4898      	ldr	r0, [pc, #608]	; (15f8 <main+0x12f8>)
    1396:	f006 fcf7 	bl	7d88 <arm_fir_f32>
    139a:	606e      	str	r6, [r5, #4]
    139c:	68a9      	ldr	r1, [r5, #8]
    139e:	4892      	ldr	r0, [pc, #584]	; (15e8 <main+0x12e8>)
    13a0:	1b09      	subs	r1, r1, r4
    13a2:	f008 fb03 	bl	99ac <printf>
    13a6:	4891      	ldr	r0, [pc, #580]	; (15ec <main+0x12ec>)
    13a8:	f008 fb00 	bl	99ac <printf>
    13ac:	4893      	ldr	r0, [pc, #588]	; (15fc <main+0x12fc>)
    13ae:	f008 fafd 	bl	99ac <printf>
    13b2:	4893      	ldr	r0, [pc, #588]	; (1600 <main+0x1300>)
    13b4:	f008 fafa 	bl	99ac <printf>
    13b8:	4892      	ldr	r0, [pc, #584]	; (1604 <main+0x1304>)
    13ba:	f008 faf7 	bl	99ac <printf>
    13be:	4628      	mov	r0, r5
    13c0:	f003 f80c 	bl	43dc <Chip_TIMER_Reset>
    13c4:	463b      	mov	r3, r7
    13c6:	4632      	mov	r2, r6
    13c8:	606f      	str	r7, [r5, #4]
    13ca:	498a      	ldr	r1, [pc, #552]	; (15f4 <main+0x12f4>)
    13cc:	488e      	ldr	r0, [pc, #568]	; (1608 <main+0x1308>)
    13ce:	f004 fa07 	bl	57e0 <arm_cfft_q31>
    13d2:	606e      	str	r6, [r5, #4]
    13d4:	68a9      	ldr	r1, [r5, #8]
    13d6:	4884      	ldr	r0, [pc, #528]	; (15e8 <main+0x12e8>)
    13d8:	1b09      	subs	r1, r1, r4
    13da:	f008 fae7 	bl	99ac <printf>
    13de:	4883      	ldr	r0, [pc, #524]	; (15ec <main+0x12ec>)
    13e0:	f008 fae4 	bl	99ac <printf>
    13e4:	4628      	mov	r0, r5
    13e6:	f002 fff9 	bl	43dc <Chip_TIMER_Reset>
    13ea:	463b      	mov	r3, r7
    13ec:	4632      	mov	r2, r6
    13ee:	606f      	str	r7, [r5, #4]
    13f0:	4980      	ldr	r1, [pc, #512]	; (15f4 <main+0x12f4>)
    13f2:	4886      	ldr	r0, [pc, #536]	; (160c <main+0x130c>)
    13f4:	f004 f9f4 	bl	57e0 <arm_cfft_q31>
    13f8:	606e      	str	r6, [r5, #4]
    13fa:	68a9      	ldr	r1, [r5, #8]
    13fc:	487a      	ldr	r0, [pc, #488]	; (15e8 <main+0x12e8>)
    13fe:	1b09      	subs	r1, r1, r4
    1400:	f008 fad4 	bl	99ac <printf>
    1404:	4879      	ldr	r0, [pc, #484]	; (15ec <main+0x12ec>)
    1406:	f008 fad1 	bl	99ac <printf>
    140a:	4628      	mov	r0, r5
    140c:	f002 ffe6 	bl	43dc <Chip_TIMER_Reset>
    1410:	463b      	mov	r3, r7
    1412:	4632      	mov	r2, r6
    1414:	606f      	str	r7, [r5, #4]
    1416:	4977      	ldr	r1, [pc, #476]	; (15f4 <main+0x12f4>)
    1418:	487d      	ldr	r0, [pc, #500]	; (1610 <main+0x1310>)
    141a:	f004 f9e1 	bl	57e0 <arm_cfft_q31>
    141e:	606e      	str	r6, [r5, #4]
    1420:	68a9      	ldr	r1, [r5, #8]
    1422:	4871      	ldr	r0, [pc, #452]	; (15e8 <main+0x12e8>)
    1424:	1b09      	subs	r1, r1, r4
    1426:	f008 fac1 	bl	99ac <printf>
    142a:	4870      	ldr	r0, [pc, #448]	; (15ec <main+0x12ec>)
    142c:	f008 fabe 	bl	99ac <printf>
    1430:	4628      	mov	r0, r5
    1432:	f002 ffd3 	bl	43dc <Chip_TIMER_Reset>
    1436:	463b      	mov	r3, r7
    1438:	4632      	mov	r2, r6
    143a:	606f      	str	r7, [r5, #4]
    143c:	496d      	ldr	r1, [pc, #436]	; (15f4 <main+0x12f4>)
    143e:	4875      	ldr	r0, [pc, #468]	; (1614 <main+0x1314>)
    1440:	f004 f9ce 	bl	57e0 <arm_cfft_q31>
    1444:	606e      	str	r6, [r5, #4]
    1446:	68a9      	ldr	r1, [r5, #8]
    1448:	4867      	ldr	r0, [pc, #412]	; (15e8 <main+0x12e8>)
    144a:	1b09      	subs	r1, r1, r4
    144c:	f008 faae 	bl	99ac <printf>
    1450:	4866      	ldr	r0, [pc, #408]	; (15ec <main+0x12ec>)
    1452:	f008 faab 	bl	99ac <printf>
    1456:	4628      	mov	r0, r5
    1458:	f002 ffc0 	bl	43dc <Chip_TIMER_Reset>
    145c:	463b      	mov	r3, r7
    145e:	4632      	mov	r2, r6
    1460:	606f      	str	r7, [r5, #4]
    1462:	4964      	ldr	r1, [pc, #400]	; (15f4 <main+0x12f4>)
    1464:	486c      	ldr	r0, [pc, #432]	; (1618 <main+0x1318>)
    1466:	f004 f9bb 	bl	57e0 <arm_cfft_q31>
    146a:	606e      	str	r6, [r5, #4]
    146c:	68a9      	ldr	r1, [r5, #8]
    146e:	485e      	ldr	r0, [pc, #376]	; (15e8 <main+0x12e8>)
    1470:	1b09      	subs	r1, r1, r4
    1472:	f008 fa9b 	bl	99ac <printf>
    1476:	485d      	ldr	r0, [pc, #372]	; (15ec <main+0x12ec>)
    1478:	f008 fa98 	bl	99ac <printf>
    147c:	4628      	mov	r0, r5
    147e:	f002 ffad 	bl	43dc <Chip_TIMER_Reset>
    1482:	463b      	mov	r3, r7
    1484:	4632      	mov	r2, r6
    1486:	606f      	str	r7, [r5, #4]
    1488:	495a      	ldr	r1, [pc, #360]	; (15f4 <main+0x12f4>)
    148a:	4864      	ldr	r0, [pc, #400]	; (161c <main+0x131c>)
    148c:	f004 f9a8 	bl	57e0 <arm_cfft_q31>
    1490:	606e      	str	r6, [r5, #4]
    1492:	68a9      	ldr	r1, [r5, #8]
    1494:	4854      	ldr	r0, [pc, #336]	; (15e8 <main+0x12e8>)
    1496:	1b09      	subs	r1, r1, r4
    1498:	f008 fa88 	bl	99ac <printf>
    149c:	4853      	ldr	r0, [pc, #332]	; (15ec <main+0x12ec>)
    149e:	f008 fa85 	bl	99ac <printf>
    14a2:	4628      	mov	r0, r5
    14a4:	f002 ff9a 	bl	43dc <Chip_TIMER_Reset>
    14a8:	463b      	mov	r3, r7
    14aa:	4632      	mov	r2, r6
    14ac:	606f      	str	r7, [r5, #4]
    14ae:	4951      	ldr	r1, [pc, #324]	; (15f4 <main+0x12f4>)
    14b0:	485b      	ldr	r0, [pc, #364]	; (1620 <main+0x1320>)
    14b2:	f004 f995 	bl	57e0 <arm_cfft_q31>
    14b6:	606e      	str	r6, [r5, #4]
    14b8:	68a9      	ldr	r1, [r5, #8]
    14ba:	484b      	ldr	r0, [pc, #300]	; (15e8 <main+0x12e8>)
    14bc:	1b09      	subs	r1, r1, r4
    14be:	f008 fa75 	bl	99ac <printf>
    14c2:	484a      	ldr	r0, [pc, #296]	; (15ec <main+0x12ec>)
    14c4:	f008 fa72 	bl	99ac <printf>
    14c8:	4628      	mov	r0, r5
    14ca:	f002 ff87 	bl	43dc <Chip_TIMER_Reset>
    14ce:	463b      	mov	r3, r7
    14d0:	4632      	mov	r2, r6
    14d2:	606f      	str	r7, [r5, #4]
    14d4:	4947      	ldr	r1, [pc, #284]	; (15f4 <main+0x12f4>)
    14d6:	4853      	ldr	r0, [pc, #332]	; (1624 <main+0x1324>)
    14d8:	f004 f982 	bl	57e0 <arm_cfft_q31>
    14dc:	606e      	str	r6, [r5, #4]
    14de:	68a9      	ldr	r1, [r5, #8]
    14e0:	4841      	ldr	r0, [pc, #260]	; (15e8 <main+0x12e8>)
    14e2:	1b09      	subs	r1, r1, r4
    14e4:	f008 fa62 	bl	99ac <printf>
    14e8:	4840      	ldr	r0, [pc, #256]	; (15ec <main+0x12ec>)
    14ea:	f008 fa5f 	bl	99ac <printf>
    14ee:	4628      	mov	r0, r5
    14f0:	f002 ff74 	bl	43dc <Chip_TIMER_Reset>
    14f4:	463b      	mov	r3, r7
    14f6:	4632      	mov	r2, r6
    14f8:	606f      	str	r7, [r5, #4]
    14fa:	493e      	ldr	r1, [pc, #248]	; (15f4 <main+0x12f4>)
    14fc:	484a      	ldr	r0, [pc, #296]	; (1628 <main+0x1328>)
    14fe:	f004 f96f 	bl	57e0 <arm_cfft_q31>
    1502:	606e      	str	r6, [r5, #4]
    1504:	68a9      	ldr	r1, [r5, #8]
    1506:	4838      	ldr	r0, [pc, #224]	; (15e8 <main+0x12e8>)
    1508:	1b09      	subs	r1, r1, r4
    150a:	f008 fa4f 	bl	99ac <printf>
    150e:	4837      	ldr	r0, [pc, #220]	; (15ec <main+0x12ec>)
    1510:	f008 fa4c 	bl	99ac <printf>
    1514:	483a      	ldr	r0, [pc, #232]	; (1600 <main+0x1300>)
    1516:	f008 fa49 	bl	99ac <printf>
    151a:	4844      	ldr	r0, [pc, #272]	; (162c <main+0x132c>)
    151c:	f008 fa46 	bl	99ac <printf>
    1520:	4628      	mov	r0, r5
    1522:	f002 ff5b 	bl	43dc <Chip_TIMER_Reset>
    1526:	4633      	mov	r3, r6
    1528:	4632      	mov	r2, r6
    152a:	606f      	str	r7, [r5, #4]
    152c:	4931      	ldr	r1, [pc, #196]	; (15f4 <main+0x12f4>)
    152e:	4836      	ldr	r0, [pc, #216]	; (1608 <main+0x1308>)
    1530:	f004 f956 	bl	57e0 <arm_cfft_q31>
    1534:	606e      	str	r6, [r5, #4]
    1536:	68a9      	ldr	r1, [r5, #8]
    1538:	482b      	ldr	r0, [pc, #172]	; (15e8 <main+0x12e8>)
    153a:	1b09      	subs	r1, r1, r4
    153c:	f008 fa36 	bl	99ac <printf>
    1540:	482a      	ldr	r0, [pc, #168]	; (15ec <main+0x12ec>)
    1542:	f008 fa33 	bl	99ac <printf>
    1546:	4628      	mov	r0, r5
    1548:	f002 ff48 	bl	43dc <Chip_TIMER_Reset>
    154c:	4633      	mov	r3, r6
    154e:	4632      	mov	r2, r6
    1550:	606f      	str	r7, [r5, #4]
    1552:	4928      	ldr	r1, [pc, #160]	; (15f4 <main+0x12f4>)
    1554:	482d      	ldr	r0, [pc, #180]	; (160c <main+0x130c>)
    1556:	f004 f943 	bl	57e0 <arm_cfft_q31>
    155a:	606e      	str	r6, [r5, #4]
    155c:	68a9      	ldr	r1, [r5, #8]
    155e:	4822      	ldr	r0, [pc, #136]	; (15e8 <main+0x12e8>)
    1560:	1b09      	subs	r1, r1, r4
    1562:	f008 fa23 	bl	99ac <printf>
    1566:	4821      	ldr	r0, [pc, #132]	; (15ec <main+0x12ec>)
    1568:	f008 fa20 	bl	99ac <printf>
    156c:	4628      	mov	r0, r5
    156e:	f002 ff35 	bl	43dc <Chip_TIMER_Reset>
    1572:	4633      	mov	r3, r6
    1574:	4632      	mov	r2, r6
    1576:	606f      	str	r7, [r5, #4]
    1578:	491e      	ldr	r1, [pc, #120]	; (15f4 <main+0x12f4>)
    157a:	4825      	ldr	r0, [pc, #148]	; (1610 <main+0x1310>)
    157c:	f004 f930 	bl	57e0 <arm_cfft_q31>
    1580:	606e      	str	r6, [r5, #4]
    1582:	68a9      	ldr	r1, [r5, #8]
    1584:	4818      	ldr	r0, [pc, #96]	; (15e8 <main+0x12e8>)
    1586:	1b09      	subs	r1, r1, r4
    1588:	f008 fa10 	bl	99ac <printf>
    158c:	4817      	ldr	r0, [pc, #92]	; (15ec <main+0x12ec>)
    158e:	f008 fa0d 	bl	99ac <printf>
    1592:	4628      	mov	r0, r5
    1594:	f002 ff22 	bl	43dc <Chip_TIMER_Reset>
    1598:	4633      	mov	r3, r6
    159a:	4632      	mov	r2, r6
    159c:	606f      	str	r7, [r5, #4]
    159e:	4915      	ldr	r1, [pc, #84]	; (15f4 <main+0x12f4>)
    15a0:	481c      	ldr	r0, [pc, #112]	; (1614 <main+0x1314>)
    15a2:	f004 f91d 	bl	57e0 <arm_cfft_q31>
    15a6:	606e      	str	r6, [r5, #4]
    15a8:	68a9      	ldr	r1, [r5, #8]
    15aa:	480f      	ldr	r0, [pc, #60]	; (15e8 <main+0x12e8>)
    15ac:	1b09      	subs	r1, r1, r4
    15ae:	f008 f9fd 	bl	99ac <printf>
    15b2:	480e      	ldr	r0, [pc, #56]	; (15ec <main+0x12ec>)
    15b4:	f008 f9fa 	bl	99ac <printf>
    15b8:	4628      	mov	r0, r5
    15ba:	f002 ff0f 	bl	43dc <Chip_TIMER_Reset>
    15be:	4633      	mov	r3, r6
    15c0:	4632      	mov	r2, r6
    15c2:	606f      	str	r7, [r5, #4]
    15c4:	490b      	ldr	r1, [pc, #44]	; (15f4 <main+0x12f4>)
    15c6:	4814      	ldr	r0, [pc, #80]	; (1618 <main+0x1318>)
    15c8:	f004 f90a 	bl	57e0 <arm_cfft_q31>
    15cc:	606e      	str	r6, [r5, #4]
    15ce:	68a9      	ldr	r1, [r5, #8]
    15d0:	4805      	ldr	r0, [pc, #20]	; (15e8 <main+0x12e8>)
    15d2:	1b09      	subs	r1, r1, r4
    15d4:	f008 f9ea 	bl	99ac <printf>
    15d8:	4804      	ldr	r0, [pc, #16]	; (15ec <main+0x12ec>)
    15da:	f008 f9e7 	bl	99ac <printf>
    15de:	4628      	mov	r0, r5
    15e0:	f002 fefc 	bl	43dc <Chip_TIMER_Reset>
    15e4:	4633      	mov	r3, r6
    15e6:	e023      	b.n	1630 <main+0x1330>
    15e8:	0000bb78 	.word	0x0000bb78
    15ec:	0000bcd8 	.word	0x0000bcd8
    15f0:	20006508 	.word	0x20006508
    15f4:	200023fc 	.word	0x200023fc
    15f8:	2000647c 	.word	0x2000647c
    15fc:	0000bc08 	.word	0x0000bc08
    1600:	0000bb10 	.word	0x0000bb10
    1604:	0000bc2c 	.word	0x0000bc2c
    1608:	0000bf60 	.word	0x0000bf60
    160c:	0000bfa0 	.word	0x0000bfa0
    1610:	0000c040 	.word	0x0000c040
    1614:	0000c030 	.word	0x0000c030
    1618:	0000bfd0 	.word	0x0000bfd0
    161c:	0000bec0 	.word	0x0000bec0
    1620:	0000c010 	.word	0x0000c010
    1624:	0000bfb0 	.word	0x0000bfb0
    1628:	0000bf00 	.word	0x0000bf00
    162c:	0000bc44 	.word	0x0000bc44
    1630:	4632      	mov	r2, r6
    1632:	606f      	str	r7, [r5, #4]
    1634:	49b8      	ldr	r1, [pc, #736]	; (1918 <main+0x1618>)
    1636:	48b9      	ldr	r0, [pc, #740]	; (191c <main+0x161c>)
    1638:	f004 f8d2 	bl	57e0 <arm_cfft_q31>
    163c:	606e      	str	r6, [r5, #4]
    163e:	68a9      	ldr	r1, [r5, #8]
    1640:	48b7      	ldr	r0, [pc, #732]	; (1920 <main+0x1620>)
    1642:	1b09      	subs	r1, r1, r4
    1644:	f008 f9b2 	bl	99ac <printf>
    1648:	48b6      	ldr	r0, [pc, #728]	; (1924 <main+0x1624>)
    164a:	f008 f9af 	bl	99ac <printf>
    164e:	4628      	mov	r0, r5
    1650:	f002 fec4 	bl	43dc <Chip_TIMER_Reset>
    1654:	4633      	mov	r3, r6
    1656:	4632      	mov	r2, r6
    1658:	606f      	str	r7, [r5, #4]
    165a:	49af      	ldr	r1, [pc, #700]	; (1918 <main+0x1618>)
    165c:	48b2      	ldr	r0, [pc, #712]	; (1928 <main+0x1628>)
    165e:	f004 f8bf 	bl	57e0 <arm_cfft_q31>
    1662:	606e      	str	r6, [r5, #4]
    1664:	68a9      	ldr	r1, [r5, #8]
    1666:	48ae      	ldr	r0, [pc, #696]	; (1920 <main+0x1620>)
    1668:	1b09      	subs	r1, r1, r4
    166a:	f008 f99f 	bl	99ac <printf>
    166e:	48ad      	ldr	r0, [pc, #692]	; (1924 <main+0x1624>)
    1670:	f008 f99c 	bl	99ac <printf>
    1674:	4628      	mov	r0, r5
    1676:	f002 feb1 	bl	43dc <Chip_TIMER_Reset>
    167a:	4633      	mov	r3, r6
    167c:	4632      	mov	r2, r6
    167e:	606f      	str	r7, [r5, #4]
    1680:	49a5      	ldr	r1, [pc, #660]	; (1918 <main+0x1618>)
    1682:	48aa      	ldr	r0, [pc, #680]	; (192c <main+0x162c>)
    1684:	f004 f8ac 	bl	57e0 <arm_cfft_q31>
    1688:	606e      	str	r6, [r5, #4]
    168a:	68a9      	ldr	r1, [r5, #8]
    168c:	48a4      	ldr	r0, [pc, #656]	; (1920 <main+0x1620>)
    168e:	1b09      	subs	r1, r1, r4
    1690:	f008 f98c 	bl	99ac <printf>
    1694:	48a3      	ldr	r0, [pc, #652]	; (1924 <main+0x1624>)
    1696:	f008 f989 	bl	99ac <printf>
    169a:	4628      	mov	r0, r5
    169c:	f002 fe9e 	bl	43dc <Chip_TIMER_Reset>
    16a0:	4633      	mov	r3, r6
    16a2:	4632      	mov	r2, r6
    16a4:	606f      	str	r7, [r5, #4]
    16a6:	499c      	ldr	r1, [pc, #624]	; (1918 <main+0x1618>)
    16a8:	48a1      	ldr	r0, [pc, #644]	; (1930 <main+0x1630>)
    16aa:	f004 f899 	bl	57e0 <arm_cfft_q31>
    16ae:	606e      	str	r6, [r5, #4]
    16b0:	68a9      	ldr	r1, [r5, #8]
    16b2:	489b      	ldr	r0, [pc, #620]	; (1920 <main+0x1620>)
    16b4:	1b09      	subs	r1, r1, r4
    16b6:	f008 f979 	bl	99ac <printf>
    16ba:	489a      	ldr	r0, [pc, #616]	; (1924 <main+0x1624>)
    16bc:	f008 f976 	bl	99ac <printf>
    16c0:	489c      	ldr	r0, [pc, #624]	; (1934 <main+0x1634>)
    16c2:	f008 f973 	bl	99ac <printf>
    16c6:	489c      	ldr	r0, [pc, #624]	; (1938 <main+0x1638>)
    16c8:	f008 f970 	bl	99ac <printf>
    16cc:	4628      	mov	r0, r5
    16ce:	f002 fe85 	bl	43dc <Chip_TIMER_Reset>
    16d2:	2210      	movs	r2, #16
    16d4:	606f      	str	r7, [r5, #4]
    16d6:	4999      	ldr	r1, [pc, #612]	; (193c <main+0x163c>)
    16d8:	488f      	ldr	r0, [pc, #572]	; (1918 <main+0x1618>)
    16da:	f007 f95b 	bl	8994 <arm_cmplx_mag_q31>
    16de:	606e      	str	r6, [r5, #4]
    16e0:	68a9      	ldr	r1, [r5, #8]
    16e2:	488f      	ldr	r0, [pc, #572]	; (1920 <main+0x1620>)
    16e4:	1b09      	subs	r1, r1, r4
    16e6:	f008 f961 	bl	99ac <printf>
    16ea:	488e      	ldr	r0, [pc, #568]	; (1924 <main+0x1624>)
    16ec:	f008 f95e 	bl	99ac <printf>
    16f0:	4628      	mov	r0, r5
    16f2:	f002 fe73 	bl	43dc <Chip_TIMER_Reset>
    16f6:	2220      	movs	r2, #32
    16f8:	606f      	str	r7, [r5, #4]
    16fa:	4990      	ldr	r1, [pc, #576]	; (193c <main+0x163c>)
    16fc:	4886      	ldr	r0, [pc, #536]	; (1918 <main+0x1618>)
    16fe:	f007 f949 	bl	8994 <arm_cmplx_mag_q31>
    1702:	606e      	str	r6, [r5, #4]
    1704:	68a9      	ldr	r1, [r5, #8]
    1706:	4886      	ldr	r0, [pc, #536]	; (1920 <main+0x1620>)
    1708:	1b09      	subs	r1, r1, r4
    170a:	f008 f94f 	bl	99ac <printf>
    170e:	4885      	ldr	r0, [pc, #532]	; (1924 <main+0x1624>)
    1710:	f008 f94c 	bl	99ac <printf>
    1714:	4628      	mov	r0, r5
    1716:	f002 fe61 	bl	43dc <Chip_TIMER_Reset>
    171a:	2240      	movs	r2, #64	; 0x40
    171c:	606f      	str	r7, [r5, #4]
    171e:	4987      	ldr	r1, [pc, #540]	; (193c <main+0x163c>)
    1720:	487d      	ldr	r0, [pc, #500]	; (1918 <main+0x1618>)
    1722:	f007 f937 	bl	8994 <arm_cmplx_mag_q31>
    1726:	606e      	str	r6, [r5, #4]
    1728:	68a9      	ldr	r1, [r5, #8]
    172a:	487d      	ldr	r0, [pc, #500]	; (1920 <main+0x1620>)
    172c:	1b09      	subs	r1, r1, r4
    172e:	f008 f93d 	bl	99ac <printf>
    1732:	487c      	ldr	r0, [pc, #496]	; (1924 <main+0x1624>)
    1734:	f008 f93a 	bl	99ac <printf>
    1738:	4628      	mov	r0, r5
    173a:	f002 fe4f 	bl	43dc <Chip_TIMER_Reset>
    173e:	2280      	movs	r2, #128	; 0x80
    1740:	606f      	str	r7, [r5, #4]
    1742:	497e      	ldr	r1, [pc, #504]	; (193c <main+0x163c>)
    1744:	4874      	ldr	r0, [pc, #464]	; (1918 <main+0x1618>)
    1746:	f007 f925 	bl	8994 <arm_cmplx_mag_q31>
    174a:	606e      	str	r6, [r5, #4]
    174c:	68a9      	ldr	r1, [r5, #8]
    174e:	4874      	ldr	r0, [pc, #464]	; (1920 <main+0x1620>)
    1750:	1b09      	subs	r1, r1, r4
    1752:	f008 f92b 	bl	99ac <printf>
    1756:	4873      	ldr	r0, [pc, #460]	; (1924 <main+0x1624>)
    1758:	f008 f928 	bl	99ac <printf>
    175c:	4628      	mov	r0, r5
    175e:	f002 fe3d 	bl	43dc <Chip_TIMER_Reset>
    1762:	f44f 7280 	mov.w	r2, #256	; 0x100
    1766:	606f      	str	r7, [r5, #4]
    1768:	4974      	ldr	r1, [pc, #464]	; (193c <main+0x163c>)
    176a:	486b      	ldr	r0, [pc, #428]	; (1918 <main+0x1618>)
    176c:	f007 f912 	bl	8994 <arm_cmplx_mag_q31>
    1770:	606e      	str	r6, [r5, #4]
    1772:	68a9      	ldr	r1, [r5, #8]
    1774:	486a      	ldr	r0, [pc, #424]	; (1920 <main+0x1620>)
    1776:	1b09      	subs	r1, r1, r4
    1778:	f008 f918 	bl	99ac <printf>
    177c:	4869      	ldr	r0, [pc, #420]	; (1924 <main+0x1624>)
    177e:	f008 f915 	bl	99ac <printf>
    1782:	4628      	mov	r0, r5
    1784:	f002 fe2a 	bl	43dc <Chip_TIMER_Reset>
    1788:	f44f 7200 	mov.w	r2, #512	; 0x200
    178c:	606f      	str	r7, [r5, #4]
    178e:	496b      	ldr	r1, [pc, #428]	; (193c <main+0x163c>)
    1790:	4861      	ldr	r0, [pc, #388]	; (1918 <main+0x1618>)
    1792:	f007 f8ff 	bl	8994 <arm_cmplx_mag_q31>
    1796:	606e      	str	r6, [r5, #4]
    1798:	68a9      	ldr	r1, [r5, #8]
    179a:	4861      	ldr	r0, [pc, #388]	; (1920 <main+0x1620>)
    179c:	1b09      	subs	r1, r1, r4
    179e:	f008 f905 	bl	99ac <printf>
    17a2:	4860      	ldr	r0, [pc, #384]	; (1924 <main+0x1624>)
    17a4:	f008 f902 	bl	99ac <printf>
    17a8:	4628      	mov	r0, r5
    17aa:	f002 fe17 	bl	43dc <Chip_TIMER_Reset>
    17ae:	f44f 6280 	mov.w	r2, #1024	; 0x400
    17b2:	606f      	str	r7, [r5, #4]
    17b4:	4961      	ldr	r1, [pc, #388]	; (193c <main+0x163c>)
    17b6:	4858      	ldr	r0, [pc, #352]	; (1918 <main+0x1618>)
    17b8:	f007 f8ec 	bl	8994 <arm_cmplx_mag_q31>
    17bc:	606e      	str	r6, [r5, #4]
    17be:	68a9      	ldr	r1, [r5, #8]
    17c0:	4857      	ldr	r0, [pc, #348]	; (1920 <main+0x1620>)
    17c2:	1b09      	subs	r1, r1, r4
    17c4:	f008 f8f2 	bl	99ac <printf>
    17c8:	4856      	ldr	r0, [pc, #344]	; (1924 <main+0x1624>)
    17ca:	f008 f8ef 	bl	99ac <printf>
    17ce:	4628      	mov	r0, r5
    17d0:	f002 fe04 	bl	43dc <Chip_TIMER_Reset>
    17d4:	464a      	mov	r2, r9
    17d6:	606f      	str	r7, [r5, #4]
    17d8:	4958      	ldr	r1, [pc, #352]	; (193c <main+0x163c>)
    17da:	484f      	ldr	r0, [pc, #316]	; (1918 <main+0x1618>)
    17dc:	f007 f8da 	bl	8994 <arm_cmplx_mag_q31>
    17e0:	606e      	str	r6, [r5, #4]
    17e2:	68a9      	ldr	r1, [r5, #8]
    17e4:	484e      	ldr	r0, [pc, #312]	; (1920 <main+0x1620>)
    17e6:	1b09      	subs	r1, r1, r4
    17e8:	f008 f8e0 	bl	99ac <printf>
    17ec:	484d      	ldr	r0, [pc, #308]	; (1924 <main+0x1624>)
    17ee:	f008 f8dd 	bl	99ac <printf>
    17f2:	4628      	mov	r0, r5
    17f4:	f002 fdf2 	bl	43dc <Chip_TIMER_Reset>
    17f8:	f44f 5280 	mov.w	r2, #4096	; 0x1000
    17fc:	606f      	str	r7, [r5, #4]
    17fe:	494f      	ldr	r1, [pc, #316]	; (193c <main+0x163c>)
    1800:	4845      	ldr	r0, [pc, #276]	; (1918 <main+0x1618>)
    1802:	f007 f8c7 	bl	8994 <arm_cmplx_mag_q31>
    1806:	606e      	str	r6, [r5, #4]
    1808:	68a9      	ldr	r1, [r5, #8]
    180a:	4845      	ldr	r0, [pc, #276]	; (1920 <main+0x1620>)
    180c:	1b09      	subs	r1, r1, r4
    180e:	f008 f8cd 	bl	99ac <printf>
    1812:	4844      	ldr	r0, [pc, #272]	; (1924 <main+0x1624>)
    1814:	f008 f8ca 	bl	99ac <printf>
    1818:	4846      	ldr	r0, [pc, #280]	; (1934 <main+0x1634>)
    181a:	f008 f8c7 	bl	99ac <printf>
    181e:	4848      	ldr	r0, [pc, #288]	; (1940 <main+0x1640>)
    1820:	f008 f8c4 	bl	99ac <printf>
    1824:	4628      	mov	r0, r5
    1826:	f002 fdd9 	bl	43dc <Chip_TIMER_Reset>
    182a:	2210      	movs	r2, #16
    182c:	606f      	str	r7, [r5, #4]
    182e:	4943      	ldr	r1, [pc, #268]	; (193c <main+0x163c>)
    1830:	4839      	ldr	r0, [pc, #228]	; (1918 <main+0x1618>)
    1832:	f007 f9bb 	bl	8bac <arm_cmplx_mag_squared_q31>
    1836:	606e      	str	r6, [r5, #4]
    1838:	68a9      	ldr	r1, [r5, #8]
    183a:	4839      	ldr	r0, [pc, #228]	; (1920 <main+0x1620>)
    183c:	1b09      	subs	r1, r1, r4
    183e:	f008 f8b5 	bl	99ac <printf>
    1842:	4838      	ldr	r0, [pc, #224]	; (1924 <main+0x1624>)
    1844:	f008 f8b2 	bl	99ac <printf>
    1848:	4628      	mov	r0, r5
    184a:	f002 fdc7 	bl	43dc <Chip_TIMER_Reset>
    184e:	2220      	movs	r2, #32
    1850:	606f      	str	r7, [r5, #4]
    1852:	493a      	ldr	r1, [pc, #232]	; (193c <main+0x163c>)
    1854:	4830      	ldr	r0, [pc, #192]	; (1918 <main+0x1618>)
    1856:	f007 f9a9 	bl	8bac <arm_cmplx_mag_squared_q31>
    185a:	606e      	str	r6, [r5, #4]
    185c:	68a9      	ldr	r1, [r5, #8]
    185e:	4830      	ldr	r0, [pc, #192]	; (1920 <main+0x1620>)
    1860:	1b09      	subs	r1, r1, r4
    1862:	f008 f8a3 	bl	99ac <printf>
    1866:	482f      	ldr	r0, [pc, #188]	; (1924 <main+0x1624>)
    1868:	f008 f8a0 	bl	99ac <printf>
    186c:	4628      	mov	r0, r5
    186e:	f002 fdb5 	bl	43dc <Chip_TIMER_Reset>
    1872:	2240      	movs	r2, #64	; 0x40
    1874:	606f      	str	r7, [r5, #4]
    1876:	4931      	ldr	r1, [pc, #196]	; (193c <main+0x163c>)
    1878:	4827      	ldr	r0, [pc, #156]	; (1918 <main+0x1618>)
    187a:	f007 f997 	bl	8bac <arm_cmplx_mag_squared_q31>
    187e:	606e      	str	r6, [r5, #4]
    1880:	68a9      	ldr	r1, [r5, #8]
    1882:	4827      	ldr	r0, [pc, #156]	; (1920 <main+0x1620>)
    1884:	1b09      	subs	r1, r1, r4
    1886:	f008 f891 	bl	99ac <printf>
    188a:	4826      	ldr	r0, [pc, #152]	; (1924 <main+0x1624>)
    188c:	f008 f88e 	bl	99ac <printf>
    1890:	4628      	mov	r0, r5
    1892:	f002 fda3 	bl	43dc <Chip_TIMER_Reset>
    1896:	2280      	movs	r2, #128	; 0x80
    1898:	606f      	str	r7, [r5, #4]
    189a:	4928      	ldr	r1, [pc, #160]	; (193c <main+0x163c>)
    189c:	481e      	ldr	r0, [pc, #120]	; (1918 <main+0x1618>)
    189e:	f007 f985 	bl	8bac <arm_cmplx_mag_squared_q31>
    18a2:	606e      	str	r6, [r5, #4]
    18a4:	68a9      	ldr	r1, [r5, #8]
    18a6:	481e      	ldr	r0, [pc, #120]	; (1920 <main+0x1620>)
    18a8:	1b09      	subs	r1, r1, r4
    18aa:	f008 f87f 	bl	99ac <printf>
    18ae:	481d      	ldr	r0, [pc, #116]	; (1924 <main+0x1624>)
    18b0:	f008 f87c 	bl	99ac <printf>
    18b4:	4628      	mov	r0, r5
    18b6:	f002 fd91 	bl	43dc <Chip_TIMER_Reset>
    18ba:	f44f 7280 	mov.w	r2, #256	; 0x100
    18be:	606f      	str	r7, [r5, #4]
    18c0:	491e      	ldr	r1, [pc, #120]	; (193c <main+0x163c>)
    18c2:	4815      	ldr	r0, [pc, #84]	; (1918 <main+0x1618>)
    18c4:	f007 f972 	bl	8bac <arm_cmplx_mag_squared_q31>
    18c8:	606e      	str	r6, [r5, #4]
    18ca:	68a9      	ldr	r1, [r5, #8]
    18cc:	4814      	ldr	r0, [pc, #80]	; (1920 <main+0x1620>)
    18ce:	1b09      	subs	r1, r1, r4
    18d0:	f008 f86c 	bl	99ac <printf>
    18d4:	4813      	ldr	r0, [pc, #76]	; (1924 <main+0x1624>)
    18d6:	f008 f869 	bl	99ac <printf>
    18da:	4628      	mov	r0, r5
    18dc:	f002 fd7e 	bl	43dc <Chip_TIMER_Reset>
    18e0:	f44f 7200 	mov.w	r2, #512	; 0x200
    18e4:	606f      	str	r7, [r5, #4]
    18e6:	4915      	ldr	r1, [pc, #84]	; (193c <main+0x163c>)
    18e8:	480b      	ldr	r0, [pc, #44]	; (1918 <main+0x1618>)
    18ea:	f007 f95f 	bl	8bac <arm_cmplx_mag_squared_q31>
    18ee:	606e      	str	r6, [r5, #4]
    18f0:	68a9      	ldr	r1, [r5, #8]
    18f2:	480b      	ldr	r0, [pc, #44]	; (1920 <main+0x1620>)
    18f4:	1b09      	subs	r1, r1, r4
    18f6:	f008 f859 	bl	99ac <printf>
    18fa:	480a      	ldr	r0, [pc, #40]	; (1924 <main+0x1624>)
    18fc:	f008 f856 	bl	99ac <printf>
    1900:	4628      	mov	r0, r5
    1902:	f002 fd6b 	bl	43dc <Chip_TIMER_Reset>
    1906:	f44f 6280 	mov.w	r2, #1024	; 0x400
    190a:	606f      	str	r7, [r5, #4]
    190c:	490b      	ldr	r1, [pc, #44]	; (193c <main+0x163c>)
    190e:	4802      	ldr	r0, [pc, #8]	; (1918 <main+0x1618>)
    1910:	f007 f94c 	bl	8bac <arm_cmplx_mag_squared_q31>
    1914:	e016      	b.n	1944 <main+0x1644>
    1916:	bf00      	nop
    1918:	200023fc 	.word	0x200023fc
    191c:	0000bec0 	.word	0x0000bec0
    1920:	0000bb78 	.word	0x0000bb78
    1924:	0000bcd8 	.word	0x0000bcd8
    1928:	0000c010 	.word	0x0000c010
    192c:	0000bfb0 	.word	0x0000bfb0
    1930:	0000bf00 	.word	0x0000bf00
    1934:	0000bb10 	.word	0x0000bb10
    1938:	0000bc5c 	.word	0x0000bc5c
    193c:	20006508 	.word	0x20006508
    1940:	0000bc6c 	.word	0x0000bc6c
    1944:	606e      	str	r6, [r5, #4]
    1946:	68a9      	ldr	r1, [r5, #8]
    1948:	48b3      	ldr	r0, [pc, #716]	; (1c18 <main+0x1918>)
    194a:	1b09      	subs	r1, r1, r4
    194c:	f008 f82e 	bl	99ac <printf>
    1950:	48b2      	ldr	r0, [pc, #712]	; (1c1c <main+0x191c>)
    1952:	f008 f82b 	bl	99ac <printf>
    1956:	4628      	mov	r0, r5
    1958:	f002 fd40 	bl	43dc <Chip_TIMER_Reset>
    195c:	464a      	mov	r2, r9
    195e:	606f      	str	r7, [r5, #4]
    1960:	49af      	ldr	r1, [pc, #700]	; (1c20 <main+0x1920>)
    1962:	48b0      	ldr	r0, [pc, #704]	; (1c24 <main+0x1924>)
    1964:	f007 f922 	bl	8bac <arm_cmplx_mag_squared_q31>
    1968:	606e      	str	r6, [r5, #4]
    196a:	68a9      	ldr	r1, [r5, #8]
    196c:	48aa      	ldr	r0, [pc, #680]	; (1c18 <main+0x1918>)
    196e:	1b09      	subs	r1, r1, r4
    1970:	f008 f81c 	bl	99ac <printf>
    1974:	48a9      	ldr	r0, [pc, #676]	; (1c1c <main+0x191c>)
    1976:	f008 f819 	bl	99ac <printf>
    197a:	4628      	mov	r0, r5
    197c:	f002 fd2e 	bl	43dc <Chip_TIMER_Reset>
    1980:	f44f 5280 	mov.w	r2, #4096	; 0x1000
    1984:	606f      	str	r7, [r5, #4]
    1986:	49a6      	ldr	r1, [pc, #664]	; (1c20 <main+0x1920>)
    1988:	48a6      	ldr	r0, [pc, #664]	; (1c24 <main+0x1924>)
    198a:	f007 f90f 	bl	8bac <arm_cmplx_mag_squared_q31>
    198e:	606e      	str	r6, [r5, #4]
    1990:	68a9      	ldr	r1, [r5, #8]
    1992:	48a1      	ldr	r0, [pc, #644]	; (1c18 <main+0x1918>)
    1994:	1b09      	subs	r1, r1, r4
    1996:	f008 f809 	bl	99ac <printf>
    199a:	48a0      	ldr	r0, [pc, #640]	; (1c1c <main+0x191c>)
    199c:	f008 f806 	bl	99ac <printf>
    19a0:	48a1      	ldr	r0, [pc, #644]	; (1c28 <main+0x1928>)
    19a2:	f008 f803 	bl	99ac <printf>
    19a6:	48a1      	ldr	r0, [pc, #644]	; (1c2c <main+0x192c>)
    19a8:	f008 f800 	bl	99ac <printf>
    19ac:	4639      	mov	r1, r7
    19ae:	4ba0      	ldr	r3, [pc, #640]	; (1c30 <main+0x1930>)
    19b0:	4aa0      	ldr	r2, [pc, #640]	; (1c34 <main+0x1934>)
    19b2:	9700      	str	r7, [sp, #0]
    19b4:	48a0      	ldr	r0, [pc, #640]	; (1c38 <main+0x1938>)
    19b6:	f005 ff6b 	bl	7890 <arm_biquad_cascade_df1_init_q31>
    19ba:	4628      	mov	r0, r5
    19bc:	f002 fd0e 	bl	43dc <Chip_TIMER_Reset>
    19c0:	2310      	movs	r3, #16
    19c2:	4a97      	ldr	r2, [pc, #604]	; (1c20 <main+0x1920>)
    19c4:	606f      	str	r7, [r5, #4]
    19c6:	4997      	ldr	r1, [pc, #604]	; (1c24 <main+0x1924>)
    19c8:	489b      	ldr	r0, [pc, #620]	; (1c38 <main+0x1938>)
    19ca:	f006 f80f 	bl	79ec <arm_biquad_cascade_df1_q31>
    19ce:	606e      	str	r6, [r5, #4]
    19d0:	68a9      	ldr	r1, [r5, #8]
    19d2:	4891      	ldr	r0, [pc, #580]	; (1c18 <main+0x1918>)
    19d4:	1b09      	subs	r1, r1, r4
    19d6:	f007 ffe9 	bl	99ac <printf>
    19da:	4890      	ldr	r0, [pc, #576]	; (1c1c <main+0x191c>)
    19dc:	f007 ffe6 	bl	99ac <printf>
    19e0:	4628      	mov	r0, r5
    19e2:	f002 fcfb 	bl	43dc <Chip_TIMER_Reset>
    19e6:	2320      	movs	r3, #32
    19e8:	4a8d      	ldr	r2, [pc, #564]	; (1c20 <main+0x1920>)
    19ea:	606f      	str	r7, [r5, #4]
    19ec:	498d      	ldr	r1, [pc, #564]	; (1c24 <main+0x1924>)
    19ee:	4892      	ldr	r0, [pc, #584]	; (1c38 <main+0x1938>)
    19f0:	f005 fffc 	bl	79ec <arm_biquad_cascade_df1_q31>
    19f4:	606e      	str	r6, [r5, #4]
    19f6:	68a9      	ldr	r1, [r5, #8]
    19f8:	4887      	ldr	r0, [pc, #540]	; (1c18 <main+0x1918>)
    19fa:	1b09      	subs	r1, r1, r4
    19fc:	f007 ffd6 	bl	99ac <printf>
    1a00:	4886      	ldr	r0, [pc, #536]	; (1c1c <main+0x191c>)
    1a02:	f007 ffd3 	bl	99ac <printf>
    1a06:	4628      	mov	r0, r5
    1a08:	f002 fce8 	bl	43dc <Chip_TIMER_Reset>
    1a0c:	2340      	movs	r3, #64	; 0x40
    1a0e:	4a84      	ldr	r2, [pc, #528]	; (1c20 <main+0x1920>)
    1a10:	606f      	str	r7, [r5, #4]
    1a12:	4984      	ldr	r1, [pc, #528]	; (1c24 <main+0x1924>)
    1a14:	4888      	ldr	r0, [pc, #544]	; (1c38 <main+0x1938>)
    1a16:	f005 ffe9 	bl	79ec <arm_biquad_cascade_df1_q31>
    1a1a:	606e      	str	r6, [r5, #4]
    1a1c:	68a9      	ldr	r1, [r5, #8]
    1a1e:	487e      	ldr	r0, [pc, #504]	; (1c18 <main+0x1918>)
    1a20:	1b09      	subs	r1, r1, r4
    1a22:	f007 ffc3 	bl	99ac <printf>
    1a26:	487d      	ldr	r0, [pc, #500]	; (1c1c <main+0x191c>)
    1a28:	f007 ffc0 	bl	99ac <printf>
    1a2c:	4628      	mov	r0, r5
    1a2e:	f002 fcd5 	bl	43dc <Chip_TIMER_Reset>
    1a32:	2380      	movs	r3, #128	; 0x80
    1a34:	4a7a      	ldr	r2, [pc, #488]	; (1c20 <main+0x1920>)
    1a36:	606f      	str	r7, [r5, #4]
    1a38:	497a      	ldr	r1, [pc, #488]	; (1c24 <main+0x1924>)
    1a3a:	487f      	ldr	r0, [pc, #508]	; (1c38 <main+0x1938>)
    1a3c:	f005 ffd6 	bl	79ec <arm_biquad_cascade_df1_q31>
    1a40:	606e      	str	r6, [r5, #4]
    1a42:	68a9      	ldr	r1, [r5, #8]
    1a44:	4874      	ldr	r0, [pc, #464]	; (1c18 <main+0x1918>)
    1a46:	1b09      	subs	r1, r1, r4
    1a48:	f007 ffb0 	bl	99ac <printf>
    1a4c:	4873      	ldr	r0, [pc, #460]	; (1c1c <main+0x191c>)
    1a4e:	f007 ffad 	bl	99ac <printf>
    1a52:	4628      	mov	r0, r5
    1a54:	f002 fcc2 	bl	43dc <Chip_TIMER_Reset>
    1a58:	f44f 7380 	mov.w	r3, #256	; 0x100
    1a5c:	4a70      	ldr	r2, [pc, #448]	; (1c20 <main+0x1920>)
    1a5e:	606f      	str	r7, [r5, #4]
    1a60:	4970      	ldr	r1, [pc, #448]	; (1c24 <main+0x1924>)
    1a62:	4875      	ldr	r0, [pc, #468]	; (1c38 <main+0x1938>)
    1a64:	f005 ffc2 	bl	79ec <arm_biquad_cascade_df1_q31>
    1a68:	606e      	str	r6, [r5, #4]
    1a6a:	68a9      	ldr	r1, [r5, #8]
    1a6c:	486a      	ldr	r0, [pc, #424]	; (1c18 <main+0x1918>)
    1a6e:	1b09      	subs	r1, r1, r4
    1a70:	f007 ff9c 	bl	99ac <printf>
    1a74:	4869      	ldr	r0, [pc, #420]	; (1c1c <main+0x191c>)
    1a76:	f007 ff99 	bl	99ac <printf>
    1a7a:	4628      	mov	r0, r5
    1a7c:	f002 fcae 	bl	43dc <Chip_TIMER_Reset>
    1a80:	f44f 7300 	mov.w	r3, #512	; 0x200
    1a84:	4a66      	ldr	r2, [pc, #408]	; (1c20 <main+0x1920>)
    1a86:	606f      	str	r7, [r5, #4]
    1a88:	4966      	ldr	r1, [pc, #408]	; (1c24 <main+0x1924>)
    1a8a:	486b      	ldr	r0, [pc, #428]	; (1c38 <main+0x1938>)
    1a8c:	f005 ffae 	bl	79ec <arm_biquad_cascade_df1_q31>
    1a90:	606e      	str	r6, [r5, #4]
    1a92:	68a9      	ldr	r1, [r5, #8]
    1a94:	4860      	ldr	r0, [pc, #384]	; (1c18 <main+0x1918>)
    1a96:	1b09      	subs	r1, r1, r4
    1a98:	f007 ff88 	bl	99ac <printf>
    1a9c:	485f      	ldr	r0, [pc, #380]	; (1c1c <main+0x191c>)
    1a9e:	f007 ff85 	bl	99ac <printf>
    1aa2:	4628      	mov	r0, r5
    1aa4:	f002 fc9a 	bl	43dc <Chip_TIMER_Reset>
    1aa8:	f44f 6380 	mov.w	r3, #1024	; 0x400
    1aac:	4a5c      	ldr	r2, [pc, #368]	; (1c20 <main+0x1920>)
    1aae:	606f      	str	r7, [r5, #4]
    1ab0:	495c      	ldr	r1, [pc, #368]	; (1c24 <main+0x1924>)
    1ab2:	4861      	ldr	r0, [pc, #388]	; (1c38 <main+0x1938>)
    1ab4:	f005 ff9a 	bl	79ec <arm_biquad_cascade_df1_q31>
    1ab8:	606e      	str	r6, [r5, #4]
    1aba:	68a9      	ldr	r1, [r5, #8]
    1abc:	4856      	ldr	r0, [pc, #344]	; (1c18 <main+0x1918>)
    1abe:	1b09      	subs	r1, r1, r4
    1ac0:	f007 ff74 	bl	99ac <printf>
    1ac4:	4855      	ldr	r0, [pc, #340]	; (1c1c <main+0x191c>)
    1ac6:	f007 ff71 	bl	99ac <printf>
    1aca:	4628      	mov	r0, r5
    1acc:	f002 fc86 	bl	43dc <Chip_TIMER_Reset>
    1ad0:	464b      	mov	r3, r9
    1ad2:	4a53      	ldr	r2, [pc, #332]	; (1c20 <main+0x1920>)
    1ad4:	606f      	str	r7, [r5, #4]
    1ad6:	4953      	ldr	r1, [pc, #332]	; (1c24 <main+0x1924>)
    1ad8:	4857      	ldr	r0, [pc, #348]	; (1c38 <main+0x1938>)
    1ada:	f005 ff87 	bl	79ec <arm_biquad_cascade_df1_q31>
    1ade:	606e      	str	r6, [r5, #4]
    1ae0:	68a9      	ldr	r1, [r5, #8]
    1ae2:	484d      	ldr	r0, [pc, #308]	; (1c18 <main+0x1918>)
    1ae4:	1b09      	subs	r1, r1, r4
    1ae6:	f007 ff61 	bl	99ac <printf>
    1aea:	484c      	ldr	r0, [pc, #304]	; (1c1c <main+0x191c>)
    1aec:	f007 ff5e 	bl	99ac <printf>
    1af0:	4628      	mov	r0, r5
    1af2:	f002 fc73 	bl	43dc <Chip_TIMER_Reset>
    1af6:	f44f 5380 	mov.w	r3, #4096	; 0x1000
    1afa:	4a49      	ldr	r2, [pc, #292]	; (1c20 <main+0x1920>)
    1afc:	606f      	str	r7, [r5, #4]
    1afe:	4949      	ldr	r1, [pc, #292]	; (1c24 <main+0x1924>)
    1b00:	484d      	ldr	r0, [pc, #308]	; (1c38 <main+0x1938>)
    1b02:	f005 ff73 	bl	79ec <arm_biquad_cascade_df1_q31>
    1b06:	606e      	str	r6, [r5, #4]
    1b08:	68a9      	ldr	r1, [r5, #8]
    1b0a:	4843      	ldr	r0, [pc, #268]	; (1c18 <main+0x1918>)
    1b0c:	1b09      	subs	r1, r1, r4
    1b0e:	f007 ff4d 	bl	99ac <printf>
    1b12:	4842      	ldr	r0, [pc, #264]	; (1c1c <main+0x191c>)
    1b14:	f007 ff4a 	bl	99ac <printf>
    1b18:	4843      	ldr	r0, [pc, #268]	; (1c28 <main+0x1928>)
    1b1a:	f007 ff47 	bl	99ac <printf>
    1b1e:	4847      	ldr	r0, [pc, #284]	; (1c3c <main+0x193c>)
    1b20:	f007 ff44 	bl	99ac <printf>
    1b24:	4639      	mov	r1, r7
    1b26:	4b42      	ldr	r3, [pc, #264]	; (1c30 <main+0x1930>)
    1b28:	4a42      	ldr	r2, [pc, #264]	; (1c34 <main+0x1934>)
    1b2a:	9700      	str	r7, [sp, #0]
    1b2c:	4842      	ldr	r0, [pc, #264]	; (1c38 <main+0x1938>)
    1b2e:	f005 feaf 	bl	7890 <arm_biquad_cascade_df1_init_q31>
    1b32:	4628      	mov	r0, r5
    1b34:	f002 fc52 	bl	43dc <Chip_TIMER_Reset>
    1b38:	2310      	movs	r3, #16
    1b3a:	4a39      	ldr	r2, [pc, #228]	; (1c20 <main+0x1920>)
    1b3c:	606f      	str	r7, [r5, #4]
    1b3e:	4939      	ldr	r1, [pc, #228]	; (1c24 <main+0x1924>)
    1b40:	483d      	ldr	r0, [pc, #244]	; (1c38 <main+0x1938>)
    1b42:	f005 fc9b 	bl	747c <arm_biquad_cascade_df1_fast_q31>
    1b46:	606e      	str	r6, [r5, #4]
    1b48:	68a9      	ldr	r1, [r5, #8]
    1b4a:	4833      	ldr	r0, [pc, #204]	; (1c18 <main+0x1918>)
    1b4c:	1b09      	subs	r1, r1, r4
    1b4e:	f007 ff2d 	bl	99ac <printf>
    1b52:	4832      	ldr	r0, [pc, #200]	; (1c1c <main+0x191c>)
    1b54:	f007 ff2a 	bl	99ac <printf>
    1b58:	4628      	mov	r0, r5
    1b5a:	f002 fc3f 	bl	43dc <Chip_TIMER_Reset>
    1b5e:	2320      	movs	r3, #32
    1b60:	4a2f      	ldr	r2, [pc, #188]	; (1c20 <main+0x1920>)
    1b62:	606f      	str	r7, [r5, #4]
    1b64:	492f      	ldr	r1, [pc, #188]	; (1c24 <main+0x1924>)
    1b66:	4834      	ldr	r0, [pc, #208]	; (1c38 <main+0x1938>)
    1b68:	f005 fc88 	bl	747c <arm_biquad_cascade_df1_fast_q31>
    1b6c:	606e      	str	r6, [r5, #4]
    1b6e:	68a9      	ldr	r1, [r5, #8]
    1b70:	4829      	ldr	r0, [pc, #164]	; (1c18 <main+0x1918>)
    1b72:	1b09      	subs	r1, r1, r4
    1b74:	f007 ff1a 	bl	99ac <printf>
    1b78:	4828      	ldr	r0, [pc, #160]	; (1c1c <main+0x191c>)
    1b7a:	f007 ff17 	bl	99ac <printf>
    1b7e:	4628      	mov	r0, r5
    1b80:	f002 fc2c 	bl	43dc <Chip_TIMER_Reset>
    1b84:	2340      	movs	r3, #64	; 0x40
    1b86:	4a26      	ldr	r2, [pc, #152]	; (1c20 <main+0x1920>)
    1b88:	606f      	str	r7, [r5, #4]
    1b8a:	4926      	ldr	r1, [pc, #152]	; (1c24 <main+0x1924>)
    1b8c:	482a      	ldr	r0, [pc, #168]	; (1c38 <main+0x1938>)
    1b8e:	f005 fc75 	bl	747c <arm_biquad_cascade_df1_fast_q31>
    1b92:	606e      	str	r6, [r5, #4]
    1b94:	68a9      	ldr	r1, [r5, #8]
    1b96:	4820      	ldr	r0, [pc, #128]	; (1c18 <main+0x1918>)
    1b98:	1b09      	subs	r1, r1, r4
    1b9a:	f007 ff07 	bl	99ac <printf>
    1b9e:	481f      	ldr	r0, [pc, #124]	; (1c1c <main+0x191c>)
    1ba0:	f007 ff04 	bl	99ac <printf>
    1ba4:	4628      	mov	r0, r5
    1ba6:	f002 fc19 	bl	43dc <Chip_TIMER_Reset>
    1baa:	2380      	movs	r3, #128	; 0x80
    1bac:	4a1c      	ldr	r2, [pc, #112]	; (1c20 <main+0x1920>)
    1bae:	606f      	str	r7, [r5, #4]
    1bb0:	491c      	ldr	r1, [pc, #112]	; (1c24 <main+0x1924>)
    1bb2:	4821      	ldr	r0, [pc, #132]	; (1c38 <main+0x1938>)
    1bb4:	f005 fc62 	bl	747c <arm_biquad_cascade_df1_fast_q31>
    1bb8:	606e      	str	r6, [r5, #4]
    1bba:	68a9      	ldr	r1, [r5, #8]
    1bbc:	4816      	ldr	r0, [pc, #88]	; (1c18 <main+0x1918>)
    1bbe:	1b09      	subs	r1, r1, r4
    1bc0:	f007 fef4 	bl	99ac <printf>
    1bc4:	4815      	ldr	r0, [pc, #84]	; (1c1c <main+0x191c>)
    1bc6:	f007 fef1 	bl	99ac <printf>
    1bca:	4628      	mov	r0, r5
    1bcc:	f002 fc06 	bl	43dc <Chip_TIMER_Reset>
    1bd0:	f44f 7380 	mov.w	r3, #256	; 0x100
    1bd4:	4a12      	ldr	r2, [pc, #72]	; (1c20 <main+0x1920>)
    1bd6:	606f      	str	r7, [r5, #4]
    1bd8:	4912      	ldr	r1, [pc, #72]	; (1c24 <main+0x1924>)
    1bda:	4817      	ldr	r0, [pc, #92]	; (1c38 <main+0x1938>)
    1bdc:	f005 fc4e 	bl	747c <arm_biquad_cascade_df1_fast_q31>
    1be0:	606e      	str	r6, [r5, #4]
    1be2:	68a9      	ldr	r1, [r5, #8]
    1be4:	480c      	ldr	r0, [pc, #48]	; (1c18 <main+0x1918>)
    1be6:	1b09      	subs	r1, r1, r4
    1be8:	f007 fee0 	bl	99ac <printf>
    1bec:	480b      	ldr	r0, [pc, #44]	; (1c1c <main+0x191c>)
    1bee:	f007 fedd 	bl	99ac <printf>
    1bf2:	4628      	mov	r0, r5
    1bf4:	f002 fbf2 	bl	43dc <Chip_TIMER_Reset>
    1bf8:	f44f 7300 	mov.w	r3, #512	; 0x200
    1bfc:	4a08      	ldr	r2, [pc, #32]	; (1c20 <main+0x1920>)
    1bfe:	606f      	str	r7, [r5, #4]
    1c00:	4908      	ldr	r1, [pc, #32]	; (1c24 <main+0x1924>)
    1c02:	480d      	ldr	r0, [pc, #52]	; (1c38 <main+0x1938>)
    1c04:	f005 fc3a 	bl	747c <arm_biquad_cascade_df1_fast_q31>
    1c08:	606e      	str	r6, [r5, #4]
    1c0a:	68a9      	ldr	r1, [r5, #8]
    1c0c:	4802      	ldr	r0, [pc, #8]	; (1c18 <main+0x1918>)
    1c0e:	1b09      	subs	r1, r1, r4
    1c10:	f007 fecc 	bl	99ac <printf>
    1c14:	e014      	b.n	1c40 <main+0x1940>
    1c16:	bf00      	nop
    1c18:	0000bb78 	.word	0x0000bb78
    1c1c:	0000bcd8 	.word	0x0000bcd8
    1c20:	20006508 	.word	0x20006508
    1c24:	200023fc 	.word	0x200023fc
    1c28:	0000bb10 	.word	0x0000bb10
    1c2c:	0000bc84 	.word	0x0000bc84
    1c30:	20000118 	.word	0x20000118
    1c34:	20000020 	.word	0x20000020
    1c38:	2000a508 	.word	0x2000a508
    1c3c:	0000bc98 	.word	0x0000bc98
    1c40:	48b4      	ldr	r0, [pc, #720]	; (1f14 <main+0x1c14>)
    1c42:	f007 feb3 	bl	99ac <printf>
    1c46:	4628      	mov	r0, r5
    1c48:	f002 fbc8 	bl	43dc <Chip_TIMER_Reset>
    1c4c:	f44f 6380 	mov.w	r3, #1024	; 0x400
    1c50:	4ab1      	ldr	r2, [pc, #708]	; (1f18 <main+0x1c18>)
    1c52:	606f      	str	r7, [r5, #4]
    1c54:	49b1      	ldr	r1, [pc, #708]	; (1f1c <main+0x1c1c>)
    1c56:	48b2      	ldr	r0, [pc, #712]	; (1f20 <main+0x1c20>)
    1c58:	f005 fc10 	bl	747c <arm_biquad_cascade_df1_fast_q31>
    1c5c:	606e      	str	r6, [r5, #4]
    1c5e:	68a9      	ldr	r1, [r5, #8]
    1c60:	48b0      	ldr	r0, [pc, #704]	; (1f24 <main+0x1c24>)
    1c62:	1b09      	subs	r1, r1, r4
    1c64:	f007 fea2 	bl	99ac <printf>
    1c68:	48aa      	ldr	r0, [pc, #680]	; (1f14 <main+0x1c14>)
    1c6a:	f007 fe9f 	bl	99ac <printf>
    1c6e:	4628      	mov	r0, r5
    1c70:	f002 fbb4 	bl	43dc <Chip_TIMER_Reset>
    1c74:	464b      	mov	r3, r9
    1c76:	4aa8      	ldr	r2, [pc, #672]	; (1f18 <main+0x1c18>)
    1c78:	606f      	str	r7, [r5, #4]
    1c7a:	49a8      	ldr	r1, [pc, #672]	; (1f1c <main+0x1c1c>)
    1c7c:	48a8      	ldr	r0, [pc, #672]	; (1f20 <main+0x1c20>)
    1c7e:	f005 fbfd 	bl	747c <arm_biquad_cascade_df1_fast_q31>
    1c82:	606e      	str	r6, [r5, #4]
    1c84:	68a9      	ldr	r1, [r5, #8]
    1c86:	48a7      	ldr	r0, [pc, #668]	; (1f24 <main+0x1c24>)
    1c88:	1b09      	subs	r1, r1, r4
    1c8a:	f007 fe8f 	bl	99ac <printf>
    1c8e:	48a1      	ldr	r0, [pc, #644]	; (1f14 <main+0x1c14>)
    1c90:	f007 fe8c 	bl	99ac <printf>
    1c94:	4628      	mov	r0, r5
    1c96:	f002 fba1 	bl	43dc <Chip_TIMER_Reset>
    1c9a:	f44f 5380 	mov.w	r3, #4096	; 0x1000
    1c9e:	4a9e      	ldr	r2, [pc, #632]	; (1f18 <main+0x1c18>)
    1ca0:	606f      	str	r7, [r5, #4]
    1ca2:	499e      	ldr	r1, [pc, #632]	; (1f1c <main+0x1c1c>)
    1ca4:	489e      	ldr	r0, [pc, #632]	; (1f20 <main+0x1c20>)
    1ca6:	f005 fbe9 	bl	747c <arm_biquad_cascade_df1_fast_q31>
    1caa:	606e      	str	r6, [r5, #4]
    1cac:	68a9      	ldr	r1, [r5, #8]
    1cae:	489d      	ldr	r0, [pc, #628]	; (1f24 <main+0x1c24>)
    1cb0:	1b09      	subs	r1, r1, r4
    1cb2:	f007 fe7b 	bl	99ac <printf>
    1cb6:	4897      	ldr	r0, [pc, #604]	; (1f14 <main+0x1c14>)
    1cb8:	f007 fe78 	bl	99ac <printf>
    1cbc:	489a      	ldr	r0, [pc, #616]	; (1f28 <main+0x1c28>)
    1cbe:	f007 fe75 	bl	99ac <printf>
    1cc2:	489a      	ldr	r0, [pc, #616]	; (1f2c <main+0x1c2c>)
    1cc4:	f007 fe72 	bl	99ac <printf>
    1cc8:	4639      	mov	r1, r7
    1cca:	4b99      	ldr	r3, [pc, #612]	; (1f30 <main+0x1c30>)
    1ccc:	4a99      	ldr	r2, [pc, #612]	; (1f34 <main+0x1c34>)
    1cce:	9700      	str	r7, [sp, #0]
    1cd0:	4893      	ldr	r0, [pc, #588]	; (1f20 <main+0x1c20>)
    1cd2:	f004 ff43 	bl	6b5c <arm_biquad_cas_df1_32x64_init_q31>
    1cd6:	4628      	mov	r0, r5
    1cd8:	f002 fb80 	bl	43dc <Chip_TIMER_Reset>
    1cdc:	2310      	movs	r3, #16
    1cde:	4a8e      	ldr	r2, [pc, #568]	; (1f18 <main+0x1c18>)
    1ce0:	606f      	str	r7, [r5, #4]
    1ce2:	498e      	ldr	r1, [pc, #568]	; (1f1c <main+0x1c1c>)
    1ce4:	488e      	ldr	r0, [pc, #568]	; (1f20 <main+0x1c20>)
    1ce6:	f004 ff49 	bl	6b7c <arm_biquad_cas_df1_32x64_q31>
    1cea:	606e      	str	r6, [r5, #4]
    1cec:	68a9      	ldr	r1, [r5, #8]
    1cee:	488d      	ldr	r0, [pc, #564]	; (1f24 <main+0x1c24>)
    1cf0:	1b09      	subs	r1, r1, r4
    1cf2:	f007 fe5b 	bl	99ac <printf>
    1cf6:	4887      	ldr	r0, [pc, #540]	; (1f14 <main+0x1c14>)
    1cf8:	f007 fe58 	bl	99ac <printf>
    1cfc:	4628      	mov	r0, r5
    1cfe:	f002 fb6d 	bl	43dc <Chip_TIMER_Reset>
    1d02:	2320      	movs	r3, #32
    1d04:	4a84      	ldr	r2, [pc, #528]	; (1f18 <main+0x1c18>)
    1d06:	606f      	str	r7, [r5, #4]
    1d08:	4984      	ldr	r1, [pc, #528]	; (1f1c <main+0x1c1c>)
    1d0a:	4885      	ldr	r0, [pc, #532]	; (1f20 <main+0x1c20>)
    1d0c:	f004 ff36 	bl	6b7c <arm_biquad_cas_df1_32x64_q31>
    1d10:	606e      	str	r6, [r5, #4]
    1d12:	68a9      	ldr	r1, [r5, #8]
    1d14:	4883      	ldr	r0, [pc, #524]	; (1f24 <main+0x1c24>)
    1d16:	1b09      	subs	r1, r1, r4
    1d18:	f007 fe48 	bl	99ac <printf>
    1d1c:	487d      	ldr	r0, [pc, #500]	; (1f14 <main+0x1c14>)
    1d1e:	f007 fe45 	bl	99ac <printf>
    1d22:	4628      	mov	r0, r5
    1d24:	f002 fb5a 	bl	43dc <Chip_TIMER_Reset>
    1d28:	2340      	movs	r3, #64	; 0x40
    1d2a:	4a7b      	ldr	r2, [pc, #492]	; (1f18 <main+0x1c18>)
    1d2c:	606f      	str	r7, [r5, #4]
    1d2e:	497b      	ldr	r1, [pc, #492]	; (1f1c <main+0x1c1c>)
    1d30:	487b      	ldr	r0, [pc, #492]	; (1f20 <main+0x1c20>)
    1d32:	f004 ff23 	bl	6b7c <arm_biquad_cas_df1_32x64_q31>
    1d36:	606e      	str	r6, [r5, #4]
    1d38:	68a9      	ldr	r1, [r5, #8]
    1d3a:	487a      	ldr	r0, [pc, #488]	; (1f24 <main+0x1c24>)
    1d3c:	1b09      	subs	r1, r1, r4
    1d3e:	f007 fe35 	bl	99ac <printf>
    1d42:	4874      	ldr	r0, [pc, #464]	; (1f14 <main+0x1c14>)
    1d44:	f007 fe32 	bl	99ac <printf>
    1d48:	4628      	mov	r0, r5
    1d4a:	f002 fb47 	bl	43dc <Chip_TIMER_Reset>
    1d4e:	2380      	movs	r3, #128	; 0x80
    1d50:	4a71      	ldr	r2, [pc, #452]	; (1f18 <main+0x1c18>)
    1d52:	606f      	str	r7, [r5, #4]
    1d54:	4971      	ldr	r1, [pc, #452]	; (1f1c <main+0x1c1c>)
    1d56:	4872      	ldr	r0, [pc, #456]	; (1f20 <main+0x1c20>)
    1d58:	f004 ff10 	bl	6b7c <arm_biquad_cas_df1_32x64_q31>
    1d5c:	606e      	str	r6, [r5, #4]
    1d5e:	68a9      	ldr	r1, [r5, #8]
    1d60:	4870      	ldr	r0, [pc, #448]	; (1f24 <main+0x1c24>)
    1d62:	1b09      	subs	r1, r1, r4
    1d64:	f007 fe22 	bl	99ac <printf>
    1d68:	486a      	ldr	r0, [pc, #424]	; (1f14 <main+0x1c14>)
    1d6a:	f007 fe1f 	bl	99ac <printf>
    1d6e:	4628      	mov	r0, r5
    1d70:	f002 fb34 	bl	43dc <Chip_TIMER_Reset>
    1d74:	f44f 7380 	mov.w	r3, #256	; 0x100
    1d78:	4a67      	ldr	r2, [pc, #412]	; (1f18 <main+0x1c18>)
    1d7a:	606f      	str	r7, [r5, #4]
    1d7c:	4967      	ldr	r1, [pc, #412]	; (1f1c <main+0x1c1c>)
    1d7e:	4868      	ldr	r0, [pc, #416]	; (1f20 <main+0x1c20>)
    1d80:	f004 fefc 	bl	6b7c <arm_biquad_cas_df1_32x64_q31>
    1d84:	606e      	str	r6, [r5, #4]
    1d86:	68a9      	ldr	r1, [r5, #8]
    1d88:	4866      	ldr	r0, [pc, #408]	; (1f24 <main+0x1c24>)
    1d8a:	1b09      	subs	r1, r1, r4
    1d8c:	f007 fe0e 	bl	99ac <printf>
    1d90:	4860      	ldr	r0, [pc, #384]	; (1f14 <main+0x1c14>)
    1d92:	f007 fe0b 	bl	99ac <printf>
    1d96:	4628      	mov	r0, r5
    1d98:	f002 fb20 	bl	43dc <Chip_TIMER_Reset>
    1d9c:	f44f 7300 	mov.w	r3, #512	; 0x200
    1da0:	4a5d      	ldr	r2, [pc, #372]	; (1f18 <main+0x1c18>)
    1da2:	606f      	str	r7, [r5, #4]
    1da4:	495d      	ldr	r1, [pc, #372]	; (1f1c <main+0x1c1c>)
    1da6:	485e      	ldr	r0, [pc, #376]	; (1f20 <main+0x1c20>)
    1da8:	f004 fee8 	bl	6b7c <arm_biquad_cas_df1_32x64_q31>
    1dac:	606e      	str	r6, [r5, #4]
    1dae:	68a9      	ldr	r1, [r5, #8]
    1db0:	485c      	ldr	r0, [pc, #368]	; (1f24 <main+0x1c24>)
    1db2:	1b09      	subs	r1, r1, r4
    1db4:	f007 fdfa 	bl	99ac <printf>
    1db8:	4856      	ldr	r0, [pc, #344]	; (1f14 <main+0x1c14>)
    1dba:	f007 fdf7 	bl	99ac <printf>
    1dbe:	4628      	mov	r0, r5
    1dc0:	f002 fb0c 	bl	43dc <Chip_TIMER_Reset>
    1dc4:	f44f 6380 	mov.w	r3, #1024	; 0x400
    1dc8:	4a53      	ldr	r2, [pc, #332]	; (1f18 <main+0x1c18>)
    1dca:	606f      	str	r7, [r5, #4]
    1dcc:	4953      	ldr	r1, [pc, #332]	; (1f1c <main+0x1c1c>)
    1dce:	4854      	ldr	r0, [pc, #336]	; (1f20 <main+0x1c20>)
    1dd0:	f004 fed4 	bl	6b7c <arm_biquad_cas_df1_32x64_q31>
    1dd4:	606e      	str	r6, [r5, #4]
    1dd6:	68a9      	ldr	r1, [r5, #8]
    1dd8:	4852      	ldr	r0, [pc, #328]	; (1f24 <main+0x1c24>)
    1dda:	1b09      	subs	r1, r1, r4
    1ddc:	f007 fde6 	bl	99ac <printf>
    1de0:	484c      	ldr	r0, [pc, #304]	; (1f14 <main+0x1c14>)
    1de2:	f007 fde3 	bl	99ac <printf>
    1de6:	4628      	mov	r0, r5
    1de8:	f002 faf8 	bl	43dc <Chip_TIMER_Reset>
    1dec:	464b      	mov	r3, r9
    1dee:	4a4a      	ldr	r2, [pc, #296]	; (1f18 <main+0x1c18>)
    1df0:	606f      	str	r7, [r5, #4]
    1df2:	494a      	ldr	r1, [pc, #296]	; (1f1c <main+0x1c1c>)
    1df4:	484a      	ldr	r0, [pc, #296]	; (1f20 <main+0x1c20>)
    1df6:	f004 fec1 	bl	6b7c <arm_biquad_cas_df1_32x64_q31>
    1dfa:	606e      	str	r6, [r5, #4]
    1dfc:	68a9      	ldr	r1, [r5, #8]
    1dfe:	4849      	ldr	r0, [pc, #292]	; (1f24 <main+0x1c24>)
    1e00:	1b09      	subs	r1, r1, r4
    1e02:	f007 fdd3 	bl	99ac <printf>
    1e06:	4843      	ldr	r0, [pc, #268]	; (1f14 <main+0x1c14>)
    1e08:	f007 fdd0 	bl	99ac <printf>
    1e0c:	4628      	mov	r0, r5
    1e0e:	f002 fae5 	bl	43dc <Chip_TIMER_Reset>
    1e12:	f44f 5380 	mov.w	r3, #4096	; 0x1000
    1e16:	4a40      	ldr	r2, [pc, #256]	; (1f18 <main+0x1c18>)
    1e18:	606f      	str	r7, [r5, #4]
    1e1a:	4940      	ldr	r1, [pc, #256]	; (1f1c <main+0x1c1c>)
    1e1c:	4840      	ldr	r0, [pc, #256]	; (1f20 <main+0x1c20>)
    1e1e:	f004 fead 	bl	6b7c <arm_biquad_cas_df1_32x64_q31>
    1e22:	606e      	str	r6, [r5, #4]
    1e24:	68a9      	ldr	r1, [r5, #8]
    1e26:	483f      	ldr	r0, [pc, #252]	; (1f24 <main+0x1c24>)
    1e28:	1b09      	subs	r1, r1, r4
    1e2a:	f007 fdbf 	bl	99ac <printf>
    1e2e:	4839      	ldr	r0, [pc, #228]	; (1f14 <main+0x1c14>)
    1e30:	f007 fdbc 	bl	99ac <printf>
    1e34:	483c      	ldr	r0, [pc, #240]	; (1f28 <main+0x1c28>)
    1e36:	f007 fdb9 	bl	99ac <printf>
    1e3a:	483f      	ldr	r0, [pc, #252]	; (1f38 <main+0x1c38>)
    1e3c:	f007 fdb6 	bl	99ac <printf>
    1e40:	4b3e      	ldr	r3, [pc, #248]	; (1f3c <main+0x1c3c>)
    1e42:	4a3f      	ldr	r2, [pc, #252]	; (1f40 <main+0x1c40>)
    1e44:	f8cd 9000 	str.w	r9, [sp]
    1e48:	2108      	movs	r1, #8
    1e4a:	483e      	ldr	r0, [pc, #248]	; (1f44 <main+0x1c44>)
    1e4c:	f006 f9c0 	bl	81d0 <arm_fir_init_q31>
    1e50:	4628      	mov	r0, r5
    1e52:	f002 fac3 	bl	43dc <Chip_TIMER_Reset>
    1e56:	2310      	movs	r3, #16
    1e58:	4a2f      	ldr	r2, [pc, #188]	; (1f18 <main+0x1c18>)
    1e5a:	606f      	str	r7, [r5, #4]
    1e5c:	492f      	ldr	r1, [pc, #188]	; (1f1c <main+0x1c1c>)
    1e5e:	4839      	ldr	r0, [pc, #228]	; (1f44 <main+0x1c44>)
    1e60:	f006 fb0e 	bl	8480 <arm_fir_q31>
    1e64:	606e      	str	r6, [r5, #4]
    1e66:	68a9      	ldr	r1, [r5, #8]
    1e68:	482e      	ldr	r0, [pc, #184]	; (1f24 <main+0x1c24>)
    1e6a:	1b09      	subs	r1, r1, r4
    1e6c:	f007 fd9e 	bl	99ac <printf>
    1e70:	4828      	ldr	r0, [pc, #160]	; (1f14 <main+0x1c14>)
    1e72:	f007 fd9b 	bl	99ac <printf>
    1e76:	4628      	mov	r0, r5
    1e78:	f002 fab0 	bl	43dc <Chip_TIMER_Reset>
    1e7c:	2320      	movs	r3, #32
    1e7e:	4a26      	ldr	r2, [pc, #152]	; (1f18 <main+0x1c18>)
    1e80:	606f      	str	r7, [r5, #4]
    1e82:	4926      	ldr	r1, [pc, #152]	; (1f1c <main+0x1c1c>)
    1e84:	482f      	ldr	r0, [pc, #188]	; (1f44 <main+0x1c44>)
    1e86:	f006 fafb 	bl	8480 <arm_fir_q31>
    1e8a:	606e      	str	r6, [r5, #4]
    1e8c:	68a9      	ldr	r1, [r5, #8]
    1e8e:	4825      	ldr	r0, [pc, #148]	; (1f24 <main+0x1c24>)
    1e90:	1b09      	subs	r1, r1, r4
    1e92:	f007 fd8b 	bl	99ac <printf>
    1e96:	481f      	ldr	r0, [pc, #124]	; (1f14 <main+0x1c14>)
    1e98:	f007 fd88 	bl	99ac <printf>
    1e9c:	4628      	mov	r0, r5
    1e9e:	f002 fa9d 	bl	43dc <Chip_TIMER_Reset>
    1ea2:	2340      	movs	r3, #64	; 0x40
    1ea4:	4a1c      	ldr	r2, [pc, #112]	; (1f18 <main+0x1c18>)
    1ea6:	606f      	str	r7, [r5, #4]
    1ea8:	491c      	ldr	r1, [pc, #112]	; (1f1c <main+0x1c1c>)
    1eaa:	4826      	ldr	r0, [pc, #152]	; (1f44 <main+0x1c44>)
    1eac:	f006 fae8 	bl	8480 <arm_fir_q31>
    1eb0:	606e      	str	r6, [r5, #4]
    1eb2:	68a9      	ldr	r1, [r5, #8]
    1eb4:	481b      	ldr	r0, [pc, #108]	; (1f24 <main+0x1c24>)
    1eb6:	1b09      	subs	r1, r1, r4
    1eb8:	f007 fd78 	bl	99ac <printf>
    1ebc:	4815      	ldr	r0, [pc, #84]	; (1f14 <main+0x1c14>)
    1ebe:	f007 fd75 	bl	99ac <printf>
    1ec2:	4628      	mov	r0, r5
    1ec4:	f002 fa8a 	bl	43dc <Chip_TIMER_Reset>
    1ec8:	2380      	movs	r3, #128	; 0x80
    1eca:	4a13      	ldr	r2, [pc, #76]	; (1f18 <main+0x1c18>)
    1ecc:	606f      	str	r7, [r5, #4]
    1ece:	4913      	ldr	r1, [pc, #76]	; (1f1c <main+0x1c1c>)
    1ed0:	481c      	ldr	r0, [pc, #112]	; (1f44 <main+0x1c44>)
    1ed2:	f006 fad5 	bl	8480 <arm_fir_q31>
    1ed6:	606e      	str	r6, [r5, #4]
    1ed8:	68a9      	ldr	r1, [r5, #8]
    1eda:	4812      	ldr	r0, [pc, #72]	; (1f24 <main+0x1c24>)
    1edc:	1b09      	subs	r1, r1, r4
    1ede:	f007 fd65 	bl	99ac <printf>
    1ee2:	480c      	ldr	r0, [pc, #48]	; (1f14 <main+0x1c14>)
    1ee4:	f007 fd62 	bl	99ac <printf>
    1ee8:	4628      	mov	r0, r5
    1eea:	f002 fa77 	bl	43dc <Chip_TIMER_Reset>
    1eee:	f44f 7380 	mov.w	r3, #256	; 0x100
    1ef2:	4a09      	ldr	r2, [pc, #36]	; (1f18 <main+0x1c18>)
    1ef4:	606f      	str	r7, [r5, #4]
    1ef6:	4909      	ldr	r1, [pc, #36]	; (1f1c <main+0x1c1c>)
    1ef8:	4812      	ldr	r0, [pc, #72]	; (1f44 <main+0x1c44>)
    1efa:	f006 fac1 	bl	8480 <arm_fir_q31>
    1efe:	606e      	str	r6, [r5, #4]
    1f00:	68a9      	ldr	r1, [r5, #8]
    1f02:	4808      	ldr	r0, [pc, #32]	; (1f24 <main+0x1c24>)
    1f04:	1b09      	subs	r1, r1, r4
    1f06:	f007 fd51 	bl	99ac <printf>
    1f0a:	4802      	ldr	r0, [pc, #8]	; (1f14 <main+0x1c14>)
    1f0c:	f007 fd4e 	bl	99ac <printf>
    1f10:	e01a      	b.n	1f48 <main+0x1c48>
    1f12:	bf00      	nop
    1f14:	0000bcd8 	.word	0x0000bcd8
    1f18:	20006508 	.word	0x20006508
    1f1c:	200023fc 	.word	0x200023fc
    1f20:	2000a508 	.word	0x2000a508
    1f24:	0000bb78 	.word	0x0000bb78
    1f28:	0000bb10 	.word	0x0000bb10
    1f2c:	0000bcb4 	.word	0x0000bcb4
    1f30:	20000138 	.word	0x20000138
    1f34:	20000020 	.word	0x20000020
    1f38:	0000bccc 	.word	0x0000bccc
    1f3c:	20000348 	.word	0x20000348
    1f40:	20006488 	.word	0x20006488
    1f44:	2000647c 	.word	0x2000647c
    1f48:	4628      	mov	r0, r5
    1f4a:	f002 fa47 	bl	43dc <Chip_TIMER_Reset>
    1f4e:	f44f 7300 	mov.w	r3, #512	; 0x200
    1f52:	4ab4      	ldr	r2, [pc, #720]	; (2224 <main+0x1f24>)
    1f54:	606f      	str	r7, [r5, #4]
    1f56:	49b4      	ldr	r1, [pc, #720]	; (2228 <main+0x1f28>)
    1f58:	48b4      	ldr	r0, [pc, #720]	; (222c <main+0x1f2c>)
    1f5a:	f006 fa91 	bl	8480 <arm_fir_q31>
    1f5e:	606e      	str	r6, [r5, #4]
    1f60:	68a9      	ldr	r1, [r5, #8]
    1f62:	48b3      	ldr	r0, [pc, #716]	; (2230 <main+0x1f30>)
    1f64:	1b09      	subs	r1, r1, r4
    1f66:	f007 fd21 	bl	99ac <printf>
    1f6a:	48b2      	ldr	r0, [pc, #712]	; (2234 <main+0x1f34>)
    1f6c:	f007 fd1e 	bl	99ac <printf>
    1f70:	4628      	mov	r0, r5
    1f72:	f002 fa33 	bl	43dc <Chip_TIMER_Reset>
    1f76:	f44f 6380 	mov.w	r3, #1024	; 0x400
    1f7a:	4aaa      	ldr	r2, [pc, #680]	; (2224 <main+0x1f24>)
    1f7c:	606f      	str	r7, [r5, #4]
    1f7e:	49aa      	ldr	r1, [pc, #680]	; (2228 <main+0x1f28>)
    1f80:	48aa      	ldr	r0, [pc, #680]	; (222c <main+0x1f2c>)
    1f82:	f006 fa7d 	bl	8480 <arm_fir_q31>
    1f86:	606e      	str	r6, [r5, #4]
    1f88:	68a9      	ldr	r1, [r5, #8]
    1f8a:	48a9      	ldr	r0, [pc, #676]	; (2230 <main+0x1f30>)
    1f8c:	1b09      	subs	r1, r1, r4
    1f8e:	f007 fd0d 	bl	99ac <printf>
    1f92:	48a8      	ldr	r0, [pc, #672]	; (2234 <main+0x1f34>)
    1f94:	f007 fd0a 	bl	99ac <printf>
    1f98:	4628      	mov	r0, r5
    1f9a:	f002 fa1f 	bl	43dc <Chip_TIMER_Reset>
    1f9e:	464b      	mov	r3, r9
    1fa0:	4aa0      	ldr	r2, [pc, #640]	; (2224 <main+0x1f24>)
    1fa2:	606f      	str	r7, [r5, #4]
    1fa4:	49a0      	ldr	r1, [pc, #640]	; (2228 <main+0x1f28>)
    1fa6:	48a1      	ldr	r0, [pc, #644]	; (222c <main+0x1f2c>)
    1fa8:	f006 fa6a 	bl	8480 <arm_fir_q31>
    1fac:	606e      	str	r6, [r5, #4]
    1fae:	68a9      	ldr	r1, [r5, #8]
    1fb0:	489f      	ldr	r0, [pc, #636]	; (2230 <main+0x1f30>)
    1fb2:	1b09      	subs	r1, r1, r4
    1fb4:	f007 fcfa 	bl	99ac <printf>
    1fb8:	489e      	ldr	r0, [pc, #632]	; (2234 <main+0x1f34>)
    1fba:	f007 fcf7 	bl	99ac <printf>
    1fbe:	489e      	ldr	r0, [pc, #632]	; (2238 <main+0x1f38>)
    1fc0:	f007 fcf4 	bl	99ac <printf>
    1fc4:	489d      	ldr	r0, [pc, #628]	; (223c <main+0x1f3c>)
    1fc6:	f007 fcf1 	bl	99ac <printf>
    1fca:	489d      	ldr	r0, [pc, #628]	; (2240 <main+0x1f40>)
    1fcc:	f007 fcee 	bl	99ac <printf>
    1fd0:	4b9c      	ldr	r3, [pc, #624]	; (2244 <main+0x1f44>)
    1fd2:	4a9d      	ldr	r2, [pc, #628]	; (2248 <main+0x1f48>)
    1fd4:	f8cd 9000 	str.w	r9, [sp]
    1fd8:	2110      	movs	r1, #16
    1fda:	4894      	ldr	r0, [pc, #592]	; (222c <main+0x1f2c>)
    1fdc:	f006 f8f8 	bl	81d0 <arm_fir_init_q31>
    1fe0:	4628      	mov	r0, r5
    1fe2:	f002 f9fb 	bl	43dc <Chip_TIMER_Reset>
    1fe6:	2310      	movs	r3, #16
    1fe8:	4a8e      	ldr	r2, [pc, #568]	; (2224 <main+0x1f24>)
    1fea:	606f      	str	r7, [r5, #4]
    1fec:	498e      	ldr	r1, [pc, #568]	; (2228 <main+0x1f28>)
    1fee:	488f      	ldr	r0, [pc, #572]	; (222c <main+0x1f2c>)
    1ff0:	f006 fa46 	bl	8480 <arm_fir_q31>
    1ff4:	606e      	str	r6, [r5, #4]
    1ff6:	68a9      	ldr	r1, [r5, #8]
    1ff8:	488d      	ldr	r0, [pc, #564]	; (2230 <main+0x1f30>)
    1ffa:	1b09      	subs	r1, r1, r4
    1ffc:	f007 fcd6 	bl	99ac <printf>
    2000:	488c      	ldr	r0, [pc, #560]	; (2234 <main+0x1f34>)
    2002:	f007 fcd3 	bl	99ac <printf>
    2006:	4628      	mov	r0, r5
    2008:	f002 f9e8 	bl	43dc <Chip_TIMER_Reset>
    200c:	2320      	movs	r3, #32
    200e:	4a85      	ldr	r2, [pc, #532]	; (2224 <main+0x1f24>)
    2010:	606f      	str	r7, [r5, #4]
    2012:	4985      	ldr	r1, [pc, #532]	; (2228 <main+0x1f28>)
    2014:	4885      	ldr	r0, [pc, #532]	; (222c <main+0x1f2c>)
    2016:	f006 fa33 	bl	8480 <arm_fir_q31>
    201a:	606e      	str	r6, [r5, #4]
    201c:	68a9      	ldr	r1, [r5, #8]
    201e:	4884      	ldr	r0, [pc, #528]	; (2230 <main+0x1f30>)
    2020:	1b09      	subs	r1, r1, r4
    2022:	f007 fcc3 	bl	99ac <printf>
    2026:	4883      	ldr	r0, [pc, #524]	; (2234 <main+0x1f34>)
    2028:	f007 fcc0 	bl	99ac <printf>
    202c:	4628      	mov	r0, r5
    202e:	f002 f9d5 	bl	43dc <Chip_TIMER_Reset>
    2032:	2340      	movs	r3, #64	; 0x40
    2034:	4a7b      	ldr	r2, [pc, #492]	; (2224 <main+0x1f24>)
    2036:	606f      	str	r7, [r5, #4]
    2038:	497b      	ldr	r1, [pc, #492]	; (2228 <main+0x1f28>)
    203a:	487c      	ldr	r0, [pc, #496]	; (222c <main+0x1f2c>)
    203c:	f006 fa20 	bl	8480 <arm_fir_q31>
    2040:	606e      	str	r6, [r5, #4]
    2042:	68a9      	ldr	r1, [r5, #8]
    2044:	487a      	ldr	r0, [pc, #488]	; (2230 <main+0x1f30>)
    2046:	1b09      	subs	r1, r1, r4
    2048:	f007 fcb0 	bl	99ac <printf>
    204c:	4879      	ldr	r0, [pc, #484]	; (2234 <main+0x1f34>)
    204e:	f007 fcad 	bl	99ac <printf>
    2052:	4628      	mov	r0, r5
    2054:	f002 f9c2 	bl	43dc <Chip_TIMER_Reset>
    2058:	2380      	movs	r3, #128	; 0x80
    205a:	4a72      	ldr	r2, [pc, #456]	; (2224 <main+0x1f24>)
    205c:	606f      	str	r7, [r5, #4]
    205e:	4972      	ldr	r1, [pc, #456]	; (2228 <main+0x1f28>)
    2060:	4872      	ldr	r0, [pc, #456]	; (222c <main+0x1f2c>)
    2062:	f006 fa0d 	bl	8480 <arm_fir_q31>
    2066:	606e      	str	r6, [r5, #4]
    2068:	68a9      	ldr	r1, [r5, #8]
    206a:	4871      	ldr	r0, [pc, #452]	; (2230 <main+0x1f30>)
    206c:	1b09      	subs	r1, r1, r4
    206e:	f007 fc9d 	bl	99ac <printf>
    2072:	4870      	ldr	r0, [pc, #448]	; (2234 <main+0x1f34>)
    2074:	f007 fc9a 	bl	99ac <printf>
    2078:	4628      	mov	r0, r5
    207a:	f002 f9af 	bl	43dc <Chip_TIMER_Reset>
    207e:	f44f 7380 	mov.w	r3, #256	; 0x100
    2082:	4a68      	ldr	r2, [pc, #416]	; (2224 <main+0x1f24>)
    2084:	606f      	str	r7, [r5, #4]
    2086:	4968      	ldr	r1, [pc, #416]	; (2228 <main+0x1f28>)
    2088:	4868      	ldr	r0, [pc, #416]	; (222c <main+0x1f2c>)
    208a:	f006 f9f9 	bl	8480 <arm_fir_q31>
    208e:	606e      	str	r6, [r5, #4]
    2090:	68a9      	ldr	r1, [r5, #8]
    2092:	4867      	ldr	r0, [pc, #412]	; (2230 <main+0x1f30>)
    2094:	1b09      	subs	r1, r1, r4
    2096:	f007 fc89 	bl	99ac <printf>
    209a:	4866      	ldr	r0, [pc, #408]	; (2234 <main+0x1f34>)
    209c:	f007 fc86 	bl	99ac <printf>
    20a0:	4628      	mov	r0, r5
    20a2:	f002 f99b 	bl	43dc <Chip_TIMER_Reset>
    20a6:	f44f 7300 	mov.w	r3, #512	; 0x200
    20aa:	4a5e      	ldr	r2, [pc, #376]	; (2224 <main+0x1f24>)
    20ac:	606f      	str	r7, [r5, #4]
    20ae:	495e      	ldr	r1, [pc, #376]	; (2228 <main+0x1f28>)
    20b0:	485e      	ldr	r0, [pc, #376]	; (222c <main+0x1f2c>)
    20b2:	f006 f9e5 	bl	8480 <arm_fir_q31>
    20b6:	606e      	str	r6, [r5, #4]
    20b8:	68a9      	ldr	r1, [r5, #8]
    20ba:	485d      	ldr	r0, [pc, #372]	; (2230 <main+0x1f30>)
    20bc:	1b09      	subs	r1, r1, r4
    20be:	f007 fc75 	bl	99ac <printf>
    20c2:	485c      	ldr	r0, [pc, #368]	; (2234 <main+0x1f34>)
    20c4:	f007 fc72 	bl	99ac <printf>
    20c8:	4628      	mov	r0, r5
    20ca:	f002 f987 	bl	43dc <Chip_TIMER_Reset>
    20ce:	f44f 6380 	mov.w	r3, #1024	; 0x400
    20d2:	4a54      	ldr	r2, [pc, #336]	; (2224 <main+0x1f24>)
    20d4:	606f      	str	r7, [r5, #4]
    20d6:	4954      	ldr	r1, [pc, #336]	; (2228 <main+0x1f28>)
    20d8:	4854      	ldr	r0, [pc, #336]	; (222c <main+0x1f2c>)
    20da:	f006 f9d1 	bl	8480 <arm_fir_q31>
    20de:	606e      	str	r6, [r5, #4]
    20e0:	68a9      	ldr	r1, [r5, #8]
    20e2:	4853      	ldr	r0, [pc, #332]	; (2230 <main+0x1f30>)
    20e4:	1b09      	subs	r1, r1, r4
    20e6:	f007 fc61 	bl	99ac <printf>
    20ea:	4852      	ldr	r0, [pc, #328]	; (2234 <main+0x1f34>)
    20ec:	f007 fc5e 	bl	99ac <printf>
    20f0:	4628      	mov	r0, r5
    20f2:	f002 f973 	bl	43dc <Chip_TIMER_Reset>
    20f6:	464b      	mov	r3, r9
    20f8:	4a4a      	ldr	r2, [pc, #296]	; (2224 <main+0x1f24>)
    20fa:	606f      	str	r7, [r5, #4]
    20fc:	494a      	ldr	r1, [pc, #296]	; (2228 <main+0x1f28>)
    20fe:	484b      	ldr	r0, [pc, #300]	; (222c <main+0x1f2c>)
    2100:	f006 f9be 	bl	8480 <arm_fir_q31>
    2104:	606e      	str	r6, [r5, #4]
    2106:	68a9      	ldr	r1, [r5, #8]
    2108:	4849      	ldr	r0, [pc, #292]	; (2230 <main+0x1f30>)
    210a:	1b09      	subs	r1, r1, r4
    210c:	f007 fc4e 	bl	99ac <printf>
    2110:	4848      	ldr	r0, [pc, #288]	; (2234 <main+0x1f34>)
    2112:	f007 fc4b 	bl	99ac <printf>
    2116:	4848      	ldr	r0, [pc, #288]	; (2238 <main+0x1f38>)
    2118:	f007 fc48 	bl	99ac <printf>
    211c:	4847      	ldr	r0, [pc, #284]	; (223c <main+0x1f3c>)
    211e:	f007 fc45 	bl	99ac <printf>
    2122:	484a      	ldr	r0, [pc, #296]	; (224c <main+0x1f4c>)
    2124:	f007 fc42 	bl	99ac <printf>
    2128:	4b46      	ldr	r3, [pc, #280]	; (2244 <main+0x1f44>)
    212a:	4a47      	ldr	r2, [pc, #284]	; (2248 <main+0x1f48>)
    212c:	f8cd 9000 	str.w	r9, [sp]
    2130:	2120      	movs	r1, #32
    2132:	483e      	ldr	r0, [pc, #248]	; (222c <main+0x1f2c>)
    2134:	f006 f84c 	bl	81d0 <arm_fir_init_q31>
    2138:	4628      	mov	r0, r5
    213a:	f002 f94f 	bl	43dc <Chip_TIMER_Reset>
    213e:	2310      	movs	r3, #16
    2140:	4a38      	ldr	r2, [pc, #224]	; (2224 <main+0x1f24>)
    2142:	606f      	str	r7, [r5, #4]
    2144:	4938      	ldr	r1, [pc, #224]	; (2228 <main+0x1f28>)
    2146:	4839      	ldr	r0, [pc, #228]	; (222c <main+0x1f2c>)
    2148:	f006 f99a 	bl	8480 <arm_fir_q31>
    214c:	606e      	str	r6, [r5, #4]
    214e:	68a9      	ldr	r1, [r5, #8]
    2150:	4837      	ldr	r0, [pc, #220]	; (2230 <main+0x1f30>)
    2152:	1b09      	subs	r1, r1, r4
    2154:	f007 fc2a 	bl	99ac <printf>
    2158:	4836      	ldr	r0, [pc, #216]	; (2234 <main+0x1f34>)
    215a:	f007 fc27 	bl	99ac <printf>
    215e:	4628      	mov	r0, r5
    2160:	f002 f93c 	bl	43dc <Chip_TIMER_Reset>
    2164:	2320      	movs	r3, #32
    2166:	4a2f      	ldr	r2, [pc, #188]	; (2224 <main+0x1f24>)
    2168:	606f      	str	r7, [r5, #4]
    216a:	492f      	ldr	r1, [pc, #188]	; (2228 <main+0x1f28>)
    216c:	482f      	ldr	r0, [pc, #188]	; (222c <main+0x1f2c>)
    216e:	f006 f987 	bl	8480 <arm_fir_q31>
    2172:	606e      	str	r6, [r5, #4]
    2174:	68a9      	ldr	r1, [r5, #8]
    2176:	482e      	ldr	r0, [pc, #184]	; (2230 <main+0x1f30>)
    2178:	1b09      	subs	r1, r1, r4
    217a:	f007 fc17 	bl	99ac <printf>
    217e:	482d      	ldr	r0, [pc, #180]	; (2234 <main+0x1f34>)
    2180:	f007 fc14 	bl	99ac <printf>
    2184:	4628      	mov	r0, r5
    2186:	f002 f929 	bl	43dc <Chip_TIMER_Reset>
    218a:	2340      	movs	r3, #64	; 0x40
    218c:	4a25      	ldr	r2, [pc, #148]	; (2224 <main+0x1f24>)
    218e:	606f      	str	r7, [r5, #4]
    2190:	4925      	ldr	r1, [pc, #148]	; (2228 <main+0x1f28>)
    2192:	4826      	ldr	r0, [pc, #152]	; (222c <main+0x1f2c>)
    2194:	f006 f974 	bl	8480 <arm_fir_q31>
    2198:	606e      	str	r6, [r5, #4]
    219a:	68a9      	ldr	r1, [r5, #8]
    219c:	4824      	ldr	r0, [pc, #144]	; (2230 <main+0x1f30>)
    219e:	1b09      	subs	r1, r1, r4
    21a0:	f007 fc04 	bl	99ac <printf>
    21a4:	4823      	ldr	r0, [pc, #140]	; (2234 <main+0x1f34>)
    21a6:	f007 fc01 	bl	99ac <printf>
    21aa:	4628      	mov	r0, r5
    21ac:	f002 f916 	bl	43dc <Chip_TIMER_Reset>
    21b0:	2380      	movs	r3, #128	; 0x80
    21b2:	4a1c      	ldr	r2, [pc, #112]	; (2224 <main+0x1f24>)
    21b4:	606f      	str	r7, [r5, #4]
    21b6:	491c      	ldr	r1, [pc, #112]	; (2228 <main+0x1f28>)
    21b8:	481c      	ldr	r0, [pc, #112]	; (222c <main+0x1f2c>)
    21ba:	f006 f961 	bl	8480 <arm_fir_q31>
    21be:	606e      	str	r6, [r5, #4]
    21c0:	68a9      	ldr	r1, [r5, #8]
    21c2:	481b      	ldr	r0, [pc, #108]	; (2230 <main+0x1f30>)
    21c4:	1b09      	subs	r1, r1, r4
    21c6:	f007 fbf1 	bl	99ac <printf>
    21ca:	481a      	ldr	r0, [pc, #104]	; (2234 <main+0x1f34>)
    21cc:	f007 fbee 	bl	99ac <printf>
    21d0:	4628      	mov	r0, r5
    21d2:	f002 f903 	bl	43dc <Chip_TIMER_Reset>
    21d6:	f44f 7380 	mov.w	r3, #256	; 0x100
    21da:	4a12      	ldr	r2, [pc, #72]	; (2224 <main+0x1f24>)
    21dc:	606f      	str	r7, [r5, #4]
    21de:	4912      	ldr	r1, [pc, #72]	; (2228 <main+0x1f28>)
    21e0:	4812      	ldr	r0, [pc, #72]	; (222c <main+0x1f2c>)
    21e2:	f006 f94d 	bl	8480 <arm_fir_q31>
    21e6:	606e      	str	r6, [r5, #4]
    21e8:	68a9      	ldr	r1, [r5, #8]
    21ea:	4811      	ldr	r0, [pc, #68]	; (2230 <main+0x1f30>)
    21ec:	1b09      	subs	r1, r1, r4
    21ee:	f007 fbdd 	bl	99ac <printf>
    21f2:	4810      	ldr	r0, [pc, #64]	; (2234 <main+0x1f34>)
    21f4:	f007 fbda 	bl	99ac <printf>
    21f8:	4628      	mov	r0, r5
    21fa:	f002 f8ef 	bl	43dc <Chip_TIMER_Reset>
    21fe:	f44f 7300 	mov.w	r3, #512	; 0x200
    2202:	4a08      	ldr	r2, [pc, #32]	; (2224 <main+0x1f24>)
    2204:	606f      	str	r7, [r5, #4]
    2206:	4908      	ldr	r1, [pc, #32]	; (2228 <main+0x1f28>)
    2208:	4808      	ldr	r0, [pc, #32]	; (222c <main+0x1f2c>)
    220a:	f006 f939 	bl	8480 <arm_fir_q31>
    220e:	606e      	str	r6, [r5, #4]
    2210:	68a9      	ldr	r1, [r5, #8]
    2212:	4807      	ldr	r0, [pc, #28]	; (2230 <main+0x1f30>)
    2214:	1b09      	subs	r1, r1, r4
    2216:	f007 fbc9 	bl	99ac <printf>
    221a:	4806      	ldr	r0, [pc, #24]	; (2234 <main+0x1f34>)
    221c:	f007 fbc6 	bl	99ac <printf>
    2220:	4628      	mov	r0, r5
    2222:	e015      	b.n	2250 <main+0x1f50>
    2224:	20006508 	.word	0x20006508
    2228:	200023fc 	.word	0x200023fc
    222c:	2000647c 	.word	0x2000647c
    2230:	0000bb78 	.word	0x0000bb78
    2234:	0000bcd8 	.word	0x0000bcd8
    2238:	0000bc08 	.word	0x0000bc08
    223c:	0000bb10 	.word	0x0000bb10
    2240:	0000bcdc 	.word	0x0000bcdc
    2244:	20000348 	.word	0x20000348
    2248:	20006488 	.word	0x20006488
    224c:	0000bcec 	.word	0x0000bcec
    2250:	f002 f8c4 	bl	43dc <Chip_TIMER_Reset>
    2254:	f44f 6380 	mov.w	r3, #1024	; 0x400
    2258:	4ab8      	ldr	r2, [pc, #736]	; (253c <main+0x223c>)
    225a:	606f      	str	r7, [r5, #4]
    225c:	49b8      	ldr	r1, [pc, #736]	; (2540 <main+0x2240>)
    225e:	48b9      	ldr	r0, [pc, #740]	; (2544 <main+0x2244>)
    2260:	f006 f90e 	bl	8480 <arm_fir_q31>
    2264:	606e      	str	r6, [r5, #4]
    2266:	68a9      	ldr	r1, [r5, #8]
    2268:	48b7      	ldr	r0, [pc, #732]	; (2548 <main+0x2248>)
    226a:	1b09      	subs	r1, r1, r4
    226c:	f007 fb9e 	bl	99ac <printf>
    2270:	48b6      	ldr	r0, [pc, #728]	; (254c <main+0x224c>)
    2272:	f007 fb9b 	bl	99ac <printf>
    2276:	4628      	mov	r0, r5
    2278:	f002 f8b0 	bl	43dc <Chip_TIMER_Reset>
    227c:	464b      	mov	r3, r9
    227e:	4aaf      	ldr	r2, [pc, #700]	; (253c <main+0x223c>)
    2280:	606f      	str	r7, [r5, #4]
    2282:	49af      	ldr	r1, [pc, #700]	; (2540 <main+0x2240>)
    2284:	48af      	ldr	r0, [pc, #700]	; (2544 <main+0x2244>)
    2286:	f006 f8fb 	bl	8480 <arm_fir_q31>
    228a:	606e      	str	r6, [r5, #4]
    228c:	68a9      	ldr	r1, [r5, #8]
    228e:	48ae      	ldr	r0, [pc, #696]	; (2548 <main+0x2248>)
    2290:	1b09      	subs	r1, r1, r4
    2292:	f007 fb8b 	bl	99ac <printf>
    2296:	48ad      	ldr	r0, [pc, #692]	; (254c <main+0x224c>)
    2298:	f007 fb88 	bl	99ac <printf>
    229c:	48ac      	ldr	r0, [pc, #688]	; (2550 <main+0x2250>)
    229e:	f007 fb85 	bl	99ac <printf>
    22a2:	48ac      	ldr	r0, [pc, #688]	; (2554 <main+0x2254>)
    22a4:	f007 fb82 	bl	99ac <printf>
    22a8:	48ab      	ldr	r0, [pc, #684]	; (2558 <main+0x2258>)
    22aa:	f007 fb7f 	bl	99ac <printf>
    22ae:	4628      	mov	r0, r5
    22b0:	f002 f894 	bl	43dc <Chip_TIMER_Reset>
    22b4:	463b      	mov	r3, r7
    22b6:	4632      	mov	r2, r6
    22b8:	606f      	str	r7, [r5, #4]
    22ba:	49a1      	ldr	r1, [pc, #644]	; (2540 <main+0x2240>)
    22bc:	48a7      	ldr	r0, [pc, #668]	; (255c <main+0x225c>)
    22be:	f003 f8ed 	bl	549c <arm_cfft_q15>
    22c2:	606e      	str	r6, [r5, #4]
    22c4:	68a9      	ldr	r1, [r5, #8]
    22c6:	48a0      	ldr	r0, [pc, #640]	; (2548 <main+0x2248>)
    22c8:	1b09      	subs	r1, r1, r4
    22ca:	f007 fb6f 	bl	99ac <printf>
    22ce:	489f      	ldr	r0, [pc, #636]	; (254c <main+0x224c>)
    22d0:	f007 fb6c 	bl	99ac <printf>
    22d4:	4628      	mov	r0, r5
    22d6:	f002 f881 	bl	43dc <Chip_TIMER_Reset>
    22da:	463b      	mov	r3, r7
    22dc:	4632      	mov	r2, r6
    22de:	606f      	str	r7, [r5, #4]
    22e0:	4997      	ldr	r1, [pc, #604]	; (2540 <main+0x2240>)
    22e2:	489f      	ldr	r0, [pc, #636]	; (2560 <main+0x2260>)
    22e4:	f003 f8da 	bl	549c <arm_cfft_q15>
    22e8:	606e      	str	r6, [r5, #4]
    22ea:	68a9      	ldr	r1, [r5, #8]
    22ec:	4896      	ldr	r0, [pc, #600]	; (2548 <main+0x2248>)
    22ee:	1b09      	subs	r1, r1, r4
    22f0:	f007 fb5c 	bl	99ac <printf>
    22f4:	4895      	ldr	r0, [pc, #596]	; (254c <main+0x224c>)
    22f6:	f007 fb59 	bl	99ac <printf>
    22fa:	4628      	mov	r0, r5
    22fc:	f002 f86e 	bl	43dc <Chip_TIMER_Reset>
    2300:	463b      	mov	r3, r7
    2302:	4632      	mov	r2, r6
    2304:	606f      	str	r7, [r5, #4]
    2306:	498e      	ldr	r1, [pc, #568]	; (2540 <main+0x2240>)
    2308:	4896      	ldr	r0, [pc, #600]	; (2564 <main+0x2264>)
    230a:	f003 f8c7 	bl	549c <arm_cfft_q15>
    230e:	606e      	str	r6, [r5, #4]
    2310:	68a9      	ldr	r1, [r5, #8]
    2312:	488d      	ldr	r0, [pc, #564]	; (2548 <main+0x2248>)
    2314:	1b09      	subs	r1, r1, r4
    2316:	f007 fb49 	bl	99ac <printf>
    231a:	488c      	ldr	r0, [pc, #560]	; (254c <main+0x224c>)
    231c:	f007 fb46 	bl	99ac <printf>
    2320:	4628      	mov	r0, r5
    2322:	f002 f85b 	bl	43dc <Chip_TIMER_Reset>
    2326:	463b      	mov	r3, r7
    2328:	4632      	mov	r2, r6
    232a:	606f      	str	r7, [r5, #4]
    232c:	4984      	ldr	r1, [pc, #528]	; (2540 <main+0x2240>)
    232e:	488e      	ldr	r0, [pc, #568]	; (2568 <main+0x2268>)
    2330:	f003 f8b4 	bl	549c <arm_cfft_q15>
    2334:	606e      	str	r6, [r5, #4]
    2336:	68a9      	ldr	r1, [r5, #8]
    2338:	4883      	ldr	r0, [pc, #524]	; (2548 <main+0x2248>)
    233a:	1b09      	subs	r1, r1, r4
    233c:	f007 fb36 	bl	99ac <printf>
    2340:	4882      	ldr	r0, [pc, #520]	; (254c <main+0x224c>)
    2342:	f007 fb33 	bl	99ac <printf>
    2346:	4628      	mov	r0, r5
    2348:	f002 f848 	bl	43dc <Chip_TIMER_Reset>
    234c:	463b      	mov	r3, r7
    234e:	4632      	mov	r2, r6
    2350:	606f      	str	r7, [r5, #4]
    2352:	497b      	ldr	r1, [pc, #492]	; (2540 <main+0x2240>)
    2354:	4885      	ldr	r0, [pc, #532]	; (256c <main+0x226c>)
    2356:	f003 f8a1 	bl	549c <arm_cfft_q15>
    235a:	606e      	str	r6, [r5, #4]
    235c:	68a9      	ldr	r1, [r5, #8]
    235e:	487a      	ldr	r0, [pc, #488]	; (2548 <main+0x2248>)
    2360:	1b09      	subs	r1, r1, r4
    2362:	f007 fb23 	bl	99ac <printf>
    2366:	4879      	ldr	r0, [pc, #484]	; (254c <main+0x224c>)
    2368:	f007 fb20 	bl	99ac <printf>
    236c:	4628      	mov	r0, r5
    236e:	f002 f835 	bl	43dc <Chip_TIMER_Reset>
    2372:	463b      	mov	r3, r7
    2374:	4632      	mov	r2, r6
    2376:	606f      	str	r7, [r5, #4]
    2378:	4971      	ldr	r1, [pc, #452]	; (2540 <main+0x2240>)
    237a:	487d      	ldr	r0, [pc, #500]	; (2570 <main+0x2270>)
    237c:	f003 f88e 	bl	549c <arm_cfft_q15>
    2380:	606e      	str	r6, [r5, #4]
    2382:	68a9      	ldr	r1, [r5, #8]
    2384:	4870      	ldr	r0, [pc, #448]	; (2548 <main+0x2248>)
    2386:	1b09      	subs	r1, r1, r4
    2388:	f007 fb10 	bl	99ac <printf>
    238c:	486f      	ldr	r0, [pc, #444]	; (254c <main+0x224c>)
    238e:	f007 fb0d 	bl	99ac <printf>
    2392:	4628      	mov	r0, r5
    2394:	f002 f822 	bl	43dc <Chip_TIMER_Reset>
    2398:	463b      	mov	r3, r7
    239a:	4632      	mov	r2, r6
    239c:	606f      	str	r7, [r5, #4]
    239e:	4968      	ldr	r1, [pc, #416]	; (2540 <main+0x2240>)
    23a0:	4874      	ldr	r0, [pc, #464]	; (2574 <main+0x2274>)
    23a2:	f003 f87b 	bl	549c <arm_cfft_q15>
    23a6:	606e      	str	r6, [r5, #4]
    23a8:	68a9      	ldr	r1, [r5, #8]
    23aa:	4867      	ldr	r0, [pc, #412]	; (2548 <main+0x2248>)
    23ac:	1b09      	subs	r1, r1, r4
    23ae:	f007 fafd 	bl	99ac <printf>
    23b2:	4866      	ldr	r0, [pc, #408]	; (254c <main+0x224c>)
    23b4:	f007 fafa 	bl	99ac <printf>
    23b8:	4628      	mov	r0, r5
    23ba:	f002 f80f 	bl	43dc <Chip_TIMER_Reset>
    23be:	463b      	mov	r3, r7
    23c0:	4632      	mov	r2, r6
    23c2:	606f      	str	r7, [r5, #4]
    23c4:	495e      	ldr	r1, [pc, #376]	; (2540 <main+0x2240>)
    23c6:	486c      	ldr	r0, [pc, #432]	; (2578 <main+0x2278>)
    23c8:	f003 f868 	bl	549c <arm_cfft_q15>
    23cc:	606e      	str	r6, [r5, #4]
    23ce:	68a9      	ldr	r1, [r5, #8]
    23d0:	485d      	ldr	r0, [pc, #372]	; (2548 <main+0x2248>)
    23d2:	1b09      	subs	r1, r1, r4
    23d4:	f007 faea 	bl	99ac <printf>
    23d8:	485c      	ldr	r0, [pc, #368]	; (254c <main+0x224c>)
    23da:	f007 fae7 	bl	99ac <printf>
    23de:	4628      	mov	r0, r5
    23e0:	f001 fffc 	bl	43dc <Chip_TIMER_Reset>
    23e4:	463b      	mov	r3, r7
    23e6:	4632      	mov	r2, r6
    23e8:	606f      	str	r7, [r5, #4]
    23ea:	4955      	ldr	r1, [pc, #340]	; (2540 <main+0x2240>)
    23ec:	4863      	ldr	r0, [pc, #396]	; (257c <main+0x227c>)
    23ee:	f003 f9f7 	bl	57e0 <arm_cfft_q31>
    23f2:	606e      	str	r6, [r5, #4]
    23f4:	68a9      	ldr	r1, [r5, #8]
    23f6:	4854      	ldr	r0, [pc, #336]	; (2548 <main+0x2248>)
    23f8:	1b09      	subs	r1, r1, r4
    23fa:	f007 fad7 	bl	99ac <printf>
    23fe:	4853      	ldr	r0, [pc, #332]	; (254c <main+0x224c>)
    2400:	f007 fad4 	bl	99ac <printf>
    2404:	4853      	ldr	r0, [pc, #332]	; (2554 <main+0x2254>)
    2406:	f007 fad1 	bl	99ac <printf>
    240a:	485d      	ldr	r0, [pc, #372]	; (2580 <main+0x2280>)
    240c:	f007 face 	bl	99ac <printf>
    2410:	4628      	mov	r0, r5
    2412:	f001 ffe3 	bl	43dc <Chip_TIMER_Reset>
    2416:	4633      	mov	r3, r6
    2418:	4632      	mov	r2, r6
    241a:	606f      	str	r7, [r5, #4]
    241c:	4948      	ldr	r1, [pc, #288]	; (2540 <main+0x2240>)
    241e:	484f      	ldr	r0, [pc, #316]	; (255c <main+0x225c>)
    2420:	f003 f83c 	bl	549c <arm_cfft_q15>
    2424:	606e      	str	r6, [r5, #4]
    2426:	68a9      	ldr	r1, [r5, #8]
    2428:	4847      	ldr	r0, [pc, #284]	; (2548 <main+0x2248>)
    242a:	1b09      	subs	r1, r1, r4
    242c:	f007 fabe 	bl	99ac <printf>
    2430:	4846      	ldr	r0, [pc, #280]	; (254c <main+0x224c>)
    2432:	f007 fabb 	bl	99ac <printf>
    2436:	4628      	mov	r0, r5
    2438:	f001 ffd0 	bl	43dc <Chip_TIMER_Reset>
    243c:	4633      	mov	r3, r6
    243e:	4632      	mov	r2, r6
    2440:	606f      	str	r7, [r5, #4]
    2442:	493f      	ldr	r1, [pc, #252]	; (2540 <main+0x2240>)
    2444:	4846      	ldr	r0, [pc, #280]	; (2560 <main+0x2260>)
    2446:	f003 f829 	bl	549c <arm_cfft_q15>
    244a:	606e      	str	r6, [r5, #4]
    244c:	68a9      	ldr	r1, [r5, #8]
    244e:	483e      	ldr	r0, [pc, #248]	; (2548 <main+0x2248>)
    2450:	1b09      	subs	r1, r1, r4
    2452:	f007 faab 	bl	99ac <printf>
    2456:	483d      	ldr	r0, [pc, #244]	; (254c <main+0x224c>)
    2458:	f007 faa8 	bl	99ac <printf>
    245c:	4628      	mov	r0, r5
    245e:	f001 ffbd 	bl	43dc <Chip_TIMER_Reset>
    2462:	4633      	mov	r3, r6
    2464:	4632      	mov	r2, r6
    2466:	606f      	str	r7, [r5, #4]
    2468:	4935      	ldr	r1, [pc, #212]	; (2540 <main+0x2240>)
    246a:	483e      	ldr	r0, [pc, #248]	; (2564 <main+0x2264>)
    246c:	f003 f816 	bl	549c <arm_cfft_q15>
    2470:	606e      	str	r6, [r5, #4]
    2472:	68a9      	ldr	r1, [r5, #8]
    2474:	4834      	ldr	r0, [pc, #208]	; (2548 <main+0x2248>)
    2476:	1b09      	subs	r1, r1, r4
    2478:	f007 fa98 	bl	99ac <printf>
    247c:	4833      	ldr	r0, [pc, #204]	; (254c <main+0x224c>)
    247e:	f007 fa95 	bl	99ac <printf>
    2482:	4628      	mov	r0, r5
    2484:	f001 ffaa 	bl	43dc <Chip_TIMER_Reset>
    2488:	4633      	mov	r3, r6
    248a:	4632      	mov	r2, r6
    248c:	606f      	str	r7, [r5, #4]
    248e:	492c      	ldr	r1, [pc, #176]	; (2540 <main+0x2240>)
    2490:	4835      	ldr	r0, [pc, #212]	; (2568 <main+0x2268>)
    2492:	f003 f803 	bl	549c <arm_cfft_q15>
    2496:	606e      	str	r6, [r5, #4]
    2498:	68a9      	ldr	r1, [r5, #8]
    249a:	482b      	ldr	r0, [pc, #172]	; (2548 <main+0x2248>)
    249c:	1b09      	subs	r1, r1, r4
    249e:	f007 fa85 	bl	99ac <printf>
    24a2:	482a      	ldr	r0, [pc, #168]	; (254c <main+0x224c>)
    24a4:	f007 fa82 	bl	99ac <printf>
    24a8:	4628      	mov	r0, r5
    24aa:	f001 ff97 	bl	43dc <Chip_TIMER_Reset>
    24ae:	4633      	mov	r3, r6
    24b0:	4632      	mov	r2, r6
    24b2:	606f      	str	r7, [r5, #4]
    24b4:	4922      	ldr	r1, [pc, #136]	; (2540 <main+0x2240>)
    24b6:	482d      	ldr	r0, [pc, #180]	; (256c <main+0x226c>)
    24b8:	f002 fff0 	bl	549c <arm_cfft_q15>
    24bc:	606e      	str	r6, [r5, #4]
    24be:	68a9      	ldr	r1, [r5, #8]
    24c0:	4821      	ldr	r0, [pc, #132]	; (2548 <main+0x2248>)
    24c2:	1b09      	subs	r1, r1, r4
    24c4:	f007 fa72 	bl	99ac <printf>
    24c8:	4820      	ldr	r0, [pc, #128]	; (254c <main+0x224c>)
    24ca:	f007 fa6f 	bl	99ac <printf>
    24ce:	4628      	mov	r0, r5
    24d0:	f001 ff84 	bl	43dc <Chip_TIMER_Reset>
    24d4:	4633      	mov	r3, r6
    24d6:	4632      	mov	r2, r6
    24d8:	606f      	str	r7, [r5, #4]
    24da:	4919      	ldr	r1, [pc, #100]	; (2540 <main+0x2240>)
    24dc:	4824      	ldr	r0, [pc, #144]	; (2570 <main+0x2270>)
    24de:	f002 ffdd 	bl	549c <arm_cfft_q15>
    24e2:	606e      	str	r6, [r5, #4]
    24e4:	68a9      	ldr	r1, [r5, #8]
    24e6:	4818      	ldr	r0, [pc, #96]	; (2548 <main+0x2248>)
    24e8:	1b09      	subs	r1, r1, r4
    24ea:	f007 fa5f 	bl	99ac <printf>
    24ee:	4817      	ldr	r0, [pc, #92]	; (254c <main+0x224c>)
    24f0:	f007 fa5c 	bl	99ac <printf>
    24f4:	4628      	mov	r0, r5
    24f6:	f001 ff71 	bl	43dc <Chip_TIMER_Reset>
    24fa:	4633      	mov	r3, r6
    24fc:	4632      	mov	r2, r6
    24fe:	606f      	str	r7, [r5, #4]
    2500:	490f      	ldr	r1, [pc, #60]	; (2540 <main+0x2240>)
    2502:	481c      	ldr	r0, [pc, #112]	; (2574 <main+0x2274>)
    2504:	f002 ffca 	bl	549c <arm_cfft_q15>
    2508:	606e      	str	r6, [r5, #4]
    250a:	68a9      	ldr	r1, [r5, #8]
    250c:	480e      	ldr	r0, [pc, #56]	; (2548 <main+0x2248>)
    250e:	1b09      	subs	r1, r1, r4
    2510:	f007 fa4c 	bl	99ac <printf>
    2514:	480d      	ldr	r0, [pc, #52]	; (254c <main+0x224c>)
    2516:	f007 fa49 	bl	99ac <printf>
    251a:	4628      	mov	r0, r5
    251c:	f001 ff5e 	bl	43dc <Chip_TIMER_Reset>
    2520:	4633      	mov	r3, r6
    2522:	4632      	mov	r2, r6
    2524:	606f      	str	r7, [r5, #4]
    2526:	4906      	ldr	r1, [pc, #24]	; (2540 <main+0x2240>)
    2528:	4813      	ldr	r0, [pc, #76]	; (2578 <main+0x2278>)
    252a:	f002 ffb7 	bl	549c <arm_cfft_q15>
    252e:	606e      	str	r6, [r5, #4]
    2530:	68a9      	ldr	r1, [r5, #8]
    2532:	4805      	ldr	r0, [pc, #20]	; (2548 <main+0x2248>)
    2534:	1b09      	subs	r1, r1, r4
    2536:	f007 fa39 	bl	99ac <printf>
    253a:	e023      	b.n	2584 <main+0x2284>
    253c:	20006508 	.word	0x20006508
    2540:	200023fc 	.word	0x200023fc
    2544:	2000647c 	.word	0x2000647c
    2548:	0000bb78 	.word	0x0000bb78
    254c:	0000bcd8 	.word	0x0000bcd8
    2550:	0000bc08 	.word	0x0000bc08
    2554:	0000bb10 	.word	0x0000bb10
    2558:	0000bcfc 	.word	0x0000bcfc
    255c:	0000bed0 	.word	0x0000bed0
    2560:	0000bf10 	.word	0x0000bf10
    2564:	0000bf80 	.word	0x0000bf80
    2568:	0000bfc0 	.word	0x0000bfc0
    256c:	0000bf90 	.word	0x0000bf90
    2570:	0000bf30 	.word	0x0000bf30
    2574:	0000beb0 	.word	0x0000beb0
    2578:	0000bfe0 	.word	0x0000bfe0
    257c:	0000bf00 	.word	0x0000bf00
    2580:	0000bd14 	.word	0x0000bd14
    2584:	48b8      	ldr	r0, [pc, #736]	; (2868 <main+0x2568>)
    2586:	f007 fa11 	bl	99ac <printf>
    258a:	4628      	mov	r0, r5
    258c:	f001 ff26 	bl	43dc <Chip_TIMER_Reset>
    2590:	4633      	mov	r3, r6
    2592:	4632      	mov	r2, r6
    2594:	606f      	str	r7, [r5, #4]
    2596:	49b5      	ldr	r1, [pc, #724]	; (286c <main+0x256c>)
    2598:	48b5      	ldr	r0, [pc, #724]	; (2870 <main+0x2570>)
    259a:	f003 f921 	bl	57e0 <arm_cfft_q31>
    259e:	606e      	str	r6, [r5, #4]
    25a0:	68a9      	ldr	r1, [r5, #8]
    25a2:	48b4      	ldr	r0, [pc, #720]	; (2874 <main+0x2574>)
    25a4:	1b09      	subs	r1, r1, r4
    25a6:	f007 fa01 	bl	99ac <printf>
    25aa:	48af      	ldr	r0, [pc, #700]	; (2868 <main+0x2568>)
    25ac:	f007 f9fe 	bl	99ac <printf>
    25b0:	48b1      	ldr	r0, [pc, #708]	; (2878 <main+0x2578>)
    25b2:	f007 f9fb 	bl	99ac <printf>
    25b6:	48b1      	ldr	r0, [pc, #708]	; (287c <main+0x257c>)
    25b8:	f007 f9f8 	bl	99ac <printf>
    25bc:	4628      	mov	r0, r5
    25be:	f001 ff0d 	bl	43dc <Chip_TIMER_Reset>
    25c2:	2210      	movs	r2, #16
    25c4:	606f      	str	r7, [r5, #4]
    25c6:	49ae      	ldr	r1, [pc, #696]	; (2880 <main+0x2580>)
    25c8:	48a8      	ldr	r0, [pc, #672]	; (286c <main+0x256c>)
    25ca:	f006 f991 	bl	88f0 <arm_cmplx_mag_q15>
    25ce:	606e      	str	r6, [r5, #4]
    25d0:	68a9      	ldr	r1, [r5, #8]
    25d2:	48a8      	ldr	r0, [pc, #672]	; (2874 <main+0x2574>)
    25d4:	1b09      	subs	r1, r1, r4
    25d6:	f007 f9e9 	bl	99ac <printf>
    25da:	48a3      	ldr	r0, [pc, #652]	; (2868 <main+0x2568>)
    25dc:	f007 f9e6 	bl	99ac <printf>
    25e0:	4628      	mov	r0, r5
    25e2:	f001 fefb 	bl	43dc <Chip_TIMER_Reset>
    25e6:	2220      	movs	r2, #32
    25e8:	606f      	str	r7, [r5, #4]
    25ea:	49a5      	ldr	r1, [pc, #660]	; (2880 <main+0x2580>)
    25ec:	489f      	ldr	r0, [pc, #636]	; (286c <main+0x256c>)
    25ee:	f006 f97f 	bl	88f0 <arm_cmplx_mag_q15>
    25f2:	606e      	str	r6, [r5, #4]
    25f4:	68a9      	ldr	r1, [r5, #8]
    25f6:	489f      	ldr	r0, [pc, #636]	; (2874 <main+0x2574>)
    25f8:	1b09      	subs	r1, r1, r4
    25fa:	f007 f9d7 	bl	99ac <printf>
    25fe:	489a      	ldr	r0, [pc, #616]	; (2868 <main+0x2568>)
    2600:	f007 f9d4 	bl	99ac <printf>
    2604:	4628      	mov	r0, r5
    2606:	f001 fee9 	bl	43dc <Chip_TIMER_Reset>
    260a:	2240      	movs	r2, #64	; 0x40
    260c:	606f      	str	r7, [r5, #4]
    260e:	499c      	ldr	r1, [pc, #624]	; (2880 <main+0x2580>)
    2610:	4896      	ldr	r0, [pc, #600]	; (286c <main+0x256c>)
    2612:	f006 f96d 	bl	88f0 <arm_cmplx_mag_q15>
    2616:	606e      	str	r6, [r5, #4]
    2618:	68a9      	ldr	r1, [r5, #8]
    261a:	4896      	ldr	r0, [pc, #600]	; (2874 <main+0x2574>)
    261c:	1b09      	subs	r1, r1, r4
    261e:	f007 f9c5 	bl	99ac <printf>
    2622:	4891      	ldr	r0, [pc, #580]	; (2868 <main+0x2568>)
    2624:	f007 f9c2 	bl	99ac <printf>
    2628:	4628      	mov	r0, r5
    262a:	f001 fed7 	bl	43dc <Chip_TIMER_Reset>
    262e:	2280      	movs	r2, #128	; 0x80
    2630:	606f      	str	r7, [r5, #4]
    2632:	4993      	ldr	r1, [pc, #588]	; (2880 <main+0x2580>)
    2634:	488d      	ldr	r0, [pc, #564]	; (286c <main+0x256c>)
    2636:	f006 f95b 	bl	88f0 <arm_cmplx_mag_q15>
    263a:	606e      	str	r6, [r5, #4]
    263c:	68a9      	ldr	r1, [r5, #8]
    263e:	488d      	ldr	r0, [pc, #564]	; (2874 <main+0x2574>)
    2640:	1b09      	subs	r1, r1, r4
    2642:	f007 f9b3 	bl	99ac <printf>
    2646:	4888      	ldr	r0, [pc, #544]	; (2868 <main+0x2568>)
    2648:	f007 f9b0 	bl	99ac <printf>
    264c:	4628      	mov	r0, r5
    264e:	f001 fec5 	bl	43dc <Chip_TIMER_Reset>
    2652:	f44f 7280 	mov.w	r2, #256	; 0x100
    2656:	606f      	str	r7, [r5, #4]
    2658:	4989      	ldr	r1, [pc, #548]	; (2880 <main+0x2580>)
    265a:	4884      	ldr	r0, [pc, #528]	; (286c <main+0x256c>)
    265c:	f006 f948 	bl	88f0 <arm_cmplx_mag_q15>
    2660:	606e      	str	r6, [r5, #4]
    2662:	68a9      	ldr	r1, [r5, #8]
    2664:	4883      	ldr	r0, [pc, #524]	; (2874 <main+0x2574>)
    2666:	1b09      	subs	r1, r1, r4
    2668:	f007 f9a0 	bl	99ac <printf>
    266c:	487e      	ldr	r0, [pc, #504]	; (2868 <main+0x2568>)
    266e:	f007 f99d 	bl	99ac <printf>
    2672:	4628      	mov	r0, r5
    2674:	f001 feb2 	bl	43dc <Chip_TIMER_Reset>
    2678:	f44f 7200 	mov.w	r2, #512	; 0x200
    267c:	606f      	str	r7, [r5, #4]
    267e:	4980      	ldr	r1, [pc, #512]	; (2880 <main+0x2580>)
    2680:	487a      	ldr	r0, [pc, #488]	; (286c <main+0x256c>)
    2682:	f006 f935 	bl	88f0 <arm_cmplx_mag_q15>
    2686:	606e      	str	r6, [r5, #4]
    2688:	68a9      	ldr	r1, [r5, #8]
    268a:	487a      	ldr	r0, [pc, #488]	; (2874 <main+0x2574>)
    268c:	1b09      	subs	r1, r1, r4
    268e:	f007 f98d 	bl	99ac <printf>
    2692:	4875      	ldr	r0, [pc, #468]	; (2868 <main+0x2568>)
    2694:	f007 f98a 	bl	99ac <printf>
    2698:	4628      	mov	r0, r5
    269a:	f001 fe9f 	bl	43dc <Chip_TIMER_Reset>
    269e:	f44f 6280 	mov.w	r2, #1024	; 0x400
    26a2:	606f      	str	r7, [r5, #4]
    26a4:	4976      	ldr	r1, [pc, #472]	; (2880 <main+0x2580>)
    26a6:	4871      	ldr	r0, [pc, #452]	; (286c <main+0x256c>)
    26a8:	f006 f922 	bl	88f0 <arm_cmplx_mag_q15>
    26ac:	606e      	str	r6, [r5, #4]
    26ae:	68a9      	ldr	r1, [r5, #8]
    26b0:	4870      	ldr	r0, [pc, #448]	; (2874 <main+0x2574>)
    26b2:	1b09      	subs	r1, r1, r4
    26b4:	f007 f97a 	bl	99ac <printf>
    26b8:	486b      	ldr	r0, [pc, #428]	; (2868 <main+0x2568>)
    26ba:	f007 f977 	bl	99ac <printf>
    26be:	4628      	mov	r0, r5
    26c0:	f001 fe8c 	bl	43dc <Chip_TIMER_Reset>
    26c4:	464a      	mov	r2, r9
    26c6:	606f      	str	r7, [r5, #4]
    26c8:	496d      	ldr	r1, [pc, #436]	; (2880 <main+0x2580>)
    26ca:	4868      	ldr	r0, [pc, #416]	; (286c <main+0x256c>)
    26cc:	f006 f910 	bl	88f0 <arm_cmplx_mag_q15>
    26d0:	606e      	str	r6, [r5, #4]
    26d2:	68a9      	ldr	r1, [r5, #8]
    26d4:	4867      	ldr	r0, [pc, #412]	; (2874 <main+0x2574>)
    26d6:	1b09      	subs	r1, r1, r4
    26d8:	f007 f968 	bl	99ac <printf>
    26dc:	4862      	ldr	r0, [pc, #392]	; (2868 <main+0x2568>)
    26de:	f007 f965 	bl	99ac <printf>
    26e2:	4628      	mov	r0, r5
    26e4:	f001 fe7a 	bl	43dc <Chip_TIMER_Reset>
    26e8:	f44f 5280 	mov.w	r2, #4096	; 0x1000
    26ec:	606f      	str	r7, [r5, #4]
    26ee:	4964      	ldr	r1, [pc, #400]	; (2880 <main+0x2580>)
    26f0:	485e      	ldr	r0, [pc, #376]	; (286c <main+0x256c>)
    26f2:	f006 f8fd 	bl	88f0 <arm_cmplx_mag_q15>
    26f6:	606e      	str	r6, [r5, #4]
    26f8:	68a9      	ldr	r1, [r5, #8]
    26fa:	485e      	ldr	r0, [pc, #376]	; (2874 <main+0x2574>)
    26fc:	1b09      	subs	r1, r1, r4
    26fe:	f007 f955 	bl	99ac <printf>
    2702:	4859      	ldr	r0, [pc, #356]	; (2868 <main+0x2568>)
    2704:	f007 f952 	bl	99ac <printf>
    2708:	485b      	ldr	r0, [pc, #364]	; (2878 <main+0x2578>)
    270a:	f007 f94f 	bl	99ac <printf>
    270e:	485d      	ldr	r0, [pc, #372]	; (2884 <main+0x2584>)
    2710:	f007 f94c 	bl	99ac <printf>
    2714:	4628      	mov	r0, r5
    2716:	f001 fe61 	bl	43dc <Chip_TIMER_Reset>
    271a:	2210      	movs	r2, #16
    271c:	606f      	str	r7, [r5, #4]
    271e:	4958      	ldr	r1, [pc, #352]	; (2880 <main+0x2580>)
    2720:	4852      	ldr	r0, [pc, #328]	; (286c <main+0x256c>)
    2722:	f006 fa03 	bl	8b2c <arm_cmplx_mag_squared_q15>
    2726:	606e      	str	r6, [r5, #4]
    2728:	68a9      	ldr	r1, [r5, #8]
    272a:	4852      	ldr	r0, [pc, #328]	; (2874 <main+0x2574>)
    272c:	1b09      	subs	r1, r1, r4
    272e:	f007 f93d 	bl	99ac <printf>
    2732:	484d      	ldr	r0, [pc, #308]	; (2868 <main+0x2568>)
    2734:	f007 f93a 	bl	99ac <printf>
    2738:	4628      	mov	r0, r5
    273a:	f001 fe4f 	bl	43dc <Chip_TIMER_Reset>
    273e:	2220      	movs	r2, #32
    2740:	606f      	str	r7, [r5, #4]
    2742:	494f      	ldr	r1, [pc, #316]	; (2880 <main+0x2580>)
    2744:	4849      	ldr	r0, [pc, #292]	; (286c <main+0x256c>)
    2746:	f006 f9f1 	bl	8b2c <arm_cmplx_mag_squared_q15>
    274a:	606e      	str	r6, [r5, #4]
    274c:	68a9      	ldr	r1, [r5, #8]
    274e:	4849      	ldr	r0, [pc, #292]	; (2874 <main+0x2574>)
    2750:	1b09      	subs	r1, r1, r4
    2752:	f007 f92b 	bl	99ac <printf>
    2756:	4844      	ldr	r0, [pc, #272]	; (2868 <main+0x2568>)
    2758:	f007 f928 	bl	99ac <printf>
    275c:	4628      	mov	r0, r5
    275e:	f001 fe3d 	bl	43dc <Chip_TIMER_Reset>
    2762:	2240      	movs	r2, #64	; 0x40
    2764:	606f      	str	r7, [r5, #4]
    2766:	4946      	ldr	r1, [pc, #280]	; (2880 <main+0x2580>)
    2768:	4840      	ldr	r0, [pc, #256]	; (286c <main+0x256c>)
    276a:	f006 f9df 	bl	8b2c <arm_cmplx_mag_squared_q15>
    276e:	606e      	str	r6, [r5, #4]
    2770:	68a9      	ldr	r1, [r5, #8]
    2772:	4840      	ldr	r0, [pc, #256]	; (2874 <main+0x2574>)
    2774:	1b09      	subs	r1, r1, r4
    2776:	f007 f919 	bl	99ac <printf>
    277a:	483b      	ldr	r0, [pc, #236]	; (2868 <main+0x2568>)
    277c:	f007 f916 	bl	99ac <printf>
    2780:	4628      	mov	r0, r5
    2782:	f001 fe2b 	bl	43dc <Chip_TIMER_Reset>
    2786:	2280      	movs	r2, #128	; 0x80
    2788:	606f      	str	r7, [r5, #4]
    278a:	493d      	ldr	r1, [pc, #244]	; (2880 <main+0x2580>)
    278c:	4837      	ldr	r0, [pc, #220]	; (286c <main+0x256c>)
    278e:	f006 f9cd 	bl	8b2c <arm_cmplx_mag_squared_q15>
    2792:	606e      	str	r6, [r5, #4]
    2794:	68a9      	ldr	r1, [r5, #8]
    2796:	4837      	ldr	r0, [pc, #220]	; (2874 <main+0x2574>)
    2798:	1b09      	subs	r1, r1, r4
    279a:	f007 f907 	bl	99ac <printf>
    279e:	4832      	ldr	r0, [pc, #200]	; (2868 <main+0x2568>)
    27a0:	f007 f904 	bl	99ac <printf>
    27a4:	4628      	mov	r0, r5
    27a6:	f001 fe19 	bl	43dc <Chip_TIMER_Reset>
    27aa:	f44f 7280 	mov.w	r2, #256	; 0x100
    27ae:	606f      	str	r7, [r5, #4]
    27b0:	4933      	ldr	r1, [pc, #204]	; (2880 <main+0x2580>)
    27b2:	482e      	ldr	r0, [pc, #184]	; (286c <main+0x256c>)
    27b4:	f006 f9ba 	bl	8b2c <arm_cmplx_mag_squared_q15>
    27b8:	606e      	str	r6, [r5, #4]
    27ba:	68a9      	ldr	r1, [r5, #8]
    27bc:	482d      	ldr	r0, [pc, #180]	; (2874 <main+0x2574>)
    27be:	1b09      	subs	r1, r1, r4
    27c0:	f007 f8f4 	bl	99ac <printf>
    27c4:	4828      	ldr	r0, [pc, #160]	; (2868 <main+0x2568>)
    27c6:	f007 f8f1 	bl	99ac <printf>
    27ca:	4628      	mov	r0, r5
    27cc:	f001 fe06 	bl	43dc <Chip_TIMER_Reset>
    27d0:	f44f 7200 	mov.w	r2, #512	; 0x200
    27d4:	606f      	str	r7, [r5, #4]
    27d6:	492a      	ldr	r1, [pc, #168]	; (2880 <main+0x2580>)
    27d8:	4824      	ldr	r0, [pc, #144]	; (286c <main+0x256c>)
    27da:	f006 f9a7 	bl	8b2c <arm_cmplx_mag_squared_q15>
    27de:	606e      	str	r6, [r5, #4]
    27e0:	68a9      	ldr	r1, [r5, #8]
    27e2:	4824      	ldr	r0, [pc, #144]	; (2874 <main+0x2574>)
    27e4:	1b09      	subs	r1, r1, r4
    27e6:	f007 f8e1 	bl	99ac <printf>
    27ea:	481f      	ldr	r0, [pc, #124]	; (2868 <main+0x2568>)
    27ec:	f007 f8de 	bl	99ac <printf>
    27f0:	4628      	mov	r0, r5
    27f2:	f001 fdf3 	bl	43dc <Chip_TIMER_Reset>
    27f6:	f44f 6280 	mov.w	r2, #1024	; 0x400
    27fa:	606f      	str	r7, [r5, #4]
    27fc:	4920      	ldr	r1, [pc, #128]	; (2880 <main+0x2580>)
    27fe:	481b      	ldr	r0, [pc, #108]	; (286c <main+0x256c>)
    2800:	f006 f994 	bl	8b2c <arm_cmplx_mag_squared_q15>
    2804:	606e      	str	r6, [r5, #4]
    2806:	68a9      	ldr	r1, [r5, #8]
    2808:	481a      	ldr	r0, [pc, #104]	; (2874 <main+0x2574>)
    280a:	1b09      	subs	r1, r1, r4
    280c:	f007 f8ce 	bl	99ac <printf>
    2810:	4815      	ldr	r0, [pc, #84]	; (2868 <main+0x2568>)
    2812:	f007 f8cb 	bl	99ac <printf>
    2816:	4628      	mov	r0, r5
    2818:	f001 fde0 	bl	43dc <Chip_TIMER_Reset>
    281c:	464a      	mov	r2, r9
    281e:	606f      	str	r7, [r5, #4]
    2820:	4917      	ldr	r1, [pc, #92]	; (2880 <main+0x2580>)
    2822:	4812      	ldr	r0, [pc, #72]	; (286c <main+0x256c>)
    2824:	f006 f982 	bl	8b2c <arm_cmplx_mag_squared_q15>
    2828:	606e      	str	r6, [r5, #4]
    282a:	68a9      	ldr	r1, [r5, #8]
    282c:	4811      	ldr	r0, [pc, #68]	; (2874 <main+0x2574>)
    282e:	1b09      	subs	r1, r1, r4
    2830:	f007 f8bc 	bl	99ac <printf>
    2834:	480c      	ldr	r0, [pc, #48]	; (2868 <main+0x2568>)
    2836:	f007 f8b9 	bl	99ac <printf>
    283a:	4628      	mov	r0, r5
    283c:	f001 fdce 	bl	43dc <Chip_TIMER_Reset>
    2840:	f44f 5280 	mov.w	r2, #4096	; 0x1000
    2844:	606f      	str	r7, [r5, #4]
    2846:	490e      	ldr	r1, [pc, #56]	; (2880 <main+0x2580>)
    2848:	4808      	ldr	r0, [pc, #32]	; (286c <main+0x256c>)
    284a:	f006 f96f 	bl	8b2c <arm_cmplx_mag_squared_q15>
    284e:	606e      	str	r6, [r5, #4]
    2850:	68a9      	ldr	r1, [r5, #8]
    2852:	4808      	ldr	r0, [pc, #32]	; (2874 <main+0x2574>)
    2854:	1b09      	subs	r1, r1, r4
    2856:	f007 f8a9 	bl	99ac <printf>
    285a:	4803      	ldr	r0, [pc, #12]	; (2868 <main+0x2568>)
    285c:	f007 f8a6 	bl	99ac <printf>
    2860:	4805      	ldr	r0, [pc, #20]	; (2878 <main+0x2578>)
    2862:	f007 f8a3 	bl	99ac <printf>
    2866:	e00f      	b.n	2888 <main+0x2588>
    2868:	0000bcd8 	.word	0x0000bcd8
    286c:	200023fc 	.word	0x200023fc
    2870:	0000bf00 	.word	0x0000bf00
    2874:	0000bb78 	.word	0x0000bb78
    2878:	0000bb10 	.word	0x0000bb10
    287c:	0000bd2c 	.word	0x0000bd2c
    2880:	20006508 	.word	0x20006508
    2884:	0000bd3c 	.word	0x0000bd3c
    2888:	48b3      	ldr	r0, [pc, #716]	; (2b58 <main+0x2858>)
    288a:	f007 f88f 	bl	99ac <printf>
    288e:	4639      	mov	r1, r7
    2890:	4bb2      	ldr	r3, [pc, #712]	; (2b5c <main+0x285c>)
    2892:	4ab3      	ldr	r2, [pc, #716]	; (2b60 <main+0x2860>)
    2894:	9700      	str	r7, [sp, #0]
    2896:	48b3      	ldr	r0, [pc, #716]	; (2b64 <main+0x2864>)
    2898:	f004 ffea 	bl	7870 <arm_biquad_cascade_df1_init_q15>
    289c:	4628      	mov	r0, r5
    289e:	f001 fd9d 	bl	43dc <Chip_TIMER_Reset>
    28a2:	2310      	movs	r3, #16
    28a4:	4ab0      	ldr	r2, [pc, #704]	; (2b68 <main+0x2868>)
    28a6:	606f      	str	r7, [r5, #4]
    28a8:	49b0      	ldr	r1, [pc, #704]	; (2b6c <main+0x286c>)
    28aa:	48ae      	ldr	r0, [pc, #696]	; (2b64 <main+0x2864>)
    28ac:	f005 f800 	bl	78b0 <arm_biquad_cascade_df1_q15>
    28b0:	606e      	str	r6, [r5, #4]
    28b2:	68a9      	ldr	r1, [r5, #8]
    28b4:	48ae      	ldr	r0, [pc, #696]	; (2b70 <main+0x2870>)
    28b6:	1b09      	subs	r1, r1, r4
    28b8:	f007 f878 	bl	99ac <printf>
    28bc:	48ad      	ldr	r0, [pc, #692]	; (2b74 <main+0x2874>)
    28be:	f007 f875 	bl	99ac <printf>
    28c2:	4628      	mov	r0, r5
    28c4:	f001 fd8a 	bl	43dc <Chip_TIMER_Reset>
    28c8:	2320      	movs	r3, #32
    28ca:	4aa7      	ldr	r2, [pc, #668]	; (2b68 <main+0x2868>)
    28cc:	606f      	str	r7, [r5, #4]
    28ce:	49a7      	ldr	r1, [pc, #668]	; (2b6c <main+0x286c>)
    28d0:	48a4      	ldr	r0, [pc, #656]	; (2b64 <main+0x2864>)
    28d2:	f004 ffed 	bl	78b0 <arm_biquad_cascade_df1_q15>
    28d6:	606e      	str	r6, [r5, #4]
    28d8:	68a9      	ldr	r1, [r5, #8]
    28da:	48a5      	ldr	r0, [pc, #660]	; (2b70 <main+0x2870>)
    28dc:	1b09      	subs	r1, r1, r4
    28de:	f007 f865 	bl	99ac <printf>
    28e2:	48a4      	ldr	r0, [pc, #656]	; (2b74 <main+0x2874>)
    28e4:	f007 f862 	bl	99ac <printf>
    28e8:	4628      	mov	r0, r5
    28ea:	f001 fd77 	bl	43dc <Chip_TIMER_Reset>
    28ee:	2340      	movs	r3, #64	; 0x40
    28f0:	4a9d      	ldr	r2, [pc, #628]	; (2b68 <main+0x2868>)
    28f2:	606f      	str	r7, [r5, #4]
    28f4:	499d      	ldr	r1, [pc, #628]	; (2b6c <main+0x286c>)
    28f6:	489b      	ldr	r0, [pc, #620]	; (2b64 <main+0x2864>)
    28f8:	f004 ffda 	bl	78b0 <arm_biquad_cascade_df1_q15>
    28fc:	606e      	str	r6, [r5, #4]
    28fe:	68a9      	ldr	r1, [r5, #8]
    2900:	489b      	ldr	r0, [pc, #620]	; (2b70 <main+0x2870>)
    2902:	1b09      	subs	r1, r1, r4
    2904:	f007 f852 	bl	99ac <printf>
    2908:	489a      	ldr	r0, [pc, #616]	; (2b74 <main+0x2874>)
    290a:	f007 f84f 	bl	99ac <printf>
    290e:	4628      	mov	r0, r5
    2910:	f001 fd64 	bl	43dc <Chip_TIMER_Reset>
    2914:	2380      	movs	r3, #128	; 0x80
    2916:	4a94      	ldr	r2, [pc, #592]	; (2b68 <main+0x2868>)
    2918:	606f      	str	r7, [r5, #4]
    291a:	4994      	ldr	r1, [pc, #592]	; (2b6c <main+0x286c>)
    291c:	4891      	ldr	r0, [pc, #580]	; (2b64 <main+0x2864>)
    291e:	f004 ffc7 	bl	78b0 <arm_biquad_cascade_df1_q15>
    2922:	606e      	str	r6, [r5, #4]
    2924:	68a9      	ldr	r1, [r5, #8]
    2926:	4892      	ldr	r0, [pc, #584]	; (2b70 <main+0x2870>)
    2928:	1b09      	subs	r1, r1, r4
    292a:	f007 f83f 	bl	99ac <printf>
    292e:	4891      	ldr	r0, [pc, #580]	; (2b74 <main+0x2874>)
    2930:	f007 f83c 	bl	99ac <printf>
    2934:	4628      	mov	r0, r5
    2936:	f001 fd51 	bl	43dc <Chip_TIMER_Reset>
    293a:	f44f 7380 	mov.w	r3, #256	; 0x100
    293e:	4a8a      	ldr	r2, [pc, #552]	; (2b68 <main+0x2868>)
    2940:	606f      	str	r7, [r5, #4]
    2942:	498a      	ldr	r1, [pc, #552]	; (2b6c <main+0x286c>)
    2944:	4887      	ldr	r0, [pc, #540]	; (2b64 <main+0x2864>)
    2946:	f004 ffb3 	bl	78b0 <arm_biquad_cascade_df1_q15>
    294a:	606e      	str	r6, [r5, #4]
    294c:	68a9      	ldr	r1, [r5, #8]
    294e:	4888      	ldr	r0, [pc, #544]	; (2b70 <main+0x2870>)
    2950:	1b09      	subs	r1, r1, r4
    2952:	f007 f82b 	bl	99ac <printf>
    2956:	4887      	ldr	r0, [pc, #540]	; (2b74 <main+0x2874>)
    2958:	f007 f828 	bl	99ac <printf>
    295c:	4628      	mov	r0, r5
    295e:	f001 fd3d 	bl	43dc <Chip_TIMER_Reset>
    2962:	f44f 7300 	mov.w	r3, #512	; 0x200
    2966:	4a80      	ldr	r2, [pc, #512]	; (2b68 <main+0x2868>)
    2968:	606f      	str	r7, [r5, #4]
    296a:	4980      	ldr	r1, [pc, #512]	; (2b6c <main+0x286c>)
    296c:	487d      	ldr	r0, [pc, #500]	; (2b64 <main+0x2864>)
    296e:	f004 ff9f 	bl	78b0 <arm_biquad_cascade_df1_q15>
    2972:	606e      	str	r6, [r5, #4]
    2974:	68a9      	ldr	r1, [r5, #8]
    2976:	487e      	ldr	r0, [pc, #504]	; (2b70 <main+0x2870>)
    2978:	1b09      	subs	r1, r1, r4
    297a:	f007 f817 	bl	99ac <printf>
    297e:	487d      	ldr	r0, [pc, #500]	; (2b74 <main+0x2874>)
    2980:	f007 f814 	bl	99ac <printf>
    2984:	4628      	mov	r0, r5
    2986:	f001 fd29 	bl	43dc <Chip_TIMER_Reset>
    298a:	f44f 6380 	mov.w	r3, #1024	; 0x400
    298e:	4a76      	ldr	r2, [pc, #472]	; (2b68 <main+0x2868>)
    2990:	606f      	str	r7, [r5, #4]
    2992:	4976      	ldr	r1, [pc, #472]	; (2b6c <main+0x286c>)
    2994:	4873      	ldr	r0, [pc, #460]	; (2b64 <main+0x2864>)
    2996:	f004 ff8b 	bl	78b0 <arm_biquad_cascade_df1_q15>
    299a:	606e      	str	r6, [r5, #4]
    299c:	68a9      	ldr	r1, [r5, #8]
    299e:	4874      	ldr	r0, [pc, #464]	; (2b70 <main+0x2870>)
    29a0:	1b09      	subs	r1, r1, r4
    29a2:	f007 f803 	bl	99ac <printf>
    29a6:	4873      	ldr	r0, [pc, #460]	; (2b74 <main+0x2874>)
    29a8:	f007 f800 	bl	99ac <printf>
    29ac:	4628      	mov	r0, r5
    29ae:	f001 fd15 	bl	43dc <Chip_TIMER_Reset>
    29b2:	464b      	mov	r3, r9
    29b4:	4a6c      	ldr	r2, [pc, #432]	; (2b68 <main+0x2868>)
    29b6:	606f      	str	r7, [r5, #4]
    29b8:	496c      	ldr	r1, [pc, #432]	; (2b6c <main+0x286c>)
    29ba:	486a      	ldr	r0, [pc, #424]	; (2b64 <main+0x2864>)
    29bc:	f004 ff78 	bl	78b0 <arm_biquad_cascade_df1_q15>
    29c0:	606e      	str	r6, [r5, #4]
    29c2:	68a9      	ldr	r1, [r5, #8]
    29c4:	486a      	ldr	r0, [pc, #424]	; (2b70 <main+0x2870>)
    29c6:	1b09      	subs	r1, r1, r4
    29c8:	f006 fff0 	bl	99ac <printf>
    29cc:	4869      	ldr	r0, [pc, #420]	; (2b74 <main+0x2874>)
    29ce:	f006 ffed 	bl	99ac <printf>
    29d2:	4628      	mov	r0, r5
    29d4:	f001 fd02 	bl	43dc <Chip_TIMER_Reset>
    29d8:	f44f 5380 	mov.w	r3, #4096	; 0x1000
    29dc:	4a62      	ldr	r2, [pc, #392]	; (2b68 <main+0x2868>)
    29de:	606f      	str	r7, [r5, #4]
    29e0:	4962      	ldr	r1, [pc, #392]	; (2b6c <main+0x286c>)
    29e2:	4860      	ldr	r0, [pc, #384]	; (2b64 <main+0x2864>)
    29e4:	f004 ff64 	bl	78b0 <arm_biquad_cascade_df1_q15>
    29e8:	606e      	str	r6, [r5, #4]
    29ea:	68a9      	ldr	r1, [r5, #8]
    29ec:	4860      	ldr	r0, [pc, #384]	; (2b70 <main+0x2870>)
    29ee:	1b09      	subs	r1, r1, r4
    29f0:	f006 ffdc 	bl	99ac <printf>
    29f4:	485f      	ldr	r0, [pc, #380]	; (2b74 <main+0x2874>)
    29f6:	f006 ffd9 	bl	99ac <printf>
    29fa:	485f      	ldr	r0, [pc, #380]	; (2b78 <main+0x2878>)
    29fc:	f006 ffd6 	bl	99ac <printf>
    2a00:	485e      	ldr	r0, [pc, #376]	; (2b7c <main+0x287c>)
    2a02:	f006 ffd3 	bl	99ac <printf>
    2a06:	4639      	mov	r1, r7
    2a08:	4b54      	ldr	r3, [pc, #336]	; (2b5c <main+0x285c>)
    2a0a:	4a55      	ldr	r2, [pc, #340]	; (2b60 <main+0x2860>)
    2a0c:	9700      	str	r7, [sp, #0]
    2a0e:	4855      	ldr	r0, [pc, #340]	; (2b64 <main+0x2864>)
    2a10:	f004 ff2e 	bl	7870 <arm_biquad_cascade_df1_init_q15>
    2a14:	4628      	mov	r0, r5
    2a16:	f001 fce1 	bl	43dc <Chip_TIMER_Reset>
    2a1a:	2310      	movs	r3, #16
    2a1c:	4a52      	ldr	r2, [pc, #328]	; (2b68 <main+0x2868>)
    2a1e:	606f      	str	r7, [r5, #4]
    2a20:	4952      	ldr	r1, [pc, #328]	; (2b6c <main+0x286c>)
    2a22:	4850      	ldr	r0, [pc, #320]	; (2b64 <main+0x2864>)
    2a24:	f004 fcac 	bl	7380 <arm_biquad_cascade_df1_fast_q15>
    2a28:	606e      	str	r6, [r5, #4]
    2a2a:	68a9      	ldr	r1, [r5, #8]
    2a2c:	4850      	ldr	r0, [pc, #320]	; (2b70 <main+0x2870>)
    2a2e:	1b09      	subs	r1, r1, r4
    2a30:	f006 ffbc 	bl	99ac <printf>
    2a34:	484f      	ldr	r0, [pc, #316]	; (2b74 <main+0x2874>)
    2a36:	f006 ffb9 	bl	99ac <printf>
    2a3a:	4628      	mov	r0, r5
    2a3c:	f001 fcce 	bl	43dc <Chip_TIMER_Reset>
    2a40:	2320      	movs	r3, #32
    2a42:	4a49      	ldr	r2, [pc, #292]	; (2b68 <main+0x2868>)
    2a44:	606f      	str	r7, [r5, #4]
    2a46:	4949      	ldr	r1, [pc, #292]	; (2b6c <main+0x286c>)
    2a48:	4846      	ldr	r0, [pc, #280]	; (2b64 <main+0x2864>)
    2a4a:	f004 fc99 	bl	7380 <arm_biquad_cascade_df1_fast_q15>
    2a4e:	606e      	str	r6, [r5, #4]
    2a50:	68a9      	ldr	r1, [r5, #8]
    2a52:	4847      	ldr	r0, [pc, #284]	; (2b70 <main+0x2870>)
    2a54:	1b09      	subs	r1, r1, r4
    2a56:	f006 ffa9 	bl	99ac <printf>
    2a5a:	4846      	ldr	r0, [pc, #280]	; (2b74 <main+0x2874>)
    2a5c:	f006 ffa6 	bl	99ac <printf>
    2a60:	4628      	mov	r0, r5
    2a62:	f001 fcbb 	bl	43dc <Chip_TIMER_Reset>
    2a66:	2340      	movs	r3, #64	; 0x40
    2a68:	4a3f      	ldr	r2, [pc, #252]	; (2b68 <main+0x2868>)
    2a6a:	606f      	str	r7, [r5, #4]
    2a6c:	493f      	ldr	r1, [pc, #252]	; (2b6c <main+0x286c>)
    2a6e:	483d      	ldr	r0, [pc, #244]	; (2b64 <main+0x2864>)
    2a70:	f004 fc86 	bl	7380 <arm_biquad_cascade_df1_fast_q15>
    2a74:	606e      	str	r6, [r5, #4]
    2a76:	68a9      	ldr	r1, [r5, #8]
    2a78:	483d      	ldr	r0, [pc, #244]	; (2b70 <main+0x2870>)
    2a7a:	1b09      	subs	r1, r1, r4
    2a7c:	f006 ff96 	bl	99ac <printf>
    2a80:	483c      	ldr	r0, [pc, #240]	; (2b74 <main+0x2874>)
    2a82:	f006 ff93 	bl	99ac <printf>
    2a86:	4628      	mov	r0, r5
    2a88:	f001 fca8 	bl	43dc <Chip_TIMER_Reset>
    2a8c:	2380      	movs	r3, #128	; 0x80
    2a8e:	4a36      	ldr	r2, [pc, #216]	; (2b68 <main+0x2868>)
    2a90:	606f      	str	r7, [r5, #4]
    2a92:	4936      	ldr	r1, [pc, #216]	; (2b6c <main+0x286c>)
    2a94:	4833      	ldr	r0, [pc, #204]	; (2b64 <main+0x2864>)
    2a96:	f004 fc73 	bl	7380 <arm_biquad_cascade_df1_fast_q15>
    2a9a:	606e      	str	r6, [r5, #4]
    2a9c:	68a9      	ldr	r1, [r5, #8]
    2a9e:	4834      	ldr	r0, [pc, #208]	; (2b70 <main+0x2870>)
    2aa0:	1b09      	subs	r1, r1, r4
    2aa2:	f006 ff83 	bl	99ac <printf>
    2aa6:	4833      	ldr	r0, [pc, #204]	; (2b74 <main+0x2874>)
    2aa8:	f006 ff80 	bl	99ac <printf>
    2aac:	4628      	mov	r0, r5
    2aae:	f001 fc95 	bl	43dc <Chip_TIMER_Reset>
    2ab2:	f44f 7380 	mov.w	r3, #256	; 0x100
    2ab6:	4a2c      	ldr	r2, [pc, #176]	; (2b68 <main+0x2868>)
    2ab8:	606f      	str	r7, [r5, #4]
    2aba:	492c      	ldr	r1, [pc, #176]	; (2b6c <main+0x286c>)
    2abc:	4829      	ldr	r0, [pc, #164]	; (2b64 <main+0x2864>)
    2abe:	f004 fc5f 	bl	7380 <arm_biquad_cascade_df1_fast_q15>
    2ac2:	606e      	str	r6, [r5, #4]
    2ac4:	68a9      	ldr	r1, [r5, #8]
    2ac6:	482a      	ldr	r0, [pc, #168]	; (2b70 <main+0x2870>)
    2ac8:	1b09      	subs	r1, r1, r4
    2aca:	f006 ff6f 	bl	99ac <printf>
    2ace:	4829      	ldr	r0, [pc, #164]	; (2b74 <main+0x2874>)
    2ad0:	f006 ff6c 	bl	99ac <printf>
    2ad4:	4628      	mov	r0, r5
    2ad6:	f001 fc81 	bl	43dc <Chip_TIMER_Reset>
    2ada:	f44f 7300 	mov.w	r3, #512	; 0x200
    2ade:	4a22      	ldr	r2, [pc, #136]	; (2b68 <main+0x2868>)
    2ae0:	606f      	str	r7, [r5, #4]
    2ae2:	4922      	ldr	r1, [pc, #136]	; (2b6c <main+0x286c>)
    2ae4:	481f      	ldr	r0, [pc, #124]	; (2b64 <main+0x2864>)
    2ae6:	f004 fc4b 	bl	7380 <arm_biquad_cascade_df1_fast_q15>
    2aea:	606e      	str	r6, [r5, #4]
    2aec:	68a9      	ldr	r1, [r5, #8]
    2aee:	4820      	ldr	r0, [pc, #128]	; (2b70 <main+0x2870>)
    2af0:	1b09      	subs	r1, r1, r4
    2af2:	f006 ff5b 	bl	99ac <printf>
    2af6:	481f      	ldr	r0, [pc, #124]	; (2b74 <main+0x2874>)
    2af8:	f006 ff58 	bl	99ac <printf>
    2afc:	4628      	mov	r0, r5
    2afe:	f001 fc6d 	bl	43dc <Chip_TIMER_Reset>
    2b02:	f44f 6380 	mov.w	r3, #1024	; 0x400
    2b06:	4a18      	ldr	r2, [pc, #96]	; (2b68 <main+0x2868>)
    2b08:	606f      	str	r7, [r5, #4]
    2b0a:	4918      	ldr	r1, [pc, #96]	; (2b6c <main+0x286c>)
    2b0c:	4815      	ldr	r0, [pc, #84]	; (2b64 <main+0x2864>)
    2b0e:	f004 fc37 	bl	7380 <arm_biquad_cascade_df1_fast_q15>
    2b12:	606e      	str	r6, [r5, #4]
    2b14:	68a9      	ldr	r1, [r5, #8]
    2b16:	4816      	ldr	r0, [pc, #88]	; (2b70 <main+0x2870>)
    2b18:	1b09      	subs	r1, r1, r4
    2b1a:	f006 ff47 	bl	99ac <printf>
    2b1e:	4815      	ldr	r0, [pc, #84]	; (2b74 <main+0x2874>)
    2b20:	f006 ff44 	bl	99ac <printf>
    2b24:	4628      	mov	r0, r5
    2b26:	f001 fc59 	bl	43dc <Chip_TIMER_Reset>
    2b2a:	464b      	mov	r3, r9
    2b2c:	4a0e      	ldr	r2, [pc, #56]	; (2b68 <main+0x2868>)
    2b2e:	606f      	str	r7, [r5, #4]
    2b30:	490e      	ldr	r1, [pc, #56]	; (2b6c <main+0x286c>)
    2b32:	480c      	ldr	r0, [pc, #48]	; (2b64 <main+0x2864>)
    2b34:	f004 fc24 	bl	7380 <arm_biquad_cascade_df1_fast_q15>
    2b38:	606e      	str	r6, [r5, #4]
    2b3a:	68a9      	ldr	r1, [r5, #8]
    2b3c:	480c      	ldr	r0, [pc, #48]	; (2b70 <main+0x2870>)
    2b3e:	1b09      	subs	r1, r1, r4
    2b40:	f006 ff34 	bl	99ac <printf>
    2b44:	480b      	ldr	r0, [pc, #44]	; (2b74 <main+0x2874>)
    2b46:	f006 ff31 	bl	99ac <printf>
    2b4a:	4628      	mov	r0, r5
    2b4c:	f001 fc46 	bl	43dc <Chip_TIMER_Reset>
    2b50:	f44f 5380 	mov.w	r3, #4096	; 0x1000
    2b54:	e014      	b.n	2b80 <main+0x2880>
    2b56:	bf00      	nop
    2b58:	0000bd54 	.word	0x0000bd54
    2b5c:	20000158 	.word	0x20000158
    2b60:	20000014 	.word	0x20000014
    2b64:	2000a508 	.word	0x2000a508
    2b68:	20006508 	.word	0x20006508
    2b6c:	200023fc 	.word	0x200023fc
    2b70:	0000bb78 	.word	0x0000bb78
    2b74:	0000bcd8 	.word	0x0000bcd8
    2b78:	0000bb10 	.word	0x0000bb10
    2b7c:	0000bd68 	.word	0x0000bd68
    2b80:	4ab3      	ldr	r2, [pc, #716]	; (2e50 <main+0x2b50>)
    2b82:	606f      	str	r7, [r5, #4]
    2b84:	49b3      	ldr	r1, [pc, #716]	; (2e54 <main+0x2b54>)
    2b86:	48b4      	ldr	r0, [pc, #720]	; (2e58 <main+0x2b58>)
    2b88:	f004 fbfa 	bl	7380 <arm_biquad_cascade_df1_fast_q15>
    2b8c:	606e      	str	r6, [r5, #4]
    2b8e:	68a9      	ldr	r1, [r5, #8]
    2b90:	48b2      	ldr	r0, [pc, #712]	; (2e5c <main+0x2b5c>)
    2b92:	1b09      	subs	r1, r1, r4
    2b94:	f006 ff0a 	bl	99ac <printf>
    2b98:	48b1      	ldr	r0, [pc, #708]	; (2e60 <main+0x2b60>)
    2b9a:	f006 ff07 	bl	99ac <printf>
    2b9e:	48b1      	ldr	r0, [pc, #708]	; (2e64 <main+0x2b64>)
    2ba0:	f006 ff04 	bl	99ac <printf>
    2ba4:	48b0      	ldr	r0, [pc, #704]	; (2e68 <main+0x2b68>)
    2ba6:	f006 ff01 	bl	99ac <printf>
    2baa:	4bb0      	ldr	r3, [pc, #704]	; (2e6c <main+0x2b6c>)
    2bac:	4ab0      	ldr	r2, [pc, #704]	; (2e70 <main+0x2b70>)
    2bae:	f8cd 9000 	str.w	r9, [sp]
    2bb2:	2108      	movs	r1, #8
    2bb4:	48af      	ldr	r0, [pc, #700]	; (2e74 <main+0x2b74>)
    2bb6:	f005 faf5 	bl	81a4 <arm_fir_init_q15>
    2bba:	4628      	mov	r0, r5
    2bbc:	f001 fc0e 	bl	43dc <Chip_TIMER_Reset>
    2bc0:	2310      	movs	r3, #16
    2bc2:	4aa3      	ldr	r2, [pc, #652]	; (2e50 <main+0x2b50>)
    2bc4:	606f      	str	r7, [r5, #4]
    2bc6:	49a3      	ldr	r1, [pc, #652]	; (2e54 <main+0x2b54>)
    2bc8:	48aa      	ldr	r0, [pc, #680]	; (2e74 <main+0x2b74>)
    2bca:	f005 fb13 	bl	81f4 <arm_fir_q15>
    2bce:	606e      	str	r6, [r5, #4]
    2bd0:	68a9      	ldr	r1, [r5, #8]
    2bd2:	48a2      	ldr	r0, [pc, #648]	; (2e5c <main+0x2b5c>)
    2bd4:	1b09      	subs	r1, r1, r4
    2bd6:	f006 fee9 	bl	99ac <printf>
    2bda:	48a1      	ldr	r0, [pc, #644]	; (2e60 <main+0x2b60>)
    2bdc:	f006 fee6 	bl	99ac <printf>
    2be0:	4628      	mov	r0, r5
    2be2:	f001 fbfb 	bl	43dc <Chip_TIMER_Reset>
    2be6:	2320      	movs	r3, #32
    2be8:	4a99      	ldr	r2, [pc, #612]	; (2e50 <main+0x2b50>)
    2bea:	606f      	str	r7, [r5, #4]
    2bec:	4999      	ldr	r1, [pc, #612]	; (2e54 <main+0x2b54>)
    2bee:	48a1      	ldr	r0, [pc, #644]	; (2e74 <main+0x2b74>)
    2bf0:	f005 fb00 	bl	81f4 <arm_fir_q15>
    2bf4:	606e      	str	r6, [r5, #4]
    2bf6:	68a9      	ldr	r1, [r5, #8]
    2bf8:	4898      	ldr	r0, [pc, #608]	; (2e5c <main+0x2b5c>)
    2bfa:	1b09      	subs	r1, r1, r4
    2bfc:	f006 fed6 	bl	99ac <printf>
    2c00:	4897      	ldr	r0, [pc, #604]	; (2e60 <main+0x2b60>)
    2c02:	f006 fed3 	bl	99ac <printf>
    2c06:	4628      	mov	r0, r5
    2c08:	f001 fbe8 	bl	43dc <Chip_TIMER_Reset>
    2c0c:	2340      	movs	r3, #64	; 0x40
    2c0e:	4a90      	ldr	r2, [pc, #576]	; (2e50 <main+0x2b50>)
    2c10:	606f      	str	r7, [r5, #4]
    2c12:	4990      	ldr	r1, [pc, #576]	; (2e54 <main+0x2b54>)
    2c14:	4897      	ldr	r0, [pc, #604]	; (2e74 <main+0x2b74>)
    2c16:	f005 faed 	bl	81f4 <arm_fir_q15>
    2c1a:	606e      	str	r6, [r5, #4]
    2c1c:	68a9      	ldr	r1, [r5, #8]
    2c1e:	488f      	ldr	r0, [pc, #572]	; (2e5c <main+0x2b5c>)
    2c20:	1b09      	subs	r1, r1, r4
    2c22:	f006 fec3 	bl	99ac <printf>
    2c26:	488e      	ldr	r0, [pc, #568]	; (2e60 <main+0x2b60>)
    2c28:	f006 fec0 	bl	99ac <printf>
    2c2c:	4628      	mov	r0, r5
    2c2e:	f001 fbd5 	bl	43dc <Chip_TIMER_Reset>
    2c32:	2380      	movs	r3, #128	; 0x80
    2c34:	4a86      	ldr	r2, [pc, #536]	; (2e50 <main+0x2b50>)
    2c36:	606f      	str	r7, [r5, #4]
    2c38:	4986      	ldr	r1, [pc, #536]	; (2e54 <main+0x2b54>)
    2c3a:	488e      	ldr	r0, [pc, #568]	; (2e74 <main+0x2b74>)
    2c3c:	f005 fada 	bl	81f4 <arm_fir_q15>
    2c40:	606e      	str	r6, [r5, #4]
    2c42:	68a9      	ldr	r1, [r5, #8]
    2c44:	4885      	ldr	r0, [pc, #532]	; (2e5c <main+0x2b5c>)
    2c46:	1b09      	subs	r1, r1, r4
    2c48:	f006 feb0 	bl	99ac <printf>
    2c4c:	4884      	ldr	r0, [pc, #528]	; (2e60 <main+0x2b60>)
    2c4e:	f006 fead 	bl	99ac <printf>
    2c52:	4628      	mov	r0, r5
    2c54:	f001 fbc2 	bl	43dc <Chip_TIMER_Reset>
    2c58:	f44f 7380 	mov.w	r3, #256	; 0x100
    2c5c:	4a7c      	ldr	r2, [pc, #496]	; (2e50 <main+0x2b50>)
    2c5e:	606f      	str	r7, [r5, #4]
    2c60:	497c      	ldr	r1, [pc, #496]	; (2e54 <main+0x2b54>)
    2c62:	4884      	ldr	r0, [pc, #528]	; (2e74 <main+0x2b74>)
    2c64:	f005 fac6 	bl	81f4 <arm_fir_q15>
    2c68:	606e      	str	r6, [r5, #4]
    2c6a:	68a9      	ldr	r1, [r5, #8]
    2c6c:	487b      	ldr	r0, [pc, #492]	; (2e5c <main+0x2b5c>)
    2c6e:	1b09      	subs	r1, r1, r4
    2c70:	f006 fe9c 	bl	99ac <printf>
    2c74:	487a      	ldr	r0, [pc, #488]	; (2e60 <main+0x2b60>)
    2c76:	f006 fe99 	bl	99ac <printf>
    2c7a:	4628      	mov	r0, r5
    2c7c:	f001 fbae 	bl	43dc <Chip_TIMER_Reset>
    2c80:	f44f 7300 	mov.w	r3, #512	; 0x200
    2c84:	4a72      	ldr	r2, [pc, #456]	; (2e50 <main+0x2b50>)
    2c86:	606f      	str	r7, [r5, #4]
    2c88:	4972      	ldr	r1, [pc, #456]	; (2e54 <main+0x2b54>)
    2c8a:	487a      	ldr	r0, [pc, #488]	; (2e74 <main+0x2b74>)
    2c8c:	f005 fab2 	bl	81f4 <arm_fir_q15>
    2c90:	606e      	str	r6, [r5, #4]
    2c92:	68a9      	ldr	r1, [r5, #8]
    2c94:	4871      	ldr	r0, [pc, #452]	; (2e5c <main+0x2b5c>)
    2c96:	1b09      	subs	r1, r1, r4
    2c98:	f006 fe88 	bl	99ac <printf>
    2c9c:	4870      	ldr	r0, [pc, #448]	; (2e60 <main+0x2b60>)
    2c9e:	f006 fe85 	bl	99ac <printf>
    2ca2:	4628      	mov	r0, r5
    2ca4:	f001 fb9a 	bl	43dc <Chip_TIMER_Reset>
    2ca8:	f44f 6380 	mov.w	r3, #1024	; 0x400
    2cac:	4a68      	ldr	r2, [pc, #416]	; (2e50 <main+0x2b50>)
    2cae:	606f      	str	r7, [r5, #4]
    2cb0:	4968      	ldr	r1, [pc, #416]	; (2e54 <main+0x2b54>)
    2cb2:	4870      	ldr	r0, [pc, #448]	; (2e74 <main+0x2b74>)
    2cb4:	f005 fa9e 	bl	81f4 <arm_fir_q15>
    2cb8:	606e      	str	r6, [r5, #4]
    2cba:	68a9      	ldr	r1, [r5, #8]
    2cbc:	4867      	ldr	r0, [pc, #412]	; (2e5c <main+0x2b5c>)
    2cbe:	1b09      	subs	r1, r1, r4
    2cc0:	f006 fe74 	bl	99ac <printf>
    2cc4:	4866      	ldr	r0, [pc, #408]	; (2e60 <main+0x2b60>)
    2cc6:	f006 fe71 	bl	99ac <printf>
    2cca:	4628      	mov	r0, r5
    2ccc:	f001 fb86 	bl	43dc <Chip_TIMER_Reset>
    2cd0:	464b      	mov	r3, r9
    2cd2:	4a5f      	ldr	r2, [pc, #380]	; (2e50 <main+0x2b50>)
    2cd4:	606f      	str	r7, [r5, #4]
    2cd6:	495f      	ldr	r1, [pc, #380]	; (2e54 <main+0x2b54>)
    2cd8:	4866      	ldr	r0, [pc, #408]	; (2e74 <main+0x2b74>)
    2cda:	f005 fa8b 	bl	81f4 <arm_fir_q15>
    2cde:	606e      	str	r6, [r5, #4]
    2ce0:	68a9      	ldr	r1, [r5, #8]
    2ce2:	485e      	ldr	r0, [pc, #376]	; (2e5c <main+0x2b5c>)
    2ce4:	1b09      	subs	r1, r1, r4
    2ce6:	f006 fe61 	bl	99ac <printf>
    2cea:	485d      	ldr	r0, [pc, #372]	; (2e60 <main+0x2b60>)
    2cec:	f006 fe5e 	bl	99ac <printf>
    2cf0:	4861      	ldr	r0, [pc, #388]	; (2e78 <main+0x2b78>)
    2cf2:	f006 fe5b 	bl	99ac <printf>
    2cf6:	485b      	ldr	r0, [pc, #364]	; (2e64 <main+0x2b64>)
    2cf8:	f006 fe58 	bl	99ac <printf>
    2cfc:	485f      	ldr	r0, [pc, #380]	; (2e7c <main+0x2b7c>)
    2cfe:	f006 fe55 	bl	99ac <printf>
    2d02:	4b5a      	ldr	r3, [pc, #360]	; (2e6c <main+0x2b6c>)
    2d04:	4a5a      	ldr	r2, [pc, #360]	; (2e70 <main+0x2b70>)
    2d06:	f8cd 9000 	str.w	r9, [sp]
    2d0a:	2110      	movs	r1, #16
    2d0c:	4859      	ldr	r0, [pc, #356]	; (2e74 <main+0x2b74>)
    2d0e:	f005 fa49 	bl	81a4 <arm_fir_init_q15>
    2d12:	4628      	mov	r0, r5
    2d14:	f001 fb62 	bl	43dc <Chip_TIMER_Reset>
    2d18:	2310      	movs	r3, #16
    2d1a:	4a4d      	ldr	r2, [pc, #308]	; (2e50 <main+0x2b50>)
    2d1c:	606f      	str	r7, [r5, #4]
    2d1e:	494d      	ldr	r1, [pc, #308]	; (2e54 <main+0x2b54>)
    2d20:	4854      	ldr	r0, [pc, #336]	; (2e74 <main+0x2b74>)
    2d22:	f005 fa67 	bl	81f4 <arm_fir_q15>
    2d26:	606e      	str	r6, [r5, #4]
    2d28:	68a9      	ldr	r1, [r5, #8]
    2d2a:	484c      	ldr	r0, [pc, #304]	; (2e5c <main+0x2b5c>)
    2d2c:	1b09      	subs	r1, r1, r4
    2d2e:	f006 fe3d 	bl	99ac <printf>
    2d32:	484b      	ldr	r0, [pc, #300]	; (2e60 <main+0x2b60>)
    2d34:	f006 fe3a 	bl	99ac <printf>
    2d38:	4628      	mov	r0, r5
    2d3a:	f001 fb4f 	bl	43dc <Chip_TIMER_Reset>
    2d3e:	2320      	movs	r3, #32
    2d40:	4a43      	ldr	r2, [pc, #268]	; (2e50 <main+0x2b50>)
    2d42:	606f      	str	r7, [r5, #4]
    2d44:	4943      	ldr	r1, [pc, #268]	; (2e54 <main+0x2b54>)
    2d46:	484b      	ldr	r0, [pc, #300]	; (2e74 <main+0x2b74>)
    2d48:	f005 fa54 	bl	81f4 <arm_fir_q15>
    2d4c:	606e      	str	r6, [r5, #4]
    2d4e:	68a9      	ldr	r1, [r5, #8]
    2d50:	4842      	ldr	r0, [pc, #264]	; (2e5c <main+0x2b5c>)
    2d52:	1b09      	subs	r1, r1, r4
    2d54:	f006 fe2a 	bl	99ac <printf>
    2d58:	4841      	ldr	r0, [pc, #260]	; (2e60 <main+0x2b60>)
    2d5a:	f006 fe27 	bl	99ac <printf>
    2d5e:	4628      	mov	r0, r5
    2d60:	f001 fb3c 	bl	43dc <Chip_TIMER_Reset>
    2d64:	2340      	movs	r3, #64	; 0x40
    2d66:	4a3a      	ldr	r2, [pc, #232]	; (2e50 <main+0x2b50>)
    2d68:	606f      	str	r7, [r5, #4]
    2d6a:	493a      	ldr	r1, [pc, #232]	; (2e54 <main+0x2b54>)
    2d6c:	4841      	ldr	r0, [pc, #260]	; (2e74 <main+0x2b74>)
    2d6e:	f005 fa41 	bl	81f4 <arm_fir_q15>
    2d72:	606e      	str	r6, [r5, #4]
    2d74:	68a9      	ldr	r1, [r5, #8]
    2d76:	4839      	ldr	r0, [pc, #228]	; (2e5c <main+0x2b5c>)
    2d78:	1b09      	subs	r1, r1, r4
    2d7a:	f006 fe17 	bl	99ac <printf>
    2d7e:	4838      	ldr	r0, [pc, #224]	; (2e60 <main+0x2b60>)
    2d80:	f006 fe14 	bl	99ac <printf>
    2d84:	4628      	mov	r0, r5
    2d86:	f001 fb29 	bl	43dc <Chip_TIMER_Reset>
    2d8a:	2380      	movs	r3, #128	; 0x80
    2d8c:	4a30      	ldr	r2, [pc, #192]	; (2e50 <main+0x2b50>)
    2d8e:	606f      	str	r7, [r5, #4]
    2d90:	4930      	ldr	r1, [pc, #192]	; (2e54 <main+0x2b54>)
    2d92:	4838      	ldr	r0, [pc, #224]	; (2e74 <main+0x2b74>)
    2d94:	f005 fa2e 	bl	81f4 <arm_fir_q15>
    2d98:	606e      	str	r6, [r5, #4]
    2d9a:	68a9      	ldr	r1, [r5, #8]
    2d9c:	482f      	ldr	r0, [pc, #188]	; (2e5c <main+0x2b5c>)
    2d9e:	1b09      	subs	r1, r1, r4
    2da0:	f006 fe04 	bl	99ac <printf>
    2da4:	482e      	ldr	r0, [pc, #184]	; (2e60 <main+0x2b60>)
    2da6:	f006 fe01 	bl	99ac <printf>
    2daa:	4628      	mov	r0, r5
    2dac:	f001 fb16 	bl	43dc <Chip_TIMER_Reset>
    2db0:	f44f 7380 	mov.w	r3, #256	; 0x100
    2db4:	4a26      	ldr	r2, [pc, #152]	; (2e50 <main+0x2b50>)
    2db6:	606f      	str	r7, [r5, #4]
    2db8:	4926      	ldr	r1, [pc, #152]	; (2e54 <main+0x2b54>)
    2dba:	482e      	ldr	r0, [pc, #184]	; (2e74 <main+0x2b74>)
    2dbc:	f005 fa1a 	bl	81f4 <arm_fir_q15>
    2dc0:	606e      	str	r6, [r5, #4]
    2dc2:	68a9      	ldr	r1, [r5, #8]
    2dc4:	4825      	ldr	r0, [pc, #148]	; (2e5c <main+0x2b5c>)
    2dc6:	1b09      	subs	r1, r1, r4
    2dc8:	f006 fdf0 	bl	99ac <printf>
    2dcc:	4824      	ldr	r0, [pc, #144]	; (2e60 <main+0x2b60>)
    2dce:	f006 fded 	bl	99ac <printf>
    2dd2:	4628      	mov	r0, r5
    2dd4:	f001 fb02 	bl	43dc <Chip_TIMER_Reset>
    2dd8:	f44f 7300 	mov.w	r3, #512	; 0x200
    2ddc:	4a1c      	ldr	r2, [pc, #112]	; (2e50 <main+0x2b50>)
    2dde:	606f      	str	r7, [r5, #4]
    2de0:	491c      	ldr	r1, [pc, #112]	; (2e54 <main+0x2b54>)
    2de2:	4824      	ldr	r0, [pc, #144]	; (2e74 <main+0x2b74>)
    2de4:	f005 fa06 	bl	81f4 <arm_fir_q15>
    2de8:	606e      	str	r6, [r5, #4]
    2dea:	68a9      	ldr	r1, [r5, #8]
    2dec:	481b      	ldr	r0, [pc, #108]	; (2e5c <main+0x2b5c>)
    2dee:	1b09      	subs	r1, r1, r4
    2df0:	f006 fddc 	bl	99ac <printf>
    2df4:	481a      	ldr	r0, [pc, #104]	; (2e60 <main+0x2b60>)
    2df6:	f006 fdd9 	bl	99ac <printf>
    2dfa:	4628      	mov	r0, r5
    2dfc:	f001 faee 	bl	43dc <Chip_TIMER_Reset>
    2e00:	f44f 6380 	mov.w	r3, #1024	; 0x400
    2e04:	4a12      	ldr	r2, [pc, #72]	; (2e50 <main+0x2b50>)
    2e06:	606f      	str	r7, [r5, #4]
    2e08:	4912      	ldr	r1, [pc, #72]	; (2e54 <main+0x2b54>)
    2e0a:	481a      	ldr	r0, [pc, #104]	; (2e74 <main+0x2b74>)
    2e0c:	f005 f9f2 	bl	81f4 <arm_fir_q15>
    2e10:	606e      	str	r6, [r5, #4]
    2e12:	68a9      	ldr	r1, [r5, #8]
    2e14:	4811      	ldr	r0, [pc, #68]	; (2e5c <main+0x2b5c>)
    2e16:	1b09      	subs	r1, r1, r4
    2e18:	f006 fdc8 	bl	99ac <printf>
    2e1c:	4810      	ldr	r0, [pc, #64]	; (2e60 <main+0x2b60>)
    2e1e:	f006 fdc5 	bl	99ac <printf>
    2e22:	4628      	mov	r0, r5
    2e24:	f001 fada 	bl	43dc <Chip_TIMER_Reset>
    2e28:	464b      	mov	r3, r9
    2e2a:	4a09      	ldr	r2, [pc, #36]	; (2e50 <main+0x2b50>)
    2e2c:	606f      	str	r7, [r5, #4]
    2e2e:	4909      	ldr	r1, [pc, #36]	; (2e54 <main+0x2b54>)
    2e30:	4810      	ldr	r0, [pc, #64]	; (2e74 <main+0x2b74>)
    2e32:	f005 f9df 	bl	81f4 <arm_fir_q15>
    2e36:	606e      	str	r6, [r5, #4]
    2e38:	68a9      	ldr	r1, [r5, #8]
    2e3a:	4808      	ldr	r0, [pc, #32]	; (2e5c <main+0x2b5c>)
    2e3c:	1b09      	subs	r1, r1, r4
    2e3e:	f006 fdb5 	bl	99ac <printf>
    2e42:	4807      	ldr	r0, [pc, #28]	; (2e60 <main+0x2b60>)
    2e44:	f006 fdb2 	bl	99ac <printf>
    2e48:	480b      	ldr	r0, [pc, #44]	; (2e78 <main+0x2b78>)
    2e4a:	f006 fdaf 	bl	99ac <printf>
    2e4e:	e017      	b.n	2e80 <main+0x2b80>
    2e50:	20006508 	.word	0x20006508
    2e54:	200023fc 	.word	0x200023fc
    2e58:	2000a508 	.word	0x2000a508
    2e5c:	0000bb78 	.word	0x0000bb78
    2e60:	0000bcd8 	.word	0x0000bcd8
    2e64:	0000bb10 	.word	0x0000bb10
    2e68:	0000bd84 	.word	0x0000bd84
    2e6c:	20000348 	.word	0x20000348
    2e70:	200002b8 	.word	0x200002b8
    2e74:	2000647c 	.word	0x2000647c
    2e78:	0000bc08 	.word	0x0000bc08
    2e7c:	0000bd94 	.word	0x0000bd94
    2e80:	48c4      	ldr	r0, [pc, #784]	; (3194 <main+0x2e94>)
    2e82:	f006 fd93 	bl	99ac <printf>
    2e86:	48c4      	ldr	r0, [pc, #784]	; (3198 <main+0x2e98>)
    2e88:	f006 fd90 	bl	99ac <printf>
    2e8c:	4bc3      	ldr	r3, [pc, #780]	; (319c <main+0x2e9c>)
    2e8e:	4ac4      	ldr	r2, [pc, #784]	; (31a0 <main+0x2ea0>)
    2e90:	f8cd 9000 	str.w	r9, [sp]
    2e94:	2120      	movs	r1, #32
    2e96:	48c3      	ldr	r0, [pc, #780]	; (31a4 <main+0x2ea4>)
    2e98:	f005 f984 	bl	81a4 <arm_fir_init_q15>
    2e9c:	4628      	mov	r0, r5
    2e9e:	f001 fa9d 	bl	43dc <Chip_TIMER_Reset>
    2ea2:	2310      	movs	r3, #16
    2ea4:	4ac0      	ldr	r2, [pc, #768]	; (31a8 <main+0x2ea8>)
    2ea6:	606f      	str	r7, [r5, #4]
    2ea8:	49c0      	ldr	r1, [pc, #768]	; (31ac <main+0x2eac>)
    2eaa:	48be      	ldr	r0, [pc, #760]	; (31a4 <main+0x2ea4>)
    2eac:	f005 f9a2 	bl	81f4 <arm_fir_q15>
    2eb0:	606e      	str	r6, [r5, #4]
    2eb2:	68a9      	ldr	r1, [r5, #8]
    2eb4:	48be      	ldr	r0, [pc, #760]	; (31b0 <main+0x2eb0>)
    2eb6:	1b09      	subs	r1, r1, r4
    2eb8:	f006 fd78 	bl	99ac <printf>
    2ebc:	48bd      	ldr	r0, [pc, #756]	; (31b4 <main+0x2eb4>)
    2ebe:	f006 fd75 	bl	99ac <printf>
    2ec2:	4628      	mov	r0, r5
    2ec4:	f001 fa8a 	bl	43dc <Chip_TIMER_Reset>
    2ec8:	2320      	movs	r3, #32
    2eca:	4ab7      	ldr	r2, [pc, #732]	; (31a8 <main+0x2ea8>)
    2ecc:	606f      	str	r7, [r5, #4]
    2ece:	49b7      	ldr	r1, [pc, #732]	; (31ac <main+0x2eac>)
    2ed0:	48b4      	ldr	r0, [pc, #720]	; (31a4 <main+0x2ea4>)
    2ed2:	f005 f98f 	bl	81f4 <arm_fir_q15>
    2ed6:	606e      	str	r6, [r5, #4]
    2ed8:	68a9      	ldr	r1, [r5, #8]
    2eda:	48b5      	ldr	r0, [pc, #724]	; (31b0 <main+0x2eb0>)
    2edc:	1b09      	subs	r1, r1, r4
    2ede:	f006 fd65 	bl	99ac <printf>
    2ee2:	48b4      	ldr	r0, [pc, #720]	; (31b4 <main+0x2eb4>)
    2ee4:	f006 fd62 	bl	99ac <printf>
    2ee8:	4628      	mov	r0, r5
    2eea:	f001 fa77 	bl	43dc <Chip_TIMER_Reset>
    2eee:	2340      	movs	r3, #64	; 0x40
    2ef0:	4aad      	ldr	r2, [pc, #692]	; (31a8 <main+0x2ea8>)
    2ef2:	606f      	str	r7, [r5, #4]
    2ef4:	49ad      	ldr	r1, [pc, #692]	; (31ac <main+0x2eac>)
    2ef6:	48ab      	ldr	r0, [pc, #684]	; (31a4 <main+0x2ea4>)
    2ef8:	f005 f97c 	bl	81f4 <arm_fir_q15>
    2efc:	606e      	str	r6, [r5, #4]
    2efe:	68a9      	ldr	r1, [r5, #8]
    2f00:	48ab      	ldr	r0, [pc, #684]	; (31b0 <main+0x2eb0>)
    2f02:	1b09      	subs	r1, r1, r4
    2f04:	f006 fd52 	bl	99ac <printf>
    2f08:	48aa      	ldr	r0, [pc, #680]	; (31b4 <main+0x2eb4>)
    2f0a:	f006 fd4f 	bl	99ac <printf>
    2f0e:	4628      	mov	r0, r5
    2f10:	f001 fa64 	bl	43dc <Chip_TIMER_Reset>
    2f14:	2380      	movs	r3, #128	; 0x80
    2f16:	4aa4      	ldr	r2, [pc, #656]	; (31a8 <main+0x2ea8>)
    2f18:	606f      	str	r7, [r5, #4]
    2f1a:	4641      	mov	r1, r8
    2f1c:	48a1      	ldr	r0, [pc, #644]	; (31a4 <main+0x2ea4>)
    2f1e:	f005 f969 	bl	81f4 <arm_fir_q15>
    2f22:	606e      	str	r6, [r5, #4]
    2f24:	68a9      	ldr	r1, [r5, #8]
    2f26:	48a2      	ldr	r0, [pc, #648]	; (31b0 <main+0x2eb0>)
    2f28:	1b09      	subs	r1, r1, r4
    2f2a:	f006 fd3f 	bl	99ac <printf>
    2f2e:	48a1      	ldr	r0, [pc, #644]	; (31b4 <main+0x2eb4>)
    2f30:	f006 fd3c 	bl	99ac <printf>
    2f34:	4628      	mov	r0, r5
    2f36:	f001 fa51 	bl	43dc <Chip_TIMER_Reset>
    2f3a:	f44f 7380 	mov.w	r3, #256	; 0x100
    2f3e:	4a9a      	ldr	r2, [pc, #616]	; (31a8 <main+0x2ea8>)
    2f40:	606f      	str	r7, [r5, #4]
    2f42:	4641      	mov	r1, r8
    2f44:	4897      	ldr	r0, [pc, #604]	; (31a4 <main+0x2ea4>)
    2f46:	f005 f955 	bl	81f4 <arm_fir_q15>
    2f4a:	606e      	str	r6, [r5, #4]
    2f4c:	68a9      	ldr	r1, [r5, #8]
    2f4e:	4898      	ldr	r0, [pc, #608]	; (31b0 <main+0x2eb0>)
    2f50:	1b09      	subs	r1, r1, r4
    2f52:	f006 fd2b 	bl	99ac <printf>
    2f56:	4897      	ldr	r0, [pc, #604]	; (31b4 <main+0x2eb4>)
    2f58:	f006 fd28 	bl	99ac <printf>
    2f5c:	4628      	mov	r0, r5
    2f5e:	f001 fa3d 	bl	43dc <Chip_TIMER_Reset>
    2f62:	f44f 7300 	mov.w	r3, #512	; 0x200
    2f66:	4a90      	ldr	r2, [pc, #576]	; (31a8 <main+0x2ea8>)
    2f68:	606f      	str	r7, [r5, #4]
    2f6a:	4641      	mov	r1, r8
    2f6c:	488d      	ldr	r0, [pc, #564]	; (31a4 <main+0x2ea4>)
    2f6e:	f005 f941 	bl	81f4 <arm_fir_q15>
    2f72:	606e      	str	r6, [r5, #4]
    2f74:	68a9      	ldr	r1, [r5, #8]
    2f76:	488e      	ldr	r0, [pc, #568]	; (31b0 <main+0x2eb0>)
    2f78:	1b09      	subs	r1, r1, r4
    2f7a:	f006 fd17 	bl	99ac <printf>
    2f7e:	488d      	ldr	r0, [pc, #564]	; (31b4 <main+0x2eb4>)
    2f80:	f006 fd14 	bl	99ac <printf>
    2f84:	4628      	mov	r0, r5
    2f86:	f001 fa29 	bl	43dc <Chip_TIMER_Reset>
    2f8a:	f44f 6380 	mov.w	r3, #1024	; 0x400
    2f8e:	4a86      	ldr	r2, [pc, #536]	; (31a8 <main+0x2ea8>)
    2f90:	606f      	str	r7, [r5, #4]
    2f92:	4641      	mov	r1, r8
    2f94:	4883      	ldr	r0, [pc, #524]	; (31a4 <main+0x2ea4>)
    2f96:	f005 f92d 	bl	81f4 <arm_fir_q15>
    2f9a:	606e      	str	r6, [r5, #4]
    2f9c:	68a9      	ldr	r1, [r5, #8]
    2f9e:	4884      	ldr	r0, [pc, #528]	; (31b0 <main+0x2eb0>)
    2fa0:	1b09      	subs	r1, r1, r4
    2fa2:	f006 fd03 	bl	99ac <printf>
    2fa6:	4883      	ldr	r0, [pc, #524]	; (31b4 <main+0x2eb4>)
    2fa8:	f006 fd00 	bl	99ac <printf>
    2fac:	4628      	mov	r0, r5
    2fae:	f001 fa15 	bl	43dc <Chip_TIMER_Reset>
    2fb2:	f44f 6300 	mov.w	r3, #2048	; 0x800
    2fb6:	4a7c      	ldr	r2, [pc, #496]	; (31a8 <main+0x2ea8>)
    2fb8:	606f      	str	r7, [r5, #4]
    2fba:	4641      	mov	r1, r8
    2fbc:	4879      	ldr	r0, [pc, #484]	; (31a4 <main+0x2ea4>)
    2fbe:	f005 f919 	bl	81f4 <arm_fir_q15>
    2fc2:	606e      	str	r6, [r5, #4]
    2fc4:	68a9      	ldr	r1, [r5, #8]
    2fc6:	487a      	ldr	r0, [pc, #488]	; (31b0 <main+0x2eb0>)
    2fc8:	1b09      	subs	r1, r1, r4
    2fca:	f006 fcef 	bl	99ac <printf>
    2fce:	4879      	ldr	r0, [pc, #484]	; (31b4 <main+0x2eb4>)
    2fd0:	f006 fcec 	bl	99ac <printf>
    2fd4:	4878      	ldr	r0, [pc, #480]	; (31b8 <main+0x2eb8>)
    2fd6:	f006 fce9 	bl	99ac <printf>
    2fda:	4878      	ldr	r0, [pc, #480]	; (31bc <main+0x2ebc>)
    2fdc:	f006 fce6 	bl	99ac <printf>
    2fe0:	4877      	ldr	r0, [pc, #476]	; (31c0 <main+0x2ec0>)
    2fe2:	f006 fce3 	bl	99ac <printf>
    2fe6:	486b      	ldr	r0, [pc, #428]	; (3194 <main+0x2e94>)
    2fe8:	f006 fce0 	bl	99ac <printf>
    2fec:	4875      	ldr	r0, [pc, #468]	; (31c4 <main+0x2ec4>)
    2fee:	f006 fcdd 	bl	99ac <printf>
    2ff2:	4a75      	ldr	r2, [pc, #468]	; (31c8 <main+0x2ec8>)
    2ff4:	4b75      	ldr	r3, [pc, #468]	; (31cc <main+0x2ecc>)
    2ff6:	f8ca 201c 	str.w	r2, [sl, #28]
    2ffa:	4639      	mov	r1, r7
    2ffc:	f04f 527c 	mov.w	r2, #1056964608	; 0x3f000000
    3000:	4650      	mov	r0, sl
    3002:	f8ca 3020 	str.w	r3, [sl, #32]
    3006:	f8ca 2018 	str.w	r2, [sl, #24]
    300a:	46a9      	mov	r9, r5
    300c:	f005 fb80 	bl	8710 <arm_pid_init_f32>
    3010:	4647      	mov	r7, r8
    3012:	f108 0320 	add.w	r3, r8, #32
    3016:	486e      	ldr	r0, [pc, #440]	; (31d0 <main+0x2ed0>)
    3018:	9302      	str	r3, [sp, #8]
    301a:	f001 f9df 	bl	43dc <Chip_TIMER_Reset>
    301e:	edda 6a03 	vldr	s13, [sl, #12]
    3022:	ed9a 7a01 	vldr	s14, [sl, #4]
    3026:	ecb7 6a01 	vldmia	r7!, {s12}
    302a:	edda 4a00 	vldr	s9, [sl]
    302e:	edda 5a04 	vldr	s11, [sl, #16]
    3032:	ed9a 5a02 	vldr	s10, [sl, #8]
    3036:	edda 7a05 	vldr	s15, [sl, #20]
    303a:	485d      	ldr	r0, [pc, #372]	; (31b0 <main+0x2eb0>)
    303c:	4d65      	ldr	r5, [pc, #404]	; (31d4 <main+0x2ed4>)
    303e:	ee26 7a87 	vmul.f32	s14, s13, s14
    3042:	2200      	movs	r2, #0
    3044:	eea6 7a24 	vfma.f32	s14, s12, s9
    3048:	2601      	movs	r6, #1
    304a:	f8c9 6004 	str.w	r6, [r9, #4]
    304e:	ed8a 6a03 	vstr	s12, [sl, #12]
    3052:	eea5 7a25 	vfma.f32	s14, s10, s11
    3056:	edca 6a04 	vstr	s13, [sl, #16]
    305a:	ee77 7a27 	vadd.f32	s15, s14, s15
    305e:	edcd 7a07 	vstr	s15, [sp, #28]
    3062:	f8c9 2004 	str.w	r2, [r9, #4]
    3066:	f8d9 1008 	ldr.w	r1, [r9, #8]
    306a:	edca 7a05 	vstr	s15, [sl, #20]
    306e:	1b09      	subs	r1, r1, r4
    3070:	f006 fc9c 	bl	99ac <printf>
    3074:	484f      	ldr	r0, [pc, #316]	; (31b4 <main+0x2eb4>)
    3076:	f006 fc99 	bl	99ac <printf>
    307a:	eddd 7a07 	vldr	s15, [sp, #28]
    307e:	9b02      	ldr	r3, [sp, #8]
    3080:	ee77 7aa7 	vadd.f32	s15, s15, s15
    3084:	42bb      	cmp	r3, r7
    3086:	edcd 7a07 	vstr	s15, [sp, #28]
    308a:	d1c4      	bne.n	3016 <main+0x2d16>
    308c:	4841      	ldr	r0, [pc, #260]	; (3194 <main+0x2e94>)
    308e:	4f52      	ldr	r7, [pc, #328]	; (31d8 <main+0x2ed8>)
    3090:	f006 fc8c 	bl	99ac <printf>
    3094:	483f      	ldr	r0, [pc, #252]	; (3194 <main+0x2e94>)
    3096:	f006 fc89 	bl	99ac <printf>
    309a:	4850      	ldr	r0, [pc, #320]	; (31dc <main+0x2edc>)
    309c:	f006 fc86 	bl	99ac <printf>
    30a0:	f04f 4380 	mov.w	r3, #1073741824	; 0x40000000
    30a4:	61ab      	str	r3, [r5, #24]
    30a6:	4b4e      	ldr	r3, [pc, #312]	; (31e0 <main+0x2ee0>)
    30a8:	61eb      	str	r3, [r5, #28]
    30aa:	4631      	mov	r1, r6
    30ac:	4b4d      	ldr	r3, [pc, #308]	; (31e4 <main+0x2ee4>)
    30ae:	4e48      	ldr	r6, [pc, #288]	; (31d0 <main+0x2ed0>)
    30b0:	622b      	str	r3, [r5, #32]
    30b2:	4628      	mov	r0, r5
    30b4:	f005 fb68 	bl	8788 <arm_pid_init_q31>
    30b8:	46a1      	mov	r9, r4
    30ba:	f8cd b008 	str.w	fp, [sp, #8]
    30be:	4844      	ldr	r0, [pc, #272]	; (31d0 <main+0x2ed0>)
    30c0:	f001 f98c 	bl	43dc <Chip_TIMER_Reset>
    30c4:	2501      	movs	r5, #1
    30c6:	9b02      	ldr	r3, [sp, #8]
    30c8:	6075      	str	r5, [r6, #4]
    30ca:	f853 1f04 	ldr.w	r1, [r3, #4]!
    30ce:	f8da 400c 	ldr.w	r4, [sl, #12]
    30d2:	f8da 2004 	ldr.w	r2, [sl, #4]
    30d6:	f8da 0000 	ldr.w	r0, [sl]
    30da:	9302      	str	r3, [sp, #8]
    30dc:	f8da 3008 	ldr.w	r3, [sl, #8]
    30e0:	9303      	str	r3, [sp, #12]
    30e2:	fb82 2304 	smull	r2, r3, r2, r4
    30e6:	fbc1 2300 	smlal	r2, r3, r1, r0
    30ea:	f8ca 100c 	str.w	r1, [sl, #12]
    30ee:	469c      	mov	ip, r3
    30f0:	f8da 1010 	ldr.w	r1, [sl, #16]
    30f4:	9b03      	ldr	r3, [sp, #12]
    30f6:	f8ca 4010 	str.w	r4, [sl, #16]
    30fa:	4693      	mov	fp, r2
    30fc:	fbc1 bc03 	smlal	fp, ip, r1, r3
    3100:	465b      	mov	r3, fp
    3102:	f8da 2014 	ldr.w	r2, [sl, #20]
    3106:	482a      	ldr	r0, [pc, #168]	; (31b0 <main+0x2eb0>)
    3108:	0fd9      	lsrs	r1, r3, #31
    310a:	ea41 014c 	orr.w	r1, r1, ip, lsl #1
    310e:	188b      	adds	r3, r1, r2
    3110:	ee07 3a90 	vmov	s15, r3
    3114:	eef8 7ae7 	vcvt.f32.s32	s15, s15
    3118:	2200      	movs	r2, #0
    311a:	edcd 7a07 	vstr	s15, [sp, #28]
    311e:	6072      	str	r2, [r6, #4]
    3120:	68b1      	ldr	r1, [r6, #8]
    3122:	f8ca 3014 	str.w	r3, [sl, #20]
    3126:	ebc9 0101 	rsb	r1, r9, r1
    312a:	f006 fc3f 	bl	99ac <printf>
    312e:	4821      	ldr	r0, [pc, #132]	; (31b4 <main+0x2eb4>)
    3130:	f006 fc3c 	bl	99ac <printf>
    3134:	eddd 7a07 	vldr	s15, [sp, #28]
    3138:	9b02      	ldr	r3, [sp, #8]
    313a:	ee77 7aa7 	vadd.f32	s15, s15, s15
    313e:	42bb      	cmp	r3, r7
    3140:	edcd 7a07 	vstr	s15, [sp, #28]
    3144:	d1bb      	bne.n	30be <main+0x2dbe>
    3146:	4813      	ldr	r0, [pc, #76]	; (3194 <main+0x2e94>)
    3148:	4f21      	ldr	r7, [pc, #132]	; (31d0 <main+0x2ed0>)
    314a:	f006 fc2f 	bl	99ac <printf>
    314e:	4826      	ldr	r0, [pc, #152]	; (31e8 <main+0x2ee8>)
    3150:	f006 fc2c 	bl	99ac <printf>
    3154:	9500      	str	r5, [sp, #0]
    3156:	4629      	mov	r1, r5
    3158:	4b24      	ldr	r3, [pc, #144]	; (31ec <main+0x2eec>)
    315a:	4a25      	ldr	r2, [pc, #148]	; (31f0 <main+0x2ef0>)
    315c:	4825      	ldr	r0, [pc, #148]	; (31f4 <main+0x2ef4>)
    315e:	f003 fcfd 	bl	6b5c <arm_biquad_cas_df1_32x64_init_q31>
    3162:	464c      	mov	r4, r9
    3164:	2508      	movs	r5, #8
    3166:	481a      	ldr	r0, [pc, #104]	; (31d0 <main+0x2ed0>)
    3168:	2601      	movs	r6, #1
    316a:	f001 f937 	bl	43dc <Chip_TIMER_Reset>
    316e:	4a0e      	ldr	r2, [pc, #56]	; (31a8 <main+0x2ea8>)
    3170:	490e      	ldr	r1, [pc, #56]	; (31ac <main+0x2eac>)
    3172:	4820      	ldr	r0, [pc, #128]	; (31f4 <main+0x2ef4>)
    3174:	607e      	str	r6, [r7, #4]
    3176:	4633      	mov	r3, r6
    3178:	f003 fd00 	bl	6b7c <arm_biquad_cas_df1_32x64_q31>
    317c:	2300      	movs	r3, #0
    317e:	607b      	str	r3, [r7, #4]
    3180:	68b9      	ldr	r1, [r7, #8]
    3182:	480b      	ldr	r0, [pc, #44]	; (31b0 <main+0x2eb0>)
    3184:	1b09      	subs	r1, r1, r4
    3186:	f006 fc11 	bl	99ac <printf>
    318a:	480a      	ldr	r0, [pc, #40]	; (31b4 <main+0x2eb4>)
    318c:	f006 fc0e 	bl	99ac <printf>
    3190:	e032      	b.n	31f8 <main+0x2ef8>
    3192:	bf00      	nop
    3194:	0000bb10 	.word	0x0000bb10
    3198:	0000bda4 	.word	0x0000bda4
    319c:	20000348 	.word	0x20000348
    31a0:	200002b8 	.word	0x200002b8
    31a4:	2000647c 	.word	0x2000647c
    31a8:	20006508 	.word	0x20006508
    31ac:	200023fc 	.word	0x200023fc
    31b0:	0000bb78 	.word	0x0000bb78
    31b4:	0000bcd8 	.word	0x0000bcd8
    31b8:	0000bc08 	.word	0x0000bc08
    31bc:	0000bdb4 	.word	0x0000bdb4
    31c0:	0000bdd0 	.word	0x0000bdd0
    31c4:	0000bdf0 	.word	0x0000bdf0
    31c8:	3dcccccd 	.word	0x3dcccccd
    31cc:	3d4ccccd 	.word	0x3d4ccccd
    31d0:	40008000 	.word	0x40008000
    31d4:	200023c8 	.word	0x200023c8
    31d8:	20002418 	.word	0x20002418
    31dc:	0000bdfc 	.word	0x0000bdfc
    31e0:	0cccccd0 	.word	0x0cccccd0
    31e4:	06666668 	.word	0x06666668
    31e8:	0000be08 	.word	0x0000be08
    31ec:	20000138 	.word	0x20000138
    31f0:	20000020 	.word	0x20000020
    31f4:	2000a508 	.word	0x2000a508
    31f8:	3d01      	subs	r5, #1
    31fa:	d1b4      	bne.n	3166 <main+0x2e66>
    31fc:	4846      	ldr	r0, [pc, #280]	; (3318 <main+0x3018>)
    31fe:	4f47      	ldr	r7, [pc, #284]	; (331c <main+0x301c>)
    3200:	f006 fbd4 	bl	99ac <printf>
    3204:	4846      	ldr	r0, [pc, #280]	; (3320 <main+0x3020>)
    3206:	f006 fbd1 	bl	99ac <printf>
    320a:	4b46      	ldr	r3, [pc, #280]	; (3324 <main+0x3024>)
    320c:	4618      	mov	r0, r3
    320e:	60dd      	str	r5, [r3, #12]
    3210:	611d      	str	r5, [r3, #16]
    3212:	601d      	str	r5, [r3, #0]
    3214:	605d      	str	r5, [r3, #4]
    3216:	609d      	str	r5, [r3, #8]
    3218:	751e      	strb	r6, [r3, #20]
    321a:	f000 f8df 	bl	33dc <Init_q31_t_IIR>
    321e:	2508      	movs	r5, #8
    3220:	483e      	ldr	r0, [pc, #248]	; (331c <main+0x301c>)
    3222:	2601      	movs	r6, #1
    3224:	f001 f8da 	bl	43dc <Chip_TIMER_Reset>
    3228:	607e      	str	r6, [r7, #4]
    322a:	4a3f      	ldr	r2, [pc, #252]	; (3328 <main+0x3028>)
    322c:	f8d8 1000 	ldr.w	r1, [r8]
    3230:	483c      	ldr	r0, [pc, #240]	; (3324 <main+0x3024>)
    3232:	f000 f8dd 	bl	33f0 <Compute_q31_t_IIR>
    3236:	2300      	movs	r3, #0
    3238:	607b      	str	r3, [r7, #4]
    323a:	68b9      	ldr	r1, [r7, #8]
    323c:	483b      	ldr	r0, [pc, #236]	; (332c <main+0x302c>)
    323e:	1b09      	subs	r1, r1, r4
    3240:	f006 fbb4 	bl	99ac <printf>
    3244:	483a      	ldr	r0, [pc, #232]	; (3330 <main+0x3030>)
    3246:	f006 fbb1 	bl	99ac <printf>
    324a:	3d01      	subs	r5, #1
    324c:	d1e8      	bne.n	3220 <main+0x2f20>
    324e:	4832      	ldr	r0, [pc, #200]	; (3318 <main+0x3018>)
    3250:	4d38      	ldr	r5, [pc, #224]	; (3334 <main+0x3034>)
    3252:	4f32      	ldr	r7, [pc, #200]	; (331c <main+0x301c>)
    3254:	f006 fbaa 	bl	99ac <printf>
    3258:	4837      	ldr	r0, [pc, #220]	; (3338 <main+0x3038>)
    325a:	f006 fba7 	bl	99ac <printf>
    325e:	f643 70ff 	movw	r0, #16383	; 0x3fff
    3262:	4631      	mov	r1, r6
    3264:	f640 42cc 	movw	r2, #3276	; 0xccc
    3268:	f240 6366 	movw	r3, #1638	; 0x666
    326c:	f8aa 000e 	strh.w	r0, [sl, #14]
    3270:	4832      	ldr	r0, [pc, #200]	; (333c <main+0x303c>)
    3272:	f8aa 2010 	strh.w	r2, [sl, #16]
    3276:	f8aa 3012 	strh.w	r3, [sl, #18]
    327a:	f005 fa65 	bl	8748 <arm_pid_init_q15>
    327e:	f105 0610 	add.w	r6, r5, #16
    3282:	4826      	ldr	r0, [pc, #152]	; (331c <main+0x301c>)
    3284:	f001 f8aa 	bl	43dc <Chip_TIMER_Reset>
    3288:	2301      	movs	r3, #1
    328a:	607b      	str	r3, [r7, #4]
    328c:	f9ba 1000 	ldrsh.w	r1, [sl]
    3290:	f935 ef02 	ldrsh.w	lr, [r5, #2]!
    3294:	fb21 f10e 	smuad	r1, r1, lr
    3298:	17cb      	asrs	r3, r1, #31
    329a:	4618      	mov	r0, r3
    329c:	f8da 2008 	ldr.w	r2, [sl, #8]
    32a0:	f8da 3004 	ldr.w	r3, [sl, #4]
    32a4:	fbc3 10c2 	smlald	r1, r0, r3, r2
    32a8:	f9ba c00c 	ldrsh.w	ip, [sl, #12]
    32ac:	f8ba 3008 	ldrh.w	r3, [sl, #8]
    32b0:	f8aa 300a 	strh.w	r3, [sl, #10]
    32b4:	f04f 0800 	mov.w	r8, #0
    32b8:	ea48 0201 	orr.w	r2, r8, r1
    32bc:	ea4f 31cc 	mov.w	r1, ip, lsl #15
    32c0:	eb12 0b01 	adds.w	fp, r2, r1
    32c4:	4681      	mov	r9, r0
    32c6:	eb49 7ce1 	adc.w	ip, r9, r1, asr #31
    32ca:	ea4f 32db 	mov.w	r2, fp, lsr #15
    32ce:	ea42 424c 	orr.w	r2, r2, ip, lsl #17
    32d2:	f302 030f 	ssat	r3, #16, r2
    32d6:	b21b      	sxth	r3, r3
    32d8:	ee07 3a90 	vmov	s15, r3
    32dc:	eef8 7ae7 	vcvt.f32.s32	s15, s15
    32e0:	f8aa 300c 	strh.w	r3, [sl, #12]
    32e4:	edcd 7a07 	vstr	s15, [sp, #28]
    32e8:	f8c7 8004 	str.w	r8, [r7, #4]
    32ec:	68b9      	ldr	r1, [r7, #8]
    32ee:	480f      	ldr	r0, [pc, #60]	; (332c <main+0x302c>)
    32f0:	f8aa e008 	strh.w	lr, [sl, #8]
    32f4:	1b09      	subs	r1, r1, r4
    32f6:	f006 fb59 	bl	99ac <printf>
    32fa:	480d      	ldr	r0, [pc, #52]	; (3330 <main+0x3030>)
    32fc:	f006 fb56 	bl	99ac <printf>
    3300:	eddd 7a07 	vldr	s15, [sp, #28]
    3304:	ee77 7aa7 	vadd.f32	s15, s15, s15
    3308:	42ae      	cmp	r6, r5
    330a:	edcd 7a07 	vstr	s15, [sp, #28]
    330e:	d1b8      	bne.n	3282 <main+0x2f82>
    3310:	4801      	ldr	r0, [pc, #4]	; (3318 <main+0x3018>)
    3312:	f006 fb4b 	bl	99ac <printf>
    3316:	e7fe      	b.n	3316 <main+0x3016>
    3318:	0000bb10 	.word	0x0000bb10
    331c:	40008000 	.word	0x40008000
    3320:	0000be20 	.word	0x0000be20
    3324:	200002f8 	.word	0x200002f8
    3328:	20006508 	.word	0x20006508
    332c:	0000bb78 	.word	0x0000bb78
    3330:	0000bcd8 	.word	0x0000bcd8
    3334:	200023fa 	.word	0x200023fa
    3338:	0000be3c 	.word	0x0000be3c
    333c:	200023c8 	.word	0x200023c8

00003340 <InitGoertzel_f32>:
    3340:	ee80 0a20 	vdiv.f32	s0, s0, s1
    3344:	b538      	push	{r3, r4, r5, lr}
    3346:	4604      	mov	r4, r0
    3348:	460d      	mov	r5, r1
    334a:	ed2d 8b02 	vpush	{d8}
    334e:	ee30 8a00 	vadd.f32	s16, s0, s0
    3352:	eef0 8a60 	vmov.f32	s17, s1
    3356:	eeb0 0a48 	vmov.f32	s0, s16
    335a:	f005 fdd9 	bl	8f10 <cosf>
    335e:	ed84 0a00 	vstr	s0, [r4]
    3362:	eeb0 0a48 	vmov.f32	s0, s16
    3366:	f005 fdeb 	bl	8f40 <sinf>
    336a:	edc4 8a03 	vstr	s17, [r4, #12]
    336e:	ecbd 8b02 	vpop	{d8}
    3372:	eeb1 0a40 	vneg.f32	s0, s0
    3376:	ed84 0a01 	vstr	s0, [r4, #4]
    337a:	60a5      	str	r5, [r4, #8]
    337c:	bd38      	pop	{r3, r4, r5, pc}
    337e:	bf00      	nop

00003380 <ProcessGoertzel_f32_Power>:
    3380:	6883      	ldr	r3, [r0, #8]
    3382:	b30b      	cbz	r3, 33c8 <ProcessGoertzel_f32_Power+0x48>
    3384:	edd0 5a00 	vldr	s11, [r0]
    3388:	eddf 6a13 	vldr	s13, [pc, #76]	; 33d8 <ProcessGoertzel_f32_Power+0x58>
    338c:	eb01 0383 	add.w	r3, r1, r3, lsl #2
    3390:	ee35 6aa5 	vadd.f32	s12, s11, s11
    3394:	eeb0 7a66 	vmov.f32	s14, s13
    3398:	e001      	b.n	339e <ProcessGoertzel_f32_Power+0x1e>
    339a:	eeb0 7a67 	vmov.f32	s14, s15
    339e:	ecf1 7a01 	vldmia	r1!, {s15}
    33a2:	eee7 7a06 	vfma.f32	s15, s14, s12
    33a6:	428b      	cmp	r3, r1
    33a8:	ee77 7ae6 	vsub.f32	s15, s15, s13
    33ac:	eef0 6a47 	vmov.f32	s13, s14
    33b0:	d1f3      	bne.n	339a <ProcessGoertzel_f32_Power+0x1a>
    33b2:	ed90 0a01 	vldr	s0, [r0, #4]
    33b6:	ee97 7aa5 	vfnms.f32	s14, s15, s11
    33ba:	ee67 7a80 	vmul.f32	s15, s15, s0
    33be:	ee27 0aa7 	vmul.f32	s0, s15, s15
    33c2:	eea7 0a07 	vfma.f32	s0, s14, s14
    33c6:	4770      	bx	lr
    33c8:	ed9f 7a03 	vldr	s14, [pc, #12]	; 33d8 <ProcessGoertzel_f32_Power+0x58>
    33cc:	edd0 5a00 	vldr	s11, [r0]
    33d0:	eef0 7a47 	vmov.f32	s15, s14
    33d4:	e7ed      	b.n	33b2 <ProcessGoertzel_f32_Power+0x32>
    33d6:	bf00      	nop
    33d8:	00000000 	.word	0x00000000

000033dc <Init_q31_t_IIR>:
    33dc:	2300      	movs	r3, #0
    33de:	2200      	movs	r2, #0
    33e0:	e9c0 2308 	strd	r2, r3, [r0, #32]
    33e4:	e9c0 230a 	strd	r2, r3, [r0, #40]	; 0x28
    33e8:	2300      	movs	r3, #0
    33ea:	f880 3048 	strb.w	r3, [r0, #72]	; 0x48
    33ee:	4770      	bx	lr

000033f0 <Compute_q31_t_IIR>:
    33f0:	e92d 4ff0 	stmdb	sp!, {r4, r5, r6, r7, r8, r9, sl, fp, lr}
    33f4:	6985      	ldr	r5, [r0, #24]
    33f6:	6844      	ldr	r4, [r0, #4]
    33f8:	6807      	ldr	r7, [r0, #0]
    33fa:	69c6      	ldr	r6, [r0, #28]
    33fc:	61c5      	str	r5, [r0, #28]
    33fe:	fb85 4504 	smull	r4, r5, r5, r4
    3402:	fbc7 4501 	smlal	r4, r5, r7, r1
    3406:	46a8      	mov	r8, r5
    3408:	6885      	ldr	r5, [r0, #8]
    340a:	68c3      	ldr	r3, [r0, #12]
    340c:	f8d0 c010 	ldr.w	ip, [r0, #16]
    3410:	6181      	str	r1, [r0, #24]
    3412:	e9d0 ab08 	ldrd	sl, fp, [r0, #32]
    3416:	4627      	mov	r7, r4
    3418:	b087      	sub	sp, #28
    341a:	fbc5 7806 	smlal	r7, r8, r5, r6
    341e:	e9cd 7804 	strd	r7, r8, [sp, #16]
    3422:	17df      	asrs	r7, r3, #31
    3424:	fbaa 4503 	umull	r4, r5, sl, r3
    3428:	fb0a f807 	mul.w	r8, sl, r7
    342c:	6a44      	ldr	r4, [r0, #36]	; 0x24
    342e:	f04f 0b00 	mov.w	fp, #0
    3432:	fb03 880b 	mla	r8, r3, fp, r8
    3436:	44a8      	add	r8, r5
    3438:	fb04 f907 	mul.w	r9, r4, r7
    343c:	e9d0 450a 	ldrd	r4, r5, [r0, #40]	; 0x28
    3440:	4666      	mov	r6, ip
    3442:	17f7      	asrs	r7, r6, #31
    3444:	fb04 fe07 	mul.w	lr, r4, r7
    3448:	2500      	movs	r5, #0
    344a:	fb0c ee05 	mla	lr, ip, r5, lr
    344e:	fba4 450c 	umull	r4, r5, r4, ip
    3452:	e9cd 4502 	strd	r4, r5, [sp, #8]
    3456:	6ac4      	ldr	r4, [r0, #44]	; 0x2c
    3458:	fb04 fa07 	mul.w	sl, r4, r7
    345c:	6a44      	ldr	r4, [r0, #36]	; 0x24
    345e:	17e4      	asrs	r4, r4, #31
    3460:	fb03 9904 	mla	r9, r3, r4, r9
    3464:	6a44      	ldr	r4, [r0, #36]	; 0x24
    3466:	fba4 3403 	umull	r3, r4, r4, r3
    346a:	e9cd 3400 	strd	r3, r4, [sp]
    346e:	4623      	mov	r3, r4
    3470:	444b      	add	r3, r9
    3472:	9301      	str	r3, [sp, #4]
    3474:	44ae      	add	lr, r5
    3476:	e9dd 4500 	ldrd	r4, r5, [sp]
    347a:	4646      	mov	r6, r8
    347c:	eb14 0408 	adds.w	r4, r4, r8
    3480:	ea4f 77e6 	mov.w	r7, r6, asr #31
    3484:	417d      	adcs	r5, r7
    3486:	e9dd 7804 	ldrd	r7, r8, [sp, #16]
    348a:	4676      	mov	r6, lr
    348c:	193f      	adds	r7, r7, r4
    348e:	ea4f 73e6 	mov.w	r3, r6, asr #31
    3492:	463c      	mov	r4, r7
    3494:	461f      	mov	r7, r3
