
C:\Users\emh203\Documents\GitHub\ESC-M4\CM4_TEST\CM4_TEST_XPRESSO54114\-O3 HARD\CM4_TEST_LPC54110_O3_HARD.axf:     file format elf32-littlearm
C:\Users\emh203\Documents\GitHub\ESC-M4\CM4_TEST\CM4_TEST_XPRESSO54114\-O3 HARD\CM4_TEST_LPC54110_O3_HARD.axf
architecture: arm, flags 0x00000112:
EXEC_P, HAS_SYMS, D_PAGED
start address 0x00000151

Program Header:
    LOAD off    0x00010000 vaddr 0x00000000 paddr 0x00000000 align 2**16
         filesz 0x0001c600 memsz 0x0001c600 flags r-x
    LOAD off    0x00030000 vaddr 0x20000000 paddr 0x0001c600 align 2**16
         filesz 0x000000f8 memsz 0x0000a4c8 flags rw-
private flags = 5000400: [Version5 EABI] [hard-float ABI]

Sections:
Idx Name          Size      VMA       LMA       File off  Algn
  0 .text         0001c600  00000000  00000000  00010000  2**3
                  CONTENTS, ALLOC, LOAD, READONLY, CODE
  1 .data         000000f8  20000000  0001c600  00030000  2**2
                  CONTENTS, ALLOC, LOAD, DATA
  2 .bss          0000a3d0  200000f8  0001c6f8  000300f8  2**3
                  ALLOC
  3 .uninit_RESERVED 00000000  20000000  20000000  000300f8  2**2
                  CONTENTS
  4 .noinit       00000000  2000a4c8  2000a4c8  000300f8  2**2
                  CONTENTS
  5 .debug_info   00011cc6  00000000  00000000  000300f8  2**0
                  CONTENTS, READONLY, DEBUGGING
  6 .debug_abbrev 00002986  00000000  00000000  00041dbe  2**0
                  CONTENTS, READONLY, DEBUGGING
  7 .debug_loc    0000553f  00000000  00000000  00044744  2**0
                  CONTENTS, READONLY, DEBUGGING
  8 .debug_aranges 00000890  00000000  00000000  00049c88  2**3
                  CONTENTS, READONLY, DEBUGGING
  9 .debug_ranges 000007b8  00000000  00000000  0004a518  2**0
                  CONTENTS, READONLY, DEBUGGING
 10 .debug_macro  00008588  00000000  00000000  0004acd0  2**0
                  CONTENTS, READONLY, DEBUGGING
 11 .debug_line   00007856  00000000  00000000  00053258  2**0
                  CONTENTS, READONLY, DEBUGGING
 12 .debug_str    0001a286  00000000  00000000  0005aaae  2**0
                  CONTENTS, READONLY, DEBUGGING
 13 .comment      0000014c  00000000  00000000  00074d34  2**0
                  CONTENTS, READONLY
 14 .ARM.attributes 00000037  00000000  00000000  00074e80  2**0
                  CONTENTS, READONLY
 15 .debug_frame  00001b18  00000000  00000000  00074eb8  2**2
                  CONTENTS, READONLY, DEBUGGING
SYMBOL TABLE:
00000000 l    d  .text	00000000 .text
20000000 l    d  .data	00000000 .data
200000f8 l    d  .bss	00000000 .bss
20000000 l    d  .uninit_RESERVED	00000000 .uninit_RESERVED
2000a4c8 l    d  .noinit	00000000 .noinit
00000000 l    d  .debug_info	00000000 .debug_info
00000000 l    d  .debug_abbrev	00000000 .debug_abbrev
00000000 l    d  .debug_loc	00000000 .debug_loc
00000000 l    d  .debug_aranges	00000000 .debug_aranges
00000000 l    d  .debug_ranges	00000000 .debug_ranges
00000000 l    d  .debug_macro	00000000 .debug_macro
00000000 l    d  .debug_line	00000000 .debug_line
00000000 l    d  .debug_str	00000000 .debug_str
00000000 l    d  .comment	00000000 .comment
00000000 l    d  .ARM.attributes	00000000 .ARM.attributes
00000000 l    d  .debug_frame	00000000 .debug_frame
00000000 l    df *ABS*	00000000 cr_startup_lpc5411x.c
00000000 l    df *ABS*	00000000 crp.c
00000000 l    df *ABS*	00000000 CM4_TEST.c
00000000 l    df *ABS*	00000000 Goertzel.c
00000000 l    df *ABS*	00000000 sysinit.c
00000000 l    df *ABS*	00000000 board.c
00001548 l     F .text	00000040 Board_LED_Init
00001588 l     F .text	00000040 Board_TestIO_Init
000015c8 l     F .text	0000003c Board_Button_Init
00001604 l     F .text	0000003c Board_UART_Init
00007024 l     O .text	00000004 tstBits
00007028 l     O .text	00000006 btnBits
00007030 l     O .text	00000006 ledBits
00000000 l    df *ABS*	00000000 board_sysinit.c
00001700 l     F .text	00000094 ConfigureBridgeSSEL
00007038 l     O .text	00000030 pinmuxing
00000000 l    df *ABS*	00000000 chip_5411x.c
00000000 l    df *ABS*	00000000 clock_5411x.c
00001990 l     F .text	00000018 Chip_Clock_GetExtClockInRate
000019a8 l     F .text	00000012 Chip_Clock_GetRTCOscRate
000019bc l     F .text	0000002c Chip_Clock_GetFROHFRate
000019e8 l     F .text	0000001e Chip_Clock_GetMain_A_ClockSource
00001a08 l     F .text	00000018 Chip_Clock_GetMain_B_ClockSource
00001a20 l     F .text	0000001e Chip_Clock_GetFRGClockSource
00000000 l    df *ABS*	00000000 fpu_init.c
00000000 l    df *ABS*	00000000 pll_5411x.c
00001ccc l     F .text	00000018 Chip_Clock_GetExtClockInRate
00001ce4 l     F .text	00000012 Chip_Clock_GetRTCOscRate
20000108 l     O .bss	00000004 curPllRate
00001cf8 l     F .text	000000a0 pllDecodeN
00001d98 l     F .text	00000088 pllDecodeP
00001e20 l     F .text	000000a0 pllDecodeM
00001f7c l     F .text	00000020 Chip_Clock_GetSystemPLLOutFromSetupUpdate
00000000 l    df *ABS*	00000000 syscon_5411x.c
00000000 l    df *ABS*	00000000 sysinit_5411x.c
00002268 l     F .text	00000034 Chip_SYSCON_SetFLASHAccess
0000229c l     F .text	00000020 Chip_Clock_SetMain_A_ClockSource
000022bc l     F .text	00000020 Chip_Clock_SetMain_B_ClockSource
000022dc l     F .text	00000020 Chip_Clock_SetAsyncSysconClockSource
000022fc l     F .text	0000003c Chip_Clock_SetMainClockSource
00002338 l     F .text	00000068 setupFlashClocks
00000000 l    df *ABS*	00000000 timer_5411x.c
00000000 l    df *ABS*	00000000 uart_5411x.c
00002448 l     F .text	0000002c Chip_SYSCON_SetUSARTFRGCtrl
00002474 l     F .text	00000026 Chip_Clock_SetFLEXCOMMClockSource
0000249c l     F .text	00000020 Chip_Clock_SetFRGClockSource
000024bc l     F .text	0000001e Chip_Clock_GetFRGClockSource
000024dc l     F .text	00000020 Chip_UART_SendByte
000024fc l     F .text	0000001a Chip_UART_GetFIFOStatus
00002518 l     F .text	00000030 Chip_UART_SetFIFOCfg
00002548 l     F .text	0000001a Chip_UART_FlushFIFOs
00002564 l     F .text	00000064 _UART_DivClk
000025c8 l     F .text	00000052 _UART_GetHighDiv
0000261c l     F .text	00000070 _CalcErr
0000268c l     F .text	000000e4 _UART_CalcDiv
00002770 l     F .text	000000c8 _UART_CalcMul
00000000 l    df *ABS*	00000000 flexcomm_5411x.c
000029c0 l     F .text	00000088 Chip_SYSCON_PeriphReset
00002a48 l     F .text	00000038 Chip_SYSCON_EnableWakeup
00002a80 l     F .text	00000026 Chip_Clock_SetFLEXCOMMClockSource
00000000 l    df *ABS*	00000000 arm_cfft_f32.c
00000000 l    df *ABS*	00000000 arm_cfft_radix8_f32.c
00000000 l    df *ABS*	00000000 arm_biquad_cascade_df1_f32.c
00000000 l    df *ABS*	00000000 arm_biquad_cascade_df1_init_f32.c
00000000 l    df *ABS*	00000000 arm_biquad_cascade_df2T_f32.c
00000000 l    df *ABS*	00000000 arm_biquad_cascade_df2T_init_f32.c
00000000 l    df *ABS*	00000000 arm_fir_f32.c
00000000 l    df *ABS*	00000000 arm_fir_init_f32.c
00000000 l    df *ABS*	00000000 arm_pid_init_f32.c
00000000 l    df *ABS*	00000000 arm_cmplx_mag_f32.c
00000000 l    df *ABS*	00000000 arm_cmplx_mag_squared_f32.c
00000000 l    df *ABS*	00000000 arm_bitreversal2.o
000041f8 l       .text	00000000 arm_bitreversal_32_0
00004262 l       .text	00000000 arm_bitreversal_16_0
00000000 l    df *ABS*	00000000 _cr__main.c
00000000 l    df *ABS*	00000000 cosf.c
00000000 l    df *ABS*	00000000 sinf.c
00000000 l    df *ABS*	00000000 sqrtf_m4_hardfp.o
00000000 l    df *ABS*	00000000 memset.c
00000000 l    df *ABS*	00000000 fpprintf.c
0000431c l     F .text	0000004e fp_round
0000436a l     F .text	00000026 pr_dec.constprop.1
00004400 l     F .text	000008fe fp_display
00000000 l    df *ABS*	00000000 initio.c
00000000 l    df *ABS*	00000000 printf.c
00000000 l    df *ABS*	00000000 setvbuf.c
00000000 l    df *ABS*	00000000 stdlib.c
20000014 l     O .data	000000dc _random_number_seed
200000f0 l     O .data	00000004 _random_j
200000f4 l     O .data	00000004 _random_k
00000000 l    df *ABS*	00000000 strlen.c
00000000 l    df *ABS*	00000000 _sincosf.c
00000000 l    df *ABS*	00000000 fabsf.c
00000000 l    df *ABS*	00000000 _deferredlazyseek.c
00000000 l    df *ABS*	00000000 _fdopen.c
00000000 l    df *ABS*	00000000 _fflush.c
00000000 l    df *ABS*	00000000 _frexpl.c
00000000 l    df *ABS*	00000000 _ldexpl.c
00000000 l    df *ABS*	00000000 _writebuf.c
00000000 l    df *ABS*	00000000 alloc.c
00000000 l    df *ABS*	00000000 fclose.c
00000000 l    df *ABS*	00000000 fflush.c
00000000 l    df *ABS*	00000000 fseek.c
00000000 l    df *ABS*	00000000 ftell.c
00000000 l    df *ABS*	00000000 remove.c
00000000 l    df *ABS*	00000000 _cr_sbrk.c
00000000 l    df *ABS*	00000000 _do_fflush.c
00000000 l    df *ABS*	00000000 _cr_check_heap.c
00000000 l    df *ABS*	00000000 division_64.o
00006538 l       .text	00000000 ldiv64
000065d6 l       .text	00000000 ldiv_divzero
00006508 l       .text	00000000 ldiv32
000065e2 l       .text	00000000 udiv6432
00006510 l       .text	00000000 ldiv_return
00006526 l       .text	00000000 ldiv_sign
000065c0 l       .text	00000000 ldiv_res01
000065fe l       .text	00000000 udiv6432_entry
000065ea l       .text	00000000 udiv6432_loop1
00006600 l       .text	00000000 udiv6432_loop
00000000 l    df *ABS*	00000000 division_idiv0.o
00000000 l    df *ABS*	00000000 double.c
00000000 l    df *ABS*	00000000 float.c
00000000 l    df *ABS*	00000000 memcpy.o
00006df2 l       .text	00000000 memset1a
00006de0 l       .text	00000000 __bhs_memset4
00006de2 l       .text	00000000 memset4
00006dee l       .text	00000000 memset1
00000000 l    df *ABS*	00000000 __sys_appexit.o
00000000 l    df *ABS*	00000000 __sys_close.o
00000000 l    df *ABS*	00000000 __sys_flen.o
00000000 l    df *ABS*	00000000 __sys_istty.o
00000000 l    df *ABS*	00000000 __sys_remove.o
00000000 l    df *ABS*	00000000 __sys_seek.o
00000000 l    df *ABS*	00000000 __sys_tmpnam.o
00000000 l    df *ABS*	00000000 arm_const_structs.c
00000000 l    df *ABS*	00000000 arm_common_tables.c
00000000 l    df *ABS*	00000000 _hugeval.c
20000260 g     O .bss	00000040 FIR_Coef_q15
00006cea g     F .text	00000054 __aeabi_dcmple
00014570 g     O .text	00008000 twiddleCoef_4096
00000118  w    F .text	00000002 SCT0_IRQHandler
000042a8 g     F .text	00000014 __main
0000010c  w    F .text	00000002 DebugMon_Handler
00005da8 g     F .text	00000044 _deferredlazyseek
00000000 g       *ABS*	00000000 __base_MFlash256
00003248 g     F .text	000000f2 arm_cfft_f32
000000e0 g       .text	00000000 __section_table_start
00006e00 g     F .text	00000000 __exit
000021ac g     F .text	0000002e Chip_SYSCON_Enable_ASYNC_Syscon
00006e48 g     F .text	00000000 __sys_tmpnam
00004d5c g     F .text	00000054 printf
000070c8 g     O .text	00000010 arm_cfft_sR_f32_len64
000000f8  w    F .text	00000002 HardFault_Handler
00000118  w    F .text	00000002 WDT_BOD_IRQHandler
00000118  w    F .text	00000002 FLEXCOMM5_IRQHandler
00000000 g       *ABS*	00000000 __vectors_start__
00000118  w    F .text	00000002 FLEXCOMM7_IRQHandler
00000114  w    F .text	00000002 SysTick_Handler
00002930 g     F .text	0000008e Chip_UART_SetBaud
000023a0 g     F .text	0000006c Chip_SetupFROClocking
00000110  w    F .text	00000002 PendSV_Handler
00001f3c g     F .text	00000040 findPllMMult
000000f4  w    F .text	00000002 NMI_Handler
00001b68 g     F .text	0000001e Chip_Clock_GetSystemClockRate
0001c600 g       .text	00000000 __exidx_end
000000ec g       .text	00000000 __data_section_table_end
00000118  w    F .text	00000002 MRT_IRQHandler
00005dec g     F .text	00000140 __flsbuf
0000da08 g     O .text	00000100 twiddleCoef_32
dffd79be g       *ABS*	00000000 __valid_user_code_checksum
2000a4c0 g     O .bss	00000004 __SWVtrace_Enabled
20000250 g     O .bss	00000004 errno
0001c600 g       .text	00000000 _etext
00006060 g     F .text	00000060 _ldexpl
2000010c g     O .bss	00000004 _extra
00004312 g     F .text	00000000 sqrtf
000042a8  w    F .text	00000014 __CR_SEMIHOST
00005ff0 g     F .text	00000070 _frexpl
00000118  w    F .text	00000002 ADC_SEQB_IRQHandler
000014d0 g     F .text	0000005c ProcessGoertzel_f32_Power
00000138 g     F .text	00000018 bss_init
0000240c g     F .text	0000003c Chip_TIMER_Reset
00003bc4 g     F .text	000003f8 arm_fir_f32
00003bac g     F .text	00000018 arm_biquad_cascade_df2T_init_f32
00005b9c g     F .text	00000040 setvbuf
00004252 g       .text	00000000 arm_bitreversal_16
00011b60 g     O .text	00000200 twiddleCoef_64
000064e8 g     F .text	00000174 __aeabi_uldivmod
2000a4c8 g       .noinit	00000000 _noinit
2000a4c4 g     O .bss	00000004 SystemCoreClock
00001efc g     F .text	0000003e findPllPostDiv
00002838 g     F .text	00000032 Chip_UART_Init
00000118  w    F .text	00000002 HWVAD_IRQHandler
00006128 g     F .text	000000c8 malloc
00006438 g     F .text	00000014 remove
00002908 g     F .text	00000026 Chip_UART_CalculateBaud
0000b988 g     O .text	00000080 twiddleCoef_16
20000000 g     O .data	00000014 IIR_Coef_f32
000070a8 g     O .text	00000010 arm_cfft_sR_f32_len16
00000104  w    F .text	00000002 UsageFault_Handler
20028000 g       *ABS*	00000000 __top_RAM
00000118  w    F .text	00000002 FLEXCOMM3_IRQHandler
00004d00 g     F .text	0000005c vsnprintf
00003a38 g     F .text	00000018 arm_biquad_cascade_df1_init_f32
000017cc g     F .text	00000028 Board_SetupClocking
00006e18 g     F .text	00000000 __sys_flen
00004018 g     F .text	00000132 arm_cmplx_mag_f32
00001f9c g     F .text	00000064 Chip_Clock_GetSystemPLLInClockRate
00000118  w    F .text	00000002 CT32B2_IRQHandler
00000118  w    F .text	00000002 PIN_INT6_IRQHandler
00000118  w    F .text	00000002 IntDefaultHandler
00000300 g       .text	00000000 __CRP_WORD_END__
00005d98 g     F .text	00000010 fabsf
00000118  w    F .text	00000002 PIN_INT4_IRQHandler
00000000  w      *UND*	00000000 _pvHeapLimit
00006c92 g     F .text	00000058 __aeabi_dcmplt
000062ac g     F .text	00000030 fflush
00006770 g     F .text	0000013c __aeabi_ddiv
00000118  w    F .text	00000002 FLEXCOMM6_IRQHandler
0001c600 g       .text	00000000 __exidx_start
00006660 g     F .text	00000110 __aeabi_dmul
000002fc g     O .text	00000004 CRP_WORD
0000e940 g     O .text	00000060 armBitRevIndexTable32
00007020 g     O .text	00000004 ExtClockIn
00005f2c g     F .text	0000006a _fdopen
00001ec0 g     F .text	0000003a findPllPreDiv
00006dcc g     F .text	00000032 __aeabi_lowlevel_memset
000038f4 g     F .text	00000144 arm_biquad_cascade_df1_f32
00014060 g     O .text	00000370 armBitRevIndexTable256
0000644c g     F .text	00000040 _sbrk
200002a0 g     O .bss	00000050 E_IIR
200002f0 g     O .bss	00002080 FIR_State
000016a8 g     F .text	00000058 Board_Init
200000f8 g     O .bss	00000010 IIR_State_f32
000000e0 g       .text	00000000 __data_section_table
000042bc g     F .text	00000030 cosf
00006b74 g     F .text	00000058 __aeabi_d2f
00000118  w    F .text	00000002 RTC_IRQHandler
2000a4c8 g       .bss	00000000 _ebss
00000118  w    F .text	00000002 FLEXCOMM0_IRQHandler
00004e54 g     F .text	00000d46 __vfprintf
00001b40 g     F .text	00000028 Chip_Clock_GetMainClockRate
00000118  w    F .text	00000002 USB_NEEDCLK_IRQHandler
00013ce0 g     O .text	00000380 armBitRevIndexTable512
00000118  w    F .text	00000002 CT32B3_IRQHandler
0000fda0 g     O .text	00001dc0 armBitRevIndexTable2048
00006a60 g     F .text	00000114 __aeabi_dadd
0000011c g     F .text	0000001c data_init
00002000 g     F .text	00000144 Chip_Clock_GetSystemPLLOutFromSetup
0000333c g     F .text	000005b6 arm_radix8_butterfly_f32
00007088 g     O .text	00000010 arm_cfft_sR_f32_len256
00011d60 g     O .text	00001f80 armBitRevIndexTable4096
00001814 g     F .text	0000004c Chip_POWER_SetFROHFRate
000062dc g     F .text	00000110 fseek
00000000 g       *ABS*	00000000 __base_Flash
00000118  w    F .text	00000002 CT32B1_IRQHandler
000143d0 g     O .text	000001a0 armBitRevIndexTable128
00005f96 g     F .text	00000058 _fflush
00000118  w    F .text	00000002 PIN_INT5_IRQHandler
00006c0c g     F .text	00000046 __bhs_ui2d
00040000 g       *ABS*	00000000 __top_MFlash256
00006d3e g     F .text	00000054 __aeabi_dcmpge
00000118  w    F .text	00000002 PIN_INT2_IRQHandler
00005c68 g     F .text	00000130 _sincosf
00000118  w    F .text	00000002 FLEXCOMM2_IRQHandler
200000f8 g       .bss	00000000 _bss
000068ac g     F .text	000001b4 __aeabi_dsub
20002370 g     O .bss	00000024 PID_Inst
00001ae0 g     F .text	00000060 Chip_Clock_EnablePeriphClock
00005bdc g     F .text	0000003c rand
000070d8 g     O .text	00000010 arm_cfft_sR_f32_len1024
00040000 g       *ABS*	00000000 __top_Flash
2000a4c8 g       .noinit	00000000 _end_noinit
20028000 g       *ABS*	00000000 _vStackTop
0000e9a0 g     O .text	00000400 twiddleCoef_128
20002394 g     O .bss	00000010 G
0000b188 g     O .text	00000800 twiddleCoef_256
00007118 g     O .text	00004000 twiddleCoef_2048
00000118  w    F .text	00000002 PIN_INT7_IRQHandler
000000f4 g       .text	00000000 __bss_section_table_end
20000000 g       *ABS*	00000000 __base_Ram0_160
000064d0 g     F .text	00000018 __check_heap_overflow
00006c52 g     F .text	00000010 __aeabi_i2d
00000118  w    F .text	00000002 ADC_THCMP_IRQHandler
00000118  w    F .text	00000002 PIN_INT1_IRQHandler
00000118  w    F .text	00000002 USB_IRQHandler
200023a4 g     O .bss	00004000 InputData
00001860 g     F .text	00000118 Chip_POWER_SetVoltage
00001668 g     F .text	0000001c Board_UARTPutChar
00007098 g     O .text	00000010 arm_cfft_sR_f32_len2048
0000286c g     F .text	00000050 Chip_UART_Send
00000118  w    F .text	00000002 CT32B4_IRQHandler
00002144 g     F .text	00000068 Chip_Clock_GetSystemPLLOutClockRate
00000118  w    F .text	00000002 IOH_IRQHandler
000002fc g       .text	00000000 __CRP_WORD_START__
00001684 g     F .text	0000001a __sys_write
00003fe0 g     F .text	00000036 arm_pid_init_f32
00004318 g     F .text	00000004 memset
000000fc  w    F .text	00000002 MemManage_Handler
00000300 g     F .text	00001190 main
0000648c g     F .text	00000044 _do_fflush
000063ec g     F .text	0000004c ftell
00000118  w    F .text	00000002 MAILBOX_IRQHandler
00000108  w    F .text	00000002 SVC_Handler
00006240 g     F .text	0000006c fclose
00001b88 g     F .text	00000060 Chip_Clock_GetFRGInClockRate
0000eda0 g     O .text	00001000 twiddleCoef_512
0000db08 g     O .text	00000e10 armBitRevIndexTable1024
00000118  w    F .text	00000002 ADC_SEQA_IRQHandler
00006e3c g     F .text	00000000 __sys_seek
000064ec g     F .text	00000000 __bhs_ldivmod1
00001c58 g     F .text	00000074 fpuInit
00000118  w    F .text	00000002 PIN_INT0_IRQHandler
000041e8 g       .text	00000000 arm_bitreversal_32
00001aa0 g     F .text	00000040 Chip_Clock_GetMain_B_ClockRate
0000152c g     F .text	0000001c SystemInit
00000118  w    F .text	00000002 SPIFI_IRQHandler
000000ec g       .text	00000000 __bss_section_table
00001be8 g     F .text	00000070 Chip_Clock_GetWDTOSCRate
0001c5e0 g     O .text	00000008 __huge_vall
00006e0c g     F .text	00000000 __sys_close
000028bc g     F .text	0000004a Chip_UART_SendBlocking
00004390 g     F .text	0000006c sprintf
00003a50 g     F .text	0000015a arm_biquad_cascade_df2T_f32
00001794 g     F .text	00000038 Board_SetupMuxing
00001a40 g     F .text	00000060 Chip_Clock_GetMain_A_ClockRate
00000118  w    F .text	00000002 UTICK_IRQHandler
00000118  w    F .text	00000002 CT32B0_IRQHandler
000021dc g     F .text	0000008c Chip_SYSCON_PowerUp
200063a4 g     O .bss	00000080 FIR_Coef_f32
20000000 g       .uninit_RESERVED	00000000 _end_uninit_RESERVED
000060c0 g     F .text	00000068 _Cwritebuf
00001490 g     F .text	0000003e InitGoertzel_f32
20000000 g       .data	00000000 _data
2000a4c8 g       .bss	00000000 _pvHeapStart
000000f4 g       .text	00000000 __section_table_end
00003fbc g     F .text	00000022 arm_fir_init_f32
000042ec g     F .text	00000026 sinf
000070f8 g     O .text	00000010 arm_cfft_sR_f32_len512
00000118  w    F .text	00000002 GINT0_IRQHandler
00000118  w    F .text	00000002 FLEXCOMM4_IRQHandler
20006424 g     O .bss	0000000c FIR_Inst
000016a0 g     F .text	00000008 Board_Debug_Init
00006e30 g     F .text	00000000 __sys_remove
00006c62 g     F .text	00000030 __aeabi_dcmpeq
200000f8 g       .data	00000000 _edata
00002bb8 g     F .text	0000008e Chip_FLEXCOMM_SetPeriph
000070e8 g     O .text	00000010 arm_cfft_sR_f32_len128
00002dc8 g     F .text	00000480 arm_cfft_radix8by4_f32
00000118  w    F .text	00000002 FLEXCOMM1_IRQHandler
0000b118 g     O .text	00000070 armBitRevIndexTable64
20000254 g     O .bss	00000004 __heaps
00006e00 g     F .text	00000000 __sys_appexit
00007108 g     O .text	00000010 arm_cfft_sR_f32_len4096
20000000 g       *ABS*	00000000 __base_RAM
00000000 g     O .text	000000e0 g_pfnVectors
00000150 g     F .text	000000a4 ResetISR
00001978 g     F .text	00000018 SystemCoreClockUpdate
00002b44 g     F .text	00000074 Chip_FLEXCOMM_Init
00006bcc g     F .text	00000040 __aeabi_d2iz
00002aa8 g     F .text	0000009c Chip_FLEXCOMM_GetIndex
20000258 g     O .bss	00000004 __end_of_heap
0000ba08 g     O .text	00002000 twiddleCoef_1024
00000118  w    F .text	00000002 DMA_IRQHandler
00006220 g     F .text	00000020 _Csys_alloc
0000665c g     F .text	00000002 __aeabi_idiv0
00000118  w    F .text	00000002 Reserved38_IRQHandler
00000118  w    F .text	00000002 PIN_INT3_IRQHandler
00000100  w    F .text	00000002 BusFault_Handler
00005c18 g     F .text	0000004a strlen
000070b8 g     O .text	00000010 arm_cfft_sR_f32_len32
20006430 g     O .bss	00000080 FIR_Coef_q31
00001640 g     F .text	00000028 Board_LED_Set
00006d94 g     F .text	00000038 __aeabi_f2d
00004db0 g     F .text	000000a4 _initio
200064b0 g     O .bss	00004000 OutputData
00000118  w    F .text	00000002 GINT1_IRQHandler
20000110 g     O .bss	00000140 __Ciob
20028000 g       *ABS*	00000000 __top_Ram0_160
00006e24 g     F .text	00000000 __sys_istty
0000e918 g     O .text	00000028 armBitRevIndexTable16
00002c48 g     F .text	00000180 arm_cfft_radix8by2_f32
00000118  w    F .text	00000002 DMIC_IRQHandler
0000414c g     F .text	0000009c arm_cmplx_mag_squared_f32
000061f0 g     F .text	00000030 free
000017f4 g     F .text	00000020 Board_SystemInit
2000a4b0 g     O .bss	00000010 IIR_Inst



Disassembly of section .text:

00000000 <g_pfnVectors>:
       0:	00 80 02 20 51 01 00 00 f5 00 00 00 f9 00 00 00     ... Q...........
      10:	fd 00 00 00 01 01 00 00 05 01 00 00 be 79 fd df     .............y..
	...
      2c:	09 01 00 00 0d 01 00 00 00 00 00 00 11 01 00 00     ................
      3c:	15 01 00 00 19 01 00 00 19 01 00 00 19 01 00 00     ................
      4c:	19 01 00 00 19 01 00 00 19 01 00 00 19 01 00 00     ................
      5c:	19 01 00 00 19 01 00 00 19 01 00 00 19 01 00 00     ................
      6c:	19 01 00 00 19 01 00 00 19 01 00 00 19 01 00 00     ................
      7c:	19 01 00 00 19 01 00 00 19 01 00 00 19 01 00 00     ................
      8c:	19 01 00 00 19 01 00 00 19 01 00 00 19 01 00 00     ................
      9c:	19 01 00 00 19 01 00 00 19 01 00 00 19 01 00 00     ................
      ac:	19 01 00 00 19 01 00 00 19 01 00 00 19 01 00 00     ................
      bc:	19 01 00 00 19 01 00 00 19 01 00 00 19 01 00 00     ................
      cc:	19 01 00 00 19 01 00 00 19 01 00 00 19 01 00 00     ................
      dc:	19 01 00 00                                         ....

000000e0 <__data_section_table>:
      e0:	0001c600 	.word	0x0001c600
      e4:	20000000 	.word	0x20000000
      e8:	000000f8 	.word	0x000000f8

000000ec <__bss_section_table>:
      ec:	200000f8 	.word	0x200000f8
      f0:	0000a3d0 	.word	0x0000a3d0

000000f4 <NMI_Handler>:
      f4:	e7fe      	b.n	f4 <NMI_Handler>
      f6:	bf00      	nop

000000f8 <HardFault_Handler>:
      f8:	e7fe      	b.n	f8 <HardFault_Handler>
      fa:	bf00      	nop

000000fc <MemManage_Handler>:
      fc:	e7fe      	b.n	fc <MemManage_Handler>
      fe:	bf00      	nop

00000100 <BusFault_Handler>:
     100:	e7fe      	b.n	100 <BusFault_Handler>
     102:	bf00      	nop

00000104 <UsageFault_Handler>:
     104:	e7fe      	b.n	104 <UsageFault_Handler>
     106:	bf00      	nop

00000108 <SVC_Handler>:
     108:	e7fe      	b.n	108 <SVC_Handler>
     10a:	bf00      	nop

0000010c <DebugMon_Handler>:
     10c:	e7fe      	b.n	10c <DebugMon_Handler>
     10e:	bf00      	nop

00000110 <PendSV_Handler>:
     110:	e7fe      	b.n	110 <PendSV_Handler>
     112:	bf00      	nop

00000114 <SysTick_Handler>:
     114:	e7fe      	b.n	114 <SysTick_Handler>
     116:	bf00      	nop

00000118 <ADC_SEQA_IRQHandler>:
     118:	e7fe      	b.n	118 <ADC_SEQA_IRQHandler>
     11a:	bf00      	nop

0000011c <data_init>:
     11c:	b15a      	cbz	r2, 136 <data_init+0x1a>
     11e:	b410      	push	{r4}
     120:	3904      	subs	r1, #4
     122:	2300      	movs	r3, #0
     124:	3304      	adds	r3, #4
     126:	f850 4b04 	ldr.w	r4, [r0], #4
     12a:	f841 4f04 	str.w	r4, [r1, #4]!
     12e:	429a      	cmp	r2, r3
     130:	d8f8      	bhi.n	124 <data_init+0x8>
     132:	f85d 4b04 	ldr.w	r4, [sp], #4
     136:	4770      	bx	lr

00000138 <bss_init>:
     138:	b149      	cbz	r1, 14e <bss_init+0x16>
     13a:	b410      	push	{r4}
     13c:	4603      	mov	r3, r0
     13e:	2400      	movs	r4, #0
     140:	f843 4b04 	str.w	r4, [r3], #4
     144:	1a1a      	subs	r2, r3, r0
     146:	4291      	cmp	r1, r2
     148:	d8fa      	bhi.n	140 <bss_init+0x8>
     14a:	f85d 4b04 	ldr.w	r4, [sp], #4
     14e:	4770      	bx	lr

00000150 <ResetISR>:
     150:	4b21      	ldr	r3, [pc, #132]	; (1d8 <ResetISR+0x88>)
     152:	b570      	push	{r4, r5, r6, lr}
     154:	2210      	movs	r2, #16
     156:	4c21      	ldr	r4, [pc, #132]	; (1dc <ResetISR+0x8c>)
     158:	4e21      	ldr	r6, [pc, #132]	; (1e0 <ResetISR+0x90>)
     15a:	601a      	str	r2, [r3, #0]
     15c:	42b4      	cmp	r4, r6
     15e:	d211      	bcs.n	184 <ResetISR+0x34>
     160:	e894 0006 	ldmia.w	r4, {r1, r2}
     164:	340c      	adds	r4, #12
     166:	f854 5c04 	ldr.w	r5, [r4, #-4]
     16a:	2d00      	cmp	r5, #0
     16c:	d0f6      	beq.n	15c <ResetISR+0xc>
     16e:	3a04      	subs	r2, #4
     170:	2300      	movs	r3, #0
     172:	3304      	adds	r3, #4
     174:	f851 0b04 	ldr.w	r0, [r1], #4
     178:	f842 0f04 	str.w	r0, [r2, #4]!
     17c:	429d      	cmp	r5, r3
     17e:	d8f8      	bhi.n	172 <ResetISR+0x22>
     180:	42b4      	cmp	r4, r6
     182:	d3ed      	bcc.n	160 <ResetISR+0x10>
     184:	4b17      	ldr	r3, [pc, #92]	; (1e4 <ResetISR+0x94>)
     186:	429c      	cmp	r4, r3
     188:	d214      	bcs.n	1b4 <ResetISR+0x64>
     18a:	f104 0608 	add.w	r6, r4, #8
     18e:	3307      	adds	r3, #7
     190:	1b9b      	subs	r3, r3, r6
     192:	f023 0307 	bic.w	r3, r3, #7
     196:	3310      	adds	r3, #16
     198:	441c      	add	r4, r3
     19a:	2500      	movs	r5, #0
     19c:	e916 0003 	ldmdb	r6, {r0, r1}
     1a0:	4603      	mov	r3, r0
     1a2:	b121      	cbz	r1, 1ae <ResetISR+0x5e>
     1a4:	f843 5b04 	str.w	r5, [r3], #4
     1a8:	1a1a      	subs	r2, r3, r0
     1aa:	4291      	cmp	r1, r2
     1ac:	d8fa      	bhi.n	1a4 <ResetISR+0x54>
     1ae:	3608      	adds	r6, #8
     1b0:	42a6      	cmp	r6, r4
     1b2:	d1f3      	bne.n	19c <ResetISR+0x4c>
     1b4:	4908      	ldr	r1, [pc, #32]	; (1d8 <ResetISR+0x88>)
     1b6:	4c0c      	ldr	r4, [pc, #48]	; (1e8 <ResetISR+0x98>)
     1b8:	4b0c      	ldr	r3, [pc, #48]	; (1ec <ResetISR+0x9c>)
     1ba:	4a0d      	ldr	r2, [pc, #52]	; (1f0 <ResetISR+0xa0>)
     1bc:	f44f 5000 	mov.w	r0, #8192	; 0x2000
     1c0:	2500      	movs	r5, #0
     1c2:	6025      	str	r5, [r4, #0]
     1c4:	6008      	str	r0, [r1, #0]
     1c6:	681b      	ldr	r3, [r3, #0]
     1c8:	f3c3 3340 	ubfx	r3, r3, #13, #1
     1cc:	6013      	str	r3, [r2, #0]
     1ce:	f001 f9ad 	bl	152c <SystemInit>
     1d2:	f004 f869 	bl	42a8 <__main>
     1d6:	e7fe      	b.n	1d6 <ResetISR+0x86>
     1d8:	40000220 	.word	0x40000220
     1dc:	000000e0 	.word	0x000000e0
     1e0:	000000ec 	.word	0x000000ec
     1e4:	000000f4 	.word	0x000000f4
     1e8:	40000304 	.word	0x40000304
     1ec:	40000200 	.word	0x40000200
     1f0:	2000a4c0 	.word	0x2000a4c0
     1f4:	ffffffff 	.word	0xffffffff
     1f8:	ffffffff 	.word	0xffffffff
     1fc:	ffffffff 	.word	0xffffffff
     200:	ffffffff 	.word	0xffffffff
     204:	ffffffff 	.word	0xffffffff
     208:	ffffffff 	.word	0xffffffff
     20c:	ffffffff 	.word	0xffffffff
     210:	ffffffff 	.word	0xffffffff
     214:	ffffffff 	.word	0xffffffff
     218:	ffffffff 	.word	0xffffffff
     21c:	ffffffff 	.word	0xffffffff
     220:	ffffffff 	.word	0xffffffff
     224:	ffffffff 	.word	0xffffffff
     228:	ffffffff 	.word	0xffffffff
     22c:	ffffffff 	.word	0xffffffff
     230:	ffffffff 	.word	0xffffffff
     234:	ffffffff 	.word	0xffffffff
     238:	ffffffff 	.word	0xffffffff
     23c:	ffffffff 	.word	0xffffffff
     240:	ffffffff 	.word	0xffffffff
     244:	ffffffff 	.word	0xffffffff
     248:	ffffffff 	.word	0xffffffff
     24c:	ffffffff 	.word	0xffffffff
     250:	ffffffff 	.word	0xffffffff
     254:	ffffffff 	.word	0xffffffff
     258:	ffffffff 	.word	0xffffffff
     25c:	ffffffff 	.word	0xffffffff
     260:	ffffffff 	.word	0xffffffff
     264:	ffffffff 	.word	0xffffffff
     268:	ffffffff 	.word	0xffffffff
     26c:	ffffffff 	.word	0xffffffff
     270:	ffffffff 	.word	0xffffffff
     274:	ffffffff 	.word	0xffffffff
     278:	ffffffff 	.word	0xffffffff
     27c:	ffffffff 	.word	0xffffffff
     280:	ffffffff 	.word	0xffffffff
     284:	ffffffff 	.word	0xffffffff
     288:	ffffffff 	.word	0xffffffff
     28c:	ffffffff 	.word	0xffffffff
     290:	ffffffff 	.word	0xffffffff
     294:	ffffffff 	.word	0xffffffff
     298:	ffffffff 	.word	0xffffffff
     29c:	ffffffff 	.word	0xffffffff
     2a0:	ffffffff 	.word	0xffffffff
     2a4:	ffffffff 	.word	0xffffffff
     2a8:	ffffffff 	.word	0xffffffff
     2ac:	ffffffff 	.word	0xffffffff
     2b0:	ffffffff 	.word	0xffffffff
     2b4:	ffffffff 	.word	0xffffffff
     2b8:	ffffffff 	.word	0xffffffff
     2bc:	ffffffff 	.word	0xffffffff
     2c0:	ffffffff 	.word	0xffffffff
     2c4:	ffffffff 	.word	0xffffffff
     2c8:	ffffffff 	.word	0xffffffff
     2cc:	ffffffff 	.word	0xffffffff
     2d0:	ffffffff 	.word	0xffffffff
     2d4:	ffffffff 	.word	0xffffffff
     2d8:	ffffffff 	.word	0xffffffff
     2dc:	ffffffff 	.word	0xffffffff
     2e0:	ffffffff 	.word	0xffffffff
     2e4:	ffffffff 	.word	0xffffffff
     2e8:	ffffffff 	.word	0xffffffff
     2ec:	ffffffff 	.word	0xffffffff
     2f0:	ffffffff 	.word	0xffffffff
     2f4:	ffffffff 	.word	0xffffffff
     2f8:	ffffffff 	.word	0xffffffff

000002fc <CRP_WORD>:
     2fc:	ffffffff                                ....

00000300 <main>:
     300:	e92d 4ff0 	stmdb	sp!, {r4, r5, r6, r7, r8, r9, sl, fp, lr}
     304:	b085      	sub	sp, #20
     306:	f04f 537e 	mov.w	r3, #1065353216	; 0x3f800000
     30a:	9303      	str	r3, [sp, #12]
     30c:	f001 fb34 	bl	1978 <SystemCoreClockUpdate>
     310:	f001 f9ca 	bl	16a8 <Board_Init>
     314:	2101      	movs	r1, #1
     316:	2000      	movs	r0, #0
     318:	f001 f992 	bl	1640 <Board_LED_Set>
     31c:	f001 fc9c 	bl	1c58 <fpuInit>
     320:	48bc      	ldr	r0, [pc, #752]	; (614 <main+0x314>)
     322:	49bd      	ldr	r1, [pc, #756]	; (618 <main+0x318>)
     324:	4abd      	ldr	r2, [pc, #756]	; (61c <main+0x31c>)
     326:	ed9f 7abe 	vldr	s14, [pc, #760]	; 620 <main+0x320>
     32a:	2300      	movs	r3, #0
     32c:	ee07 3a90 	vmov	s15, r3
     330:	eef8 7ae7 	vcvt.f32.s32	s15, s15
     334:	069d      	lsls	r5, r3, #26
     336:	029c      	lsls	r4, r3, #10
     338:	ee67 7a87 	vmul.f32	s15, s15, s14
     33c:	3301      	adds	r3, #1
     33e:	2b20      	cmp	r3, #32
     340:	ece0 7a01 	vstmia	r0!, {s15}
     344:	f841 5f04 	str.w	r5, [r1, #4]!
     348:	f822 4f02 	strh.w	r4, [r2, #2]!
     34c:	d1ee      	bne.n	32c <main+0x2c>
     34e:	203a      	movs	r0, #58	; 0x3a
     350:	f001 fbc6 	bl	1ae0 <Chip_Clock_EnablePeriphClock>
     354:	f04f 4380 	mov.w	r3, #1073741824	; 0x40000000
     358:	f04f 7280 	mov.w	r2, #16777216	; 0x1000000
     35c:	f8c3 2124 	str.w	r2, [r3, #292]	; 0x124
     360:	bf00      	nop
     362:	bf00      	nop
     364:	bf00      	nop
     366:	bf00      	nop
     368:	4dae      	ldr	r5, [pc, #696]	; (624 <main+0x324>)
     36a:	f8c3 2144 	str.w	r2, [r3, #324]	; 0x144
     36e:	4628      	mov	r0, r5
     370:	4cad      	ldr	r4, [pc, #692]	; (628 <main+0x328>)
     372:	f002 f84b 	bl	240c <Chip_TIMER_Reset>
     376:	2300      	movs	r3, #0
     378:	606b      	str	r3, [r5, #4]
     37a:	f504 4580 	add.w	r5, r4, #16384	; 0x4000
     37e:	f005 fc2d 	bl	5bdc <rand>
     382:	f844 0f04 	str.w	r0, [r4, #4]!
     386:	42a5      	cmp	r5, r4
     388:	d1f9      	bne.n	37e <main+0x7e>
     38a:	48a8      	ldr	r0, [pc, #672]	; (62c <main+0x32c>)
     38c:	4ca5      	ldr	r4, [pc, #660]	; (624 <main+0x324>)
     38e:	f8df 82fc 	ldr.w	r8, [pc, #764]	; 68c <main+0x38c>
     392:	f8df 92fc 	ldr.w	r9, [pc, #764]	; 690 <main+0x390>
     396:	f004 fce1 	bl	4d5c <printf>
     39a:	2301      	movs	r3, #1
     39c:	2204      	movs	r2, #4
     39e:	2105      	movs	r1, #5
     3a0:	48a3      	ldr	r0, [pc, #652]	; (630 <main+0x330>)
     3a2:	f004 fcdb 	bl	4d5c <printf>
     3a6:	4ba3      	ldr	r3, [pc, #652]	; (634 <main+0x334>)
     3a8:	4aa3      	ldr	r2, [pc, #652]	; (638 <main+0x338>)
     3aa:	49a4      	ldr	r1, [pc, #656]	; (63c <main+0x33c>)
     3ac:	48a4      	ldr	r0, [pc, #656]	; (640 <main+0x340>)
     3ae:	2500      	movs	r5, #0
     3b0:	2601      	movs	r6, #1
     3b2:	f004 fcd3 	bl	4d5c <printf>
     3b6:	4620      	mov	r0, r4
     3b8:	f002 f828 	bl	240c <Chip_TIMER_Reset>
     3bc:	6066      	str	r6, [r4, #4]
     3be:	6065      	str	r5, [r4, #4]
     3c0:	68a7      	ldr	r7, [r4, #8]
     3c2:	48a0      	ldr	r0, [pc, #640]	; (644 <main+0x344>)
     3c4:	4639      	mov	r1, r7
     3c6:	f004 fcc9 	bl	4d5c <printf>
     3ca:	4639      	mov	r1, r7
     3cc:	489e      	ldr	r0, [pc, #632]	; (648 <main+0x348>)
     3ce:	f004 fcc5 	bl	4d5c <printf>
     3d2:	489e      	ldr	r0, [pc, #632]	; (64c <main+0x34c>)
     3d4:	f004 fcc2 	bl	4d5c <printf>
     3d8:	489d      	ldr	r0, [pc, #628]	; (650 <main+0x350>)
     3da:	f004 fcbf 	bl	4d5c <printf>
     3de:	489d      	ldr	r0, [pc, #628]	; (654 <main+0x354>)
     3e0:	f004 fcbc 	bl	4d5c <printf>
     3e4:	4620      	mov	r0, r4
     3e6:	f002 f811 	bl	240c <Chip_TIMER_Reset>
     3ea:	4633      	mov	r3, r6
     3ec:	462a      	mov	r2, r5
     3ee:	6066      	str	r6, [r4, #4]
     3f0:	4999      	ldr	r1, [pc, #612]	; (658 <main+0x358>)
     3f2:	489a      	ldr	r0, [pc, #616]	; (65c <main+0x35c>)
     3f4:	f002 ff28 	bl	3248 <arm_cfft_f32>
     3f8:	6065      	str	r5, [r4, #4]
     3fa:	68a1      	ldr	r1, [r4, #8]
     3fc:	4898      	ldr	r0, [pc, #608]	; (660 <main+0x360>)
     3fe:	1bc9      	subs	r1, r1, r7
     400:	f004 fcac 	bl	4d5c <printf>
     404:	4897      	ldr	r0, [pc, #604]	; (664 <main+0x364>)
     406:	f004 fca9 	bl	4d5c <printf>
     40a:	4620      	mov	r0, r4
     40c:	f001 fffe 	bl	240c <Chip_TIMER_Reset>
     410:	4633      	mov	r3, r6
     412:	462a      	mov	r2, r5
     414:	6066      	str	r6, [r4, #4]
     416:	4990      	ldr	r1, [pc, #576]	; (658 <main+0x358>)
     418:	4893      	ldr	r0, [pc, #588]	; (668 <main+0x368>)
     41a:	f002 ff15 	bl	3248 <arm_cfft_f32>
     41e:	6065      	str	r5, [r4, #4]
     420:	68a1      	ldr	r1, [r4, #8]
     422:	488f      	ldr	r0, [pc, #572]	; (660 <main+0x360>)
     424:	1bc9      	subs	r1, r1, r7
     426:	f004 fc99 	bl	4d5c <printf>
     42a:	488e      	ldr	r0, [pc, #568]	; (664 <main+0x364>)
     42c:	f004 fc96 	bl	4d5c <printf>
     430:	4620      	mov	r0, r4
     432:	f001 ffeb 	bl	240c <Chip_TIMER_Reset>
     436:	4633      	mov	r3, r6
     438:	462a      	mov	r2, r5
     43a:	6066      	str	r6, [r4, #4]
     43c:	4986      	ldr	r1, [pc, #536]	; (658 <main+0x358>)
     43e:	488b      	ldr	r0, [pc, #556]	; (66c <main+0x36c>)
     440:	f002 ff02 	bl	3248 <arm_cfft_f32>
     444:	6065      	str	r5, [r4, #4]
     446:	68a1      	ldr	r1, [r4, #8]
     448:	4885      	ldr	r0, [pc, #532]	; (660 <main+0x360>)
     44a:	1bc9      	subs	r1, r1, r7
     44c:	f004 fc86 	bl	4d5c <printf>
     450:	4884      	ldr	r0, [pc, #528]	; (664 <main+0x364>)
     452:	f004 fc83 	bl	4d5c <printf>
     456:	4620      	mov	r0, r4
     458:	f001 ffd8 	bl	240c <Chip_TIMER_Reset>
     45c:	4633      	mov	r3, r6
     45e:	462a      	mov	r2, r5
     460:	6066      	str	r6, [r4, #4]
     462:	497d      	ldr	r1, [pc, #500]	; (658 <main+0x358>)
     464:	4882      	ldr	r0, [pc, #520]	; (670 <main+0x370>)
     466:	f002 feef 	bl	3248 <arm_cfft_f32>
     46a:	6065      	str	r5, [r4, #4]
     46c:	68a1      	ldr	r1, [r4, #8]
     46e:	487c      	ldr	r0, [pc, #496]	; (660 <main+0x360>)
     470:	1bc9      	subs	r1, r1, r7
     472:	f004 fc73 	bl	4d5c <printf>
     476:	487b      	ldr	r0, [pc, #492]	; (664 <main+0x364>)
     478:	f004 fc70 	bl	4d5c <printf>
     47c:	4620      	mov	r0, r4
     47e:	f001 ffc5 	bl	240c <Chip_TIMER_Reset>
     482:	4633      	mov	r3, r6
     484:	462a      	mov	r2, r5
     486:	6066      	str	r6, [r4, #4]
     488:	4973      	ldr	r1, [pc, #460]	; (658 <main+0x358>)
     48a:	487a      	ldr	r0, [pc, #488]	; (674 <main+0x374>)
     48c:	f002 fedc 	bl	3248 <arm_cfft_f32>
     490:	6065      	str	r5, [r4, #4]
     492:	68a1      	ldr	r1, [r4, #8]
     494:	4872      	ldr	r0, [pc, #456]	; (660 <main+0x360>)
     496:	1bc9      	subs	r1, r1, r7
     498:	f004 fc60 	bl	4d5c <printf>
     49c:	4871      	ldr	r0, [pc, #452]	; (664 <main+0x364>)
     49e:	f004 fc5d 	bl	4d5c <printf>
     4a2:	4620      	mov	r0, r4
     4a4:	f001 ffb2 	bl	240c <Chip_TIMER_Reset>
     4a8:	4633      	mov	r3, r6
     4aa:	462a      	mov	r2, r5
     4ac:	6066      	str	r6, [r4, #4]
     4ae:	496a      	ldr	r1, [pc, #424]	; (658 <main+0x358>)
     4b0:	4871      	ldr	r0, [pc, #452]	; (678 <main+0x378>)
     4b2:	f002 fec9 	bl	3248 <arm_cfft_f32>
     4b6:	6065      	str	r5, [r4, #4]
     4b8:	68a1      	ldr	r1, [r4, #8]
     4ba:	4869      	ldr	r0, [pc, #420]	; (660 <main+0x360>)
     4bc:	1bc9      	subs	r1, r1, r7
     4be:	f004 fc4d 	bl	4d5c <printf>
     4c2:	4868      	ldr	r0, [pc, #416]	; (664 <main+0x364>)
     4c4:	f004 fc4a 	bl	4d5c <printf>
     4c8:	4620      	mov	r0, r4
     4ca:	f001 ff9f 	bl	240c <Chip_TIMER_Reset>
     4ce:	4633      	mov	r3, r6
     4d0:	462a      	mov	r2, r5
     4d2:	6066      	str	r6, [r4, #4]
     4d4:	4960      	ldr	r1, [pc, #384]	; (658 <main+0x358>)
     4d6:	4869      	ldr	r0, [pc, #420]	; (67c <main+0x37c>)
     4d8:	f002 feb6 	bl	3248 <arm_cfft_f32>
     4dc:	6065      	str	r5, [r4, #4]
     4de:	68a1      	ldr	r1, [r4, #8]
     4e0:	485f      	ldr	r0, [pc, #380]	; (660 <main+0x360>)
     4e2:	1bc9      	subs	r1, r1, r7
     4e4:	f004 fc3a 	bl	4d5c <printf>
     4e8:	485e      	ldr	r0, [pc, #376]	; (664 <main+0x364>)
     4ea:	f004 fc37 	bl	4d5c <printf>
     4ee:	4620      	mov	r0, r4
     4f0:	f001 ff8c 	bl	240c <Chip_TIMER_Reset>
     4f4:	4633      	mov	r3, r6
     4f6:	462a      	mov	r2, r5
     4f8:	6066      	str	r6, [r4, #4]
     4fa:	4957      	ldr	r1, [pc, #348]	; (658 <main+0x358>)
     4fc:	4860      	ldr	r0, [pc, #384]	; (680 <main+0x380>)
     4fe:	f002 fea3 	bl	3248 <arm_cfft_f32>
     502:	6065      	str	r5, [r4, #4]
     504:	68a1      	ldr	r1, [r4, #8]
     506:	4856      	ldr	r0, [pc, #344]	; (660 <main+0x360>)
     508:	1bc9      	subs	r1, r1, r7
     50a:	f004 fc27 	bl	4d5c <printf>
     50e:	4855      	ldr	r0, [pc, #340]	; (664 <main+0x364>)
     510:	f004 fc24 	bl	4d5c <printf>
     514:	4620      	mov	r0, r4
     516:	f001 ff79 	bl	240c <Chip_TIMER_Reset>
     51a:	4633      	mov	r3, r6
     51c:	462a      	mov	r2, r5
     51e:	6066      	str	r6, [r4, #4]
     520:	494d      	ldr	r1, [pc, #308]	; (658 <main+0x358>)
     522:	4858      	ldr	r0, [pc, #352]	; (684 <main+0x384>)
     524:	f002 fe90 	bl	3248 <arm_cfft_f32>
     528:	6065      	str	r5, [r4, #4]
     52a:	68a1      	ldr	r1, [r4, #8]
     52c:	484c      	ldr	r0, [pc, #304]	; (660 <main+0x360>)
     52e:	1bc9      	subs	r1, r1, r7
     530:	f004 fc14 	bl	4d5c <printf>
     534:	484b      	ldr	r0, [pc, #300]	; (664 <main+0x364>)
     536:	f004 fc11 	bl	4d5c <printf>
     53a:	4845      	ldr	r0, [pc, #276]	; (650 <main+0x350>)
     53c:	f004 fc0e 	bl	4d5c <printf>
     540:	4851      	ldr	r0, [pc, #324]	; (688 <main+0x388>)
     542:	f004 fc0b 	bl	4d5c <printf>
     546:	4620      	mov	r0, r4
     548:	f001 ff60 	bl	240c <Chip_TIMER_Reset>
     54c:	462b      	mov	r3, r5
     54e:	462a      	mov	r2, r5
     550:	6066      	str	r6, [r4, #4]
     552:	4941      	ldr	r1, [pc, #260]	; (658 <main+0x358>)
     554:	4841      	ldr	r0, [pc, #260]	; (65c <main+0x35c>)
     556:	f002 fe77 	bl	3248 <arm_cfft_f32>
     55a:	6065      	str	r5, [r4, #4]
     55c:	68a1      	ldr	r1, [r4, #8]
     55e:	4840      	ldr	r0, [pc, #256]	; (660 <main+0x360>)
     560:	1bc9      	subs	r1, r1, r7
     562:	f004 fbfb 	bl	4d5c <printf>
     566:	483f      	ldr	r0, [pc, #252]	; (664 <main+0x364>)
     568:	f004 fbf8 	bl	4d5c <printf>
     56c:	4620      	mov	r0, r4
     56e:	f001 ff4d 	bl	240c <Chip_TIMER_Reset>
     572:	462b      	mov	r3, r5
     574:	462a      	mov	r2, r5
     576:	6066      	str	r6, [r4, #4]
     578:	4937      	ldr	r1, [pc, #220]	; (658 <main+0x358>)
     57a:	483b      	ldr	r0, [pc, #236]	; (668 <main+0x368>)
     57c:	f002 fe64 	bl	3248 <arm_cfft_f32>
     580:	6065      	str	r5, [r4, #4]
     582:	68a1      	ldr	r1, [r4, #8]
     584:	4836      	ldr	r0, [pc, #216]	; (660 <main+0x360>)
     586:	1bc9      	subs	r1, r1, r7
     588:	f004 fbe8 	bl	4d5c <printf>
     58c:	4835      	ldr	r0, [pc, #212]	; (664 <main+0x364>)
     58e:	f004 fbe5 	bl	4d5c <printf>
     592:	4620      	mov	r0, r4
     594:	f001 ff3a 	bl	240c <Chip_TIMER_Reset>
     598:	462b      	mov	r3, r5
     59a:	462a      	mov	r2, r5
     59c:	6066      	str	r6, [r4, #4]
     59e:	492e      	ldr	r1, [pc, #184]	; (658 <main+0x358>)
     5a0:	4832      	ldr	r0, [pc, #200]	; (66c <main+0x36c>)
     5a2:	f002 fe51 	bl	3248 <arm_cfft_f32>
     5a6:	6065      	str	r5, [r4, #4]
     5a8:	68a1      	ldr	r1, [r4, #8]
     5aa:	482d      	ldr	r0, [pc, #180]	; (660 <main+0x360>)
     5ac:	1bc9      	subs	r1, r1, r7
     5ae:	f004 fbd5 	bl	4d5c <printf>
     5b2:	482c      	ldr	r0, [pc, #176]	; (664 <main+0x364>)
     5b4:	f004 fbd2 	bl	4d5c <printf>
     5b8:	4620      	mov	r0, r4
     5ba:	f001 ff27 	bl	240c <Chip_TIMER_Reset>
     5be:	462b      	mov	r3, r5
     5c0:	462a      	mov	r2, r5
     5c2:	6066      	str	r6, [r4, #4]
     5c4:	4924      	ldr	r1, [pc, #144]	; (658 <main+0x358>)
     5c6:	482a      	ldr	r0, [pc, #168]	; (670 <main+0x370>)
     5c8:	f002 fe3e 	bl	3248 <arm_cfft_f32>
     5cc:	6065      	str	r5, [r4, #4]
     5ce:	68a1      	ldr	r1, [r4, #8]
     5d0:	4823      	ldr	r0, [pc, #140]	; (660 <main+0x360>)
     5d2:	1bc9      	subs	r1, r1, r7
     5d4:	f004 fbc2 	bl	4d5c <printf>
     5d8:	4822      	ldr	r0, [pc, #136]	; (664 <main+0x364>)
     5da:	f004 fbbf 	bl	4d5c <printf>
     5de:	4620      	mov	r0, r4
     5e0:	f001 ff14 	bl	240c <Chip_TIMER_Reset>
     5e4:	462b      	mov	r3, r5
     5e6:	462a      	mov	r2, r5
     5e8:	6066      	str	r6, [r4, #4]
     5ea:	491b      	ldr	r1, [pc, #108]	; (658 <main+0x358>)
     5ec:	4821      	ldr	r0, [pc, #132]	; (674 <main+0x374>)
     5ee:	f002 fe2b 	bl	3248 <arm_cfft_f32>
     5f2:	6065      	str	r5, [r4, #4]
     5f4:	68a1      	ldr	r1, [r4, #8]
     5f6:	481a      	ldr	r0, [pc, #104]	; (660 <main+0x360>)
     5f8:	1bc9      	subs	r1, r1, r7
     5fa:	f004 fbaf 	bl	4d5c <printf>
     5fe:	4819      	ldr	r0, [pc, #100]	; (664 <main+0x364>)
     600:	f004 fbac 	bl	4d5c <printf>
     604:	4620      	mov	r0, r4
     606:	f001 ff01 	bl	240c <Chip_TIMER_Reset>
     60a:	462b      	mov	r3, r5
     60c:	462a      	mov	r2, r5
     60e:	6066      	str	r6, [r4, #4]
     610:	4911      	ldr	r1, [pc, #68]	; (658 <main+0x358>)
     612:	e03f      	b.n	694 <main+0x394>
     614:	200063a4 	.word	0x200063a4
     618:	2000642c 	.word	0x2000642c
     61c:	2000025e 	.word	0x2000025e
     620:	3d000000 	.word	0x3d000000
     624:	40008000 	.word	0x40008000
     628:	200023a0 	.word	0x200023a0
     62c:	00006e54 	.word	0x00006e54
     630:	00006e74 	.word	0x00006e74
     634:	00006e8c 	.word	0x00006e8c
     638:	00006e94 	.word	0x00006e94
     63c:	00006e98 	.word	0x00006e98
     640:	00006ea4 	.word	0x00006ea4
     644:	00006eb0 	.word	0x00006eb0
     648:	00006ec4 	.word	0x00006ec4
     64c:	00006ee4 	.word	0x00006ee4
     650:	00006ec0 	.word	0x00006ec0
     654:	00006f10 	.word	0x00006f10
     658:	200023a4 	.word	0x200023a4
     65c:	000070a8 	.word	0x000070a8
     660:	00006f28 	.word	0x00006f28
     664:	00006f24 	.word	0x00006f24
     668:	000070b8 	.word	0x000070b8
     66c:	000070c8 	.word	0x000070c8
     670:	000070e8 	.word	0x000070e8
     674:	00007088 	.word	0x00007088
     678:	000070f8 	.word	0x000070f8
     67c:	000070d8 	.word	0x000070d8
     680:	00007098 	.word	0x00007098
     684:	00007108 	.word	0x00007108
     688:	00006f2c 	.word	0x00006f2c
     68c:	20002394 	.word	0x20002394
     690:	20002370 	.word	0x20002370
     694:	48b8      	ldr	r0, [pc, #736]	; (978 <main+0x678>)
     696:	f002 fdd7 	bl	3248 <arm_cfft_f32>
     69a:	6065      	str	r5, [r4, #4]
     69c:	68a1      	ldr	r1, [r4, #8]
     69e:	48b7      	ldr	r0, [pc, #732]	; (97c <main+0x67c>)
     6a0:	1bc9      	subs	r1, r1, r7
     6a2:	f004 fb5b 	bl	4d5c <printf>
     6a6:	48b6      	ldr	r0, [pc, #728]	; (980 <main+0x680>)
     6a8:	f004 fb58 	bl	4d5c <printf>
     6ac:	4620      	mov	r0, r4
     6ae:	f001 fead 	bl	240c <Chip_TIMER_Reset>
     6b2:	462b      	mov	r3, r5
     6b4:	462a      	mov	r2, r5
     6b6:	6066      	str	r6, [r4, #4]
     6b8:	49b2      	ldr	r1, [pc, #712]	; (984 <main+0x684>)
     6ba:	48b3      	ldr	r0, [pc, #716]	; (988 <main+0x688>)
     6bc:	f002 fdc4 	bl	3248 <arm_cfft_f32>
     6c0:	6065      	str	r5, [r4, #4]
     6c2:	68a1      	ldr	r1, [r4, #8]
     6c4:	48ad      	ldr	r0, [pc, #692]	; (97c <main+0x67c>)
     6c6:	1bc9      	subs	r1, r1, r7
     6c8:	f004 fb48 	bl	4d5c <printf>
     6cc:	48ac      	ldr	r0, [pc, #688]	; (980 <main+0x680>)
     6ce:	f004 fb45 	bl	4d5c <printf>
     6d2:	4620      	mov	r0, r4
     6d4:	f001 fe9a 	bl	240c <Chip_TIMER_Reset>
     6d8:	462b      	mov	r3, r5
     6da:	462a      	mov	r2, r5
     6dc:	6066      	str	r6, [r4, #4]
     6de:	49a9      	ldr	r1, [pc, #676]	; (984 <main+0x684>)
     6e0:	48aa      	ldr	r0, [pc, #680]	; (98c <main+0x68c>)
     6e2:	f002 fdb1 	bl	3248 <arm_cfft_f32>
     6e6:	6065      	str	r5, [r4, #4]
     6e8:	68a1      	ldr	r1, [r4, #8]
     6ea:	48a4      	ldr	r0, [pc, #656]	; (97c <main+0x67c>)
     6ec:	1bc9      	subs	r1, r1, r7
     6ee:	f004 fb35 	bl	4d5c <printf>
     6f2:	48a3      	ldr	r0, [pc, #652]	; (980 <main+0x680>)
     6f4:	f004 fb32 	bl	4d5c <printf>
     6f8:	4620      	mov	r0, r4
     6fa:	f001 fe87 	bl	240c <Chip_TIMER_Reset>
     6fe:	462b      	mov	r3, r5
     700:	462a      	mov	r2, r5
     702:	6066      	str	r6, [r4, #4]
     704:	499f      	ldr	r1, [pc, #636]	; (984 <main+0x684>)
     706:	48a2      	ldr	r0, [pc, #648]	; (990 <main+0x690>)
     708:	f002 fd9e 	bl	3248 <arm_cfft_f32>
     70c:	6065      	str	r5, [r4, #4]
     70e:	68a1      	ldr	r1, [r4, #8]
     710:	489a      	ldr	r0, [pc, #616]	; (97c <main+0x67c>)
     712:	1bc9      	subs	r1, r1, r7
     714:	f004 fb22 	bl	4d5c <printf>
     718:	4899      	ldr	r0, [pc, #612]	; (980 <main+0x680>)
     71a:	f004 fb1f 	bl	4d5c <printf>
     71e:	489d      	ldr	r0, [pc, #628]	; (994 <main+0x694>)
     720:	f004 fb1c 	bl	4d5c <printf>
     724:	489c      	ldr	r0, [pc, #624]	; (998 <main+0x698>)
     726:	f004 fb19 	bl	4d5c <printf>
     72a:	4620      	mov	r0, r4
     72c:	f001 fe6e 	bl	240c <Chip_TIMER_Reset>
     730:	2210      	movs	r2, #16
     732:	6066      	str	r6, [r4, #4]
     734:	4999      	ldr	r1, [pc, #612]	; (99c <main+0x69c>)
     736:	4893      	ldr	r0, [pc, #588]	; (984 <main+0x684>)
     738:	f003 fc6e 	bl	4018 <arm_cmplx_mag_f32>
     73c:	6065      	str	r5, [r4, #4]
     73e:	68a1      	ldr	r1, [r4, #8]
     740:	488e      	ldr	r0, [pc, #568]	; (97c <main+0x67c>)
     742:	1bc9      	subs	r1, r1, r7
     744:	f004 fb0a 	bl	4d5c <printf>
     748:	488d      	ldr	r0, [pc, #564]	; (980 <main+0x680>)
     74a:	f004 fb07 	bl	4d5c <printf>
     74e:	4620      	mov	r0, r4
     750:	f001 fe5c 	bl	240c <Chip_TIMER_Reset>
     754:	2220      	movs	r2, #32
     756:	6066      	str	r6, [r4, #4]
     758:	4990      	ldr	r1, [pc, #576]	; (99c <main+0x69c>)
     75a:	488a      	ldr	r0, [pc, #552]	; (984 <main+0x684>)
     75c:	f003 fc5c 	bl	4018 <arm_cmplx_mag_f32>
     760:	6065      	str	r5, [r4, #4]
     762:	68a1      	ldr	r1, [r4, #8]
     764:	4885      	ldr	r0, [pc, #532]	; (97c <main+0x67c>)
     766:	1bc9      	subs	r1, r1, r7
     768:	f004 faf8 	bl	4d5c <printf>
     76c:	4884      	ldr	r0, [pc, #528]	; (980 <main+0x680>)
     76e:	f004 faf5 	bl	4d5c <printf>
     772:	4620      	mov	r0, r4
     774:	f001 fe4a 	bl	240c <Chip_TIMER_Reset>
     778:	2240      	movs	r2, #64	; 0x40
     77a:	6066      	str	r6, [r4, #4]
     77c:	4987      	ldr	r1, [pc, #540]	; (99c <main+0x69c>)
     77e:	4881      	ldr	r0, [pc, #516]	; (984 <main+0x684>)
     780:	f003 fc4a 	bl	4018 <arm_cmplx_mag_f32>
     784:	6065      	str	r5, [r4, #4]
     786:	68a1      	ldr	r1, [r4, #8]
     788:	487c      	ldr	r0, [pc, #496]	; (97c <main+0x67c>)
     78a:	1bc9      	subs	r1, r1, r7
     78c:	f004 fae6 	bl	4d5c <printf>
     790:	487b      	ldr	r0, [pc, #492]	; (980 <main+0x680>)
     792:	f004 fae3 	bl	4d5c <printf>
     796:	4620      	mov	r0, r4
     798:	f001 fe38 	bl	240c <Chip_TIMER_Reset>
     79c:	2280      	movs	r2, #128	; 0x80
     79e:	6066      	str	r6, [r4, #4]
     7a0:	497e      	ldr	r1, [pc, #504]	; (99c <main+0x69c>)
     7a2:	4878      	ldr	r0, [pc, #480]	; (984 <main+0x684>)
     7a4:	f003 fc38 	bl	4018 <arm_cmplx_mag_f32>
     7a8:	6065      	str	r5, [r4, #4]
     7aa:	68a1      	ldr	r1, [r4, #8]
     7ac:	4873      	ldr	r0, [pc, #460]	; (97c <main+0x67c>)
     7ae:	1bc9      	subs	r1, r1, r7
     7b0:	f004 fad4 	bl	4d5c <printf>
     7b4:	4872      	ldr	r0, [pc, #456]	; (980 <main+0x680>)
     7b6:	f004 fad1 	bl	4d5c <printf>
     7ba:	4620      	mov	r0, r4
     7bc:	f001 fe26 	bl	240c <Chip_TIMER_Reset>
     7c0:	f44f 7280 	mov.w	r2, #256	; 0x100
     7c4:	6066      	str	r6, [r4, #4]
     7c6:	4975      	ldr	r1, [pc, #468]	; (99c <main+0x69c>)
     7c8:	486e      	ldr	r0, [pc, #440]	; (984 <main+0x684>)
     7ca:	f003 fc25 	bl	4018 <arm_cmplx_mag_f32>
     7ce:	6065      	str	r5, [r4, #4]
     7d0:	68a1      	ldr	r1, [r4, #8]
     7d2:	486a      	ldr	r0, [pc, #424]	; (97c <main+0x67c>)
     7d4:	1bc9      	subs	r1, r1, r7
     7d6:	f004 fac1 	bl	4d5c <printf>
     7da:	4869      	ldr	r0, [pc, #420]	; (980 <main+0x680>)
     7dc:	f004 fabe 	bl	4d5c <printf>
     7e0:	4620      	mov	r0, r4
     7e2:	f001 fe13 	bl	240c <Chip_TIMER_Reset>
     7e6:	f44f 7200 	mov.w	r2, #512	; 0x200
     7ea:	6066      	str	r6, [r4, #4]
     7ec:	496b      	ldr	r1, [pc, #428]	; (99c <main+0x69c>)
     7ee:	4865      	ldr	r0, [pc, #404]	; (984 <main+0x684>)
     7f0:	f003 fc12 	bl	4018 <arm_cmplx_mag_f32>
     7f4:	6065      	str	r5, [r4, #4]
     7f6:	68a1      	ldr	r1, [r4, #8]
     7f8:	4860      	ldr	r0, [pc, #384]	; (97c <main+0x67c>)
     7fa:	1bc9      	subs	r1, r1, r7
     7fc:	f004 faae 	bl	4d5c <printf>
     800:	485f      	ldr	r0, [pc, #380]	; (980 <main+0x680>)
     802:	f004 faab 	bl	4d5c <printf>
     806:	4620      	mov	r0, r4
     808:	f001 fe00 	bl	240c <Chip_TIMER_Reset>
     80c:	f44f 6280 	mov.w	r2, #1024	; 0x400
     810:	6066      	str	r6, [r4, #4]
     812:	4962      	ldr	r1, [pc, #392]	; (99c <main+0x69c>)
     814:	485b      	ldr	r0, [pc, #364]	; (984 <main+0x684>)
     816:	f003 fbff 	bl	4018 <arm_cmplx_mag_f32>
     81a:	6065      	str	r5, [r4, #4]
     81c:	68a1      	ldr	r1, [r4, #8]
     81e:	4857      	ldr	r0, [pc, #348]	; (97c <main+0x67c>)
     820:	1bc9      	subs	r1, r1, r7
     822:	f004 fa9b 	bl	4d5c <printf>
     826:	4856      	ldr	r0, [pc, #344]	; (980 <main+0x680>)
     828:	f004 fa98 	bl	4d5c <printf>
     82c:	4620      	mov	r0, r4
     82e:	f001 fded 	bl	240c <Chip_TIMER_Reset>
     832:	f44f 6200 	mov.w	r2, #2048	; 0x800
     836:	6066      	str	r6, [r4, #4]
     838:	4958      	ldr	r1, [pc, #352]	; (99c <main+0x69c>)
     83a:	4852      	ldr	r0, [pc, #328]	; (984 <main+0x684>)
     83c:	f003 fbec 	bl	4018 <arm_cmplx_mag_f32>
     840:	6065      	str	r5, [r4, #4]
     842:	68a1      	ldr	r1, [r4, #8]
     844:	484d      	ldr	r0, [pc, #308]	; (97c <main+0x67c>)
     846:	1bc9      	subs	r1, r1, r7
     848:	f004 fa88 	bl	4d5c <printf>
     84c:	484c      	ldr	r0, [pc, #304]	; (980 <main+0x680>)
     84e:	f004 fa85 	bl	4d5c <printf>
     852:	4620      	mov	r0, r4
     854:	f001 fdda 	bl	240c <Chip_TIMER_Reset>
     858:	f44f 5280 	mov.w	r2, #4096	; 0x1000
     85c:	6066      	str	r6, [r4, #4]
     85e:	494f      	ldr	r1, [pc, #316]	; (99c <main+0x69c>)
     860:	4848      	ldr	r0, [pc, #288]	; (984 <main+0x684>)
     862:	f003 fbd9 	bl	4018 <arm_cmplx_mag_f32>
     866:	6065      	str	r5, [r4, #4]
     868:	68a1      	ldr	r1, [r4, #8]
     86a:	4844      	ldr	r0, [pc, #272]	; (97c <main+0x67c>)
     86c:	1bc9      	subs	r1, r1, r7
     86e:	f004 fa75 	bl	4d5c <printf>
     872:	4843      	ldr	r0, [pc, #268]	; (980 <main+0x680>)
     874:	f004 fa72 	bl	4d5c <printf>
     878:	4846      	ldr	r0, [pc, #280]	; (994 <main+0x694>)
     87a:	f004 fa6f 	bl	4d5c <printf>
     87e:	4848      	ldr	r0, [pc, #288]	; (9a0 <main+0x6a0>)
     880:	f004 fa6c 	bl	4d5c <printf>
     884:	4620      	mov	r0, r4
     886:	f001 fdc1 	bl	240c <Chip_TIMER_Reset>
     88a:	2210      	movs	r2, #16
     88c:	6066      	str	r6, [r4, #4]
     88e:	4943      	ldr	r1, [pc, #268]	; (99c <main+0x69c>)
     890:	483c      	ldr	r0, [pc, #240]	; (984 <main+0x684>)
     892:	f003 fc5b 	bl	414c <arm_cmplx_mag_squared_f32>
     896:	6065      	str	r5, [r4, #4]
     898:	68a1      	ldr	r1, [r4, #8]
     89a:	4838      	ldr	r0, [pc, #224]	; (97c <main+0x67c>)
     89c:	1bc9      	subs	r1, r1, r7
     89e:	f004 fa5d 	bl	4d5c <printf>
     8a2:	4837      	ldr	r0, [pc, #220]	; (980 <main+0x680>)
     8a4:	f004 fa5a 	bl	4d5c <printf>
     8a8:	4620      	mov	r0, r4
     8aa:	f001 fdaf 	bl	240c <Chip_TIMER_Reset>
     8ae:	2220      	movs	r2, #32
     8b0:	6066      	str	r6, [r4, #4]
     8b2:	493a      	ldr	r1, [pc, #232]	; (99c <main+0x69c>)
     8b4:	4833      	ldr	r0, [pc, #204]	; (984 <main+0x684>)
     8b6:	f003 fc49 	bl	414c <arm_cmplx_mag_squared_f32>
     8ba:	6065      	str	r5, [r4, #4]
     8bc:	68a1      	ldr	r1, [r4, #8]
     8be:	482f      	ldr	r0, [pc, #188]	; (97c <main+0x67c>)
     8c0:	1bc9      	subs	r1, r1, r7
     8c2:	f004 fa4b 	bl	4d5c <printf>
     8c6:	482e      	ldr	r0, [pc, #184]	; (980 <main+0x680>)
     8c8:	f004 fa48 	bl	4d5c <printf>
     8cc:	4620      	mov	r0, r4
     8ce:	f001 fd9d 	bl	240c <Chip_TIMER_Reset>
     8d2:	2240      	movs	r2, #64	; 0x40
     8d4:	6066      	str	r6, [r4, #4]
     8d6:	4931      	ldr	r1, [pc, #196]	; (99c <main+0x69c>)
     8d8:	482a      	ldr	r0, [pc, #168]	; (984 <main+0x684>)
     8da:	f003 fc37 	bl	414c <arm_cmplx_mag_squared_f32>
     8de:	6065      	str	r5, [r4, #4]
     8e0:	68a1      	ldr	r1, [r4, #8]
     8e2:	4826      	ldr	r0, [pc, #152]	; (97c <main+0x67c>)
     8e4:	1bc9      	subs	r1, r1, r7
     8e6:	f004 fa39 	bl	4d5c <printf>
     8ea:	4825      	ldr	r0, [pc, #148]	; (980 <main+0x680>)
     8ec:	f004 fa36 	bl	4d5c <printf>
     8f0:	4620      	mov	r0, r4
     8f2:	f001 fd8b 	bl	240c <Chip_TIMER_Reset>
     8f6:	2280      	movs	r2, #128	; 0x80
     8f8:	6066      	str	r6, [r4, #4]
     8fa:	4928      	ldr	r1, [pc, #160]	; (99c <main+0x69c>)
     8fc:	4821      	ldr	r0, [pc, #132]	; (984 <main+0x684>)
     8fe:	f003 fc25 	bl	414c <arm_cmplx_mag_squared_f32>
     902:	6065      	str	r5, [r4, #4]
     904:	68a1      	ldr	r1, [r4, #8]
     906:	481d      	ldr	r0, [pc, #116]	; (97c <main+0x67c>)
     908:	1bc9      	subs	r1, r1, r7
     90a:	f004 fa27 	bl	4d5c <printf>
     90e:	481c      	ldr	r0, [pc, #112]	; (980 <main+0x680>)
     910:	f004 fa24 	bl	4d5c <printf>
     914:	4620      	mov	r0, r4
     916:	f001 fd79 	bl	240c <Chip_TIMER_Reset>
     91a:	f44f 7280 	mov.w	r2, #256	; 0x100
     91e:	6066      	str	r6, [r4, #4]
     920:	491e      	ldr	r1, [pc, #120]	; (99c <main+0x69c>)
     922:	4818      	ldr	r0, [pc, #96]	; (984 <main+0x684>)
     924:	f003 fc12 	bl	414c <arm_cmplx_mag_squared_f32>
     928:	6065      	str	r5, [r4, #4]
     92a:	68a1      	ldr	r1, [r4, #8]
     92c:	4813      	ldr	r0, [pc, #76]	; (97c <main+0x67c>)
     92e:	1bc9      	subs	r1, r1, r7
     930:	f004 fa14 	bl	4d5c <printf>
     934:	4812      	ldr	r0, [pc, #72]	; (980 <main+0x680>)
     936:	f004 fa11 	bl	4d5c <printf>
     93a:	4620      	mov	r0, r4
     93c:	f001 fd66 	bl	240c <Chip_TIMER_Reset>
     940:	f44f 7200 	mov.w	r2, #512	; 0x200
     944:	6066      	str	r6, [r4, #4]
     946:	4915      	ldr	r1, [pc, #84]	; (99c <main+0x69c>)
     948:	480e      	ldr	r0, [pc, #56]	; (984 <main+0x684>)
     94a:	f003 fbff 	bl	414c <arm_cmplx_mag_squared_f32>
     94e:	6065      	str	r5, [r4, #4]
     950:	68a1      	ldr	r1, [r4, #8]
     952:	480a      	ldr	r0, [pc, #40]	; (97c <main+0x67c>)
     954:	1bc9      	subs	r1, r1, r7
     956:	f004 fa01 	bl	4d5c <printf>
     95a:	4809      	ldr	r0, [pc, #36]	; (980 <main+0x680>)
     95c:	f004 f9fe 	bl	4d5c <printf>
     960:	4620      	mov	r0, r4
     962:	f001 fd53 	bl	240c <Chip_TIMER_Reset>
     966:	f44f 6280 	mov.w	r2, #1024	; 0x400
     96a:	6066      	str	r6, [r4, #4]
     96c:	490b      	ldr	r1, [pc, #44]	; (99c <main+0x69c>)
     96e:	4805      	ldr	r0, [pc, #20]	; (984 <main+0x684>)
     970:	f003 fbec 	bl	414c <arm_cmplx_mag_squared_f32>
     974:	6065      	str	r5, [r4, #4]
     976:	e015      	b.n	9a4 <main+0x6a4>
     978:	000070f8 	.word	0x000070f8
     97c:	00006f28 	.word	0x00006f28
     980:	00006f24 	.word	0x00006f24
     984:	200023a4 	.word	0x200023a4
     988:	000070d8 	.word	0x000070d8
     98c:	00007098 	.word	0x00007098
     990:	00007108 	.word	0x00007108
     994:	00006ec0 	.word	0x00006ec0
     998:	00006f44 	.word	0x00006f44
     99c:	200064b0 	.word	0x200064b0
     9a0:	00006f54 	.word	0x00006f54
     9a4:	68a1      	ldr	r1, [r4, #8]
     9a6:	48c8      	ldr	r0, [pc, #800]	; (cc8 <main+0x9c8>)
     9a8:	1bc9      	subs	r1, r1, r7
     9aa:	f004 f9d7 	bl	4d5c <printf>
     9ae:	48c7      	ldr	r0, [pc, #796]	; (ccc <main+0x9cc>)
     9b0:	f004 f9d4 	bl	4d5c <printf>
     9b4:	4620      	mov	r0, r4
     9b6:	f001 fd29 	bl	240c <Chip_TIMER_Reset>
     9ba:	f44f 6200 	mov.w	r2, #2048	; 0x800
     9be:	6066      	str	r6, [r4, #4]
     9c0:	49c3      	ldr	r1, [pc, #780]	; (cd0 <main+0x9d0>)
     9c2:	48c4      	ldr	r0, [pc, #784]	; (cd4 <main+0x9d4>)
     9c4:	f003 fbc2 	bl	414c <arm_cmplx_mag_squared_f32>
     9c8:	6065      	str	r5, [r4, #4]
     9ca:	68a1      	ldr	r1, [r4, #8]
     9cc:	48be      	ldr	r0, [pc, #760]	; (cc8 <main+0x9c8>)
     9ce:	1bc9      	subs	r1, r1, r7
     9d0:	f004 f9c4 	bl	4d5c <printf>
     9d4:	48bd      	ldr	r0, [pc, #756]	; (ccc <main+0x9cc>)
     9d6:	f004 f9c1 	bl	4d5c <printf>
     9da:	4620      	mov	r0, r4
     9dc:	f001 fd16 	bl	240c <Chip_TIMER_Reset>
     9e0:	f44f 5280 	mov.w	r2, #4096	; 0x1000
     9e4:	6066      	str	r6, [r4, #4]
     9e6:	49ba      	ldr	r1, [pc, #744]	; (cd0 <main+0x9d0>)
     9e8:	48ba      	ldr	r0, [pc, #744]	; (cd4 <main+0x9d4>)
     9ea:	f003 fbaf 	bl	414c <arm_cmplx_mag_squared_f32>
     9ee:	6065      	str	r5, [r4, #4]
     9f0:	68a1      	ldr	r1, [r4, #8]
     9f2:	48b5      	ldr	r0, [pc, #724]	; (cc8 <main+0x9c8>)
     9f4:	1bc9      	subs	r1, r1, r7
     9f6:	f004 f9b1 	bl	4d5c <printf>
     9fa:	48b4      	ldr	r0, [pc, #720]	; (ccc <main+0x9cc>)
     9fc:	f004 f9ae 	bl	4d5c <printf>
     a00:	eddf 0ab5 	vldr	s1, [pc, #724]	; cd8 <main+0x9d8>
     a04:	ed9f 0ab5 	vldr	s0, [pc, #724]	; cdc <main+0x9dc>
     a08:	2120      	movs	r1, #32
     a0a:	4640      	mov	r0, r8
     a0c:	f000 fd40 	bl	1490 <InitGoertzel_f32>
     a10:	48b3      	ldr	r0, [pc, #716]	; (ce0 <main+0x9e0>)
     a12:	f004 f9a3 	bl	4d5c <printf>
     a16:	f04f 0b20 	mov.w	fp, #32
     a1a:	4620      	mov	r0, r4
     a1c:	f8c8 b008 	str.w	fp, [r8, #8]
     a20:	f001 fcf4 	bl	240c <Chip_TIMER_Reset>
     a24:	4640      	mov	r0, r8
     a26:	6066      	str	r6, [r4, #4]
     a28:	49aa      	ldr	r1, [pc, #680]	; (cd4 <main+0x9d4>)
     a2a:	f000 fd51 	bl	14d0 <ProcessGoertzel_f32_Power>
     a2e:	ed8d 0a03 	vstr	s0, [sp, #12]
     a32:	6065      	str	r5, [r4, #4]
     a34:	68a1      	ldr	r1, [r4, #8]
     a36:	48a4      	ldr	r0, [pc, #656]	; (cc8 <main+0x9c8>)
     a38:	1bc9      	subs	r1, r1, r7
     a3a:	f004 f98f 	bl	4d5c <printf>
     a3e:	48a3      	ldr	r0, [pc, #652]	; (ccc <main+0x9cc>)
     a40:	f004 f98c 	bl	4d5c <printf>
     a44:	eddd 7a03 	vldr	s15, [sp, #12]
     a48:	f8c8 b008 	str.w	fp, [r8, #8]
     a4c:	ee77 7aa7 	vadd.f32	s15, s15, s15
     a50:	4620      	mov	r0, r4
     a52:	edcd 7a03 	vstr	s15, [sp, #12]
     a56:	f001 fcd9 	bl	240c <Chip_TIMER_Reset>
     a5a:	4640      	mov	r0, r8
     a5c:	6066      	str	r6, [r4, #4]
     a5e:	499d      	ldr	r1, [pc, #628]	; (cd4 <main+0x9d4>)
     a60:	f000 fd36 	bl	14d0 <ProcessGoertzel_f32_Power>
     a64:	ed8d 0a03 	vstr	s0, [sp, #12]
     a68:	6065      	str	r5, [r4, #4]
     a6a:	68a1      	ldr	r1, [r4, #8]
     a6c:	4896      	ldr	r0, [pc, #600]	; (cc8 <main+0x9c8>)
     a6e:	1bc9      	subs	r1, r1, r7
     a70:	f004 f974 	bl	4d5c <printf>
     a74:	4895      	ldr	r0, [pc, #596]	; (ccc <main+0x9cc>)
     a76:	f004 f971 	bl	4d5c <printf>
     a7a:	eddd 7a03 	vldr	s15, [sp, #12]
     a7e:	ee77 7aa7 	vadd.f32	s15, s15, s15
     a82:	2340      	movs	r3, #64	; 0x40
     a84:	4620      	mov	r0, r4
     a86:	f8c8 3008 	str.w	r3, [r8, #8]
     a8a:	edcd 7a03 	vstr	s15, [sp, #12]
     a8e:	f001 fcbd 	bl	240c <Chip_TIMER_Reset>
     a92:	4640      	mov	r0, r8
     a94:	6066      	str	r6, [r4, #4]
     a96:	498f      	ldr	r1, [pc, #572]	; (cd4 <main+0x9d4>)
     a98:	f000 fd1a 	bl	14d0 <ProcessGoertzel_f32_Power>
     a9c:	ed8d 0a03 	vstr	s0, [sp, #12]
     aa0:	6065      	str	r5, [r4, #4]
     aa2:	68a1      	ldr	r1, [r4, #8]
     aa4:	4888      	ldr	r0, [pc, #544]	; (cc8 <main+0x9c8>)
     aa6:	1bc9      	subs	r1, r1, r7
     aa8:	f004 f958 	bl	4d5c <printf>
     aac:	4887      	ldr	r0, [pc, #540]	; (ccc <main+0x9cc>)
     aae:	f004 f955 	bl	4d5c <printf>
     ab2:	eddd 7a03 	vldr	s15, [sp, #12]
     ab6:	ee77 7aa7 	vadd.f32	s15, s15, s15
     aba:	2380      	movs	r3, #128	; 0x80
     abc:	4620      	mov	r0, r4
     abe:	f8c8 3008 	str.w	r3, [r8, #8]
     ac2:	edcd 7a03 	vstr	s15, [sp, #12]
     ac6:	f001 fca1 	bl	240c <Chip_TIMER_Reset>
     aca:	4640      	mov	r0, r8
     acc:	6066      	str	r6, [r4, #4]
     ace:	4981      	ldr	r1, [pc, #516]	; (cd4 <main+0x9d4>)
     ad0:	f000 fcfe 	bl	14d0 <ProcessGoertzel_f32_Power>
     ad4:	ed8d 0a03 	vstr	s0, [sp, #12]
     ad8:	6065      	str	r5, [r4, #4]
     ada:	68a1      	ldr	r1, [r4, #8]
     adc:	487a      	ldr	r0, [pc, #488]	; (cc8 <main+0x9c8>)
     ade:	1bc9      	subs	r1, r1, r7
     ae0:	f004 f93c 	bl	4d5c <printf>
     ae4:	4879      	ldr	r0, [pc, #484]	; (ccc <main+0x9cc>)
     ae6:	f004 f939 	bl	4d5c <printf>
     aea:	eddd 7a03 	vldr	s15, [sp, #12]
     aee:	ee77 7aa7 	vadd.f32	s15, s15, s15
     af2:	f44f 7380 	mov.w	r3, #256	; 0x100
     af6:	4620      	mov	r0, r4
     af8:	f8c8 3008 	str.w	r3, [r8, #8]
     afc:	edcd 7a03 	vstr	s15, [sp, #12]
     b00:	f001 fc84 	bl	240c <Chip_TIMER_Reset>
     b04:	4640      	mov	r0, r8
     b06:	6066      	str	r6, [r4, #4]
     b08:	4972      	ldr	r1, [pc, #456]	; (cd4 <main+0x9d4>)
     b0a:	f000 fce1 	bl	14d0 <ProcessGoertzel_f32_Power>
     b0e:	ed8d 0a03 	vstr	s0, [sp, #12]
     b12:	6065      	str	r5, [r4, #4]
     b14:	68a1      	ldr	r1, [r4, #8]
     b16:	486c      	ldr	r0, [pc, #432]	; (cc8 <main+0x9c8>)
     b18:	1bc9      	subs	r1, r1, r7
     b1a:	f004 f91f 	bl	4d5c <printf>
     b1e:	486b      	ldr	r0, [pc, #428]	; (ccc <main+0x9cc>)
     b20:	f004 f91c 	bl	4d5c <printf>
     b24:	eddd 7a03 	vldr	s15, [sp, #12]
     b28:	ee77 7aa7 	vadd.f32	s15, s15, s15
     b2c:	f44f 7300 	mov.w	r3, #512	; 0x200
     b30:	4620      	mov	r0, r4
     b32:	f8c8 3008 	str.w	r3, [r8, #8]
     b36:	edcd 7a03 	vstr	s15, [sp, #12]
     b3a:	f001 fc67 	bl	240c <Chip_TIMER_Reset>
     b3e:	4640      	mov	r0, r8
     b40:	6066      	str	r6, [r4, #4]
     b42:	4964      	ldr	r1, [pc, #400]	; (cd4 <main+0x9d4>)
     b44:	f000 fcc4 	bl	14d0 <ProcessGoertzel_f32_Power>
     b48:	ed8d 0a03 	vstr	s0, [sp, #12]
     b4c:	6065      	str	r5, [r4, #4]
     b4e:	68a1      	ldr	r1, [r4, #8]
     b50:	485d      	ldr	r0, [pc, #372]	; (cc8 <main+0x9c8>)
     b52:	1bc9      	subs	r1, r1, r7
     b54:	f004 f902 	bl	4d5c <printf>
     b58:	485c      	ldr	r0, [pc, #368]	; (ccc <main+0x9cc>)
     b5a:	f004 f8ff 	bl	4d5c <printf>
     b5e:	eddd 7a03 	vldr	s15, [sp, #12]
     b62:	ee77 7aa7 	vadd.f32	s15, s15, s15
     b66:	f44f 6380 	mov.w	r3, #1024	; 0x400
     b6a:	4620      	mov	r0, r4
     b6c:	f8c8 3008 	str.w	r3, [r8, #8]
     b70:	edcd 7a03 	vstr	s15, [sp, #12]
     b74:	f001 fc4a 	bl	240c <Chip_TIMER_Reset>
     b78:	4640      	mov	r0, r8
     b7a:	6066      	str	r6, [r4, #4]
     b7c:	4955      	ldr	r1, [pc, #340]	; (cd4 <main+0x9d4>)
     b7e:	f000 fca7 	bl	14d0 <ProcessGoertzel_f32_Power>
     b82:	ed8d 0a03 	vstr	s0, [sp, #12]
     b86:	6065      	str	r5, [r4, #4]
     b88:	68a1      	ldr	r1, [r4, #8]
     b8a:	484f      	ldr	r0, [pc, #316]	; (cc8 <main+0x9c8>)
     b8c:	1bc9      	subs	r1, r1, r7
     b8e:	f004 f8e5 	bl	4d5c <printf>
     b92:	484e      	ldr	r0, [pc, #312]	; (ccc <main+0x9cc>)
     b94:	f004 f8e2 	bl	4d5c <printf>
     b98:	eddd 7a03 	vldr	s15, [sp, #12]
     b9c:	ee77 7aa7 	vadd.f32	s15, s15, s15
     ba0:	f44f 6a00 	mov.w	sl, #2048	; 0x800
     ba4:	4620      	mov	r0, r4
     ba6:	edcd 7a03 	vstr	s15, [sp, #12]
     baa:	f8c8 a008 	str.w	sl, [r8, #8]
     bae:	f001 fc2d 	bl	240c <Chip_TIMER_Reset>
     bb2:	4640      	mov	r0, r8
     bb4:	6066      	str	r6, [r4, #4]
     bb6:	4947      	ldr	r1, [pc, #284]	; (cd4 <main+0x9d4>)
     bb8:	f000 fc8a 	bl	14d0 <ProcessGoertzel_f32_Power>
     bbc:	ed8d 0a03 	vstr	s0, [sp, #12]
     bc0:	6065      	str	r5, [r4, #4]
     bc2:	68a1      	ldr	r1, [r4, #8]
     bc4:	4840      	ldr	r0, [pc, #256]	; (cc8 <main+0x9c8>)
     bc6:	1bc9      	subs	r1, r1, r7
     bc8:	f004 f8c8 	bl	4d5c <printf>
     bcc:	483f      	ldr	r0, [pc, #252]	; (ccc <main+0x9cc>)
     bce:	f004 f8c5 	bl	4d5c <printf>
     bd2:	eddd 7a03 	vldr	s15, [sp, #12]
     bd6:	ee77 7aa7 	vadd.f32	s15, s15, s15
     bda:	f44f 5380 	mov.w	r3, #4096	; 0x1000
     bde:	4620      	mov	r0, r4
     be0:	f8c8 3008 	str.w	r3, [r8, #8]
     be4:	edcd 7a03 	vstr	s15, [sp, #12]
     be8:	f001 fc10 	bl	240c <Chip_TIMER_Reset>
     bec:	4640      	mov	r0, r8
     bee:	6066      	str	r6, [r4, #4]
     bf0:	4938      	ldr	r1, [pc, #224]	; (cd4 <main+0x9d4>)
     bf2:	f8df 80e0 	ldr.w	r8, [pc, #224]	; cd4 <main+0x9d4>
     bf6:	f000 fc6b 	bl	14d0 <ProcessGoertzel_f32_Power>
     bfa:	ed8d 0a03 	vstr	s0, [sp, #12]
     bfe:	6065      	str	r5, [r4, #4]
     c00:	68a1      	ldr	r1, [r4, #8]
     c02:	4831      	ldr	r0, [pc, #196]	; (cc8 <main+0x9c8>)
     c04:	1bc9      	subs	r1, r1, r7
     c06:	f004 f8a9 	bl	4d5c <printf>
     c0a:	4830      	ldr	r0, [pc, #192]	; (ccc <main+0x9cc>)
     c0c:	f004 f8a6 	bl	4d5c <printf>
     c10:	eddd 7a03 	vldr	s15, [sp, #12]
     c14:	4833      	ldr	r0, [pc, #204]	; (ce4 <main+0x9e4>)
     c16:	ee77 7aa7 	vadd.f32	s15, s15, s15
     c1a:	edcd 7a03 	vstr	s15, [sp, #12]
     c1e:	f004 f89d 	bl	4d5c <printf>
     c22:	4831      	ldr	r0, [pc, #196]	; (ce8 <main+0x9e8>)
     c24:	f004 f89a 	bl	4d5c <printf>
     c28:	4631      	mov	r1, r6
     c2a:	4b30      	ldr	r3, [pc, #192]	; (cec <main+0x9ec>)
     c2c:	4a30      	ldr	r2, [pc, #192]	; (cf0 <main+0x9f0>)
     c2e:	4831      	ldr	r0, [pc, #196]	; (cf4 <main+0x9f4>)
     c30:	f002 ff02 	bl	3a38 <arm_biquad_cascade_df1_init_f32>
     c34:	4620      	mov	r0, r4
     c36:	f001 fbe9 	bl	240c <Chip_TIMER_Reset>
     c3a:	2310      	movs	r3, #16
     c3c:	4a24      	ldr	r2, [pc, #144]	; (cd0 <main+0x9d0>)
     c3e:	6066      	str	r6, [r4, #4]
     c40:	4924      	ldr	r1, [pc, #144]	; (cd4 <main+0x9d4>)
     c42:	482c      	ldr	r0, [pc, #176]	; (cf4 <main+0x9f4>)
     c44:	f002 fe56 	bl	38f4 <arm_biquad_cascade_df1_f32>
     c48:	6065      	str	r5, [r4, #4]
     c4a:	68a1      	ldr	r1, [r4, #8]
     c4c:	481e      	ldr	r0, [pc, #120]	; (cc8 <main+0x9c8>)
     c4e:	1bc9      	subs	r1, r1, r7
     c50:	f004 f884 	bl	4d5c <printf>
     c54:	481d      	ldr	r0, [pc, #116]	; (ccc <main+0x9cc>)
     c56:	f004 f881 	bl	4d5c <printf>
     c5a:	4620      	mov	r0, r4
     c5c:	f001 fbd6 	bl	240c <Chip_TIMER_Reset>
     c60:	465b      	mov	r3, fp
     c62:	4a1b      	ldr	r2, [pc, #108]	; (cd0 <main+0x9d0>)
     c64:	6066      	str	r6, [r4, #4]
     c66:	491b      	ldr	r1, [pc, #108]	; (cd4 <main+0x9d4>)
     c68:	4822      	ldr	r0, [pc, #136]	; (cf4 <main+0x9f4>)
     c6a:	f002 fe43 	bl	38f4 <arm_biquad_cascade_df1_f32>
     c6e:	6065      	str	r5, [r4, #4]
     c70:	68a1      	ldr	r1, [r4, #8]
     c72:	4815      	ldr	r0, [pc, #84]	; (cc8 <main+0x9c8>)
     c74:	1bc9      	subs	r1, r1, r7
     c76:	f004 f871 	bl	4d5c <printf>
     c7a:	4814      	ldr	r0, [pc, #80]	; (ccc <main+0x9cc>)
     c7c:	f004 f86e 	bl	4d5c <printf>
     c80:	4620      	mov	r0, r4
     c82:	f001 fbc3 	bl	240c <Chip_TIMER_Reset>
     c86:	2340      	movs	r3, #64	; 0x40
     c88:	4a11      	ldr	r2, [pc, #68]	; (cd0 <main+0x9d0>)
     c8a:	6066      	str	r6, [r4, #4]
     c8c:	4911      	ldr	r1, [pc, #68]	; (cd4 <main+0x9d4>)
     c8e:	4819      	ldr	r0, [pc, #100]	; (cf4 <main+0x9f4>)
     c90:	f002 fe30 	bl	38f4 <arm_biquad_cascade_df1_f32>
     c94:	6065      	str	r5, [r4, #4]
     c96:	68a1      	ldr	r1, [r4, #8]
     c98:	480b      	ldr	r0, [pc, #44]	; (cc8 <main+0x9c8>)
     c9a:	1bc9      	subs	r1, r1, r7
     c9c:	f004 f85e 	bl	4d5c <printf>
     ca0:	480a      	ldr	r0, [pc, #40]	; (ccc <main+0x9cc>)
     ca2:	f004 f85b 	bl	4d5c <printf>
     ca6:	4620      	mov	r0, r4
     ca8:	f001 fbb0 	bl	240c <Chip_TIMER_Reset>
     cac:	2380      	movs	r3, #128	; 0x80
     cae:	4a08      	ldr	r2, [pc, #32]	; (cd0 <main+0x9d0>)
     cb0:	6066      	str	r6, [r4, #4]
     cb2:	4908      	ldr	r1, [pc, #32]	; (cd4 <main+0x9d4>)
     cb4:	480f      	ldr	r0, [pc, #60]	; (cf4 <main+0x9f4>)
     cb6:	f002 fe1d 	bl	38f4 <arm_biquad_cascade_df1_f32>
     cba:	6065      	str	r5, [r4, #4]
     cbc:	68a1      	ldr	r1, [r4, #8]
     cbe:	4802      	ldr	r0, [pc, #8]	; (cc8 <main+0x9c8>)
     cc0:	1bc9      	subs	r1, r1, r7
     cc2:	f004 f84b 	bl	4d5c <printf>
     cc6:	e017      	b.n	cf8 <main+0x9f8>
     cc8:	00006f28 	.word	0x00006f28
     ccc:	00006f24 	.word	0x00006f24
     cd0:	200064b0 	.word	0x200064b0
     cd4:	200023a4 	.word	0x200023a4
     cd8:	49742400 	.word	0x49742400
     cdc:	482fc800 	.word	0x482fc800
     ce0:	00006f6c 	.word	0x00006f6c
     ce4:	00006ec0 	.word	0x00006ec0
     ce8:	00006f7c 	.word	0x00006f7c
     cec:	200000f8 	.word	0x200000f8
     cf0:	20000000 	.word	0x20000000
     cf4:	2000a4b0 	.word	0x2000a4b0
     cf8:	48b4      	ldr	r0, [pc, #720]	; (fcc <main+0xccc>)
     cfa:	f004 f82f 	bl	4d5c <printf>
     cfe:	4620      	mov	r0, r4
     d00:	f001 fb84 	bl	240c <Chip_TIMER_Reset>
     d04:	f44f 7380 	mov.w	r3, #256	; 0x100
     d08:	4ab1      	ldr	r2, [pc, #708]	; (fd0 <main+0xcd0>)
     d0a:	6066      	str	r6, [r4, #4]
     d0c:	49b1      	ldr	r1, [pc, #708]	; (fd4 <main+0xcd4>)
     d0e:	48b2      	ldr	r0, [pc, #712]	; (fd8 <main+0xcd8>)
     d10:	f002 fdf0 	bl	38f4 <arm_biquad_cascade_df1_f32>
     d14:	6065      	str	r5, [r4, #4]
     d16:	68a1      	ldr	r1, [r4, #8]
     d18:	48b0      	ldr	r0, [pc, #704]	; (fdc <main+0xcdc>)
     d1a:	1bc9      	subs	r1, r1, r7
     d1c:	f004 f81e 	bl	4d5c <printf>
     d20:	48aa      	ldr	r0, [pc, #680]	; (fcc <main+0xccc>)
     d22:	f004 f81b 	bl	4d5c <printf>
     d26:	4620      	mov	r0, r4
     d28:	f001 fb70 	bl	240c <Chip_TIMER_Reset>
     d2c:	f44f 7300 	mov.w	r3, #512	; 0x200
     d30:	4aa7      	ldr	r2, [pc, #668]	; (fd0 <main+0xcd0>)
     d32:	6066      	str	r6, [r4, #4]
     d34:	49a7      	ldr	r1, [pc, #668]	; (fd4 <main+0xcd4>)
     d36:	48a8      	ldr	r0, [pc, #672]	; (fd8 <main+0xcd8>)
     d38:	f002 fddc 	bl	38f4 <arm_biquad_cascade_df1_f32>
     d3c:	6065      	str	r5, [r4, #4]
     d3e:	68a1      	ldr	r1, [r4, #8]
     d40:	48a6      	ldr	r0, [pc, #664]	; (fdc <main+0xcdc>)
     d42:	1bc9      	subs	r1, r1, r7
     d44:	f004 f80a 	bl	4d5c <printf>
     d48:	48a0      	ldr	r0, [pc, #640]	; (fcc <main+0xccc>)
     d4a:	f004 f807 	bl	4d5c <printf>
     d4e:	4620      	mov	r0, r4
     d50:	f001 fb5c 	bl	240c <Chip_TIMER_Reset>
     d54:	f44f 6380 	mov.w	r3, #1024	; 0x400
     d58:	4a9d      	ldr	r2, [pc, #628]	; (fd0 <main+0xcd0>)
     d5a:	6066      	str	r6, [r4, #4]
     d5c:	499d      	ldr	r1, [pc, #628]	; (fd4 <main+0xcd4>)
     d5e:	489e      	ldr	r0, [pc, #632]	; (fd8 <main+0xcd8>)
     d60:	f002 fdc8 	bl	38f4 <arm_biquad_cascade_df1_f32>
     d64:	6065      	str	r5, [r4, #4]
     d66:	68a1      	ldr	r1, [r4, #8]
     d68:	489c      	ldr	r0, [pc, #624]	; (fdc <main+0xcdc>)
     d6a:	1bc9      	subs	r1, r1, r7
     d6c:	f003 fff6 	bl	4d5c <printf>
     d70:	4896      	ldr	r0, [pc, #600]	; (fcc <main+0xccc>)
     d72:	f003 fff3 	bl	4d5c <printf>
     d76:	4620      	mov	r0, r4
     d78:	f001 fb48 	bl	240c <Chip_TIMER_Reset>
     d7c:	4653      	mov	r3, sl
     d7e:	4a94      	ldr	r2, [pc, #592]	; (fd0 <main+0xcd0>)
     d80:	6066      	str	r6, [r4, #4]
     d82:	4994      	ldr	r1, [pc, #592]	; (fd4 <main+0xcd4>)
     d84:	4894      	ldr	r0, [pc, #592]	; (fd8 <main+0xcd8>)
     d86:	f002 fdb5 	bl	38f4 <arm_biquad_cascade_df1_f32>
     d8a:	6065      	str	r5, [r4, #4]
     d8c:	68a1      	ldr	r1, [r4, #8]
     d8e:	4893      	ldr	r0, [pc, #588]	; (fdc <main+0xcdc>)
     d90:	1bc9      	subs	r1, r1, r7
     d92:	f003 ffe3 	bl	4d5c <printf>
     d96:	488d      	ldr	r0, [pc, #564]	; (fcc <main+0xccc>)
     d98:	f003 ffe0 	bl	4d5c <printf>
     d9c:	4620      	mov	r0, r4
     d9e:	f001 fb35 	bl	240c <Chip_TIMER_Reset>
     da2:	f44f 5380 	mov.w	r3, #4096	; 0x1000
     da6:	4a8a      	ldr	r2, [pc, #552]	; (fd0 <main+0xcd0>)
     da8:	6066      	str	r6, [r4, #4]
     daa:	498a      	ldr	r1, [pc, #552]	; (fd4 <main+0xcd4>)
     dac:	488a      	ldr	r0, [pc, #552]	; (fd8 <main+0xcd8>)
     dae:	f002 fda1 	bl	38f4 <arm_biquad_cascade_df1_f32>
     db2:	6065      	str	r5, [r4, #4]
     db4:	68a1      	ldr	r1, [r4, #8]
     db6:	4889      	ldr	r0, [pc, #548]	; (fdc <main+0xcdc>)
     db8:	1bc9      	subs	r1, r1, r7
     dba:	f003 ffcf 	bl	4d5c <printf>
     dbe:	4883      	ldr	r0, [pc, #524]	; (fcc <main+0xccc>)
     dc0:	f003 ffcc 	bl	4d5c <printf>
     dc4:	4886      	ldr	r0, [pc, #536]	; (fe0 <main+0xce0>)
     dc6:	f003 ffc9 	bl	4d5c <printf>
     dca:	4886      	ldr	r0, [pc, #536]	; (fe4 <main+0xce4>)
     dcc:	f003 ffc6 	bl	4d5c <printf>
     dd0:	4631      	mov	r1, r6
     dd2:	4b85      	ldr	r3, [pc, #532]	; (fe8 <main+0xce8>)
     dd4:	4a85      	ldr	r2, [pc, #532]	; (fec <main+0xcec>)
     dd6:	4880      	ldr	r0, [pc, #512]	; (fd8 <main+0xcd8>)
     dd8:	f002 fee8 	bl	3bac <arm_biquad_cascade_df2T_init_f32>
     ddc:	4620      	mov	r0, r4
     dde:	f001 fb15 	bl	240c <Chip_TIMER_Reset>
     de2:	2310      	movs	r3, #16
     de4:	4a7a      	ldr	r2, [pc, #488]	; (fd0 <main+0xcd0>)
     de6:	6066      	str	r6, [r4, #4]
     de8:	497a      	ldr	r1, [pc, #488]	; (fd4 <main+0xcd4>)
     dea:	487b      	ldr	r0, [pc, #492]	; (fd8 <main+0xcd8>)
     dec:	f002 fe30 	bl	3a50 <arm_biquad_cascade_df2T_f32>
     df0:	6065      	str	r5, [r4, #4]
     df2:	68a1      	ldr	r1, [r4, #8]
     df4:	4879      	ldr	r0, [pc, #484]	; (fdc <main+0xcdc>)
     df6:	1bc9      	subs	r1, r1, r7
     df8:	f003 ffb0 	bl	4d5c <printf>
     dfc:	4873      	ldr	r0, [pc, #460]	; (fcc <main+0xccc>)
     dfe:	f003 ffad 	bl	4d5c <printf>
     e02:	4620      	mov	r0, r4
     e04:	f001 fb02 	bl	240c <Chip_TIMER_Reset>
     e08:	465b      	mov	r3, fp
     e0a:	4a71      	ldr	r2, [pc, #452]	; (fd0 <main+0xcd0>)
     e0c:	6066      	str	r6, [r4, #4]
     e0e:	4971      	ldr	r1, [pc, #452]	; (fd4 <main+0xcd4>)
     e10:	4871      	ldr	r0, [pc, #452]	; (fd8 <main+0xcd8>)
     e12:	f002 fe1d 	bl	3a50 <arm_biquad_cascade_df2T_f32>
     e16:	6065      	str	r5, [r4, #4]
     e18:	68a1      	ldr	r1, [r4, #8]
     e1a:	4870      	ldr	r0, [pc, #448]	; (fdc <main+0xcdc>)
     e1c:	1bc9      	subs	r1, r1, r7
     e1e:	f003 ff9d 	bl	4d5c <printf>
     e22:	486a      	ldr	r0, [pc, #424]	; (fcc <main+0xccc>)
     e24:	f003 ff9a 	bl	4d5c <printf>
     e28:	4620      	mov	r0, r4
     e2a:	f001 faef 	bl	240c <Chip_TIMER_Reset>
     e2e:	2340      	movs	r3, #64	; 0x40
     e30:	4a67      	ldr	r2, [pc, #412]	; (fd0 <main+0xcd0>)
     e32:	6066      	str	r6, [r4, #4]
     e34:	4967      	ldr	r1, [pc, #412]	; (fd4 <main+0xcd4>)
     e36:	4868      	ldr	r0, [pc, #416]	; (fd8 <main+0xcd8>)
     e38:	f002 fe0a 	bl	3a50 <arm_biquad_cascade_df2T_f32>
     e3c:	6065      	str	r5, [r4, #4]
     e3e:	68a1      	ldr	r1, [r4, #8]
     e40:	4866      	ldr	r0, [pc, #408]	; (fdc <main+0xcdc>)
     e42:	1bc9      	subs	r1, r1, r7
     e44:	f003 ff8a 	bl	4d5c <printf>
     e48:	4860      	ldr	r0, [pc, #384]	; (fcc <main+0xccc>)
     e4a:	f003 ff87 	bl	4d5c <printf>
     e4e:	4620      	mov	r0, r4
     e50:	f001 fadc 	bl	240c <Chip_TIMER_Reset>
     e54:	2380      	movs	r3, #128	; 0x80
     e56:	4a5e      	ldr	r2, [pc, #376]	; (fd0 <main+0xcd0>)
     e58:	6066      	str	r6, [r4, #4]
     e5a:	495e      	ldr	r1, [pc, #376]	; (fd4 <main+0xcd4>)
     e5c:	485e      	ldr	r0, [pc, #376]	; (fd8 <main+0xcd8>)
     e5e:	f002 fdf7 	bl	3a50 <arm_biquad_cascade_df2T_f32>
     e62:	6065      	str	r5, [r4, #4]
     e64:	68a1      	ldr	r1, [r4, #8]
     e66:	485d      	ldr	r0, [pc, #372]	; (fdc <main+0xcdc>)
     e68:	1bc9      	subs	r1, r1, r7
     e6a:	f003 ff77 	bl	4d5c <printf>
     e6e:	4857      	ldr	r0, [pc, #348]	; (fcc <main+0xccc>)
     e70:	f003 ff74 	bl	4d5c <printf>
     e74:	4620      	mov	r0, r4
     e76:	f001 fac9 	bl	240c <Chip_TIMER_Reset>
     e7a:	f44f 7380 	mov.w	r3, #256	; 0x100
     e7e:	4a54      	ldr	r2, [pc, #336]	; (fd0 <main+0xcd0>)
     e80:	6066      	str	r6, [r4, #4]
     e82:	4954      	ldr	r1, [pc, #336]	; (fd4 <main+0xcd4>)
     e84:	4854      	ldr	r0, [pc, #336]	; (fd8 <main+0xcd8>)
     e86:	f002 fde3 	bl	3a50 <arm_biquad_cascade_df2T_f32>
     e8a:	6065      	str	r5, [r4, #4]
     e8c:	68a1      	ldr	r1, [r4, #8]
     e8e:	4853      	ldr	r0, [pc, #332]	; (fdc <main+0xcdc>)
     e90:	1bc9      	subs	r1, r1, r7
     e92:	f003 ff63 	bl	4d5c <printf>
     e96:	484d      	ldr	r0, [pc, #308]	; (fcc <main+0xccc>)
     e98:	f003 ff60 	bl	4d5c <printf>
     e9c:	4620      	mov	r0, r4
     e9e:	f001 fab5 	bl	240c <Chip_TIMER_Reset>
     ea2:	f44f 7300 	mov.w	r3, #512	; 0x200
     ea6:	4a4a      	ldr	r2, [pc, #296]	; (fd0 <main+0xcd0>)
     ea8:	6066      	str	r6, [r4, #4]
     eaa:	494a      	ldr	r1, [pc, #296]	; (fd4 <main+0xcd4>)
     eac:	484a      	ldr	r0, [pc, #296]	; (fd8 <main+0xcd8>)
     eae:	f002 fdcf 	bl	3a50 <arm_biquad_cascade_df2T_f32>
     eb2:	6065      	str	r5, [r4, #4]
     eb4:	68a1      	ldr	r1, [r4, #8]
     eb6:	4849      	ldr	r0, [pc, #292]	; (fdc <main+0xcdc>)
     eb8:	1bc9      	subs	r1, r1, r7
     eba:	f003 ff4f 	bl	4d5c <printf>
     ebe:	4843      	ldr	r0, [pc, #268]	; (fcc <main+0xccc>)
     ec0:	f003 ff4c 	bl	4d5c <printf>
     ec4:	4620      	mov	r0, r4
     ec6:	f001 faa1 	bl	240c <Chip_TIMER_Reset>
     eca:	f44f 6380 	mov.w	r3, #1024	; 0x400
     ece:	4a40      	ldr	r2, [pc, #256]	; (fd0 <main+0xcd0>)
     ed0:	6066      	str	r6, [r4, #4]
     ed2:	4940      	ldr	r1, [pc, #256]	; (fd4 <main+0xcd4>)
     ed4:	4840      	ldr	r0, [pc, #256]	; (fd8 <main+0xcd8>)
     ed6:	f002 fdbb 	bl	3a50 <arm_biquad_cascade_df2T_f32>
     eda:	6065      	str	r5, [r4, #4]
     edc:	68a1      	ldr	r1, [r4, #8]
     ede:	483f      	ldr	r0, [pc, #252]	; (fdc <main+0xcdc>)
     ee0:	1bc9      	subs	r1, r1, r7
     ee2:	f003 ff3b 	bl	4d5c <printf>
     ee6:	4839      	ldr	r0, [pc, #228]	; (fcc <main+0xccc>)
     ee8:	f003 ff38 	bl	4d5c <printf>
     eec:	4620      	mov	r0, r4
     eee:	f001 fa8d 	bl	240c <Chip_TIMER_Reset>
     ef2:	4653      	mov	r3, sl
     ef4:	4a36      	ldr	r2, [pc, #216]	; (fd0 <main+0xcd0>)
     ef6:	6066      	str	r6, [r4, #4]
     ef8:	4936      	ldr	r1, [pc, #216]	; (fd4 <main+0xcd4>)
     efa:	4837      	ldr	r0, [pc, #220]	; (fd8 <main+0xcd8>)
     efc:	f002 fda8 	bl	3a50 <arm_biquad_cascade_df2T_f32>
     f00:	6065      	str	r5, [r4, #4]
     f02:	68a1      	ldr	r1, [r4, #8]
     f04:	4835      	ldr	r0, [pc, #212]	; (fdc <main+0xcdc>)
     f06:	1bc9      	subs	r1, r1, r7
     f08:	f003 ff28 	bl	4d5c <printf>
     f0c:	482f      	ldr	r0, [pc, #188]	; (fcc <main+0xccc>)
     f0e:	f003 ff25 	bl	4d5c <printf>
     f12:	4620      	mov	r0, r4
     f14:	f001 fa7a 	bl	240c <Chip_TIMER_Reset>
     f18:	f44f 5380 	mov.w	r3, #4096	; 0x1000
     f1c:	4a2c      	ldr	r2, [pc, #176]	; (fd0 <main+0xcd0>)
     f1e:	6066      	str	r6, [r4, #4]
     f20:	492c      	ldr	r1, [pc, #176]	; (fd4 <main+0xcd4>)
     f22:	482d      	ldr	r0, [pc, #180]	; (fd8 <main+0xcd8>)
     f24:	f002 fd94 	bl	3a50 <arm_biquad_cascade_df2T_f32>
     f28:	6065      	str	r5, [r4, #4]
     f2a:	68a1      	ldr	r1, [r4, #8]
     f2c:	482b      	ldr	r0, [pc, #172]	; (fdc <main+0xcdc>)
     f2e:	1bc9      	subs	r1, r1, r7
     f30:	f003 ff14 	bl	4d5c <printf>
     f34:	4825      	ldr	r0, [pc, #148]	; (fcc <main+0xccc>)
     f36:	f003 ff11 	bl	4d5c <printf>
     f3a:	4829      	ldr	r0, [pc, #164]	; (fe0 <main+0xce0>)
     f3c:	f003 ff0e 	bl	4d5c <printf>
     f40:	482b      	ldr	r0, [pc, #172]	; (ff0 <main+0xcf0>)
     f42:	f003 ff0b 	bl	4d5c <printf>
     f46:	4b2b      	ldr	r3, [pc, #172]	; (ff4 <main+0xcf4>)
     f48:	4a2b      	ldr	r2, [pc, #172]	; (ff8 <main+0xcf8>)
     f4a:	f8cd a000 	str.w	sl, [sp]
     f4e:	2108      	movs	r1, #8
     f50:	482a      	ldr	r0, [pc, #168]	; (ffc <main+0xcfc>)
     f52:	f003 f833 	bl	3fbc <arm_fir_init_f32>
     f56:	4620      	mov	r0, r4
     f58:	f001 fa58 	bl	240c <Chip_TIMER_Reset>
     f5c:	2310      	movs	r3, #16
     f5e:	4a1c      	ldr	r2, [pc, #112]	; (fd0 <main+0xcd0>)
     f60:	6066      	str	r6, [r4, #4]
     f62:	491c      	ldr	r1, [pc, #112]	; (fd4 <main+0xcd4>)
     f64:	4825      	ldr	r0, [pc, #148]	; (ffc <main+0xcfc>)
     f66:	f002 fe2d 	bl	3bc4 <arm_fir_f32>
     f6a:	6065      	str	r5, [r4, #4]
     f6c:	68a1      	ldr	r1, [r4, #8]
     f6e:	481b      	ldr	r0, [pc, #108]	; (fdc <main+0xcdc>)
     f70:	1bc9      	subs	r1, r1, r7
     f72:	f003 fef3 	bl	4d5c <printf>
     f76:	4815      	ldr	r0, [pc, #84]	; (fcc <main+0xccc>)
     f78:	f003 fef0 	bl	4d5c <printf>
     f7c:	4620      	mov	r0, r4
     f7e:	f001 fa45 	bl	240c <Chip_TIMER_Reset>
     f82:	465b      	mov	r3, fp
     f84:	4a12      	ldr	r2, [pc, #72]	; (fd0 <main+0xcd0>)
     f86:	6066      	str	r6, [r4, #4]
     f88:	4912      	ldr	r1, [pc, #72]	; (fd4 <main+0xcd4>)
     f8a:	481c      	ldr	r0, [pc, #112]	; (ffc <main+0xcfc>)
     f8c:	f002 fe1a 	bl	3bc4 <arm_fir_f32>
     f90:	6065      	str	r5, [r4, #4]
     f92:	68a1      	ldr	r1, [r4, #8]
     f94:	4811      	ldr	r0, [pc, #68]	; (fdc <main+0xcdc>)
     f96:	1bc9      	subs	r1, r1, r7
     f98:	f003 fee0 	bl	4d5c <printf>
     f9c:	480b      	ldr	r0, [pc, #44]	; (fcc <main+0xccc>)
     f9e:	f003 fedd 	bl	4d5c <printf>
     fa2:	4620      	mov	r0, r4
     fa4:	f001 fa32 	bl	240c <Chip_TIMER_Reset>
     fa8:	2340      	movs	r3, #64	; 0x40
     faa:	4a09      	ldr	r2, [pc, #36]	; (fd0 <main+0xcd0>)
     fac:	6066      	str	r6, [r4, #4]
     fae:	4909      	ldr	r1, [pc, #36]	; (fd4 <main+0xcd4>)
     fb0:	4812      	ldr	r0, [pc, #72]	; (ffc <main+0xcfc>)
     fb2:	f002 fe07 	bl	3bc4 <arm_fir_f32>
     fb6:	6065      	str	r5, [r4, #4]
     fb8:	68a1      	ldr	r1, [r4, #8]
     fba:	4808      	ldr	r0, [pc, #32]	; (fdc <main+0xcdc>)
     fbc:	1bc9      	subs	r1, r1, r7
     fbe:	f003 fecd 	bl	4d5c <printf>
     fc2:	4802      	ldr	r0, [pc, #8]	; (fcc <main+0xccc>)
     fc4:	f003 feca 	bl	4d5c <printf>
     fc8:	4620      	mov	r0, r4
     fca:	e019      	b.n	1000 <main+0xd00>
     fcc:	00006f24 	.word	0x00006f24
     fd0:	200064b0 	.word	0x200064b0
     fd4:	200023a4 	.word	0x200023a4
     fd8:	2000a4b0 	.word	0x2000a4b0
     fdc:	00006f28 	.word	0x00006f28
     fe0:	00006ec0 	.word	0x00006ec0
     fe4:	00006f90 	.word	0x00006f90
     fe8:	200000f8 	.word	0x200000f8
     fec:	20000000 	.word	0x20000000
     ff0:	00006fa8 	.word	0x00006fa8
     ff4:	200002f0 	.word	0x200002f0
     ff8:	200063a4 	.word	0x200063a4
     ffc:	20006424 	.word	0x20006424
    1000:	f001 fa04 	bl	240c <Chip_TIMER_Reset>
    1004:	2380      	movs	r3, #128	; 0x80
    1006:	4ab4      	ldr	r2, [pc, #720]	; (12d8 <main+0xfd8>)
    1008:	6066      	str	r6, [r4, #4]
    100a:	49b4      	ldr	r1, [pc, #720]	; (12dc <main+0xfdc>)
    100c:	48b4      	ldr	r0, [pc, #720]	; (12e0 <main+0xfe0>)
    100e:	f002 fdd9 	bl	3bc4 <arm_fir_f32>
    1012:	6065      	str	r5, [r4, #4]
    1014:	68a1      	ldr	r1, [r4, #8]
    1016:	48b3      	ldr	r0, [pc, #716]	; (12e4 <main+0xfe4>)
    1018:	1bc9      	subs	r1, r1, r7
    101a:	f003 fe9f 	bl	4d5c <printf>
    101e:	48b2      	ldr	r0, [pc, #712]	; (12e8 <main+0xfe8>)
    1020:	f003 fe9c 	bl	4d5c <printf>
    1024:	4620      	mov	r0, r4
    1026:	f001 f9f1 	bl	240c <Chip_TIMER_Reset>
    102a:	f44f 7380 	mov.w	r3, #256	; 0x100
    102e:	4aaa      	ldr	r2, [pc, #680]	; (12d8 <main+0xfd8>)
    1030:	6066      	str	r6, [r4, #4]
    1032:	49aa      	ldr	r1, [pc, #680]	; (12dc <main+0xfdc>)
    1034:	48aa      	ldr	r0, [pc, #680]	; (12e0 <main+0xfe0>)
    1036:	f002 fdc5 	bl	3bc4 <arm_fir_f32>
    103a:	6065      	str	r5, [r4, #4]
    103c:	68a1      	ldr	r1, [r4, #8]
    103e:	48a9      	ldr	r0, [pc, #676]	; (12e4 <main+0xfe4>)
    1040:	1bc9      	subs	r1, r1, r7
    1042:	f003 fe8b 	bl	4d5c <printf>
    1046:	48a8      	ldr	r0, [pc, #672]	; (12e8 <main+0xfe8>)
    1048:	f003 fe88 	bl	4d5c <printf>
    104c:	4620      	mov	r0, r4
    104e:	f001 f9dd 	bl	240c <Chip_TIMER_Reset>
    1052:	f44f 7300 	mov.w	r3, #512	; 0x200
    1056:	4aa0      	ldr	r2, [pc, #640]	; (12d8 <main+0xfd8>)
    1058:	6066      	str	r6, [r4, #4]
    105a:	49a0      	ldr	r1, [pc, #640]	; (12dc <main+0xfdc>)
    105c:	48a0      	ldr	r0, [pc, #640]	; (12e0 <main+0xfe0>)
    105e:	f002 fdb1 	bl	3bc4 <arm_fir_f32>
    1062:	6065      	str	r5, [r4, #4]
    1064:	68a1      	ldr	r1, [r4, #8]
    1066:	489f      	ldr	r0, [pc, #636]	; (12e4 <main+0xfe4>)
    1068:	1bc9      	subs	r1, r1, r7
    106a:	f003 fe77 	bl	4d5c <printf>
    106e:	489e      	ldr	r0, [pc, #632]	; (12e8 <main+0xfe8>)
    1070:	f003 fe74 	bl	4d5c <printf>
    1074:	4620      	mov	r0, r4
    1076:	f001 f9c9 	bl	240c <Chip_TIMER_Reset>
    107a:	f44f 6380 	mov.w	r3, #1024	; 0x400
    107e:	4a96      	ldr	r2, [pc, #600]	; (12d8 <main+0xfd8>)
    1080:	6066      	str	r6, [r4, #4]
    1082:	4996      	ldr	r1, [pc, #600]	; (12dc <main+0xfdc>)
    1084:	4896      	ldr	r0, [pc, #600]	; (12e0 <main+0xfe0>)
    1086:	f002 fd9d 	bl	3bc4 <arm_fir_f32>
    108a:	6065      	str	r5, [r4, #4]
    108c:	68a1      	ldr	r1, [r4, #8]
    108e:	4895      	ldr	r0, [pc, #596]	; (12e4 <main+0xfe4>)
    1090:	1bc9      	subs	r1, r1, r7
    1092:	f003 fe63 	bl	4d5c <printf>
    1096:	4894      	ldr	r0, [pc, #592]	; (12e8 <main+0xfe8>)
    1098:	f003 fe60 	bl	4d5c <printf>
    109c:	4620      	mov	r0, r4
    109e:	f001 f9b5 	bl	240c <Chip_TIMER_Reset>
    10a2:	4653      	mov	r3, sl
    10a4:	4a8c      	ldr	r2, [pc, #560]	; (12d8 <main+0xfd8>)
    10a6:	6066      	str	r6, [r4, #4]
    10a8:	498c      	ldr	r1, [pc, #560]	; (12dc <main+0xfdc>)
    10aa:	488d      	ldr	r0, [pc, #564]	; (12e0 <main+0xfe0>)
    10ac:	f002 fd8a 	bl	3bc4 <arm_fir_f32>
    10b0:	6065      	str	r5, [r4, #4]
    10b2:	68a1      	ldr	r1, [r4, #8]
    10b4:	488b      	ldr	r0, [pc, #556]	; (12e4 <main+0xfe4>)
    10b6:	1bc9      	subs	r1, r1, r7
    10b8:	f003 fe50 	bl	4d5c <printf>
    10bc:	488a      	ldr	r0, [pc, #552]	; (12e8 <main+0xfe8>)
    10be:	f003 fe4d 	bl	4d5c <printf>
    10c2:	488a      	ldr	r0, [pc, #552]	; (12ec <main+0xfec>)
    10c4:	f003 fe4a 	bl	4d5c <printf>
    10c8:	4889      	ldr	r0, [pc, #548]	; (12f0 <main+0xff0>)
    10ca:	f003 fe47 	bl	4d5c <printf>
    10ce:	4889      	ldr	r0, [pc, #548]	; (12f4 <main+0xff4>)
    10d0:	f003 fe44 	bl	4d5c <printf>
    10d4:	4b88      	ldr	r3, [pc, #544]	; (12f8 <main+0xff8>)
    10d6:	4a89      	ldr	r2, [pc, #548]	; (12fc <main+0xffc>)
    10d8:	f8cd a000 	str.w	sl, [sp]
    10dc:	2110      	movs	r1, #16
    10de:	4880      	ldr	r0, [pc, #512]	; (12e0 <main+0xfe0>)
    10e0:	f002 ff6c 	bl	3fbc <arm_fir_init_f32>
    10e4:	4620      	mov	r0, r4
    10e6:	f001 f991 	bl	240c <Chip_TIMER_Reset>
    10ea:	2310      	movs	r3, #16
    10ec:	4a7a      	ldr	r2, [pc, #488]	; (12d8 <main+0xfd8>)
    10ee:	6066      	str	r6, [r4, #4]
    10f0:	497a      	ldr	r1, [pc, #488]	; (12dc <main+0xfdc>)
    10f2:	487b      	ldr	r0, [pc, #492]	; (12e0 <main+0xfe0>)
    10f4:	f002 fd66 	bl	3bc4 <arm_fir_f32>
    10f8:	6065      	str	r5, [r4, #4]
    10fa:	68a1      	ldr	r1, [r4, #8]
    10fc:	4879      	ldr	r0, [pc, #484]	; (12e4 <main+0xfe4>)
    10fe:	1bc9      	subs	r1, r1, r7
    1100:	f003 fe2c 	bl	4d5c <printf>
    1104:	4878      	ldr	r0, [pc, #480]	; (12e8 <main+0xfe8>)
    1106:	f003 fe29 	bl	4d5c <printf>
    110a:	4620      	mov	r0, r4
    110c:	f001 f97e 	bl	240c <Chip_TIMER_Reset>
    1110:	465b      	mov	r3, fp
    1112:	4a71      	ldr	r2, [pc, #452]	; (12d8 <main+0xfd8>)
    1114:	6066      	str	r6, [r4, #4]
    1116:	4971      	ldr	r1, [pc, #452]	; (12dc <main+0xfdc>)
    1118:	4871      	ldr	r0, [pc, #452]	; (12e0 <main+0xfe0>)
    111a:	f002 fd53 	bl	3bc4 <arm_fir_f32>
    111e:	6065      	str	r5, [r4, #4]
    1120:	68a1      	ldr	r1, [r4, #8]
    1122:	4870      	ldr	r0, [pc, #448]	; (12e4 <main+0xfe4>)
    1124:	1bc9      	subs	r1, r1, r7
    1126:	f003 fe19 	bl	4d5c <printf>
    112a:	486f      	ldr	r0, [pc, #444]	; (12e8 <main+0xfe8>)
    112c:	f003 fe16 	bl	4d5c <printf>
    1130:	4620      	mov	r0, r4
    1132:	f001 f96b 	bl	240c <Chip_TIMER_Reset>
    1136:	2340      	movs	r3, #64	; 0x40
    1138:	4a67      	ldr	r2, [pc, #412]	; (12d8 <main+0xfd8>)
    113a:	6066      	str	r6, [r4, #4]
    113c:	4967      	ldr	r1, [pc, #412]	; (12dc <main+0xfdc>)
    113e:	4868      	ldr	r0, [pc, #416]	; (12e0 <main+0xfe0>)
    1140:	f002 fd40 	bl	3bc4 <arm_fir_f32>
    1144:	6065      	str	r5, [r4, #4]
    1146:	68a1      	ldr	r1, [r4, #8]
    1148:	4866      	ldr	r0, [pc, #408]	; (12e4 <main+0xfe4>)
    114a:	1bc9      	subs	r1, r1, r7
    114c:	f003 fe06 	bl	4d5c <printf>
    1150:	4865      	ldr	r0, [pc, #404]	; (12e8 <main+0xfe8>)
    1152:	f003 fe03 	bl	4d5c <printf>
    1156:	4620      	mov	r0, r4
    1158:	f001 f958 	bl	240c <Chip_TIMER_Reset>
    115c:	2380      	movs	r3, #128	; 0x80
    115e:	4a5e      	ldr	r2, [pc, #376]	; (12d8 <main+0xfd8>)
    1160:	6066      	str	r6, [r4, #4]
    1162:	495e      	ldr	r1, [pc, #376]	; (12dc <main+0xfdc>)
    1164:	485e      	ldr	r0, [pc, #376]	; (12e0 <main+0xfe0>)
    1166:	f002 fd2d 	bl	3bc4 <arm_fir_f32>
    116a:	6065      	str	r5, [r4, #4]
    116c:	68a1      	ldr	r1, [r4, #8]
    116e:	485d      	ldr	r0, [pc, #372]	; (12e4 <main+0xfe4>)
    1170:	1bc9      	subs	r1, r1, r7
    1172:	f003 fdf3 	bl	4d5c <printf>
    1176:	485c      	ldr	r0, [pc, #368]	; (12e8 <main+0xfe8>)
    1178:	f003 fdf0 	bl	4d5c <printf>
    117c:	4620      	mov	r0, r4
    117e:	f001 f945 	bl	240c <Chip_TIMER_Reset>
    1182:	f44f 7380 	mov.w	r3, #256	; 0x100
    1186:	4a54      	ldr	r2, [pc, #336]	; (12d8 <main+0xfd8>)
    1188:	6066      	str	r6, [r4, #4]
    118a:	4954      	ldr	r1, [pc, #336]	; (12dc <main+0xfdc>)
    118c:	4854      	ldr	r0, [pc, #336]	; (12e0 <main+0xfe0>)
    118e:	f002 fd19 	bl	3bc4 <arm_fir_f32>
    1192:	6065      	str	r5, [r4, #4]
    1194:	68a1      	ldr	r1, [r4, #8]
    1196:	4853      	ldr	r0, [pc, #332]	; (12e4 <main+0xfe4>)
    1198:	1bc9      	subs	r1, r1, r7
    119a:	f003 fddf 	bl	4d5c <printf>
    119e:	4852      	ldr	r0, [pc, #328]	; (12e8 <main+0xfe8>)
    11a0:	f003 fddc 	bl	4d5c <printf>
    11a4:	4620      	mov	r0, r4
    11a6:	f001 f931 	bl	240c <Chip_TIMER_Reset>
    11aa:	f44f 7300 	mov.w	r3, #512	; 0x200
    11ae:	4a4a      	ldr	r2, [pc, #296]	; (12d8 <main+0xfd8>)
    11b0:	6066      	str	r6, [r4, #4]
    11b2:	494a      	ldr	r1, [pc, #296]	; (12dc <main+0xfdc>)
    11b4:	484a      	ldr	r0, [pc, #296]	; (12e0 <main+0xfe0>)
    11b6:	f002 fd05 	bl	3bc4 <arm_fir_f32>
    11ba:	6065      	str	r5, [r4, #4]
    11bc:	68a1      	ldr	r1, [r4, #8]
    11be:	4849      	ldr	r0, [pc, #292]	; (12e4 <main+0xfe4>)
    11c0:	1bc9      	subs	r1, r1, r7
    11c2:	f003 fdcb 	bl	4d5c <printf>
    11c6:	4848      	ldr	r0, [pc, #288]	; (12e8 <main+0xfe8>)
    11c8:	f003 fdc8 	bl	4d5c <printf>
    11cc:	4620      	mov	r0, r4
    11ce:	f001 f91d 	bl	240c <Chip_TIMER_Reset>
    11d2:	f44f 6380 	mov.w	r3, #1024	; 0x400
    11d6:	4a40      	ldr	r2, [pc, #256]	; (12d8 <main+0xfd8>)
    11d8:	6066      	str	r6, [r4, #4]
    11da:	4940      	ldr	r1, [pc, #256]	; (12dc <main+0xfdc>)
    11dc:	4840      	ldr	r0, [pc, #256]	; (12e0 <main+0xfe0>)
    11de:	f002 fcf1 	bl	3bc4 <arm_fir_f32>
    11e2:	6065      	str	r5, [r4, #4]
    11e4:	68a1      	ldr	r1, [r4, #8]
    11e6:	483f      	ldr	r0, [pc, #252]	; (12e4 <main+0xfe4>)
    11e8:	1bc9      	subs	r1, r1, r7
    11ea:	f003 fdb7 	bl	4d5c <printf>
    11ee:	483e      	ldr	r0, [pc, #248]	; (12e8 <main+0xfe8>)
    11f0:	f003 fdb4 	bl	4d5c <printf>
    11f4:	4620      	mov	r0, r4
    11f6:	f001 f909 	bl	240c <Chip_TIMER_Reset>
    11fa:	4653      	mov	r3, sl
    11fc:	4a36      	ldr	r2, [pc, #216]	; (12d8 <main+0xfd8>)
    11fe:	6066      	str	r6, [r4, #4]
    1200:	4936      	ldr	r1, [pc, #216]	; (12dc <main+0xfdc>)
    1202:	4837      	ldr	r0, [pc, #220]	; (12e0 <main+0xfe0>)
    1204:	f002 fcde 	bl	3bc4 <arm_fir_f32>
    1208:	6065      	str	r5, [r4, #4]
    120a:	68a1      	ldr	r1, [r4, #8]
    120c:	4835      	ldr	r0, [pc, #212]	; (12e4 <main+0xfe4>)
    120e:	1bc9      	subs	r1, r1, r7
    1210:	f003 fda4 	bl	4d5c <printf>
    1214:	4834      	ldr	r0, [pc, #208]	; (12e8 <main+0xfe8>)
    1216:	f003 fda1 	bl	4d5c <printf>
    121a:	4834      	ldr	r0, [pc, #208]	; (12ec <main+0xfec>)
    121c:	f003 fd9e 	bl	4d5c <printf>
    1220:	4833      	ldr	r0, [pc, #204]	; (12f0 <main+0xff0>)
    1222:	f003 fd9b 	bl	4d5c <printf>
    1226:	4836      	ldr	r0, [pc, #216]	; (1300 <main+0x1000>)
    1228:	f003 fd98 	bl	4d5c <printf>
    122c:	4b32      	ldr	r3, [pc, #200]	; (12f8 <main+0xff8>)
    122e:	4a33      	ldr	r2, [pc, #204]	; (12fc <main+0xffc>)
    1230:	f8cd a000 	str.w	sl, [sp]
    1234:	4659      	mov	r1, fp
    1236:	482a      	ldr	r0, [pc, #168]	; (12e0 <main+0xfe0>)
    1238:	f002 fec0 	bl	3fbc <arm_fir_init_f32>
    123c:	4620      	mov	r0, r4
    123e:	f001 f8e5 	bl	240c <Chip_TIMER_Reset>
    1242:	2310      	movs	r3, #16
    1244:	4a24      	ldr	r2, [pc, #144]	; (12d8 <main+0xfd8>)
    1246:	6066      	str	r6, [r4, #4]
    1248:	4924      	ldr	r1, [pc, #144]	; (12dc <main+0xfdc>)
    124a:	4825      	ldr	r0, [pc, #148]	; (12e0 <main+0xfe0>)
    124c:	f002 fcba 	bl	3bc4 <arm_fir_f32>
    1250:	6065      	str	r5, [r4, #4]
    1252:	68a1      	ldr	r1, [r4, #8]
    1254:	4823      	ldr	r0, [pc, #140]	; (12e4 <main+0xfe4>)
    1256:	1bc9      	subs	r1, r1, r7
    1258:	f003 fd80 	bl	4d5c <printf>
    125c:	4822      	ldr	r0, [pc, #136]	; (12e8 <main+0xfe8>)
    125e:	f003 fd7d 	bl	4d5c <printf>
    1262:	4620      	mov	r0, r4
    1264:	f001 f8d2 	bl	240c <Chip_TIMER_Reset>
    1268:	465b      	mov	r3, fp
    126a:	4a1b      	ldr	r2, [pc, #108]	; (12d8 <main+0xfd8>)
    126c:	6066      	str	r6, [r4, #4]
    126e:	491b      	ldr	r1, [pc, #108]	; (12dc <main+0xfdc>)
    1270:	481b      	ldr	r0, [pc, #108]	; (12e0 <main+0xfe0>)
    1272:	f002 fca7 	bl	3bc4 <arm_fir_f32>
    1276:	6065      	str	r5, [r4, #4]
    1278:	68a1      	ldr	r1, [r4, #8]
    127a:	481a      	ldr	r0, [pc, #104]	; (12e4 <main+0xfe4>)
    127c:	1bc9      	subs	r1, r1, r7
    127e:	f003 fd6d 	bl	4d5c <printf>
    1282:	4819      	ldr	r0, [pc, #100]	; (12e8 <main+0xfe8>)
    1284:	f003 fd6a 	bl	4d5c <printf>
    1288:	4620      	mov	r0, r4
    128a:	f001 f8bf 	bl	240c <Chip_TIMER_Reset>
    128e:	2340      	movs	r3, #64	; 0x40
    1290:	4a11      	ldr	r2, [pc, #68]	; (12d8 <main+0xfd8>)
    1292:	6066      	str	r6, [r4, #4]
    1294:	4911      	ldr	r1, [pc, #68]	; (12dc <main+0xfdc>)
    1296:	4812      	ldr	r0, [pc, #72]	; (12e0 <main+0xfe0>)
    1298:	f002 fc94 	bl	3bc4 <arm_fir_f32>
    129c:	6065      	str	r5, [r4, #4]
    129e:	68a1      	ldr	r1, [r4, #8]
    12a0:	4810      	ldr	r0, [pc, #64]	; (12e4 <main+0xfe4>)
    12a2:	1bc9      	subs	r1, r1, r7
    12a4:	f003 fd5a 	bl	4d5c <printf>
    12a8:	480f      	ldr	r0, [pc, #60]	; (12e8 <main+0xfe8>)
    12aa:	f003 fd57 	bl	4d5c <printf>
    12ae:	4620      	mov	r0, r4
    12b0:	f001 f8ac 	bl	240c <Chip_TIMER_Reset>
    12b4:	2380      	movs	r3, #128	; 0x80
    12b6:	4a08      	ldr	r2, [pc, #32]	; (12d8 <main+0xfd8>)
    12b8:	6066      	str	r6, [r4, #4]
    12ba:	4641      	mov	r1, r8
    12bc:	4808      	ldr	r0, [pc, #32]	; (12e0 <main+0xfe0>)
    12be:	f002 fc81 	bl	3bc4 <arm_fir_f32>
    12c2:	6065      	str	r5, [r4, #4]
    12c4:	68a1      	ldr	r1, [r4, #8]
    12c6:	4807      	ldr	r0, [pc, #28]	; (12e4 <main+0xfe4>)
    12c8:	1bc9      	subs	r1, r1, r7
    12ca:	f003 fd47 	bl	4d5c <printf>
    12ce:	4806      	ldr	r0, [pc, #24]	; (12e8 <main+0xfe8>)
    12d0:	f003 fd44 	bl	4d5c <printf>
    12d4:	4620      	mov	r0, r4
    12d6:	e015      	b.n	1304 <main+0x1004>
    12d8:	200064b0 	.word	0x200064b0
    12dc:	200023a4 	.word	0x200023a4
    12e0:	20006424 	.word	0x20006424
    12e4:	00006f28 	.word	0x00006f28
    12e8:	00006f24 	.word	0x00006f24
    12ec:	00006fb8 	.word	0x00006fb8
    12f0:	00006ec0 	.word	0x00006ec0
    12f4:	00006fbc 	.word	0x00006fbc
    12f8:	200002f0 	.word	0x200002f0
    12fc:	200063a4 	.word	0x200063a4
    1300:	00006fcc 	.word	0x00006fcc
    1304:	f001 f882 	bl	240c <Chip_TIMER_Reset>
    1308:	f44f 7380 	mov.w	r3, #256	; 0x100
    130c:	4a54      	ldr	r2, [pc, #336]	; (1460 <main+0x1160>)
    130e:	6066      	str	r6, [r4, #4]
    1310:	4641      	mov	r1, r8
    1312:	4854      	ldr	r0, [pc, #336]	; (1464 <main+0x1164>)
    1314:	f002 fc56 	bl	3bc4 <arm_fir_f32>
    1318:	6065      	str	r5, [r4, #4]
    131a:	68a1      	ldr	r1, [r4, #8]
    131c:	4852      	ldr	r0, [pc, #328]	; (1468 <main+0x1168>)
    131e:	1bc9      	subs	r1, r1, r7
    1320:	f003 fd1c 	bl	4d5c <printf>
    1324:	4851      	ldr	r0, [pc, #324]	; (146c <main+0x116c>)
    1326:	f003 fd19 	bl	4d5c <printf>
    132a:	4620      	mov	r0, r4
    132c:	f001 f86e 	bl	240c <Chip_TIMER_Reset>
    1330:	f44f 7300 	mov.w	r3, #512	; 0x200
    1334:	4a4a      	ldr	r2, [pc, #296]	; (1460 <main+0x1160>)
    1336:	6066      	str	r6, [r4, #4]
    1338:	4641      	mov	r1, r8
    133a:	484a      	ldr	r0, [pc, #296]	; (1464 <main+0x1164>)
    133c:	f002 fc42 	bl	3bc4 <arm_fir_f32>
    1340:	6065      	str	r5, [r4, #4]
    1342:	68a1      	ldr	r1, [r4, #8]
    1344:	4848      	ldr	r0, [pc, #288]	; (1468 <main+0x1168>)
    1346:	1bc9      	subs	r1, r1, r7
    1348:	f003 fd08 	bl	4d5c <printf>
    134c:	4847      	ldr	r0, [pc, #284]	; (146c <main+0x116c>)
    134e:	f003 fd05 	bl	4d5c <printf>
    1352:	4620      	mov	r0, r4
    1354:	f001 f85a 	bl	240c <Chip_TIMER_Reset>
    1358:	f44f 6380 	mov.w	r3, #1024	; 0x400
    135c:	4a40      	ldr	r2, [pc, #256]	; (1460 <main+0x1160>)
    135e:	6066      	str	r6, [r4, #4]
    1360:	4641      	mov	r1, r8
    1362:	4840      	ldr	r0, [pc, #256]	; (1464 <main+0x1164>)
    1364:	f002 fc2e 	bl	3bc4 <arm_fir_f32>
    1368:	6065      	str	r5, [r4, #4]
    136a:	68a1      	ldr	r1, [r4, #8]
    136c:	483e      	ldr	r0, [pc, #248]	; (1468 <main+0x1168>)
    136e:	1bc9      	subs	r1, r1, r7
    1370:	f003 fcf4 	bl	4d5c <printf>
    1374:	483d      	ldr	r0, [pc, #244]	; (146c <main+0x116c>)
    1376:	f003 fcf1 	bl	4d5c <printf>
    137a:	4620      	mov	r0, r4
    137c:	f001 f846 	bl	240c <Chip_TIMER_Reset>
    1380:	f44f 6300 	mov.w	r3, #2048	; 0x800
    1384:	4a36      	ldr	r2, [pc, #216]	; (1460 <main+0x1160>)
    1386:	6066      	str	r6, [r4, #4]
    1388:	4641      	mov	r1, r8
    138a:	4836      	ldr	r0, [pc, #216]	; (1464 <main+0x1164>)
    138c:	f002 fc1a 	bl	3bc4 <arm_fir_f32>
    1390:	6065      	str	r5, [r4, #4]
    1392:	68a1      	ldr	r1, [r4, #8]
    1394:	4834      	ldr	r0, [pc, #208]	; (1468 <main+0x1168>)
    1396:	1bc9      	subs	r1, r1, r7
    1398:	f003 fce0 	bl	4d5c <printf>
    139c:	4833      	ldr	r0, [pc, #204]	; (146c <main+0x116c>)
    139e:	f003 fcdd 	bl	4d5c <printf>
    13a2:	4833      	ldr	r0, [pc, #204]	; (1470 <main+0x1170>)
    13a4:	f003 fcda 	bl	4d5c <printf>
    13a8:	4832      	ldr	r0, [pc, #200]	; (1474 <main+0x1174>)
    13aa:	f003 fcd7 	bl	4d5c <printf>
    13ae:	4832      	ldr	r0, [pc, #200]	; (1478 <main+0x1178>)
    13b0:	f003 fcd4 	bl	4d5c <printf>
    13b4:	4831      	ldr	r0, [pc, #196]	; (147c <main+0x117c>)
    13b6:	f003 fcd1 	bl	4d5c <printf>
    13ba:	4831      	ldr	r0, [pc, #196]	; (1480 <main+0x1180>)
    13bc:	f003 fcce 	bl	4d5c <printf>
    13c0:	4a30      	ldr	r2, [pc, #192]	; (1484 <main+0x1184>)
    13c2:	4b31      	ldr	r3, [pc, #196]	; (1488 <main+0x1188>)
    13c4:	f8c9 201c 	str.w	r2, [r9, #28]
    13c8:	4648      	mov	r0, r9
    13ca:	f04f 527c 	mov.w	r2, #1056964608	; 0x3f000000
    13ce:	4631      	mov	r1, r6
    13d0:	f8c9 2018 	str.w	r2, [r9, #24]
    13d4:	f8c9 3020 	str.w	r3, [r9, #32]
    13d8:	f002 fe02 	bl	3fe0 <arm_pid_init_f32>
    13dc:	46a2      	mov	sl, r4
    13de:	eb08 040b 	add.w	r4, r8, fp
    13e2:	482a      	ldr	r0, [pc, #168]	; (148c <main+0x118c>)
    13e4:	f001 f812 	bl	240c <Chip_TIMER_Reset>
    13e8:	edd9 6a03 	vldr	s13, [r9, #12]
    13ec:	ed99 7a01 	vldr	s14, [r9, #4]
    13f0:	ecb8 6a01 	vldmia	r8!, {s12}
    13f4:	edd9 4a00 	vldr	s9, [r9]
    13f8:	edd9 5a04 	vldr	s11, [r9, #16]
    13fc:	ed99 5a02 	vldr	s10, [r9, #8]
    1400:	edd9 7a05 	vldr	s15, [r9, #20]
    1404:	4818      	ldr	r0, [pc, #96]	; (1468 <main+0x1168>)
    1406:	ee26 7a87 	vmul.f32	s14, s13, s14
    140a:	2301      	movs	r3, #1
    140c:	eea6 7a24 	vfma.f32	s14, s12, s9
    1410:	f8ca 3004 	str.w	r3, [sl, #4]
    1414:	2300      	movs	r3, #0
    1416:	ed89 6a03 	vstr	s12, [r9, #12]
    141a:	eea5 7a25 	vfma.f32	s14, s10, s11
    141e:	edc9 6a04 	vstr	s13, [r9, #16]
    1422:	ee77 7a27 	vadd.f32	s15, s14, s15
    1426:	edcd 7a03 	vstr	s15, [sp, #12]
    142a:	f8ca 3004 	str.w	r3, [sl, #4]
    142e:	f8da 1008 	ldr.w	r1, [sl, #8]
    1432:	edc9 7a05 	vstr	s15, [r9, #20]
    1436:	1bc9      	subs	r1, r1, r7
    1438:	f003 fc90 	bl	4d5c <printf>
    143c:	480b      	ldr	r0, [pc, #44]	; (146c <main+0x116c>)
    143e:	f003 fc8d 	bl	4d5c <printf>
    1442:	eddd 7a03 	vldr	s15, [sp, #12]
    1446:	ee77 7aa7 	vadd.f32	s15, s15, s15
    144a:	4544      	cmp	r4, r8
    144c:	edcd 7a03 	vstr	s15, [sp, #12]
    1450:	d1c7      	bne.n	13e2 <main+0x10e2>
    1452:	480a      	ldr	r0, [pc, #40]	; (147c <main+0x117c>)
    1454:	f003 fc82 	bl	4d5c <printf>
    1458:	4808      	ldr	r0, [pc, #32]	; (147c <main+0x117c>)
    145a:	f003 fc7f 	bl	4d5c <printf>
    145e:	e7fe      	b.n	145e <main+0x115e>
    1460:	200064b0 	.word	0x200064b0
    1464:	20006424 	.word	0x20006424
    1468:	00006f28 	.word	0x00006f28
    146c:	00006f24 	.word	0x00006f24
    1470:	00006fb8 	.word	0x00006fb8
    1474:	00006fdc 	.word	0x00006fdc
    1478:	00006ff8 	.word	0x00006ff8
    147c:	00006ec0 	.word	0x00006ec0
    1480:	00007014 	.word	0x00007014
    1484:	3dcccccd 	.word	0x3dcccccd
    1488:	3d4ccccd 	.word	0x3d4ccccd
    148c:	40008000 	.word	0x40008000

00001490 <InitGoertzel_f32>:
    1490:	ee80 0a20 	vdiv.f32	s0, s0, s1
    1494:	b538      	push	{r3, r4, r5, lr}
    1496:	4604      	mov	r4, r0
    1498:	460d      	mov	r5, r1
    149a:	ed2d 8b02 	vpush	{d8}
    149e:	ee30 8a00 	vadd.f32	s16, s0, s0
    14a2:	eef0 8a60 	vmov.f32	s17, s1
    14a6:	eeb0 0a48 	vmov.f32	s0, s16
    14aa:	f002 ff07 	bl	42bc <cosf>
    14ae:	ed84 0a00 	vstr	s0, [r4]
    14b2:	eeb0 0a48 	vmov.f32	s0, s16
    14b6:	f002 ff19 	bl	42ec <sinf>
    14ba:	edc4 8a03 	vstr	s17, [r4, #12]
    14be:	ecbd 8b02 	vpop	{d8}
    14c2:	eeb1 0a40 	vneg.f32	s0, s0
    14c6:	ed84 0a01 	vstr	s0, [r4, #4]
    14ca:	60a5      	str	r5, [r4, #8]
    14cc:	bd38      	pop	{r3, r4, r5, pc}
    14ce:	bf00      	nop

000014d0 <ProcessGoertzel_f32_Power>:
    14d0:	6883      	ldr	r3, [r0, #8]
    14d2:	b30b      	cbz	r3, 1518 <ProcessGoertzel_f32_Power+0x48>
    14d4:	edd0 5a00 	vldr	s11, [r0]
    14d8:	eddf 6a13 	vldr	s13, [pc, #76]	; 1528 <ProcessGoertzel_f32_Power+0x58>
    14dc:	eb01 0383 	add.w	r3, r1, r3, lsl #2
    14e0:	ee35 6aa5 	vadd.f32	s12, s11, s11
    14e4:	eeb0 7a66 	vmov.f32	s14, s13
    14e8:	e001      	b.n	14ee <ProcessGoertzel_f32_Power+0x1e>
    14ea:	eeb0 7a67 	vmov.f32	s14, s15
    14ee:	ecf1 7a01 	vldmia	r1!, {s15}
    14f2:	eee7 7a06 	vfma.f32	s15, s14, s12
    14f6:	428b      	cmp	r3, r1
    14f8:	ee77 7ae6 	vsub.f32	s15, s15, s13
    14fc:	eef0 6a47 	vmov.f32	s13, s14
    1500:	d1f3      	bne.n	14ea <ProcessGoertzel_f32_Power+0x1a>
    1502:	ed90 0a01 	vldr	s0, [r0, #4]
    1506:	ee97 7aa5 	vfnms.f32	s14, s15, s11
    150a:	ee67 7a80 	vmul.f32	s15, s15, s0
    150e:	ee27 0aa7 	vmul.f32	s0, s15, s15
    1512:	eea7 0a07 	vfma.f32	s0, s14, s14
    1516:	4770      	bx	lr
    1518:	ed9f 7a03 	vldr	s14, [pc, #12]	; 1528 <ProcessGoertzel_f32_Power+0x58>
    151c:	edd0 5a00 	vldr	s11, [r0]
    1520:	eef0 7a47 	vmov.f32	s15, s14
    1524:	e7ed      	b.n	1502 <ProcessGoertzel_f32_Power+0x32>
    1526:	bf00      	nop
    1528:	00000000 	.word	0x00000000

0000152c <SystemInit>:
    152c:	b508      	push	{r3, lr}
    152e:	4b04      	ldr	r3, [pc, #16]	; (1540 <SystemInit+0x14>)
    1530:	4a04      	ldr	r2, [pc, #16]	; (1544 <SystemInit+0x18>)
    1532:	609a      	str	r2, [r3, #8]
    1534:	f000 fb90 	bl	1c58 <fpuInit>
    1538:	e8bd 4008 	ldmia.w	sp!, {r3, lr}
    153c:	f000 b95a 	b.w	17f4 <Board_SystemInit>
    1540:	e000ed00 	.word	0xe000ed00
    1544:	00000000 	.word	0x00000000

00001548 <Board_LED_Init>:
    1548:	b4f0      	push	{r4, r5, r6, r7}
    154a:	2200      	movs	r2, #0
    154c:	e014      	b.n	1578 <Board_LED_Init+0x30>
    154e:	490c      	ldr	r1, [pc, #48]	; (1580 <Board_LED_Init+0x38>)
    1550:	f811 5012 	ldrb.w	r5, [r1, r2, lsl #1]
    1554:	eb01 0142 	add.w	r1, r1, r2, lsl #1
    1558:	7848      	ldrb	r0, [r1, #1]
    155a:	4b0a      	ldr	r3, [pc, #40]	; (1584 <Board_LED_Init+0x3c>)
    155c:	f505 6600 	add.w	r6, r5, #2048	; 0x800
    1560:	f853 7026 	ldr.w	r7, [r3, r6, lsl #2]
    1564:	2401      	movs	r4, #1
    1566:	fa04 f100 	lsl.w	r1, r4, r0
    156a:	4339      	orrs	r1, r7
    156c:	f843 1026 	str.w	r1, [r3, r6, lsl #2]
    1570:	eb03 1345 	add.w	r3, r3, r5, lsl #5
    1574:	541c      	strb	r4, [r3, r0]
    1576:	4422      	add	r2, r4
    1578:	2a02      	cmp	r2, #2
    157a:	d9e8      	bls.n	154e <Board_LED_Init+0x6>
    157c:	bcf0      	pop	{r4, r5, r6, r7}
    157e:	4770      	bx	lr
    1580:	00007030 	.word	0x00007030
    1584:	4008c000 	.word	0x4008c000

00001588 <Board_TestIO_Init>:
    1588:	b470      	push	{r4, r5, r6}
    158a:	2300      	movs	r3, #0
    158c:	e014      	b.n	15b8 <Board_TestIO_Init+0x30>
    158e:	490c      	ldr	r1, [pc, #48]	; (15c0 <Board_TestIO_Init+0x38>)
    1590:	f811 4013 	ldrb.w	r4, [r1, r3, lsl #1]
    1594:	eb01 0143 	add.w	r1, r1, r3, lsl #1
    1598:	7848      	ldrb	r0, [r1, #1]
    159a:	4a0a      	ldr	r2, [pc, #40]	; (15c4 <Board_TestIO_Init+0x3c>)
    159c:	f504 6500 	add.w	r5, r4, #2048	; 0x800
    15a0:	f852 6025 	ldr.w	r6, [r2, r5, lsl #2]
    15a4:	2101      	movs	r1, #1
    15a6:	4081      	lsls	r1, r0
    15a8:	4331      	orrs	r1, r6
    15aa:	f842 1025 	str.w	r1, [r2, r5, lsl #2]
    15ae:	eb02 1244 	add.w	r2, r2, r4, lsl #5
    15b2:	2100      	movs	r1, #0
    15b4:	5411      	strb	r1, [r2, r0]
    15b6:	3301      	adds	r3, #1
    15b8:	2b01      	cmp	r3, #1
    15ba:	d9e8      	bls.n	158e <Board_TestIO_Init+0x6>
    15bc:	bc70      	pop	{r4, r5, r6}
    15be:	4770      	bx	lr
    15c0:	00007024 	.word	0x00007024
    15c4:	4008c000 	.word	0x4008c000

000015c8 <Board_Button_Init>:
    15c8:	b430      	push	{r4, r5}
    15ca:	2300      	movs	r3, #0
    15cc:	e011      	b.n	15f2 <Board_Button_Init+0x2a>
    15ce:	490b      	ldr	r1, [pc, #44]	; (15fc <Board_Button_Init+0x34>)
    15d0:	f811 2013 	ldrb.w	r2, [r1, r3, lsl #1]
    15d4:	eb01 0143 	add.w	r1, r1, r3, lsl #1
    15d8:	784d      	ldrb	r5, [r1, #1]
    15da:	4c09      	ldr	r4, [pc, #36]	; (1600 <Board_Button_Init+0x38>)
    15dc:	f502 6200 	add.w	r2, r2, #2048	; 0x800
    15e0:	f854 0022 	ldr.w	r0, [r4, r2, lsl #2]
    15e4:	2101      	movs	r1, #1
    15e6:	40a9      	lsls	r1, r5
    15e8:	ea20 0101 	bic.w	r1, r0, r1
    15ec:	f844 1022 	str.w	r1, [r4, r2, lsl #2]
    15f0:	3301      	adds	r3, #1
    15f2:	2b02      	cmp	r3, #2
    15f4:	d9eb      	bls.n	15ce <Board_Button_Init+0x6>
    15f6:	bc30      	pop	{r4, r5}
    15f8:	4770      	bx	lr
    15fa:	bf00      	nop
    15fc:	00007028 	.word	0x00007028
    1600:	4008c000 	.word	0x4008c000

00001604 <Board_UART_Init>:
    1604:	b510      	push	{r4, lr}
    1606:	4c0c      	ldr	r4, [pc, #48]	; (1638 <Board_UART_Init+0x34>)
    1608:	4620      	mov	r0, r4
    160a:	f001 f915 	bl	2838 <Chip_UART_Init>
    160e:	f44f 31e1 	mov.w	r1, #115200	; 0x1c200
    1612:	4620      	mov	r0, r4
    1614:	f001 f98c 	bl	2930 <Chip_UART_SetBaud>
    1618:	6822      	ldr	r2, [r4, #0]
    161a:	4b08      	ldr	r3, [pc, #32]	; (163c <Board_UART_Init+0x38>)
    161c:	4013      	ands	r3, r2
    161e:	f043 0304 	orr.w	r3, r3, #4
    1622:	6023      	str	r3, [r4, #0]
    1624:	6823      	ldr	r3, [r4, #0]
    1626:	f043 0301 	orr.w	r3, r3, #1
    162a:	6023      	str	r3, [r4, #0]
    162c:	6863      	ldr	r3, [r4, #4]
    162e:	f023 0340 	bic.w	r3, r3, #64	; 0x40
    1632:	6063      	str	r3, [r4, #4]
    1634:	bd10      	pop	{r4, pc}
    1636:	bf00      	nop
    1638:	40086000 	.word	0x40086000
    163c:	00fddbfd 	.word	0x00fddbfd

00001640 <Board_LED_Set>:
    1640:	2802      	cmp	r0, #2
    1642:	d80d      	bhi.n	1660 <Board_LED_Set+0x20>
    1644:	4a07      	ldr	r2, [pc, #28]	; (1664 <Board_LED_Set+0x24>)
    1646:	f812 3010 	ldrb.w	r3, [r2, r0, lsl #1]
    164a:	eb02 0040 	add.w	r0, r2, r0, lsl #1
    164e:	7842      	ldrb	r2, [r0, #1]
    1650:	f081 0101 	eor.w	r1, r1, #1
    1654:	015b      	lsls	r3, r3, #5
    1656:	f103 4380 	add.w	r3, r3, #1073741824	; 0x40000000
    165a:	f503 230c 	add.w	r3, r3, #573440	; 0x8c000
    165e:	5499      	strb	r1, [r3, r2]
    1660:	4770      	bx	lr
    1662:	bf00      	nop
    1664:	00007030 	.word	0x00007030

00001668 <Board_UARTPutChar>:
    1668:	b500      	push	{lr}
    166a:	b083      	sub	sp, #12
    166c:	a902      	add	r1, sp, #8
    166e:	f801 0d01 	strb.w	r0, [r1, #-1]!
    1672:	2201      	movs	r2, #1
    1674:	4802      	ldr	r0, [pc, #8]	; (1680 <Board_UARTPutChar+0x18>)
    1676:	f001 f921 	bl	28bc <Chip_UART_SendBlocking>
    167a:	b003      	add	sp, #12
    167c:	f85d fb04 	ldr.w	pc, [sp], #4
    1680:	40086000 	.word	0x40086000

00001684 <__sys_write>:
    1684:	b570      	push	{r4, r5, r6, lr}
    1686:	460e      	mov	r6, r1
    1688:	4615      	mov	r5, r2
    168a:	2400      	movs	r4, #0
    168c:	e003      	b.n	1696 <__sys_write+0x12>
    168e:	5d30      	ldrb	r0, [r6, r4]
    1690:	f7ff ffea 	bl	1668 <Board_UARTPutChar>
    1694:	3401      	adds	r4, #1
    1696:	42ac      	cmp	r4, r5
    1698:	d3f9      	bcc.n	168e <__sys_write+0xa>
    169a:	4628      	mov	r0, r5
    169c:	bd70      	pop	{r4, r5, r6, pc}
    169e:	bf00      	nop

000016a0 <Board_Debug_Init>:
    16a0:	b508      	push	{r3, lr}
    16a2:	f7ff ffaf 	bl	1604 <Board_UART_Init>
    16a6:	bd08      	pop	{r3, pc}

000016a8 <Board_Init>:
    16a8:	b508      	push	{r3, lr}
    16aa:	200b      	movs	r0, #11
    16ac:	f000 fa18 	bl	1ae0 <Chip_Clock_EnablePeriphClock>
    16b0:	200d      	movs	r0, #13
    16b2:	f000 fa15 	bl	1ae0 <Chip_Clock_EnablePeriphClock>
    16b6:	f7ff fff3 	bl	16a0 <Board_Debug_Init>
    16ba:	200e      	movs	r0, #14
    16bc:	f000 fa10 	bl	1ae0 <Chip_Clock_EnablePeriphClock>
    16c0:	200f      	movs	r0, #15
    16c2:	f000 fa0d 	bl	1ae0 <Chip_Clock_EnablePeriphClock>
    16c6:	f04f 4380 	mov.w	r3, #1073741824	; 0x40000000
    16ca:	f44f 4280 	mov.w	r2, #16384	; 0x4000
    16ce:	f8c3 2120 	str.w	r2, [r3, #288]	; 0x120
    16d2:	bf00      	nop
    16d4:	bf00      	nop
    16d6:	bf00      	nop
    16d8:	bf00      	nop
    16da:	f8c3 2140 	str.w	r2, [r3, #320]	; 0x140
    16de:	f44f 4200 	mov.w	r2, #32768	; 0x8000
    16e2:	f8c3 2120 	str.w	r2, [r3, #288]	; 0x120
    16e6:	bf00      	nop
    16e8:	bf00      	nop
    16ea:	bf00      	nop
    16ec:	bf00      	nop
    16ee:	f8c3 2140 	str.w	r2, [r3, #320]	; 0x140
    16f2:	f7ff ff29 	bl	1548 <Board_LED_Init>
    16f6:	f7ff ff47 	bl	1588 <Board_TestIO_Init>
    16fa:	f7ff ff65 	bl	15c8 <Board_Button_Init>
    16fe:	bd08      	pop	{r3, pc}

00001700 <ConfigureBridgeSSEL>:
    1700:	b410      	push	{r4}
    1702:	b083      	sub	sp, #12
    1704:	2300      	movs	r3, #0
    1706:	f88d 3004 	strb.w	r3, [sp, #4]
    170a:	220e      	movs	r2, #14
    170c:	f88d 2005 	strb.w	r2, [sp, #5]
    1710:	2280      	movs	r2, #128	; 0x80
    1712:	f8ad 2006 	strh.w	r2, [sp, #6]
    1716:	e00c      	b.n	1732 <ConfigureBridgeSSEL+0x32>
    1718:	aa01      	add	r2, sp, #4
    171a:	eb02 0183 	add.w	r1, r2, r3, lsl #2
    171e:	f812 4023 	ldrb.w	r4, [r2, r3, lsl #2]
    1722:	784a      	ldrb	r2, [r1, #1]
    1724:	8848      	ldrh	r0, [r1, #2]
    1726:	eb02 1244 	add.w	r2, r2, r4, lsl #5
    172a:	4918      	ldr	r1, [pc, #96]	; (178c <ConfigureBridgeSSEL+0x8c>)
    172c:	f841 0022 	str.w	r0, [r1, r2, lsl #2]
    1730:	3301      	adds	r3, #1
    1732:	2b00      	cmp	r3, #0
    1734:	d0f0      	beq.n	1718 <ConfigureBridgeSSEL+0x18>
    1736:	4a16      	ldr	r2, [pc, #88]	; (1790 <ConfigureBridgeSSEL+0x90>)
    1738:	f502 5300 	add.w	r3, r2, #8192	; 0x2000
    173c:	6819      	ldr	r1, [r3, #0]
    173e:	f441 4180 	orr.w	r1, r1, #16384	; 0x4000
    1742:	6019      	str	r1, [r3, #0]
    1744:	2100      	movs	r1, #0
    1746:	7391      	strb	r1, [r2, #14]
    1748:	6819      	ldr	r1, [r3, #0]
    174a:	f421 4180 	bic.w	r1, r1, #16384	; 0x4000
    174e:	6019      	str	r1, [r3, #0]
    1750:	7b93      	ldrb	r3, [r2, #14]
    1752:	f013 0fff 	tst.w	r3, #255	; 0xff
    1756:	d101      	bne.n	175c <ConfigureBridgeSSEL+0x5c>
    1758:	2389      	movs	r3, #137	; 0x89
    175a:	e000      	b.n	175e <ConfigureBridgeSSEL+0x5e>
    175c:	2381      	movs	r3, #129	; 0x81
    175e:	f8ad 3006 	strh.w	r3, [sp, #6]
    1762:	2300      	movs	r3, #0
    1764:	e00c      	b.n	1780 <ConfigureBridgeSSEL+0x80>
    1766:	aa01      	add	r2, sp, #4
    1768:	eb02 0183 	add.w	r1, r2, r3, lsl #2
    176c:	f812 4023 	ldrb.w	r4, [r2, r3, lsl #2]
    1770:	784a      	ldrb	r2, [r1, #1]
    1772:	8848      	ldrh	r0, [r1, #2]
    1774:	eb02 1244 	add.w	r2, r2, r4, lsl #5
    1778:	4904      	ldr	r1, [pc, #16]	; (178c <ConfigureBridgeSSEL+0x8c>)
    177a:	f841 0022 	str.w	r0, [r1, r2, lsl #2]
    177e:	3301      	adds	r3, #1
    1780:	2b00      	cmp	r3, #0
    1782:	d0f0      	beq.n	1766 <ConfigureBridgeSSEL+0x66>
    1784:	b003      	add	sp, #12
    1786:	f85d 4b04 	ldr.w	r4, [sp], #4
    178a:	4770      	bx	lr
    178c:	40001000 	.word	0x40001000
    1790:	4008c000 	.word	0x4008c000

00001794 <Board_SetupMuxing>:
    1794:	b510      	push	{r4, lr}
    1796:	200d      	movs	r0, #13
    1798:	f000 f9a2 	bl	1ae0 <Chip_Clock_EnablePeriphClock>
    179c:	2300      	movs	r3, #0
    179e:	e00c      	b.n	17ba <Board_SetupMuxing+0x26>
    17a0:	4a08      	ldr	r2, [pc, #32]	; (17c4 <Board_SetupMuxing+0x30>)
    17a2:	eb02 0183 	add.w	r1, r2, r3, lsl #2
    17a6:	f812 4023 	ldrb.w	r4, [r2, r3, lsl #2]
    17aa:	784a      	ldrb	r2, [r1, #1]
    17ac:	8848      	ldrh	r0, [r1, #2]
    17ae:	eb02 1244 	add.w	r2, r2, r4, lsl #5
    17b2:	4905      	ldr	r1, [pc, #20]	; (17c8 <Board_SetupMuxing+0x34>)
    17b4:	f841 0022 	str.w	r0, [r1, r2, lsl #2]
    17b8:	3301      	adds	r3, #1
    17ba:	2b0b      	cmp	r3, #11
    17bc:	d9f0      	bls.n	17a0 <Board_SetupMuxing+0xc>
    17be:	f7ff ff9f 	bl	1700 <ConfigureBridgeSSEL>
    17c2:	bd10      	pop	{r4, pc}
    17c4:	00007038 	.word	0x00007038
    17c8:	40001000 	.word	0x40001000

000017cc <Board_SetupClocking>:
    17cc:	b510      	push	{r4, lr}
    17ce:	4c08      	ldr	r4, [pc, #32]	; (17f0 <Board_SetupClocking+0x24>)
    17d0:	4620      	mov	r0, r4
    17d2:	f000 f845 	bl	1860 <Chip_POWER_SetVoltage>
    17d6:	4620      	mov	r0, r4
    17d8:	f000 fde2 	bl	23a0 <Chip_SetupFROClocking>
    17dc:	f04f 4380 	mov.w	r3, #1073741824	; 0x40000000
    17e0:	2200      	movs	r2, #0
    17e2:	f8c3 2380 	str.w	r2, [r3, #896]	; 0x380
    17e6:	f8c3 2288 	str.w	r2, [r3, #648]	; 0x288
    17ea:	f8c3 2384 	str.w	r2, [r3, #900]	; 0x384
    17ee:	bd10      	pop	{r4, pc}
    17f0:	02dc6c00 	.word	0x02dc6c00

000017f4 <Board_SystemInit>:
    17f4:	b508      	push	{r3, lr}
    17f6:	f44f 4060 	mov.w	r0, #57344	; 0xe000
    17fa:	f000 fcef 	bl	21dc <Chip_SYSCON_PowerUp>
    17fe:	2003      	movs	r0, #3
    1800:	f000 f96e 	bl	1ae0 <Chip_Clock_EnablePeriphClock>
    1804:	2004      	movs	r0, #4
    1806:	f000 f96b 	bl	1ae0 <Chip_Clock_EnablePeriphClock>
    180a:	f7ff ffc3 	bl	1794 <Board_SetupMuxing>
    180e:	f7ff ffdd 	bl	17cc <Board_SetupClocking>
    1812:	bd08      	pop	{r3, pc}

00001814 <Chip_POWER_SetFROHFRate>:
    1814:	42984b0e 	.word	0x42984b0e
    1818:	4b0ed108 	.word	0x4b0ed108
    181c:	f023681b 	.word	0xf023681b
    1820:	f423437c 	.word	0xf423437c
    1824:	f0434340 	.word	0xf0434340
    1828:	e00c4340 	.word	0xe00c4340
    182c:	42984b0a 	.word	0x42984b0a
    1830:	4b0ad10d 	.word	0x4b0ad10d
    1834:	f023681b 	.word	0xf023681b
    1838:	f423437c 	.word	0xf423437c
    183c:	f0434340 	.word	0xf0434340
    1840:	f4434340 	.word	0xf4434340
    1844:	f04f4380 	.word	0xf04f4380
    1848:	f8c24280 	.word	0xf8c24280
    184c:	47703500 	.word	0x47703500
    1850:	02dc6c00 	.word	0x02dc6c00
    1854:	01000444 	.word	0x01000444
    1858:	05b8d800 	.word	0x05b8d800
    185c:	01000430 	.word	0x01000430

00001860 <Chip_POWER_SetVoltage>:
    1860:	42984b33 	.word	0x42984b33
    1864:	d860b570 	.word	0xd860b570
    1868:	4380f04f 	.word	0x4380f04f
    186c:	f8c34a31 	.word	0xf8c34a31
    1870:	f8d32630 	.word	0xf8d32630
    1874:	4b305400 	.word	0x4b305400
    1878:	f4254298 	.word	0xf4254298
    187c:	d9224570 	.word	0xd9224570
    1880:	42984b2e 	.word	0x42984b2e
    1884:	f503d921 	.word	0xf503d921
    1888:	f5030337 	.word	0xf5030337
    188c:	429853d8 	.word	0x429853d8
    1890:	4b2bd91d 	.word	0x4b2bd91d
    1894:	d91c4298 	.word	0xd91c4298
    1898:	42984b2a 	.word	0x42984b2a
    189c:	f503d91b 	.word	0xf503d91b
    18a0:	f5030337 	.word	0xf5030337
    18a4:	429853d8 	.word	0x429853d8
    18a8:	f503d917 	.word	0xf503d917
    18ac:	f5030337 	.word	0xf5030337
    18b0:	429853d8 	.word	0x429853d8
    18b4:	4b24d913 	.word	0x4b24d913
    18b8:	4c254a24 	.word	0x4c254a24
    18bc:	bf9442a0 	.word	0xbf9442a0
    18c0:	461c4614 	.word	0x461c4614
    18c4:	4c23e00c 	.word	0x4c23e00c
    18c8:	4c23e00a 	.word	0x4c23e00a
    18cc:	4c23e008 	.word	0x4c23e008
    18d0:	4c23e006 	.word	0x4c23e006
    18d4:	4c23e004 	.word	0x4c23e004
    18d8:	4c23e002 	.word	0x4c23e002
    18dc:	4c23e000 	.word	0x4c23e000
    18e0:	68334e23 	.word	0x68334e23
    18e4:	f004689b 	.word	0xf004689b
    18e8:	691b010f 	.word	0x691b010f
    18ec:	47982000 	.word	0x47982000
    18f0:	689b6833 	.word	0x689b6833
    18f4:	691b2001 	.word	0x691b2001
    18f8:	4798210b 	.word	0x4798210b
    18fc:	689b6833 	.word	0x689b6833
    1900:	3103f3c4 	.word	0x3103f3c4
    1904:	2002691b 	.word	0x2002691b
    1908:	68334798 	.word	0x68334798
    190c:	f3c4689b 	.word	0xf3c4689b
    1910:	691b4183 	.word	0x691b4183
    1914:	47982003 	.word	0x47982003
    1918:	f04f0e24 	.word	0xf04f0e24
    191c:	ea454380 	.word	0xea454380
    1920:	f8c33404 	.word	0xf8c33404
    1924:	20004400 	.word	0x20004400
    1928:	4812bd70 	.word	0x4812bd70
    192c:	bf00bd70 	.word	0xbf00bd70
    1930:	05f5e4e7 	.word	0x05f5e4e7
    1934:	38000004 	.word	0x38000004
    1938:	00b71b00 	.word	0x00b71b00
    193c:	016e3600 	.word	0x016e3600
    1940:	02dc6c00 	.word	0x02dc6c00
    1944:	03938700 	.word	0x03938700
    1948:	0534d2cd 	.word	0x0534d2cd
    194c:	0530c2cc 	.word	0x0530c2cc
    1950:	05b8d800 	.word	0x05b8d800
    1954:	0018b2c6 	.word	0x0018b2c6
    1958:	011cb2c7 	.word	0x011cb2c7
    195c:	0220b2c8 	.word	0x0220b2c8
    1960:	0224b2c9 	.word	0x0224b2c9
    1964:	0328b2ca 	.word	0x0328b2ca
    1968:	032cb2cb 	.word	0x032cb2cb
    196c:	042cb2cb 	.word	0x042cb2cb
    1970:	03000200 	.word	0x03000200
    1974:	000b0002 	.word	0x000b0002

00001978 <SystemCoreClockUpdate>:
    1978:	b580      	push	{r7, lr}
    197a:	af00      	add	r7, sp, #0
    197c:	f000 f8f4 	bl	1b68 <Chip_Clock_GetSystemClockRate>
    1980:	4602      	mov	r2, r0
    1982:	4b02      	ldr	r3, [pc, #8]	; (198c <SystemCoreClockUpdate+0x14>)
    1984:	601a      	str	r2, [r3, #0]
    1986:	bf00      	nop
    1988:	bd80      	pop	{r7, pc}
    198a:	bf00      	nop
    198c:	2000a4c4 	.word	0x2000a4c4

00001990 <Chip_Clock_GetExtClockInRate>:
    1990:	b480      	push	{r7}
    1992:	af00      	add	r7, sp, #0
    1994:	4b03      	ldr	r3, [pc, #12]	; (19a4 <Chip_Clock_GetExtClockInRate+0x14>)
    1996:	681b      	ldr	r3, [r3, #0]
    1998:	4618      	mov	r0, r3
    199a:	46bd      	mov	sp, r7
    199c:	f85d 7b04 	ldr.w	r7, [sp], #4
    19a0:	4770      	bx	lr
    19a2:	bf00      	nop
    19a4:	00007020 	.word	0x00007020

000019a8 <Chip_Clock_GetRTCOscRate>:
    19a8:	b480      	push	{r7}
    19aa:	af00      	add	r7, sp, #0
    19ac:	f44f 4300 	mov.w	r3, #32768	; 0x8000
    19b0:	4618      	mov	r0, r3
    19b2:	46bd      	mov	sp, r7
    19b4:	f85d 7b04 	ldr.w	r7, [sp], #4
    19b8:	4770      	bx	lr
    19ba:	bf00      	nop

000019bc <Chip_Clock_GetFROHFRate>:
    19bc:	b480      	push	{r7}
    19be:	af00      	add	r7, sp, #0
    19c0:	f04f 4380 	mov.w	r3, #1073741824	; 0x40000000
    19c4:	f8d3 3500 	ldr.w	r3, [r3, #1280]	; 0x500
    19c8:	f403 4380 	and.w	r3, r3, #16384	; 0x4000
    19cc:	2b00      	cmp	r3, #0
    19ce:	d001      	beq.n	19d4 <Chip_Clock_GetFROHFRate+0x18>
    19d0:	4b03      	ldr	r3, [pc, #12]	; (19e0 <Chip_Clock_GetFROHFRate+0x24>)
    19d2:	e000      	b.n	19d6 <Chip_Clock_GetFROHFRate+0x1a>
    19d4:	4b03      	ldr	r3, [pc, #12]	; (19e4 <Chip_Clock_GetFROHFRate+0x28>)
    19d6:	4618      	mov	r0, r3
    19d8:	46bd      	mov	sp, r7
    19da:	f85d 7b04 	ldr.w	r7, [sp], #4
    19de:	4770      	bx	lr
    19e0:	05b8d800 	.word	0x05b8d800
    19e4:	02dc6c00 	.word	0x02dc6c00

000019e8 <Chip_Clock_GetMain_A_ClockSource>:
    19e8:	b480      	push	{r7}
    19ea:	af00      	add	r7, sp, #0
    19ec:	f04f 4380 	mov.w	r3, #1073741824	; 0x40000000
    19f0:	f8d3 3280 	ldr.w	r3, [r3, #640]	; 0x280
    19f4:	b2db      	uxtb	r3, r3
    19f6:	f003 0303 	and.w	r3, r3, #3
    19fa:	b2db      	uxtb	r3, r3
    19fc:	4618      	mov	r0, r3
    19fe:	46bd      	mov	sp, r7
    1a00:	f85d 7b04 	ldr.w	r7, [sp], #4
    1a04:	4770      	bx	lr
    1a06:	bf00      	nop

00001a08 <Chip_Clock_GetMain_B_ClockSource>:
    1a08:	b480      	push	{r7}
    1a0a:	af00      	add	r7, sp, #0
    1a0c:	f04f 4380 	mov.w	r3, #1073741824	; 0x40000000
    1a10:	f8d3 3284 	ldr.w	r3, [r3, #644]	; 0x284
    1a14:	b2db      	uxtb	r3, r3
    1a16:	4618      	mov	r0, r3
    1a18:	46bd      	mov	sp, r7
    1a1a:	f85d 7b04 	ldr.w	r7, [sp], #4
    1a1e:	4770      	bx	lr

00001a20 <Chip_Clock_GetFRGClockSource>:
    1a20:	b480      	push	{r7}
    1a22:	af00      	add	r7, sp, #0
    1a24:	f04f 4380 	mov.w	r3, #1073741824	; 0x40000000
    1a28:	f8d3 32e8 	ldr.w	r3, [r3, #744]	; 0x2e8
    1a2c:	b2db      	uxtb	r3, r3
    1a2e:	f003 0307 	and.w	r3, r3, #7
    1a32:	b2db      	uxtb	r3, r3
    1a34:	4618      	mov	r0, r3
    1a36:	46bd      	mov	sp, r7
    1a38:	f85d 7b04 	ldr.w	r7, [sp], #4
    1a3c:	4770      	bx	lr
    1a3e:	bf00      	nop

00001a40 <Chip_Clock_GetMain_A_ClockRate>:
    1a40:	b580      	push	{r7, lr}
    1a42:	b082      	sub	sp, #8
    1a44:	af00      	add	r7, sp, #0
    1a46:	2300      	movs	r3, #0
    1a48:	607b      	str	r3, [r7, #4]
    1a4a:	f7ff ffcd 	bl	19e8 <Chip_Clock_GetMain_A_ClockSource>
    1a4e:	4603      	mov	r3, r0
    1a50:	2b03      	cmp	r3, #3
    1a52:	d81a      	bhi.n	1a8a <Chip_Clock_GetMain_A_ClockRate+0x4a>
    1a54:	a201      	add	r2, pc, #4	; (adr r2, 1a5c <Chip_Clock_GetMain_A_ClockRate+0x1c>)
    1a56:	f852 f023 	ldr.w	pc, [r2, r3, lsl #2]
    1a5a:	bf00      	nop
    1a5c:	00001a6d 	.word	0x00001a6d
    1a60:	00001a73 	.word	0x00001a73
    1a64:	00001a7b 	.word	0x00001a7b
    1a68:	00001a83 	.word	0x00001a83
    1a6c:	4b0b      	ldr	r3, [pc, #44]	; (1a9c <Chip_Clock_GetMain_A_ClockRate+0x5c>)
    1a6e:	607b      	str	r3, [r7, #4]
    1a70:	e00e      	b.n	1a90 <Chip_Clock_GetMain_A_ClockRate+0x50>
    1a72:	f7ff ff8d 	bl	1990 <Chip_Clock_GetExtClockInRate>
    1a76:	6078      	str	r0, [r7, #4]
    1a78:	e00a      	b.n	1a90 <Chip_Clock_GetMain_A_ClockRate+0x50>
    1a7a:	f000 f8b5 	bl	1be8 <Chip_Clock_GetWDTOSCRate>
    1a7e:	6078      	str	r0, [r7, #4]
    1a80:	e006      	b.n	1a90 <Chip_Clock_GetMain_A_ClockRate+0x50>
    1a82:	f7ff ff9b 	bl	19bc <Chip_Clock_GetFROHFRate>
    1a86:	6078      	str	r0, [r7, #4]
    1a88:	e002      	b.n	1a90 <Chip_Clock_GetMain_A_ClockRate+0x50>
    1a8a:	2300      	movs	r3, #0
    1a8c:	607b      	str	r3, [r7, #4]
    1a8e:	bf00      	nop
    1a90:	687b      	ldr	r3, [r7, #4]
    1a92:	4618      	mov	r0, r3
    1a94:	3708      	adds	r7, #8
    1a96:	46bd      	mov	sp, r7
    1a98:	bd80      	pop	{r7, pc}
    1a9a:	bf00      	nop
    1a9c:	00b71b00 	.word	0x00b71b00

00001aa0 <Chip_Clock_GetMain_B_ClockRate>:
    1aa0:	b580      	push	{r7, lr}
    1aa2:	b082      	sub	sp, #8
    1aa4:	af00      	add	r7, sp, #0
    1aa6:	2300      	movs	r3, #0
    1aa8:	607b      	str	r3, [r7, #4]
    1aaa:	f7ff ffad 	bl	1a08 <Chip_Clock_GetMain_B_ClockSource>
    1aae:	4603      	mov	r3, r0
    1ab0:	2b02      	cmp	r3, #2
    1ab2:	d007      	beq.n	1ac4 <Chip_Clock_GetMain_B_ClockRate+0x24>
    1ab4:	2b03      	cmp	r3, #3
    1ab6:	d00a      	beq.n	1ace <Chip_Clock_GetMain_B_ClockRate+0x2e>
    1ab8:	2b00      	cmp	r3, #0
    1aba:	d10c      	bne.n	1ad6 <Chip_Clock_GetMain_B_ClockRate+0x36>
    1abc:	f7ff ffc0 	bl	1a40 <Chip_Clock_GetMain_A_ClockRate>
    1ac0:	6078      	str	r0, [r7, #4]
    1ac2:	e008      	b.n	1ad6 <Chip_Clock_GetMain_B_ClockRate+0x36>
    1ac4:	2000      	movs	r0, #0
    1ac6:	f000 fb3d 	bl	2144 <Chip_Clock_GetSystemPLLOutClockRate>
    1aca:	6078      	str	r0, [r7, #4]
    1acc:	e003      	b.n	1ad6 <Chip_Clock_GetMain_B_ClockRate+0x36>
    1ace:	f7ff ff6b 	bl	19a8 <Chip_Clock_GetRTCOscRate>
    1ad2:	6078      	str	r0, [r7, #4]
    1ad4:	bf00      	nop
    1ad6:	687b      	ldr	r3, [r7, #4]
    1ad8:	4618      	mov	r0, r3
    1ada:	3708      	adds	r7, #8
    1adc:	46bd      	mov	sp, r7
    1ade:	bd80      	pop	{r7, pc}

00001ae0 <Chip_Clock_EnablePeriphClock>:
    1ae0:	b480      	push	{r7}
    1ae2:	b085      	sub	sp, #20
    1ae4:	af00      	add	r7, sp, #0
    1ae6:	4603      	mov	r3, r0
    1ae8:	71fb      	strb	r3, [r7, #7]
    1aea:	79fb      	ldrb	r3, [r7, #7]
    1aec:	60fb      	str	r3, [r7, #12]
    1aee:	68fb      	ldr	r3, [r7, #12]
    1af0:	2b7f      	cmp	r3, #127	; 0x7f
    1af2:	d907      	bls.n	1b04 <Chip_Clock_EnablePeriphClock+0x24>
    1af4:	4a11      	ldr	r2, [pc, #68]	; (1b3c <Chip_Clock_EnablePeriphClock+0x5c>)
    1af6:	68fb      	ldr	r3, [r7, #12]
    1af8:	3b80      	subs	r3, #128	; 0x80
    1afa:	2101      	movs	r1, #1
    1afc:	fa01 f303 	lsl.w	r3, r1, r3
    1b00:	6153      	str	r3, [r2, #20]
    1b02:	e014      	b.n	1b2e <Chip_Clock_EnablePeriphClock+0x4e>
    1b04:	68fb      	ldr	r3, [r7, #12]
    1b06:	2b1f      	cmp	r3, #31
    1b08:	d909      	bls.n	1b1e <Chip_Clock_EnablePeriphClock+0x3e>
    1b0a:	f04f 4280 	mov.w	r2, #1073741824	; 0x40000000
    1b0e:	68fb      	ldr	r3, [r7, #12]
    1b10:	3b20      	subs	r3, #32
    1b12:	2101      	movs	r1, #1
    1b14:	fa01 f303 	lsl.w	r3, r1, r3
    1b18:	f8c2 3224 	str.w	r3, [r2, #548]	; 0x224
    1b1c:	e007      	b.n	1b2e <Chip_Clock_EnablePeriphClock+0x4e>
    1b1e:	f04f 4280 	mov.w	r2, #1073741824	; 0x40000000
    1b22:	2101      	movs	r1, #1
    1b24:	68fb      	ldr	r3, [r7, #12]
    1b26:	fa01 f303 	lsl.w	r3, r1, r3
    1b2a:	f8c2 3220 	str.w	r3, [r2, #544]	; 0x220
    1b2e:	bf00      	nop
    1b30:	3714      	adds	r7, #20
    1b32:	46bd      	mov	sp, r7
    1b34:	f85d 7b04 	ldr.w	r7, [sp], #4
    1b38:	4770      	bx	lr
    1b3a:	bf00      	nop
    1b3c:	40040000 	.word	0x40040000

00001b40 <Chip_Clock_GetMainClockRate>:
    1b40:	b580      	push	{r7, lr}
    1b42:	b082      	sub	sp, #8
    1b44:	af00      	add	r7, sp, #0
    1b46:	f7ff ff5f 	bl	1a08 <Chip_Clock_GetMain_B_ClockSource>
    1b4a:	4603      	mov	r3, r0
    1b4c:	2b00      	cmp	r3, #0
    1b4e:	d103      	bne.n	1b58 <Chip_Clock_GetMainClockRate+0x18>
    1b50:	f7ff ff76 	bl	1a40 <Chip_Clock_GetMain_A_ClockRate>
    1b54:	6078      	str	r0, [r7, #4]
    1b56:	e002      	b.n	1b5e <Chip_Clock_GetMainClockRate+0x1e>
    1b58:	f7ff ffa2 	bl	1aa0 <Chip_Clock_GetMain_B_ClockRate>
    1b5c:	6078      	str	r0, [r7, #4]
    1b5e:	687b      	ldr	r3, [r7, #4]
    1b60:	4618      	mov	r0, r3
    1b62:	3708      	adds	r7, #8
    1b64:	46bd      	mov	sp, r7
    1b66:	bd80      	pop	{r7, pc}

00001b68 <Chip_Clock_GetSystemClockRate>:
    1b68:	b580      	push	{r7, lr}
    1b6a:	af00      	add	r7, sp, #0
    1b6c:	f7ff ffe8 	bl	1b40 <Chip_Clock_GetMainClockRate>
    1b70:	4602      	mov	r2, r0
    1b72:	f04f 4380 	mov.w	r3, #1073741824	; 0x40000000
    1b76:	f8d3 3380 	ldr.w	r3, [r3, #896]	; 0x380
    1b7a:	b2db      	uxtb	r3, r3
    1b7c:	3301      	adds	r3, #1
    1b7e:	fbb2 f3f3 	udiv	r3, r2, r3
    1b82:	4618      	mov	r0, r3
    1b84:	bd80      	pop	{r7, pc}
    1b86:	bf00      	nop

00001b88 <Chip_Clock_GetFRGInClockRate>:
    1b88:	b580      	push	{r7, lr}
    1b8a:	b082      	sub	sp, #8
    1b8c:	af00      	add	r7, sp, #0
    1b8e:	f7ff ff47 	bl	1a20 <Chip_Clock_GetFRGClockSource>
    1b92:	4603      	mov	r3, r0
    1b94:	70fb      	strb	r3, [r7, #3]
    1b96:	78fb      	ldrb	r3, [r7, #3]
    1b98:	2b03      	cmp	r3, #3
    1b9a:	d81b      	bhi.n	1bd4 <Chip_Clock_GetFRGInClockRate+0x4c>
    1b9c:	a201      	add	r2, pc, #4	; (adr r2, 1ba4 <Chip_Clock_GetFRGInClockRate+0x1c>)
    1b9e:	f852 f023 	ldr.w	pc, [r2, r3, lsl #2]
    1ba2:	bf00      	nop
    1ba4:	00001bb5 	.word	0x00001bb5
    1ba8:	00001bbd 	.word	0x00001bbd
    1bac:	00001bc7 	.word	0x00001bc7
    1bb0:	00001bcd 	.word	0x00001bcd
    1bb4:	f7ff ffc4 	bl	1b40 <Chip_Clock_GetMainClockRate>
    1bb8:	6078      	str	r0, [r7, #4]
    1bba:	e00d      	b.n	1bd8 <Chip_Clock_GetFRGInClockRate+0x50>
    1bbc:	2000      	movs	r0, #0
    1bbe:	f000 fac1 	bl	2144 <Chip_Clock_GetSystemPLLOutClockRate>
    1bc2:	6078      	str	r0, [r7, #4]
    1bc4:	e008      	b.n	1bd8 <Chip_Clock_GetFRGInClockRate+0x50>
    1bc6:	4b07      	ldr	r3, [pc, #28]	; (1be4 <Chip_Clock_GetFRGInClockRate+0x5c>)
    1bc8:	607b      	str	r3, [r7, #4]
    1bca:	e005      	b.n	1bd8 <Chip_Clock_GetFRGInClockRate+0x50>
    1bcc:	f7ff fef6 	bl	19bc <Chip_Clock_GetFROHFRate>
    1bd0:	6078      	str	r0, [r7, #4]
    1bd2:	e001      	b.n	1bd8 <Chip_Clock_GetFRGInClockRate+0x50>
    1bd4:	2300      	movs	r3, #0
    1bd6:	e000      	b.n	1bda <Chip_Clock_GetFRGInClockRate+0x52>
    1bd8:	687b      	ldr	r3, [r7, #4]
    1bda:	4618      	mov	r0, r3
    1bdc:	3708      	adds	r7, #8
    1bde:	46bd      	mov	sp, r7
    1be0:	bd80      	pop	{r7, pc}
    1be2:	bf00      	nop
    1be4:	00b71b00 	.word	0x00b71b00

00001be8 <Chip_Clock_GetWDTOSCRate>:
    1be8:	b480      	push	{r7}
    1bea:	b085      	sub	sp, #20
    1bec:	af00      	add	r7, sp, #0
    1bee:	f04f 4380 	mov.w	r3, #1073741824	; 0x40000000
    1bf2:	f8d3 3508 	ldr.w	r3, [r3, #1288]	; 0x508
    1bf6:	60fb      	str	r3, [r7, #12]
    1bf8:	68fb      	ldr	r3, [r7, #12]
    1bfa:	095b      	lsrs	r3, r3, #5
    1bfc:	f003 031f 	and.w	r3, r3, #31
    1c00:	60bb      	str	r3, [r7, #8]
    1c02:	68bb      	ldr	r3, [r7, #8]
    1c04:	2b00      	cmp	r3, #0
    1c06:	d101      	bne.n	1c0c <Chip_Clock_GetWDTOSCRate+0x24>
    1c08:	2300      	movs	r3, #0
    1c0a:	e01a      	b.n	1c42 <Chip_Clock_GetWDTOSCRate+0x5a>
    1c0c:	68bb      	ldr	r3, [r7, #8]
    1c0e:	2b01      	cmp	r3, #1
    1c10:	d00d      	beq.n	1c2e <Chip_Clock_GetWDTOSCRate+0x46>
    1c12:	68bb      	ldr	r3, [r7, #8]
    1c14:	3b02      	subs	r3, #2
    1c16:	4a0e      	ldr	r2, [pc, #56]	; (1c50 <Chip_Clock_GetWDTOSCRate+0x68>)
    1c18:	5cd3      	ldrb	r3, [r2, r3]
    1c1a:	461a      	mov	r2, r3
    1c1c:	f242 7310 	movw	r3, #10000	; 0x2710
    1c20:	fb03 f302 	mul.w	r3, r3, r2
    1c24:	f503 2312 	add.w	r3, r3, #598016	; 0x92000
    1c28:	f503 63f8 	add.w	r3, r3, #1984	; 0x7c0
    1c2c:	e000      	b.n	1c30 <Chip_Clock_GetWDTOSCRate+0x48>
    1c2e:	4b09      	ldr	r3, [pc, #36]	; (1c54 <Chip_Clock_GetWDTOSCRate+0x6c>)
    1c30:	607b      	str	r3, [r7, #4]
    1c32:	68fb      	ldr	r3, [r7, #12]
    1c34:	f003 031f 	and.w	r3, r3, #31
    1c38:	3301      	adds	r3, #1
    1c3a:	005b      	lsls	r3, r3, #1
    1c3c:	687a      	ldr	r2, [r7, #4]
    1c3e:	fbb2 f3f3 	udiv	r3, r2, r3
    1c42:	4618      	mov	r0, r3
    1c44:	3714      	adds	r7, #20
    1c46:	46bd      	mov	sp, r7
    1c48:	f85d 7b04 	ldr.w	r7, [sp], #4
    1c4c:	4770      	bx	lr
    1c4e:	bf00      	nop
    1c50:	00007068 	.word	0x00007068
    1c54:	00061a80 	.word	0x00061a80

00001c58 <fpuInit>:
    1c58:	b480      	push	{r7}
    1c5a:	b089      	sub	sp, #36	; 0x24
    1c5c:	af00      	add	r7, sp, #0
    1c5e:	4b16      	ldr	r3, [pc, #88]	; (1cb8 <fpuInit+0x60>)
    1c60:	61fb      	str	r3, [r7, #28]
    1c62:	4b16      	ldr	r3, [pc, #88]	; (1cbc <fpuInit+0x64>)
    1c64:	61bb      	str	r3, [r7, #24]
    1c66:	4b16      	ldr	r3, [pc, #88]	; (1cc0 <fpuInit+0x68>)
    1c68:	617b      	str	r3, [r7, #20]
    1c6a:	2300      	movs	r3, #0
    1c6c:	74fb      	strb	r3, [r7, #19]
    1c6e:	69bb      	ldr	r3, [r7, #24]
    1c70:	681b      	ldr	r3, [r3, #0]
    1c72:	60bb      	str	r3, [r7, #8]
    1c74:	697b      	ldr	r3, [r7, #20]
    1c76:	681b      	ldr	r3, [r3, #0]
    1c78:	607b      	str	r3, [r7, #4]
    1c7a:	68bb      	ldr	r3, [r7, #8]
    1c7c:	4a11      	ldr	r2, [pc, #68]	; (1cc4 <fpuInit+0x6c>)
    1c7e:	4293      	cmp	r3, r2
    1c80:	d105      	bne.n	1c8e <fpuInit+0x36>
    1c82:	687b      	ldr	r3, [r7, #4]
    1c84:	4a10      	ldr	r2, [pc, #64]	; (1cc8 <fpuInit+0x70>)
    1c86:	4293      	cmp	r3, r2
    1c88:	d101      	bne.n	1c8e <fpuInit+0x36>
    1c8a:	2301      	movs	r3, #1
    1c8c:	e000      	b.n	1c90 <fpuInit+0x38>
    1c8e:	2300      	movs	r3, #0
    1c90:	74fb      	strb	r3, [r7, #19]
    1c92:	7cfb      	ldrb	r3, [r7, #19]
    1c94:	2b00      	cmp	r3, #0
    1c96:	d009      	beq.n	1cac <fpuInit+0x54>
    1c98:	69fb      	ldr	r3, [r7, #28]
    1c9a:	681b      	ldr	r3, [r3, #0]
    1c9c:	60fb      	str	r3, [r7, #12]
    1c9e:	68fb      	ldr	r3, [r7, #12]
    1ca0:	f443 0370 	orr.w	r3, r3, #15728640	; 0xf00000
    1ca4:	60fb      	str	r3, [r7, #12]
    1ca6:	68fa      	ldr	r2, [r7, #12]
    1ca8:	69fb      	ldr	r3, [r7, #28]
    1caa:	601a      	str	r2, [r3, #0]
    1cac:	bf00      	nop
    1cae:	3724      	adds	r7, #36	; 0x24
    1cb0:	46bd      	mov	sp, r7
    1cb2:	f85d 7b04 	ldr.w	r7, [sp], #4
    1cb6:	4770      	bx	lr
    1cb8:	e000ed88 	.word	0xe000ed88
    1cbc:	e000ef40 	.word	0xe000ef40
    1cc0:	e000ef44 	.word	0xe000ef44
    1cc4:	10110021 	.word	0x10110021
    1cc8:	11000011 	.word	0x11000011

00001ccc <Chip_Clock_GetExtClockInRate>:
    1ccc:	b480      	push	{r7}
    1cce:	af00      	add	r7, sp, #0
    1cd0:	4b03      	ldr	r3, [pc, #12]	; (1ce0 <Chip_Clock_GetExtClockInRate+0x14>)
    1cd2:	681b      	ldr	r3, [r3, #0]
    1cd4:	4618      	mov	r0, r3
    1cd6:	46bd      	mov	sp, r7
    1cd8:	f85d 7b04 	ldr.w	r7, [sp], #4
    1cdc:	4770      	bx	lr
    1cde:	bf00      	nop
    1ce0:	00007020 	.word	0x00007020

00001ce4 <Chip_Clock_GetRTCOscRate>:
    1ce4:	b480      	push	{r7}
    1ce6:	af00      	add	r7, sp, #0
    1ce8:	f44f 4300 	mov.w	r3, #32768	; 0x8000
    1cec:	4618      	mov	r0, r3
    1cee:	46bd      	mov	sp, r7
    1cf0:	f85d 7b04 	ldr.w	r7, [sp], #4
    1cf4:	4770      	bx	lr
    1cf6:	bf00      	nop

00001cf8 <pllDecodeN>:
    1cf8:	b480      	push	{r7}
    1cfa:	b087      	sub	sp, #28
    1cfc:	af00      	add	r7, sp, #0
    1cfe:	6078      	str	r0, [r7, #4]
    1d00:	687b      	ldr	r3, [r7, #4]
    1d02:	f240 3202 	movw	r2, #770	; 0x302
    1d06:	4293      	cmp	r3, r2
    1d08:	d00b      	beq.n	1d22 <pllDecodeN+0x2a>
    1d0a:	f640 72ff 	movw	r2, #4095	; 0xfff
    1d0e:	4293      	cmp	r3, r2
    1d10:	d004      	beq.n	1d1c <pllDecodeN+0x24>
    1d12:	f240 2202 	movw	r2, #514	; 0x202
    1d16:	4293      	cmp	r3, r2
    1d18:	d006      	beq.n	1d28 <pllDecodeN+0x30>
    1d1a:	e008      	b.n	1d2e <pllDecodeN+0x36>
    1d1c:	2300      	movs	r3, #0
    1d1e:	617b      	str	r3, [r7, #20]
    1d20:	e033      	b.n	1d8a <pllDecodeN+0x92>
    1d22:	2301      	movs	r3, #1
    1d24:	617b      	str	r3, [r7, #20]
    1d26:	e030      	b.n	1d8a <pllDecodeN+0x92>
    1d28:	2302      	movs	r3, #2
    1d2a:	617b      	str	r3, [r7, #20]
    1d2c:	e02d      	b.n	1d8a <pllDecodeN+0x92>
    1d2e:	2380      	movs	r3, #128	; 0x80
    1d30:	613b      	str	r3, [r7, #16]
    1d32:	f04f 33ff 	mov.w	r3, #4294967295
    1d36:	617b      	str	r3, [r7, #20]
    1d38:	f44f 7380 	mov.w	r3, #256	; 0x100
    1d3c:	60fb      	str	r3, [r7, #12]
    1d3e:	e01c      	b.n	1d7a <pllDecodeN+0x82>
    1d40:	693b      	ldr	r3, [r7, #16]
    1d42:	089a      	lsrs	r2, r3, #2
    1d44:	693b      	ldr	r3, [r7, #16]
    1d46:	405a      	eors	r2, r3
    1d48:	693b      	ldr	r3, [r7, #16]
    1d4a:	08db      	lsrs	r3, r3, #3
    1d4c:	405a      	eors	r2, r3
    1d4e:	693b      	ldr	r3, [r7, #16]
    1d50:	091b      	lsrs	r3, r3, #4
    1d52:	4053      	eors	r3, r2
    1d54:	01db      	lsls	r3, r3, #7
    1d56:	b2da      	uxtb	r2, r3
    1d58:	693b      	ldr	r3, [r7, #16]
    1d5a:	085b      	lsrs	r3, r3, #1
    1d5c:	f003 037f 	and.w	r3, r3, #127	; 0x7f
    1d60:	4313      	orrs	r3, r2
    1d62:	613b      	str	r3, [r7, #16]
    1d64:	693b      	ldr	r3, [r7, #16]
    1d66:	f3c3 0209 	ubfx	r2, r3, #0, #10
    1d6a:	687b      	ldr	r3, [r7, #4]
    1d6c:	429a      	cmp	r2, r3
    1d6e:	d101      	bne.n	1d74 <pllDecodeN+0x7c>
    1d70:	68fb      	ldr	r3, [r7, #12]
    1d72:	617b      	str	r3, [r7, #20]
    1d74:	68fb      	ldr	r3, [r7, #12]
    1d76:	3b01      	subs	r3, #1
    1d78:	60fb      	str	r3, [r7, #12]
    1d7a:	68fb      	ldr	r3, [r7, #12]
    1d7c:	2b02      	cmp	r3, #2
    1d7e:	d903      	bls.n	1d88 <pllDecodeN+0x90>
    1d80:	697b      	ldr	r3, [r7, #20]
    1d82:	f1b3 3fff 	cmp.w	r3, #4294967295
    1d86:	d0db      	beq.n	1d40 <pllDecodeN+0x48>
    1d88:	bf00      	nop
    1d8a:	697b      	ldr	r3, [r7, #20]
    1d8c:	4618      	mov	r0, r3
    1d8e:	371c      	adds	r7, #28
    1d90:	46bd      	mov	sp, r7
    1d92:	f85d 7b04 	ldr.w	r7, [sp], #4
    1d96:	4770      	bx	lr

00001d98 <pllDecodeP>:
    1d98:	b480      	push	{r7}
    1d9a:	b087      	sub	sp, #28
    1d9c:	af00      	add	r7, sp, #0
    1d9e:	6078      	str	r0, [r7, #4]
    1da0:	687b      	ldr	r3, [r7, #4]
    1da2:	2b62      	cmp	r3, #98	; 0x62
    1da4:	d007      	beq.n	1db6 <pllDecodeP+0x1e>
    1da6:	2bff      	cmp	r3, #255	; 0xff
    1da8:	d002      	beq.n	1db0 <pllDecodeP+0x18>
    1daa:	2b42      	cmp	r3, #66	; 0x42
    1dac:	d006      	beq.n	1dbc <pllDecodeP+0x24>
    1dae:	e008      	b.n	1dc2 <pllDecodeP+0x2a>
    1db0:	2300      	movs	r3, #0
    1db2:	617b      	str	r3, [r7, #20]
    1db4:	e02d      	b.n	1e12 <pllDecodeP+0x7a>
    1db6:	2301      	movs	r3, #1
    1db8:	617b      	str	r3, [r7, #20]
    1dba:	e02a      	b.n	1e12 <pllDecodeP+0x7a>
    1dbc:	2302      	movs	r3, #2
    1dbe:	617b      	str	r3, [r7, #20]
    1dc0:	e027      	b.n	1e12 <pllDecodeP+0x7a>
    1dc2:	2310      	movs	r3, #16
    1dc4:	613b      	str	r3, [r7, #16]
    1dc6:	f04f 33ff 	mov.w	r3, #4294967295
    1dca:	617b      	str	r3, [r7, #20]
    1dcc:	2320      	movs	r3, #32
    1dce:	60fb      	str	r3, [r7, #12]
    1dd0:	e017      	b.n	1e02 <pllDecodeP+0x6a>
    1dd2:	693b      	ldr	r3, [r7, #16]
    1dd4:	089a      	lsrs	r2, r3, #2
    1dd6:	693b      	ldr	r3, [r7, #16]
    1dd8:	4053      	eors	r3, r2
    1dda:	011b      	lsls	r3, r3, #4
    1ddc:	f003 0210 	and.w	r2, r3, #16
    1de0:	693b      	ldr	r3, [r7, #16]
    1de2:	085b      	lsrs	r3, r3, #1
    1de4:	f003 030f 	and.w	r3, r3, #15
    1de8:	4313      	orrs	r3, r2
    1dea:	613b      	str	r3, [r7, #16]
    1dec:	693b      	ldr	r3, [r7, #16]
    1dee:	f3c3 0209 	ubfx	r2, r3, #0, #10
    1df2:	687b      	ldr	r3, [r7, #4]
    1df4:	429a      	cmp	r2, r3
    1df6:	d101      	bne.n	1dfc <pllDecodeP+0x64>
    1df8:	68fb      	ldr	r3, [r7, #12]
    1dfa:	617b      	str	r3, [r7, #20]
    1dfc:	68fb      	ldr	r3, [r7, #12]
    1dfe:	3b01      	subs	r3, #1
    1e00:	60fb      	str	r3, [r7, #12]
    1e02:	68fb      	ldr	r3, [r7, #12]
    1e04:	2b02      	cmp	r3, #2
    1e06:	d903      	bls.n	1e10 <pllDecodeP+0x78>
    1e08:	697b      	ldr	r3, [r7, #20]
    1e0a:	f1b3 3fff 	cmp.w	r3, #4294967295
    1e0e:	d0e0      	beq.n	1dd2 <pllDecodeP+0x3a>
    1e10:	bf00      	nop
    1e12:	697b      	ldr	r3, [r7, #20]
    1e14:	4618      	mov	r0, r3
    1e16:	371c      	adds	r7, #28
    1e18:	46bd      	mov	sp, r7
    1e1a:	f85d 7b04 	ldr.w	r7, [sp], #4
    1e1e:	4770      	bx	lr

00001e20 <pllDecodeM>:
    1e20:	b480      	push	{r7}
    1e22:	b087      	sub	sp, #28
    1e24:	af00      	add	r7, sp, #0
    1e26:	6078      	str	r0, [r7, #4]
    1e28:	687b      	ldr	r3, [r7, #4]
    1e2a:	4a22      	ldr	r2, [pc, #136]	; (1eb4 <pllDecodeM+0x94>)
    1e2c:	4293      	cmp	r3, r2
    1e2e:	d009      	beq.n	1e44 <pllDecodeM+0x24>
    1e30:	4a21      	ldr	r2, [pc, #132]	; (1eb8 <pllDecodeM+0x98>)
    1e32:	4293      	cmp	r3, r2
    1e34:	d003      	beq.n	1e3e <pllDecodeM+0x1e>
    1e36:	4a21      	ldr	r2, [pc, #132]	; (1ebc <pllDecodeM+0x9c>)
    1e38:	4293      	cmp	r3, r2
    1e3a:	d006      	beq.n	1e4a <pllDecodeM+0x2a>
    1e3c:	e008      	b.n	1e50 <pllDecodeM+0x30>
    1e3e:	2300      	movs	r3, #0
    1e40:	617b      	str	r3, [r7, #20]
    1e42:	e02f      	b.n	1ea4 <pllDecodeM+0x84>
    1e44:	2301      	movs	r3, #1
    1e46:	617b      	str	r3, [r7, #20]
    1e48:	e02c      	b.n	1ea4 <pllDecodeM+0x84>
    1e4a:	2302      	movs	r3, #2
    1e4c:	617b      	str	r3, [r7, #20]
    1e4e:	e029      	b.n	1ea4 <pllDecodeM+0x84>
    1e50:	f44f 4380 	mov.w	r3, #16384	; 0x4000
    1e54:	60fb      	str	r3, [r7, #12]
    1e56:	f04f 33ff 	mov.w	r3, #4294967295
    1e5a:	617b      	str	r3, [r7, #20]
    1e5c:	f44f 4300 	mov.w	r3, #32768	; 0x8000
    1e60:	613b      	str	r3, [r7, #16]
    1e62:	e017      	b.n	1e94 <pllDecodeM+0x74>
    1e64:	68fb      	ldr	r3, [r7, #12]
    1e66:	085a      	lsrs	r2, r3, #1
    1e68:	68fb      	ldr	r3, [r7, #12]
    1e6a:	4053      	eors	r3, r2
    1e6c:	039b      	lsls	r3, r3, #14
    1e6e:	f403 4280 	and.w	r2, r3, #16384	; 0x4000
    1e72:	68fb      	ldr	r3, [r7, #12]
    1e74:	085b      	lsrs	r3, r3, #1
    1e76:	f3c3 030d 	ubfx	r3, r3, #0, #14
    1e7a:	4313      	orrs	r3, r2
    1e7c:	60fb      	str	r3, [r7, #12]
    1e7e:	68fb      	ldr	r3, [r7, #12]
    1e80:	f3c3 0210 	ubfx	r2, r3, #0, #17
    1e84:	687b      	ldr	r3, [r7, #4]
    1e86:	429a      	cmp	r2, r3
    1e88:	d101      	bne.n	1e8e <pllDecodeM+0x6e>
    1e8a:	693b      	ldr	r3, [r7, #16]
    1e8c:	617b      	str	r3, [r7, #20]
    1e8e:	693b      	ldr	r3, [r7, #16]
    1e90:	3b01      	subs	r3, #1
    1e92:	613b      	str	r3, [r7, #16]
    1e94:	693b      	ldr	r3, [r7, #16]
    1e96:	2b02      	cmp	r3, #2
    1e98:	d903      	bls.n	1ea2 <pllDecodeM+0x82>
    1e9a:	697b      	ldr	r3, [r7, #20]
    1e9c:	f1b3 3fff 	cmp.w	r3, #4294967295
    1ea0:	d0e0      	beq.n	1e64 <pllDecodeM+0x44>
    1ea2:	bf00      	nop
    1ea4:	697b      	ldr	r3, [r7, #20]
    1ea6:	4618      	mov	r0, r3
    1ea8:	371c      	adds	r7, #28
    1eaa:	46bd      	mov	sp, r7
    1eac:	f85d 7b04 	ldr.w	r7, [sp], #4
    1eb0:	4770      	bx	lr
    1eb2:	bf00      	nop
    1eb4:	00018003 	.word	0x00018003
    1eb8:	000fffff 	.word	0x000fffff
    1ebc:	00010003 	.word	0x00010003

00001ec0 <findPllPreDiv>:
    1ec0:	b580      	push	{r7, lr}
    1ec2:	b084      	sub	sp, #16
    1ec4:	af00      	add	r7, sp, #0
    1ec6:	6078      	str	r0, [r7, #4]
    1ec8:	6039      	str	r1, [r7, #0]
    1eca:	2301      	movs	r3, #1
    1ecc:	60fb      	str	r3, [r7, #12]
    1ece:	687b      	ldr	r3, [r7, #4]
    1ed0:	f403 2300 	and.w	r3, r3, #524288	; 0x80000
    1ed4:	2b00      	cmp	r3, #0
    1ed6:	d10b      	bne.n	1ef0 <findPllPreDiv+0x30>
    1ed8:	683b      	ldr	r3, [r7, #0]
    1eda:	f3c3 0309 	ubfx	r3, r3, #0, #10
    1ede:	4618      	mov	r0, r3
    1ee0:	f7ff ff0a 	bl	1cf8 <pllDecodeN>
    1ee4:	60f8      	str	r0, [r7, #12]
    1ee6:	68fb      	ldr	r3, [r7, #12]
    1ee8:	2b00      	cmp	r3, #0
    1eea:	d101      	bne.n	1ef0 <findPllPreDiv+0x30>
    1eec:	2301      	movs	r3, #1
    1eee:	60fb      	str	r3, [r7, #12]
    1ef0:	68fb      	ldr	r3, [r7, #12]
    1ef2:	4618      	mov	r0, r3
    1ef4:	3710      	adds	r7, #16
    1ef6:	46bd      	mov	sp, r7
    1ef8:	bd80      	pop	{r7, pc}
    1efa:	bf00      	nop

00001efc <findPllPostDiv>:
    1efc:	b580      	push	{r7, lr}
    1efe:	b084      	sub	sp, #16
    1f00:	af00      	add	r7, sp, #0
    1f02:	6078      	str	r0, [r7, #4]
    1f04:	6039      	str	r1, [r7, #0]
    1f06:	2301      	movs	r3, #1
    1f08:	60fb      	str	r3, [r7, #12]
    1f0a:	687b      	ldr	r3, [r7, #4]
    1f0c:	f403 1380 	and.w	r3, r3, #1048576	; 0x100000
    1f10:	2b00      	cmp	r3, #0
    1f12:	d10d      	bne.n	1f30 <findPllPostDiv+0x34>
    1f14:	683b      	ldr	r3, [r7, #0]
    1f16:	f003 037f 	and.w	r3, r3, #127	; 0x7f
    1f1a:	4618      	mov	r0, r3
    1f1c:	f7ff ff3c 	bl	1d98 <pllDecodeP>
    1f20:	4603      	mov	r3, r0
    1f22:	005b      	lsls	r3, r3, #1
    1f24:	60fb      	str	r3, [r7, #12]
    1f26:	68fb      	ldr	r3, [r7, #12]
    1f28:	2b00      	cmp	r3, #0
    1f2a:	d101      	bne.n	1f30 <findPllPostDiv+0x34>
    1f2c:	2302      	movs	r3, #2
    1f2e:	60fb      	str	r3, [r7, #12]
    1f30:	68fb      	ldr	r3, [r7, #12]
    1f32:	4618      	mov	r0, r3
    1f34:	3710      	adds	r7, #16
    1f36:	46bd      	mov	sp, r7
    1f38:	bd80      	pop	{r7, pc}
    1f3a:	bf00      	nop

00001f3c <findPllMMult>:
    1f3c:	b580      	push	{r7, lr}
    1f3e:	b084      	sub	sp, #16
    1f40:	af00      	add	r7, sp, #0
    1f42:	6078      	str	r0, [r7, #4]
    1f44:	6039      	str	r1, [r7, #0]
    1f46:	2301      	movs	r3, #1
    1f48:	60fb      	str	r3, [r7, #12]
    1f4a:	683b      	ldr	r3, [r7, #0]
    1f4c:	f3c3 0310 	ubfx	r3, r3, #0, #17
    1f50:	4618      	mov	r0, r3
    1f52:	f7ff ff65 	bl	1e20 <pllDecodeM>
    1f56:	60f8      	str	r0, [r7, #12]
    1f58:	687b      	ldr	r3, [r7, #4]
    1f5a:	f403 3380 	and.w	r3, r3, #65536	; 0x10000
    1f5e:	2b00      	cmp	r3, #0
    1f60:	d102      	bne.n	1f68 <findPllMMult+0x2c>
    1f62:	68fb      	ldr	r3, [r7, #12]
    1f64:	005b      	lsls	r3, r3, #1
    1f66:	60fb      	str	r3, [r7, #12]
    1f68:	68fb      	ldr	r3, [r7, #12]
    1f6a:	2b00      	cmp	r3, #0
    1f6c:	d101      	bne.n	1f72 <findPllMMult+0x36>
    1f6e:	2301      	movs	r3, #1
    1f70:	60fb      	str	r3, [r7, #12]
    1f72:	68fb      	ldr	r3, [r7, #12]
    1f74:	4618      	mov	r0, r3
    1f76:	3710      	adds	r7, #16
    1f78:	46bd      	mov	sp, r7
    1f7a:	bd80      	pop	{r7, pc}

00001f7c <Chip_Clock_GetSystemPLLOutFromSetupUpdate>:
    1f7c:	b580      	push	{r7, lr}
    1f7e:	b082      	sub	sp, #8
    1f80:	af00      	add	r7, sp, #0
    1f82:	6078      	str	r0, [r7, #4]
    1f84:	6878      	ldr	r0, [r7, #4]
    1f86:	f000 f83b 	bl	2000 <Chip_Clock_GetSystemPLLOutFromSetup>
    1f8a:	4602      	mov	r2, r0
    1f8c:	4b02      	ldr	r3, [pc, #8]	; (1f98 <Chip_Clock_GetSystemPLLOutFromSetupUpdate+0x1c>)
    1f8e:	601a      	str	r2, [r3, #0]
    1f90:	bf00      	nop
    1f92:	3708      	adds	r7, #8
    1f94:	46bd      	mov	sp, r7
    1f96:	bd80      	pop	{r7, pc}
    1f98:	20000108 	.word	0x20000108

00001f9c <Chip_Clock_GetSystemPLLInClockRate>:
    1f9c:	b580      	push	{r7, lr}
    1f9e:	b082      	sub	sp, #8
    1fa0:	af00      	add	r7, sp, #0
    1fa2:	2300      	movs	r3, #0
    1fa4:	607b      	str	r3, [r7, #4]
    1fa6:	f04f 4380 	mov.w	r3, #1073741824	; 0x40000000
    1faa:	f8d3 3290 	ldr.w	r3, [r3, #656]	; 0x290
    1fae:	f003 0303 	and.w	r3, r3, #3
    1fb2:	2b03      	cmp	r3, #3
    1fb4:	d819      	bhi.n	1fea <Chip_Clock_GetSystemPLLInClockRate+0x4e>
    1fb6:	a201      	add	r2, pc, #4	; (adr r2, 1fbc <Chip_Clock_GetSystemPLLInClockRate+0x20>)
    1fb8:	f852 f023 	ldr.w	pc, [r2, r3, lsl #2]
    1fbc:	00001fcd 	.word	0x00001fcd
    1fc0:	00001fd3 	.word	0x00001fd3
    1fc4:	00001fdb 	.word	0x00001fdb
    1fc8:	00001fe3 	.word	0x00001fe3
    1fcc:	4b0b      	ldr	r3, [pc, #44]	; (1ffc <Chip_Clock_GetSystemPLLInClockRate+0x60>)
    1fce:	607b      	str	r3, [r7, #4]
    1fd0:	e00e      	b.n	1ff0 <Chip_Clock_GetSystemPLLInClockRate+0x54>
    1fd2:	f7ff fe7b 	bl	1ccc <Chip_Clock_GetExtClockInRate>
    1fd6:	6078      	str	r0, [r7, #4]
    1fd8:	e00a      	b.n	1ff0 <Chip_Clock_GetSystemPLLInClockRate+0x54>
    1fda:	f7ff fe05 	bl	1be8 <Chip_Clock_GetWDTOSCRate>
    1fde:	6078      	str	r0, [r7, #4]
    1fe0:	e006      	b.n	1ff0 <Chip_Clock_GetSystemPLLInClockRate+0x54>
    1fe2:	f7ff fe7f 	bl	1ce4 <Chip_Clock_GetRTCOscRate>
    1fe6:	6078      	str	r0, [r7, #4]
    1fe8:	e002      	b.n	1ff0 <Chip_Clock_GetSystemPLLInClockRate+0x54>
    1fea:	2300      	movs	r3, #0
    1fec:	607b      	str	r3, [r7, #4]
    1fee:	bf00      	nop
    1ff0:	687b      	ldr	r3, [r7, #4]
    1ff2:	4618      	mov	r0, r3
    1ff4:	3708      	adds	r7, #8
    1ff6:	46bd      	mov	sp, r7
    1ff8:	bd80      	pop	{r7, pc}
    1ffa:	bf00      	nop
    1ffc:	00b71b00 	.word	0x00b71b00

00002000 <Chip_Clock_GetSystemPLLOutFromSetup>:
    2000:	b5f0      	push	{r4, r5, r6, r7, lr}
    2002:	b08b      	sub	sp, #44	; 0x2c
    2004:	af00      	add	r7, sp, #0
    2006:	6078      	str	r0, [r7, #4]
    2008:	f7ff ffc8 	bl	1f9c <Chip_Clock_GetSystemPLLInClockRate>
    200c:	61f8      	str	r0, [r7, #28]
    200e:	687b      	ldr	r3, [r7, #4]
    2010:	681b      	ldr	r3, [r3, #0]
    2012:	f403 4300 	and.w	r3, r3, #32768	; 0x8000
    2016:	2b00      	cmp	r3, #0
    2018:	f040 808a 	bne.w	2130 <Chip_Clock_GetSystemPLLOutFromSetup+0x130>
    201c:	687b      	ldr	r3, [r7, #4]
    201e:	681a      	ldr	r2, [r3, #0]
    2020:	687b      	ldr	r3, [r7, #4]
    2022:	685b      	ldr	r3, [r3, #4]
    2024:	4619      	mov	r1, r3
    2026:	4610      	mov	r0, r2
    2028:	f7ff ff4a 	bl	1ec0 <findPllPreDiv>
    202c:	61b8      	str	r0, [r7, #24]
    202e:	687b      	ldr	r3, [r7, #4]
    2030:	681a      	ldr	r2, [r3, #0]
    2032:	687b      	ldr	r3, [r7, #4]
    2034:	689b      	ldr	r3, [r3, #8]
    2036:	4619      	mov	r1, r3
    2038:	4610      	mov	r0, r2
    203a:	f7ff ff5f 	bl	1efc <findPllPostDiv>
    203e:	6178      	str	r0, [r7, #20]
    2040:	69fa      	ldr	r2, [r7, #28]
    2042:	69bb      	ldr	r3, [r7, #24]
    2044:	fbb2 f3f3 	udiv	r3, r2, r3
    2048:	61fb      	str	r3, [r7, #28]
    204a:	687b      	ldr	r3, [r7, #4]
    204c:	691b      	ldr	r3, [r3, #16]
    204e:	f003 5380 	and.w	r3, r3, #268435456	; 0x10000000
    2052:	2b00      	cmp	r3, #0
    2054:	d01d      	beq.n	2092 <Chip_Clock_GetSystemPLLOutFromSetup+0x92>
    2056:	687b      	ldr	r3, [r7, #4]
    2058:	681a      	ldr	r2, [r3, #0]
    205a:	687b      	ldr	r3, [r7, #4]
    205c:	68db      	ldr	r3, [r3, #12]
    205e:	4619      	mov	r1, r3
    2060:	4610      	mov	r0, r2
    2062:	f7ff ff6b 	bl	1f3c <findPllMMult>
    2066:	6138      	str	r0, [r7, #16]
    2068:	69fb      	ldr	r3, [r7, #28]
    206a:	4619      	mov	r1, r3
    206c:	f04f 0200 	mov.w	r2, #0
    2070:	693b      	ldr	r3, [r7, #16]
    2072:	f04f 0400 	mov.w	r4, #0
    2076:	fb03 f502 	mul.w	r5, r3, r2
    207a:	fb01 f004 	mul.w	r0, r1, r4
    207e:	4428      	add	r0, r5
    2080:	fba1 3403 	umull	r3, r4, r1, r3
    2084:	1902      	adds	r2, r0, r4
    2086:	4614      	mov	r4, r2
    2088:	e9c7 3408 	strd	r3, r4, [r7, #32]
    208c:	e9c7 3408 	strd	r3, r4, [r7, #32]
    2090:	e040      	b.n	2114 <Chip_Clock_GetSystemPLLOutFromSetup+0x114>
    2092:	687b      	ldr	r3, [r7, #4]
    2094:	691b      	ldr	r3, [r3, #16]
    2096:	0adb      	lsrs	r3, r3, #11
    2098:	b2db      	uxtb	r3, r3
    209a:	613b      	str	r3, [r7, #16]
    209c:	69fb      	ldr	r3, [r7, #28]
    209e:	4619      	mov	r1, r3
    20a0:	f04f 0200 	mov.w	r2, #0
    20a4:	693b      	ldr	r3, [r7, #16]
    20a6:	f04f 0400 	mov.w	r4, #0
    20aa:	fb03 fe02 	mul.w	lr, r3, r2
    20ae:	fb01 f004 	mul.w	r0, r1, r4
    20b2:	4470      	add	r0, lr
    20b4:	fba1 3403 	umull	r3, r4, r1, r3
    20b8:	1902      	adds	r2, r0, r4
    20ba:	4614      	mov	r4, r2
    20bc:	e9c7 3408 	strd	r3, r4, [r7, #32]
    20c0:	e9c7 3408 	strd	r3, r4, [r7, #32]
    20c4:	687b      	ldr	r3, [r7, #4]
    20c6:	691b      	ldr	r3, [r3, #16]
    20c8:	f04f 0400 	mov.w	r4, #0
    20cc:	f240 71ff 	movw	r1, #2047	; 0x7ff
    20d0:	f04f 0200 	mov.w	r2, #0
    20d4:	ea03 0301 	and.w	r3, r3, r1
    20d8:	ea04 0402 	and.w	r4, r4, r2
    20dc:	e9c7 3402 	strd	r3, r4, [r7, #8]
    20e0:	69fb      	ldr	r3, [r7, #28]
    20e2:	f04f 0400 	mov.w	r4, #0
    20e6:	68ba      	ldr	r2, [r7, #8]
    20e8:	fb04 f102 	mul.w	r1, r4, r2
    20ec:	68fa      	ldr	r2, [r7, #12]
    20ee:	fb03 f202 	mul.w	r2, r3, r2
    20f2:	440a      	add	r2, r1
    20f4:	68b9      	ldr	r1, [r7, #8]
    20f6:	fba1 3403 	umull	r3, r4, r1, r3
    20fa:	4422      	add	r2, r4
    20fc:	4614      	mov	r4, r2
    20fe:	0add      	lsrs	r5, r3, #11
    2100:	ea45 5544 	orr.w	r5, r5, r4, lsl #21
    2104:	0ae6      	lsrs	r6, r4, #11
    2106:	e9d7 3408 	ldrd	r3, r4, [r7, #32]
    210a:	195b      	adds	r3, r3, r5
    210c:	eb44 0406 	adc.w	r4, r4, r6
    2110:	e9c7 3408 	strd	r3, r4, [r7, #32]
    2114:	697b      	ldr	r3, [r7, #20]
    2116:	f04f 0400 	mov.w	r4, #0
    211a:	461a      	mov	r2, r3
    211c:	4623      	mov	r3, r4
    211e:	e9d7 0108 	ldrd	r0, r1, [r7, #32]
    2122:	f004 f9e1 	bl	64e8 <__aeabi_uldivmod>
    2126:	4603      	mov	r3, r0
    2128:	460c      	mov	r4, r1
    212a:	e9c7 3408 	strd	r3, r4, [r7, #32]
    212e:	e004      	b.n	213a <Chip_Clock_GetSystemPLLOutFromSetup+0x13a>
    2130:	69fb      	ldr	r3, [r7, #28]
    2132:	f04f 0400 	mov.w	r4, #0
    2136:	e9c7 3408 	strd	r3, r4, [r7, #32]
    213a:	6a3b      	ldr	r3, [r7, #32]
    213c:	4618      	mov	r0, r3
    213e:	372c      	adds	r7, #44	; 0x2c
    2140:	46bd      	mov	sp, r7
    2142:	bdf0      	pop	{r4, r5, r6, r7, pc}

00002144 <Chip_Clock_GetSystemPLLOutClockRate>:
    2144:	b580      	push	{r7, lr}
    2146:	b08a      	sub	sp, #40	; 0x28
    2148:	af00      	add	r7, sp, #0
    214a:	4603      	mov	r3, r0
    214c:	71fb      	strb	r3, [r7, #7]
    214e:	79fb      	ldrb	r3, [r7, #7]
    2150:	2b00      	cmp	r3, #0
    2152:	d103      	bne.n	215c <Chip_Clock_GetSystemPLLOutClockRate+0x18>
    2154:	4b14      	ldr	r3, [pc, #80]	; (21a8 <Chip_Clock_GetSystemPLLOutClockRate+0x64>)
    2156:	681b      	ldr	r3, [r3, #0]
    2158:	2b00      	cmp	r3, #0
    215a:	d11d      	bne.n	2198 <Chip_Clock_GetSystemPLLOutClockRate+0x54>
    215c:	f04f 4380 	mov.w	r3, #1073741824	; 0x40000000
    2160:	f8d3 3580 	ldr.w	r3, [r3, #1408]	; 0x580
    2164:	60bb      	str	r3, [r7, #8]
    2166:	f04f 4380 	mov.w	r3, #1073741824	; 0x40000000
    216a:	f8d3 3588 	ldr.w	r3, [r3, #1416]	; 0x588
    216e:	60fb      	str	r3, [r7, #12]
    2170:	f04f 4380 	mov.w	r3, #1073741824	; 0x40000000
    2174:	f8d3 358c 	ldr.w	r3, [r3, #1420]	; 0x58c
    2178:	613b      	str	r3, [r7, #16]
    217a:	f04f 4380 	mov.w	r3, #1073741824	; 0x40000000
    217e:	f8d3 3590 	ldr.w	r3, [r3, #1424]	; 0x590
    2182:	617b      	str	r3, [r7, #20]
    2184:	f04f 4380 	mov.w	r3, #1073741824	; 0x40000000
    2188:	f8d3 3594 	ldr.w	r3, [r3, #1428]	; 0x594
    218c:	61bb      	str	r3, [r7, #24]
    218e:	f107 0308 	add.w	r3, r7, #8
    2192:	4618      	mov	r0, r3
    2194:	f7ff fef2 	bl	1f7c <Chip_Clock_GetSystemPLLOutFromSetupUpdate>
    2198:	4b03      	ldr	r3, [pc, #12]	; (21a8 <Chip_Clock_GetSystemPLLOutClockRate+0x64>)
    219a:	681b      	ldr	r3, [r3, #0]
    219c:	627b      	str	r3, [r7, #36]	; 0x24
    219e:	6a7b      	ldr	r3, [r7, #36]	; 0x24
    21a0:	4618      	mov	r0, r3
    21a2:	3728      	adds	r7, #40	; 0x28
    21a4:	46bd      	mov	sp, r7
    21a6:	bd80      	pop	{r7, pc}
    21a8:	20000108 	.word	0x20000108

000021ac <Chip_SYSCON_Enable_ASYNC_Syscon>:
    21ac:	b480      	push	{r7}
    21ae:	b083      	sub	sp, #12
    21b0:	af00      	add	r7, sp, #0
    21b2:	4603      	mov	r3, r0
    21b4:	71fb      	strb	r3, [r7, #7]
    21b6:	79fb      	ldrb	r3, [r7, #7]
    21b8:	2b00      	cmp	r3, #0
    21ba:	d004      	beq.n	21c6 <Chip_SYSCON_Enable_ASYNC_Syscon+0x1a>
    21bc:	f04f 4380 	mov.w	r3, #1073741824	; 0x40000000
    21c0:	2201      	movs	r2, #1
    21c2:	64da      	str	r2, [r3, #76]	; 0x4c
    21c4:	e003      	b.n	21ce <Chip_SYSCON_Enable_ASYNC_Syscon+0x22>
    21c6:	f04f 4380 	mov.w	r3, #1073741824	; 0x40000000
    21ca:	2200      	movs	r2, #0
    21cc:	64da      	str	r2, [r3, #76]	; 0x4c
    21ce:	bf00      	nop
    21d0:	370c      	adds	r7, #12
    21d2:	46bd      	mov	sp, r7
    21d4:	f85d 7b04 	ldr.w	r7, [sp], #4
    21d8:	4770      	bx	lr
    21da:	bf00      	nop

000021dc <Chip_SYSCON_PowerUp>:
    21dc:	b480      	push	{r7}
    21de:	b087      	sub	sp, #28
    21e0:	af00      	add	r7, sp, #0
    21e2:	6078      	str	r0, [r7, #4]
    21e4:	687b      	ldr	r3, [r7, #4]
    21e6:	f403 0380 	and.w	r3, r3, #4194304	; 0x400000
    21ea:	2b00      	cmp	r3, #0
    21ec:	d02f      	beq.n	224e <Chip_SYSCON_PowerUp+0x72>
    21ee:	4b1d      	ldr	r3, [pc, #116]	; (2264 <Chip_SYSCON_PowerUp+0x88>)
    21f0:	617b      	str	r3, [r7, #20]
    21f2:	f04f 4380 	mov.w	r3, #1073741824	; 0x40000000
    21f6:	f8d3 3590 	ldr.w	r3, [r3, #1424]	; 0x590
    21fa:	f423 3300 	bic.w	r3, r3, #131072	; 0x20000
    21fe:	613b      	str	r3, [r7, #16]
    2200:	f04f 4280 	mov.w	r2, #1073741824	; 0x40000000
    2204:	697b      	ldr	r3, [r7, #20]
    2206:	f8c2 3590 	str.w	r3, [r2, #1424]	; 0x590
    220a:	f04f 4380 	mov.w	r3, #1073741824	; 0x40000000
    220e:	f44f 0280 	mov.w	r2, #4194304	; 0x400000
    2212:	f8c3 2630 	str.w	r2, [r3, #1584]	; 0x630
    2216:	f04f 4280 	mov.w	r2, #1073741824	; 0x40000000
    221a:	697b      	ldr	r3, [r7, #20]
    221c:	f443 3300 	orr.w	r3, r3, #131072	; 0x20000
    2220:	f8c2 3590 	str.w	r3, [r2, #1424]	; 0x590
    2224:	2300      	movs	r3, #0
    2226:	60fb      	str	r3, [r7, #12]
    2228:	e002      	b.n	2230 <Chip_SYSCON_PowerUp+0x54>
    222a:	68fb      	ldr	r3, [r7, #12]
    222c:	3301      	adds	r3, #1
    222e:	60fb      	str	r3, [r7, #12]
    2230:	68fb      	ldr	r3, [r7, #12]
    2232:	2bab      	cmp	r3, #171	; 0xab
    2234:	d9f9      	bls.n	222a <Chip_SYSCON_PowerUp+0x4e>
    2236:	f04f 4280 	mov.w	r2, #1073741824	; 0x40000000
    223a:	693b      	ldr	r3, [r7, #16]
    223c:	f8c2 3590 	str.w	r3, [r2, #1424]	; 0x590
    2240:	f04f 4280 	mov.w	r2, #1073741824	; 0x40000000
    2244:	693b      	ldr	r3, [r7, #16]
    2246:	f443 3300 	orr.w	r3, r3, #131072	; 0x20000
    224a:	f8c2 3590 	str.w	r3, [r2, #1424]	; 0x590
    224e:	f04f 4280 	mov.w	r2, #1073741824	; 0x40000000
    2252:	687b      	ldr	r3, [r7, #4]
    2254:	f8c2 3630 	str.w	r3, [r2, #1584]	; 0x630
    2258:	bf00      	nop
    225a:	371c      	adds	r7, #28
    225c:	46bd      	mov	sp, r7
    225e:	f85d 7b04 	ldr.w	r7, [sp], #4
    2262:	4770      	bx	lr
    2264:	00045dd2 	.word	0x00045dd2

00002268 <Chip_SYSCON_SetFLASHAccess>:
    2268:	b480      	push	{r7}
    226a:	b085      	sub	sp, #20
    226c:	af00      	add	r7, sp, #0
    226e:	4603      	mov	r3, r0
    2270:	71fb      	strb	r3, [r7, #7]
    2272:	f04f 4380 	mov.w	r3, #1073741824	; 0x40000000
    2276:	f8d3 3400 	ldr.w	r3, [r3, #1024]	; 0x400
    227a:	f423 4370 	bic.w	r3, r3, #61440	; 0xf000
    227e:	60fb      	str	r3, [r7, #12]
    2280:	f04f 4180 	mov.w	r1, #1073741824	; 0x40000000
    2284:	79fb      	ldrb	r3, [r7, #7]
    2286:	031a      	lsls	r2, r3, #12
    2288:	68fb      	ldr	r3, [r7, #12]
    228a:	4313      	orrs	r3, r2
    228c:	f8c1 3400 	str.w	r3, [r1, #1024]	; 0x400
    2290:	bf00      	nop
    2292:	3714      	adds	r7, #20
    2294:	46bd      	mov	sp, r7
    2296:	f85d 7b04 	ldr.w	r7, [sp], #4
    229a:	4770      	bx	lr

0000229c <Chip_Clock_SetMain_A_ClockSource>:
    229c:	b480      	push	{r7}
    229e:	b083      	sub	sp, #12
    22a0:	af00      	add	r7, sp, #0
    22a2:	4603      	mov	r3, r0
    22a4:	71fb      	strb	r3, [r7, #7]
    22a6:	f04f 4280 	mov.w	r2, #1073741824	; 0x40000000
    22aa:	79fb      	ldrb	r3, [r7, #7]
    22ac:	f8c2 3280 	str.w	r3, [r2, #640]	; 0x280
    22b0:	bf00      	nop
    22b2:	370c      	adds	r7, #12
    22b4:	46bd      	mov	sp, r7
    22b6:	f85d 7b04 	ldr.w	r7, [sp], #4
    22ba:	4770      	bx	lr

000022bc <Chip_Clock_SetMain_B_ClockSource>:
    22bc:	b480      	push	{r7}
    22be:	b083      	sub	sp, #12
    22c0:	af00      	add	r7, sp, #0
    22c2:	4603      	mov	r3, r0
    22c4:	71fb      	strb	r3, [r7, #7]
    22c6:	f04f 4280 	mov.w	r2, #1073741824	; 0x40000000
    22ca:	79fb      	ldrb	r3, [r7, #7]
    22cc:	f8c2 3284 	str.w	r3, [r2, #644]	; 0x284
    22d0:	bf00      	nop
    22d2:	370c      	adds	r7, #12
    22d4:	46bd      	mov	sp, r7
    22d6:	f85d 7b04 	ldr.w	r7, [sp], #4
    22da:	4770      	bx	lr

000022dc <Chip_Clock_SetAsyncSysconClockSource>:
    22dc:	b480      	push	{r7}
    22de:	b083      	sub	sp, #12
    22e0:	af00      	add	r7, sp, #0
    22e2:	4603      	mov	r3, r0
    22e4:	71fb      	strb	r3, [r7, #7]
    22e6:	4a04      	ldr	r2, [pc, #16]	; (22f8 <Chip_Clock_SetAsyncSysconClockSource+0x1c>)
    22e8:	79fb      	ldrb	r3, [r7, #7]
    22ea:	6213      	str	r3, [r2, #32]
    22ec:	bf00      	nop
    22ee:	370c      	adds	r7, #12
    22f0:	46bd      	mov	sp, r7
    22f2:	f85d 7b04 	ldr.w	r7, [sp], #4
    22f6:	4770      	bx	lr
    22f8:	40040000 	.word	0x40040000

000022fc <Chip_Clock_SetMainClockSource>:
    22fc:	b580      	push	{r7, lr}
    22fe:	b084      	sub	sp, #16
    2300:	af00      	add	r7, sp, #0
    2302:	4603      	mov	r3, r0
    2304:	71fb      	strb	r3, [r7, #7]
    2306:	79fb      	ldrb	r3, [r7, #7]
    2308:	60fb      	str	r3, [r7, #12]
    230a:	68fb      	ldr	r3, [r7, #12]
    230c:	2b03      	cmp	r3, #3
    230e:	d907      	bls.n	2320 <Chip_Clock_SetMainClockSource+0x24>
    2310:	68fb      	ldr	r3, [r7, #12]
    2312:	b2db      	uxtb	r3, r3
    2314:	3b04      	subs	r3, #4
    2316:	b2db      	uxtb	r3, r3
    2318:	4618      	mov	r0, r3
    231a:	f7ff ffcf 	bl	22bc <Chip_Clock_SetMain_B_ClockSource>
    231e:	e007      	b.n	2330 <Chip_Clock_SetMainClockSource+0x34>
    2320:	68fb      	ldr	r3, [r7, #12]
    2322:	b2db      	uxtb	r3, r3
    2324:	4618      	mov	r0, r3
    2326:	f7ff ffb9 	bl	229c <Chip_Clock_SetMain_A_ClockSource>
    232a:	2000      	movs	r0, #0
    232c:	f7ff ffc6 	bl	22bc <Chip_Clock_SetMain_B_ClockSource>
    2330:	bf00      	nop
    2332:	3710      	adds	r7, #16
    2334:	46bd      	mov	sp, r7
    2336:	bd80      	pop	{r7, pc}

00002338 <setupFlashClocks>:
    2338:	b580      	push	{r7, lr}
    233a:	b082      	sub	sp, #8
    233c:	af00      	add	r7, sp, #0
    233e:	6078      	str	r0, [r7, #4]
    2340:	687b      	ldr	r3, [r7, #4]
    2342:	4a13      	ldr	r2, [pc, #76]	; (2390 <setupFlashClocks+0x58>)
    2344:	4293      	cmp	r3, r2
    2346:	d803      	bhi.n	2350 <setupFlashClocks+0x18>
    2348:	2000      	movs	r0, #0
    234a:	f7ff ff8d 	bl	2268 <Chip_SYSCON_SetFLASHAccess>
    234e:	e01a      	b.n	2386 <setupFlashClocks+0x4e>
    2350:	687b      	ldr	r3, [r7, #4]
    2352:	4a10      	ldr	r2, [pc, #64]	; (2394 <setupFlashClocks+0x5c>)
    2354:	4293      	cmp	r3, r2
    2356:	d803      	bhi.n	2360 <setupFlashClocks+0x28>
    2358:	2001      	movs	r0, #1
    235a:	f7ff ff85 	bl	2268 <Chip_SYSCON_SetFLASHAccess>
    235e:	e012      	b.n	2386 <setupFlashClocks+0x4e>
    2360:	687b      	ldr	r3, [r7, #4]
    2362:	4a0d      	ldr	r2, [pc, #52]	; (2398 <setupFlashClocks+0x60>)
    2364:	4293      	cmp	r3, r2
    2366:	d803      	bhi.n	2370 <setupFlashClocks+0x38>
    2368:	2002      	movs	r0, #2
    236a:	f7ff ff7d 	bl	2268 <Chip_SYSCON_SetFLASHAccess>
    236e:	e00a      	b.n	2386 <setupFlashClocks+0x4e>
    2370:	687b      	ldr	r3, [r7, #4]
    2372:	4a0a      	ldr	r2, [pc, #40]	; (239c <setupFlashClocks+0x64>)
    2374:	4293      	cmp	r3, r2
    2376:	d803      	bhi.n	2380 <setupFlashClocks+0x48>
    2378:	2003      	movs	r0, #3
    237a:	f7ff ff75 	bl	2268 <Chip_SYSCON_SetFLASHAccess>
    237e:	e002      	b.n	2386 <setupFlashClocks+0x4e>
    2380:	2004      	movs	r0, #4
    2382:	f7ff ff71 	bl	2268 <Chip_SYSCON_SetFLASHAccess>
    2386:	bf00      	nop
    2388:	3708      	adds	r7, #8
    238a:	46bd      	mov	sp, r7
    238c:	bd80      	pop	{r7, pc}
    238e:	bf00      	nop
    2390:	00b71b00 	.word	0x00b71b00
    2394:	01c9c380 	.word	0x01c9c380
    2398:	03938700 	.word	0x03938700
    239c:	0510ff40 	.word	0x0510ff40

000023a0 <Chip_SetupFROClocking>:
    23a0:	b580      	push	{r7, lr}
    23a2:	b082      	sub	sp, #8
    23a4:	af00      	add	r7, sp, #0
    23a6:	6078      	str	r0, [r7, #4]
    23a8:	687b      	ldr	r3, [r7, #4]
    23aa:	4a15      	ldr	r2, [pc, #84]	; (2400 <Chip_SetupFROClocking+0x60>)
    23ac:	4293      	cmp	r3, r2
    23ae:	d007      	beq.n	23c0 <Chip_SetupFROClocking+0x20>
    23b0:	687b      	ldr	r3, [r7, #4]
    23b2:	4a14      	ldr	r2, [pc, #80]	; (2404 <Chip_SetupFROClocking+0x64>)
    23b4:	4293      	cmp	r3, r2
    23b6:	d003      	beq.n	23c0 <Chip_SetupFROClocking+0x20>
    23b8:	687b      	ldr	r3, [r7, #4]
    23ba:	4a13      	ldr	r2, [pc, #76]	; (2408 <Chip_SetupFROClocking+0x68>)
    23bc:	4293      	cmp	r3, r2
    23be:	d119      	bne.n	23f4 <Chip_SetupFROClocking+0x54>
    23c0:	2010      	movs	r0, #16
    23c2:	f7ff ff0b 	bl	21dc <Chip_SYSCON_PowerUp>
    23c6:	2000      	movs	r0, #0
    23c8:	f7ff ff98 	bl	22fc <Chip_Clock_SetMainClockSource>
    23cc:	6878      	ldr	r0, [r7, #4]
    23ce:	f7ff ffb3 	bl	2338 <setupFlashClocks>
    23d2:	2001      	movs	r0, #1
    23d4:	f7ff feea 	bl	21ac <Chip_SYSCON_Enable_ASYNC_Syscon>
    23d8:	2001      	movs	r0, #1
    23da:	f7ff ff7f 	bl	22dc <Chip_Clock_SetAsyncSysconClockSource>
    23de:	687b      	ldr	r3, [r7, #4]
    23e0:	4a07      	ldr	r2, [pc, #28]	; (2400 <Chip_SetupFROClocking+0x60>)
    23e2:	4293      	cmp	r3, r2
    23e4:	d908      	bls.n	23f8 <Chip_SetupFROClocking+0x58>
    23e6:	6878      	ldr	r0, [r7, #4]
    23e8:	f7ff fa14 	bl	1814 <Chip_POWER_SetFROHFRate>
    23ec:	2003      	movs	r0, #3
    23ee:	f7ff ff85 	bl	22fc <Chip_Clock_SetMainClockSource>
    23f2:	e002      	b.n	23fa <Chip_SetupFROClocking+0x5a>
    23f4:	bf00      	nop
    23f6:	e000      	b.n	23fa <Chip_SetupFROClocking+0x5a>
    23f8:	bf00      	nop
    23fa:	3708      	adds	r7, #8
    23fc:	46bd      	mov	sp, r7
    23fe:	bd80      	pop	{r7, pc}
    2400:	00b71b00 	.word	0x00b71b00
    2404:	02dc6c00 	.word	0x02dc6c00
    2408:	05b8d800 	.word	0x05b8d800

0000240c <Chip_TIMER_Reset>:
    240c:	b480      	push	{r7}
    240e:	b085      	sub	sp, #20
    2410:	af00      	add	r7, sp, #0
    2412:	6078      	str	r0, [r7, #4]
    2414:	687b      	ldr	r3, [r7, #4]
    2416:	685b      	ldr	r3, [r3, #4]
    2418:	60fb      	str	r3, [r7, #12]
    241a:	687b      	ldr	r3, [r7, #4]
    241c:	2200      	movs	r2, #0
    241e:	605a      	str	r2, [r3, #4]
    2420:	687b      	ldr	r3, [r7, #4]
    2422:	2201      	movs	r2, #1
    2424:	609a      	str	r2, [r3, #8]
    2426:	687b      	ldr	r3, [r7, #4]
    2428:	2202      	movs	r2, #2
    242a:	605a      	str	r2, [r3, #4]
    242c:	bf00      	nop
    242e:	687b      	ldr	r3, [r7, #4]
    2430:	689b      	ldr	r3, [r3, #8]
    2432:	2b00      	cmp	r3, #0
    2434:	d1fb      	bne.n	242e <Chip_TIMER_Reset+0x22>
    2436:	687b      	ldr	r3, [r7, #4]
    2438:	68fa      	ldr	r2, [r7, #12]
    243a:	605a      	str	r2, [r3, #4]
    243c:	bf00      	nop
    243e:	3714      	adds	r7, #20
    2440:	46bd      	mov	sp, r7
    2442:	f85d 7b04 	ldr.w	r7, [sp], #4
    2446:	4770      	bx	lr

00002448 <Chip_SYSCON_SetUSARTFRGCtrl>:
    2448:	b480      	push	{r7}
    244a:	b083      	sub	sp, #12
    244c:	af00      	add	r7, sp, #0
    244e:	4603      	mov	r3, r0
    2450:	460a      	mov	r2, r1
    2452:	71fb      	strb	r3, [r7, #7]
    2454:	4613      	mov	r3, r2
    2456:	71bb      	strb	r3, [r7, #6]
    2458:	f04f 4180 	mov.w	r1, #1073741824	; 0x40000000
    245c:	79fb      	ldrb	r3, [r7, #7]
    245e:	021a      	lsls	r2, r3, #8
    2460:	79bb      	ldrb	r3, [r7, #6]
    2462:	4313      	orrs	r3, r2
    2464:	f8c1 33a0 	str.w	r3, [r1, #928]	; 0x3a0
    2468:	bf00      	nop
    246a:	370c      	adds	r7, #12
    246c:	46bd      	mov	sp, r7
    246e:	f85d 7b04 	ldr.w	r7, [sp], #4
    2472:	4770      	bx	lr

00002474 <Chip_Clock_SetFLEXCOMMClockSource>:
    2474:	b480      	push	{r7}
    2476:	b083      	sub	sp, #12
    2478:	af00      	add	r7, sp, #0
    247a:	6078      	str	r0, [r7, #4]
    247c:	460b      	mov	r3, r1
    247e:	70fb      	strb	r3, [r7, #3]
    2480:	f04f 4180 	mov.w	r1, #1073741824	; 0x40000000
    2484:	78fa      	ldrb	r2, [r7, #3]
    2486:	687b      	ldr	r3, [r7, #4]
    2488:	33ac      	adds	r3, #172	; 0xac
    248a:	f841 2023 	str.w	r2, [r1, r3, lsl #2]
    248e:	bf00      	nop
    2490:	370c      	adds	r7, #12
    2492:	46bd      	mov	sp, r7
    2494:	f85d 7b04 	ldr.w	r7, [sp], #4
    2498:	4770      	bx	lr
    249a:	bf00      	nop

0000249c <Chip_Clock_SetFRGClockSource>:
    249c:	b480      	push	{r7}
    249e:	b083      	sub	sp, #12
    24a0:	af00      	add	r7, sp, #0
    24a2:	4603      	mov	r3, r0
    24a4:	71fb      	strb	r3, [r7, #7]
    24a6:	f04f 4280 	mov.w	r2, #1073741824	; 0x40000000
    24aa:	79fb      	ldrb	r3, [r7, #7]
    24ac:	f8c2 32e8 	str.w	r3, [r2, #744]	; 0x2e8
    24b0:	bf00      	nop
    24b2:	370c      	adds	r7, #12
    24b4:	46bd      	mov	sp, r7
    24b6:	f85d 7b04 	ldr.w	r7, [sp], #4
    24ba:	4770      	bx	lr

000024bc <Chip_Clock_GetFRGClockSource>:
    24bc:	b480      	push	{r7}
    24be:	af00      	add	r7, sp, #0
    24c0:	f04f 4380 	mov.w	r3, #1073741824	; 0x40000000
    24c4:	f8d3 32e8 	ldr.w	r3, [r3, #744]	; 0x2e8
    24c8:	b2db      	uxtb	r3, r3
    24ca:	f003 0307 	and.w	r3, r3, #7
    24ce:	b2db      	uxtb	r3, r3
    24d0:	4618      	mov	r0, r3
    24d2:	46bd      	mov	sp, r7
    24d4:	f85d 7b04 	ldr.w	r7, [sp], #4
    24d8:	4770      	bx	lr
    24da:	bf00      	nop

000024dc <Chip_UART_SendByte>:
    24dc:	b480      	push	{r7}
    24de:	b083      	sub	sp, #12
    24e0:	af00      	add	r7, sp, #0
    24e2:	6078      	str	r0, [r7, #4]
    24e4:	460b      	mov	r3, r1
    24e6:	70fb      	strb	r3, [r7, #3]
    24e8:	78fa      	ldrb	r2, [r7, #3]
    24ea:	687b      	ldr	r3, [r7, #4]
    24ec:	f8c3 2e20 	str.w	r2, [r3, #3616]	; 0xe20
    24f0:	bf00      	nop
    24f2:	370c      	adds	r7, #12
    24f4:	46bd      	mov	sp, r7
    24f6:	f85d 7b04 	ldr.w	r7, [sp], #4
    24fa:	4770      	bx	lr

000024fc <Chip_UART_GetFIFOStatus>:
    24fc:	b480      	push	{r7}
    24fe:	b083      	sub	sp, #12
    2500:	af00      	add	r7, sp, #0
    2502:	6078      	str	r0, [r7, #4]
    2504:	687b      	ldr	r3, [r7, #4]
    2506:	f8d3 3e04 	ldr.w	r3, [r3, #3588]	; 0xe04
    250a:	4618      	mov	r0, r3
    250c:	370c      	adds	r7, #12
    250e:	46bd      	mov	sp, r7
    2510:	f85d 7b04 	ldr.w	r7, [sp], #4
    2514:	4770      	bx	lr
    2516:	bf00      	nop

00002518 <Chip_UART_SetFIFOCfg>:
    2518:	b480      	push	{r7}
    251a:	b083      	sub	sp, #12
    251c:	af00      	add	r7, sp, #0
    251e:	6078      	str	r0, [r7, #4]
    2520:	6039      	str	r1, [r7, #0]
    2522:	687b      	ldr	r3, [r7, #4]
    2524:	f8d3 2e00 	ldr.w	r2, [r3, #3584]	; 0xe00
    2528:	4b06      	ldr	r3, [pc, #24]	; (2544 <Chip_UART_SetFIFOCfg+0x2c>)
    252a:	4013      	ands	r3, r2
    252c:	683a      	ldr	r2, [r7, #0]
    252e:	431a      	orrs	r2, r3
    2530:	687b      	ldr	r3, [r7, #4]
    2532:	f8c3 2e00 	str.w	r2, [r3, #3584]	; 0xe00
    2536:	bf00      	nop
    2538:	370c      	adds	r7, #12
    253a:	46bd      	mov	sp, r7
    253c:	f85d 7b04 	ldr.w	r7, [sp], #4
    2540:	4770      	bx	lr
    2542:	bf00      	nop
    2544:	0007f033 	.word	0x0007f033

00002548 <Chip_UART_FlushFIFOs>:
    2548:	b580      	push	{r7, lr}
    254a:	b082      	sub	sp, #8
    254c:	af00      	add	r7, sp, #0
    254e:	6078      	str	r0, [r7, #4]
    2550:	f44f 3140 	mov.w	r1, #196608	; 0x30000
    2554:	6878      	ldr	r0, [r7, #4]
    2556:	f7ff ffdf 	bl	2518 <Chip_UART_SetFIFOCfg>
    255a:	bf00      	nop
    255c:	3708      	adds	r7, #8
    255e:	46bd      	mov	sp, r7
    2560:	bd80      	pop	{r7, pc}
    2562:	bf00      	nop

00002564 <_UART_DivClk>:
    2564:	b480      	push	{r7}
    2566:	b087      	sub	sp, #28
    2568:	af00      	add	r7, sp, #0
    256a:	6078      	str	r0, [r7, #4]
    256c:	6039      	str	r1, [r7, #0]
    256e:	687b      	ldr	r3, [r7, #4]
    2570:	0e1b      	lsrs	r3, r3, #24
    2572:	617b      	str	r3, [r7, #20]
    2574:	687b      	ldr	r3, [r7, #4]
    2576:	021b      	lsls	r3, r3, #8
    2578:	613b      	str	r3, [r7, #16]
    257a:	683b      	ldr	r3, [r7, #0]
    257c:	f503 7380 	add.w	r3, r3, #256	; 0x100
    2580:	603b      	str	r3, [r7, #0]
    2582:	f04f 7280 	mov.w	r2, #16777216	; 0x1000000
    2586:	683b      	ldr	r3, [r7, #0]
    2588:	fbb2 f3f3 	udiv	r3, r2, r3
    258c:	60fb      	str	r3, [r7, #12]
    258e:	68fb      	ldr	r3, [r7, #12]
    2590:	683a      	ldr	r2, [r7, #0]
    2592:	fb02 f303 	mul.w	r3, r2, r3
    2596:	f1c3 7380 	rsb	r3, r3, #16777216	; 0x1000000
    259a:	60bb      	str	r3, [r7, #8]
    259c:	68fb      	ldr	r3, [r7, #12]
    259e:	697a      	ldr	r2, [r7, #20]
    25a0:	fb02 f303 	mul.w	r3, r2, r3
    25a4:	021a      	lsls	r2, r3, #8
    25a6:	68bb      	ldr	r3, [r7, #8]
    25a8:	6979      	ldr	r1, [r7, #20]
    25aa:	fb01 f303 	mul.w	r3, r1, r3
    25ae:	0219      	lsls	r1, r3, #8
    25b0:	693b      	ldr	r3, [r7, #16]
    25b2:	4419      	add	r1, r3
    25b4:	683b      	ldr	r3, [r7, #0]
    25b6:	fbb1 f3f3 	udiv	r3, r1, r3
    25ba:	4413      	add	r3, r2
    25bc:	4618      	mov	r0, r3
    25be:	371c      	adds	r7, #28
    25c0:	46bd      	mov	sp, r7
    25c2:	f85d 7b04 	ldr.w	r7, [sp], #4
    25c6:	4770      	bx	lr

000025c8 <_UART_GetHighDiv>:
    25c8:	b480      	push	{r7}
    25ca:	b085      	sub	sp, #20
    25cc:	af00      	add	r7, sp, #0
    25ce:	6078      	str	r0, [r7, #4]
    25d0:	460b      	mov	r3, r1
    25d2:	70fb      	strb	r3, [r7, #3]
    25d4:	78fb      	ldrb	r3, [r7, #3]
    25d6:	2b00      	cmp	r3, #0
    25d8:	d001      	beq.n	25de <_UART_GetHighDiv+0x16>
    25da:	2310      	movs	r3, #16
    25dc:	e000      	b.n	25e0 <_UART_GetHighDiv+0x18>
    25de:	2305      	movs	r3, #5
    25e0:	60bb      	str	r3, [r7, #8]
    25e2:	2310      	movs	r3, #16
    25e4:	60fb      	str	r3, [r7, #12]
    25e6:	e00d      	b.n	2604 <_UART_GetHighDiv+0x3c>
    25e8:	68fa      	ldr	r2, [r7, #12]
    25ea:	687b      	ldr	r3, [r7, #4]
    25ec:	fbb3 f1f2 	udiv	r1, r3, r2
    25f0:	fb02 f201 	mul.w	r2, r2, r1
    25f4:	1a9b      	subs	r3, r3, r2
    25f6:	2b00      	cmp	r3, #0
    25f8:	d101      	bne.n	25fe <_UART_GetHighDiv+0x36>
    25fa:	68fb      	ldr	r3, [r7, #12]
    25fc:	e007      	b.n	260e <_UART_GetHighDiv+0x46>
    25fe:	68fb      	ldr	r3, [r7, #12]
    2600:	3b01      	subs	r3, #1
    2602:	60fb      	str	r3, [r7, #12]
    2604:	68fa      	ldr	r2, [r7, #12]
    2606:	68bb      	ldr	r3, [r7, #8]
    2608:	429a      	cmp	r2, r3
    260a:	daed      	bge.n	25e8 <_UART_GetHighDiv+0x20>
    260c:	2300      	movs	r3, #0
    260e:	4618      	mov	r0, r3
    2610:	3714      	adds	r7, #20
    2612:	46bd      	mov	sp, r7
    2614:	f85d 7b04 	ldr.w	r7, [sp], #4
    2618:	4770      	bx	lr
    261a:	bf00      	nop

0000261c <_CalcErr>:
    261c:	b480      	push	{r7}
    261e:	b087      	sub	sp, #28
    2620:	af00      	add	r7, sp, #0
    2622:	60f8      	str	r0, [r7, #12]
    2624:	60b9      	str	r1, [r7, #8]
    2626:	607a      	str	r2, [r7, #4]
    2628:	68fb      	ldr	r3, [r7, #12]
    262a:	68ba      	ldr	r2, [r7, #8]
    262c:	fbb3 f2f2 	udiv	r2, r3, r2
    2630:	68b9      	ldr	r1, [r7, #8]
    2632:	fb01 f202 	mul.w	r2, r1, r2
    2636:	1a9b      	subs	r3, r3, r2
    2638:	617b      	str	r3, [r7, #20]
    263a:	68fa      	ldr	r2, [r7, #12]
    263c:	68bb      	ldr	r3, [r7, #8]
    263e:	fbb2 f3f3 	udiv	r3, r2, r3
    2642:	3301      	adds	r3, #1
    2644:	68ba      	ldr	r2, [r7, #8]
    2646:	fb02 f203 	mul.w	r2, r2, r3
    264a:	68fb      	ldr	r3, [r7, #12]
    264c:	1ad3      	subs	r3, r2, r3
    264e:	613b      	str	r3, [r7, #16]
    2650:	693a      	ldr	r2, [r7, #16]
    2652:	697b      	ldr	r3, [r7, #20]
    2654:	429a      	cmp	r2, r3
    2656:	d201      	bcs.n	265c <_CalcErr+0x40>
    2658:	693b      	ldr	r3, [r7, #16]
    265a:	617b      	str	r3, [r7, #20]
    265c:	687b      	ldr	r3, [r7, #4]
    265e:	681a      	ldr	r2, [r3, #0]
    2660:	697b      	ldr	r3, [r7, #20]
    2662:	429a      	cmp	r2, r3
    2664:	d801      	bhi.n	266a <_CalcErr+0x4e>
    2666:	2300      	movs	r3, #0
    2668:	e00a      	b.n	2680 <_CalcErr+0x64>
    266a:	687b      	ldr	r3, [r7, #4]
    266c:	697a      	ldr	r2, [r7, #20]
    266e:	601a      	str	r2, [r3, #0]
    2670:	693a      	ldr	r2, [r7, #16]
    2672:	697b      	ldr	r3, [r7, #20]
    2674:	429a      	cmp	r2, r3
    2676:	d101      	bne.n	267c <_CalcErr+0x60>
    2678:	2302      	movs	r3, #2
    267a:	e000      	b.n	267e <_CalcErr+0x62>
    267c:	2301      	movs	r3, #1
    267e:	bf00      	nop
    2680:	4618      	mov	r0, r3
    2682:	371c      	adds	r7, #28
    2684:	46bd      	mov	sp, r7
    2686:	f85d 7b04 	ldr.w	r7, [sp], #4
    268a:	4770      	bx	lr

0000268c <_UART_CalcDiv>:
    268c:	b580      	push	{r7, lr}
    268e:	b086      	sub	sp, #24
    2690:	af00      	add	r7, sp, #0
    2692:	6078      	str	r0, [r7, #4]
    2694:	2300      	movs	r3, #0
    2696:	617b      	str	r3, [r7, #20]
    2698:	f04f 33ff 	mov.w	r3, #4294967295
    269c:	60fb      	str	r3, [r7, #12]
    269e:	687b      	ldr	r3, [r7, #4]
    26a0:	895b      	ldrh	r3, [r3, #10]
    26a2:	2b00      	cmp	r3, #0
    26a4:	d12e      	bne.n	2704 <_UART_CalcDiv+0x78>
    26a6:	687b      	ldr	r3, [r7, #4]
    26a8:	7a1b      	ldrb	r3, [r3, #8]
    26aa:	2b00      	cmp	r3, #0
    26ac:	d002      	beq.n	26b4 <_UART_CalcDiv+0x28>
    26ae:	687b      	ldr	r3, [r7, #4]
    26b0:	7a1b      	ldrb	r3, [r3, #8]
    26b2:	e000      	b.n	26b6 <_UART_CalcDiv+0x2a>
    26b4:	2310      	movs	r3, #16
    26b6:	617b      	str	r3, [r7, #20]
    26b8:	e024      	b.n	2704 <_UART_CalcDiv+0x78>
    26ba:	687b      	ldr	r3, [r7, #4]
    26bc:	6818      	ldr	r0, [r3, #0]
    26be:	687b      	ldr	r3, [r7, #4]
    26c0:	685b      	ldr	r3, [r3, #4]
    26c2:	697a      	ldr	r2, [r7, #20]
    26c4:	fb02 f303 	mul.w	r3, r2, r3
    26c8:	f107 020c 	add.w	r2, r7, #12
    26cc:	4619      	mov	r1, r3
    26ce:	f7ff ffa5 	bl	261c <_CalcErr>
    26d2:	6138      	str	r0, [r7, #16]
    26d4:	693b      	ldr	r3, [r7, #16]
    26d6:	2b00      	cmp	r3, #0
    26d8:	d010      	beq.n	26fc <_UART_CalcDiv+0x70>
    26da:	693b      	ldr	r3, [r7, #16]
    26dc:	b29b      	uxth	r3, r3
    26de:	3b01      	subs	r3, #1
    26e0:	b29a      	uxth	r2, r3
    26e2:	687b      	ldr	r3, [r7, #4]
    26e4:	815a      	strh	r2, [r3, #10]
    26e6:	687b      	ldr	r3, [r7, #4]
    26e8:	7a1b      	ldrb	r3, [r3, #8]
    26ea:	461a      	mov	r2, r3
    26ec:	697b      	ldr	r3, [r7, #20]
    26ee:	429a      	cmp	r2, r3
    26f0:	d00c      	beq.n	270c <_UART_CalcDiv+0x80>
    26f2:	697b      	ldr	r3, [r7, #20]
    26f4:	b2da      	uxtb	r2, r3
    26f6:	687b      	ldr	r3, [r7, #4]
    26f8:	721a      	strb	r2, [r3, #8]
    26fa:	e000      	b.n	26fe <_UART_CalcDiv+0x72>
    26fc:	bf00      	nop
    26fe:	697b      	ldr	r3, [r7, #20]
    2700:	3b01      	subs	r3, #1
    2702:	617b      	str	r3, [r7, #20]
    2704:	697b      	ldr	r3, [r7, #20]
    2706:	2b04      	cmp	r3, #4
    2708:	dcd7      	bgt.n	26ba <_UART_CalcDiv+0x2e>
    270a:	e000      	b.n	270e <_UART_CalcDiv+0x82>
    270c:	bf00      	nop
    270e:	687b      	ldr	r3, [r7, #4]
    2710:	7a1b      	ldrb	r3, [r3, #8]
    2712:	2b00      	cmp	r3, #0
    2714:	d101      	bne.n	271a <_UART_CalcDiv+0x8e>
    2716:	4b15      	ldr	r3, [pc, #84]	; (276c <_UART_CalcDiv+0xe0>)
    2718:	e024      	b.n	2764 <_UART_CalcDiv+0xd8>
    271a:	687b      	ldr	r3, [r7, #4]
    271c:	895a      	ldrh	r2, [r3, #10]
    271e:	687b      	ldr	r3, [r7, #4]
    2720:	6819      	ldr	r1, [r3, #0]
    2722:	687b      	ldr	r3, [r7, #4]
    2724:	685b      	ldr	r3, [r3, #4]
    2726:	6878      	ldr	r0, [r7, #4]
    2728:	7a00      	ldrb	r0, [r0, #8]
    272a:	fb00 f303 	mul.w	r3, r0, r3
    272e:	fbb1 f3f3 	udiv	r3, r1, r3
    2732:	b29b      	uxth	r3, r3
    2734:	4413      	add	r3, r2
    2736:	b29a      	uxth	r2, r3
    2738:	687b      	ldr	r3, [r7, #4]
    273a:	815a      	strh	r2, [r3, #10]
    273c:	687b      	ldr	r3, [r7, #4]
    273e:	895b      	ldrh	r3, [r3, #10]
    2740:	2b00      	cmp	r3, #0
    2742:	d101      	bne.n	2748 <_UART_CalcDiv+0xbc>
    2744:	4b09      	ldr	r3, [pc, #36]	; (276c <_UART_CalcDiv+0xe0>)
    2746:	e00d      	b.n	2764 <_UART_CalcDiv+0xd8>
    2748:	687b      	ldr	r3, [r7, #4]
    274a:	681b      	ldr	r3, [r3, #0]
    274c:	687a      	ldr	r2, [r7, #4]
    274e:	8952      	ldrh	r2, [r2, #10]
    2750:	4611      	mov	r1, r2
    2752:	687a      	ldr	r2, [r7, #4]
    2754:	7a12      	ldrb	r2, [r2, #8]
    2756:	fb02 f201 	mul.w	r2, r2, r1
    275a:	fbb3 f2f2 	udiv	r2, r3, r2
    275e:	687b      	ldr	r3, [r7, #4]
    2760:	605a      	str	r2, [r3, #4]
    2762:	2300      	movs	r3, #0
    2764:	4618      	mov	r0, r3
    2766:	3718      	adds	r7, #24
    2768:	46bd      	mov	sp, r7
    276a:	bd80      	pop	{r7, pc}
    276c:	00080006 	.word	0x00080006

00002770 <_UART_CalcMul>:
    2770:	b580      	push	{r7, lr}
    2772:	b08a      	sub	sp, #40	; 0x28
    2774:	af00      	add	r7, sp, #0
    2776:	6078      	str	r0, [r7, #4]
    2778:	f04f 33ff 	mov.w	r3, #4294967295
    277c:	60bb      	str	r3, [r7, #8]
    277e:	687b      	ldr	r3, [r7, #4]
    2780:	681b      	ldr	r3, [r3, #0]
    2782:	61fb      	str	r3, [r7, #28]
    2784:	687b      	ldr	r3, [r7, #4]
    2786:	7a1b      	ldrb	r3, [r3, #8]
    2788:	61bb      	str	r3, [r7, #24]
    278a:	2300      	movs	r3, #0
    278c:	627b      	str	r3, [r7, #36]	; 0x24
    278e:	e04c      	b.n	282a <_UART_CalcMul+0xba>
    2790:	69bb      	ldr	r3, [r7, #24]
    2792:	623b      	str	r3, [r7, #32]
    2794:	6a79      	ldr	r1, [r7, #36]	; 0x24
    2796:	69f8      	ldr	r0, [r7, #28]
    2798:	f7ff fee4 	bl	2564 <_UART_DivClk>
    279c:	6178      	str	r0, [r7, #20]
    279e:	687b      	ldr	r3, [r7, #4]
    27a0:	685b      	ldr	r3, [r3, #4]
    27a2:	f107 0208 	add.w	r2, r7, #8
    27a6:	4619      	mov	r1, r3
    27a8:	6978      	ldr	r0, [r7, #20]
    27aa:	f7ff ff37 	bl	261c <_CalcErr>
    27ae:	4603      	mov	r3, r0
    27b0:	613b      	str	r3, [r7, #16]
    27b2:	687b      	ldr	r3, [r7, #4]
    27b4:	685b      	ldr	r3, [r3, #4]
    27b6:	697a      	ldr	r2, [r7, #20]
    27b8:	fbb2 f2f3 	udiv	r2, r2, r3
    27bc:	693b      	ldr	r3, [r7, #16]
    27be:	4413      	add	r3, r2
    27c0:	3b01      	subs	r3, #1
    27c2:	60fb      	str	r3, [r7, #12]
    27c4:	693b      	ldr	r3, [r7, #16]
    27c6:	2b00      	cmp	r3, #0
    27c8:	d02b      	beq.n	2822 <_UART_CalcMul+0xb2>
    27ca:	69bb      	ldr	r3, [r7, #24]
    27cc:	2b00      	cmp	r3, #0
    27ce:	d009      	beq.n	27e4 <_UART_CalcMul+0x74>
    27d0:	68fb      	ldr	r3, [r7, #12]
    27d2:	69ba      	ldr	r2, [r7, #24]
    27d4:	fbb3 f2f2 	udiv	r2, r3, r2
    27d8:	69b9      	ldr	r1, [r7, #24]
    27da:	fb01 f202 	mul.w	r2, r1, r2
    27de:	1a9b      	subs	r3, r3, r2
    27e0:	2b00      	cmp	r3, #0
    27e2:	d11e      	bne.n	2822 <_UART_CalcMul+0xb2>
    27e4:	69bb      	ldr	r3, [r7, #24]
    27e6:	2b00      	cmp	r3, #0
    27e8:	d109      	bne.n	27fe <_UART_CalcMul+0x8e>
    27ea:	69bb      	ldr	r3, [r7, #24]
    27ec:	b2db      	uxtb	r3, r3
    27ee:	4619      	mov	r1, r3
    27f0:	68f8      	ldr	r0, [r7, #12]
    27f2:	f7ff fee9 	bl	25c8 <_UART_GetHighDiv>
    27f6:	6238      	str	r0, [r7, #32]
    27f8:	6a3b      	ldr	r3, [r7, #32]
    27fa:	2b00      	cmp	r3, #0
    27fc:	d011      	beq.n	2822 <_UART_CalcMul+0xb2>
    27fe:	6a3b      	ldr	r3, [r7, #32]
    2800:	b2da      	uxtb	r2, r3
    2802:	687b      	ldr	r3, [r7, #4]
    2804:	721a      	strb	r2, [r3, #8]
    2806:	6a7b      	ldr	r3, [r7, #36]	; 0x24
    2808:	b2da      	uxtb	r2, r3
    280a:	687b      	ldr	r3, [r7, #4]
    280c:	725a      	strb	r2, [r3, #9]
    280e:	687b      	ldr	r3, [r7, #4]
    2810:	697a      	ldr	r2, [r7, #20]
    2812:	601a      	str	r2, [r3, #0]
    2814:	693b      	ldr	r3, [r7, #16]
    2816:	b29b      	uxth	r3, r3
    2818:	3b01      	subs	r3, #1
    281a:	b29a      	uxth	r2, r3
    281c:	687b      	ldr	r3, [r7, #4]
    281e:	815a      	strh	r2, [r3, #10]
    2820:	e000      	b.n	2824 <_UART_CalcMul+0xb4>
    2822:	bf00      	nop
    2824:	6a7b      	ldr	r3, [r7, #36]	; 0x24
    2826:	3301      	adds	r3, #1
    2828:	627b      	str	r3, [r7, #36]	; 0x24
    282a:	6a7b      	ldr	r3, [r7, #36]	; 0x24
    282c:	2bff      	cmp	r3, #255	; 0xff
    282e:	d9af      	bls.n	2790 <_UART_CalcMul+0x20>
    2830:	bf00      	nop
    2832:	3728      	adds	r7, #40	; 0x28
    2834:	46bd      	mov	sp, r7
    2836:	bd80      	pop	{r7, pc}

00002838 <Chip_UART_Init>:
    2838:	b580      	push	{r7, lr}
    283a:	b084      	sub	sp, #16
    283c:	af00      	add	r7, sp, #0
    283e:	6078      	str	r0, [r7, #4]
    2840:	2101      	movs	r1, #1
    2842:	6878      	ldr	r0, [r7, #4]
    2844:	f000 f97e 	bl	2b44 <Chip_FLEXCOMM_Init>
    2848:	60f8      	str	r0, [r7, #12]
    284a:	68fb      	ldr	r3, [r7, #12]
    284c:	2b00      	cmp	r3, #0
    284e:	d107      	bne.n	2860 <Chip_UART_Init+0x28>
    2850:	2303      	movs	r3, #3
    2852:	4619      	mov	r1, r3
    2854:	6878      	ldr	r0, [r7, #4]
    2856:	f7ff fe5f 	bl	2518 <Chip_UART_SetFIFOCfg>
    285a:	6878      	ldr	r0, [r7, #4]
    285c:	f7ff fe74 	bl	2548 <Chip_UART_FlushFIFOs>
    2860:	68fb      	ldr	r3, [r7, #12]
    2862:	4618      	mov	r0, r3
    2864:	3710      	adds	r7, #16
    2866:	46bd      	mov	sp, r7
    2868:	bd80      	pop	{r7, pc}
    286a:	bf00      	nop

0000286c <Chip_UART_Send>:
    286c:	b580      	push	{r7, lr}
    286e:	b086      	sub	sp, #24
    2870:	af00      	add	r7, sp, #0
    2872:	60f8      	str	r0, [r7, #12]
    2874:	60b9      	str	r1, [r7, #8]
    2876:	607a      	str	r2, [r7, #4]
    2878:	2300      	movs	r3, #0
    287a:	617b      	str	r3, [r7, #20]
    287c:	68bb      	ldr	r3, [r7, #8]
    287e:	613b      	str	r3, [r7, #16]
    2880:	e00b      	b.n	289a <Chip_UART_Send+0x2e>
    2882:	693b      	ldr	r3, [r7, #16]
    2884:	781b      	ldrb	r3, [r3, #0]
    2886:	4619      	mov	r1, r3
    2888:	68f8      	ldr	r0, [r7, #12]
    288a:	f7ff fe27 	bl	24dc <Chip_UART_SendByte>
    288e:	693b      	ldr	r3, [r7, #16]
    2890:	3301      	adds	r3, #1
    2892:	613b      	str	r3, [r7, #16]
    2894:	697b      	ldr	r3, [r7, #20]
    2896:	3301      	adds	r3, #1
    2898:	617b      	str	r3, [r7, #20]
    289a:	697a      	ldr	r2, [r7, #20]
    289c:	687b      	ldr	r3, [r7, #4]
    289e:	429a      	cmp	r2, r3
    28a0:	da07      	bge.n	28b2 <Chip_UART_Send+0x46>
    28a2:	68f8      	ldr	r0, [r7, #12]
    28a4:	f7ff fe2a 	bl	24fc <Chip_UART_GetFIFOStatus>
    28a8:	4603      	mov	r3, r0
    28aa:	f003 0320 	and.w	r3, r3, #32
    28ae:	2b00      	cmp	r3, #0
    28b0:	d1e7      	bne.n	2882 <Chip_UART_Send+0x16>
    28b2:	697b      	ldr	r3, [r7, #20]
    28b4:	4618      	mov	r0, r3
    28b6:	3718      	adds	r7, #24
    28b8:	46bd      	mov	sp, r7
    28ba:	bd80      	pop	{r7, pc}

000028bc <Chip_UART_SendBlocking>:
    28bc:	b580      	push	{r7, lr}
    28be:	b088      	sub	sp, #32
    28c0:	af00      	add	r7, sp, #0
    28c2:	60f8      	str	r0, [r7, #12]
    28c4:	60b9      	str	r1, [r7, #8]
    28c6:	607a      	str	r2, [r7, #4]
    28c8:	2300      	movs	r3, #0
    28ca:	61fb      	str	r3, [r7, #28]
    28cc:	68bb      	ldr	r3, [r7, #8]
    28ce:	61bb      	str	r3, [r7, #24]
    28d0:	e011      	b.n	28f6 <Chip_UART_SendBlocking+0x3a>
    28d2:	687a      	ldr	r2, [r7, #4]
    28d4:	69b9      	ldr	r1, [r7, #24]
    28d6:	68f8      	ldr	r0, [r7, #12]
    28d8:	f7ff ffc8 	bl	286c <Chip_UART_Send>
    28dc:	6178      	str	r0, [r7, #20]
    28de:	687a      	ldr	r2, [r7, #4]
    28e0:	697b      	ldr	r3, [r7, #20]
    28e2:	1ad3      	subs	r3, r2, r3
    28e4:	607b      	str	r3, [r7, #4]
    28e6:	69fa      	ldr	r2, [r7, #28]
    28e8:	697b      	ldr	r3, [r7, #20]
    28ea:	4413      	add	r3, r2
    28ec:	61fb      	str	r3, [r7, #28]
    28ee:	697b      	ldr	r3, [r7, #20]
    28f0:	69ba      	ldr	r2, [r7, #24]
    28f2:	4413      	add	r3, r2
    28f4:	61bb      	str	r3, [r7, #24]
    28f6:	687b      	ldr	r3, [r7, #4]
    28f8:	2b00      	cmp	r3, #0
    28fa:	dcea      	bgt.n	28d2 <Chip_UART_SendBlocking+0x16>
    28fc:	69fb      	ldr	r3, [r7, #28]
    28fe:	4618      	mov	r0, r3
    2900:	3720      	adds	r7, #32
    2902:	46bd      	mov	sp, r7
    2904:	bd80      	pop	{r7, pc}
    2906:	bf00      	nop

00002908 <Chip_UART_CalculateBaud>:
    2908:	b580      	push	{r7, lr}
    290a:	b082      	sub	sp, #8
    290c:	af00      	add	r7, sp, #0
    290e:	6078      	str	r0, [r7, #4]
    2910:	687b      	ldr	r3, [r7, #4]
    2912:	7a5b      	ldrb	r3, [r3, #9]
    2914:	2b00      	cmp	r3, #0
    2916:	d102      	bne.n	291e <Chip_UART_CalculateBaud+0x16>
    2918:	6878      	ldr	r0, [r7, #4]
    291a:	f7ff ff29 	bl	2770 <_UART_CalcMul>
    291e:	6878      	ldr	r0, [r7, #4]
    2920:	f7ff feb4 	bl	268c <_UART_CalcDiv>
    2924:	4603      	mov	r3, r0
    2926:	4618      	mov	r0, r3
    2928:	3708      	adds	r7, #8
    292a:	46bd      	mov	sp, r7
    292c:	bd80      	pop	{r7, pc}
    292e:	bf00      	nop

00002930 <Chip_UART_SetBaud>:
    2930:	b580      	push	{r7, lr}
    2932:	b086      	sub	sp, #24
    2934:	af00      	add	r7, sp, #0
    2936:	6078      	str	r0, [r7, #4]
    2938:	6039      	str	r1, [r7, #0]
    293a:	6878      	ldr	r0, [r7, #4]
    293c:	f000 f8b4 	bl	2aa8 <Chip_FLEXCOMM_GetIndex>
    2940:	6178      	str	r0, [r7, #20]
    2942:	697b      	ldr	r3, [r7, #20]
    2944:	2b00      	cmp	r3, #0
    2946:	da01      	bge.n	294c <Chip_UART_SetBaud+0x1c>
    2948:	697b      	ldr	r3, [r7, #20]
    294a:	e034      	b.n	29b6 <Chip_UART_SetBaud+0x86>
    294c:	f7ff fdb6 	bl	24bc <Chip_Clock_GetFRGClockSource>
    2950:	4603      	mov	r3, r0
    2952:	2b07      	cmp	r3, #7
    2954:	d102      	bne.n	295c <Chip_UART_SetBaud+0x2c>
    2956:	2002      	movs	r0, #2
    2958:	f7ff fda0 	bl	249c <Chip_Clock_SetFRGClockSource>
    295c:	683b      	ldr	r3, [r7, #0]
    295e:	60fb      	str	r3, [r7, #12]
    2960:	f7ff f912 	bl	1b88 <Chip_Clock_GetFRGInClockRate>
    2964:	4603      	mov	r3, r0
    2966:	60bb      	str	r3, [r7, #8]
    2968:	2300      	movs	r3, #0
    296a:	743b      	strb	r3, [r7, #16]
    296c:	7c3b      	ldrb	r3, [r7, #16]
    296e:	747b      	strb	r3, [r7, #17]
    2970:	7c7b      	ldrb	r3, [r7, #17]
    2972:	b29b      	uxth	r3, r3
    2974:	827b      	strh	r3, [r7, #18]
    2976:	f107 0308 	add.w	r3, r7, #8
    297a:	4618      	mov	r0, r3
    297c:	f7ff ffc4 	bl	2908 <Chip_UART_CalculateBaud>
    2980:	4603      	mov	r3, r0
    2982:	2b00      	cmp	r3, #0
    2984:	d001      	beq.n	298a <Chip_UART_SetBaud+0x5a>
    2986:	2300      	movs	r3, #0
    2988:	e015      	b.n	29b6 <Chip_UART_SetBaud+0x86>
    298a:	7c3b      	ldrb	r3, [r7, #16]
    298c:	3b01      	subs	r3, #1
    298e:	f003 020f 	and.w	r2, r3, #15
    2992:	687b      	ldr	r3, [r7, #4]
    2994:	629a      	str	r2, [r3, #40]	; 0x28
    2996:	8a7b      	ldrh	r3, [r7, #18]
    2998:	3b01      	subs	r3, #1
    299a:	b29a      	uxth	r2, r3
    299c:	687b      	ldr	r3, [r7, #4]
    299e:	621a      	str	r2, [r3, #32]
    29a0:	7c7b      	ldrb	r3, [r7, #17]
    29a2:	21ff      	movs	r1, #255	; 0xff
    29a4:	4618      	mov	r0, r3
    29a6:	f7ff fd4f 	bl	2448 <Chip_SYSCON_SetUSARTFRGCtrl>
    29aa:	697b      	ldr	r3, [r7, #20]
    29ac:	2104      	movs	r1, #4
    29ae:	4618      	mov	r0, r3
    29b0:	f7ff fd60 	bl	2474 <Chip_Clock_SetFLEXCOMMClockSource>
    29b4:	68fb      	ldr	r3, [r7, #12]
    29b6:	4618      	mov	r0, r3
    29b8:	3718      	adds	r7, #24
    29ba:	46bd      	mov	sp, r7
    29bc:	bd80      	pop	{r7, pc}
    29be:	bf00      	nop

000029c0 <Chip_SYSCON_PeriphReset>:
    29c0:	b480      	push	{r7}
    29c2:	b085      	sub	sp, #20
    29c4:	af00      	add	r7, sp, #0
    29c6:	4603      	mov	r3, r0
    29c8:	71fb      	strb	r3, [r7, #7]
    29ca:	79fb      	ldrb	r3, [r7, #7]
    29cc:	60fb      	str	r3, [r7, #12]
    29ce:	68fb      	ldr	r3, [r7, #12]
    29d0:	2b7f      	cmp	r3, #127	; 0x7f
    29d2:	d80d      	bhi.n	29f0 <Chip_SYSCON_PeriphReset+0x30>
    29d4:	f04f 4180 	mov.w	r1, #1073741824	; 0x40000000
    29d8:	68fb      	ldr	r3, [r7, #12]
    29da:	095b      	lsrs	r3, r3, #5
    29dc:	68fa      	ldr	r2, [r7, #12]
    29de:	f002 021f 	and.w	r2, r2, #31
    29e2:	2001      	movs	r0, #1
    29e4:	fa00 f202 	lsl.w	r2, r0, r2
    29e8:	3348      	adds	r3, #72	; 0x48
    29ea:	f841 2023 	str.w	r2, [r1, r3, lsl #2]
    29ee:	e006      	b.n	29fe <Chip_SYSCON_PeriphReset+0x3e>
    29f0:	4a14      	ldr	r2, [pc, #80]	; (2a44 <Chip_SYSCON_PeriphReset+0x84>)
    29f2:	68fb      	ldr	r3, [r7, #12]
    29f4:	3b80      	subs	r3, #128	; 0x80
    29f6:	2101      	movs	r1, #1
    29f8:	fa01 f303 	lsl.w	r3, r1, r3
    29fc:	6053      	str	r3, [r2, #4]
    29fe:	bf00      	nop
    2a00:	bf00      	nop
    2a02:	bf00      	nop
    2a04:	bf00      	nop
    2a06:	68fb      	ldr	r3, [r7, #12]
    2a08:	2b7f      	cmp	r3, #127	; 0x7f
    2a0a:	d80d      	bhi.n	2a28 <Chip_SYSCON_PeriphReset+0x68>
    2a0c:	f04f 4180 	mov.w	r1, #1073741824	; 0x40000000
    2a10:	68fb      	ldr	r3, [r7, #12]
    2a12:	095b      	lsrs	r3, r3, #5
    2a14:	68fa      	ldr	r2, [r7, #12]
    2a16:	f002 021f 	and.w	r2, r2, #31
    2a1a:	2001      	movs	r0, #1
    2a1c:	fa00 f202 	lsl.w	r2, r0, r2
    2a20:	3350      	adds	r3, #80	; 0x50
    2a22:	f841 2023 	str.w	r2, [r1, r3, lsl #2]
    2a26:	e006      	b.n	2a36 <Chip_SYSCON_PeriphReset+0x76>
    2a28:	4a06      	ldr	r2, [pc, #24]	; (2a44 <Chip_SYSCON_PeriphReset+0x84>)
    2a2a:	68fb      	ldr	r3, [r7, #12]
    2a2c:	3b80      	subs	r3, #128	; 0x80
    2a2e:	2101      	movs	r1, #1
    2a30:	fa01 f303 	lsl.w	r3, r1, r3
    2a34:	6093      	str	r3, [r2, #8]
    2a36:	bf00      	nop
    2a38:	3714      	adds	r7, #20
    2a3a:	46bd      	mov	sp, r7
    2a3c:	f85d 7b04 	ldr.w	r7, [sp], #4
    2a40:	4770      	bx	lr
    2a42:	bf00      	nop
    2a44:	40040000 	.word	0x40040000

00002a48 <Chip_SYSCON_EnableWakeup>:
    2a48:	b480      	push	{r7}
    2a4a:	b083      	sub	sp, #12
    2a4c:	af00      	add	r7, sp, #0
    2a4e:	4603      	mov	r3, r0
    2a50:	71fb      	strb	r3, [r7, #7]
    2a52:	f04f 4280 	mov.w	r2, #1073741824	; 0x40000000
    2a56:	79fb      	ldrb	r3, [r7, #7]
    2a58:	095b      	lsrs	r3, r3, #5
    2a5a:	b2db      	uxtb	r3, r3
    2a5c:	4618      	mov	r0, r3
    2a5e:	79fb      	ldrb	r3, [r7, #7]
    2a60:	f003 031f 	and.w	r3, r3, #31
    2a64:	2101      	movs	r1, #1
    2a66:	fa01 f303 	lsl.w	r3, r1, r3
    2a6a:	4619      	mov	r1, r3
    2a6c:	f500 73d4 	add.w	r3, r0, #424	; 0x1a8
    2a70:	f842 1023 	str.w	r1, [r2, r3, lsl #2]
    2a74:	bf00      	nop
    2a76:	370c      	adds	r7, #12
    2a78:	46bd      	mov	sp, r7
    2a7a:	f85d 7b04 	ldr.w	r7, [sp], #4
    2a7e:	4770      	bx	lr

00002a80 <Chip_Clock_SetFLEXCOMMClockSource>:
    2a80:	b480      	push	{r7}
    2a82:	b083      	sub	sp, #12
    2a84:	af00      	add	r7, sp, #0
    2a86:	6078      	str	r0, [r7, #4]
    2a88:	460b      	mov	r3, r1
    2a8a:	70fb      	strb	r3, [r7, #3]
    2a8c:	f04f 4180 	mov.w	r1, #1073741824	; 0x40000000
    2a90:	78fa      	ldrb	r2, [r7, #3]
    2a92:	687b      	ldr	r3, [r7, #4]
    2a94:	33ac      	adds	r3, #172	; 0xac
    2a96:	f841 2023 	str.w	r2, [r1, r3, lsl #2]
    2a9a:	bf00      	nop
    2a9c:	370c      	adds	r7, #12
    2a9e:	46bd      	mov	sp, r7
    2aa0:	f85d 7b04 	ldr.w	r7, [sp], #4
    2aa4:	4770      	bx	lr
    2aa6:	bf00      	nop

00002aa8 <Chip_FLEXCOMM_GetIndex>:
    2aa8:	b480      	push	{r7}
    2aaa:	b083      	sub	sp, #12
    2aac:	af00      	add	r7, sp, #0
    2aae:	6078      	str	r0, [r7, #4]
    2ab0:	687b      	ldr	r3, [r7, #4]
    2ab2:	4a1c      	ldr	r2, [pc, #112]	; (2b24 <Chip_FLEXCOMM_GetIndex+0x7c>)
    2ab4:	4293      	cmp	r3, r2
    2ab6:	d023      	beq.n	2b00 <Chip_FLEXCOMM_GetIndex+0x58>
    2ab8:	4a1a      	ldr	r2, [pc, #104]	; (2b24 <Chip_FLEXCOMM_GetIndex+0x7c>)
    2aba:	4293      	cmp	r3, r2
    2abc:	d809      	bhi.n	2ad2 <Chip_FLEXCOMM_GetIndex+0x2a>
    2abe:	4a1a      	ldr	r2, [pc, #104]	; (2b28 <Chip_FLEXCOMM_GetIndex+0x80>)
    2ac0:	4293      	cmp	r3, r2
    2ac2:	d019      	beq.n	2af8 <Chip_FLEXCOMM_GetIndex+0x50>
    2ac4:	4a19      	ldr	r2, [pc, #100]	; (2b2c <Chip_FLEXCOMM_GetIndex+0x84>)
    2ac6:	4293      	cmp	r3, r2
    2ac8:	d018      	beq.n	2afc <Chip_FLEXCOMM_GetIndex+0x54>
    2aca:	4a19      	ldr	r2, [pc, #100]	; (2b30 <Chip_FLEXCOMM_GetIndex+0x88>)
    2acc:	4293      	cmp	r3, r2
    2ace:	d011      	beq.n	2af4 <Chip_FLEXCOMM_GetIndex+0x4c>
    2ad0:	e020      	b.n	2b14 <Chip_FLEXCOMM_GetIndex+0x6c>
    2ad2:	4a18      	ldr	r2, [pc, #96]	; (2b34 <Chip_FLEXCOMM_GetIndex+0x8c>)
    2ad4:	4293      	cmp	r3, r2
    2ad6:	d017      	beq.n	2b08 <Chip_FLEXCOMM_GetIndex+0x60>
    2ad8:	4a16      	ldr	r2, [pc, #88]	; (2b34 <Chip_FLEXCOMM_GetIndex+0x8c>)
    2ada:	4293      	cmp	r3, r2
    2adc:	d803      	bhi.n	2ae6 <Chip_FLEXCOMM_GetIndex+0x3e>
    2ade:	4a16      	ldr	r2, [pc, #88]	; (2b38 <Chip_FLEXCOMM_GetIndex+0x90>)
    2ae0:	4293      	cmp	r3, r2
    2ae2:	d00f      	beq.n	2b04 <Chip_FLEXCOMM_GetIndex+0x5c>
    2ae4:	e016      	b.n	2b14 <Chip_FLEXCOMM_GetIndex+0x6c>
    2ae6:	4a15      	ldr	r2, [pc, #84]	; (2b3c <Chip_FLEXCOMM_GetIndex+0x94>)
    2ae8:	4293      	cmp	r3, r2
    2aea:	d00f      	beq.n	2b0c <Chip_FLEXCOMM_GetIndex+0x64>
    2aec:	4a14      	ldr	r2, [pc, #80]	; (2b40 <Chip_FLEXCOMM_GetIndex+0x98>)
    2aee:	4293      	cmp	r3, r2
    2af0:	d00e      	beq.n	2b10 <Chip_FLEXCOMM_GetIndex+0x68>
    2af2:	e00f      	b.n	2b14 <Chip_FLEXCOMM_GetIndex+0x6c>
    2af4:	2300      	movs	r3, #0
    2af6:	e00f      	b.n	2b18 <Chip_FLEXCOMM_GetIndex+0x70>
    2af8:	2301      	movs	r3, #1
    2afa:	e00d      	b.n	2b18 <Chip_FLEXCOMM_GetIndex+0x70>
    2afc:	2302      	movs	r3, #2
    2afe:	e00b      	b.n	2b18 <Chip_FLEXCOMM_GetIndex+0x70>
    2b00:	2303      	movs	r3, #3
    2b02:	e009      	b.n	2b18 <Chip_FLEXCOMM_GetIndex+0x70>
    2b04:	2304      	movs	r3, #4
    2b06:	e007      	b.n	2b18 <Chip_FLEXCOMM_GetIndex+0x70>
    2b08:	2305      	movs	r3, #5
    2b0a:	e005      	b.n	2b18 <Chip_FLEXCOMM_GetIndex+0x70>
    2b0c:	2306      	movs	r3, #6
    2b0e:	e003      	b.n	2b18 <Chip_FLEXCOMM_GetIndex+0x70>
    2b10:	2307      	movs	r3, #7
    2b12:	e001      	b.n	2b18 <Chip_FLEXCOMM_GetIndex+0x70>
    2b14:	f06f 0302 	mvn.w	r3, #2
    2b18:	4618      	mov	r0, r3
    2b1a:	370c      	adds	r7, #12
    2b1c:	46bd      	mov	sp, r7
    2b1e:	f85d 7b04 	ldr.w	r7, [sp], #4
    2b22:	4770      	bx	lr
    2b24:	40089000 	.word	0x40089000
    2b28:	40087000 	.word	0x40087000
    2b2c:	40088000 	.word	0x40088000
    2b30:	40086000 	.word	0x40086000
    2b34:	40096000 	.word	0x40096000
    2b38:	4008a000 	.word	0x4008a000
    2b3c:	40097000 	.word	0x40097000
    2b40:	40098000 	.word	0x40098000

00002b44 <Chip_FLEXCOMM_Init>:
    2b44:	b580      	push	{r7, lr}
    2b46:	b084      	sub	sp, #16
    2b48:	af00      	add	r7, sp, #0
    2b4a:	6078      	str	r0, [r7, #4]
    2b4c:	460b      	mov	r3, r1
    2b4e:	70fb      	strb	r3, [r7, #3]
    2b50:	6878      	ldr	r0, [r7, #4]
    2b52:	f7ff ffa9 	bl	2aa8 <Chip_FLEXCOMM_GetIndex>
    2b56:	60f8      	str	r0, [r7, #12]
    2b58:	68fb      	ldr	r3, [r7, #12]
    2b5a:	2b00      	cmp	r3, #0
    2b5c:	da01      	bge.n	2b62 <Chip_FLEXCOMM_Init+0x1e>
    2b5e:	68fb      	ldr	r3, [r7, #12]
    2b60:	e026      	b.n	2bb0 <Chip_FLEXCOMM_Init+0x6c>
    2b62:	68fb      	ldr	r3, [r7, #12]
    2b64:	b2db      	uxtb	r3, r3
    2b66:	332b      	adds	r3, #43	; 0x2b
    2b68:	b2db      	uxtb	r3, r3
    2b6a:	4618      	mov	r0, r3
    2b6c:	f7fe ffb8 	bl	1ae0 <Chip_Clock_EnablePeriphClock>
    2b70:	68fb      	ldr	r3, [r7, #12]
    2b72:	b2db      	uxtb	r3, r3
    2b74:	332b      	adds	r3, #43	; 0x2b
    2b76:	b2db      	uxtb	r3, r3
    2b78:	4618      	mov	r0, r3
    2b7a:	f7ff ff21 	bl	29c0 <Chip_SYSCON_PeriphReset>
    2b7e:	78fb      	ldrb	r3, [r7, #3]
    2b80:	2200      	movs	r2, #0
    2b82:	4619      	mov	r1, r3
    2b84:	6878      	ldr	r0, [r7, #4]
    2b86:	f000 f817 	bl	2bb8 <Chip_FLEXCOMM_SetPeriph>
    2b8a:	60b8      	str	r0, [r7, #8]
    2b8c:	68bb      	ldr	r3, [r7, #8]
    2b8e:	2b00      	cmp	r3, #0
    2b90:	d001      	beq.n	2b96 <Chip_FLEXCOMM_Init+0x52>
    2b92:	68bb      	ldr	r3, [r7, #8]
    2b94:	e00c      	b.n	2bb0 <Chip_FLEXCOMM_Init+0x6c>
    2b96:	68fb      	ldr	r3, [r7, #12]
    2b98:	b2db      	uxtb	r3, r3
    2b9a:	330e      	adds	r3, #14
    2b9c:	b2db      	uxtb	r3, r3
    2b9e:	4618      	mov	r0, r3
    2ba0:	f7ff ff52 	bl	2a48 <Chip_SYSCON_EnableWakeup>
    2ba4:	68fb      	ldr	r3, [r7, #12]
    2ba6:	2100      	movs	r1, #0
    2ba8:	4618      	mov	r0, r3
    2baa:	f7ff ff69 	bl	2a80 <Chip_Clock_SetFLEXCOMMClockSource>
    2bae:	2300      	movs	r3, #0
    2bb0:	4618      	mov	r0, r3
    2bb2:	3710      	adds	r7, #16
    2bb4:	46bd      	mov	sp, r7
    2bb6:	bd80      	pop	{r7, pc}

00002bb8 <Chip_FLEXCOMM_SetPeriph>:
    2bb8:	b480      	push	{r7}
    2bba:	b087      	sub	sp, #28
    2bbc:	af00      	add	r7, sp, #0
    2bbe:	60f8      	str	r0, [r7, #12]
    2bc0:	460b      	mov	r3, r1
    2bc2:	607a      	str	r2, [r7, #4]
    2bc4:	72fb      	strb	r3, [r7, #11]
    2bc6:	68fb      	ldr	r3, [r7, #12]
    2bc8:	f603 73f8 	addw	r3, r3, #4088	; 0xff8
    2bcc:	613b      	str	r3, [r7, #16]
    2bce:	7afb      	ldrb	r3, [r7, #11]
    2bd0:	3b01      	subs	r3, #1
    2bd2:	617b      	str	r3, [r7, #20]
    2bd4:	7afb      	ldrb	r3, [r7, #11]
    2bd6:	2b00      	cmp	r3, #0
    2bd8:	d011      	beq.n	2bfe <Chip_FLEXCOMM_SetPeriph+0x46>
    2bda:	697b      	ldr	r3, [r7, #20]
    2bdc:	2b04      	cmp	r3, #4
    2bde:	d102      	bne.n	2be6 <Chip_FLEXCOMM_SetPeriph+0x2e>
    2be0:	697b      	ldr	r3, [r7, #20]
    2be2:	3b01      	subs	r3, #1
    2be4:	617b      	str	r3, [r7, #20]
    2be6:	693b      	ldr	r3, [r7, #16]
    2be8:	681b      	ldr	r3, [r3, #0]
    2bea:	2110      	movs	r1, #16
    2bec:	697a      	ldr	r2, [r7, #20]
    2bee:	fa01 f202 	lsl.w	r2, r1, r2
    2bf2:	4013      	ands	r3, r2
    2bf4:	2b00      	cmp	r3, #0
    2bf6:	d102      	bne.n	2bfe <Chip_FLEXCOMM_SetPeriph+0x46>
    2bf8:	f04f 33ff 	mov.w	r3, #4294967295
    2bfc:	e01d      	b.n	2c3a <Chip_FLEXCOMM_SetPeriph+0x82>
    2bfe:	693b      	ldr	r3, [r7, #16]
    2c00:	681b      	ldr	r3, [r3, #0]
    2c02:	f003 0308 	and.w	r3, r3, #8
    2c06:	2b00      	cmp	r3, #0
    2c08:	d105      	bne.n	2c16 <Chip_FLEXCOMM_SetPeriph+0x5e>
    2c0a:	693b      	ldr	r3, [r7, #16]
    2c0c:	681b      	ldr	r3, [r3, #0]
    2c0e:	f003 0307 	and.w	r3, r3, #7
    2c12:	2b00      	cmp	r3, #0
    2c14:	d002      	beq.n	2c1c <Chip_FLEXCOMM_SetPeriph+0x64>
    2c16:	f06f 0301 	mvn.w	r3, #1
    2c1a:	e00e      	b.n	2c3a <Chip_FLEXCOMM_SetPeriph+0x82>
    2c1c:	687b      	ldr	r3, [r7, #4]
    2c1e:	2b00      	cmp	r3, #0
    2c20:	d007      	beq.n	2c32 <Chip_FLEXCOMM_SetPeriph+0x7a>
    2c22:	7afb      	ldrb	r3, [r7, #11]
    2c24:	f043 0308 	orr.w	r3, r3, #8
    2c28:	b2db      	uxtb	r3, r3
    2c2a:	461a      	mov	r2, r3
    2c2c:	693b      	ldr	r3, [r7, #16]
    2c2e:	601a      	str	r2, [r3, #0]
    2c30:	e002      	b.n	2c38 <Chip_FLEXCOMM_SetPeriph+0x80>
    2c32:	7afa      	ldrb	r2, [r7, #11]
    2c34:	693b      	ldr	r3, [r7, #16]
    2c36:	601a      	str	r2, [r3, #0]
    2c38:	2300      	movs	r3, #0
    2c3a:	4618      	mov	r0, r3
    2c3c:	371c      	adds	r7, #28
    2c3e:	46bd      	mov	sp, r7
    2c40:	f85d 7b04 	ldr.w	r7, [sp], #4
    2c44:	4770      	bx	lr
    2c46:	bf00      	nop

00002c48 <arm_cfft_radix8by2_f32>:
    2c48:	e92d 41f0 	stmdb	sp!, {r4, r5, r6, r7, r8, lr}
    2c4c:	f8b0 c000 	ldrh.w	ip, [r0]
    2c50:	6842      	ldr	r2, [r0, #4]
    2c52:	4607      	mov	r7, r0
    2c54:	eb01 088c 	add.w	r8, r1, ip, lsl #2
    2c58:	ea4f 005c 	mov.w	r0, ip, lsr #1
    2c5c:	ea5f 0cdc 	movs.w	ip, ip, lsr #3
    2c60:	ed2d 8b08 	vpush	{d8-d11}
    2c64:	f000 80a0 	beq.w	2da8 <arm_cfft_radix8by2_f32+0x160>
    2c68:	0083      	lsls	r3, r0, #2
    2c6a:	3310      	adds	r3, #16
    2c6c:	18ce      	adds	r6, r1, r3
    2c6e:	f101 0510 	add.w	r5, r1, #16
    2c72:	4443      	add	r3, r8
    2c74:	f102 0e10 	add.w	lr, r2, #16
    2c78:	f108 0410 	add.w	r4, r8, #16
    2c7c:	ed14 2a04 	vldr	s4, [r4, #-16]
    2c80:	ed54 2a03 	vldr	s5, [r4, #-12]
    2c84:	ed13 5a04 	vldr	s10, [r3, #-16]
    2c88:	ed53 5a03 	vldr	s11, [r3, #-12]
    2c8c:	ed54 8a02 	vldr	s17, [r4, #-8]
    2c90:	ed14 8a01 	vldr	s16, [r4, #-4]
    2c94:	ed16 3a04 	vldr	s6, [r6, #-16]
    2c98:	ed56 3a03 	vldr	s7, [r6, #-12]
    2c9c:	ed13 7a02 	vldr	s14, [r3, #-8]
    2ca0:	ed53 7a01 	vldr	s15, [r3, #-4]
    2ca4:	ed55 4a04 	vldr	s9, [r5, #-16]
    2ca8:	ed16 0a02 	vldr	s0, [r6, #-8]
    2cac:	ed56 0a01 	vldr	s1, [r6, #-4]
    2cb0:	ed15 4a03 	vldr	s8, [r5, #-12]
    2cb4:	ed55 6a02 	vldr	s13, [r5, #-8]
    2cb8:	ed15 6a01 	vldr	s12, [r5, #-4]
    2cbc:	ee74 ba82 	vadd.f32	s23, s9, s4
    2cc0:	ee34 ba22 	vadd.f32	s22, s8, s5
    2cc4:	ee73 9a05 	vadd.f32	s19, s6, s10
    2cc8:	ee33 9aa5 	vadd.f32	s18, s7, s11
    2ccc:	ee30 1a07 	vadd.f32	s2, s0, s14
    2cd0:	ee70 1aa7 	vadd.f32	s3, s1, s15
    2cd4:	ee76 aaa8 	vadd.f32	s21, s13, s17
    2cd8:	ee36 aa08 	vadd.f32	s20, s12, s16
    2cdc:	ed45 ba04 	vstr	s23, [r5, #-16]
    2ce0:	ed05 ba03 	vstr	s22, [r5, #-12]
    2ce4:	ed45 aa02 	vstr	s21, [r5, #-8]
    2ce8:	ed05 aa01 	vstr	s20, [r5, #-4]
    2cec:	ed06 1a02 	vstr	s2, [r6, #-8]
    2cf0:	ed46 1a01 	vstr	s3, [r6, #-4]
    2cf4:	ed46 9a04 	vstr	s19, [r6, #-16]
    2cf8:	ed06 9a03 	vstr	s18, [r6, #-12]
    2cfc:	ee74 4ac2 	vsub.f32	s9, s9, s4
    2d00:	ee34 4a62 	vsub.f32	s8, s8, s5
    2d04:	ee35 5a43 	vsub.f32	s10, s10, s6
    2d08:	ee75 5ae3 	vsub.f32	s11, s11, s7
    2d0c:	ed1e 3a04 	vldr	s6, [lr, #-16]
    2d10:	ed5e 3a03 	vldr	s7, [lr, #-12]
    2d14:	ee23 2a65 	vnmul.f32	s4, s6, s11
    2d18:	ee64 1a23 	vmul.f32	s3, s8, s7
    2d1c:	ee23 1ae4 	vnmul.f32	s2, s7, s9
    2d20:	ee65 2a03 	vmul.f32	s5, s10, s6
    2d24:	eea4 1a03 	vfma.f32	s2, s8, s6
    2d28:	f1bc 0c01 	subs.w	ip, ip, #1
    2d2c:	f105 0510 	add.w	r5, r5, #16
    2d30:	eee4 1a83 	vfma.f32	s3, s9, s6
    2d34:	f106 0610 	add.w	r6, r6, #16
    2d38:	f10e 0e10 	add.w	lr, lr, #16
    2d3c:	eea5 2a23 	vfma.f32	s4, s10, s7
    2d40:	f104 0410 	add.w	r4, r4, #16
    2d44:	f103 0310 	add.w	r3, r3, #16
    2d48:	eee5 2aa3 	vfma.f32	s5, s11, s7
    2d4c:	ed04 1a07 	vstr	s2, [r4, #-28]	; 0xffffffe4
    2d50:	ed44 1a08 	vstr	s3, [r4, #-32]	; 0xffffffe0
    2d54:	ed03 2a08 	vstr	s4, [r3, #-32]	; 0xffffffe0
    2d58:	ed43 2a07 	vstr	s5, [r3, #-28]	; 0xffffffe4
    2d5c:	ed5e 5a05 	vldr	s11, [lr, #-20]	; 0xffffffec
    2d60:	ed1e 5a06 	vldr	s10, [lr, #-24]	; 0xffffffe8
    2d64:	ee76 6ae8 	vsub.f32	s13, s13, s17
    2d68:	ee36 6a48 	vsub.f32	s12, s12, s16
    2d6c:	ee37 7a40 	vsub.f32	s14, s14, s0
    2d70:	ee77 7ae0 	vsub.f32	s15, s15, s1
    2d74:	ee26 3a25 	vmul.f32	s6, s12, s11
    2d78:	ee65 3ae6 	vnmul.f32	s7, s11, s13
    2d7c:	ee25 4a67 	vnmul.f32	s8, s10, s15
    2d80:	ee67 4a05 	vmul.f32	s9, s14, s10
    2d84:	eee6 3a05 	vfma.f32	s7, s12, s10
    2d88:	eea6 3a85 	vfma.f32	s6, s13, s10
    2d8c:	eea7 4a25 	vfma.f32	s8, s14, s11
    2d90:	eee7 4aa5 	vfma.f32	s9, s15, s11
    2d94:	ed04 3a06 	vstr	s6, [r4, #-24]	; 0xffffffe8
    2d98:	ed44 3a05 	vstr	s7, [r4, #-20]	; 0xffffffec
    2d9c:	ed03 4a06 	vstr	s8, [r3, #-24]	; 0xffffffe8
    2da0:	ed43 4a05 	vstr	s9, [r3, #-20]	; 0xffffffec
    2da4:	f47f af6a 	bne.w	2c7c <arm_cfft_radix8by2_f32+0x34>
    2da8:	b284      	uxth	r4, r0
    2daa:	2302      	movs	r3, #2
    2dac:	4608      	mov	r0, r1
    2dae:	4621      	mov	r1, r4
    2db0:	f000 fac4 	bl	333c <arm_radix8_butterfly_f32>
    2db4:	ecbd 8b08 	vpop	{d8-d11}
    2db8:	4621      	mov	r1, r4
    2dba:	687a      	ldr	r2, [r7, #4]
    2dbc:	4640      	mov	r0, r8
    2dbe:	2302      	movs	r3, #2
    2dc0:	e8bd 41f0 	ldmia.w	sp!, {r4, r5, r6, r7, r8, lr}
    2dc4:	f000 baba 	b.w	333c <arm_radix8_butterfly_f32>

00002dc8 <arm_cfft_radix8by4_f32>:
    2dc8:	e92d 4ff0 	stmdb	sp!, {r4, r5, r6, r7, r8, r9, sl, fp, lr}
    2dcc:	ed2d 8b0a 	vpush	{d8-d12}
    2dd0:	8804      	ldrh	r4, [r0, #0]
    2dd2:	6843      	ldr	r3, [r0, #4]
    2dd4:	ed91 6a00 	vldr	s12, [r1]
    2dd8:	ed91 7a01 	vldr	s14, [r1, #4]
    2ddc:	b08f      	sub	sp, #60	; 0x3c
    2dde:	0864      	lsrs	r4, r4, #1
    2de0:	9301      	str	r3, [sp, #4]
    2de2:	460a      	mov	r2, r1
    2de4:	00a3      	lsls	r3, r4, #2
    2de6:	441a      	add	r2, r3
    2de8:	4615      	mov	r5, r2
    2dea:	9208      	str	r2, [sp, #32]
    2dec:	441a      	add	r2, r3
    2dee:	edd2 6a00 	vldr	s13, [r2]
    2df2:	ed95 4a00 	vldr	s8, [r5]
    2df6:	910c      	str	r1, [sp, #48]	; 0x30
    2df8:	460e      	mov	r6, r1
    2dfa:	ee76 5a26 	vadd.f32	s11, s12, s13
    2dfe:	4611      	mov	r1, r2
    2e00:	900b      	str	r0, [sp, #44]	; 0x2c
    2e02:	4608      	mov	r0, r1
    2e04:	4419      	add	r1, r3
    2e06:	edd1 4a00 	vldr	s9, [r1]
    2e0a:	edd5 2a01 	vldr	s5, [r5, #4]
    2e0e:	edd2 7a01 	vldr	s15, [r2, #4]
    2e12:	9209      	str	r2, [sp, #36]	; 0x24
    2e14:	ee35 5a84 	vadd.f32	s10, s11, s8
    2e18:	462a      	mov	r2, r5
    2e1a:	ee35 5a24 	vadd.f32	s10, s10, s9
    2e1e:	4635      	mov	r5, r6
    2e20:	ee15 ea10 	vmov	lr, s10
    2e24:	ed91 3a01 	vldr	s6, [r1, #4]
    2e28:	f845 eb08 	str.w	lr, [r5], #8
    2e2c:	ee76 6a66 	vsub.f32	s13, s12, s13
    2e30:	ed92 5a01 	vldr	s10, [r2, #4]
    2e34:	9100      	str	r1, [sp, #0]
    2e36:	ee37 6a27 	vadd.f32	s12, s14, s15
    2e3a:	460f      	mov	r7, r1
    2e3c:	ed97 2a01 	vldr	s4, [r7, #4]
    2e40:	9505      	str	r5, [sp, #20]
    2e42:	ee77 7a67 	vsub.f32	s15, s14, s15
    2e46:	ee76 3aa2 	vadd.f32	s7, s13, s5
    2e4a:	ee36 7a05 	vadd.f32	s14, s12, s10
    2e4e:	ee75 5ac4 	vsub.f32	s11, s11, s8
    2e52:	ee37 5ac4 	vsub.f32	s10, s15, s8
    2e56:	ee37 7a02 	vadd.f32	s14, s14, s4
    2e5a:	ee77 7a84 	vadd.f32	s15, s15, s8
    2e5e:	ee33 4ac3 	vsub.f32	s8, s7, s6
    2e62:	4611      	mov	r1, r2
    2e64:	ed86 7a01 	vstr	s14, [r6, #4]
    2e68:	0862      	lsrs	r2, r4, #1
    2e6a:	4688      	mov	r8, r1
    2e6c:	9c01      	ldr	r4, [sp, #4]
    2e6e:	920a      	str	r2, [sp, #40]	; 0x28
    2e70:	46bc      	mov	ip, r7
    2e72:	ee35 5a24 	vadd.f32	s10, s10, s9
    2e76:	4635      	mov	r5, r6
    2e78:	1f3e      	subs	r6, r7, #4
    2e7a:	ee14 7a10 	vmov	r7, s8
    2e7e:	468e      	mov	lr, r1
    2e80:	ee75 5ae4 	vsub.f32	s11, s11, s9
    2e84:	f848 7b08 	str.w	r7, [r8], #8
    2e88:	ed8e 5a01 	vstr	s10, [lr, #4]
    2e8c:	f1ae 0704 	sub.w	r7, lr, #4
    2e90:	f104 0e08 	add.w	lr, r4, #8
    2e94:	4601      	mov	r1, r0
    2e96:	f8cd e010 	str.w	lr, [sp, #16]
    2e9a:	ee15 ea90 	vmov	lr, s11
    2e9e:	f841 eb08 	str.w	lr, [r1], #8
    2ea2:	ee36 6a62 	vsub.f32	s12, s12, s5
    2ea6:	9106      	str	r1, [sp, #24]
    2ea8:	ee76 6ae2 	vsub.f32	s13, s13, s5
    2eac:	9901      	ldr	r1, [sp, #4]
    2eae:	ee36 6a43 	vsub.f32	s12, s12, s6
    2eb2:	f101 0e10 	add.w	lr, r1, #16
    2eb6:	ee76 6a83 	vadd.f32	s13, s13, s6
    2eba:	f8cd e008 	str.w	lr, [sp, #8]
    2ebe:	f101 0e18 	add.w	lr, r1, #24
    2ec2:	ed80 6a01 	vstr	s12, [r0, #4]
    2ec6:	ee77 7ae4 	vsub.f32	s15, s15, s9
    2eca:	3a02      	subs	r2, #2
    2ecc:	f8cd e00c 	str.w	lr, [sp, #12]
    2ed0:	9c00      	ldr	r4, [sp, #0]
    2ed2:	ee16 ea90 	vmov	lr, s13
    2ed6:	0852      	lsrs	r2, r2, #1
    2ed8:	f84c eb08 	str.w	lr, [ip], #8
    2edc:	9207      	str	r2, [sp, #28]
    2ede:	edc4 7a01 	vstr	s15, [r4, #4]
    2ee2:	f000 811b 	beq.w	311c <arm_cfft_radix8by4_f32+0x354>
    2ee6:	4604      	mov	r4, r0
    2ee8:	3b08      	subs	r3, #8
    2eea:	f8dd a008 	ldr.w	sl, [sp, #8]
    2eee:	f8cd c034 	str.w	ip, [sp, #52]	; 0x34
    2ef2:	4693      	mov	fp, r2
    2ef4:	f101 0920 	add.w	r9, r1, #32
    2ef8:	f1a0 020c 	sub.w	r2, r0, #12
    2efc:	f101 0e30 	add.w	lr, r1, #48	; 0x30
    2f00:	4433      	add	r3, r6
    2f02:	3510      	adds	r5, #16
    2f04:	3410      	adds	r4, #16
    2f06:	4660      	mov	r0, ip
    2f08:	4641      	mov	r1, r8
    2f0a:	ed14 7a02 	vldr	s14, [r4, #-8]
    2f0e:	ed55 3a02 	vldr	s7, [r5, #-8]
    2f12:	edd1 5a00 	vldr	s11, [r1]
    2f16:	ed90 6a00 	vldr	s12, [r0]
    2f1a:	ed54 6a01 	vldr	s13, [r4, #-4]
    2f1e:	ed15 5a01 	vldr	s10, [r5, #-4]
    2f22:	edd0 4a01 	vldr	s9, [r0, #4]
    2f26:	ed91 4a01 	vldr	s8, [r1, #4]
    2f2a:	ee33 0a87 	vadd.f32	s0, s7, s14
    2f2e:	ee35 8a26 	vadd.f32	s16, s10, s13
    2f32:	ee70 7a25 	vadd.f32	s15, s0, s11
    2f36:	ee73 3ac7 	vsub.f32	s7, s7, s14
    2f3a:	ee77 7a86 	vadd.f32	s15, s15, s12
    2f3e:	ee35 5a66 	vsub.f32	s10, s10, s13
    2f42:	ed45 7a02 	vstr	s15, [r5, #-8]
    2f46:	edd1 7a01 	vldr	s15, [r1, #4]
    2f4a:	ed90 7a01 	vldr	s14, [r0, #4]
    2f4e:	ee78 7a27 	vadd.f32	s15, s16, s15
    2f52:	ee35 aa65 	vsub.f32	s20, s10, s11
    2f56:	ee77 7a87 	vadd.f32	s15, s15, s14
    2f5a:	ee3a aa06 	vadd.f32	s20, s20, s12
    2f5e:	ed45 7a01 	vstr	s15, [r5, #-4]
    2f62:	ed96 2a00 	vldr	s4, [r6]
    2f66:	ed97 1a00 	vldr	s2, [r7]
    2f6a:	edd2 7a02 	vldr	s15, [r2, #8]
    2f6e:	ed93 7a02 	vldr	s14, [r3, #8]
    2f72:	edd3 2a01 	vldr	s5, [r3, #4]
    2f76:	ed56 1a01 	vldr	s3, [r6, #-4]
    2f7a:	ed92 3a01 	vldr	s6, [r2, #4]
    2f7e:	ed57 9a01 	vldr	s19, [r7, #-4]
    2f82:	ee71 6a02 	vadd.f32	s13, s2, s4
    2f86:	ee79 0aa1 	vadd.f32	s1, s19, s3
    2f8a:	ee76 8aa7 	vadd.f32	s17, s13, s15
    2f8e:	ee31 2a42 	vsub.f32	s4, s2, s4
    2f92:	ee78 8a87 	vadd.f32	s17, s17, s14
    2f96:	ee73 aa84 	vadd.f32	s21, s7, s8
    2f9a:	ee18 ca90 	vmov	ip, s17
    2f9e:	f847 c908 	str.w	ip, [r7], #-8
    2fa2:	edd2 8a01 	vldr	s17, [r2, #4]
    2fa6:	ed93 9a01 	vldr	s18, [r3, #4]
    2faa:	ee70 8aa8 	vadd.f32	s17, s1, s17
    2fae:	ee37 1ac7 	vsub.f32	s2, s15, s14
    2fb2:	ee78 8a89 	vadd.f32	s17, s17, s18
    2fb6:	ee7a aae4 	vsub.f32	s21, s21, s9
    2fba:	edc7 8a01 	vstr	s17, [r7, #4]
    2fbe:	ed5a 8a01 	vldr	s17, [sl, #-4]
    2fc2:	ee79 1ae1 	vsub.f32	s3, s19, s3
    2fc6:	ee2a ca28 	vmul.f32	s24, s20, s17
    2fca:	ed5a 9a02 	vldr	s19, [sl, #-8]
    2fce:	ee32 9a43 	vsub.f32	s18, s4, s6
    2fd2:	eeaa caa9 	vfma.f32	s24, s21, s19
    2fd6:	f1bb 0b01 	subs.w	fp, fp, #1
    2fda:	f105 0508 	add.w	r5, r5, #8
    2fde:	ee39 9a22 	vadd.f32	s18, s18, s5
    2fe2:	ee71 ca81 	vadd.f32	s25, s3, s2
    2fe6:	ee68 baea 	vnmul.f32	s23, s17, s21
    2fea:	ee29 baec 	vnmul.f32	s22, s19, s25
    2fee:	ee69 aa29 	vmul.f32	s21, s18, s19
    2ff2:	eea9 ba28 	vfma.f32	s22, s18, s17
    2ff6:	f10a 0a08 	add.w	sl, sl, #8
    2ffa:	f1a2 0208 	sub.w	r2, r2, #8
    2ffe:	eeea ba29 	vfma.f32	s23, s20, s19
    3002:	f109 0910 	add.w	r9, r9, #16
    3006:	f104 0408 	add.w	r4, r4, #8
    300a:	ee1c ca10 	vmov	ip, s24
    300e:	eeec aaa8 	vfma.f32	s21, s25, s17
    3012:	f841 cb08 	str.w	ip, [r1], #8
    3016:	ee70 0ac3 	vsub.f32	s1, s1, s6
    301a:	ed41 ba01 	vstr	s23, [r1, #-4]
    301e:	ed82 ba04 	vstr	s22, [r2, #16]
    3022:	edc2 aa03 	vstr	s21, [r2, #12]
    3026:	ee76 6ae7 	vsub.f32	s13, s13, s15
    302a:	ee30 0a65 	vsub.f32	s0, s0, s11
    302e:	ed59 7a07 	vldr	s15, [r9, #-28]	; 0xffffffe4
    3032:	ed59 8a08 	vldr	s17, [r9, #-32]	; 0xffffffe0
    3036:	ee38 8a44 	vsub.f32	s16, s16, s8
    303a:	ee70 0ae2 	vsub.f32	s1, s1, s5
    303e:	ee36 7ac7 	vsub.f32	s14, s13, s14
    3042:	ee30 0a46 	vsub.f32	s0, s0, s12
    3046:	ee38 8a64 	vsub.f32	s16, s16, s9
    304a:	ee67 6ae0 	vnmul.f32	s13, s15, s1
    304e:	ee68 9a27 	vmul.f32	s19, s16, s15
    3052:	eee7 6a68 	vfms.f32	s13, s14, s17
    3056:	f10e 0e18 	add.w	lr, lr, #24
    305a:	f1a3 0308 	sub.w	r3, r3, #8
    305e:	ee27 9ac0 	vnmul.f32	s18, s15, s0
    3062:	eee0 9a28 	vfma.f32	s19, s0, s17
    3066:	ee67 7a27 	vmul.f32	s15, s14, s15
    306a:	eea8 9a28 	vfma.f32	s18, s16, s17
    306e:	ee16 ca90 	vmov	ip, s13
    3072:	eee0 7ae8 	vfms.f32	s15, s1, s17
    3076:	ed44 9a04 	vstr	s19, [r4, #-16]
    307a:	ed04 9a03 	vstr	s18, [r4, #-12]
    307e:	f846 c908 	str.w	ip, [r6], #-8
    3082:	ee75 5a25 	vadd.f32	s11, s10, s11
    3086:	edc6 7a01 	vstr	s15, [r6, #4]
    308a:	ed5e 6a0b 	vldr	s13, [lr, #-44]	; 0xffffffd4
    308e:	ee35 6ac6 	vsub.f32	s12, s11, s12
    3092:	ee33 4ac4 	vsub.f32	s8, s7, s8
    3096:	ee72 7ac3 	vsub.f32	s15, s5, s6
    309a:	ed5e 5a0c 	vldr	s11, [lr, #-48]	; 0xffffffd0
    309e:	ee74 4a24 	vadd.f32	s9, s8, s9
    30a2:	ee31 7a61 	vsub.f32	s14, s2, s3
    30a6:	ee66 3a26 	vmul.f32	s7, s12, s13
    30aa:	ee77 7ac2 	vsub.f32	s15, s15, s4
    30ae:	ee26 4ae4 	vnmul.f32	s8, s13, s9
    30b2:	eee4 3aa5 	vfma.f32	s7, s9, s11
    30b6:	ee65 4ac7 	vnmul.f32	s9, s11, s14
    30ba:	ee27 5aa5 	vmul.f32	s10, s15, s11
    30be:	eea6 4a25 	vfma.f32	s8, s12, s11
    30c2:	eeb0 6a64 	vmov.f32	s12, s9
    30c6:	eea7 6aa6 	vfma.f32	s12, s15, s13
    30ca:	eef0 7a45 	vmov.f32	s15, s10
    30ce:	ee13 ca90 	vmov	ip, s7
    30d2:	eee7 7a26 	vfma.f32	s15, s14, s13
    30d6:	f840 cb08 	str.w	ip, [r0], #8
    30da:	ed00 4a01 	vstr	s8, [r0, #-4]
    30de:	ed83 6a04 	vstr	s12, [r3, #16]
    30e2:	edc3 7a03 	vstr	s15, [r3, #12]
    30e6:	f47f af10 	bne.w	2f0a <arm_cfft_radix8by4_f32+0x142>
    30ea:	9907      	ldr	r1, [sp, #28]
    30ec:	9802      	ldr	r0, [sp, #8]
    30ee:	f8dd c034 	ldr.w	ip, [sp, #52]	; 0x34
    30f2:	00cb      	lsls	r3, r1, #3
    30f4:	eb01 0241 	add.w	r2, r1, r1, lsl #1
    30f8:	eb00 1101 	add.w	r1, r0, r1, lsl #4
    30fc:	9102      	str	r1, [sp, #8]
    30fe:	9905      	ldr	r1, [sp, #20]
    3100:	4419      	add	r1, r3
    3102:	9105      	str	r1, [sp, #20]
    3104:	9904      	ldr	r1, [sp, #16]
    3106:	4419      	add	r1, r3
    3108:	9104      	str	r1, [sp, #16]
    310a:	9906      	ldr	r1, [sp, #24]
    310c:	4498      	add	r8, r3
    310e:	4419      	add	r1, r3
    3110:	449c      	add	ip, r3
    3112:	9b03      	ldr	r3, [sp, #12]
    3114:	9106      	str	r1, [sp, #24]
    3116:	eb03 03c2 	add.w	r3, r3, r2, lsl #3
    311a:	9303      	str	r3, [sp, #12]
    311c:	9a05      	ldr	r2, [sp, #20]
    311e:	9e06      	ldr	r6, [sp, #24]
    3120:	edd2 3a00 	vldr	s7, [r2]
    3124:	edd6 6a00 	vldr	s13, [r6]
    3128:	edd8 7a00 	vldr	s15, [r8]
    312c:	eddc 4a00 	vldr	s9, [ip]
    3130:	ed96 4a01 	vldr	s8, [r6, #4]
    3134:	ed92 7a01 	vldr	s14, [r2, #4]
    3138:	edd8 2a01 	vldr	s5, [r8, #4]
    313c:	ed9c 3a01 	vldr	s6, [ip, #4]
    3140:	9d02      	ldr	r5, [sp, #8]
    3142:	f8bd 4028 	ldrh.w	r4, [sp, #40]	; 0x28
    3146:	980c      	ldr	r0, [sp, #48]	; 0x30
    3148:	ee73 5aa6 	vadd.f32	s11, s7, s13
    314c:	ee37 6a04 	vadd.f32	s12, s14, s8
    3150:	ee35 5aa7 	vadd.f32	s10, s11, s15
    3154:	ee73 6ae6 	vsub.f32	s13, s7, s13
    3158:	ee35 5a24 	vadd.f32	s10, s10, s9
    315c:	ee37 7a44 	vsub.f32	s14, s14, s8
    3160:	ed82 5a00 	vstr	s10, [r2]
    3164:	ed98 5a01 	vldr	s10, [r8, #4]
    3168:	eddc 3a01 	vldr	s7, [ip, #4]
    316c:	ee36 5a05 	vadd.f32	s10, s12, s10
    3170:	ee37 4a67 	vsub.f32	s8, s14, s15
    3174:	ee35 5a23 	vadd.f32	s10, s10, s7
    3178:	ee76 3aa2 	vadd.f32	s7, s13, s5
    317c:	ed82 5a01 	vstr	s10, [r2, #4]
    3180:	9a04      	ldr	r2, [sp, #16]
    3182:	ee34 4a24 	vadd.f32	s8, s8, s9
    3186:	ed92 5a01 	vldr	s10, [r2, #4]
    318a:	edd2 1a00 	vldr	s3, [r2]
    318e:	9a01      	ldr	r2, [sp, #4]
    3190:	ee73 3ac3 	vsub.f32	s7, s7, s6
    3194:	ee24 2a05 	vmul.f32	s4, s8, s10
    3198:	ee25 5a63 	vnmul.f32	s10, s10, s7
    319c:	eea3 2aa1 	vfma.f32	s4, s7, s3
    31a0:	4621      	mov	r1, r4
    31a2:	2304      	movs	r3, #4
    31a4:	eea4 5a21 	vfma.f32	s10, s8, s3
    31a8:	ee36 6a62 	vsub.f32	s12, s12, s5
    31ac:	ee75 5ae7 	vsub.f32	s11, s11, s15
    31b0:	ed88 2a00 	vstr	s4, [r8]
    31b4:	ed88 5a01 	vstr	s10, [r8, #4]
    31b8:	ee75 5ae4 	vsub.f32	s11, s11, s9
    31bc:	ee36 6a43 	vsub.f32	s12, s12, s6
    31c0:	ed95 5a01 	vldr	s10, [r5, #4]
    31c4:	edd5 3a00 	vldr	s7, [r5]
    31c8:	ee26 4a05 	vmul.f32	s8, s12, s10
    31cc:	ee25 5a65 	vnmul.f32	s10, s10, s11
    31d0:	eea5 4aa3 	vfma.f32	s8, s11, s7
    31d4:	4635      	mov	r5, r6
    31d6:	eea6 5a23 	vfma.f32	s10, s12, s7
    31da:	ed85 4a00 	vstr	s8, [r5]
    31de:	ee76 6ae2 	vsub.f32	s13, s13, s5
    31e2:	ed86 5a01 	vstr	s10, [r6, #4]
    31e6:	ee37 7a27 	vadd.f32	s14, s14, s15
    31ea:	9e03      	ldr	r6, [sp, #12]
    31ec:	ee77 7a64 	vsub.f32	s15, s14, s9
    31f0:	ee36 7a83 	vadd.f32	s14, s13, s6
    31f4:	edd6 6a01 	vldr	s13, [r6, #4]
    31f8:	edd6 5a00 	vldr	s11, [r6]
    31fc:	ee27 6aa6 	vmul.f32	s12, s15, s13
    3200:	ee66 6ac7 	vnmul.f32	s13, s13, s14
    3204:	eea7 6a25 	vfma.f32	s12, s14, s11
    3208:	eee7 6aa5 	vfma.f32	s13, s15, s11
    320c:	ed8c 6a00 	vstr	s12, [ip]
    3210:	edcc 6a01 	vstr	s13, [ip, #4]
    3214:	f000 f892 	bl	333c <arm_radix8_butterfly_f32>
    3218:	9e0b      	ldr	r6, [sp, #44]	; 0x2c
    321a:	9808      	ldr	r0, [sp, #32]
    321c:	6872      	ldr	r2, [r6, #4]
    321e:	4621      	mov	r1, r4
    3220:	2304      	movs	r3, #4
    3222:	f000 f88b 	bl	333c <arm_radix8_butterfly_f32>
    3226:	9809      	ldr	r0, [sp, #36]	; 0x24
    3228:	6872      	ldr	r2, [r6, #4]
    322a:	4621      	mov	r1, r4
    322c:	2304      	movs	r3, #4
    322e:	f000 f885 	bl	333c <arm_radix8_butterfly_f32>
    3232:	6872      	ldr	r2, [r6, #4]
    3234:	9800      	ldr	r0, [sp, #0]
    3236:	4621      	mov	r1, r4
    3238:	2304      	movs	r3, #4
    323a:	b00f      	add	sp, #60	; 0x3c
    323c:	ecbd 8b0a 	vpop	{d8-d12}
    3240:	e8bd 4ff0 	ldmia.w	sp!, {r4, r5, r6, r7, r8, r9, sl, fp, lr}
    3244:	f000 b87a 	b.w	333c <arm_radix8_butterfly_f32>

00003248 <arm_cfft_f32>:
    3248:	2a01      	cmp	r2, #1
    324a:	e92d 41f0 	stmdb	sp!, {r4, r5, r6, r7, r8, lr}
    324e:	4606      	mov	r6, r0
    3250:	4617      	mov	r7, r2
    3252:	460c      	mov	r4, r1
    3254:	4698      	mov	r8, r3
    3256:	8805      	ldrh	r5, [r0, #0]
    3258:	d054      	beq.n	3304 <arm_cfft_f32+0xbc>
    325a:	f5b5 7f80 	cmp.w	r5, #256	; 0x100
    325e:	d04c      	beq.n	32fa <arm_cfft_f32+0xb2>
    3260:	d916      	bls.n	3290 <arm_cfft_f32+0x48>
    3262:	f5b5 6f80 	cmp.w	r5, #1024	; 0x400
    3266:	d01a      	beq.n	329e <arm_cfft_f32+0x56>
    3268:	d95c      	bls.n	3324 <arm_cfft_f32+0xdc>
    326a:	f5b5 6f00 	cmp.w	r5, #2048	; 0x800
    326e:	d044      	beq.n	32fa <arm_cfft_f32+0xb2>
    3270:	f5b5 5f80 	cmp.w	r5, #4096	; 0x1000
    3274:	d105      	bne.n	3282 <arm_cfft_f32+0x3a>
    3276:	2301      	movs	r3, #1
    3278:	6872      	ldr	r2, [r6, #4]
    327a:	4629      	mov	r1, r5
    327c:	4620      	mov	r0, r4
    327e:	f000 f85d 	bl	333c <arm_radix8_butterfly_f32>
    3282:	f1b8 0f00 	cmp.w	r8, #0
    3286:	d111      	bne.n	32ac <arm_cfft_f32+0x64>
    3288:	2f01      	cmp	r7, #1
    328a:	d016      	beq.n	32ba <arm_cfft_f32+0x72>
    328c:	e8bd 81f0 	ldmia.w	sp!, {r4, r5, r6, r7, r8, pc}
    3290:	2d20      	cmp	r5, #32
    3292:	d032      	beq.n	32fa <arm_cfft_f32+0xb2>
    3294:	d94a      	bls.n	332c <arm_cfft_f32+0xe4>
    3296:	2d40      	cmp	r5, #64	; 0x40
    3298:	d0ed      	beq.n	3276 <arm_cfft_f32+0x2e>
    329a:	2d80      	cmp	r5, #128	; 0x80
    329c:	d1f1      	bne.n	3282 <arm_cfft_f32+0x3a>
    329e:	4621      	mov	r1, r4
    32a0:	4630      	mov	r0, r6
    32a2:	f7ff fcd1 	bl	2c48 <arm_cfft_radix8by2_f32>
    32a6:	f1b8 0f00 	cmp.w	r8, #0
    32aa:	d0ed      	beq.n	3288 <arm_cfft_f32+0x40>
    32ac:	68b2      	ldr	r2, [r6, #8]
    32ae:	89b1      	ldrh	r1, [r6, #12]
    32b0:	4620      	mov	r0, r4
    32b2:	f000 ff99 	bl	41e8 <arm_bitreversal_32>
    32b6:	2f01      	cmp	r7, #1
    32b8:	d1e8      	bne.n	328c <arm_cfft_f32+0x44>
    32ba:	ee07 5a90 	vmov	s15, r5
    32be:	eef8 7a67 	vcvt.f32.u32	s15, s15
    32c2:	eeb7 7a00 	vmov.f32	s14, #112	; 0x3f800000  1.0
    32c6:	eec7 6a27 	vdiv.f32	s13, s14, s15
    32ca:	2d00      	cmp	r5, #0
    32cc:	d0de      	beq.n	328c <arm_cfft_f32+0x44>
    32ce:	f104 0108 	add.w	r1, r4, #8
    32d2:	2300      	movs	r3, #0
    32d4:	3301      	adds	r3, #1
    32d6:	429d      	cmp	r5, r3
    32d8:	f101 0108 	add.w	r1, r1, #8
    32dc:	ed11 7a04 	vldr	s14, [r1, #-16]
    32e0:	ed51 7a03 	vldr	s15, [r1, #-12]
    32e4:	ee27 7a26 	vmul.f32	s14, s14, s13
    32e8:	ee67 7ae6 	vnmul.f32	s15, s15, s13
    32ec:	ed01 7a04 	vstr	s14, [r1, #-16]
    32f0:	ed41 7a03 	vstr	s15, [r1, #-12]
    32f4:	d1ee      	bne.n	32d4 <arm_cfft_f32+0x8c>
    32f6:	e8bd 81f0 	ldmia.w	sp!, {r4, r5, r6, r7, r8, pc}
    32fa:	4621      	mov	r1, r4
    32fc:	4630      	mov	r0, r6
    32fe:	f7ff fd63 	bl	2dc8 <arm_cfft_radix8by4_f32>
    3302:	e7be      	b.n	3282 <arm_cfft_f32+0x3a>
    3304:	b1ad      	cbz	r5, 3332 <arm_cfft_f32+0xea>
    3306:	f101 030c 	add.w	r3, r1, #12
    330a:	2200      	movs	r2, #0
    330c:	ed53 7a02 	vldr	s15, [r3, #-8]
    3310:	3201      	adds	r2, #1
    3312:	eef1 7a67 	vneg.f32	s15, s15
    3316:	4295      	cmp	r5, r2
    3318:	ed43 7a02 	vstr	s15, [r3, #-8]
    331c:	f103 0308 	add.w	r3, r3, #8
    3320:	d1f4      	bne.n	330c <arm_cfft_f32+0xc4>
    3322:	e79a      	b.n	325a <arm_cfft_f32+0x12>
    3324:	f5b5 7f00 	cmp.w	r5, #512	; 0x200
    3328:	d0a5      	beq.n	3276 <arm_cfft_f32+0x2e>
    332a:	e7aa      	b.n	3282 <arm_cfft_f32+0x3a>
    332c:	2d10      	cmp	r5, #16
    332e:	d0b6      	beq.n	329e <arm_cfft_f32+0x56>
    3330:	e7a7      	b.n	3282 <arm_cfft_f32+0x3a>
    3332:	f5b5 7f80 	cmp.w	r5, #256	; 0x100
    3336:	d894      	bhi.n	3262 <arm_cfft_f32+0x1a>
    3338:	e7aa      	b.n	3290 <arm_cfft_f32+0x48>
    333a:	bf00      	nop

0000333c <arm_radix8_butterfly_f32>:
    333c:	e92d 4ff0 	stmdb	sp!, {r4, r5, r6, r7, r8, r9, sl, fp, lr}
    3340:	ed2d 8b10 	vpush	{d8-d15}
    3344:	461c      	mov	r4, r3
    3346:	b09d      	sub	sp, #116	; 0x74
    3348:	4603      	mov	r3, r0
    334a:	3304      	adds	r3, #4
    334c:	ed9f bac7 	vldr	s22, [pc, #796]	; 366c <arm_radix8_butterfly_f32+0x330>
    3350:	9019      	str	r0, [sp, #100]	; 0x64
    3352:	921a      	str	r2, [sp, #104]	; 0x68
    3354:	468b      	mov	fp, r1
    3356:	931b      	str	r3, [sp, #108]	; 0x6c
    3358:	468a      	mov	sl, r1
    335a:	46a1      	mov	r9, r4
    335c:	4607      	mov	r7, r0
    335e:	ea4f 03db 	mov.w	r3, fp, lsr #3
    3362:	ea4f 0843 	mov.w	r8, r3, lsl #1
    3366:	eb03 0508 	add.w	r5, r3, r8
    336a:	195c      	adds	r4, r3, r5
    336c:	00de      	lsls	r6, r3, #3
    336e:	191a      	adds	r2, r3, r4
    3370:	9600      	str	r6, [sp, #0]
    3372:	1898      	adds	r0, r3, r2
    3374:	4619      	mov	r1, r3
    3376:	9e00      	ldr	r6, [sp, #0]
    3378:	9311      	str	r3, [sp, #68]	; 0x44
    337a:	4401      	add	r1, r0
    337c:	eb07 02c2 	add.w	r2, r7, r2, lsl #3
    3380:	eb07 01c1 	add.w	r1, r7, r1, lsl #3
    3384:	19be      	adds	r6, r7, r6
    3386:	eb07 05c5 	add.w	r5, r7, r5, lsl #3
    338a:	eb07 04c4 	add.w	r4, r7, r4, lsl #3
    338e:	eb07 00c0 	add.w	r0, r7, r0, lsl #3
    3392:	9f00      	ldr	r7, [sp, #0]
    3394:	011b      	lsls	r3, r3, #4
    3396:	eb06 0e07 	add.w	lr, r6, r7
    339a:	9f1b      	ldr	r7, [sp, #108]	; 0x6c
    339c:	9302      	str	r3, [sp, #8]
    339e:	3204      	adds	r2, #4
    33a0:	3104      	adds	r1, #4
    33a2:	ea4f 03cb 	mov.w	r3, fp, lsl #3
    33a6:	f04f 0c00 	mov.w	ip, #0
    33aa:	ed17 0a01 	vldr	s0, [r7, #-4]
    33ae:	edde 0a00 	vldr	s1, [lr]
    33b2:	edd6 4a00 	vldr	s9, [r6]
    33b6:	ed12 6a01 	vldr	s12, [r2, #-4]
    33ba:	ed95 3a00 	vldr	s6, [r5]
    33be:	ed51 1a01 	vldr	s3, [r1, #-4]
    33c2:	ed94 2a00 	vldr	s4, [r4]
    33c6:	edd0 2a00 	vldr	s5, [r0]
    33ca:	ee30 1a02 	vadd.f32	s2, s0, s4
    33ce:	ee70 9aa2 	vadd.f32	s19, s1, s5
    33d2:	ee74 6a86 	vadd.f32	s13, s9, s12
    33d6:	ee33 9a21 	vadd.f32	s18, s6, s3
    33da:	ee31 7a29 	vadd.f32	s14, s2, s19
    33de:	ee76 7a89 	vadd.f32	s15, s13, s18
    33e2:	ee34 4ac6 	vsub.f32	s8, s9, s12
    33e6:	ee37 6a27 	vadd.f32	s12, s14, s15
    33ea:	ee37 7a67 	vsub.f32	s14, s14, s15
    33ee:	ed07 6a01 	vstr	s12, [r7, #-4]
    33f2:	ed84 7a00 	vstr	s14, [r4]
    33f6:	edd6 5a01 	vldr	s11, [r6, #4]
    33fa:	ed92 6a00 	vldr	s12, [r2]
    33fe:	ed95 5a01 	vldr	s10, [r5, #4]
    3402:	edd1 aa00 	vldr	s21, [r1]
    3406:	edde 3a01 	vldr	s7, [lr, #4]
    340a:	edd0 7a01 	vldr	s15, [r0, #4]
    340e:	edd4 8a01 	vldr	s17, [r4, #4]
    3412:	ed97 7a00 	vldr	s14, [r7]
    3416:	ee73 4a61 	vsub.f32	s9, s6, s3
    341a:	ee35 3ac6 	vsub.f32	s6, s11, s12
    341e:	ee75 1a6a 	vsub.f32	s3, s10, s21
    3422:	ee33 8ae7 	vsub.f32	s16, s7, s15
    3426:	ee30 2a42 	vsub.f32	s4, s0, s4
    342a:	ee70 2ae2 	vsub.f32	s5, s1, s5
    342e:	ee37 0a68 	vsub.f32	s0, s14, s17
    3432:	ee73 0a21 	vadd.f32	s1, s6, s3
    3436:	ee33 3a61 	vsub.f32	s6, s6, s3
    343a:	ee34 aa64 	vsub.f32	s20, s8, s9
    343e:	ee37 7a28 	vadd.f32	s14, s14, s17
    3442:	ee74 4a24 	vadd.f32	s9, s8, s9
    3446:	eef0 8a48 	vmov.f32	s17, s16
    344a:	ee75 1a86 	vadd.f32	s3, s11, s12
    344e:	ee73 7aa7 	vadd.f32	s15, s7, s15
    3452:	ee75 5a2a 	vadd.f32	s11, s10, s21
    3456:	eee0 8a8b 	vfma.f32	s17, s1, s22
    345a:	44dc      	add	ip, fp
    345c:	45e2      	cmp	sl, ip
    345e:	eea0 8acb 	vfms.f32	s16, s1, s22
    3462:	eef0 3a42 	vmov.f32	s7, s4
    3466:	eef0 0a42 	vmov.f32	s1, s4
    346a:	eeb0 4a62 	vmov.f32	s8, s5
    346e:	eeb0 2a40 	vmov.f32	s4, s0
    3472:	eeb0 5a62 	vmov.f32	s10, s5
    3476:	eea3 0a4b 	vfms.f32	s0, s6, s22
    347a:	eea3 2a0b 	vfma.f32	s4, s6, s22
    347e:	eea4 4a8b 	vfma.f32	s8, s9, s22
    3482:	eea4 5acb 	vfms.f32	s10, s9, s22
    3486:	eeea 0a0b 	vfma.f32	s1, s20, s22
    348a:	eeea 3a4b 	vfms.f32	s7, s20, s22
    348e:	ee71 2aa5 	vadd.f32	s5, s3, s11
    3492:	ee77 4a27 	vadd.f32	s9, s14, s15
    3496:	ee71 5ae5 	vsub.f32	s11, s3, s11
    349a:	ee76 6ac9 	vsub.f32	s13, s13, s18
    349e:	ee77 7a67 	vsub.f32	s15, s14, s15
    34a2:	ee31 6a69 	vsub.f32	s12, s2, s19
    34a6:	eeb0 3a40 	vmov.f32	s6, s0
    34aa:	ee36 1a25 	vadd.f32	s2, s12, s11
    34ae:	ee34 0aa2 	vadd.f32	s0, s9, s5
    34b2:	ee77 1ae6 	vsub.f32	s3, s15, s13
    34b6:	ee74 4ae2 	vsub.f32	s9, s9, s5
    34ba:	ee36 6a65 	vsub.f32	s12, s12, s11
    34be:	ee76 7aa7 	vadd.f32	s15, s13, s15
    34c2:	ee70 2aa8 	vadd.f32	s5, s1, s17
    34c6:	ee73 5a88 	vadd.f32	s11, s7, s16
    34ca:	ee72 6a44 	vsub.f32	s13, s4, s8
    34ce:	ee33 7a45 	vsub.f32	s14, s6, s10
    34d2:	ee70 0ae8 	vsub.f32	s1, s1, s17
    34d6:	ee73 3ac8 	vsub.f32	s7, s7, s16
    34da:	ee34 4a02 	vadd.f32	s8, s8, s4
    34de:	ee35 5a03 	vadd.f32	s10, s10, s6
    34e2:	ed87 0a00 	vstr	s0, [r7]
    34e6:	edc4 4a01 	vstr	s9, [r4, #4]
    34ea:	441f      	add	r7, r3
    34ec:	ed8e 1a00 	vstr	s2, [lr]
    34f0:	441c      	add	r4, r3
    34f2:	ed80 6a00 	vstr	s12, [r0]
    34f6:	edce 1a01 	vstr	s3, [lr, #4]
    34fa:	edc0 7a01 	vstr	s15, [r0, #4]
    34fe:	449e      	add	lr, r3
    3500:	edc6 2a00 	vstr	s5, [r6]
    3504:	4418      	add	r0, r3
    3506:	ed41 0a01 	vstr	s1, [r1, #-4]
    350a:	ed42 5a01 	vstr	s11, [r2, #-4]
    350e:	edc5 3a00 	vstr	s7, [r5]
    3512:	edc6 6a01 	vstr	s13, [r6, #4]
    3516:	ed81 4a00 	vstr	s8, [r1]
    351a:	441e      	add	r6, r3
    351c:	ed82 7a00 	vstr	s14, [r2]
    3520:	4419      	add	r1, r3
    3522:	ed85 5a01 	vstr	s10, [r5, #4]
    3526:	441a      	add	r2, r3
    3528:	441d      	add	r5, r3
    352a:	f63f af3e 	bhi.w	33aa <arm_radix8_butterfly_f32+0x6e>
    352e:	9a11      	ldr	r2, [sp, #68]	; 0x44
    3530:	2a07      	cmp	r2, #7
    3532:	f240 81d9 	bls.w	38e8 <arm_radix8_butterfly_f32+0x5ac>
    3536:	f108 0101 	add.w	r1, r8, #1
    353a:	188f      	adds	r7, r1, r2
    353c:	eb09 0849 	add.w	r8, r9, r9, lsl #1
    3540:	19d6      	adds	r6, r2, r7
    3542:	eb08 0c09 	add.w	ip, r8, r9
    3546:	1994      	adds	r4, r2, r6
    3548:	eb0c 0e09 	add.w	lr, ip, r9
    354c:	4610      	mov	r0, r2
    354e:	9701      	str	r7, [sp, #4]
    3550:	4420      	add	r0, r4
    3552:	eb0e 0709 	add.w	r7, lr, r9
    3556:	1815      	adds	r5, r2, r0
    3558:	eb07 0209 	add.w	r2, r7, r9
    355c:	9203      	str	r2, [sp, #12]
    355e:	9a1a      	ldr	r2, [sp, #104]	; 0x68
    3560:	ea4f 01c9 	mov.w	r1, r9, lsl #3
    3564:	9117      	str	r1, [sp, #92]	; 0x5c
    3566:	440a      	add	r2, r1
    3568:	9900      	ldr	r1, [sp, #0]
    356a:	3108      	adds	r1, #8
    356c:	9100      	str	r1, [sp, #0]
    356e:	9902      	ldr	r1, [sp, #8]
    3570:	3108      	adds	r1, #8
    3572:	9102      	str	r1, [sp, #8]
    3574:	9919      	ldr	r1, [sp, #100]	; 0x64
    3576:	00ff      	lsls	r7, r7, #3
    3578:	9715      	str	r7, [sp, #84]	; 0x54
    357a:	eb01 04c4 	add.w	r4, r1, r4, lsl #3
    357e:	eb01 05c5 	add.w	r5, r1, r5, lsl #3
    3582:	eb01 00c0 	add.w	r0, r1, r0, lsl #3
    3586:	9f17      	ldr	r7, [sp, #92]	; 0x5c
    3588:	9903      	ldr	r1, [sp, #12]
    358a:	19d7      	adds	r7, r2, r7
    358c:	00c9      	lsls	r1, r1, #3
    358e:	9114      	str	r1, [sp, #80]	; 0x50
    3590:	9710      	str	r7, [sp, #64]	; 0x40
    3592:	9919      	ldr	r1, [sp, #100]	; 0x64
    3594:	9f00      	ldr	r7, [sp, #0]
    3596:	19cf      	adds	r7, r1, r7
    3598:	970d      	str	r7, [sp, #52]	; 0x34
    359a:	9f02      	ldr	r7, [sp, #8]
    359c:	19cf      	adds	r7, r1, r7
    359e:	ea4f 0ece 	mov.w	lr, lr, lsl #3
    35a2:	970c      	str	r7, [sp, #48]	; 0x30
    35a4:	9f01      	ldr	r7, [sp, #4]
    35a6:	f8cd e058 	str.w	lr, [sp, #88]	; 0x58
    35aa:	3504      	adds	r5, #4
    35ac:	3004      	adds	r0, #4
    35ae:	eb01 0ec7 	add.w	lr, r1, r7, lsl #3
    35b2:	9508      	str	r5, [sp, #32]
    35b4:	9009      	str	r0, [sp, #36]	; 0x24
    35b6:	9d16      	ldr	r5, [sp, #88]	; 0x58
    35b8:	981a      	ldr	r0, [sp, #104]	; 0x68
    35ba:	f8cd e02c 	str.w	lr, [sp, #44]	; 0x2c
    35be:	ea4f 08c8 	mov.w	r8, r8, lsl #3
    35c2:	eb01 0ec6 	add.w	lr, r1, r6, lsl #3
    35c6:	9e14      	ldr	r6, [sp, #80]	; 0x50
    35c8:	f8cd e038 	str.w	lr, [sp, #56]	; 0x38
    35cc:	1945      	adds	r5, r0, r5
    35ce:	ea4f 0ccc 	mov.w	ip, ip, lsl #3
    35d2:	460f      	mov	r7, r1
    35d4:	3404      	adds	r4, #4
    35d6:	4641      	mov	r1, r8
    35d8:	1841      	adds	r1, r0, r1
    35da:	f8cd c048 	str.w	ip, [sp, #72]	; 0x48
    35de:	940a      	str	r4, [sp, #40]	; 0x28
    35e0:	eb00 0c06 	add.w	ip, r0, r6
    35e4:	f8cd 804c 	str.w	r8, [sp, #76]	; 0x4c
    35e8:	9e15      	ldr	r6, [sp, #84]	; 0x54
    35ea:	9506      	str	r5, [sp, #24]
    35ec:	9c12      	ldr	r4, [sp, #72]	; 0x48
    35ee:	9105      	str	r1, [sp, #20]
    35f0:	4639      	mov	r1, r7
    35f2:	1905      	adds	r5, r0, r4
    35f4:	3108      	adds	r1, #8
    35f6:	9c10      	ldr	r4, [sp, #64]	; 0x40
    35f8:	9507      	str	r5, [sp, #28]
    35fa:	910f      	str	r1, [sp, #60]	; 0x3c
    35fc:	ea4f 1509 	mov.w	r5, r9, lsl #4
    3600:	2101      	movs	r1, #1
    3602:	eb00 0e06 	add.w	lr, r0, r6
    3606:	9518      	str	r5, [sp, #96]	; 0x60
    3608:	9404      	str	r4, [sp, #16]
    360a:	9103      	str	r1, [sp, #12]
    360c:	4620      	mov	r0, r4
    360e:	4689      	mov	r9, r1
    3610:	9e06      	ldr	r6, [sp, #24]
    3612:	edd0 ea00 	vldr	s29, [r0]
    3616:	edd6 7a01 	vldr	s15, [r6, #4]
    361a:	edd0 aa01 	vldr	s21, [r0, #4]
    361e:	edcd 7a00 	vstr	s15, [sp]
    3622:	a80d      	add	r0, sp, #52	; 0x34
    3624:	edde 7a01 	vldr	s15, [lr, #4]
    3628:	9c05      	ldr	r4, [sp, #20]
    362a:	9d07      	ldr	r5, [sp, #28]
    362c:	ed92 fa00 	vldr	s30, [r2]
    3630:	edd2 ba01 	vldr	s23, [r2, #4]
    3634:	edcd 7a01 	vstr	s15, [sp, #4]
    3638:	c807      	ldmia	r0, {r0, r1, r2}
    363a:	eddc 7a01 	vldr	s15, [ip, #4]
    363e:	ed94 ea00 	vldr	s28, [r4]
    3642:	edd5 da00 	vldr	s27, [r5]
    3646:	ed96 da00 	vldr	s26, [r6]
    364a:	ed94 aa01 	vldr	s20, [r4, #4]
    364e:	edd5 9a01 	vldr	s19, [r5, #4]
    3652:	edde ca00 	vldr	s25, [lr]
    3656:	ed9c ca00 	vldr	s24, [ip]
    365a:	f8dd 8020 	ldr.w	r8, [sp, #32]
    365e:	9f09      	ldr	r7, [sp, #36]	; 0x24
    3660:	9e0a      	ldr	r6, [sp, #40]	; 0x28
    3662:	9d0b      	ldr	r5, [sp, #44]	; 0x2c
    3664:	9c0c      	ldr	r4, [sp, #48]	; 0x30
    3666:	edcd 7a02 	vstr	s15, [sp, #8]
    366a:	e001      	b.n	3670 <arm_radix8_butterfly_f32+0x334>
    366c:	3f3504f3 	.word	0x3f3504f3
    3670:	ed16 6a01 	vldr	s12, [r6, #-4]
    3674:	edd2 fa00 	vldr	s31, [r2]
    3678:	ed57 2a01 	vldr	s5, [r7, #-4]
    367c:	edd5 5a00 	vldr	s11, [r5]
    3680:	ed58 6a01 	vldr	s13, [r8, #-4]
    3684:	ed91 7a00 	vldr	s14, [r1]
    3688:	edd4 7a00 	vldr	s15, [r4]
    368c:	ed90 2a00 	vldr	s4, [r0]
    3690:	ed92 8a01 	vldr	s16, [r2, #4]
    3694:	ee7f 0a87 	vadd.f32	s1, s31, s14
    3698:	ee32 1a06 	vadd.f32	s2, s4, s12
    369c:	ee37 4aa2 	vadd.f32	s8, s15, s5
    36a0:	ee75 4aa6 	vadd.f32	s9, s11, s13
    36a4:	ee70 1a84 	vadd.f32	s3, s1, s8
    36a8:	ee31 5a24 	vadd.f32	s10, s2, s9
    36ac:	ee32 2a46 	vsub.f32	s4, s4, s12
    36b0:	ee31 6a85 	vadd.f32	s12, s3, s10
    36b4:	ee75 5ae6 	vsub.f32	s11, s11, s13
    36b8:	ed82 6a00 	vstr	s12, [r2]
    36bc:	edd5 8a01 	vldr	s17, [r5, #4]
    36c0:	ed90 9a01 	vldr	s18, [r0, #4]
    36c4:	ed96 3a00 	vldr	s6, [r6]
    36c8:	ed98 6a00 	vldr	s12, [r8]
    36cc:	ed94 0a01 	vldr	s0, [r4, #4]
    36d0:	edd7 6a00 	vldr	s13, [r7]
    36d4:	edd1 3a01 	vldr	s7, [r1, #4]
    36d8:	ee3f 7ac7 	vsub.f32	s14, s31, s14
    36dc:	ee77 7ae2 	vsub.f32	s15, s15, s5
    36e0:	ee78 fac6 	vsub.f32	s31, s17, s12
    36e4:	ee79 2a43 	vsub.f32	s5, s18, s6
    36e8:	ee39 3a03 	vadd.f32	s6, s18, s6
    36ec:	ee30 9a66 	vsub.f32	s18, s0, s13
    36f0:	ee38 6a86 	vadd.f32	s12, s17, s12
    36f4:	ee70 6a26 	vadd.f32	s13, s0, s13
    36f8:	ee78 8a63 	vsub.f32	s17, s16, s7
    36fc:	ee32 0aef 	vsub.f32	s0, s5, s31
    3700:	ee72 2aaf 	vadd.f32	s5, s5, s31
    3704:	ee78 3a23 	vadd.f32	s7, s16, s7
    3708:	ee30 4ac4 	vsub.f32	s8, s1, s8
    370c:	ee32 8a25 	vadd.f32	s16, s4, s11
    3710:	eef0 0a49 	vmov.f32	s1, s18
    3714:	ee72 5a65 	vsub.f32	s11, s4, s11
    3718:	eee2 0a8b 	vfma.f32	s1, s5, s22
    371c:	44d9      	add	r9, fp
    371e:	45ca      	cmp	sl, r9
    3720:	eea2 9acb 	vfms.f32	s18, s5, s22
    3724:	eeb0 2a68 	vmov.f32	s4, s17
    3728:	eef0 2a47 	vmov.f32	s5, s14
    372c:	eee5 2a8b 	vfma.f32	s5, s11, s22
    3730:	eea5 7acb 	vfms.f32	s14, s11, s22
    3734:	eea0 2a0b 	vfma.f32	s4, s0, s22
    3738:	ee73 5a06 	vadd.f32	s11, s6, s12
    373c:	eee0 8a4b 	vfms.f32	s17, s0, s22
    3740:	eef0 fa67 	vmov.f32	s31, s15
    3744:	ee33 0aa6 	vadd.f32	s0, s7, s13
    3748:	eee8 7a4b 	vfms.f32	s15, s16, s22
    374c:	ee71 4a64 	vsub.f32	s9, s2, s9
    3750:	ee31 5ac5 	vsub.f32	s10, s3, s10
    3754:	eee8 fa0b 	vfma.f32	s31, s16, s22
    3758:	ee33 3a46 	vsub.f32	s6, s6, s12
    375c:	ee30 8a65 	vsub.f32	s16, s0, s11
    3760:	ee73 3ae6 	vsub.f32	s7, s7, s13
    3764:	ee34 6a03 	vadd.f32	s12, s8, s6
    3768:	ee72 6aa0 	vadd.f32	s13, s5, s1
    376c:	ee34 4a43 	vsub.f32	s8, s8, s6
    3770:	ee72 0ae0 	vsub.f32	s1, s5, s1
    3774:	ee33 3ae4 	vsub.f32	s6, s7, s9
    3778:	ee65 2a69 	vnmul.f32	s5, s10, s19
    377c:	ee74 3aa3 	vadd.f32	s7, s9, s7
    3780:	ee77 4a09 	vadd.f32	s9, s14, s18
    3784:	ee37 9a49 	vsub.f32	s18, s14, s18
    3788:	ee38 7ae7 	vsub.f32	s14, s17, s15
    378c:	ee77 8aa8 	vadd.f32	s17, s15, s17
    3790:	ee69 7a88 	vmul.f32	s15, s19, s16
    3794:	eeed 2a88 	vfma.f32	s5, s27, s16
    3798:	eeed 7a85 	vfma.f32	s15, s27, s10
    379c:	ed9d 8a01 	vldr	s16, [sp, #4]
    37a0:	ee26 5a6a 	vnmul.f32	s10, s12, s21
    37a4:	ee2a 1a83 	vmul.f32	s2, s21, s6
    37a8:	ee72 1a6f 	vsub.f32	s3, s4, s31
    37ac:	eeae 5a83 	vfma.f32	s10, s29, s6
    37b0:	eeae 1a86 	vfma.f32	s2, s29, s12
    37b4:	ee28 3a23 	vmul.f32	s6, s16, s7
    37b8:	ee24 6a48 	vnmul.f32	s12, s8, s16
    37bc:	ee3f 2a82 	vadd.f32	s4, s31, s4
    37c0:	ed9d 8a02 	vldr	s16, [sp, #8]
    37c4:	eeac 3a84 	vfma.f32	s6, s25, s8
    37c8:	eeac 6aa3 	vfma.f32	s12, s25, s7
    37cc:	ee2b 4aa1 	vmul.f32	s8, s23, s3
    37d0:	ee66 3aeb 	vnmul.f32	s7, s13, s23
    37d4:	eeaf 4a26 	vfma.f32	s8, s30, s13
    37d8:	eeef 3a21 	vfma.f32	s7, s30, s3
    37dc:	ee68 6a02 	vmul.f32	s13, s16, s4
    37e0:	ee60 1ac8 	vnmul.f32	s3, s1, s16
    37e4:	ed9d 8a00 	vldr	s16, [sp]
    37e8:	eeec 6a20 	vfma.f32	s13, s24, s1
    37ec:	eeec 1a02 	vfma.f32	s3, s24, s4
    37f0:	ee64 0ac8 	vnmul.f32	s1, s9, s16
    37f4:	ee28 2a07 	vmul.f32	s4, s16, s14
    37f8:	eeed 0a07 	vfma.f32	s1, s26, s14
    37fc:	eead 2a24 	vfma.f32	s4, s26, s9
    3800:	ee2a 7a28 	vmul.f32	s14, s20, s17
    3804:	ee69 4a4a 	vnmul.f32	s9, s18, s20
    3808:	eeae 7a09 	vfma.f32	s14, s28, s18
    380c:	eeee 4a28 	vfma.f32	s9, s28, s17
    3810:	ee70 5a25 	vadd.f32	s11, s0, s11
    3814:	edc2 5a01 	vstr	s11, [r2, #4]
    3818:	edc1 7a00 	vstr	s15, [r1]
    381c:	edc1 2a01 	vstr	s5, [r1, #4]
    3820:	441a      	add	r2, r3
    3822:	ed84 1a00 	vstr	s2, [r4]
    3826:	ed84 5a01 	vstr	s10, [r4, #4]
    382a:	4419      	add	r1, r3
    382c:	ed07 3a01 	vstr	s6, [r7, #-4]
    3830:	ed87 6a00 	vstr	s12, [r7]
    3834:	441c      	add	r4, r3
    3836:	ed80 4a00 	vstr	s8, [r0]
    383a:	edc0 3a01 	vstr	s7, [r0, #4]
    383e:	441f      	add	r7, r3
    3840:	ed48 6a01 	vstr	s13, [r8, #-4]
    3844:	edc8 1a00 	vstr	s3, [r8]
    3848:	4418      	add	r0, r3
    384a:	ed06 2a01 	vstr	s4, [r6, #-4]
    384e:	4498      	add	r8, r3
    3850:	edc6 0a00 	vstr	s1, [r6]
    3854:	ed85 7a00 	vstr	s14, [r5]
    3858:	edc5 4a01 	vstr	s9, [r5, #4]
    385c:	441e      	add	r6, r3
    385e:	441d      	add	r5, r3
    3860:	f63f af06 	bhi.w	3670 <arm_radix8_butterfly_f32+0x334>
    3864:	9a03      	ldr	r2, [sp, #12]
    3866:	9818      	ldr	r0, [sp, #96]	; 0x60
    3868:	3201      	adds	r2, #1
    386a:	4611      	mov	r1, r2
    386c:	9203      	str	r2, [sp, #12]
    386e:	9a04      	ldr	r2, [sp, #16]
    3870:	4402      	add	r2, r0
    3872:	9204      	str	r2, [sp, #16]
    3874:	9813      	ldr	r0, [sp, #76]	; 0x4c
    3876:	9a05      	ldr	r2, [sp, #20]
    3878:	4402      	add	r2, r0
    387a:	9205      	str	r2, [sp, #20]
    387c:	9812      	ldr	r0, [sp, #72]	; 0x48
    387e:	9a07      	ldr	r2, [sp, #28]
    3880:	4402      	add	r2, r0
    3882:	9207      	str	r2, [sp, #28]
    3884:	9816      	ldr	r0, [sp, #88]	; 0x58
    3886:	9a06      	ldr	r2, [sp, #24]
    3888:	4402      	add	r2, r0
    388a:	9206      	str	r2, [sp, #24]
    388c:	9a15      	ldr	r2, [sp, #84]	; 0x54
    388e:	4496      	add	lr, r2
    3890:	9a14      	ldr	r2, [sp, #80]	; 0x50
    3892:	4494      	add	ip, r2
    3894:	9a0f      	ldr	r2, [sp, #60]	; 0x3c
    3896:	3208      	adds	r2, #8
    3898:	920f      	str	r2, [sp, #60]	; 0x3c
    389a:	9a0e      	ldr	r2, [sp, #56]	; 0x38
    389c:	3208      	adds	r2, #8
    389e:	920e      	str	r2, [sp, #56]	; 0x38
    38a0:	9a0d      	ldr	r2, [sp, #52]	; 0x34
    38a2:	3208      	adds	r2, #8
    38a4:	920d      	str	r2, [sp, #52]	; 0x34
    38a6:	9a0c      	ldr	r2, [sp, #48]	; 0x30
    38a8:	3208      	adds	r2, #8
    38aa:	920c      	str	r2, [sp, #48]	; 0x30
    38ac:	9a0b      	ldr	r2, [sp, #44]	; 0x2c
    38ae:	3208      	adds	r2, #8
    38b0:	920b      	str	r2, [sp, #44]	; 0x2c
    38b2:	9a0a      	ldr	r2, [sp, #40]	; 0x28
    38b4:	3208      	adds	r2, #8
    38b6:	920a      	str	r2, [sp, #40]	; 0x28
    38b8:	9a09      	ldr	r2, [sp, #36]	; 0x24
    38ba:	3208      	adds	r2, #8
    38bc:	9209      	str	r2, [sp, #36]	; 0x24
    38be:	9a08      	ldr	r2, [sp, #32]
    38c0:	3208      	adds	r2, #8
    38c2:	9208      	str	r2, [sp, #32]
    38c4:	9c10      	ldr	r4, [sp, #64]	; 0x40
    38c6:	9811      	ldr	r0, [sp, #68]	; 0x44
    38c8:	4288      	cmp	r0, r1
    38ca:	4622      	mov	r2, r4
    38cc:	d007      	beq.n	38de <arm_radix8_butterfly_f32+0x5a2>
    38ce:	9817      	ldr	r0, [sp, #92]	; 0x5c
    38d0:	f8dd 900c 	ldr.w	r9, [sp, #12]
    38d4:	4621      	mov	r1, r4
    38d6:	4401      	add	r1, r0
    38d8:	9110      	str	r1, [sp, #64]	; 0x40
    38da:	9804      	ldr	r0, [sp, #16]
    38dc:	e698      	b.n	3610 <arm_radix8_butterfly_f32+0x2d4>
    38de:	4683      	mov	fp, r0
    38e0:	f8bd 905c 	ldrh.w	r9, [sp, #92]	; 0x5c
    38e4:	9f19      	ldr	r7, [sp, #100]	; 0x64
    38e6:	e53a      	b.n	335e <arm_radix8_butterfly_f32+0x22>
    38e8:	b01d      	add	sp, #116	; 0x74
    38ea:	ecbd 8b10 	vpop	{d8-d15}
    38ee:	e8bd 8ff0 	ldmia.w	sp!, {r4, r5, r6, r7, r8, r9, sl, fp, pc}
    38f2:	bf00      	nop

000038f4 <arm_biquad_cascade_df1_f32>:
    38f4:	e92d 43f0 	stmdb	sp!, {r4, r5, r6, r7, r8, r9, lr}
    38f8:	ea4f 0c93 	mov.w	ip, r3, lsr #2
    38fc:	6886      	ldr	r6, [r0, #8]
    38fe:	6845      	ldr	r5, [r0, #4]
    3900:	6807      	ldr	r7, [r0, #0]
    3902:	4696      	mov	lr, r2
    3904:	ea4f 180c 	mov.w	r8, ip, lsl #4
    3908:	f003 0203 	and.w	r2, r3, #3
    390c:	eb0e 0908 	add.w	r9, lr, r8
    3910:	3614      	adds	r6, #20
    3912:	3510      	adds	r5, #16
    3914:	ed56 4a05 	vldr	s9, [r6, #-20]	; 0xffffffec
    3918:	ed16 4a04 	vldr	s8, [r6, #-16]
    391c:	ed56 3a03 	vldr	s7, [r6, #-12]
    3920:	ed16 3a02 	vldr	s6, [r6, #-8]
    3924:	ed56 2a01 	vldr	s5, [r6, #-4]
    3928:	ed55 5a04 	vldr	s11, [r5, #-16]
    392c:	ed15 5a03 	vldr	s10, [r5, #-12]
    3930:	ed55 7a02 	vldr	s15, [r5, #-8]
    3934:	ed15 7a01 	vldr	s14, [r5, #-4]
    3938:	f1bc 0f00 	cmp.w	ip, #0
    393c:	d07a      	beq.n	3a34 <arm_biquad_cascade_df1_f32+0x140>
    393e:	f101 0010 	add.w	r0, r1, #16
    3942:	f10e 0310 	add.w	r3, lr, #16
    3946:	4664      	mov	r4, ip
    3948:	ed50 1a04 	vldr	s3, [r0, #-16]
    394c:	ee24 6a25 	vmul.f32	s12, s8, s11
    3950:	ee64 6a21 	vmul.f32	s13, s8, s3
    3954:	eea4 6aa1 	vfma.f32	s12, s9, s3
    3958:	3c01      	subs	r4, #1
    395a:	f100 0010 	add.w	r0, r0, #16
    395e:	f103 0310 	add.w	r3, r3, #16
    3962:	eea3 6a85 	vfma.f32	s12, s7, s10
    3966:	eea3 6a27 	vfma.f32	s12, s6, s15
    396a:	eea2 6a87 	vfma.f32	s12, s5, s14
    396e:	ed03 6a08 	vstr	s12, [r3, #-32]	; 0xffffffe0
    3972:	ed10 2a07 	vldr	s4, [r0, #-28]	; 0xffffffe4
    3976:	eee4 6a82 	vfma.f32	s13, s9, s4
    397a:	ee24 7a02 	vmul.f32	s14, s8, s4
    397e:	eee3 6aa5 	vfma.f32	s13, s7, s11
    3982:	eee3 6a06 	vfma.f32	s13, s6, s12
    3986:	eee2 6aa7 	vfma.f32	s13, s5, s15
    398a:	ed43 6a07 	vstr	s13, [r3, #-28]	; 0xffffffe4
    398e:	ed10 5a06 	vldr	s10, [r0, #-24]	; 0xffffffe8
    3992:	eea4 7a85 	vfma.f32	s14, s9, s10
    3996:	ee64 7a05 	vmul.f32	s15, s8, s10
    399a:	eea3 7aa1 	vfma.f32	s14, s7, s3
    399e:	eea3 7a26 	vfma.f32	s14, s6, s13
    39a2:	eea2 7a86 	vfma.f32	s14, s5, s12
    39a6:	ed03 7a06 	vstr	s14, [r3, #-24]	; 0xffffffe8
    39aa:	ed50 5a05 	vldr	s11, [r0, #-20]	; 0xffffffec
    39ae:	eee4 7aa5 	vfma.f32	s15, s9, s11
    39b2:	eee3 7a82 	vfma.f32	s15, s7, s4
    39b6:	eee3 7a07 	vfma.f32	s15, s6, s14
    39ba:	eee2 7aa6 	vfma.f32	s15, s5, s13
    39be:	ed43 7a05 	vstr	s15, [r3, #-20]	; 0xffffffec
    39c2:	d1c1      	bne.n	3948 <arm_biquad_cascade_df1_f32+0x54>
    39c4:	4441      	add	r1, r8
    39c6:	4648      	mov	r0, r9
    39c8:	b35a      	cbz	r2, 3a22 <arm_biquad_cascade_df1_f32+0x12e>
    39ca:	4613      	mov	r3, r2
    39cc:	e003      	b.n	39d6 <arm_biquad_cascade_df1_f32+0xe2>
    39ce:	eef0 7a66 	vmov.f32	s15, s13
    39d2:	eef0 5a46 	vmov.f32	s11, s12
    39d6:	ecb1 6a01 	vldmia	r1!, {s12}
    39da:	ee64 6a25 	vmul.f32	s13, s8, s11
    39de:	3b01      	subs	r3, #1
    39e0:	eee4 6a86 	vfma.f32	s13, s9, s12
    39e4:	eee3 6a85 	vfma.f32	s13, s7, s10
    39e8:	eeb0 5a65 	vmov.f32	s10, s11
    39ec:	eee3 6a27 	vfma.f32	s13, s6, s15
    39f0:	eee2 6a87 	vfma.f32	s13, s5, s14
    39f4:	eeb0 7a67 	vmov.f32	s14, s15
    39f8:	ece0 6a01 	vstmia	r0!, {s13}
    39fc:	d1e7      	bne.n	39ce <arm_biquad_cascade_df1_f32+0xda>
    39fe:	3f01      	subs	r7, #1
    3a00:	ed05 6a04 	vstr	s12, [r5, #-16]
    3a04:	ed45 5a03 	vstr	s11, [r5, #-12]
    3a08:	ed45 6a02 	vstr	s13, [r5, #-8]
    3a0c:	ed45 7a01 	vstr	s15, [r5, #-4]
    3a10:	f106 0614 	add.w	r6, r6, #20
    3a14:	f105 0510 	add.w	r5, r5, #16
    3a18:	4671      	mov	r1, lr
    3a1a:	f47f af7b 	bne.w	3914 <arm_biquad_cascade_df1_f32+0x20>
    3a1e:	e8bd 83f0 	ldmia.w	sp!, {r4, r5, r6, r7, r8, r9, pc}
    3a22:	eef0 6a67 	vmov.f32	s13, s15
    3a26:	eeb0 6a65 	vmov.f32	s12, s11
    3a2a:	eef0 7a47 	vmov.f32	s15, s14
    3a2e:	eef0 5a45 	vmov.f32	s11, s10
    3a32:	e7e4      	b.n	39fe <arm_biquad_cascade_df1_f32+0x10a>
    3a34:	4670      	mov	r0, lr
    3a36:	e7c7      	b.n	39c8 <arm_biquad_cascade_df1_f32+0xd4>

00003a38 <arm_biquad_cascade_df1_init_f32>:
    3a38:	b538      	push	{r3, r4, r5, lr}
    3a3a:	4604      	mov	r4, r0
    3a3c:	6082      	str	r2, [r0, #8]
    3a3e:	6001      	str	r1, [r0, #0]
    3a40:	461d      	mov	r5, r3
    3a42:	010a      	lsls	r2, r1, #4
    3a44:	4618      	mov	r0, r3
    3a46:	2100      	movs	r1, #0
    3a48:	f000 fc66 	bl	4318 <memset>
    3a4c:	6065      	str	r5, [r4, #4]
    3a4e:	bd38      	pop	{r3, r4, r5, pc}

00003a50 <arm_biquad_cascade_df2T_f32>:
    3a50:	e92d 47f0 	stmdb	sp!, {r4, r5, r6, r7, r8, r9, sl, lr}
    3a54:	f890 e000 	ldrb.w	lr, [r0]
    3a58:	ea4f 0893 	mov.w	r8, r3, lsr #2
    3a5c:	6886      	ldr	r6, [r0, #8]
    3a5e:	3614      	adds	r6, #20
    3a60:	6847      	ldr	r7, [r0, #4]
    3a62:	3708      	adds	r7, #8
    3a64:	ea4f 1908 	mov.w	r9, r8, lsl #4
    3a68:	eb02 0a09 	add.w	sl, r2, r9
    3a6c:	ed56 4a05 	vldr	s9, [r6, #-20]	; 0xffffffec
    3a70:	ed16 4a04 	vldr	s8, [r6, #-16]
    3a74:	ed56 3a03 	vldr	s7, [r6, #-12]
    3a78:	ed16 3a02 	vldr	s6, [r6, #-8]
    3a7c:	ed56 2a01 	vldr	s5, [r6, #-4]
    3a80:	46bc      	mov	ip, r7
    3a82:	ed17 7a02 	vldr	s14, [r7, #-8]
    3a86:	ed17 6a01 	vldr	s12, [r7, #-4]
    3a8a:	f1b8 0f00 	cmp.w	r8, #0
    3a8e:	d063      	beq.n	3b58 <arm_biquad_cascade_df2T_f32+0x108>
    3a90:	f101 0410 	add.w	r4, r1, #16
    3a94:	f102 0010 	add.w	r0, r2, #16
    3a98:	4645      	mov	r5, r8
    3a9a:	ed54 6a04 	vldr	s13, [r4, #-16]
    3a9e:	ed54 7a03 	vldr	s15, [r4, #-12]
    3aa2:	ed14 5a02 	vldr	s10, [r4, #-8]
    3aa6:	ed54 1a01 	vldr	s3, [r4, #-4]
    3aaa:	ee24 2aa6 	vmul.f32	s4, s9, s13
    3aae:	ee32 2a07 	vadd.f32	s4, s4, s14
    3ab2:	ee24 7a26 	vmul.f32	s14, s8, s13
    3ab6:	ee63 5a02 	vmul.f32	s11, s6, s4
    3aba:	ee77 5a25 	vadd.f32	s11, s14, s11
    3abe:	ee75 5a86 	vadd.f32	s11, s11, s12
    3ac2:	ee24 7aa7 	vmul.f32	s14, s9, s15
    3ac6:	ee75 5a87 	vadd.f32	s11, s11, s14
    3aca:	ee63 6aa6 	vmul.f32	s13, s7, s13
    3ace:	ee22 7a82 	vmul.f32	s14, s5, s4
    3ad2:	ee36 7a87 	vadd.f32	s14, s13, s14
    3ad6:	ee64 6a27 	vmul.f32	s13, s8, s15
    3ada:	ee23 6a25 	vmul.f32	s12, s6, s11
    3ade:	ee76 6a86 	vadd.f32	s13, s13, s12
    3ae2:	ee77 6a26 	vadd.f32	s13, s14, s13
    3ae6:	ee24 7a85 	vmul.f32	s14, s9, s10
    3aea:	ee76 6a87 	vadd.f32	s13, s13, s14
    3aee:	ee63 7aa7 	vmul.f32	s15, s7, s15
    3af2:	ee22 7aa5 	vmul.f32	s14, s5, s11
    3af6:	ee37 7a87 	vadd.f32	s14, s15, s14
    3afa:	ee64 7a05 	vmul.f32	s15, s8, s10
    3afe:	ee23 6a26 	vmul.f32	s12, s6, s13
    3b02:	ee77 7a86 	vadd.f32	s15, s15, s12
    3b06:	ee77 7a27 	vadd.f32	s15, s14, s15
    3b0a:	ee24 7aa1 	vmul.f32	s14, s9, s3
    3b0e:	ee77 7a87 	vadd.f32	s15, s15, s14
    3b12:	ee23 5a85 	vmul.f32	s10, s7, s10
    3b16:	ee22 7aa6 	vmul.f32	s14, s5, s13
    3b1a:	ee35 5a07 	vadd.f32	s10, s10, s14
    3b1e:	ee24 6a21 	vmul.f32	s12, s8, s3
    3b22:	ee23 7a27 	vmul.f32	s14, s6, s15
    3b26:	ee36 7a07 	vadd.f32	s14, s12, s14
    3b2a:	ee35 7a07 	vadd.f32	s14, s10, s14
    3b2e:	ee23 5aa1 	vmul.f32	s10, s7, s3
    3b32:	ee22 6aa7 	vmul.f32	s12, s5, s15
    3b36:	ee35 6a06 	vadd.f32	s12, s10, s12
    3b3a:	ed00 2a04 	vstr	s4, [r0, #-16]
    3b3e:	ed40 5a03 	vstr	s11, [r0, #-12]
    3b42:	ed40 6a02 	vstr	s13, [r0, #-8]
    3b46:	ed40 7a01 	vstr	s15, [r0, #-4]
    3b4a:	3410      	adds	r4, #16
    3b4c:	3010      	adds	r0, #16
    3b4e:	3d01      	subs	r5, #1
    3b50:	d1a3      	bne.n	3a9a <arm_biquad_cascade_df2T_f32+0x4a>
    3b52:	4449      	add	r1, r9
    3b54:	4654      	mov	r4, sl
    3b56:	e000      	b.n	3b5a <arm_biquad_cascade_df2T_f32+0x10a>
    3b58:	4614      	mov	r4, r2
    3b5a:	f013 0003 	ands.w	r0, r3, #3
    3b5e:	d017      	beq.n	3b90 <arm_biquad_cascade_df2T_f32+0x140>
    3b60:	ecf1 5a01 	vldmia	r1!, {s11}
    3b64:	ee64 6aa5 	vmul.f32	s13, s9, s11
    3b68:	ee76 6a87 	vadd.f32	s13, s13, s14
    3b6c:	ee64 7a25 	vmul.f32	s15, s8, s11
    3b70:	ee23 7a26 	vmul.f32	s14, s6, s13
    3b74:	ee37 7a87 	vadd.f32	s14, s15, s14
    3b78:	ee37 7a06 	vadd.f32	s14, s14, s12
    3b7c:	ee63 5aa5 	vmul.f32	s11, s7, s11
    3b80:	ee62 7aa6 	vmul.f32	s15, s5, s13
    3b84:	ee35 6aa7 	vadd.f32	s12, s11, s15
    3b88:	ece4 6a01 	vstmia	r4!, {s13}
    3b8c:	3801      	subs	r0, #1
    3b8e:	d1e7      	bne.n	3b60 <arm_biquad_cascade_df2T_f32+0x110>
    3b90:	ed0c 7a02 	vstr	s14, [ip, #-8]
    3b94:	ed0c 6a01 	vstr	s12, [ip, #-4]
    3b98:	3614      	adds	r6, #20
    3b9a:	3708      	adds	r7, #8
    3b9c:	4611      	mov	r1, r2
    3b9e:	f1be 0e01 	subs.w	lr, lr, #1
    3ba2:	f47f af63 	bne.w	3a6c <arm_biquad_cascade_df2T_f32+0x1c>
    3ba6:	e8bd 87f0 	ldmia.w	sp!, {r4, r5, r6, r7, r8, r9, sl, pc}
    3baa:	bf00      	nop

00003bac <arm_biquad_cascade_df2T_init_f32>:
    3bac:	b538      	push	{r3, r4, r5, lr}
    3bae:	4604      	mov	r4, r0
    3bb0:	6082      	str	r2, [r0, #8]
    3bb2:	7001      	strb	r1, [r0, #0]
    3bb4:	461d      	mov	r5, r3
    3bb6:	00ca      	lsls	r2, r1, #3
    3bb8:	4618      	mov	r0, r3
    3bba:	2100      	movs	r1, #0
    3bbc:	f000 fbac 	bl	4318 <memset>
    3bc0:	6065      	str	r5, [r4, #4]
    3bc2:	bd38      	pop	{r3, r4, r5, pc}

00003bc4 <arm_fir_f32>:
    3bc4:	e92d 4ff0 	stmdb	sp!, {r4, r5, r6, r7, r8, r9, sl, fp, lr}
    3bc8:	ed2d 8b10 	vpush	{d8-d15}
    3bcc:	f8b0 e000 	ldrh.w	lr, [r0]
    3bd0:	6844      	ldr	r4, [r0, #4]
    3bd2:	f8d0 8008 	ldr.w	r8, [r0, #8]
    3bd6:	b087      	sub	sp, #28
    3bd8:	461d      	mov	r5, r3
    3bda:	9304      	str	r3, [sp, #16]
    3bdc:	f10e 4380 	add.w	r3, lr, #1073741824	; 0x40000000
    3be0:	3b01      	subs	r3, #1
    3be2:	eb04 0083 	add.w	r0, r4, r3, lsl #2
    3be6:	08eb      	lsrs	r3, r5, #3
    3be8:	9400      	str	r4, [sp, #0]
    3bea:	9001      	str	r0, [sp, #4]
    3bec:	9302      	str	r3, [sp, #8]
    3bee:	f000 81e0 	beq.w	3fb2 <arm_fir_f32+0x3ee>
    3bf2:	ea4f 09de 	mov.w	r9, lr, lsr #3
    3bf6:	469c      	mov	ip, r3
    3bf8:	ea4f 1349 	mov.w	r3, r9, lsl #5
    3bfc:	eb08 0503 	add.w	r5, r8, r3
    3c00:	9503      	str	r5, [sp, #12]
    3c02:	1f1e      	subs	r6, r3, #4
    3c04:	f00e 0a07 	and.w	sl, lr, #7
    3c08:	4633      	mov	r3, r6
    3c0a:	f8cd e014 	str.w	lr, [sp, #20]
    3c0e:	f101 0620 	add.w	r6, r1, #32
    3c12:	f8dd e00c 	ldr.w	lr, [sp, #12]
    3c16:	9103      	str	r1, [sp, #12]
    3c18:	4611      	mov	r1, r2
    3c1a:	f100 0720 	add.w	r7, r0, #32
    3c1e:	f102 0520 	add.w	r5, r2, #32
    3c22:	4648      	mov	r0, r9
    3c24:	4652      	mov	r2, sl
    3c26:	3420      	adds	r4, #32
    3c28:	4699      	mov	r9, r3
    3c2a:	468a      	mov	sl, r1
    3c2c:	f856 3c20 	ldr.w	r3, [r6, #-32]
    3c30:	f847 3c20 	str.w	r3, [r7, #-32]
    3c34:	f856 3c1c 	ldr.w	r3, [r6, #-28]
    3c38:	f847 3c1c 	str.w	r3, [r7, #-28]
    3c3c:	f856 3c18 	ldr.w	r3, [r6, #-24]
    3c40:	f847 3c18 	str.w	r3, [r7, #-24]
    3c44:	f856 3c14 	ldr.w	r3, [r6, #-20]
    3c48:	f847 3c14 	str.w	r3, [r7, #-20]
    3c4c:	f856 3c10 	ldr.w	r3, [r6, #-16]
    3c50:	f847 3c10 	str.w	r3, [r7, #-16]
    3c54:	f856 3c0c 	ldr.w	r3, [r6, #-12]
    3c58:	f847 3c0c 	str.w	r3, [r7, #-12]
    3c5c:	f856 3c08 	ldr.w	r3, [r6, #-8]
    3c60:	f847 3c08 	str.w	r3, [r7, #-8]
    3c64:	f856 3c04 	ldr.w	r3, [r6, #-4]
    3c68:	f847 3c04 	str.w	r3, [r7, #-4]
    3c6c:	ed14 fa08 	vldr	s30, [r4, #-32]	; 0xffffffe0
    3c70:	ed14 ea07 	vldr	s28, [r4, #-28]	; 0xffffffe4
    3c74:	ed14 da06 	vldr	s26, [r4, #-24]	; 0xffffffe8
    3c78:	ed54 ba05 	vldr	s23, [r4, #-20]	; 0xffffffec
    3c7c:	ed14 aa04 	vldr	s20, [r4, #-16]
    3c80:	ed54 8a03 	vldr	s17, [r4, #-12]
    3c84:	ed54 0a02 	vldr	s1, [r4, #-8]
    3c88:	eddf 7acb 	vldr	s15, [pc, #812]	; 3fb8 <arm_fir_f32+0x3f4>
    3c8c:	1f21      	subs	r1, r4, #4
    3c8e:	2800      	cmp	r0, #0
    3c90:	f000 8171 	beq.w	3f76 <arm_fir_f32+0x3b2>
    3c94:	eeb0 7a67 	vmov.f32	s14, s15
    3c98:	eef0 6a67 	vmov.f32	s13, s15
    3c9c:	eeb0 1a67 	vmov.f32	s2, s15
    3ca0:	eeb0 8a67 	vmov.f32	s16, s15
    3ca4:	eef0 9a67 	vmov.f32	s19, s15
    3ca8:	eeb0 ba67 	vmov.f32	s22, s15
    3cac:	eef0 ca67 	vmov.f32	s25, s15
    3cb0:	f108 0120 	add.w	r1, r8, #32
    3cb4:	f104 031c 	add.w	r3, r4, #28
    3cb8:	4683      	mov	fp, r0
    3cba:	ed51 ea08 	vldr	s29, [r1, #-32]	; 0xffffffe0
    3cbe:	ed53 3a08 	vldr	s7, [r3, #-32]	; 0xffffffe0
    3cc2:	ed51 da07 	vldr	s27, [r1, #-28]	; 0xffffffe4
    3cc6:	ed13 6a07 	vldr	s12, [r3, #-28]	; 0xffffffe4
    3cca:	ed11 ca06 	vldr	s24, [r1, #-24]	; 0xffffffe8
    3cce:	ed53 5a06 	vldr	s11, [r3, #-24]	; 0xffffffe8
    3cd2:	ed51 aa05 	vldr	s21, [r1, #-20]	; 0xffffffec
    3cd6:	ed13 5a05 	vldr	s10, [r3, #-20]	; 0xffffffec
    3cda:	ed11 9a04 	vldr	s18, [r1, #-16]
    3cde:	ed53 4a04 	vldr	s9, [r3, #-16]
    3ce2:	ed11 0a03 	vldr	s0, [r1, #-12]
    3ce6:	ed13 3a03 	vldr	s6, [r3, #-12]
    3cea:	ed51 1a02 	vldr	s3, [r1, #-8]
    3cee:	ed53 2a02 	vldr	s5, [r3, #-8]
    3cf2:	ed11 4a01 	vldr	s8, [r1, #-4]
    3cf6:	ed13 2a01 	vldr	s4, [r3, #-4]
    3cfa:	eeee ca8f 	vfma.f32	s25, s29, s30
    3cfe:	f1bb 0b01 	subs.w	fp, fp, #1
    3d02:	f101 0120 	add.w	r1, r1, #32
    3d06:	eeae ba8e 	vfma.f32	s22, s29, s28
    3d0a:	f103 0320 	add.w	r3, r3, #32
    3d0e:	eeee 9a8d 	vfma.f32	s19, s29, s26
    3d12:	eeae 8aab 	vfma.f32	s16, s29, s23
    3d16:	eeae 1a8a 	vfma.f32	s2, s29, s20
    3d1a:	eeee 6aa8 	vfma.f32	s13, s29, s17
    3d1e:	eeae 7aa0 	vfma.f32	s14, s29, s1
    3d22:	eeee 7aa3 	vfma.f32	s15, s29, s7
    3d26:	eeed ca8e 	vfma.f32	s25, s27, s28
    3d2a:	eead ba8d 	vfma.f32	s22, s27, s26
    3d2e:	eeed 9aab 	vfma.f32	s19, s27, s23
    3d32:	eead 8a8a 	vfma.f32	s16, s27, s20
    3d36:	eead 1aa8 	vfma.f32	s2, s27, s17
    3d3a:	eeed 6aa0 	vfma.f32	s13, s27, s1
    3d3e:	eea3 7aad 	vfma.f32	s14, s7, s27
    3d42:	eeed 7a86 	vfma.f32	s15, s27, s12
    3d46:	eeec ca0d 	vfma.f32	s25, s24, s26
    3d4a:	eeac ba2b 	vfma.f32	s22, s24, s23
    3d4e:	eeec 9a0a 	vfma.f32	s19, s24, s20
    3d52:	eeac 8a28 	vfma.f32	s16, s24, s17
    3d56:	eeac 1a20 	vfma.f32	s2, s24, s1
    3d5a:	eee3 6a8c 	vfma.f32	s13, s7, s24
    3d5e:	eea6 7a0c 	vfma.f32	s14, s12, s24
    3d62:	eeec 7a25 	vfma.f32	s15, s24, s11
    3d66:	eeea caab 	vfma.f32	s25, s21, s23
    3d6a:	eeaa ba8a 	vfma.f32	s22, s21, s20
    3d6e:	eeea 9aa8 	vfma.f32	s19, s21, s17
    3d72:	eeaa 8aa0 	vfma.f32	s16, s21, s1
    3d76:	eea3 1aaa 	vfma.f32	s2, s7, s21
    3d7a:	eee6 6a2a 	vfma.f32	s13, s12, s21
    3d7e:	eea5 7aaa 	vfma.f32	s14, s11, s21
    3d82:	eeea 7a85 	vfma.f32	s15, s21, s10
    3d86:	eee9 ca0a 	vfma.f32	s25, s18, s20
    3d8a:	eea9 ba28 	vfma.f32	s22, s18, s17
    3d8e:	eee9 9a20 	vfma.f32	s19, s18, s1
    3d92:	eea3 8a89 	vfma.f32	s16, s7, s18
    3d96:	eea6 1a09 	vfma.f32	s2, s12, s18
    3d9a:	eee5 6a89 	vfma.f32	s13, s11, s18
    3d9e:	eea5 7a09 	vfma.f32	s14, s10, s18
    3da2:	eee9 7a24 	vfma.f32	s15, s18, s9
    3da6:	eee0 ca28 	vfma.f32	s25, s0, s17
    3daa:	eea0 ba20 	vfma.f32	s22, s0, s1
    3dae:	eee3 9a80 	vfma.f32	s19, s7, s0
    3db2:	eea6 8a00 	vfma.f32	s16, s12, s0
    3db6:	eea5 1a80 	vfma.f32	s2, s11, s0
    3dba:	eee5 6a00 	vfma.f32	s13, s10, s0
    3dbe:	eea4 7a80 	vfma.f32	s14, s9, s0
    3dc2:	eee0 7a03 	vfma.f32	s15, s0, s6
    3dc6:	eee1 caa0 	vfma.f32	s25, s3, s1
    3dca:	eea3 baa1 	vfma.f32	s22, s7, s3
    3dce:	eee6 9a21 	vfma.f32	s19, s12, s3
    3dd2:	eea5 8aa1 	vfma.f32	s16, s11, s3
    3dd6:	eea5 1a21 	vfma.f32	s2, s10, s3
    3dda:	eee4 6aa1 	vfma.f32	s13, s9, s3
    3dde:	eea3 7a21 	vfma.f32	s14, s6, s3
    3de2:	eee1 7aa2 	vfma.f32	s15, s3, s5
    3de6:	eee3 ca84 	vfma.f32	s25, s7, s8
    3dea:	eea6 ba04 	vfma.f32	s22, s12, s8
    3dee:	eee5 9a84 	vfma.f32	s19, s11, s8
    3df2:	eea5 8a04 	vfma.f32	s16, s10, s8
    3df6:	eea4 1a84 	vfma.f32	s2, s9, s8
    3dfa:	eee3 6a04 	vfma.f32	s13, s6, s8
    3dfe:	eea2 7a84 	vfma.f32	s14, s5, s8
    3e02:	eee4 7a02 	vfma.f32	s15, s8, s4
    3e06:	eeb0 fa46 	vmov.f32	s30, s12
    3e0a:	eeb0 ea65 	vmov.f32	s28, s11
    3e0e:	eeb0 da45 	vmov.f32	s26, s10
    3e12:	eef0 ba64 	vmov.f32	s23, s9
    3e16:	eeb0 aa43 	vmov.f32	s20, s6
    3e1a:	eef0 8a62 	vmov.f32	s17, s5
    3e1e:	eef0 0a42 	vmov.f32	s1, s4
    3e22:	f47f af4a 	bne.w	3cba <arm_fir_f32+0xf6>
    3e26:	eb09 0104 	add.w	r1, r9, r4
    3e2a:	46f3      	mov	fp, lr
    3e2c:	b322      	cbz	r2, 3e78 <arm_fir_f32+0x2b4>
    3e2e:	4613      	mov	r3, r2
    3e30:	ecbb 4a01 	vldmia	fp!, {s8}
    3e34:	ecf1 3a01 	vldmia	r1!, {s7}
    3e38:	3b01      	subs	r3, #1
    3e3a:	eee4 ca06 	vfma.f32	s25, s8, s12
    3e3e:	eea4 ba25 	vfma.f32	s22, s8, s11
    3e42:	eee4 9a05 	vfma.f32	s19, s8, s10
    3e46:	eeb0 6a65 	vmov.f32	s12, s11
    3e4a:	eea4 8a24 	vfma.f32	s16, s8, s9
    3e4e:	eef0 5a45 	vmov.f32	s11, s10
    3e52:	eea4 1a03 	vfma.f32	s2, s8, s6
    3e56:	eeb0 5a64 	vmov.f32	s10, s9
    3e5a:	eee4 6a22 	vfma.f32	s13, s8, s5
    3e5e:	eef0 4a43 	vmov.f32	s9, s6
    3e62:	eea4 7a02 	vfma.f32	s14, s8, s4
    3e66:	eeb0 3a62 	vmov.f32	s6, s5
    3e6a:	eee4 7a23 	vfma.f32	s15, s8, s7
    3e6e:	eef0 2a42 	vmov.f32	s5, s4
    3e72:	eeb0 2a63 	vmov.f32	s4, s7
    3e76:	d1db      	bne.n	3e30 <arm_fir_f32+0x26c>
    3e78:	f1bc 0c01 	subs.w	ip, ip, #1
    3e7c:	ed45 ca08 	vstr	s25, [r5, #-32]	; 0xffffffe0
    3e80:	ed05 ba07 	vstr	s22, [r5, #-28]	; 0xffffffe4
    3e84:	ed45 9a06 	vstr	s19, [r5, #-24]	; 0xffffffe8
    3e88:	ed05 8a05 	vstr	s16, [r5, #-20]	; 0xffffffec
    3e8c:	ed05 1a04 	vstr	s2, [r5, #-16]
    3e90:	ed45 6a03 	vstr	s13, [r5, #-12]
    3e94:	ed05 7a02 	vstr	s14, [r5, #-8]
    3e98:	ed45 7a01 	vstr	s15, [r5, #-4]
    3e9c:	f107 0720 	add.w	r7, r7, #32
    3ea0:	f106 0620 	add.w	r6, r6, #32
    3ea4:	f104 0420 	add.w	r4, r4, #32
    3ea8:	f105 0520 	add.w	r5, r5, #32
    3eac:	f47f aebe 	bne.w	3c2c <arm_fir_f32+0x68>
    3eb0:	9b02      	ldr	r3, [sp, #8]
    3eb2:	9903      	ldr	r1, [sp, #12]
    3eb4:	f8dd e014 	ldr.w	lr, [sp, #20]
    3eb8:	015d      	lsls	r5, r3, #5
    3eba:	9b01      	ldr	r3, [sp, #4]
    3ebc:	442b      	add	r3, r5
    3ebe:	9301      	str	r3, [sp, #4]
    3ec0:	9b00      	ldr	r3, [sp, #0]
    3ec2:	4652      	mov	r2, sl
    3ec4:	4429      	add	r1, r5
    3ec6:	442a      	add	r2, r5
    3ec8:	441d      	add	r5, r3
    3eca:	9b04      	ldr	r3, [sp, #16]
    3ecc:	f013 0907 	ands.w	r9, r3, #7
    3ed0:	d01c      	beq.n	3f0c <arm_fir_f32+0x348>
    3ed2:	f8dd c004 	ldr.w	ip, [sp, #4]
    3ed6:	464f      	mov	r7, r9
    3ed8:	462e      	mov	r6, r5
    3eda:	f851 3b04 	ldr.w	r3, [r1], #4
    3ede:	eddf 7a36 	vldr	s15, [pc, #216]	; 3fb8 <arm_fir_f32+0x3f4>
    3ee2:	f84c 3b04 	str.w	r3, [ip], #4
    3ee6:	4644      	mov	r4, r8
    3ee8:	4673      	mov	r3, lr
    3eea:	4630      	mov	r0, r6
    3eec:	ecf0 6a01 	vldmia	r0!, {s13}
    3ef0:	ecb4 7a01 	vldmia	r4!, {s14}
    3ef4:	3b01      	subs	r3, #1
    3ef6:	eee6 7a87 	vfma.f32	s15, s13, s14
    3efa:	d1f7      	bne.n	3eec <arm_fir_f32+0x328>
    3efc:	3f01      	subs	r7, #1
    3efe:	ece2 7a01 	vstmia	r2!, {s15}
    3f02:	f106 0604 	add.w	r6, r6, #4
    3f06:	d1e8      	bne.n	3eda <arm_fir_f32+0x316>
    3f08:	eb05 0589 	add.w	r5, r5, r9, lsl #2
    3f0c:	f10e 3eff 	add.w	lr, lr, #4294967295
    3f10:	ea5f 049e 	movs.w	r4, lr, lsr #2
    3f14:	d020      	beq.n	3f58 <arm_fir_f32+0x394>
    3f16:	9b00      	ldr	r3, [sp, #0]
    3f18:	4621      	mov	r1, r4
    3f1a:	f103 0210 	add.w	r2, r3, #16
    3f1e:	f105 0310 	add.w	r3, r5, #16
    3f22:	f853 0c10 	ldr.w	r0, [r3, #-16]
    3f26:	f842 0c10 	str.w	r0, [r2, #-16]
    3f2a:	f853 0c0c 	ldr.w	r0, [r3, #-12]
    3f2e:	f842 0c0c 	str.w	r0, [r2, #-12]
    3f32:	f853 0c08 	ldr.w	r0, [r3, #-8]
    3f36:	f842 0c08 	str.w	r0, [r2, #-8]
    3f3a:	f853 0c04 	ldr.w	r0, [r3, #-4]
    3f3e:	f842 0c04 	str.w	r0, [r2, #-4]
    3f42:	3901      	subs	r1, #1
    3f44:	f103 0310 	add.w	r3, r3, #16
    3f48:	f102 0210 	add.w	r2, r2, #16
    3f4c:	d1e9      	bne.n	3f22 <arm_fir_f32+0x35e>
    3f4e:	9a00      	ldr	r2, [sp, #0]
    3f50:	0123      	lsls	r3, r4, #4
    3f52:	441a      	add	r2, r3
    3f54:	9200      	str	r2, [sp, #0]
    3f56:	441d      	add	r5, r3
    3f58:	f01e 0303 	ands.w	r3, lr, #3
    3f5c:	d006      	beq.n	3f6c <arm_fir_f32+0x3a8>
    3f5e:	9a00      	ldr	r2, [sp, #0]
    3f60:	f855 1b04 	ldr.w	r1, [r5], #4
    3f64:	f842 1b04 	str.w	r1, [r2], #4
    3f68:	3b01      	subs	r3, #1
    3f6a:	d1f9      	bne.n	3f60 <arm_fir_f32+0x39c>
    3f6c:	b007      	add	sp, #28
    3f6e:	ecbd 8b10 	vpop	{d8-d15}
    3f72:	e8bd 8ff0 	ldmia.w	sp!, {r4, r5, r6, r7, r8, r9, sl, fp, pc}
    3f76:	eeb0 2a60 	vmov.f32	s4, s1
    3f7a:	eef0 2a68 	vmov.f32	s5, s17
    3f7e:	eeb0 3a4a 	vmov.f32	s6, s20
    3f82:	eef0 4a6b 	vmov.f32	s9, s23
    3f86:	eeb0 5a4d 	vmov.f32	s10, s26
    3f8a:	eef0 5a4e 	vmov.f32	s11, s28
    3f8e:	eeb0 6a4f 	vmov.f32	s12, s30
    3f92:	eeb0 7a67 	vmov.f32	s14, s15
    3f96:	eef0 6a67 	vmov.f32	s13, s15
    3f9a:	eeb0 1a67 	vmov.f32	s2, s15
    3f9e:	eeb0 8a67 	vmov.f32	s16, s15
    3fa2:	eef0 9a67 	vmov.f32	s19, s15
    3fa6:	eeb0 ba67 	vmov.f32	s22, s15
    3faa:	eef0 ca67 	vmov.f32	s25, s15
    3fae:	46c3      	mov	fp, r8
    3fb0:	e73c      	b.n	3e2c <arm_fir_f32+0x268>
    3fb2:	4625      	mov	r5, r4
    3fb4:	e789      	b.n	3eca <arm_fir_f32+0x306>
    3fb6:	bf00      	nop
    3fb8:	00000000 	.word	0x00000000

00003fbc <arm_fir_init_f32>:
    3fbc:	b570      	push	{r4, r5, r6, lr}
    3fbe:	9c04      	ldr	r4, [sp, #16]
    3fc0:	6082      	str	r2, [r0, #8]
    3fc2:	f104 4480 	add.w	r4, r4, #1073741824	; 0x40000000
    3fc6:	3c01      	subs	r4, #1
    3fc8:	4605      	mov	r5, r0
    3fca:	440c      	add	r4, r1
    3fcc:	8001      	strh	r1, [r0, #0]
    3fce:	461e      	mov	r6, r3
    3fd0:	00a2      	lsls	r2, r4, #2
    3fd2:	4618      	mov	r0, r3
    3fd4:	2100      	movs	r1, #0
    3fd6:	f000 f99f 	bl	4318 <memset>
    3fda:	606e      	str	r6, [r5, #4]
    3fdc:	bd70      	pop	{r4, r5, r6, pc}
    3fde:	bf00      	nop

00003fe0 <arm_pid_init_f32>:
    3fe0:	edd0 6a08 	vldr	s13, [r0, #32]
    3fe4:	ed90 7a06 	vldr	s14, [r0, #24]
    3fe8:	edd0 7a07 	vldr	s15, [r0, #28]
    3fec:	edc0 6a02 	vstr	s13, [r0, #8]
    3ff0:	eeb0 6a00 	vmov.f32	s12, #0	; 0x40000000  2.0
    3ff4:	ee77 7a27 	vadd.f32	s15, s14, s15
    3ff8:	ee96 7ac6 	vfnma.f32	s14, s13, s12
    3ffc:	ee77 7aa6 	vadd.f32	s15, s15, s13
    4000:	ed80 7a01 	vstr	s14, [r0, #4]
    4004:	edc0 7a00 	vstr	s15, [r0]
    4008:	b901      	cbnz	r1, 400c <arm_pid_init_f32+0x2c>
    400a:	4770      	bx	lr
    400c:	300c      	adds	r0, #12
    400e:	220c      	movs	r2, #12
    4010:	2100      	movs	r1, #0
    4012:	f000 b981 	b.w	4318 <memset>
    4016:	bf00      	nop

00004018 <arm_cmplx_mag_f32>:
    4018:	e92d 4ff8 	stmdb	sp!, {r3, r4, r5, r6, r7, r8, r9, sl, fp, lr}
    401c:	ea5f 0b92 	movs.w	fp, r2, lsr #2
    4020:	4617      	mov	r7, r2
    4022:	4606      	mov	r6, r0
    4024:	4688      	mov	r8, r1
    4026:	d062      	beq.n	40ee <arm_cmplx_mag_f32+0xd6>
    4028:	f04f 0a00 	mov.w	sl, #0
    402c:	f100 0420 	add.w	r4, r0, #32
    4030:	f101 0510 	add.w	r5, r1, #16
    4034:	46d9      	mov	r9, fp
    4036:	e03d      	b.n	40b4 <arm_cmplx_mag_f32+0x9c>
    4038:	f000 f96b 	bl	4312 <sqrtf>
    403c:	ed05 0a04 	vstr	s0, [r5, #-16]
    4040:	ed14 0a05 	vldr	s0, [r4, #-20]	; 0xffffffec
    4044:	ed54 7a06 	vldr	s15, [r4, #-24]	; 0xffffffe8
    4048:	ee20 0a00 	vmul.f32	s0, s0, s0
    404c:	eea7 0aa7 	vfma.f32	s0, s15, s15
    4050:	eeb5 0ac0 	vcmpe.f32	s0, #0.0
    4054:	eef1 fa10 	vmrs	APSR_nzcv, fpscr
    4058:	dd74      	ble.n	4144 <arm_cmplx_mag_f32+0x12c>
    405a:	f000 f95a 	bl	4312 <sqrtf>
    405e:	ed05 0a03 	vstr	s0, [r5, #-12]
    4062:	ed14 0a03 	vldr	s0, [r4, #-12]
    4066:	ed54 7a04 	vldr	s15, [r4, #-16]
    406a:	ee20 0a00 	vmul.f32	s0, s0, s0
    406e:	eea7 0aa7 	vfma.f32	s0, s15, s15
    4072:	eeb5 0ac0 	vcmpe.f32	s0, #0.0
    4076:	eef1 fa10 	vmrs	APSR_nzcv, fpscr
    407a:	dd60      	ble.n	413e <arm_cmplx_mag_f32+0x126>
    407c:	f000 f949 	bl	4312 <sqrtf>
    4080:	ed05 0a02 	vstr	s0, [r5, #-8]
    4084:	ed14 0a01 	vldr	s0, [r4, #-4]
    4088:	ed54 7a02 	vldr	s15, [r4, #-8]
    408c:	ee20 0a00 	vmul.f32	s0, s0, s0
    4090:	eea7 0aa7 	vfma.f32	s0, s15, s15
    4094:	eeb5 0ac0 	vcmpe.f32	s0, #0.0
    4098:	eef1 fa10 	vmrs	APSR_nzcv, fpscr
    409c:	dd1a      	ble.n	40d4 <arm_cmplx_mag_f32+0xbc>
    409e:	f000 f938 	bl	4312 <sqrtf>
    40a2:	f1b9 0901 	subs.w	r9, r9, #1
    40a6:	ed05 0a01 	vstr	s0, [r5, #-4]
    40aa:	f104 0420 	add.w	r4, r4, #32
    40ae:	f105 0510 	add.w	r5, r5, #16
    40b2:	d018      	beq.n	40e6 <arm_cmplx_mag_f32+0xce>
    40b4:	ed14 0a07 	vldr	s0, [r4, #-28]	; 0xffffffe4
    40b8:	ed54 7a08 	vldr	s15, [r4, #-32]	; 0xffffffe0
    40bc:	ee20 0a00 	vmul.f32	s0, s0, s0
    40c0:	eea7 0aa7 	vfma.f32	s0, s15, s15
    40c4:	eeb5 0ac0 	vcmpe.f32	s0, #0.0
    40c8:	eef1 fa10 	vmrs	APSR_nzcv, fpscr
    40cc:	dcb4      	bgt.n	4038 <arm_cmplx_mag_f32+0x20>
    40ce:	f845 ac10 	str.w	sl, [r5, #-16]
    40d2:	e7b5      	b.n	4040 <arm_cmplx_mag_f32+0x28>
    40d4:	f1b9 0901 	subs.w	r9, r9, #1
    40d8:	f845 ac04 	str.w	sl, [r5, #-4]
    40dc:	f104 0420 	add.w	r4, r4, #32
    40e0:	f105 0510 	add.w	r5, r5, #16
    40e4:	d1e6      	bne.n	40b4 <arm_cmplx_mag_f32+0x9c>
    40e6:	eb06 164b 	add.w	r6, r6, fp, lsl #5
    40ea:	eb08 180b 	add.w	r8, r8, fp, lsl #4
    40ee:	f017 0503 	ands.w	r5, r7, #3
    40f2:	d022      	beq.n	413a <arm_cmplx_mag_f32+0x122>
    40f4:	2700      	movs	r7, #0
    40f6:	f106 0408 	add.w	r4, r6, #8
    40fa:	e007      	b.n	410c <arm_cmplx_mag_f32+0xf4>
    40fc:	f000 f909 	bl	4312 <sqrtf>
    4100:	3d01      	subs	r5, #1
    4102:	ed08 0a01 	vstr	s0, [r8, #-4]
    4106:	f104 0408 	add.w	r4, r4, #8
    410a:	d016      	beq.n	413a <arm_cmplx_mag_f32+0x122>
    410c:	ed54 7a01 	vldr	s15, [r4, #-4]
    4110:	ed14 7a02 	vldr	s14, [r4, #-8]
    4114:	ee67 7aa7 	vmul.f32	s15, s15, s15
    4118:	f108 0804 	add.w	r8, r8, #4
    411c:	eee7 7a07 	vfma.f32	s15, s14, s14
    4120:	eef5 7ac0 	vcmpe.f32	s15, #0.0
    4124:	eef1 fa10 	vmrs	APSR_nzcv, fpscr
    4128:	eeb0 0a67 	vmov.f32	s0, s15
    412c:	dce6      	bgt.n	40fc <arm_cmplx_mag_f32+0xe4>
    412e:	3d01      	subs	r5, #1
    4130:	f848 7c04 	str.w	r7, [r8, #-4]
    4134:	f104 0408 	add.w	r4, r4, #8
    4138:	d1e8      	bne.n	410c <arm_cmplx_mag_f32+0xf4>
    413a:	e8bd 8ff8 	ldmia.w	sp!, {r3, r4, r5, r6, r7, r8, r9, sl, fp, pc}
    413e:	f845 ac08 	str.w	sl, [r5, #-8]
    4142:	e79f      	b.n	4084 <arm_cmplx_mag_f32+0x6c>
    4144:	f845 ac0c 	str.w	sl, [r5, #-12]
    4148:	e78b      	b.n	4062 <arm_cmplx_mag_f32+0x4a>
    414a:	bf00      	nop

0000414c <arm_cmplx_mag_squared_f32>:
    414c:	b470      	push	{r4, r5, r6}
    414e:	0896      	lsrs	r6, r2, #2
    4150:	d036      	beq.n	41c0 <arm_cmplx_mag_squared_f32+0x74>
    4152:	f100 0320 	add.w	r3, r0, #32
    4156:	f101 0410 	add.w	r4, r1, #16
    415a:	4635      	mov	r5, r6
    415c:	ed13 6a07 	vldr	s12, [r3, #-28]	; 0xffffffe4
    4160:	ed53 6a05 	vldr	s13, [r3, #-20]	; 0xffffffec
    4164:	ed13 7a03 	vldr	s14, [r3, #-12]
    4168:	ed53 7a01 	vldr	s15, [r3, #-4]
    416c:	ed13 4a08 	vldr	s8, [r3, #-32]	; 0xffffffe0
    4170:	ed53 4a06 	vldr	s9, [r3, #-24]	; 0xffffffe8
    4174:	ed13 5a04 	vldr	s10, [r3, #-16]
    4178:	ed53 5a02 	vldr	s11, [r3, #-8]
    417c:	ee26 6a06 	vmul.f32	s12, s12, s12
    4180:	ee66 6aa6 	vmul.f32	s13, s13, s13
    4184:	ee27 7a07 	vmul.f32	s14, s14, s14
    4188:	ee67 7aa7 	vmul.f32	s15, s15, s15
    418c:	eea4 6a04 	vfma.f32	s12, s8, s8
    4190:	3d01      	subs	r5, #1
    4192:	f103 0320 	add.w	r3, r3, #32
    4196:	eee4 6aa4 	vfma.f32	s13, s9, s9
    419a:	f104 0410 	add.w	r4, r4, #16
    419e:	eea5 7a05 	vfma.f32	s14, s10, s10
    41a2:	eee5 7aa5 	vfma.f32	s15, s11, s11
    41a6:	ed04 6a08 	vstr	s12, [r4, #-32]	; 0xffffffe0
    41aa:	ed44 6a07 	vstr	s13, [r4, #-28]	; 0xffffffe4
    41ae:	ed04 7a06 	vstr	s14, [r4, #-24]	; 0xffffffe8
    41b2:	ed44 7a05 	vstr	s15, [r4, #-20]	; 0xffffffec
    41b6:	d1d1      	bne.n	415c <arm_cmplx_mag_squared_f32+0x10>
    41b8:	eb00 1046 	add.w	r0, r0, r6, lsl #5
    41bc:	eb01 1106 	add.w	r1, r1, r6, lsl #4
    41c0:	f012 0203 	ands.w	r2, r2, #3
    41c4:	d00e      	beq.n	41e4 <arm_cmplx_mag_squared_f32+0x98>
    41c6:	3008      	adds	r0, #8
    41c8:	ed50 7a01 	vldr	s15, [r0, #-4]
    41cc:	ed10 7a02 	vldr	s14, [r0, #-8]
    41d0:	ee67 7aa7 	vmul.f32	s15, s15, s15
    41d4:	3a01      	subs	r2, #1
    41d6:	eee7 7a07 	vfma.f32	s15, s14, s14
    41da:	f100 0008 	add.w	r0, r0, #8
    41de:	ece1 7a01 	vstmia	r1!, {s15}
    41e2:	d1f1      	bne.n	41c8 <arm_cmplx_mag_squared_f32+0x7c>
    41e4:	bc70      	pop	{r4, r5, r6}
    41e6:	4770      	bx	lr

000041e8 <arm_bitreversal_32>:
    41e8:	1c4b      	adds	r3, r1, #1
    41ea:	2b01      	cmp	r3, #1
    41ec:	bf98      	it	ls
    41ee:	4770      	bxls	lr
    41f0:	e92d 03f0 	stmdb	sp!, {r4, r5, r6, r7, r8, r9}
    41f4:	1c91      	adds	r1, r2, #2
    41f6:	089b      	lsrs	r3, r3, #2

000041f8 <arm_bitreversal_32_0>:
    41f8:	f8b1 8004 	ldrh.w	r8, [r1, #4]
    41fc:	f8b1 9002 	ldrh.w	r9, [r1, #2]
    4200:	880a      	ldrh	r2, [r1, #0]
    4202:	f831 cc02 	ldrh.w	ip, [r1, #-2]
    4206:	4480      	add	r8, r0
    4208:	4481      	add	r9, r0
    420a:	4402      	add	r2, r0
    420c:	4484      	add	ip, r0
    420e:	f8d9 7000 	ldr.w	r7, [r9]
    4212:	f8d8 6000 	ldr.w	r6, [r8]
    4216:	6815      	ldr	r5, [r2, #0]
    4218:	f8dc 4000 	ldr.w	r4, [ip]
    421c:	f8c9 6000 	str.w	r6, [r9]
    4220:	f8c8 7000 	str.w	r7, [r8]
    4224:	f8cc 5000 	str.w	r5, [ip]
    4228:	6014      	str	r4, [r2, #0]
    422a:	f8d9 7004 	ldr.w	r7, [r9, #4]
    422e:	f8d8 6004 	ldr.w	r6, [r8, #4]
    4232:	6855      	ldr	r5, [r2, #4]
    4234:	f8dc 4004 	ldr.w	r4, [ip, #4]
    4238:	f8c9 6004 	str.w	r6, [r9, #4]
    423c:	f8c8 7004 	str.w	r7, [r8, #4]
    4240:	f8cc 5004 	str.w	r5, [ip, #4]
    4244:	6054      	str	r4, [r2, #4]
    4246:	3108      	adds	r1, #8
    4248:	3b01      	subs	r3, #1
    424a:	d1d5      	bne.n	41f8 <arm_bitreversal_32_0>
    424c:	e8bd 03f0 	ldmia.w	sp!, {r4, r5, r6, r7, r8, r9}
    4250:	4770      	bx	lr

00004252 <arm_bitreversal_16>:
    4252:	1c4b      	adds	r3, r1, #1
    4254:	2b01      	cmp	r3, #1
    4256:	bf98      	it	ls
    4258:	4770      	bxls	lr
    425a:	e92d 03f0 	stmdb	sp!, {r4, r5, r6, r7, r8, r9}
    425e:	1c91      	adds	r1, r2, #2
    4260:	089b      	lsrs	r3, r3, #2

00004262 <arm_bitreversal_16_0>:
    4262:	f8b1 8004 	ldrh.w	r8, [r1, #4]
    4266:	f8b1 9002 	ldrh.w	r9, [r1, #2]
    426a:	880a      	ldrh	r2, [r1, #0]
    426c:	f831 cc02 	ldrh.w	ip, [r1, #-2]
    4270:	eb00 0858 	add.w	r8, r0, r8, lsr #1
    4274:	eb00 0959 	add.w	r9, r0, r9, lsr #1
    4278:	eb00 0252 	add.w	r2, r0, r2, lsr #1
    427c:	eb00 0c5c 	add.w	ip, r0, ip, lsr #1
    4280:	f8d9 7000 	ldr.w	r7, [r9]
    4284:	f8d8 6000 	ldr.w	r6, [r8]
    4288:	6815      	ldr	r5, [r2, #0]
    428a:	f8dc 4000 	ldr.w	r4, [ip]
    428e:	f8c9 6000 	str.w	r6, [r9]
    4292:	f8c8 7000 	str.w	r7, [r8]
    4296:	f8cc 5000 	str.w	r5, [ip]
    429a:	6014      	str	r4, [r2, #0]
    429c:	3108      	adds	r1, #8
    429e:	3b01      	subs	r3, #1
    42a0:	d1df      	bne.n	4262 <arm_bitreversal_16_0>
    42a2:	e8bd 03f0 	ldmia.w	sp!, {r4, r5, r6, r7, r8, r9}
    42a6:	4770      	bx	lr

000042a8 <__main>:
    42a8:	b508      	push	{r3, lr}
    42aa:	2200      	movs	r2, #0
    42ac:	4611      	mov	r1, r2
    42ae:	4610      	mov	r0, r2
    42b0:	f000 fd7e 	bl	4db0 <_initio>
    42b4:	e8bd 4008 	ldmia.w	sp!, {r3, lr}
    42b8:	f7fc b822 	b.w	300 <main>

000042bc <cosf>:
    42bc:	eeb5 0ac0 	vcmpe.f32	s0, #0.0
    42c0:	eddf 0a09 	vldr	s1, [pc, #36]	; 42e8 <cosf+0x2c>
    42c4:	eef1 fa10 	vmrs	APSR_nzcv, fpscr
    42c8:	eef0 7a40 	vmov.f32	s15, s0
    42cc:	f04f 0101 	mov.w	r1, #1
    42d0:	bf48      	it	mi
    42d2:	ee70 0ac0 	vsubmi.f32	s1, s1, s0
    42d6:	4608      	mov	r0, r1
    42d8:	bf4c      	ite	mi
    42da:	eeb1 0a40 	vnegmi.f32	s0, s0
    42de:	ee77 0aa0 	vaddpl.f32	s1, s15, s1
    42e2:	f001 bcc1 	b.w	5c68 <_sincosf>
    42e6:	bf00      	nop
    42e8:	3fc90fdb 	.word	0x3fc90fdb

000042ec <sinf>:
    42ec:	eeb5 0ac0 	vcmpe.f32	s0, #0.0
    42f0:	eef1 fa10 	vmrs	APSR_nzcv, fpscr
    42f4:	eef0 0a40 	vmov.f32	s1, s0
    42f8:	bf41      	itttt	mi
    42fa:	eef1 0a40 	vnegmi.f32	s1, s0
    42fe:	2100      	movmi	r1, #0
    4300:	f04f 30ff 	movmi.w	r0, #4294967295
    4304:	eeb0 0a60 	vmovmi.f32	s0, s1
    4308:	bf5c      	itt	pl
    430a:	2100      	movpl	r1, #0
    430c:	2001      	movpl	r0, #1
    430e:	f001 bcab 	b.w	5c68 <_sincosf>

00004312 <sqrtf>:
    4312:	eeb1 0ac0 	vsqrt.f32	s0, s0
    4316:	4770      	bx	lr

00004318 <memset>:
    4318:	f002 bd58 	b.w	6dcc <__aeabi_lowlevel_memset>

0000431c <fp_round>:
    431c:	b510      	push	{r4, lr}
    431e:	5c42      	ldrb	r2, [r0, r1]
    4320:	2a34      	cmp	r2, #52	; 0x34
    4322:	eb00 0301 	add.w	r3, r0, r1
    4326:	dc01      	bgt.n	432c <fp_round+0x10>
    4328:	2000      	movs	r0, #0
    432a:	bd10      	pop	{r4, pc}
    432c:	2a35      	cmp	r2, #53	; 0x35
    432e:	d106      	bne.n	433e <fp_round+0x22>
    4330:	4619      	mov	r1, r3
    4332:	f811 2f01 	ldrb.w	r2, [r1, #1]!
    4336:	2a30      	cmp	r2, #48	; 0x30
    4338:	d0fb      	beq.n	4332 <fp_round+0x16>
    433a:	2a00      	cmp	r2, #0
    433c:	d0f4      	beq.n	4328 <fp_round+0xc>
    433e:	461a      	mov	r2, r3
    4340:	2430      	movs	r4, #48	; 0x30
    4342:	f812 1d01 	ldrb.w	r1, [r2, #-1]!
    4346:	2939      	cmp	r1, #57	; 0x39
    4348:	d101      	bne.n	434e <fp_round+0x32>
    434a:	7014      	strb	r4, [r2, #0]
    434c:	e7f9      	b.n	4342 <fp_round+0x26>
    434e:	3101      	adds	r1, #1
    4350:	7011      	strb	r1, [r2, #0]
    4352:	7802      	ldrb	r2, [r0, #0]
    4354:	2a30      	cmp	r2, #48	; 0x30
    4356:	d0e7      	beq.n	4328 <fp_round+0xc>
    4358:	1a1a      	subs	r2, r3, r0
    435a:	2a00      	cmp	r2, #0
    435c:	db03      	blt.n	4366 <fp_round+0x4a>
    435e:	f813 2901 	ldrb.w	r2, [r3], #-1
    4362:	709a      	strb	r2, [r3, #2]
    4364:	e7f8      	b.n	4358 <fp_round+0x3c>
    4366:	2001      	movs	r0, #1
    4368:	bd10      	pop	{r4, pc}

0000436a <pr_dec.constprop.1>:
    436a:	b530      	push	{r4, r5, lr}
    436c:	1f8c      	subs	r4, r1, #6
    436e:	250a      	movs	r5, #10
    4370:	42a1      	cmp	r1, r4
    4372:	d00c      	beq.n	438e <pr_dec.constprop.1+0x24>
    4374:	fb90 f3f5 	sdiv	r3, r0, r5
    4378:	ebc3 1243 	rsb	r2, r3, r3, lsl #5
    437c:	ebc3 0282 	rsb	r2, r3, r2, lsl #2
    4380:	3030      	adds	r0, #48	; 0x30
    4382:	eb00 0042 	add.w	r0, r0, r2, lsl #1
    4386:	f801 0901 	strb.w	r0, [r1], #-1
    438a:	4618      	mov	r0, r3
    438c:	e7f0      	b.n	4370 <pr_dec.constprop.1+0x6>
    438e:	bd30      	pop	{r4, r5, pc}

00004390 <sprintf>:
    4390:	b40e      	push	{r1, r2, r3}
    4392:	b530      	push	{r4, r5, lr}
    4394:	b090      	sub	sp, #64	; 0x40
    4396:	ab13      	add	r3, sp, #76	; 0x4c
    4398:	4605      	mov	r5, r0
    439a:	f853 4b04 	ldr.w	r4, [r3], #4
    439e:	9305      	str	r3, [sp, #20]
    43a0:	2228      	movs	r2, #40	; 0x28
    43a2:	2100      	movs	r1, #0
    43a4:	a806      	add	r0, sp, #24
    43a6:	f7ff ffb7 	bl	4318 <memset>
    43aa:	230a      	movs	r3, #10
    43ac:	9309      	str	r3, [sp, #36]	; 0x24
    43ae:	f06f 4300 	mvn.w	r3, #2147483648	; 0x80000000
    43b2:	9308      	str	r3, [sp, #32]
    43b4:	4b10      	ldr	r3, [pc, #64]	; (43f8 <sprintf+0x68>)
    43b6:	9302      	str	r3, [sp, #8]
    43b8:	9b05      	ldr	r3, [sp, #20]
    43ba:	9301      	str	r3, [sp, #4]
    43bc:	9400      	str	r4, [sp, #0]
    43be:	f06f 4300 	mvn.w	r3, #2147483648	; 0x80000000
    43c2:	f04f 32ff 	mov.w	r2, #4294967295
    43c6:	a806      	add	r0, sp, #24
    43c8:	9506      	str	r5, [sp, #24]
    43ca:	f000 fd43 	bl	4e54 <__vfprintf>
    43ce:	9b08      	ldr	r3, [sp, #32]
    43d0:	3b01      	subs	r3, #1
    43d2:	2b00      	cmp	r3, #0
    43d4:	4604      	mov	r4, r0
    43d6:	9308      	str	r3, [sp, #32]
    43d8:	db03      	blt.n	43e2 <sprintf+0x52>
    43da:	9b06      	ldr	r3, [sp, #24]
    43dc:	2200      	movs	r2, #0
    43de:	701a      	strb	r2, [r3, #0]
    43e0:	e003      	b.n	43ea <sprintf+0x5a>
    43e2:	a906      	add	r1, sp, #24
    43e4:	2000      	movs	r0, #0
    43e6:	f001 fd01 	bl	5dec <__flsbuf>
    43ea:	4620      	mov	r0, r4
    43ec:	b010      	add	sp, #64	; 0x40
    43ee:	e8bd 4030 	ldmia.w	sp!, {r4, r5, lr}
    43f2:	b003      	add	sp, #12
    43f4:	4770      	bx	lr
    43f6:	bf00      	nop
    43f8:	00004401 	.word	0x00004401
    43fc:	ffffffff 	.word	0xffffffff

00004400 <fp_display>:
    4400:	e92d 4ff0 	stmdb	sp!, {r4, r5, r6, r7, r8, r9, sl, fp, lr}
    4404:	ed2d 8b06 	vpush	{d8-d10}
    4408:	e9d1 6700 	ldrd	r6, r7, [r1]
    440c:	b09d      	sub	sp, #116	; 0x74
    440e:	4614      	mov	r4, r2
    4410:	9306      	str	r3, [sp, #24]
    4412:	f3c7 430f 	ubfx	r3, r7, #16, #16
    4416:	f023 030f 	bic.w	r3, r3, #15
    441a:	045b      	lsls	r3, r3, #17
    441c:	0c5b      	lsrs	r3, r3, #17
    441e:	f647 72f0 	movw	r2, #32752	; 0x7ff0
    4422:	4293      	cmp	r3, r2
    4424:	9005      	str	r0, [sp, #20]
    4426:	f8dd b0b4 	ldr.w	fp, [sp, #180]	; 0xb4
    442a:	9609      	str	r6, [sp, #36]	; 0x24
    442c:	9707      	str	r7, [sp, #28]
    442e:	d127      	bne.n	4480 <fp_display+0x80>
    4430:	2300      	movs	r3, #0
    4432:	70e3      	strb	r3, [r4, #3]
    4434:	f3c7 0313 	ubfx	r3, r7, #0, #20
    4438:	4333      	orrs	r3, r6
    443a:	f04f 036e 	mov.w	r3, #110	; 0x6e
    443e:	d115      	bne.n	446c <fp_display+0x6c>
    4440:	2269      	movs	r2, #105	; 0x69
    4442:	7063      	strb	r3, [r4, #1]
    4444:	2f00      	cmp	r7, #0
    4446:	f04f 0366 	mov.w	r3, #102	; 0x66
    444a:	7022      	strb	r2, [r4, #0]
    444c:	70a3      	strb	r3, [r4, #2]
    444e:	da01      	bge.n	4454 <fp_display+0x54>
    4450:	4ba9      	ldr	r3, [pc, #676]	; (46f8 <fp_display+0x2f8>)
    4452:	e010      	b.n	4476 <fp_display+0x76>
    4454:	9b06      	ldr	r3, [sp, #24]
    4456:	0798      	lsls	r0, r3, #30
    4458:	d406      	bmi.n	4468 <fp_display+0x68>
    445a:	4aa8      	ldr	r2, [pc, #672]	; (46fc <fp_display+0x2fc>)
    445c:	f013 0f04 	tst.w	r3, #4
    4460:	4ba7      	ldr	r3, [pc, #668]	; (4700 <fp_display+0x300>)
    4462:	bf08      	it	eq
    4464:	4613      	moveq	r3, r2
    4466:	e006      	b.n	4476 <fp_display+0x76>
    4468:	4ba6      	ldr	r3, [pc, #664]	; (4704 <fp_display+0x304>)
    446a:	e004      	b.n	4476 <fp_display+0x76>
    446c:	7023      	strb	r3, [r4, #0]
    446e:	2261      	movs	r2, #97	; 0x61
    4470:	70a3      	strb	r3, [r4, #2]
    4472:	4ba2      	ldr	r3, [pc, #648]	; (46fc <fp_display+0x2fc>)
    4474:	7062      	strb	r2, [r4, #1]
    4476:	9a2c      	ldr	r2, [sp, #176]	; 0xb0
    4478:	2003      	movs	r0, #3
    447a:	6013      	str	r3, [r2, #0]
    447c:	f000 bc3a 	b.w	4cf4 <fp_display+0x8f4>
    4480:	9b05      	ldr	r3, [sp, #20]
    4482:	f023 0320 	bic.w	r3, r3, #32
    4486:	2b41      	cmp	r3, #65	; 0x41
    4488:	f000 823f 	beq.w	490a <fp_display+0x50a>
    448c:	2200      	movs	r2, #0
    448e:	2300      	movs	r3, #0
    4490:	4630      	mov	r0, r6
    4492:	4639      	mov	r1, r7
    4494:	f002 fbfd 	bl	6c92 <__aeabi_dcmplt>
    4498:	b138      	cbz	r0, 44aa <fp_display+0xaa>
    449a:	f107 4300 	add.w	r3, r7, #2147483648	; 0x80000000
    449e:	9a09      	ldr	r2, [sp, #36]	; 0x24
    44a0:	461f      	mov	r7, r3
    44a2:	2301      	movs	r3, #1
    44a4:	4616      	mov	r6, r2
    44a6:	930a      	str	r3, [sp, #40]	; 0x28
    44a8:	e000      	b.n	44ac <fp_display+0xac>
    44aa:	900a      	str	r0, [sp, #40]	; 0x28
    44ac:	2200      	movs	r2, #0
    44ae:	2300      	movs	r3, #0
    44b0:	4630      	mov	r0, r6
    44b2:	4639      	mov	r1, r7
    44b4:	f002 fbd5 	bl	6c62 <__aeabi_dcmpeq>
    44b8:	2800      	cmp	r0, #0
    44ba:	f040 8208 	bne.w	48ce <fp_display+0x4ce>
    44be:	a80f      	add	r0, sp, #60	; 0x3c
    44c0:	ec47 6b10 	vmov	d0, r6, r7
    44c4:	f001 fd94 	bl	5ff0 <_frexpl>
    44c8:	980f      	ldr	r0, [sp, #60]	; 0x3c
    44ca:	f240 152d 	movw	r5, #301	; 0x12d
    44ce:	4345      	muls	r5, r0
    44d0:	f5a5 53ab 	sub.w	r3, r5, #5472	; 0x1560
    44d4:	ed8d 0b10 	vstr	d0, [sp, #64]	; 0x40
    44d8:	3b1c      	subs	r3, #28
    44da:	f44f 757a 	mov.w	r5, #1000	; 0x3e8
    44de:	ed9f 0b7a 	vldr	d0, [pc, #488]	; 46c8 <fp_display+0x2c8>
    44e2:	fb93 f5f5 	sdiv	r5, r3, r5
    44e6:	1a28      	subs	r0, r5, r0
    44e8:	f001 fdba 	bl	6060 <_ldexpl>
    44ec:	2d00      	cmp	r5, #0
    44ee:	ed8d 0b1a 	vstr	d0, [sp, #104]	; 0x68
    44f2:	da06      	bge.n	4502 <fp_display+0x102>
    44f4:	a376      	add	r3, pc, #472	; (adr r3, 46d0 <fp_display+0x2d0>)
    44f6:	e9d3 2300 	ldrd	r2, r3, [r3]
    44fa:	426e      	negs	r6, r5
    44fc:	e9cd 2316 	strd	r2, r3, [sp, #88]	; 0x58
    4500:	e006      	b.n	4510 <fp_display+0x110>
    4502:	4b81      	ldr	r3, [pc, #516]	; (4708 <fp_display+0x308>)
    4504:	f04f 0200 	mov.w	r2, #0
    4508:	e9cd 2316 	strd	r2, r3, [sp, #88]	; 0x58
    450c:	d016      	beq.n	453c <fp_display+0x13c>
    450e:	462e      	mov	r6, r5
    4510:	07f1      	lsls	r1, r6, #31
    4512:	d409      	bmi.n	4528 <fp_display+0x128>
    4514:	e9dd 0116 	ldrd	r0, r1, [sp, #88]	; 0x58
    4518:	e9dd 2316 	ldrd	r2, r3, [sp, #88]	; 0x58
    451c:	f002 f8a0 	bl	6660 <__aeabi_dmul>
    4520:	1076      	asrs	r6, r6, #1
    4522:	e9cd 0116 	strd	r0, r1, [sp, #88]	; 0x58
    4526:	e7f3      	b.n	4510 <fp_display+0x110>
    4528:	e9dd 0116 	ldrd	r0, r1, [sp, #88]	; 0x58
    452c:	e9dd 231a 	ldrd	r2, r3, [sp, #104]	; 0x68
    4530:	f002 f896 	bl	6660 <__aeabi_dmul>
    4534:	2e01      	cmp	r6, #1
    4536:	e9cd 011a 	strd	r0, r1, [sp, #104]	; 0x68
    453a:	d1eb      	bne.n	4514 <fp_display+0x114>
    453c:	e9dd 0110 	ldrd	r0, r1, [sp, #64]	; 0x40
    4540:	e9dd 231a 	ldrd	r2, r3, [sp, #104]	; 0x68
    4544:	f002 f914 	bl	6770 <__aeabi_ddiv>
    4548:	e9cd 0112 	strd	r0, r1, [sp, #72]	; 0x48
    454c:	e9dd 0112 	ldrd	r0, r1, [sp, #72]	; 0x48
    4550:	a361      	add	r3, pc, #388	; (adr r3, 46d8 <fp_display+0x2d8>)
    4552:	e9d3 2300 	ldrd	r2, r3, [r3]
    4556:	f002 fb9c 	bl	6c92 <__aeabi_dcmplt>
    455a:	b188      	cbz	r0, 4580 <fp_display+0x180>
    455c:	e9dd 0112 	ldrd	r0, r1, [sp, #72]	; 0x48
    4560:	2200      	movs	r2, #0
    4562:	4b6a      	ldr	r3, [pc, #424]	; (470c <fp_display+0x30c>)
    4564:	f002 f87c 	bl	6660 <__aeabi_dmul>
    4568:	e9cd 0112 	strd	r0, r1, [sp, #72]	; 0x48
    456c:	e9dd 011a 	ldrd	r0, r1, [sp, #104]	; 0x68
    4570:	2200      	movs	r2, #0
    4572:	4b66      	ldr	r3, [pc, #408]	; (470c <fp_display+0x30c>)
    4574:	f002 f8fc 	bl	6770 <__aeabi_ddiv>
    4578:	3d01      	subs	r5, #1
    457a:	e9cd 011a 	strd	r0, r1, [sp, #104]	; 0x68
    457e:	e7e5      	b.n	454c <fp_display+0x14c>
    4580:	e9dd 0112 	ldrd	r0, r1, [sp, #72]	; 0x48
    4584:	a356      	add	r3, pc, #344	; (adr r3, 46e0 <fp_display+0x2e0>)
    4586:	e9d3 2300 	ldrd	r2, r3, [r3]
    458a:	f002 fbd8 	bl	6d3e <__aeabi_dcmpge>
    458e:	b188      	cbz	r0, 45b4 <fp_display+0x1b4>
    4590:	e9dd 0112 	ldrd	r0, r1, [sp, #72]	; 0x48
    4594:	2200      	movs	r2, #0
    4596:	4b5d      	ldr	r3, [pc, #372]	; (470c <fp_display+0x30c>)
    4598:	f002 f8ea 	bl	6770 <__aeabi_ddiv>
    459c:	e9cd 0112 	strd	r0, r1, [sp, #72]	; 0x48
    45a0:	e9dd 011a 	ldrd	r0, r1, [sp, #104]	; 0x68
    45a4:	2200      	movs	r2, #0
    45a6:	4b59      	ldr	r3, [pc, #356]	; (470c <fp_display+0x30c>)
    45a8:	f002 f85a 	bl	6660 <__aeabi_dmul>
    45ac:	3501      	adds	r5, #1
    45ae:	e9cd 011a 	strd	r0, r1, [sp, #104]	; 0x68
    45b2:	e7e5      	b.n	4580 <fp_display+0x180>
    45b4:	e9dd 0112 	ldrd	r0, r1, [sp, #72]	; 0x48
    45b8:	f002 fb08 	bl	6bcc <__aeabi_d2iz>
    45bc:	ed9f 8b4a 	vldr	d8, [pc, #296]	; 46e8 <fp_display+0x2e8>
    45c0:	426b      	negs	r3, r5
    45c2:	ed9f 9b4b 	vldr	d9, [pc, #300]	; 46f0 <fp_display+0x2f0>
    45c6:	ed9f ab42 	vldr	d10, [pc, #264]	; 46d0 <fp_display+0x2d0>
    45ca:	ea13 0325 	ands.w	r3, r3, r5, asr #32
    45ce:	bf38      	it	cc
    45d0:	462b      	movcc	r3, r5
    45d2:	4682      	mov	sl, r0
    45d4:	930b      	str	r3, [sp, #44]	; 0x2c
    45d6:	4650      	mov	r0, sl
    45d8:	f002 fb3b 	bl	6c52 <__aeabi_i2d>
    45dc:	9e0f      	ldr	r6, [sp, #60]	; 0x3c
    45de:	1bae      	subs	r6, r5, r6
    45e0:	ec41 0b10 	vmov	d0, r0, r1
    45e4:	4630      	mov	r0, r6
    45e6:	f001 fd3b 	bl	6060 <_ldexpl>
    45ea:	2d00      	cmp	r5, #0
    45ec:	ed8d 0b12 	vstr	d0, [sp, #72]	; 0x48
    45f0:	ed8d 8b14 	vstr	d8, [sp, #80]	; 0x50
    45f4:	da2a      	bge.n	464c <fp_display+0x24c>
    45f6:	ed8d ab16 	vstr	d10, [sp, #88]	; 0x58
    45fa:	ed8d 8b18 	vstr	d8, [sp, #96]	; 0x60
    45fe:	e9dd 8916 	ldrd	r8, r9, [sp, #88]	; 0x58
    4602:	e9dd 0116 	ldrd	r0, r1, [sp, #88]	; 0x58
    4606:	e9dd 6718 	ldrd	r6, r7, [sp, #96]	; 0x60
    460a:	f04f 0800 	mov.w	r8, #0
    460e:	4642      	mov	r2, r8
    4610:	464b      	mov	r3, r9
    4612:	f002 f94b 	bl	68ac <__aeabi_dsub>
    4616:	4632      	mov	r2, r6
    4618:	463b      	mov	r3, r7
    461a:	f002 fa21 	bl	6a60 <__aeabi_dadd>
    461e:	e9cd 0118 	strd	r0, r1, [sp, #96]	; 0x60
    4622:	e9cd 8916 	strd	r8, r9, [sp, #88]	; 0x58
    4626:	2200      	movs	r2, #0
    4628:	4b37      	ldr	r3, [pc, #220]	; (4708 <fp_display+0x308>)
    462a:	e9dd 0116 	ldrd	r0, r1, [sp, #88]	; 0x58
    462e:	f002 f817 	bl	6660 <__aeabi_dmul>
    4632:	4602      	mov	r2, r0
    4634:	460b      	mov	r3, r1
    4636:	2000      	movs	r0, #0
    4638:	4935      	ldr	r1, [pc, #212]	; (4710 <fp_display+0x310>)
    463a:	f002 f937 	bl	68ac <__aeabi_dsub>
    463e:	2200      	movs	r2, #0
    4640:	4b31      	ldr	r3, [pc, #196]	; (4708 <fp_display+0x308>)
    4642:	f002 f895 	bl	6770 <__aeabi_ddiv>
    4646:	e9cd 0118 	strd	r0, r1, [sp, #96]	; 0x60
    464a:	e005      	b.n	4658 <fp_display+0x258>
    464c:	ed8d 9b16 	vstr	d9, [sp, #88]	; 0x58
    4650:	ed8d 8b18 	vstr	d8, [sp, #96]	; 0x60
    4654:	f000 80a0 	beq.w	4798 <fp_display+0x398>
    4658:	9b0b      	ldr	r3, [sp, #44]	; 0x2c
    465a:	9308      	str	r3, [sp, #32]
    465c:	9b08      	ldr	r3, [sp, #32]
    465e:	07da      	lsls	r2, r3, #31
    4660:	d458      	bmi.n	4714 <fp_display+0x314>
    4662:	e9dd 2316 	ldrd	r2, r3, [sp, #88]	; 0x58
    4666:	e9dd 8918 	ldrd	r8, r9, [sp, #96]	; 0x60
    466a:	e9dd 6718 	ldrd	r6, r7, [sp, #96]	; 0x60
    466e:	4610      	mov	r0, r2
    4670:	4619      	mov	r1, r3
    4672:	f002 f9f5 	bl	6a60 <__aeabi_dadd>
    4676:	4642      	mov	r2, r8
    4678:	464b      	mov	r3, r9
    467a:	f002 f9f1 	bl	6a60 <__aeabi_dadd>
    467e:	4632      	mov	r2, r6
    4680:	463b      	mov	r3, r7
    4682:	f001 ffed 	bl	6660 <__aeabi_dmul>
    4686:	e9cd 0118 	strd	r0, r1, [sp, #96]	; 0x60
    468a:	e9dd 0116 	ldrd	r0, r1, [sp, #88]	; 0x58
    468e:	e9dd 2316 	ldrd	r2, r3, [sp, #88]	; 0x58
    4692:	f001 ffe5 	bl	6660 <__aeabi_dmul>
    4696:	e9cd 0116 	strd	r0, r1, [sp, #88]	; 0x58
    469a:	e9dd 8916 	ldrd	r8, r9, [sp, #88]	; 0x58
    469e:	e9dd 0116 	ldrd	r0, r1, [sp, #88]	; 0x58
    46a2:	e9dd 6718 	ldrd	r6, r7, [sp, #96]	; 0x60
    46a6:	f04f 0800 	mov.w	r8, #0
    46aa:	4642      	mov	r2, r8
    46ac:	464b      	mov	r3, r9
    46ae:	f002 f8fd 	bl	68ac <__aeabi_dsub>
    46b2:	463b      	mov	r3, r7
    46b4:	4632      	mov	r2, r6
    46b6:	f002 f9d3 	bl	6a60 <__aeabi_dadd>
    46ba:	9b08      	ldr	r3, [sp, #32]
    46bc:	e9cd 0118 	strd	r0, r1, [sp, #96]	; 0x60
    46c0:	105b      	asrs	r3, r3, #1
    46c2:	e9cd 8916 	strd	r8, r9, [sp, #88]	; 0x58
    46c6:	e7c8      	b.n	465a <fp_display+0x25a>
    46c8:	00000000 	.word	0x00000000
    46cc:	3ff00000 	.word	0x3ff00000
    46d0:	9999999a 	.word	0x9999999a
    46d4:	3fc99999 	.word	0x3fc99999
    46d8:	00000000 	.word	0x00000000
    46dc:	40f86a00 	.word	0x40f86a00
    46e0:	00000000 	.word	0x00000000
    46e4:	412e8480 	.word	0x412e8480
	...
    46f4:	40140000 	.word	0x40140000
    46f8:	0001c5a2 	.word	0x0001c5a2
    46fc:	0001c5ff 	.word	0x0001c5ff
    4700:	0001c572 	.word	0x0001c572
    4704:	0001c570 	.word	0x0001c570
    4708:	40140000 	.word	0x40140000
    470c:	40240000 	.word	0x40240000
    4710:	3ff00000 	.word	0x3ff00000
    4714:	ed9d 7b12 	vldr	d7, [sp, #72]	; 0x48
    4718:	e9dd 8918 	ldrd	r8, r9, [sp, #96]	; 0x60
    471c:	e9dd 0116 	ldrd	r0, r1, [sp, #88]	; 0x58
    4720:	e9dd 2318 	ldrd	r2, r3, [sp, #96]	; 0x60
    4724:	e9dd 6714 	ldrd	r6, r7, [sp, #80]	; 0x50
    4728:	ed8d 7b0c 	vstr	d7, [sp, #48]	; 0x30
    472c:	f002 f998 	bl	6a60 <__aeabi_dadd>
    4730:	4632      	mov	r2, r6
    4732:	463b      	mov	r3, r7
    4734:	f001 ff94 	bl	6660 <__aeabi_dmul>
    4738:	4642      	mov	r2, r8
    473a:	4606      	mov	r6, r0
    473c:	460f      	mov	r7, r1
    473e:	464b      	mov	r3, r9
    4740:	e9dd 010c 	ldrd	r0, r1, [sp, #48]	; 0x30
    4744:	f001 ff8c 	bl	6660 <__aeabi_dmul>
    4748:	4602      	mov	r2, r0
    474a:	460b      	mov	r3, r1
    474c:	4630      	mov	r0, r6
    474e:	4639      	mov	r1, r7
    4750:	f002 f986 	bl	6a60 <__aeabi_dadd>
    4754:	e9cd 0114 	strd	r0, r1, [sp, #80]	; 0x50
    4758:	e9dd 0116 	ldrd	r0, r1, [sp, #88]	; 0x58
    475c:	e9dd 2312 	ldrd	r2, r3, [sp, #72]	; 0x48
    4760:	f001 ff7e 	bl	6660 <__aeabi_dmul>
    4764:	e9cd 0112 	strd	r0, r1, [sp, #72]	; 0x48
    4768:	e9dd 8912 	ldrd	r8, r9, [sp, #72]	; 0x48
    476c:	e9dd 0112 	ldrd	r0, r1, [sp, #72]	; 0x48
    4770:	e9dd 6714 	ldrd	r6, r7, [sp, #80]	; 0x50
    4774:	f04f 0800 	mov.w	r8, #0
    4778:	4642      	mov	r2, r8
    477a:	464b      	mov	r3, r9
    477c:	f002 f896 	bl	68ac <__aeabi_dsub>
    4780:	463b      	mov	r3, r7
    4782:	4632      	mov	r2, r6
    4784:	f002 f96c 	bl	6a60 <__aeabi_dadd>
    4788:	9b08      	ldr	r3, [sp, #32]
    478a:	2b01      	cmp	r3, #1
    478c:	e9cd 0114 	strd	r0, r1, [sp, #80]	; 0x50
    4790:	e9cd 8912 	strd	r8, r9, [sp, #72]	; 0x48
    4794:	f47f af65 	bne.w	4662 <fp_display+0x262>
    4798:	e9dd 0112 	ldrd	r0, r1, [sp, #72]	; 0x48
    479c:	e9dd 2310 	ldrd	r2, r3, [sp, #64]	; 0x40
    47a0:	f002 faa3 	bl	6cea <__aeabi_dcmple>
    47a4:	b910      	cbnz	r0, 47ac <fp_display+0x3ac>
    47a6:	f10a 3aff 	add.w	sl, sl, #4294967295
    47aa:	e714      	b.n	45d6 <fp_display+0x1d6>
    47ac:	e9dd 2312 	ldrd	r2, r3, [sp, #72]	; 0x48
    47b0:	e9dd 0110 	ldrd	r0, r1, [sp, #64]	; 0x40
    47b4:	f002 f87a 	bl	68ac <__aeabi_dsub>
    47b8:	e9cd 0110 	strd	r0, r1, [sp, #64]	; 0x40
    47bc:	e9dd 2314 	ldrd	r2, r3, [sp, #80]	; 0x50
    47c0:	e9dd 0110 	ldrd	r0, r1, [sp, #64]	; 0x40
    47c4:	f002 f872 	bl	68ac <__aeabi_dsub>
    47c8:	e9cd 0110 	strd	r0, r1, [sp, #64]	; 0x40
    47cc:	e9dd 231a 	ldrd	r2, r3, [sp, #104]	; 0x68
    47d0:	e9dd 0110 	ldrd	r0, r1, [sp, #64]	; 0x40
    47d4:	f001 ffcc 	bl	6770 <__aeabi_ddiv>
    47d8:	e9cd 0110 	strd	r0, r1, [sp, #64]	; 0x40
    47dc:	e9dd 0110 	ldrd	r0, r1, [sp, #64]	; 0x40
    47e0:	a3db      	add	r3, pc, #876	; (adr r3, 4b50 <fp_display+0x750>)
    47e2:	e9d3 2300 	ldrd	r2, r3, [r3]
    47e6:	f001 ff3b 	bl	6660 <__aeabi_dmul>
    47ea:	e9cd 0110 	strd	r0, r1, [sp, #64]	; 0x40
    47ee:	e9dd 0110 	ldrd	r0, r1, [sp, #64]	; 0x40
    47f2:	f002 f9eb 	bl	6bcc <__aeabi_d2iz>
    47f6:	e9dd 6710 	ldrd	r6, r7, [sp, #64]	; 0x40
    47fa:	4680      	mov	r8, r0
    47fc:	f002 fa29 	bl	6c52 <__aeabi_i2d>
    4800:	4602      	mov	r2, r0
    4802:	460b      	mov	r3, r1
    4804:	4630      	mov	r0, r6
    4806:	4639      	mov	r1, r7
    4808:	f002 f850 	bl	68ac <__aeabi_dsub>
    480c:	a3d0      	add	r3, pc, #832	; (adr r3, 4b50 <fp_display+0x750>)
    480e:	e9d3 2300 	ldrd	r2, r3, [r3]
    4812:	f001 ff25 	bl	6660 <__aeabi_dmul>
    4816:	e9cd 0110 	strd	r0, r1, [sp, #64]	; 0x40
    481a:	e9dd 0110 	ldrd	r0, r1, [sp, #64]	; 0x40
    481e:	f002 f9d5 	bl	6bcc <__aeabi_d2iz>
    4822:	4606      	mov	r6, r0
    4824:	2e00      	cmp	r6, #0
    4826:	da06      	bge.n	4836 <fp_display+0x436>
    4828:	f506 2674 	add.w	r6, r6, #999424	; 0xf4000
    482c:	f506 7610 	add.w	r6, r6, #576	; 0x240
    4830:	f108 38ff 	add.w	r8, r8, #4294967295
    4834:	e7f6      	b.n	4824 <fp_display+0x424>
    4836:	4ab8      	ldr	r2, [pc, #736]	; (4b18 <fp_display+0x718>)
    4838:	4bb7      	ldr	r3, [pc, #732]	; (4b18 <fp_display+0x718>)
    483a:	4296      	cmp	r6, r2
    483c:	dd06      	ble.n	484c <fp_display+0x44c>
    483e:	f5a6 2674 	sub.w	r6, r6, #999424	; 0xf4000
    4842:	f5a6 7610 	sub.w	r6, r6, #576	; 0x240
    4846:	f108 0801 	add.w	r8, r8, #1
    484a:	e7f5      	b.n	4838 <fp_display+0x438>
    484c:	f1b8 0f00 	cmp.w	r8, #0
    4850:	da06      	bge.n	4860 <fp_display+0x460>
    4852:	f508 2874 	add.w	r8, r8, #999424	; 0xf4000
    4856:	f508 7810 	add.w	r8, r8, #576	; 0x240
    485a:	f10a 3aff 	add.w	sl, sl, #4294967295
    485e:	e7f5      	b.n	484c <fp_display+0x44c>
    4860:	4598      	cmp	r8, r3
    4862:	dd06      	ble.n	4872 <fp_display+0x472>
    4864:	f5a8 2874 	sub.w	r8, r8, #999424	; 0xf4000
    4868:	f5a8 7810 	sub.w	r8, r8, #576	; 0x240
    486c:	f10a 0a01 	add.w	sl, sl, #1
    4870:	e7f6      	b.n	4860 <fp_display+0x460>
    4872:	4baa      	ldr	r3, [pc, #680]	; (4b1c <fp_display+0x71c>)
    4874:	459a      	cmp	sl, r3
    4876:	dc11      	bgt.n	489c <fp_display+0x49c>
    4878:	48a9      	ldr	r0, [pc, #676]	; (4b20 <fp_display+0x720>)
    487a:	210a      	movs	r1, #10
    487c:	3301      	adds	r3, #1
    487e:	fb98 f2f3 	sdiv	r2, r8, r3
    4882:	fb96 f3f3 	sdiv	r3, r6, r3
    4886:	fb00 8802 	mla	r8, r0, r2, r8
    488a:	fb00 6603 	mla	r6, r0, r3, r6
    488e:	fb01 2a0a 	mla	sl, r1, sl, r2
    4892:	fb01 3808 	mla	r8, r1, r8, r3
    4896:	434e      	muls	r6, r1
    4898:	3d01      	subs	r5, #1
    489a:	e01d      	b.n	48d8 <fp_display+0x4d8>
    489c:	4b9e      	ldr	r3, [pc, #632]	; (4b18 <fp_display+0x718>)
    489e:	459a      	cmp	sl, r3
    48a0:	dd1a      	ble.n	48d8 <fp_display+0x4d8>
    48a2:	f06f 0309 	mvn.w	r3, #9
    48a6:	489f      	ldr	r0, [pc, #636]	; (4b24 <fp_display+0x724>)
    48a8:	220a      	movs	r2, #10
    48aa:	fb9a f1f2 	sdiv	r1, sl, r2
    48ae:	fb03 aa01 	mla	sl, r3, r1, sl
    48b2:	fb00 8a0a 	mla	sl, r0, sl, r8
    48b6:	fb9a f8f2 	sdiv	r8, sl, r2
    48ba:	fb03 a308 	mla	r3, r3, r8, sl
    48be:	fb00 6603 	mla	r6, r0, r3, r6
    48c2:	3605      	adds	r6, #5
    48c4:	3501      	adds	r5, #1
    48c6:	fb96 f6f2 	sdiv	r6, r6, r2
    48ca:	468a      	mov	sl, r1
    48cc:	e004      	b.n	48d8 <fp_display+0x4d8>
    48ce:	2600      	movs	r6, #0
    48d0:	f06f 0504 	mvn.w	r5, #4
    48d4:	46b0      	mov	r8, r6
    48d6:	46b2      	mov	sl, r6
    48d8:	4621      	mov	r1, r4
    48da:	2730      	movs	r7, #48	; 0x30
    48dc:	f801 7b06 	strb.w	r7, [r1], #6
    48e0:	4650      	mov	r0, sl
    48e2:	f7ff fd42 	bl	436a <pr_dec.constprop.1>
    48e6:	f104 010c 	add.w	r1, r4, #12
    48ea:	4640      	mov	r0, r8
    48ec:	f7ff fd3d 	bl	436a <pr_dec.constprop.1>
    48f0:	f104 0112 	add.w	r1, r4, #18
    48f4:	4630      	mov	r0, r6
    48f6:	f7ff fd38 	bl	436a <pr_dec.constprop.1>
    48fa:	2300      	movs	r3, #0
    48fc:	7523      	strb	r3, [r4, #20]
    48fe:	9b0a      	ldr	r3, [sp, #40]	; 0x28
    4900:	74e7      	strb	r7, [r4, #19]
    4902:	3505      	adds	r5, #5
    4904:	ea43 0585 	orr.w	r5, r3, r5, lsl #2
    4908:	e000      	b.n	490c <fp_display+0x50c>
    490a:	2500      	movs	r5, #0
    490c:	07eb      	lsls	r3, r5, #31
    490e:	d501      	bpl.n	4914 <fp_display+0x514>
    4910:	4b85      	ldr	r3, [pc, #532]	; (4b28 <fp_display+0x728>)
    4912:	e00a      	b.n	492a <fp_display+0x52a>
    4914:	9b06      	ldr	r3, [sp, #24]
    4916:	079f      	lsls	r7, r3, #30
    4918:	d406      	bmi.n	4928 <fp_display+0x528>
    491a:	4a84      	ldr	r2, [pc, #528]	; (4b2c <fp_display+0x72c>)
    491c:	f013 0f04 	tst.w	r3, #4
    4920:	4b83      	ldr	r3, [pc, #524]	; (4b30 <fp_display+0x730>)
    4922:	bf08      	it	eq
    4924:	4613      	moveq	r3, r2
    4926:	e000      	b.n	492a <fp_display+0x52a>
    4928:	4b82      	ldr	r3, [pc, #520]	; (4b34 <fp_display+0x734>)
    492a:	9a2c      	ldr	r2, [sp, #176]	; 0xb0
    492c:	f8db 0000 	ldr.w	r0, [fp]
    4930:	6013      	str	r3, [r2, #0]
    4932:	f025 0501 	bic.w	r5, r5, #1
    4936:	2304      	movs	r3, #4
    4938:	fb95 f5f3 	sdiv	r5, r5, r3
    493c:	9b05      	ldr	r3, [sp, #20]
    493e:	2b61      	cmp	r3, #97	; 0x61
    4940:	d010      	beq.n	4964 <fp_display+0x564>
    4942:	dc06      	bgt.n	4952 <fp_display+0x552>
    4944:	2b45      	cmp	r3, #69	; 0x45
    4946:	d06d      	beq.n	4a24 <fp_display+0x624>
    4948:	2b47      	cmp	r3, #71	; 0x47
    494a:	d04d      	beq.n	49e8 <fp_display+0x5e8>
    494c:	2b41      	cmp	r3, #65	; 0x41
    494e:	d149      	bne.n	49e4 <fp_display+0x5e4>
    4950:	e008      	b.n	4964 <fp_display+0x564>
    4952:	9b05      	ldr	r3, [sp, #20]
    4954:	2b66      	cmp	r3, #102	; 0x66
    4956:	f000 8106 	beq.w	4b66 <fp_display+0x766>
    495a:	2b67      	cmp	r3, #103	; 0x67
    495c:	d044      	beq.n	49e8 <fp_display+0x5e8>
    495e:	2b65      	cmp	r3, #101	; 0x65
    4960:	d140      	bne.n	49e4 <fp_display+0x5e4>
    4962:	e05f      	b.n	4a24 <fp_display+0x624>
    4964:	9907      	ldr	r1, [sp, #28]
    4966:	f3c1 0313 	ubfx	r3, r1, #0, #20
    496a:	9909      	ldr	r1, [sp, #36]	; 0x24
    496c:	2200      	movs	r2, #0
    496e:	430a      	orrs	r2, r1
    4970:	9907      	ldr	r1, [sp, #28]
    4972:	f3c1 550a 	ubfx	r5, r1, #20, #11
    4976:	b115      	cbz	r5, 497e <fp_display+0x57e>
    4978:	f2a5 31ff 	subw	r1, r5, #1023	; 0x3ff
    497c:	e004      	b.n	4988 <fp_display+0x588>
    497e:	ea52 0103 	orrs.w	r1, r2, r3
    4982:	496d      	ldr	r1, [pc, #436]	; (4b38 <fp_display+0x738>)
    4984:	bf08      	it	eq
    4986:	2100      	moveq	r1, #0
    4988:	b988      	cbnz	r0, 49ae <fp_display+0x5ae>
    498a:	9e06      	ldr	r6, [sp, #24]
    498c:	0736      	lsls	r6, r6, #28
    498e:	d40e      	bmi.n	49ae <fp_display+0x5ae>
    4990:	2d00      	cmp	r5, #0
    4992:	460b      	mov	r3, r1
    4994:	4869      	ldr	r0, [pc, #420]	; (4b3c <fp_display+0x73c>)
    4996:	9d05      	ldr	r5, [sp, #20]
    4998:	4969      	ldr	r1, [pc, #420]	; (4b40 <fp_display+0x740>)
    499a:	bf0c      	ite	eq
    499c:	2230      	moveq	r2, #48	; 0x30
    499e:	2231      	movne	r2, #49	; 0x31
    49a0:	2d61      	cmp	r5, #97	; 0x61
    49a2:	bf08      	it	eq
    49a4:	4601      	moveq	r1, r0
    49a6:	4620      	mov	r0, r4
    49a8:	f7ff fcf2 	bl	4390 <sprintf>
    49ac:	e010      	b.n	49d0 <fp_display+0x5d0>
    49ae:	2d00      	cmp	r5, #0
    49b0:	e9cd 2300 	strd	r2, r3, [sp]
    49b4:	9102      	str	r1, [sp, #8]
    49b6:	4603      	mov	r3, r0
    49b8:	4962      	ldr	r1, [pc, #392]	; (4b44 <fp_display+0x744>)
    49ba:	4863      	ldr	r0, [pc, #396]	; (4b48 <fp_display+0x748>)
    49bc:	9d05      	ldr	r5, [sp, #20]
    49be:	bf0c      	ite	eq
    49c0:	2230      	moveq	r2, #48	; 0x30
    49c2:	2231      	movne	r2, #49	; 0x31
    49c4:	2d61      	cmp	r5, #97	; 0x61
    49c6:	bf08      	it	eq
    49c8:	4601      	moveq	r1, r0
    49ca:	4620      	mov	r0, r4
    49cc:	f7ff fce0 	bl	4390 <sprintf>
    49d0:	4a55      	ldr	r2, [pc, #340]	; (4b28 <fp_display+0x728>)
    49d2:	4b56      	ldr	r3, [pc, #344]	; (4b2c <fp_display+0x72c>)
    49d4:	9907      	ldr	r1, [sp, #28]
    49d6:	ea33 0321 	bics.w	r3, r3, r1, asr #32
    49da:	bf28      	it	cs
    49dc:	4613      	movcs	r3, r2
    49de:	9a2c      	ldr	r2, [sp, #176]	; 0xb0
    49e0:	6013      	str	r3, [r2, #0]
    49e2:	e187      	b.n	4cf4 <fp_display+0x8f4>
    49e4:	2367      	movs	r3, #103	; 0x67
    49e6:	9305      	str	r3, [sp, #20]
    49e8:	9b06      	ldr	r3, [sp, #24]
    49ea:	2800      	cmp	r0, #0
    49ec:	f443 6300 	orr.w	r3, r3, #2048	; 0x800
    49f0:	9306      	str	r3, [sp, #24]
    49f2:	bfdc      	itt	le
    49f4:	2301      	movle	r3, #1
    49f6:	f8cb 3000 	strle.w	r3, [fp]
    49fa:	f8db 1000 	ldr.w	r1, [fp]
    49fe:	2911      	cmp	r1, #17
    4a00:	bfd4      	ite	le
    4a02:	3101      	addle	r1, #1
    4a04:	2112      	movgt	r1, #18
    4a06:	4620      	mov	r0, r4
    4a08:	f7ff fc88 	bl	431c <fp_round>
    4a0c:	f8db 3000 	ldr.w	r3, [fp]
    4a10:	4405      	add	r5, r0
    4a12:	429d      	cmp	r5, r3
    4a14:	f2c0 80a0 	blt.w	4b58 <fp_display+0x758>
    4a18:	3b01      	subs	r3, #1
    4a1a:	f8cb 3000 	str.w	r3, [fp]
    4a1e:	9b05      	ldr	r3, [sp, #20]
    4a20:	3b02      	subs	r3, #2
    4a22:	9305      	str	r3, [sp, #20]
    4a24:	f8db 3000 	ldr.w	r3, [fp]
    4a28:	2b11      	cmp	r3, #17
    4a2a:	dd05      	ble.n	4a38 <fp_display+0x638>
    4a2c:	9a2f      	ldr	r2, [sp, #188]	; 0xbc
    4a2e:	3b11      	subs	r3, #17
    4a30:	6013      	str	r3, [r2, #0]
    4a32:	2311      	movs	r3, #17
    4a34:	f8cb 3000 	str.w	r3, [fp]
    4a38:	9b06      	ldr	r3, [sp, #24]
    4a3a:	f8db 6000 	ldr.w	r6, [fp]
    4a3e:	f413 6700 	ands.w	r7, r3, #2048	; 0x800
    4a42:	f106 0602 	add.w	r6, r6, #2
    4a46:	d104      	bne.n	4a52 <fp_display+0x652>
    4a48:	4631      	mov	r1, r6
    4a4a:	4620      	mov	r0, r4
    4a4c:	f7ff fc66 	bl	431c <fp_round>
    4a50:	4405      	add	r5, r0
    4a52:	7863      	ldrb	r3, [r4, #1]
    4a54:	7023      	strb	r3, [r4, #0]
    4a56:	f8db 3000 	ldr.w	r3, [fp]
    4a5a:	b923      	cbnz	r3, 4a66 <fp_display+0x666>
    4a5c:	9a06      	ldr	r2, [sp, #24]
    4a5e:	f640 0308 	movw	r3, #2056	; 0x808
    4a62:	4013      	ands	r3, r2
    4a64:	b113      	cbz	r3, 4a6c <fp_display+0x66c>
    4a66:	232e      	movs	r3, #46	; 0x2e
    4a68:	7063      	strb	r3, [r4, #1]
    4a6a:	e000      	b.n	4a6e <fp_display+0x66e>
    4a6c:	2601      	movs	r6, #1
    4a6e:	9b2f      	ldr	r3, [sp, #188]	; 0xbc
    4a70:	681b      	ldr	r3, [r3, #0]
    4a72:	2b00      	cmp	r3, #0
    4a74:	bfc2      	ittt	gt
    4a76:	233e      	movgt	r3, #62	; 0x3e
    4a78:	55a3      	strbgt	r3, [r4, r6]
    4a7a:	3601      	addgt	r6, #1
    4a7c:	b177      	cbz	r7, 4a9c <fp_display+0x69c>
    4a7e:	9b06      	ldr	r3, [sp, #24]
    4a80:	071f      	lsls	r7, r3, #28
    4a82:	d40b      	bmi.n	4a9c <fp_display+0x69c>
    4a84:	19a2      	adds	r2, r4, r6
    4a86:	1b16      	subs	r6, r2, r4
    4a88:	f812 3d01 	ldrb.w	r3, [r2, #-1]!
    4a8c:	2b30      	cmp	r3, #48	; 0x30
    4a8e:	d0fa      	beq.n	4a86 <fp_display+0x686>
    4a90:	2b3e      	cmp	r3, #62	; 0x3e
    4a92:	d0f8      	beq.n	4a86 <fp_display+0x686>
    4a94:	2b2e      	cmp	r3, #46	; 0x2e
    4a96:	bf08      	it	eq
    4a98:	f106 36ff 	addeq.w	r6, r6, #4294967295
    4a9c:	2d00      	cmp	r5, #0
    4a9e:	f89d 3014 	ldrb.w	r3, [sp, #20]
    4aa2:	55a3      	strb	r3, [r4, r6]
    4aa4:	f106 0201 	add.w	r2, r6, #1
    4aa8:	f106 0302 	add.w	r3, r6, #2
    4aac:	bfbb      	ittet	lt
    4aae:	426d      	neglt	r5, r5
    4ab0:	212d      	movlt	r1, #45	; 0x2d
    4ab2:	212b      	movge	r1, #43	; 0x2b
    4ab4:	461e      	movlt	r6, r3
    4ab6:	bfa8      	it	ge
    4ab8:	461e      	movge	r6, r3
    4aba:	f5b5 7f7a 	cmp.w	r5, #1000	; 0x3e8
    4abe:	54a1      	strb	r1, [r4, r2]
    4ac0:	db0a      	blt.n	4ad8 <fp_display+0x6d8>
    4ac2:	f44f 727a 	mov.w	r2, #1000	; 0x3e8
    4ac6:	fb95 f2f2 	sdiv	r2, r5, r2
    4aca:	f102 0130 	add.w	r1, r2, #48	; 0x30
    4ace:	54e1      	strb	r1, [r4, r3]
    4ad0:	491e      	ldr	r1, [pc, #120]	; (4b4c <fp_display+0x74c>)
    4ad2:	1c5e      	adds	r6, r3, #1
    4ad4:	fb01 5502 	mla	r5, r1, r2, r5
    4ad8:	2d63      	cmp	r5, #99	; 0x63
    4ada:	dd0a      	ble.n	4af2 <fp_display+0x6f2>
    4adc:	2364      	movs	r3, #100	; 0x64
    4ade:	fb95 f3f3 	sdiv	r3, r5, r3
    4ae2:	f103 0230 	add.w	r2, r3, #48	; 0x30
    4ae6:	55a2      	strb	r2, [r4, r6]
    4ae8:	f06f 0263 	mvn.w	r2, #99	; 0x63
    4aec:	fb02 5503 	mla	r5, r2, r3, r5
    4af0:	3601      	adds	r6, #1
    4af2:	230a      	movs	r3, #10
    4af4:	fb95 f3f3 	sdiv	r3, r5, r3
    4af8:	b2db      	uxtb	r3, r3
    4afa:	f103 0230 	add.w	r2, r3, #48	; 0x30
    4afe:	55a2      	strb	r2, [r4, r6]
    4b00:	ebc3 1243 	rsb	r2, r3, r3, lsl #5
    4b04:	4434      	add	r4, r6
    4b06:	ebc3 0382 	rsb	r3, r3, r2, lsl #2
    4b0a:	3530      	adds	r5, #48	; 0x30
    4b0c:	eb05 0343 	add.w	r3, r5, r3, lsl #1
    4b10:	7063      	strb	r3, [r4, #1]
    4b12:	1cb0      	adds	r0, r6, #2
    4b14:	e0ee      	b.n	4cf4 <fp_display+0x8f4>
    4b16:	bf00      	nop
    4b18:	000f423f 	.word	0x000f423f
    4b1c:	0001869f 	.word	0x0001869f
    4b20:	fffe7960 	.word	0xfffe7960
    4b24:	000f4240 	.word	0x000f4240
    4b28:	0001c5a2 	.word	0x0001c5a2
    4b2c:	0001c5ff 	.word	0x0001c5ff
    4b30:	0001c572 	.word	0x0001c572
    4b34:	0001c570 	.word	0x0001c570
    4b38:	fffffc01 	.word	0xfffffc01
    4b3c:	0001c574 	.word	0x0001c574
    4b40:	0001c57c 	.word	0x0001c57c
    4b44:	0001c593 	.word	0x0001c593
    4b48:	0001c584 	.word	0x0001c584
    4b4c:	fffffc18 	.word	0xfffffc18
    4b50:	00000000 	.word	0x00000000
    4b54:	412e8480 	.word	0x412e8480
    4b58:	1d2a      	adds	r2, r5, #4
    4b5a:	f6ff af5d 	blt.w	4a18 <fp_display+0x618>
    4b5e:	1c6a      	adds	r2, r5, #1
    4b60:	1a9b      	subs	r3, r3, r2
    4b62:	f8cb 3000 	str.w	r3, [fp]
    4b66:	9a06      	ldr	r2, [sp, #24]
    4b68:	f8db 3000 	ldr.w	r3, [fp]
    4b6c:	2d00      	cmp	r5, #0
    4b6e:	f402 6700 	and.w	r7, r2, #2048	; 0x800
    4b72:	da4c      	bge.n	4c0e <fp_display+0x80e>
    4b74:	f1c5 0800 	rsb	r8, r5, #0
    4b78:	1c5a      	adds	r2, r3, #1
    4b7a:	4590      	cmp	r8, r2
    4b7c:	dd09      	ble.n	4b92 <fp_display+0x792>
    4b7e:	2330      	movs	r3, #48	; 0x30
    4b80:	7023      	strb	r3, [r4, #0]
    4b82:	232e      	movs	r3, #46	; 0x2e
    4b84:	7063      	strb	r3, [r4, #1]
    4b86:	9a2f      	ldr	r2, [sp, #188]	; 0xbc
    4b88:	f8db 3000 	ldr.w	r3, [fp]
    4b8c:	6013      	str	r3, [r2, #0]
    4b8e:	2602      	movs	r6, #2
    4b90:	e038      	b.n	4c04 <fp_display+0x804>
    4b92:	442b      	add	r3, r5
    4b94:	1c9e      	adds	r6, r3, #2
    4b96:	2e12      	cmp	r6, #18
    4b98:	bfc1      	itttt	gt
    4b9a:	9a2f      	ldrgt	r2, [sp, #188]	; 0xbc
    4b9c:	3b11      	subgt	r3, #17
    4b9e:	6013      	strgt	r3, [r2, #0]
    4ba0:	2613      	movgt	r6, #19
    4ba2:	b95f      	cbnz	r7, 4bbc <fp_display+0x7bc>
    4ba4:	4631      	mov	r1, r6
    4ba6:	4620      	mov	r0, r4
    4ba8:	f7ff fbb8 	bl	431c <fp_round>
    4bac:	b130      	cbz	r0, 4bbc <fp_display+0x7bc>
    4bae:	ea7f 0805 	mvns.w	r8, r5
    4bb2:	f106 0601 	add.w	r6, r6, #1
    4bb6:	d101      	bne.n	4bbc <fp_display+0x7bc>
    4bb8:	7863      	ldrb	r3, [r4, #1]
    4bba:	e00d      	b.n	4bd8 <fp_display+0x7d8>
    4bbc:	f1b8 0f01 	cmp.w	r8, #1
    4bc0:	eb04 0306 	add.w	r3, r4, r6
    4bc4:	d10c      	bne.n	4be0 <fp_display+0x7e0>
    4bc6:	1b1a      	subs	r2, r3, r4
    4bc8:	2a00      	cmp	r2, #0
    4bca:	dd03      	ble.n	4bd4 <fp_display+0x7d4>
    4bcc:	f813 2901 	ldrb.w	r2, [r3], #-1
    4bd0:	709a      	strb	r2, [r3, #2]
    4bd2:	e7f8      	b.n	4bc6 <fp_display+0x7c6>
    4bd4:	3601      	adds	r6, #1
    4bd6:	2330      	movs	r3, #48	; 0x30
    4bd8:	7023      	strb	r3, [r4, #0]
    4bda:	232e      	movs	r3, #46	; 0x2e
    4bdc:	7063      	strb	r3, [r4, #1]
    4bde:	e011      	b.n	4c04 <fp_display+0x804>
    4be0:	1b1a      	subs	r2, r3, r4
    4be2:	2a00      	cmp	r2, #0
    4be4:	dd03      	ble.n	4bee <fp_display+0x7ee>
    4be6:	f813 2901 	ldrb.w	r2, [r3], #-1
    4bea:	70da      	strb	r2, [r3, #3]
    4bec:	e7f8      	b.n	4be0 <fp_display+0x7e0>
    4bee:	2330      	movs	r3, #48	; 0x30
    4bf0:	7023      	strb	r3, [r4, #0]
    4bf2:	232e      	movs	r3, #46	; 0x2e
    4bf4:	7063      	strb	r3, [r4, #1]
    4bf6:	9a2e      	ldr	r2, [sp, #184]	; 0xb8
    4bf8:	233c      	movs	r3, #60	; 0x3c
    4bfa:	70a3      	strb	r3, [r4, #2]
    4bfc:	f108 33ff 	add.w	r3, r8, #4294967295
    4c00:	3602      	adds	r6, #2
    4c02:	6013      	str	r3, [r2, #0]
    4c04:	9b2f      	ldr	r3, [sp, #188]	; 0xbc
    4c06:	681b      	ldr	r3, [r3, #0]
    4c08:	2b00      	cmp	r3, #0
    4c0a:	dc25      	bgt.n	4c58 <fp_display+0x858>
    4c0c:	e059      	b.n	4cc2 <fp_display+0x8c2>
    4c0e:	eb05 0803 	add.w	r8, r5, r3
    4c12:	f108 0602 	add.w	r6, r8, #2
    4c16:	2e12      	cmp	r6, #18
    4c18:	dd3d      	ble.n	4c96 <fp_display+0x896>
    4c1a:	b93f      	cbnz	r7, 4c2c <fp_display+0x82c>
    4c1c:	2113      	movs	r1, #19
    4c1e:	4620      	mov	r0, r4
    4c20:	f7ff fb7c 	bl	431c <fp_round>
    4c24:	b110      	cbz	r0, 4c2c <fp_display+0x82c>
    4c26:	3501      	adds	r5, #1
    4c28:	2614      	movs	r6, #20
    4c2a:	e000      	b.n	4c2e <fp_display+0x82e>
    4c2c:	2613      	movs	r6, #19
    4c2e:	1e72      	subs	r2, r6, #1
    4c30:	4295      	cmp	r5, r2
    4c32:	4623      	mov	r3, r4
    4c34:	da14      	bge.n	4c60 <fp_display+0x860>
    4c36:	f813 2f01 	ldrb.w	r2, [r3, #1]!
    4c3a:	f803 2c01 	strb.w	r2, [r3, #-1]
    4c3e:	1b1a      	subs	r2, r3, r4
    4c40:	4295      	cmp	r5, r2
    4c42:	daf8      	bge.n	4c36 <fp_display+0x836>
    4c44:	1963      	adds	r3, r4, r5
    4c46:	222e      	movs	r2, #46	; 0x2e
    4c48:	705a      	strb	r2, [r3, #1]
    4c4a:	f8db 3000 	ldr.w	r3, [fp]
    4c4e:	441d      	add	r5, r3
    4c50:	9b2f      	ldr	r3, [sp, #188]	; 0xbc
    4c52:	3d11      	subs	r5, #17
    4c54:	601d      	str	r5, [r3, #0]
    4c56:	b3a5      	cbz	r5, 4cc2 <fp_display+0x8c2>
    4c58:	233e      	movs	r3, #62	; 0x3e
    4c5a:	55a3      	strb	r3, [r4, r6]
    4c5c:	3601      	adds	r6, #1
    4c5e:	e030      	b.n	4cc2 <fp_display+0x8c2>
    4c60:	f813 1f01 	ldrb.w	r1, [r3, #1]!
    4c64:	f803 1c01 	strb.w	r1, [r3, #-1]
    4c68:	1b19      	subs	r1, r3, r4
    4c6a:	428a      	cmp	r2, r1
    4c6c:	dcf8      	bgt.n	4c60 <fp_display+0x860>
    4c6e:	19a3      	adds	r3, r4, r6
    4c70:	223c      	movs	r2, #60	; 0x3c
    4c72:	f803 2c01 	strb.w	r2, [r3, #-1]
    4c76:	1bad      	subs	r5, r5, r6
    4c78:	9b2e      	ldr	r3, [sp, #184]	; 0xb8
    4c7a:	222e      	movs	r2, #46	; 0x2e
    4c7c:	3502      	adds	r5, #2
    4c7e:	601d      	str	r5, [r3, #0]
    4c80:	55a2      	strb	r2, [r4, r6]
    4c82:	f8db 2000 	ldr.w	r2, [fp]
    4c86:	1c73      	adds	r3, r6, #1
    4c88:	b1d2      	cbz	r2, 4cc0 <fp_display+0x8c0>
    4c8a:	992f      	ldr	r1, [sp, #188]	; 0xbc
    4c8c:	600a      	str	r2, [r1, #0]
    4c8e:	223e      	movs	r2, #62	; 0x3e
    4c90:	3602      	adds	r6, #2
    4c92:	54e2      	strb	r2, [r4, r3]
    4c94:	e015      	b.n	4cc2 <fp_display+0x8c2>
    4c96:	b93f      	cbnz	r7, 4ca8 <fp_display+0x8a8>
    4c98:	4631      	mov	r1, r6
    4c9a:	4620      	mov	r0, r4
    4c9c:	f7ff fb3e 	bl	431c <fp_round>
    4ca0:	b110      	cbz	r0, 4ca8 <fp_display+0x8a8>
    4ca2:	3501      	adds	r5, #1
    4ca4:	f108 0603 	add.w	r6, r8, #3
    4ca8:	4623      	mov	r3, r4
    4caa:	f813 2f01 	ldrb.w	r2, [r3, #1]!
    4cae:	f803 2c01 	strb.w	r2, [r3, #-1]
    4cb2:	1b1a      	subs	r2, r3, r4
    4cb4:	4295      	cmp	r5, r2
    4cb6:	daf8      	bge.n	4caa <fp_display+0x8aa>
    4cb8:	4425      	add	r5, r4
    4cba:	232e      	movs	r3, #46	; 0x2e
    4cbc:	706b      	strb	r3, [r5, #1]
    4cbe:	e000      	b.n	4cc2 <fp_display+0x8c2>
    4cc0:	461e      	mov	r6, r3
    4cc2:	b177      	cbz	r7, 4ce2 <fp_display+0x8e2>
    4cc4:	9b06      	ldr	r3, [sp, #24]
    4cc6:	0718      	lsls	r0, r3, #28
    4cc8:	d413      	bmi.n	4cf2 <fp_display+0x8f2>
    4cca:	4426      	add	r6, r4
    4ccc:	1b30      	subs	r0, r6, r4
    4cce:	f816 3d01 	ldrb.w	r3, [r6, #-1]!
    4cd2:	2b30      	cmp	r3, #48	; 0x30
    4cd4:	d0fa      	beq.n	4ccc <fp_display+0x8cc>
    4cd6:	2b3e      	cmp	r3, #62	; 0x3e
    4cd8:	d0f8      	beq.n	4ccc <fp_display+0x8cc>
    4cda:	2b2e      	cmp	r3, #46	; 0x2e
    4cdc:	d10a      	bne.n	4cf4 <fp_display+0x8f4>
    4cde:	3801      	subs	r0, #1
    4ce0:	e008      	b.n	4cf4 <fp_display+0x8f4>
    4ce2:	f8db 3000 	ldr.w	r3, [fp]
    4ce6:	b923      	cbnz	r3, 4cf2 <fp_display+0x8f2>
    4ce8:	9b06      	ldr	r3, [sp, #24]
    4cea:	0719      	lsls	r1, r3, #28
    4cec:	d401      	bmi.n	4cf2 <fp_display+0x8f2>
    4cee:	1e70      	subs	r0, r6, #1
    4cf0:	e000      	b.n	4cf4 <fp_display+0x8f4>
    4cf2:	4630      	mov	r0, r6
    4cf4:	b01d      	add	sp, #116	; 0x74
    4cf6:	ecbd 8b06 	vpop	{d8-d10}
    4cfa:	e8bd 8ff0 	ldmia.w	sp!, {r4, r5, r6, r7, r8, r9, sl, fp, pc}
    4cfe:	bf00      	nop

00004d00 <vsnprintf>:
    4d00:	b5f0      	push	{r4, r5, r6, r7, lr}
    4d02:	b08f      	sub	sp, #60	; 0x3c
    4d04:	4604      	mov	r4, r0
    4d06:	460d      	mov	r5, r1
    4d08:	4616      	mov	r6, r2
    4d0a:	2100      	movs	r1, #0
    4d0c:	2228      	movs	r2, #40	; 0x28
    4d0e:	a804      	add	r0, sp, #16
    4d10:	461f      	mov	r7, r3
    4d12:	f7ff fb01 	bl	4318 <memset>
    4d16:	230a      	movs	r3, #10
    4d18:	9307      	str	r3, [sp, #28]
    4d1a:	f06f 4300 	mvn.w	r3, #2147483648	; 0x80000000
    4d1e:	9404      	str	r4, [sp, #16]
    4d20:	9306      	str	r3, [sp, #24]
    4d22:	2400      	movs	r4, #0
    4d24:	4b0c      	ldr	r3, [pc, #48]	; (4d58 <vsnprintf+0x58>)
    4d26:	9302      	str	r3, [sp, #8]
    4d28:	1e6a      	subs	r2, r5, #1
    4d2a:	4623      	mov	r3, r4
    4d2c:	e88d 00c0 	stmia.w	sp, {r6, r7}
    4d30:	a804      	add	r0, sp, #16
    4d32:	f000 f88f 	bl	4e54 <__vfprintf>
    4d36:	9b06      	ldr	r3, [sp, #24]
    4d38:	3b01      	subs	r3, #1
    4d3a:	42a3      	cmp	r3, r4
    4d3c:	4605      	mov	r5, r0
    4d3e:	9306      	str	r3, [sp, #24]
    4d40:	db02      	blt.n	4d48 <vsnprintf+0x48>
    4d42:	9b04      	ldr	r3, [sp, #16]
    4d44:	701c      	strb	r4, [r3, #0]
    4d46:	e003      	b.n	4d50 <vsnprintf+0x50>
    4d48:	a904      	add	r1, sp, #16
    4d4a:	4620      	mov	r0, r4
    4d4c:	f001 f84e 	bl	5dec <__flsbuf>
    4d50:	4628      	mov	r0, r5
    4d52:	b00f      	add	sp, #60	; 0x3c
    4d54:	bdf0      	pop	{r4, r5, r6, r7, pc}
    4d56:	bf00      	nop
    4d58:	00004401 	.word	0x00004401

00004d5c <printf>:
    4d5c:	b40f      	push	{r0, r1, r2, r3}
    4d5e:	b573      	push	{r0, r1, r4, r5, r6, lr}
    4d60:	ab06      	add	r3, sp, #24
    4d62:	2101      	movs	r1, #1
    4d64:	f853 6b04 	ldr.w	r6, [r3], #4
    4d68:	9301      	str	r3, [sp, #4]
    4d6a:	4632      	mov	r2, r6
    4d6c:	4668      	mov	r0, sp
    4d6e:	f7ff ffc7 	bl	4d00 <vsnprintf>
    4d72:	1e04      	subs	r4, r0, #0
    4d74:	dd13      	ble.n	4d9e <printf+0x42>
    4d76:	1c65      	adds	r5, r4, #1
    4d78:	4628      	mov	r0, r5
    4d7a:	f001 f9d5 	bl	6128 <malloc>
    4d7e:	9000      	str	r0, [sp, #0]
    4d80:	b168      	cbz	r0, 4d9e <printf+0x42>
    4d82:	9b01      	ldr	r3, [sp, #4]
    4d84:	4632      	mov	r2, r6
    4d86:	4629      	mov	r1, r5
    4d88:	f7ff ffba 	bl	4d00 <vsnprintf>
    4d8c:	4b07      	ldr	r3, [pc, #28]	; (4dac <printf+0x50>)
    4d8e:	9900      	ldr	r1, [sp, #0]
    4d90:	6bd8      	ldr	r0, [r3, #60]	; 0x3c
    4d92:	4622      	mov	r2, r4
    4d94:	f7fc fc76 	bl	1684 <__sys_write>
    4d98:	9800      	ldr	r0, [sp, #0]
    4d9a:	f001 fa29 	bl	61f0 <free>
    4d9e:	4620      	mov	r0, r4
    4da0:	b002      	add	sp, #8
    4da2:	e8bd 4070 	ldmia.w	sp!, {r4, r5, r6, lr}
    4da6:	b004      	add	sp, #16
    4da8:	4770      	bx	lr
    4daa:	bf00      	nop
    4dac:	20000110 	.word	0x20000110

00004db0 <_initio>:
    4db0:	b570      	push	{r4, r5, r6, lr}
    4db2:	f44f 72a0 	mov.w	r2, #320	; 0x140
    4db6:	2100      	movs	r1, #0
    4db8:	4820      	ldr	r0, [pc, #128]	; (4e3c <_initio+0x8c>)
    4dba:	4c21      	ldr	r4, [pc, #132]	; (4e40 <_initio+0x90>)
    4dbc:	4d1f      	ldr	r5, [pc, #124]	; (4e3c <_initio+0x8c>)
    4dbe:	f7ff faab 	bl	4318 <memset>
    4dc2:	20c0      	movs	r0, #192	; 0xc0
    4dc4:	f001 fa2c 	bl	6220 <_Csys_alloc>
    4dc8:	22c0      	movs	r2, #192	; 0xc0
    4dca:	2100      	movs	r1, #0
    4dcc:	6020      	str	r0, [r4, #0]
    4dce:	2628      	movs	r6, #40	; 0x28
    4dd0:	f7ff faa2 	bl	4318 <memset>
    4dd4:	6820      	ldr	r0, [r4, #0]
    4dd6:	2300      	movs	r3, #0
    4dd8:	2418      	movs	r4, #24
    4dda:	fb06 5203 	mla	r2, r6, r3, r5
    4dde:	fb04 0103 	mla	r1, r4, r3, r0
    4de2:	3301      	adds	r3, #1
    4de4:	2b08      	cmp	r3, #8
    4de6:	6251      	str	r1, [r2, #36]	; 0x24
    4de8:	d1f7      	bne.n	4dda <_initio+0x2a>
    4dea:	4a14      	ldr	r2, [pc, #80]	; (4e3c <_initio+0x8c>)
    4dec:	4915      	ldr	r1, [pc, #84]	; (4e44 <_initio+0x94>)
    4dee:	2000      	movs	r0, #0
    4df0:	f001 f89c 	bl	5f2c <_fdopen>
    4df4:	f44f 5380 	mov.w	r3, #4096	; 0x1000
    4df8:	f44f 6280 	mov.w	r2, #1024	; 0x400
    4dfc:	2100      	movs	r1, #0
    4dfe:	480f      	ldr	r0, [pc, #60]	; (4e3c <_initio+0x8c>)
    4e00:	f000 fecc 	bl	5b9c <setvbuf>
    4e04:	4a10      	ldr	r2, [pc, #64]	; (4e48 <_initio+0x98>)
    4e06:	4911      	ldr	r1, [pc, #68]	; (4e4c <_initio+0x9c>)
    4e08:	2001      	movs	r0, #1
    4e0a:	f001 f88f 	bl	5f2c <_fdopen>
    4e0e:	f44f 5380 	mov.w	r3, #4096	; 0x1000
    4e12:	f44f 6280 	mov.w	r2, #1024	; 0x400
    4e16:	2100      	movs	r1, #0
    4e18:	480b      	ldr	r0, [pc, #44]	; (4e48 <_initio+0x98>)
    4e1a:	f000 febf 	bl	5b9c <setvbuf>
    4e1e:	4a0c      	ldr	r2, [pc, #48]	; (4e50 <_initio+0xa0>)
    4e20:	490a      	ldr	r1, [pc, #40]	; (4e4c <_initio+0x9c>)
    4e22:	2002      	movs	r0, #2
    4e24:	f001 f882 	bl	5f2c <_fdopen>
    4e28:	f44f 5380 	mov.w	r3, #4096	; 0x1000
    4e2c:	f44f 6280 	mov.w	r2, #1024	; 0x400
    4e30:	2100      	movs	r1, #0
    4e32:	4807      	ldr	r0, [pc, #28]	; (4e50 <_initio+0xa0>)
    4e34:	e8bd 4070 	ldmia.w	sp!, {r4, r5, r6, lr}
    4e38:	f000 beb0 	b.w	5b9c <setvbuf>
    4e3c:	20000110 	.word	0x20000110
    4e40:	2000010c 	.word	0x2000010c
    4e44:	0001c5a4 	.word	0x0001c5a4
    4e48:	20000138 	.word	0x20000138
    4e4c:	0001c5a6 	.word	0x0001c5a6
    4e50:	20000160 	.word	0x20000160

00004e54 <__vfprintf>:
    4e54:	e92d 4ff0 	stmdb	sp!, {r4, r5, r6, r7, r8, r9, sl, fp, lr}
    4e58:	b0b1      	sub	sp, #196	; 0xc4
    4e5a:	e9cd 230c 	strd	r2, r3, [sp, #48]	; 0x30
    4e5e:	f8dd 80ec 	ldr.w	r8, [sp, #236]	; 0xec
    4e62:	9b3a      	ldr	r3, [sp, #232]	; 0xe8
    4e64:	2200      	movs	r2, #0
    4e66:	4605      	mov	r5, r0
    4e68:	9204      	str	r2, [sp, #16]
    4e6a:	7818      	ldrb	r0, [r3, #0]
    4e6c:	f103 0a01 	add.w	sl, r3, #1
    4e70:	2800      	cmp	r0, #0
    4e72:	f000 868e 	beq.w	5b92 <__vfprintf+0xd3e>
    4e76:	2825      	cmp	r0, #37	; 0x25
    4e78:	d101      	bne.n	4e7e <__vfprintf+0x2a>
    4e7a:	2400      	movs	r4, #0
    4e7c:	e01f      	b.n	4ebe <__vfprintf+0x6a>
    4e7e:	9b04      	ldr	r3, [sp, #16]
    4e80:	e9dd 670c 	ldrd	r6, r7, [sp, #48]	; 0x30
    4e84:	4619      	mov	r1, r3
    4e86:	17da      	asrs	r2, r3, #31
    4e88:	1c5c      	adds	r4, r3, #1
    4e8a:	42b1      	cmp	r1, r6
    4e8c:	4613      	mov	r3, r2
    4e8e:	41bb      	sbcs	r3, r7
    4e90:	f280 8673 	bge.w	5b7a <__vfprintf+0xd26>
    4e94:	68ab      	ldr	r3, [r5, #8]
    4e96:	3b01      	subs	r3, #1
    4e98:	2b00      	cmp	r3, #0
    4e9a:	60ab      	str	r3, [r5, #8]
    4e9c:	db05      	blt.n	4eaa <__vfprintf+0x56>
    4e9e:	682b      	ldr	r3, [r5, #0]
    4ea0:	1c5a      	adds	r2, r3, #1
    4ea2:	602a      	str	r2, [r5, #0]
    4ea4:	7018      	strb	r0, [r3, #0]
    4ea6:	f000 be68 	b.w	5b7a <__vfprintf+0xd26>
    4eaa:	4629      	mov	r1, r5
    4eac:	f000 ff9e 	bl	5dec <__flsbuf>
    4eb0:	f000 be63 	b.w	5b7a <__vfprintf+0xd26>
    4eb4:	d909      	bls.n	4eca <__vfprintf+0x76>
    4eb6:	2f2d      	cmp	r7, #45	; 0x2d
    4eb8:	d10e      	bne.n	4ed8 <__vfprintf+0x84>
    4eba:	f044 0401 	orr.w	r4, r4, #1
    4ebe:	4653      	mov	r3, sl
    4ec0:	f81a 7b01 	ldrb.w	r7, [sl], #1
    4ec4:	2f2b      	cmp	r7, #43	; 0x2b
    4ec6:	d1f5      	bne.n	4eb4 <__vfprintf+0x60>
    4ec8:	e00b      	b.n	4ee2 <__vfprintf+0x8e>
    4eca:	2f20      	cmp	r7, #32
    4ecc:	d00c      	beq.n	4ee8 <__vfprintf+0x94>
    4ece:	2f23      	cmp	r7, #35	; 0x23
    4ed0:	d10d      	bne.n	4eee <__vfprintf+0x9a>
    4ed2:	f044 0408 	orr.w	r4, r4, #8
    4ed6:	e7f2      	b.n	4ebe <__vfprintf+0x6a>
    4ed8:	2f30      	cmp	r7, #48	; 0x30
    4eda:	d108      	bne.n	4eee <__vfprintf+0x9a>
    4edc:	f444 7400 	orr.w	r4, r4, #512	; 0x200
    4ee0:	e7ed      	b.n	4ebe <__vfprintf+0x6a>
    4ee2:	f044 0402 	orr.w	r4, r4, #2
    4ee6:	e7ea      	b.n	4ebe <__vfprintf+0x6a>
    4ee8:	f044 0404 	orr.w	r4, r4, #4
    4eec:	e7e7      	b.n	4ebe <__vfprintf+0x6a>
    4eee:	2f2a      	cmp	r7, #42	; 0x2a
    4ef0:	d002      	beq.n	4ef8 <__vfprintf+0xa4>
    4ef2:	2600      	movs	r6, #0
    4ef4:	220a      	movs	r2, #10
    4ef6:	e011      	b.n	4f1c <__vfprintf+0xc8>
    4ef8:	f8d8 6000 	ldr.w	r6, [r8]
    4efc:	785f      	ldrb	r7, [r3, #1]
    4efe:	2e00      	cmp	r6, #0
    4f00:	f108 0204 	add.w	r2, r8, #4
    4f04:	bfbc      	itt	lt
    4f06:	4276      	neglt	r6, r6
    4f08:	f084 0401 	eorlt.w	r4, r4, #1
    4f0c:	f103 0a02 	add.w	sl, r3, #2
    4f10:	4690      	mov	r8, r2
    4f12:	e008      	b.n	4f26 <__vfprintf+0xd2>
    4f14:	f81a 7b01 	ldrb.w	r7, [sl], #1
    4f18:	fb02 3606 	mla	r6, r2, r6, r3
    4f1c:	f1a7 0330 	sub.w	r3, r7, #48	; 0x30
    4f20:	b2d9      	uxtb	r1, r3
    4f22:	2909      	cmp	r1, #9
    4f24:	d9f6      	bls.n	4f14 <__vfprintf+0xc0>
    4f26:	ea26 73e6 	bic.w	r3, r6, r6, asr #31
    4f2a:	2f2e      	cmp	r7, #46	; 0x2e
    4f2c:	9310      	str	r3, [sp, #64]	; 0x40
    4f2e:	d11e      	bne.n	4f6e <__vfprintf+0x11a>
    4f30:	f89a 7000 	ldrb.w	r7, [sl]
    4f34:	2f2a      	cmp	r7, #42	; 0x2a
    4f36:	d109      	bne.n	4f4c <__vfprintf+0xf8>
    4f38:	f8d8 3000 	ldr.w	r3, [r8]
    4f3c:	f89a 7001 	ldrb.w	r7, [sl, #1]
    4f40:	9308      	str	r3, [sp, #32]
    4f42:	f108 0804 	add.w	r8, r8, #4
    4f46:	f10a 0a02 	add.w	sl, sl, #2
    4f4a:	e00a      	b.n	4f62 <__vfprintf+0x10e>
    4f4c:	2300      	movs	r3, #0
    4f4e:	f10a 0a01 	add.w	sl, sl, #1
    4f52:	9308      	str	r3, [sp, #32]
    4f54:	220a      	movs	r2, #10
    4f56:	f1a7 0330 	sub.w	r3, r7, #48	; 0x30
    4f5a:	b2d9      	uxtb	r1, r3
    4f5c:	2909      	cmp	r1, #9
    4f5e:	f240 8610 	bls.w	5b82 <__vfprintf+0xd2e>
    4f62:	9b08      	ldr	r3, [sp, #32]
    4f64:	2b00      	cmp	r3, #0
    4f66:	db02      	blt.n	4f6e <__vfprintf+0x11a>
    4f68:	f044 0410 	orr.w	r4, r4, #16
    4f6c:	e001      	b.n	4f72 <__vfprintf+0x11e>
    4f6e:	2300      	movs	r3, #0
    4f70:	9308      	str	r3, [sp, #32]
    4f72:	2f6c      	cmp	r7, #108	; 0x6c
    4f74:	d10e      	bne.n	4f94 <__vfprintf+0x140>
    4f76:	f89a 7000 	ldrb.w	r7, [sl]
    4f7a:	2f6c      	cmp	r7, #108	; 0x6c
    4f7c:	bf03      	ittte	eq
    4f7e:	f89a 7001 	ldrbeq.w	r7, [sl, #1]
    4f82:	f044 0460 	orreq.w	r4, r4, #96	; 0x60
    4f86:	f10a 0a02 	addeq.w	sl, sl, #2
    4f8a:	f10a 0a01 	addne.w	sl, sl, #1
    4f8e:	bf18      	it	ne
    4f90:	f044 0420 	orrne.w	r4, r4, #32
    4f94:	2f4c      	cmp	r7, #76	; 0x4c
    4f96:	d001      	beq.n	4f9c <__vfprintf+0x148>
    4f98:	2f71      	cmp	r7, #113	; 0x71
    4f9a:	d104      	bne.n	4fa6 <__vfprintf+0x152>
    4f9c:	f89a 7000 	ldrb.w	r7, [sl]
    4fa0:	f044 0460 	orr.w	r4, r4, #96	; 0x60
    4fa4:	e01c      	b.n	4fe0 <__vfprintf+0x18c>
    4fa6:	2f68      	cmp	r7, #104	; 0x68
    4fa8:	d10f      	bne.n	4fca <__vfprintf+0x176>
    4faa:	f89a 7000 	ldrb.w	r7, [sl]
    4fae:	2f68      	cmp	r7, #104	; 0x68
    4fb0:	bf03      	ittte	eq
    4fb2:	f89a 7001 	ldrbeq.w	r7, [sl, #1]
    4fb6:	f444 7480 	orreq.w	r4, r4, #256	; 0x100
    4fba:	f10a 0a02 	addeq.w	sl, sl, #2
    4fbe:	f10a 0a01 	addne.w	sl, sl, #1
    4fc2:	bf18      	it	ne
    4fc4:	f044 0480 	orrne.w	r4, r4, #128	; 0x80
    4fc8:	e00c      	b.n	4fe4 <__vfprintf+0x190>
    4fca:	2f6a      	cmp	r7, #106	; 0x6a
    4fcc:	d102      	bne.n	4fd4 <__vfprintf+0x180>
    4fce:	f044 0440 	orr.w	r4, r4, #64	; 0x40
    4fd2:	e003      	b.n	4fdc <__vfprintf+0x188>
    4fd4:	2f7a      	cmp	r7, #122	; 0x7a
    4fd6:	d001      	beq.n	4fdc <__vfprintf+0x188>
    4fd8:	2f74      	cmp	r7, #116	; 0x74
    4fda:	d103      	bne.n	4fe4 <__vfprintf+0x190>
    4fdc:	f89a 7000 	ldrb.w	r7, [sl]
    4fe0:	f10a 0a01 	add.w	sl, sl, #1
    4fe4:	2f67      	cmp	r7, #103	; 0x67
    4fe6:	dc1c      	bgt.n	5022 <__vfprintf+0x1ce>
    4fe8:	2f65      	cmp	r7, #101	; 0x65
    4fea:	f280 82b3 	bge.w	5554 <__vfprintf+0x700>
    4fee:	2f47      	cmp	r7, #71	; 0x47
    4ff0:	f000 82b0 	beq.w	5554 <__vfprintf+0x700>
    4ff4:	dc09      	bgt.n	500a <__vfprintf+0x1b6>
    4ff6:	2f41      	cmp	r7, #65	; 0x41
    4ff8:	f000 82a6 	beq.w	5548 <__vfprintf+0x6f4>
    4ffc:	2f45      	cmp	r7, #69	; 0x45
    4ffe:	f000 82a9 	beq.w	5554 <__vfprintf+0x700>
    5002:	2f00      	cmp	r7, #0
    5004:	f000 80be 	beq.w	5184 <__vfprintf+0x330>
    5008:	e027      	b.n	505a <__vfprintf+0x206>
    500a:	2f61      	cmp	r7, #97	; 0x61
    500c:	f000 829c 	beq.w	5548 <__vfprintf+0x6f4>
    5010:	dc03      	bgt.n	501a <__vfprintf+0x1c6>
    5012:	2f58      	cmp	r7, #88	; 0x58
    5014:	f000 81a9 	beq.w	536a <__vfprintf+0x516>
    5018:	e01f      	b.n	505a <__vfprintf+0x206>
    501a:	2f63      	cmp	r7, #99	; 0x63
    501c:	d017      	beq.n	504e <__vfprintf+0x1fa>
    501e:	2f64      	cmp	r7, #100	; 0x64
    5020:	e009      	b.n	5036 <__vfprintf+0x1e2>
    5022:	2f70      	cmp	r7, #112	; 0x70
    5024:	f000 81f7 	beq.w	5416 <__vfprintf+0x5c2>
    5028:	dc08      	bgt.n	503c <__vfprintf+0x1e8>
    502a:	2f6e      	cmp	r7, #110	; 0x6e
    502c:	f000 80b0 	beq.w	5190 <__vfprintf+0x33c>
    5030:	f300 81fc 	bgt.w	542c <__vfprintf+0x5d8>
    5034:	2f69      	cmp	r7, #105	; 0x69
    5036:	f000 8250 	beq.w	54da <__vfprintf+0x686>
    503a:	e00e      	b.n	505a <__vfprintf+0x206>
    503c:	2f75      	cmp	r7, #117	; 0x75
    503e:	f000 8219 	beq.w	5474 <__vfprintf+0x620>
    5042:	2f78      	cmp	r7, #120	; 0x78
    5044:	f000 81bc 	beq.w	53c0 <__vfprintf+0x56c>
    5048:	2f73      	cmp	r7, #115	; 0x73
    504a:	d106      	bne.n	505a <__vfprintf+0x206>
    504c:	e0c3      	b.n	51d6 <__vfprintf+0x382>
    504e:	f108 0304 	add.w	r3, r8, #4
    5052:	9307      	str	r3, [sp, #28]
    5054:	f8d8 7000 	ldr.w	r7, [r8]
    5058:	e001      	b.n	505e <__vfprintf+0x20a>
    505a:	f8cd 801c 	str.w	r8, [sp, #28]
    505e:	9b10      	ldr	r3, [sp, #64]	; 0x40
    5060:	f014 0601 	ands.w	r6, r4, #1
    5064:	f103 33ff 	add.w	r3, r3, #4294967295
    5068:	9308      	str	r3, [sp, #32]
    506a:	d13b      	bne.n	50e4 <__vfprintf+0x290>
    506c:	9a10      	ldr	r2, [sp, #64]	; 0x40
    506e:	f414 7f00 	tst.w	r4, #512	; 0x200
    5072:	f1a2 0402 	sub.w	r4, r2, #2
    5076:	9a04      	ldr	r2, [sp, #16]
    5078:	4610      	mov	r0, r2
    507a:	ea4f 71e2 	mov.w	r1, r2, asr #31
    507e:	460a      	mov	r2, r1
    5080:	4601      	mov	r1, r0
    5082:	e9cd 120a 	strd	r1, r2, [sp, #40]	; 0x28
    5086:	bf14      	ite	ne
    5088:	2330      	movne	r3, #48	; 0x30
    508a:	2320      	moveq	r3, #32
    508c:	f04f 0800 	mov.w	r8, #0
    5090:	f04f 0900 	mov.w	r9, #0
    5094:	9a04      	ldr	r2, [sp, #16]
    5096:	ebb4 0108 	subs.w	r1, r4, r8
    509a:	4442      	add	r2, r8
    509c:	9108      	str	r1, [sp, #32]
    509e:	d420      	bmi.n	50e2 <__vfprintf+0x28e>
    50a0:	e9dd 010a 	ldrd	r0, r1, [sp, #40]	; 0x28
    50a4:	e9dd bc0c 	ldrd	fp, ip, [sp, #48]	; 0x30
    50a8:	eb10 0008 	adds.w	r0, r0, r8
    50ac:	eb41 0109 	adc.w	r1, r1, r9
    50b0:	4558      	cmp	r0, fp
    50b2:	eb71 020c 	sbcs.w	r2, r1, ip
    50b6:	da0f      	bge.n	50d8 <__vfprintf+0x284>
    50b8:	68aa      	ldr	r2, [r5, #8]
    50ba:	3a01      	subs	r2, #1
    50bc:	2a00      	cmp	r2, #0
    50be:	60aa      	str	r2, [r5, #8]
    50c0:	db04      	blt.n	50cc <__vfprintf+0x278>
    50c2:	682a      	ldr	r2, [r5, #0]
    50c4:	1c51      	adds	r1, r2, #1
    50c6:	6029      	str	r1, [r5, #0]
    50c8:	7013      	strb	r3, [r2, #0]
    50ca:	e005      	b.n	50d8 <__vfprintf+0x284>
    50cc:	4618      	mov	r0, r3
    50ce:	4629      	mov	r1, r5
    50d0:	9308      	str	r3, [sp, #32]
    50d2:	f000 fe8b 	bl	5dec <__flsbuf>
    50d6:	9b08      	ldr	r3, [sp, #32]
    50d8:	f118 0801 	adds.w	r8, r8, #1
    50dc:	f149 0900 	adc.w	r9, r9, #0
    50e0:	e7d8      	b.n	5094 <__vfprintf+0x240>
    50e2:	9204      	str	r2, [sp, #16]
    50e4:	9b04      	ldr	r3, [sp, #16]
    50e6:	4619      	mov	r1, r3
    50e8:	17da      	asrs	r2, r3, #31
    50ea:	1c5c      	adds	r4, r3, #1
    50ec:	4613      	mov	r3, r2
    50ee:	460a      	mov	r2, r1
    50f0:	e9dd 010c 	ldrd	r0, r1, [sp, #48]	; 0x30
    50f4:	4282      	cmp	r2, r0
    50f6:	418b      	sbcs	r3, r1
    50f8:	da0d      	bge.n	5116 <__vfprintf+0x2c2>
    50fa:	68ab      	ldr	r3, [r5, #8]
    50fc:	3b01      	subs	r3, #1
    50fe:	2b00      	cmp	r3, #0
    5100:	60ab      	str	r3, [r5, #8]
    5102:	db04      	blt.n	510e <__vfprintf+0x2ba>
    5104:	682b      	ldr	r3, [r5, #0]
    5106:	1c5a      	adds	r2, r3, #1
    5108:	602a      	str	r2, [r5, #0]
    510a:	701f      	strb	r7, [r3, #0]
    510c:	e003      	b.n	5116 <__vfprintf+0x2c2>
    510e:	4629      	mov	r1, r5
    5110:	4638      	mov	r0, r7
    5112:	f000 fe6b 	bl	5dec <__flsbuf>
    5116:	2e00      	cmp	r6, #0
    5118:	f000 852b 	beq.w	5b72 <__vfprintf+0xd1e>
    511c:	9b08      	ldr	r3, [sp, #32]
    511e:	2600      	movs	r6, #0
    5120:	f103 38ff 	add.w	r8, r3, #4294967295
    5124:	2700      	movs	r7, #0
    5126:	4622      	mov	r2, r4
    5128:	17e3      	asrs	r3, r4, #31
    512a:	f04f 0920 	mov.w	r9, #32
    512e:	ebc6 0108 	rsb	r1, r6, r8
    5132:	2900      	cmp	r1, #0
    5134:	db1f      	blt.n	5176 <__vfprintf+0x322>
    5136:	e9dd bc0c 	ldrd	fp, ip, [sp, #48]	; 0x30
    513a:	1990      	adds	r0, r2, r6
    513c:	eb43 0107 	adc.w	r1, r3, r7
    5140:	4558      	cmp	r0, fp
    5142:	eb71 010c 	sbcs.w	r1, r1, ip
    5146:	da12      	bge.n	516e <__vfprintf+0x31a>
    5148:	68a9      	ldr	r1, [r5, #8]
    514a:	3901      	subs	r1, #1
    514c:	2900      	cmp	r1, #0
    514e:	60a9      	str	r1, [r5, #8]
    5150:	db05      	blt.n	515e <__vfprintf+0x30a>
    5152:	6829      	ldr	r1, [r5, #0]
    5154:	1c48      	adds	r0, r1, #1
    5156:	6028      	str	r0, [r5, #0]
    5158:	f881 9000 	strb.w	r9, [r1]
    515c:	e007      	b.n	516e <__vfprintf+0x31a>
    515e:	4629      	mov	r1, r5
    5160:	2020      	movs	r0, #32
    5162:	e9cd 2304 	strd	r2, r3, [sp, #16]
    5166:	f000 fe41 	bl	5dec <__flsbuf>
    516a:	e9dd 2304 	ldrd	r2, r3, [sp, #16]
    516e:	3601      	adds	r6, #1
    5170:	f147 0700 	adc.w	r7, r7, #0
    5174:	e7db      	b.n	512e <__vfprintf+0x2da>
    5176:	9b08      	ldr	r3, [sp, #32]
    5178:	2b00      	cmp	r3, #0
    517a:	bfa8      	it	ge
    517c:	18e4      	addge	r4, r4, r3
    517e:	4623      	mov	r3, r4
    5180:	f000 bcf5 	b.w	5b6e <__vfprintf+0xd1a>
    5184:	f10a 3aff 	add.w	sl, sl, #4294967295
    5188:	f8cd 801c 	str.w	r8, [sp, #28]
    518c:	f000 bcf2 	b.w	5b74 <__vfprintf+0xd20>
    5190:	f108 0304 	add.w	r3, r8, #4
    5194:	f014 0f40 	tst.w	r4, #64	; 0x40
    5198:	9307      	str	r3, [sp, #28]
    519a:	f8d8 3000 	ldr.w	r3, [r8]
    519e:	d006      	beq.n	51ae <__vfprintf+0x35a>
    51a0:	9a04      	ldr	r2, [sp, #16]
    51a2:	4610      	mov	r0, r2
    51a4:	17d1      	asrs	r1, r2, #31
    51a6:	e9c3 0100 	strd	r0, r1, [r3]
    51aa:	f000 bce3 	b.w	5b74 <__vfprintf+0xd20>
    51ae:	06a7      	lsls	r7, r4, #26
    51b0:	d40d      	bmi.n	51ce <__vfprintf+0x37a>
    51b2:	05e6      	lsls	r6, r4, #23
    51b4:	d504      	bpl.n	51c0 <__vfprintf+0x36c>
    51b6:	f89d 2010 	ldrb.w	r2, [sp, #16]
    51ba:	701a      	strb	r2, [r3, #0]
    51bc:	f000 bcda 	b.w	5b74 <__vfprintf+0xd20>
    51c0:	0624      	lsls	r4, r4, #24
    51c2:	d504      	bpl.n	51ce <__vfprintf+0x37a>
    51c4:	f8bd 2010 	ldrh.w	r2, [sp, #16]
    51c8:	801a      	strh	r2, [r3, #0]
    51ca:	f000 bcd3 	b.w	5b74 <__vfprintf+0xd20>
    51ce:	9a04      	ldr	r2, [sp, #16]
    51d0:	601a      	str	r2, [r3, #0]
    51d2:	f000 bccf 	b.w	5b74 <__vfprintf+0xd20>
    51d6:	f108 0304 	add.w	r3, r8, #4
    51da:	9307      	str	r3, [sp, #28]
    51dc:	4ab2      	ldr	r2, [pc, #712]	; (54a8 <__vfprintf+0x654>)
    51de:	f8d8 3000 	ldr.w	r3, [r8]
    51e2:	2b00      	cmp	r3, #0
    51e4:	bf08      	it	eq
    51e6:	4613      	moveq	r3, r2
    51e8:	4618      	mov	r0, r3
    51ea:	930a      	str	r3, [sp, #40]	; 0x28
    51ec:	f000 fd14 	bl	5c18 <strlen>
    51f0:	f014 0f10 	tst.w	r4, #16
    51f4:	4607      	mov	r7, r0
    51f6:	9b0a      	ldr	r3, [sp, #40]	; 0x28
    51f8:	d003      	beq.n	5202 <__vfprintf+0x3ae>
    51fa:	9a08      	ldr	r2, [sp, #32]
    51fc:	4290      	cmp	r0, r2
    51fe:	bfa8      	it	ge
    5200:	4617      	movge	r7, r2
    5202:	9a10      	ldr	r2, [sp, #64]	; 0x40
    5204:	1bd6      	subs	r6, r2, r7
    5206:	f014 0201 	ands.w	r2, r4, #1
    520a:	9208      	str	r2, [sp, #32]
    520c:	d13d      	bne.n	528a <__vfprintf+0x436>
    520e:	9904      	ldr	r1, [sp, #16]
    5210:	ea4f 7ce1 	mov.w	ip, r1, asr #31
    5214:	4608      	mov	r0, r1
    5216:	4661      	mov	r1, ip
    5218:	e9cd 010a 	strd	r0, r1, [sp, #40]	; 0x28
    521c:	f414 7f00 	tst.w	r4, #512	; 0x200
    5220:	bf14      	ite	ne
    5222:	2230      	movne	r2, #48	; 0x30
    5224:	2220      	moveq	r2, #32
    5226:	f04f 0800 	mov.w	r8, #0
    522a:	f04f 0900 	mov.w	r9, #0
    522e:	1e74      	subs	r4, r6, #1
    5230:	ebc8 0104 	rsb	r1, r8, r4
    5234:	2900      	cmp	r1, #0
    5236:	db22      	blt.n	527e <__vfprintf+0x42a>
    5238:	e9dd 010a 	ldrd	r0, r1, [sp, #40]	; 0x28
    523c:	e9dd bc0c 	ldrd	fp, ip, [sp, #48]	; 0x30
    5240:	eb10 0008 	adds.w	r0, r0, r8
    5244:	eb41 0109 	adc.w	r1, r1, r9
    5248:	4558      	cmp	r0, fp
    524a:	eb71 010c 	sbcs.w	r1, r1, ip
    524e:	da11      	bge.n	5274 <__vfprintf+0x420>
    5250:	68a9      	ldr	r1, [r5, #8]
    5252:	3901      	subs	r1, #1
    5254:	2900      	cmp	r1, #0
    5256:	60a9      	str	r1, [r5, #8]
    5258:	db04      	blt.n	5264 <__vfprintf+0x410>
    525a:	6829      	ldr	r1, [r5, #0]
    525c:	1c48      	adds	r0, r1, #1
    525e:	6028      	str	r0, [r5, #0]
    5260:	700a      	strb	r2, [r1, #0]
    5262:	e007      	b.n	5274 <__vfprintf+0x420>
    5264:	4610      	mov	r0, r2
    5266:	4629      	mov	r1, r5
    5268:	931e      	str	r3, [sp, #120]	; 0x78
    526a:	9210      	str	r2, [sp, #64]	; 0x40
    526c:	f000 fdbe 	bl	5dec <__flsbuf>
    5270:	9b1e      	ldr	r3, [sp, #120]	; 0x78
    5272:	9a10      	ldr	r2, [sp, #64]	; 0x40
    5274:	f118 0801 	adds.w	r8, r8, #1
    5278:	f149 0900 	adc.w	r9, r9, #0
    527c:	e7d8      	b.n	5230 <__vfprintf+0x3dc>
    527e:	9a04      	ldr	r2, [sp, #16]
    5280:	ea26 76e6 	bic.w	r6, r6, r6, asr #31
    5284:	4432      	add	r2, r6
    5286:	9204      	str	r2, [sp, #16]
    5288:	1ba6      	subs	r6, r4, r6
    528a:	9a04      	ldr	r2, [sp, #16]
    528c:	4610      	mov	r0, r2
    528e:	17d1      	asrs	r1, r2, #31
    5290:	460a      	mov	r2, r1
    5292:	4601      	mov	r1, r0
    5294:	e9cd 120a 	strd	r1, r2, [sp, #40]	; 0x28
    5298:	f04f 0800 	mov.w	r8, #0
    529c:	f04f 0900 	mov.w	r9, #0
    52a0:	4547      	cmp	r7, r8
    52a2:	dd23      	ble.n	52ec <__vfprintf+0x498>
    52a4:	e9dd 010a 	ldrd	r0, r1, [sp, #40]	; 0x28
    52a8:	e9dd bc0c 	ldrd	fp, ip, [sp, #48]	; 0x30
    52ac:	eb10 0008 	adds.w	r0, r0, r8
    52b0:	eb41 0109 	adc.w	r1, r1, r9
    52b4:	4558      	cmp	r0, fp
    52b6:	eb71 020c 	sbcs.w	r2, r1, ip
    52ba:	da12      	bge.n	52e2 <__vfprintf+0x48e>
    52bc:	68aa      	ldr	r2, [r5, #8]
    52be:	3a01      	subs	r2, #1
    52c0:	2a00      	cmp	r2, #0
    52c2:	60aa      	str	r2, [r5, #8]
    52c4:	eb03 0208 	add.w	r2, r3, r8
    52c8:	db05      	blt.n	52d6 <__vfprintf+0x482>
    52ca:	6829      	ldr	r1, [r5, #0]
    52cc:	1c48      	adds	r0, r1, #1
    52ce:	6028      	str	r0, [r5, #0]
    52d0:	7812      	ldrb	r2, [r2, #0]
    52d2:	700a      	strb	r2, [r1, #0]
    52d4:	e005      	b.n	52e2 <__vfprintf+0x48e>
    52d6:	4629      	mov	r1, r5
    52d8:	7810      	ldrb	r0, [r2, #0]
    52da:	9310      	str	r3, [sp, #64]	; 0x40
    52dc:	f000 fd86 	bl	5dec <__flsbuf>
    52e0:	9b10      	ldr	r3, [sp, #64]	; 0x40
    52e2:	f118 0801 	adds.w	r8, r8, #1
    52e6:	f149 0900 	adc.w	r9, r9, #0
    52ea:	e7d9      	b.n	52a0 <__vfprintf+0x44c>
    52ec:	9b04      	ldr	r3, [sp, #16]
    52ee:	2f00      	cmp	r7, #0
    52f0:	bfa8      	it	ge
    52f2:	19db      	addge	r3, r3, r7
    52f4:	9304      	str	r3, [sp, #16]
    52f6:	9b08      	ldr	r3, [sp, #32]
    52f8:	2b00      	cmp	r3, #0
    52fa:	f000 843b 	beq.w	5b74 <__vfprintf+0xd20>
    52fe:	9b04      	ldr	r3, [sp, #16]
    5300:	4619      	mov	r1, r3
    5302:	17da      	asrs	r2, r3, #31
    5304:	4613      	mov	r3, r2
    5306:	f04f 0800 	mov.w	r8, #0
    530a:	f04f 0900 	mov.w	r9, #0
    530e:	1e74      	subs	r4, r6, #1
    5310:	460a      	mov	r2, r1
    5312:	2720      	movs	r7, #32
    5314:	ebc8 0104 	rsb	r1, r8, r4
    5318:	2900      	cmp	r1, #0
    531a:	db20      	blt.n	535e <__vfprintf+0x50a>
    531c:	e9dd bc0c 	ldrd	fp, ip, [sp, #48]	; 0x30
    5320:	eb12 0008 	adds.w	r0, r2, r8
    5324:	eb43 0109 	adc.w	r1, r3, r9
    5328:	4558      	cmp	r0, fp
    532a:	eb71 010c 	sbcs.w	r1, r1, ip
    532e:	da11      	bge.n	5354 <__vfprintf+0x500>
    5330:	68a9      	ldr	r1, [r5, #8]
    5332:	3901      	subs	r1, #1
    5334:	2900      	cmp	r1, #0
    5336:	60a9      	str	r1, [r5, #8]
    5338:	db04      	blt.n	5344 <__vfprintf+0x4f0>
    533a:	6829      	ldr	r1, [r5, #0]
    533c:	1c48      	adds	r0, r1, #1
    533e:	6028      	str	r0, [r5, #0]
    5340:	700f      	strb	r7, [r1, #0]
    5342:	e007      	b.n	5354 <__vfprintf+0x500>
    5344:	4629      	mov	r1, r5
    5346:	2020      	movs	r0, #32
    5348:	e9cd 2308 	strd	r2, r3, [sp, #32]
    534c:	f000 fd4e 	bl	5dec <__flsbuf>
    5350:	e9dd 2308 	ldrd	r2, r3, [sp, #32]
    5354:	f118 0801 	adds.w	r8, r8, #1
    5358:	f149 0900 	adc.w	r9, r9, #0
    535c:	e7da      	b.n	5314 <__vfprintf+0x4c0>
    535e:	9b04      	ldr	r3, [sp, #16]
    5360:	2e00      	cmp	r6, #0
    5362:	bfa8      	it	ge
    5364:	199b      	addge	r3, r3, r6
    5366:	f000 bc02 	b.w	5b6e <__vfprintf+0xd1a>
    536a:	0660      	lsls	r0, r4, #25
    536c:	d509      	bpl.n	5382 <__vfprintf+0x52e>
    536e:	f108 0807 	add.w	r8, r8, #7
    5372:	f028 0807 	bic.w	r8, r8, #7
    5376:	f108 0308 	add.w	r3, r8, #8
    537a:	9307      	str	r3, [sp, #28]
    537c:	e9d8 bc00 	ldrd	fp, ip, [r8]
    5380:	e007      	b.n	5392 <__vfprintf+0x53e>
    5382:	f8d8 2000 	ldr.w	r2, [r8]
    5386:	f108 0304 	add.w	r3, r8, #4
    538a:	9307      	str	r3, [sp, #28]
    538c:	4693      	mov	fp, r2
    538e:	f04f 0c00 	mov.w	ip, #0
    5392:	0621      	lsls	r1, r4, #24
    5394:	d502      	bpl.n	539c <__vfprintf+0x548>
    5396:	fa1f fb8b 	uxth.w	fp, fp
    539a:	e003      	b.n	53a4 <__vfprintf+0x550>
    539c:	05e2      	lsls	r2, r4, #23
    539e:	d503      	bpl.n	53a8 <__vfprintf+0x554>
    53a0:	f00b 0bff 	and.w	fp, fp, #255	; 0xff
    53a4:	f04f 0c00 	mov.w	ip, #0
    53a8:	4940      	ldr	r1, [pc, #256]	; (54ac <__vfprintf+0x658>)
    53aa:	4841      	ldr	r0, [pc, #260]	; (54b0 <__vfprintf+0x65c>)
    53ac:	f014 0f08 	tst.w	r4, #8
    53b0:	bf08      	it	eq
    53b2:	4608      	moveq	r0, r1
    53b4:	06e3      	lsls	r3, r4, #27
    53b6:	f140 80f5 	bpl.w	55a4 <__vfprintf+0x750>
    53ba:	f424 7400 	bic.w	r4, r4, #512	; 0x200
    53be:	e0f1      	b.n	55a4 <__vfprintf+0x750>
    53c0:	0666      	lsls	r6, r4, #25
    53c2:	d509      	bpl.n	53d8 <__vfprintf+0x584>
    53c4:	f108 0807 	add.w	r8, r8, #7
    53c8:	f028 0807 	bic.w	r8, r8, #7
    53cc:	f108 0308 	add.w	r3, r8, #8
    53d0:	9307      	str	r3, [sp, #28]
    53d2:	e9d8 bc00 	ldrd	fp, ip, [r8]
    53d6:	e007      	b.n	53e8 <__vfprintf+0x594>
    53d8:	f8d8 2000 	ldr.w	r2, [r8]
    53dc:	f108 0304 	add.w	r3, r8, #4
    53e0:	9307      	str	r3, [sp, #28]
    53e2:	4693      	mov	fp, r2
    53e4:	f04f 0c00 	mov.w	ip, #0
    53e8:	0620      	lsls	r0, r4, #24
    53ea:	d502      	bpl.n	53f2 <__vfprintf+0x59e>
    53ec:	fa1f fb8b 	uxth.w	fp, fp
    53f0:	e003      	b.n	53fa <__vfprintf+0x5a6>
    53f2:	05e1      	lsls	r1, r4, #23
    53f4:	d503      	bpl.n	53fe <__vfprintf+0x5aa>
    53f6:	f00b 0bff 	and.w	fp, fp, #255	; 0xff
    53fa:	f04f 0c00 	mov.w	ip, #0
    53fe:	492b      	ldr	r1, [pc, #172]	; (54ac <__vfprintf+0x658>)
    5400:	482c      	ldr	r0, [pc, #176]	; (54b4 <__vfprintf+0x660>)
    5402:	f014 0f08 	tst.w	r4, #8
    5406:	bf08      	it	eq
    5408:	4608      	moveq	r0, r1
    540a:	06e2      	lsls	r2, r4, #27
    540c:	f140 80cc 	bpl.w	55a8 <__vfprintf+0x754>
    5410:	f424 7400 	bic.w	r4, r4, #512	; 0x200
    5414:	e0c8      	b.n	55a8 <__vfprintf+0x754>
    5416:	f8d8 2000 	ldr.w	r2, [r8]
    541a:	4927      	ldr	r1, [pc, #156]	; (54b8 <__vfprintf+0x664>)
    541c:	4825      	ldr	r0, [pc, #148]	; (54b4 <__vfprintf+0x660>)
    541e:	f108 0304 	add.w	r3, r8, #4
    5422:	9307      	str	r3, [sp, #28]
    5424:	4693      	mov	fp, r2
    5426:	f04f 0c00 	mov.w	ip, #0
    542a:	e0c0      	b.n	55ae <__vfprintf+0x75a>
    542c:	0663      	lsls	r3, r4, #25
    542e:	d509      	bpl.n	5444 <__vfprintf+0x5f0>
    5430:	f108 0807 	add.w	r8, r8, #7
    5434:	f028 0807 	bic.w	r8, r8, #7
    5438:	f108 0308 	add.w	r3, r8, #8
    543c:	9307      	str	r3, [sp, #28]
    543e:	e9d8 bc00 	ldrd	fp, ip, [r8]
    5442:	e007      	b.n	5454 <__vfprintf+0x600>
    5444:	f8d8 2000 	ldr.w	r2, [r8]
    5448:	f108 0304 	add.w	r3, r8, #4
    544c:	9307      	str	r3, [sp, #28]
    544e:	4693      	mov	fp, r2
    5450:	f04f 0c00 	mov.w	ip, #0
    5454:	0626      	lsls	r6, r4, #24
    5456:	d502      	bpl.n	545e <__vfprintf+0x60a>
    5458:	fa1f fb8b 	uxth.w	fp, fp
    545c:	e003      	b.n	5466 <__vfprintf+0x612>
    545e:	05e0      	lsls	r0, r4, #23
    5460:	d503      	bpl.n	546a <__vfprintf+0x616>
    5462:	f00b 0bff 	and.w	fp, fp, #255	; 0xff
    5466:	f04f 0c00 	mov.w	ip, #0
    546a:	f014 0f08 	tst.w	r4, #8
    546e:	490f      	ldr	r1, [pc, #60]	; (54ac <__vfprintf+0x658>)
    5470:	4812      	ldr	r0, [pc, #72]	; (54bc <__vfprintf+0x668>)
    5472:	e05e      	b.n	5532 <__vfprintf+0x6de>
    5474:	0661      	lsls	r1, r4, #25
    5476:	d509      	bpl.n	548c <__vfprintf+0x638>
    5478:	f108 0807 	add.w	r8, r8, #7
    547c:	f028 0807 	bic.w	r8, r8, #7
    5480:	f108 0308 	add.w	r3, r8, #8
    5484:	9307      	str	r3, [sp, #28]
    5486:	e9d8 bc00 	ldrd	fp, ip, [r8]
    548a:	e007      	b.n	549c <__vfprintf+0x648>
    548c:	f8d8 2000 	ldr.w	r2, [r8]
    5490:	f108 0304 	add.w	r3, r8, #4
    5494:	9307      	str	r3, [sp, #28]
    5496:	4693      	mov	fp, r2
    5498:	f04f 0c00 	mov.w	ip, #0
    549c:	0622      	lsls	r2, r4, #24
    549e:	d50f      	bpl.n	54c0 <__vfprintf+0x66c>
    54a0:	fa1f fb8b 	uxth.w	fp, fp
    54a4:	e010      	b.n	54c8 <__vfprintf+0x674>
    54a6:	bf00      	nop
    54a8:	0001c5a8 	.word	0x0001c5a8
    54ac:	0001c5ff 	.word	0x0001c5ff
    54b0:	0001c5af 	.word	0x0001c5af
    54b4:	0001c5b2 	.word	0x0001c5b2
    54b8:	0001c5c8 	.word	0x0001c5c8
    54bc:	0001c5b5 	.word	0x0001c5b5
    54c0:	05e3      	lsls	r3, r4, #23
    54c2:	d503      	bpl.n	54cc <__vfprintf+0x678>
    54c4:	f00b 0bff 	and.w	fp, fp, #255	; 0xff
    54c8:	f04f 0c00 	mov.w	ip, #0
    54cc:	f014 0110 	ands.w	r1, r4, #16
    54d0:	d06c      	beq.n	55ac <__vfprintf+0x758>
    54d2:	f424 7400 	bic.w	r4, r4, #512	; 0x200
    54d6:	2100      	movs	r1, #0
    54d8:	e068      	b.n	55ac <__vfprintf+0x758>
    54da:	0666      	lsls	r6, r4, #25
    54dc:	d509      	bpl.n	54f2 <__vfprintf+0x69e>
    54de:	f108 0807 	add.w	r8, r8, #7
    54e2:	f028 0807 	bic.w	r8, r8, #7
    54e6:	f108 0308 	add.w	r3, r8, #8
    54ea:	9307      	str	r3, [sp, #28]
    54ec:	e9d8 2300 	ldrd	r2, r3, [r8]
    54f0:	e005      	b.n	54fe <__vfprintf+0x6aa>
    54f2:	f8d8 2000 	ldr.w	r2, [r8]
    54f6:	f108 0304 	add.w	r3, r8, #4
    54fa:	9307      	str	r3, [sp, #28]
    54fc:	17d3      	asrs	r3, r2, #31
    54fe:	0620      	lsls	r0, r4, #24
    5500:	d501      	bpl.n	5506 <__vfprintf+0x6b2>
    5502:	b212      	sxth	r2, r2
    5504:	e002      	b.n	550c <__vfprintf+0x6b8>
    5506:	05e1      	lsls	r1, r4, #23
    5508:	d501      	bpl.n	550e <__vfprintf+0x6ba>
    550a:	b252      	sxtb	r2, r2
    550c:	17d3      	asrs	r3, r2, #31
    550e:	2a00      	cmp	r2, #0
    5510:	f173 0100 	sbcs.w	r1, r3, #0
    5514:	da05      	bge.n	5522 <__vfprintf+0x6ce>
    5516:	f1d2 0b00 	rsbs	fp, r2, #0
    551a:	eb63 0c43 	sbc.w	ip, r3, r3, lsl #1
    551e:	48b2      	ldr	r0, [pc, #712]	; (57e8 <__vfprintf+0x994>)
    5520:	e00b      	b.n	553a <__vfprintf+0x6e6>
    5522:	4693      	mov	fp, r2
    5524:	07a2      	lsls	r2, r4, #30
    5526:	469c      	mov	ip, r3
    5528:	d406      	bmi.n	5538 <__vfprintf+0x6e4>
    552a:	49b0      	ldr	r1, [pc, #704]	; (57ec <__vfprintf+0x998>)
    552c:	48b0      	ldr	r0, [pc, #704]	; (57f0 <__vfprintf+0x99c>)
    552e:	f014 0f04 	tst.w	r4, #4
    5532:	bf08      	it	eq
    5534:	4608      	moveq	r0, r1
    5536:	e000      	b.n	553a <__vfprintf+0x6e6>
    5538:	48ae      	ldr	r0, [pc, #696]	; (57f4 <__vfprintf+0x9a0>)
    553a:	f014 0110 	ands.w	r1, r4, #16
    553e:	d036      	beq.n	55ae <__vfprintf+0x75a>
    5540:	f424 7400 	bic.w	r4, r4, #512	; 0x200
    5544:	2100      	movs	r1, #0
    5546:	e032      	b.n	55ae <__vfprintf+0x75a>
    5548:	06e3      	lsls	r3, r4, #27
    554a:	bf5e      	ittt	pl
    554c:	230d      	movpl	r3, #13
    554e:	f044 0410 	orrpl.w	r4, r4, #16
    5552:	9308      	strpl	r3, [sp, #32]
    5554:	f014 0f10 	tst.w	r4, #16
    5558:	f108 0807 	add.w	r8, r8, #7
    555c:	9a08      	ldr	r2, [sp, #32]
    555e:	f028 0807 	bic.w	r8, r8, #7
    5562:	bf08      	it	eq
    5564:	2206      	moveq	r2, #6
    5566:	9208      	str	r2, [sp, #32]
    5568:	f014 0120 	ands.w	r1, r4, #32
    556c:	f108 0208 	add.w	r2, r8, #8
    5570:	f444 6380 	orr.w	r3, r4, #1024	; 0x400
    5574:	9207      	str	r2, [sp, #28]
    5576:	d00a      	beq.n	558e <__vfprintf+0x73a>
    5578:	e9d8 0100 	ldrd	r0, r1, [r8]
    557c:	461c      	mov	r4, r3
    557e:	e9cd 0126 	strd	r0, r1, [sp, #152]	; 0x98
    5582:	f04f 0b00 	mov.w	fp, #0
    5586:	f04f 0c00 	mov.w	ip, #0
    558a:	2100      	movs	r1, #0
    558c:	e008      	b.n	55a0 <__vfprintf+0x74c>
    558e:	e9d8 8900 	ldrd	r8, r9, [r8]
    5592:	e9cd 8926 	strd	r8, r9, [sp, #152]	; 0x98
    5596:	461c      	mov	r4, r3
    5598:	f04f 0b00 	mov.w	fp, #0
    559c:	f04f 0c00 	mov.w	ip, #0
    55a0:	4608      	mov	r0, r1
    55a2:	e004      	b.n	55ae <__vfprintf+0x75a>
    55a4:	4994      	ldr	r1, [pc, #592]	; (57f8 <__vfprintf+0x9a4>)
    55a6:	e002      	b.n	55ae <__vfprintf+0x75a>
    55a8:	4994      	ldr	r1, [pc, #592]	; (57fc <__vfprintf+0x9a8>)
    55aa:	e000      	b.n	55ae <__vfprintf+0x75a>
    55ac:	488f      	ldr	r0, [pc, #572]	; (57ec <__vfprintf+0x998>)
    55ae:	9e04      	ldr	r6, [sp, #16]
    55b0:	9023      	str	r0, [sp, #140]	; 0x8c
    55b2:	e9dd 230c 	ldrd	r2, r3, [sp, #48]	; 0x30
    55b6:	1b92      	subs	r2, r2, r6
    55b8:	eb63 73e6 	sbc.w	r3, r3, r6, asr #31
    55bc:	f04f 30ff 	mov.w	r0, #4294967295
    55c0:	e9cd 230a 	strd	r2, r3, [sp, #40]	; 0x28
    55c4:	9b08      	ldr	r3, [sp, #32]
    55c6:	9024      	str	r0, [sp, #144]	; 0x90
    55c8:	9025      	str	r0, [sp, #148]	; 0x94
    55ca:	9322      	str	r3, [sp, #136]	; 0x88
    55cc:	2000      	movs	r0, #0
    55ce:	ae28      	add	r6, sp, #160	; 0xa0
    55d0:	f04f 0355 	mov.w	r3, #85	; 0x55
    55d4:	5583      	strb	r3, [r0, r6]
    55d6:	3001      	adds	r0, #1
    55d8:	2820      	cmp	r0, #32
    55da:	d1f8      	bne.n	55ce <__vfprintf+0x77a>
    55dc:	f414 6f82 	tst.w	r4, #1040	; 0x410
    55e0:	bf04      	itt	eq
    55e2:	2001      	moveq	r0, #1
    55e4:	9022      	streq	r0, [sp, #136]	; 0x88
    55e6:	2f67      	cmp	r7, #103	; 0x67
    55e8:	dc14      	bgt.n	5614 <__vfprintf+0x7c0>
    55ea:	2f65      	cmp	r7, #101	; 0x65
    55ec:	f280 80bc 	bge.w	5768 <__vfprintf+0x914>
    55f0:	2f47      	cmp	r7, #71	; 0x47
    55f2:	f000 80b9 	beq.w	5768 <__vfprintf+0x914>
    55f6:	dc06      	bgt.n	5606 <__vfprintf+0x7b2>
    55f8:	2f41      	cmp	r7, #65	; 0x41
    55fa:	f000 80b5 	beq.w	5768 <__vfprintf+0x914>
    55fe:	2f45      	cmp	r7, #69	; 0x45
    5600:	f040 80c2 	bne.w	5788 <__vfprintf+0x934>
    5604:	e0b0      	b.n	5768 <__vfprintf+0x914>
    5606:	2f61      	cmp	r7, #97	; 0x61
    5608:	f000 80ae 	beq.w	5768 <__vfprintf+0x914>
    560c:	2f64      	cmp	r7, #100	; 0x64
    560e:	d011      	beq.n	5634 <__vfprintf+0x7e0>
    5610:	2f58      	cmp	r7, #88	; 0x58
    5612:	e00c      	b.n	562e <__vfprintf+0x7da>
    5614:	2f70      	cmp	r7, #112	; 0x70
    5616:	d010      	beq.n	563a <__vfprintf+0x7e6>
    5618:	dc06      	bgt.n	5628 <__vfprintf+0x7d4>
    561a:	2f69      	cmp	r7, #105	; 0x69
    561c:	d00a      	beq.n	5634 <__vfprintf+0x7e0>
    561e:	2f6f      	cmp	r7, #111	; 0x6f
    5620:	f040 80b2 	bne.w	5788 <__vfprintf+0x934>
    5624:	2100      	movs	r1, #0
    5626:	e01d      	b.n	5664 <__vfprintf+0x810>
    5628:	2f75      	cmp	r7, #117	; 0x75
    562a:	d003      	beq.n	5634 <__vfprintf+0x7e0>
    562c:	2f78      	cmp	r7, #120	; 0x78
    562e:	f040 80ab 	bne.w	5788 <__vfprintf+0x934>
    5632:	e002      	b.n	563a <__vfprintf+0x7e6>
    5634:	2600      	movs	r6, #0
    5636:	270a      	movs	r7, #10
    5638:	e028      	b.n	568c <__vfprintf+0x838>
    563a:	2000      	movs	r0, #0
    563c:	ea5b 030c 	orrs.w	r3, fp, ip
    5640:	4680      	mov	r8, r0
    5642:	f000 80a3 	beq.w	578c <__vfprintf+0x938>
    5646:	f00b 060f 	and.w	r6, fp, #15
    564a:	5d8f      	ldrb	r7, [r1, r6]
    564c:	ae28      	add	r6, sp, #160	; 0xa0
    564e:	5587      	strb	r7, [r0, r6]
    5650:	ea4f 161b 	mov.w	r6, fp, lsr #4
    5654:	ea46 760c 	orr.w	r6, r6, ip, lsl #28
    5658:	ea4f 171c 	mov.w	r7, ip, lsr #4
    565c:	46b3      	mov	fp, r6
    565e:	46bc      	mov	ip, r7
    5660:	3001      	adds	r0, #1
    5662:	e7eb      	b.n	563c <__vfprintf+0x7e8>
    5664:	ea5b 030c 	orrs.w	r3, fp, ip
    5668:	4688      	mov	r8, r1
    566a:	f000 808f 	beq.w	578c <__vfprintf+0x938>
    566e:	f00b 0007 	and.w	r0, fp, #7
    5672:	ae28      	add	r6, sp, #160	; 0xa0
    5674:	3030      	adds	r0, #48	; 0x30
    5676:	5588      	strb	r0, [r1, r6]
    5678:	ea4f 00db 	mov.w	r0, fp, lsr #3
    567c:	ea40 704c 	orr.w	r0, r0, ip, lsl #29
    5680:	ea4f 06dc 	mov.w	r6, ip, lsr #3
    5684:	4683      	mov	fp, r0
    5686:	46b4      	mov	ip, r6
    5688:	3101      	adds	r1, #1
    568a:	e7eb      	b.n	5664 <__vfprintf+0x810>
    568c:	ea5b 030c 	orrs.w	r3, fp, ip
    5690:	46b0      	mov	r8, r6
    5692:	d07b      	beq.n	578c <__vfprintf+0x938>
    5694:	ea4f 039b 	mov.w	r3, fp, lsr #2
    5698:	ea43 738c 	orr.w	r3, r3, ip, lsl #30
    569c:	931a      	str	r3, [sp, #104]	; 0x68
    569e:	ea4f 039c 	mov.w	r3, ip, lsr #2
    56a2:	931b      	str	r3, [sp, #108]	; 0x6c
    56a4:	e9dd 231a 	ldrd	r2, r3, [sp, #104]	; 0x68
    56a8:	ea5f 015c 	movs.w	r1, ip, lsr #1
    56ac:	ea4f 003b 	mov.w	r0, fp, rrx
    56b0:	1812      	adds	r2, r2, r0
    56b2:	414b      	adcs	r3, r1
    56b4:	4619      	mov	r1, r3
    56b6:	0913      	lsrs	r3, r2, #4
    56b8:	ea43 7301 	orr.w	r3, r3, r1, lsl #28
    56bc:	9312      	str	r3, [sp, #72]	; 0x48
    56be:	090b      	lsrs	r3, r1, #4
    56c0:	9313      	str	r3, [sp, #76]	; 0x4c
    56c2:	4610      	mov	r0, r2
    56c4:	e9dd 2312 	ldrd	r2, r3, [sp, #72]	; 0x48
    56c8:	1812      	adds	r2, r2, r0
    56ca:	414b      	adcs	r3, r1
    56cc:	4619      	mov	r1, r3
    56ce:	0a13      	lsrs	r3, r2, #8
    56d0:	ea43 6301 	orr.w	r3, r3, r1, lsl #24
    56d4:	9314      	str	r3, [sp, #80]	; 0x50
    56d6:	0a0b      	lsrs	r3, r1, #8
    56d8:	9315      	str	r3, [sp, #84]	; 0x54
    56da:	4610      	mov	r0, r2
    56dc:	e9dd 2314 	ldrd	r2, r3, [sp, #80]	; 0x50
    56e0:	1812      	adds	r2, r2, r0
    56e2:	414b      	adcs	r3, r1
    56e4:	4619      	mov	r1, r3
    56e6:	0c13      	lsrs	r3, r2, #16
    56e8:	ea43 4301 	orr.w	r3, r3, r1, lsl #16
    56ec:	9316      	str	r3, [sp, #88]	; 0x58
    56ee:	0c0b      	lsrs	r3, r1, #16
    56f0:	9317      	str	r3, [sp, #92]	; 0x5c
    56f2:	4610      	mov	r0, r2
    56f4:	e9dd 2316 	ldrd	r2, r3, [sp, #88]	; 0x58
    56f8:	1812      	adds	r2, r2, r0
    56fa:	414b      	adcs	r3, r1
    56fc:	4619      	mov	r1, r3
    56fe:	931c      	str	r3, [sp, #112]	; 0x70
    5700:	2300      	movs	r3, #0
    5702:	931d      	str	r3, [sp, #116]	; 0x74
    5704:	4610      	mov	r0, r2
    5706:	e9dd 231c 	ldrd	r2, r3, [sp, #112]	; 0x70
    570a:	1812      	adds	r2, r2, r0
    570c:	414b      	adcs	r3, r1
    570e:	4619      	mov	r1, r3
    5710:	08d3      	lsrs	r3, r2, #3
    5712:	ea43 7341 	orr.w	r3, r3, r1, lsl #29
    5716:	930e      	str	r3, [sp, #56]	; 0x38
    5718:	08cb      	lsrs	r3, r1, #3
    571a:	930f      	str	r3, [sp, #60]	; 0x3c
    571c:	9b0e      	ldr	r3, [sp, #56]	; 0x38
    571e:	fba3 8907 	umull	r8, r9, r3, r7
    5722:	9b0f      	ldr	r3, [sp, #60]	; 0x3c
    5724:	f11b 0006 	adds.w	r0, fp, #6
    5728:	f14c 0100 	adc.w	r1, ip, #0
    572c:	fb07 9903 	mla	r9, r7, r3, r9
    5730:	ebb0 0008 	subs.w	r0, r0, r8
    5734:	eb61 0109 	sbc.w	r1, r1, r9
    5738:	0903      	lsrs	r3, r0, #4
    573a:	ea43 7301 	orr.w	r3, r3, r1, lsl #28
    573e:	9318      	str	r3, [sp, #96]	; 0x60
    5740:	090b      	lsrs	r3, r1, #4
    5742:	9319      	str	r3, [sp, #100]	; 0x64
    5744:	e9dd 2318 	ldrd	r2, r3, [sp, #96]	; 0x60
    5748:	e9dd 010e 	ldrd	r0, r1, [sp, #56]	; 0x38
    574c:	1880      	adds	r0, r0, r2
    574e:	4159      	adcs	r1, r3
    5750:	f10b 0230 	add.w	r2, fp, #48	; 0x30
    5754:	eb00 0380 	add.w	r3, r0, r0, lsl #2
    5758:	eba2 0243 	sub.w	r2, r2, r3, lsl #1
    575c:	ab28      	add	r3, sp, #160	; 0xa0
    575e:	4683      	mov	fp, r0
    5760:	54f2      	strb	r2, [r6, r3]
    5762:	468c      	mov	ip, r1
    5764:	3601      	adds	r6, #1
    5766:	e791      	b.n	568c <__vfprintf+0x838>
    5768:	ab25      	add	r3, sp, #148	; 0x94
    576a:	9303      	str	r3, [sp, #12]
    576c:	ab24      	add	r3, sp, #144	; 0x90
    576e:	9302      	str	r3, [sp, #8]
    5770:	ab22      	add	r3, sp, #136	; 0x88
    5772:	9301      	str	r3, [sp, #4]
    5774:	ab23      	add	r3, sp, #140	; 0x8c
    5776:	9300      	str	r3, [sp, #0]
    5778:	aa28      	add	r2, sp, #160	; 0xa0
    577a:	4623      	mov	r3, r4
    577c:	a926      	add	r1, sp, #152	; 0x98
    577e:	4638      	mov	r0, r7
    5780:	9e3c      	ldr	r6, [sp, #240]	; 0xf0
    5782:	47b0      	blx	r6
    5784:	4680      	mov	r8, r0
    5786:	e001      	b.n	578c <__vfprintf+0x938>
    5788:	f04f 0800 	mov.w	r8, #0
    578c:	f414 6380 	ands.w	r3, r4, #1024	; 0x400
    5790:	931e      	str	r3, [sp, #120]	; 0x78
    5792:	d00e      	beq.n	57b2 <__vfprintf+0x95e>
    5794:	2300      	movs	r3, #0
    5796:	9322      	str	r3, [sp, #136]	; 0x88
    5798:	9b24      	ldr	r3, [sp, #144]	; 0x90
    579a:	2b00      	cmp	r3, #0
    579c:	bfc4      	itt	gt
    579e:	f103 33ff 	addgt.w	r3, r3, #4294967295
    57a2:	9322      	strgt	r3, [sp, #136]	; 0x88
    57a4:	9b25      	ldr	r3, [sp, #148]	; 0x94
    57a6:	2b00      	cmp	r3, #0
    57a8:	dd09      	ble.n	57be <__vfprintf+0x96a>
    57aa:	9a22      	ldr	r2, [sp, #136]	; 0x88
    57ac:	3b01      	subs	r3, #1
    57ae:	4413      	add	r3, r2
    57b0:	e004      	b.n	57bc <__vfprintf+0x968>
    57b2:	9b22      	ldr	r3, [sp, #136]	; 0x88
    57b4:	ebb3 0308 	subs.w	r3, r3, r8
    57b8:	bf48      	it	mi
    57ba:	2300      	movmi	r3, #0
    57bc:	9322      	str	r3, [sp, #136]	; 0x88
    57be:	9e22      	ldr	r6, [sp, #136]	; 0x88
    57c0:	9823      	ldr	r0, [sp, #140]	; 0x8c
    57c2:	f000 fa29 	bl	5c18 <strlen>
    57c6:	9b10      	ldr	r3, [sp, #64]	; 0x40
    57c8:	4446      	add	r6, r8
    57ca:	1b9e      	subs	r6, r3, r6
    57cc:	f004 0301 	and.w	r3, r4, #1
    57d0:	9308      	str	r3, [sp, #32]
    57d2:	f240 2301 	movw	r3, #513	; 0x201
    57d6:	4023      	ands	r3, r4
    57d8:	1a36      	subs	r6, r6, r0
    57da:	b98b      	cbnz	r3, 5800 <__vfprintf+0x9ac>
    57dc:	2200      	movs	r2, #0
    57de:	2300      	movs	r3, #0
    57e0:	1e77      	subs	r7, r6, #1
    57e2:	f04f 0920 	mov.w	r9, #32
    57e6:	e01d      	b.n	5824 <__vfprintf+0x9d0>
    57e8:	0001c5a2 	.word	0x0001c5a2
    57ec:	0001c5ff 	.word	0x0001c5ff
    57f0:	0001c572 	.word	0x0001c572
    57f4:	0001c570 	.word	0x0001c570
    57f8:	0001c5b7 	.word	0x0001c5b7
    57fc:	0001c5c8 	.word	0x0001c5c8
    5800:	f04f 0900 	mov.w	r9, #0
    5804:	4648      	mov	r0, r9
    5806:	17c1      	asrs	r1, r0, #31
    5808:	2200      	movs	r2, #0
    580a:	2300      	movs	r3, #0
    580c:	e9cd 0110 	strd	r0, r1, [sp, #64]	; 0x40
    5810:	e032      	b.n	5878 <__vfprintf+0xa24>
    5812:	e9dd 010a 	ldrd	r0, r1, [sp, #40]	; 0x28
    5816:	4282      	cmp	r2, r0
    5818:	eb73 0101 	sbcs.w	r1, r3, r1
    581c:	db06      	blt.n	582c <__vfprintf+0x9d8>
    581e:	3201      	adds	r2, #1
    5820:	f143 0300 	adc.w	r3, r3, #0
    5824:	1ab9      	subs	r1, r7, r2
    5826:	2900      	cmp	r1, #0
    5828:	daf3      	bge.n	5812 <__vfprintf+0x9be>
    582a:	e013      	b.n	5854 <__vfprintf+0xa00>
    582c:	68a9      	ldr	r1, [r5, #8]
    582e:	3901      	subs	r1, #1
    5830:	2900      	cmp	r1, #0
    5832:	60a9      	str	r1, [r5, #8]
    5834:	db05      	blt.n	5842 <__vfprintf+0x9ee>
    5836:	6829      	ldr	r1, [r5, #0]
    5838:	1c48      	adds	r0, r1, #1
    583a:	6028      	str	r0, [r5, #0]
    583c:	f881 9000 	strb.w	r9, [r1]
    5840:	e7ed      	b.n	581e <__vfprintf+0x9ca>
    5842:	4629      	mov	r1, r5
    5844:	2020      	movs	r0, #32
    5846:	e9cd 2310 	strd	r2, r3, [sp, #64]	; 0x40
    584a:	f000 facf 	bl	5dec <__flsbuf>
    584e:	e9dd 2310 	ldrd	r2, r3, [sp, #64]	; 0x40
    5852:	e7e4      	b.n	581e <__vfprintf+0x9ca>
    5854:	ea26 79e6 	bic.w	r9, r6, r6, asr #31
    5858:	ebc9 0607 	rsb	r6, r9, r7
    585c:	e7d2      	b.n	5804 <__vfprintf+0x9b0>
    585e:	e9dd 0110 	ldrd	r0, r1, [sp, #64]	; 0x40
    5862:	e9dd bc0a 	ldrd	fp, ip, [sp, #40]	; 0x28
    5866:	1880      	adds	r0, r0, r2
    5868:	4159      	adcs	r1, r3
    586a:	4558      	cmp	r0, fp
    586c:	eb71 010c 	sbcs.w	r1, r1, ip
    5870:	db0d      	blt.n	588e <__vfprintf+0xa3a>
    5872:	3201      	adds	r2, #1
    5874:	f143 0300 	adc.w	r3, r3, #0
    5878:	9923      	ldr	r1, [sp, #140]	; 0x8c
    587a:	1c48      	adds	r0, r1, #1
    587c:	9023      	str	r0, [sp, #140]	; 0x8c
    587e:	f891 e000 	ldrb.w	lr, [r1]
    5882:	eb09 0702 	add.w	r7, r9, r2
    5886:	f1be 0f00 	cmp.w	lr, #0
    588a:	d1e8      	bne.n	585e <__vfprintf+0xa0a>
    588c:	e013      	b.n	58b6 <__vfprintf+0xa62>
    588e:	68a9      	ldr	r1, [r5, #8]
    5890:	3901      	subs	r1, #1
    5892:	2900      	cmp	r1, #0
    5894:	60a9      	str	r1, [r5, #8]
    5896:	db05      	blt.n	58a4 <__vfprintf+0xa50>
    5898:	6829      	ldr	r1, [r5, #0]
    589a:	1c48      	adds	r0, r1, #1
    589c:	6028      	str	r0, [r5, #0]
    589e:	f881 e000 	strb.w	lr, [r1]
    58a2:	e7e6      	b.n	5872 <__vfprintf+0xa1e>
    58a4:	4629      	mov	r1, r5
    58a6:	4670      	mov	r0, lr
    58a8:	e9cd 2320 	strd	r2, r3, [sp, #128]	; 0x80
    58ac:	f000 fa9e 	bl	5dec <__flsbuf>
    58b0:	e9dd 2320 	ldrd	r2, r3, [sp, #128]	; 0x80
    58b4:	e7dd      	b.n	5872 <__vfprintf+0xa1e>
    58b6:	9b08      	ldr	r3, [sp, #32]
    58b8:	2b00      	cmp	r3, #0
    58ba:	d135      	bne.n	5928 <__vfprintf+0xad4>
    58bc:	4638      	mov	r0, r7
    58be:	17f9      	asrs	r1, r7, #31
    58c0:	e9cd 0110 	strd	r0, r1, [sp, #64]	; 0x40
    58c4:	f414 7f00 	tst.w	r4, #512	; 0x200
    58c8:	bf14      	ite	ne
    58ca:	f04f 0930 	movne.w	r9, #48	; 0x30
    58ce:	f04f 0920 	moveq.w	r9, #32
    58d2:	2200      	movs	r2, #0
    58d4:	2300      	movs	r3, #0
    58d6:	1e74      	subs	r4, r6, #1
    58d8:	1aa1      	subs	r1, r4, r2
    58da:	2900      	cmp	r1, #0
    58dc:	db20      	blt.n	5920 <__vfprintf+0xacc>
    58de:	e9dd 0110 	ldrd	r0, r1, [sp, #64]	; 0x40
    58e2:	e9dd bc0a 	ldrd	fp, ip, [sp, #40]	; 0x28
    58e6:	1880      	adds	r0, r0, r2
    58e8:	4159      	adcs	r1, r3
    58ea:	4558      	cmp	r0, fp
    58ec:	eb71 010c 	sbcs.w	r1, r1, ip
    58f0:	da12      	bge.n	5918 <__vfprintf+0xac4>
    58f2:	68a9      	ldr	r1, [r5, #8]
    58f4:	3901      	subs	r1, #1
    58f6:	2900      	cmp	r1, #0
    58f8:	60a9      	str	r1, [r5, #8]
    58fa:	db05      	blt.n	5908 <__vfprintf+0xab4>
    58fc:	6829      	ldr	r1, [r5, #0]
    58fe:	1c48      	adds	r0, r1, #1
    5900:	6028      	str	r0, [r5, #0]
    5902:	f881 9000 	strb.w	r9, [r1]
    5906:	e007      	b.n	5918 <__vfprintf+0xac4>
    5908:	4629      	mov	r1, r5
    590a:	4648      	mov	r0, r9
    590c:	e9cd 2320 	strd	r2, r3, [sp, #128]	; 0x80
    5910:	f000 fa6c 	bl	5dec <__flsbuf>
    5914:	e9dd 2320 	ldrd	r2, r3, [sp, #128]	; 0x80
    5918:	3201      	adds	r2, #1
    591a:	f143 0300 	adc.w	r3, r3, #0
    591e:	e7db      	b.n	58d8 <__vfprintf+0xa84>
    5920:	ea26 76e6 	bic.w	r6, r6, r6, asr #31
    5924:	4437      	add	r7, r6
    5926:	1ba6      	subs	r6, r4, r6
    5928:	9b1e      	ldr	r3, [sp, #120]	; 0x78
    592a:	b943      	cbnz	r3, 593e <__vfprintf+0xaea>
    592c:	4638      	mov	r0, r7
    592e:	17f9      	asrs	r1, r7, #31
    5930:	2200      	movs	r2, #0
    5932:	2300      	movs	r3, #0
    5934:	e9cd 0110 	strd	r0, r1, [sp, #64]	; 0x40
    5938:	f04f 0930 	mov.w	r9, #48	; 0x30
    593c:	e08f      	b.n	5a5e <__vfprintf+0xc0a>
    593e:	2400      	movs	r4, #0
    5940:	45a0      	cmp	r8, r4
    5942:	f340 80df 	ble.w	5b04 <__vfprintf+0xcb0>
    5946:	ab28      	add	r3, sp, #160	; 0xa0
    5948:	5ce0      	ldrb	r0, [r4, r3]
    594a:	283c      	cmp	r0, #60	; 0x3c
    594c:	d008      	beq.n	5960 <__vfprintf+0xb0c>
    594e:	283e      	cmp	r0, #62	; 0x3e
    5950:	d15f      	bne.n	5a12 <__vfprintf+0xbbe>
    5952:	4638      	mov	r0, r7
    5954:	17f9      	asrs	r1, r7, #31
    5956:	2200      	movs	r2, #0
    5958:	2300      	movs	r3, #0
    595a:	e9cd 0110 	strd	r0, r1, [sp, #64]	; 0x40
    595e:	e03b      	b.n	59d8 <__vfprintf+0xb84>
    5960:	4638      	mov	r0, r7
    5962:	17f9      	asrs	r1, r7, #31
    5964:	e9cd 0110 	strd	r0, r1, [sp, #64]	; 0x40
    5968:	2200      	movs	r2, #0
    596a:	2300      	movs	r3, #0
    596c:	9924      	ldr	r1, [sp, #144]	; 0x90
    596e:	3901      	subs	r1, #1
    5970:	2900      	cmp	r1, #0
    5972:	eb07 0902 	add.w	r9, r7, r2
    5976:	9124      	str	r1, [sp, #144]	; 0x90
    5978:	db61      	blt.n	5a3e <__vfprintf+0xbea>
    597a:	e9dd 0110 	ldrd	r0, r1, [sp, #64]	; 0x40
    597e:	e9dd bc0a 	ldrd	fp, ip, [sp, #40]	; 0x28
    5982:	1880      	adds	r0, r0, r2
    5984:	4159      	adcs	r1, r3
    5986:	4558      	cmp	r0, fp
    5988:	eb71 010c 	sbcs.w	r1, r1, ip
    598c:	da13      	bge.n	59b6 <__vfprintf+0xb62>
    598e:	68a9      	ldr	r1, [r5, #8]
    5990:	3901      	subs	r1, #1
    5992:	2900      	cmp	r1, #0
    5994:	60a9      	str	r1, [r5, #8]
    5996:	db06      	blt.n	59a6 <__vfprintf+0xb52>
    5998:	6829      	ldr	r1, [r5, #0]
    599a:	1c48      	adds	r0, r1, #1
    599c:	6028      	str	r0, [r5, #0]
    599e:	f04f 0030 	mov.w	r0, #48	; 0x30
    59a2:	7008      	strb	r0, [r1, #0]
    59a4:	e007      	b.n	59b6 <__vfprintf+0xb62>
    59a6:	4629      	mov	r1, r5
    59a8:	2030      	movs	r0, #48	; 0x30
    59aa:	e9cd 231e 	strd	r2, r3, [sp, #120]	; 0x78
    59ae:	f000 fa1d 	bl	5dec <__flsbuf>
    59b2:	e9dd 231e 	ldrd	r2, r3, [sp, #120]	; 0x78
    59b6:	3201      	adds	r2, #1
    59b8:	f143 0300 	adc.w	r3, r3, #0
    59bc:	e7d6      	b.n	596c <__vfprintf+0xb18>
    59be:	e9dd 0110 	ldrd	r0, r1, [sp, #64]	; 0x40
    59c2:	e9dd bc0a 	ldrd	fp, ip, [sp, #40]	; 0x28
    59c6:	1880      	adds	r0, r0, r2
    59c8:	4159      	adcs	r1, r3
    59ca:	4558      	cmp	r0, fp
    59cc:	eb71 010c 	sbcs.w	r1, r1, ip
    59d0:	db0a      	blt.n	59e8 <__vfprintf+0xb94>
    59d2:	3201      	adds	r2, #1
    59d4:	f143 0300 	adc.w	r3, r3, #0
    59d8:	9925      	ldr	r1, [sp, #148]	; 0x94
    59da:	3901      	subs	r1, #1
    59dc:	2900      	cmp	r1, #0
    59de:	eb07 0902 	add.w	r9, r7, r2
    59e2:	9125      	str	r1, [sp, #148]	; 0x94
    59e4:	daeb      	bge.n	59be <__vfprintf+0xb6a>
    59e6:	e02a      	b.n	5a3e <__vfprintf+0xbea>
    59e8:	68a9      	ldr	r1, [r5, #8]
    59ea:	3901      	subs	r1, #1
    59ec:	2900      	cmp	r1, #0
    59ee:	60a9      	str	r1, [r5, #8]
    59f0:	db06      	blt.n	5a00 <__vfprintf+0xbac>
    59f2:	6829      	ldr	r1, [r5, #0]
    59f4:	1c48      	adds	r0, r1, #1
    59f6:	6028      	str	r0, [r5, #0]
    59f8:	f04f 0030 	mov.w	r0, #48	; 0x30
    59fc:	7008      	strb	r0, [r1, #0]
    59fe:	e7e8      	b.n	59d2 <__vfprintf+0xb7e>
    5a00:	4629      	mov	r1, r5
    5a02:	2030      	movs	r0, #48	; 0x30
    5a04:	e9cd 231e 	strd	r2, r3, [sp, #120]	; 0x78
    5a08:	f000 f9f0 	bl	5dec <__flsbuf>
    5a0c:	e9dd 231e 	ldrd	r2, r3, [sp, #120]	; 0x78
    5a10:	e7df      	b.n	59d2 <__vfprintf+0xb7e>
    5a12:	e9dd bc0a 	ldrd	fp, ip, [sp, #40]	; 0x28
    5a16:	17fb      	asrs	r3, r7, #31
    5a18:	455f      	cmp	r7, fp
    5a1a:	eb73 030c 	sbcs.w	r3, r3, ip
    5a1e:	f107 0901 	add.w	r9, r7, #1
    5a22:	da0c      	bge.n	5a3e <__vfprintf+0xbea>
    5a24:	68ab      	ldr	r3, [r5, #8]
    5a26:	3b01      	subs	r3, #1
    5a28:	2b00      	cmp	r3, #0
    5a2a:	60ab      	str	r3, [r5, #8]
    5a2c:	db04      	blt.n	5a38 <__vfprintf+0xbe4>
    5a2e:	682b      	ldr	r3, [r5, #0]
    5a30:	1c5a      	adds	r2, r3, #1
    5a32:	602a      	str	r2, [r5, #0]
    5a34:	7018      	strb	r0, [r3, #0]
    5a36:	e002      	b.n	5a3e <__vfprintf+0xbea>
    5a38:	4629      	mov	r1, r5
    5a3a:	f000 f9d7 	bl	5dec <__flsbuf>
    5a3e:	3401      	adds	r4, #1
    5a40:	464f      	mov	r7, r9
    5a42:	e77d      	b.n	5940 <__vfprintf+0xaec>
    5a44:	e9dd 0110 	ldrd	r0, r1, [sp, #64]	; 0x40
    5a48:	e9dd bc0a 	ldrd	fp, ip, [sp, #40]	; 0x28
    5a4c:	1880      	adds	r0, r0, r2
    5a4e:	4159      	adcs	r1, r3
    5a50:	4558      	cmp	r0, fp
    5a52:	eb71 010c 	sbcs.w	r1, r1, ip
    5a56:	db0a      	blt.n	5a6e <__vfprintf+0xc1a>
    5a58:	3201      	adds	r2, #1
    5a5a:	f143 0300 	adc.w	r3, r3, #0
    5a5e:	9922      	ldr	r1, [sp, #136]	; 0x88
    5a60:	3901      	subs	r1, #1
    5a62:	2900      	cmp	r1, #0
    5a64:	eb07 0402 	add.w	r4, r7, r2
    5a68:	9122      	str	r1, [sp, #136]	; 0x88
    5a6a:	daeb      	bge.n	5a44 <__vfprintf+0xbf0>
    5a6c:	e013      	b.n	5a96 <__vfprintf+0xc42>
    5a6e:	68a9      	ldr	r1, [r5, #8]
    5a70:	3901      	subs	r1, #1
    5a72:	2900      	cmp	r1, #0
    5a74:	60a9      	str	r1, [r5, #8]
    5a76:	db05      	blt.n	5a84 <__vfprintf+0xc30>
    5a78:	6829      	ldr	r1, [r5, #0]
    5a7a:	1c48      	adds	r0, r1, #1
    5a7c:	6028      	str	r0, [r5, #0]
    5a7e:	f881 9000 	strb.w	r9, [r1]
    5a82:	e7e9      	b.n	5a58 <__vfprintf+0xc04>
    5a84:	4629      	mov	r1, r5
    5a86:	2030      	movs	r0, #48	; 0x30
    5a88:	e9cd 231e 	strd	r2, r3, [sp, #120]	; 0x78
    5a8c:	f000 f9ae 	bl	5dec <__flsbuf>
    5a90:	e9dd 231e 	ldrd	r2, r3, [sp, #120]	; 0x78
    5a94:	e7e0      	b.n	5a58 <__vfprintf+0xc04>
    5a96:	4620      	mov	r0, r4
    5a98:	17e1      	asrs	r1, r4, #31
    5a9a:	ab30      	add	r3, sp, #192	; 0xc0
    5a9c:	e9cd 0110 	strd	r0, r1, [sp, #64]	; 0x40
    5aa0:	eb03 0708 	add.w	r7, r3, r8
    5aa4:	3f21      	subs	r7, #33	; 0x21
    5aa6:	2200      	movs	r2, #0
    5aa8:	2300      	movs	r3, #0
    5aaa:	ebc2 0108 	rsb	r1, r2, r8
    5aae:	2900      	cmp	r1, #0
    5ab0:	dd22      	ble.n	5af8 <__vfprintf+0xca4>
    5ab2:	e9dd 0110 	ldrd	r0, r1, [sp, #64]	; 0x40
    5ab6:	e9dd bc0a 	ldrd	fp, ip, [sp, #40]	; 0x28
    5aba:	1880      	adds	r0, r0, r2
    5abc:	4159      	adcs	r1, r3
    5abe:	4558      	cmp	r0, fp
    5ac0:	eb71 010c 	sbcs.w	r1, r1, ip
    5ac4:	da12      	bge.n	5aec <__vfprintf+0xc98>
    5ac6:	68a9      	ldr	r1, [r5, #8]
    5ac8:	3901      	subs	r1, #1
    5aca:	2900      	cmp	r1, #0
    5acc:	60a9      	str	r1, [r5, #8]
    5ace:	db05      	blt.n	5adc <__vfprintf+0xc88>
    5ad0:	6829      	ldr	r1, [r5, #0]
    5ad2:	1c48      	adds	r0, r1, #1
    5ad4:	6028      	str	r0, [r5, #0]
    5ad6:	7838      	ldrb	r0, [r7, #0]
    5ad8:	7008      	strb	r0, [r1, #0]
    5ada:	e007      	b.n	5aec <__vfprintf+0xc98>
    5adc:	4629      	mov	r1, r5
    5ade:	7838      	ldrb	r0, [r7, #0]
    5ae0:	e9cd 231e 	strd	r2, r3, [sp, #120]	; 0x78
    5ae4:	f000 f982 	bl	5dec <__flsbuf>
    5ae8:	e9dd 231e 	ldrd	r2, r3, [sp, #120]	; 0x78
    5aec:	3201      	adds	r2, #1
    5aee:	f107 37ff 	add.w	r7, r7, #4294967295
    5af2:	f143 0300 	adc.w	r3, r3, #0
    5af6:	e7d8      	b.n	5aaa <__vfprintf+0xc56>
    5af8:	f1b8 0f00 	cmp.w	r8, #0
    5afc:	bfac      	ite	ge
    5afe:	eb04 0708 	addge.w	r7, r4, r8
    5b02:	1c27      	addlt	r7, r4, #0
    5b04:	9b08      	ldr	r3, [sp, #32]
    5b06:	b383      	cbz	r3, 5b6a <__vfprintf+0xd16>
    5b08:	f04f 0800 	mov.w	r8, #0
    5b0c:	f04f 0900 	mov.w	r9, #0
    5b10:	1e74      	subs	r4, r6, #1
    5b12:	463a      	mov	r2, r7
    5b14:	17fb      	asrs	r3, r7, #31
    5b16:	ebc8 0104 	rsb	r1, r8, r4
    5b1a:	2900      	cmp	r1, #0
    5b1c:	db22      	blt.n	5b64 <__vfprintf+0xd10>
    5b1e:	e9dd bc0a 	ldrd	fp, ip, [sp, #40]	; 0x28
    5b22:	eb12 0008 	adds.w	r0, r2, r8
    5b26:	eb43 0109 	adc.w	r1, r3, r9
    5b2a:	4558      	cmp	r0, fp
    5b2c:	eb71 010c 	sbcs.w	r1, r1, ip
    5b30:	da13      	bge.n	5b5a <__vfprintf+0xd06>
    5b32:	68a9      	ldr	r1, [r5, #8]
    5b34:	3901      	subs	r1, #1
    5b36:	2900      	cmp	r1, #0
    5b38:	60a9      	str	r1, [r5, #8]
    5b3a:	db06      	blt.n	5b4a <__vfprintf+0xcf6>
    5b3c:	6829      	ldr	r1, [r5, #0]
    5b3e:	1c48      	adds	r0, r1, #1
    5b40:	6028      	str	r0, [r5, #0]
    5b42:	f04f 0020 	mov.w	r0, #32
    5b46:	7008      	strb	r0, [r1, #0]
    5b48:	e007      	b.n	5b5a <__vfprintf+0xd06>
    5b4a:	4629      	mov	r1, r5
    5b4c:	2020      	movs	r0, #32
    5b4e:	e9cd 2308 	strd	r2, r3, [sp, #32]
    5b52:	f000 f94b 	bl	5dec <__flsbuf>
    5b56:	e9dd 2308 	ldrd	r2, r3, [sp, #32]
    5b5a:	f118 0801 	adds.w	r8, r8, #1
    5b5e:	f149 0900 	adc.w	r9, r9, #0
    5b62:	e7d8      	b.n	5b16 <__vfprintf+0xcc2>
    5b64:	2e00      	cmp	r6, #0
    5b66:	bfa8      	it	ge
    5b68:	19bf      	addge	r7, r7, r6
    5b6a:	9b04      	ldr	r3, [sp, #16]
    5b6c:	443b      	add	r3, r7
    5b6e:	9304      	str	r3, [sp, #16]
    5b70:	e000      	b.n	5b74 <__vfprintf+0xd20>
    5b72:	9404      	str	r4, [sp, #16]
    5b74:	f8dd 801c 	ldr.w	r8, [sp, #28]
    5b78:	9c04      	ldr	r4, [sp, #16]
    5b7a:	9404      	str	r4, [sp, #16]
    5b7c:	4653      	mov	r3, sl
    5b7e:	f7ff b974 	b.w	4e6a <__vfprintf+0x16>
    5b82:	9908      	ldr	r1, [sp, #32]
    5b84:	f81a 7b01 	ldrb.w	r7, [sl], #1
    5b88:	fb02 3301 	mla	r3, r2, r1, r3
    5b8c:	9308      	str	r3, [sp, #32]
    5b8e:	f7ff b9e2 	b.w	4f56 <__vfprintf+0x102>
    5b92:	9804      	ldr	r0, [sp, #16]
    5b94:	b031      	add	sp, #196	; 0xc4
    5b96:	e8bd 8ff0 	ldmia.w	sp!, {r4, r5, r6, r7, r8, r9, sl, fp, pc}
    5b9a:	bf00      	nop

00005b9c <setvbuf>:
    5b9c:	b570      	push	{r4, r5, r6, lr}
    5b9e:	68c4      	ldr	r4, [r0, #12]
    5ba0:	07a5      	lsls	r5, r4, #30
    5ba2:	d017      	beq.n	5bd4 <setvbuf+0x38>
    5ba4:	f5b2 7f00 	cmp.w	r2, #512	; 0x200
    5ba8:	d009      	beq.n	5bbe <setvbuf+0x22>
    5baa:	f5b2 6f80 	cmp.w	r2, #1024	; 0x400
    5bae:	d003      	beq.n	5bb8 <setvbuf+0x1c>
    5bb0:	f5b2 7f80 	cmp.w	r2, #256	; 0x100
    5bb4:	d10e      	bne.n	5bd4 <setvbuf+0x38>
    5bb6:	e002      	b.n	5bbe <setvbuf+0x22>
    5bb8:	6a41      	ldr	r1, [r0, #36]	; 0x24
    5bba:	2301      	movs	r3, #1
    5bbc:	e003      	b.n	5bc6 <setvbuf+0x2a>
    5bbe:	4d06      	ldr	r5, [pc, #24]	; (5bd8 <setvbuf+0x3c>)
    5bc0:	1e5e      	subs	r6, r3, #1
    5bc2:	42ae      	cmp	r6, r5
    5bc4:	d806      	bhi.n	5bd4 <setvbuf+0x38>
    5bc6:	4322      	orrs	r2, r4
    5bc8:	6101      	str	r1, [r0, #16]
    5bca:	6001      	str	r1, [r0, #0]
    5bcc:	61c3      	str	r3, [r0, #28]
    5bce:	60c2      	str	r2, [r0, #12]
    5bd0:	2000      	movs	r0, #0
    5bd2:	bd70      	pop	{r4, r5, r6, pc}
    5bd4:	2001      	movs	r0, #1
    5bd6:	bd70      	pop	{r4, r5, r6, pc}
    5bd8:	00fffffe 	.word	0x00fffffe

00005bdc <rand>:
    5bdc:	b530      	push	{r4, r5, lr}
    5bde:	4c0b      	ldr	r4, [pc, #44]	; (5c0c <rand+0x30>)
    5be0:	490b      	ldr	r1, [pc, #44]	; (5c10 <rand+0x34>)
    5be2:	6822      	ldr	r2, [r4, #0]
    5be4:	4d0b      	ldr	r5, [pc, #44]	; (5c14 <rand+0x38>)
    5be6:	680b      	ldr	r3, [r1, #0]
    5be8:	f855 0022 	ldr.w	r0, [r5, r2, lsl #2]
    5bec:	f845 0023 	str.w	r0, [r5, r3, lsl #2]
    5bf0:	3a01      	subs	r2, #1
    5bf2:	6022      	str	r2, [r4, #0]
    5bf4:	3b01      	subs	r3, #1
    5bf6:	b912      	cbnz	r2, 5bfe <rand+0x22>
    5bf8:	2236      	movs	r2, #54	; 0x36
    5bfa:	6022      	str	r2, [r4, #0]
    5bfc:	e001      	b.n	5c02 <rand+0x26>
    5bfe:	b903      	cbnz	r3, 5c02 <rand+0x26>
    5c00:	2336      	movs	r3, #54	; 0x36
    5c02:	600b      	str	r3, [r1, #0]
    5c04:	f020 4000 	bic.w	r0, r0, #2147483648	; 0x80000000
    5c08:	bd30      	pop	{r4, r5, pc}
    5c0a:	bf00      	nop
    5c0c:	200000f0 	.word	0x200000f0
    5c10:	200000f4 	.word	0x200000f4
    5c14:	20000014 	.word	0x20000014

00005c18 <strlen>:
    5c18:	b510      	push	{r4, lr}
    5c1a:	1c42      	adds	r2, r0, #1
    5c1c:	0783      	lsls	r3, r0, #30
    5c1e:	d005      	beq.n	5c2c <strlen+0x14>
    5c20:	f810 3b01 	ldrb.w	r3, [r0], #1
    5c24:	2b00      	cmp	r3, #0
    5c26:	d1f9      	bne.n	5c1c <strlen+0x4>
    5c28:	1a80      	subs	r0, r0, r2
    5c2a:	bd10      	pop	{r4, pc}
    5c2c:	4603      	mov	r3, r0
    5c2e:	f850 1b04 	ldr.w	r1, [r0], #4
    5c32:	f1a1 3401 	sub.w	r4, r1, #16843009	; 0x1010101
    5c36:	ea24 0401 	bic.w	r4, r4, r1
    5c3a:	f014 3f80 	tst.w	r4, #2155905152	; 0x80808080
    5c3e:	d0f5      	beq.n	5c2c <strlen+0x14>
    5c40:	f011 0fff 	tst.w	r1, #255	; 0xff
    5c44:	d00a      	beq.n	5c5c <strlen+0x44>
    5c46:	f411 4f7f 	tst.w	r1, #65280	; 0xff00
    5c4a:	d005      	beq.n	5c58 <strlen+0x40>
    5c4c:	f411 0f7f 	tst.w	r1, #16711680	; 0xff0000
    5c50:	bf14      	ite	ne
    5c52:	4603      	movne	r3, r0
    5c54:	3303      	addeq	r3, #3
    5c56:	e002      	b.n	5c5e <strlen+0x46>
    5c58:	3302      	adds	r3, #2
    5c5a:	e000      	b.n	5c5e <strlen+0x46>
    5c5c:	3301      	adds	r3, #1
    5c5e:	1a98      	subs	r0, r3, r2
    5c60:	bd10      	pop	{r4, pc}
    5c62:	ffff ffff 			; <UNDEFINED> instruction: 0xffffffff
    5c66:	Address 0x00005c66 is out of bounds.


00005c68 <_sincosf>:
    5c68:	b5d0      	push	{r4, r6, r7, lr}
    5c6a:	eddf 7a3d 	vldr	s15, [pc, #244]	; 5d60 <_sincosf+0xf8>
    5c6e:	eef4 0ae7 	vcmpe.f32	s1, s15
    5c72:	eef1 fa10 	vmrs	APSR_nzcv, fpscr
    5c76:	ed2d 8b02 	vpush	{d8}
    5c7a:	4604      	mov	r4, r0
    5c7c:	db05      	blt.n	5c8a <_sincosf+0x22>
    5c7e:	4b39      	ldr	r3, [pc, #228]	; (5d64 <_sincosf+0xfc>)
    5c80:	ed9f 0a39 	vldr	s0, [pc, #228]	; 5d68 <_sincosf+0x100>
    5c84:	2221      	movs	r2, #33	; 0x21
    5c86:	601a      	str	r2, [r3, #0]
    5c88:	e063      	b.n	5d52 <_sincosf+0xea>
    5c8a:	eddf 7a38 	vldr	s15, [pc, #224]	; 5d6c <_sincosf+0x104>
    5c8e:	ed9f 7a38 	vldr	s14, [pc, #224]	; 5d70 <_sincosf+0x108>
    5c92:	ee70 0aa7 	vadd.f32	s1, s1, s15
    5c96:	eec0 7a87 	vdiv.f32	s15, s1, s14
    5c9a:	eefd 7ae7 	vcvt.s32.f32	s15, s15
    5c9e:	ee17 3a90 	vmov	r3, s15
    5ca2:	07db      	lsls	r3, r3, #31
    5ca4:	eeb8 8ae7 	vcvt.f32.s32	s16, s15
    5ca8:	bf48      	it	mi
    5caa:	4244      	negmi	r4, r0
    5cac:	b119      	cbz	r1, 5cb6 <_sincosf+0x4e>
    5cae:	eef6 7a00 	vmov.f32	s15, #96	; 0x3f000000  0.5
    5cb2:	ee38 8a67 	vsub.f32	s16, s16, s15
    5cb6:	ee10 0a10 	vmov	r0, s0
    5cba:	f001 f86b 	bl	6d94 <__aeabi_f2d>
    5cbe:	4606      	mov	r6, r0
    5cc0:	ee18 0a10 	vmov	r0, s16
    5cc4:	460f      	mov	r7, r1
    5cc6:	f001 f865 	bl	6d94 <__aeabi_f2d>
    5cca:	a323      	add	r3, pc, #140	; (adr r3, 5d58 <_sincosf+0xf0>)
    5ccc:	e9d3 2300 	ldrd	r2, r3, [r3]
    5cd0:	f000 fcc6 	bl	6660 <__aeabi_dmul>
    5cd4:	4602      	mov	r2, r0
    5cd6:	460b      	mov	r3, r1
    5cd8:	4630      	mov	r0, r6
    5cda:	4639      	mov	r1, r7
    5cdc:	f000 fde6 	bl	68ac <__aeabi_dsub>
    5ce0:	f000 ff48 	bl	6b74 <__aeabi_d2f>
    5ce4:	ee00 0a10 	vmov	s0, r0
    5ce8:	ee08 0a10 	vmov	s16, r0
    5cec:	f000 f854 	bl	5d98 <fabsf>
    5cf0:	eddf 7a20 	vldr	s15, [pc, #128]	; 5d74 <_sincosf+0x10c>
    5cf4:	eeb4 0ae7 	vcmpe.f32	s0, s15
    5cf8:	eef1 fa10 	vmrs	APSR_nzcv, fpscr
    5cfc:	db23      	blt.n	5d46 <_sincosf+0xde>
    5cfe:	ee68 7a08 	vmul.f32	s15, s16, s16
    5d02:	eddf 6a1d 	vldr	s13, [pc, #116]	; 5d78 <_sincosf+0x110>
    5d06:	ed9f 7a1d 	vldr	s14, [pc, #116]	; 5d7c <_sincosf+0x114>
    5d0a:	eea7 7aa6 	vfma.f32	s14, s15, s13
    5d0e:	eddf 6a1c 	vldr	s13, [pc, #112]	; 5d80 <_sincosf+0x118>
    5d12:	eee7 6a87 	vfma.f32	s13, s15, s14
    5d16:	ed9f 7a1b 	vldr	s14, [pc, #108]	; 5d84 <_sincosf+0x11c>
    5d1a:	eea7 7aa6 	vfma.f32	s14, s15, s13
    5d1e:	eddf 6a1a 	vldr	s13, [pc, #104]	; 5d88 <_sincosf+0x120>
    5d22:	eee7 6a87 	vfma.f32	s13, s15, s14
    5d26:	ed9f 7a19 	vldr	s14, [pc, #100]	; 5d8c <_sincosf+0x124>
    5d2a:	eea7 7aa6 	vfma.f32	s14, s15, s13
    5d2e:	eddf 6a18 	vldr	s13, [pc, #96]	; 5d90 <_sincosf+0x128>
    5d32:	eee7 6a87 	vfma.f32	s13, s15, s14
    5d36:	ed9f 7a17 	vldr	s14, [pc, #92]	; 5d94 <_sincosf+0x12c>
    5d3a:	eea7 7aa6 	vfma.f32	s14, s15, s13
    5d3e:	ee67 7a27 	vmul.f32	s15, s14, s15
    5d42:	eea8 8a27 	vfma.f32	s16, s16, s15
    5d46:	2c00      	cmp	r4, #0
    5d48:	bfb4      	ite	lt
    5d4a:	eeb1 0a48 	vneglt.f32	s0, s16
    5d4e:	eeb0 0a48 	vmovge.f32	s0, s16
    5d52:	ecbd 8b02 	vpop	{d8}
    5d56:	bdd0      	pop	{r4, r6, r7, pc}
    5d58:	54442d18 	.word	0x54442d18
    5d5c:	400921fb 	.word	0x400921fb
    5d60:	47c35000 	.word	0x47c35000
    5d64:	20000250 	.word	0x20000250
    5d68:	ff7fffff 	.word	0xff7fffff
    5d6c:	3fc90fdb 	.word	0x3fc90fdb
    5d70:	40490fdb 	.word	0x40490fdb
    5d74:	2edbe6ff 	.word	0x2edbe6ff
    5d78:	274407fb 	.word	0x274407fb
    5d7c:	ab572107 	.word	0xab572107
    5d80:	2f3091e3 	.word	0x2f3091e3
    5d84:	b2d7322a 	.word	0xb2d7322a
    5d88:	3638ef1d 	.word	0x3638ef1d
    5d8c:	b9500d01 	.word	0xb9500d01
    5d90:	3c088889 	.word	0x3c088889
    5d94:	be2aaaab 	.word	0xbe2aaaab

00005d98 <fabsf>:
    5d98:	eeb5 0ac0 	vcmpe.f32	s0, #0.0
    5d9c:	eef1 fa10 	vmrs	APSR_nzcv, fpscr
    5da0:	bf48      	it	mi
    5da2:	eeb1 0a40 	vnegmi.f32	s0, s0
    5da6:	4770      	bx	lr

00005da8 <_deferredlazyseek>:
    5da8:	68c3      	ldr	r3, [r0, #12]
    5daa:	6982      	ldr	r2, [r0, #24]
    5dac:	f023 0320 	bic.w	r3, r3, #32
    5db0:	b510      	push	{r4, lr}
    5db2:	60c3      	str	r3, [r0, #12]
    5db4:	6a43      	ldr	r3, [r0, #36]	; 0x24
    5db6:	685b      	ldr	r3, [r3, #4]
    5db8:	429a      	cmp	r2, r3
    5dba:	4604      	mov	r4, r0
    5dbc:	d00f      	beq.n	5dde <_deferredlazyseek+0x36>
    5dbe:	f000 f8ea 	bl	5f96 <_fflush>
    5dc2:	68e3      	ldr	r3, [r4, #12]
    5dc4:	6a62      	ldr	r2, [r4, #36]	; 0x24
    5dc6:	f423 5340 	bic.w	r3, r3, #12288	; 0x3000
    5dca:	f023 0310 	bic.w	r3, r3, #16
    5dce:	f043 0310 	orr.w	r3, r3, #16
    5dd2:	60e3      	str	r3, [r4, #12]
    5dd4:	6853      	ldr	r3, [r2, #4]
    5dd6:	61a3      	str	r3, [r4, #24]
    5dd8:	6923      	ldr	r3, [r4, #16]
    5dda:	6093      	str	r3, [r2, #8]
    5ddc:	6023      	str	r3, [r4, #0]
    5dde:	68e3      	ldr	r3, [r4, #12]
    5de0:	f423 4380 	bic.w	r3, r3, #16384	; 0x4000
    5de4:	f023 0340 	bic.w	r3, r3, #64	; 0x40
    5de8:	60e3      	str	r3, [r4, #12]
    5dea:	bd10      	pop	{r4, pc}

00005dec <__flsbuf>:
    5dec:	b5f8      	push	{r3, r4, r5, r6, r7, lr}
    5dee:	68cb      	ldr	r3, [r1, #12]
    5df0:	f423 2200 	bic.w	r2, r3, #524288	; 0x80000
    5df4:	069f      	lsls	r7, r3, #26
    5df6:	4606      	mov	r6, r0
    5df8:	460c      	mov	r4, r1
    5dfa:	60ca      	str	r2, [r1, #12]
    5dfc:	d502      	bpl.n	5e04 <__flsbuf+0x18>
    5dfe:	4608      	mov	r0, r1
    5e00:	f7ff ffd2 	bl	5da8 <_deferredlazyseek>
    5e04:	68a1      	ldr	r1, [r4, #8]
    5e06:	68e3      	ldr	r3, [r4, #12]
    5e08:	1c4d      	adds	r5, r1, #1
    5e0a:	da0d      	bge.n	5e28 <__flsbuf+0x3c>
    5e0c:	0598      	lsls	r0, r3, #22
    5e0e:	d40b      	bmi.n	5e28 <__flsbuf+0x3c>
    5e10:	f443 3390 	orr.w	r3, r3, #73728	; 0x12000
    5e14:	60e3      	str	r3, [r4, #12]
    5e16:	f06f 0201 	mvn.w	r2, #1
    5e1a:	6823      	ldr	r3, [r4, #0]
    5e1c:	1a52      	subs	r2, r2, r1
    5e1e:	60a2      	str	r2, [r4, #8]
    5e20:	1c5a      	adds	r2, r3, #1
    5e22:	6022      	str	r2, [r4, #0]
    5e24:	701e      	strb	r6, [r3, #0]
    5e26:	e07f      	b.n	5f28 <__flsbuf+0x13c>
    5e28:	f241 028a 	movw	r2, #4234	; 0x108a
    5e2c:	401a      	ands	r2, r3
    5e2e:	2a02      	cmp	r2, #2
    5e30:	461d      	mov	r5, r3
    5e32:	d005      	beq.n	5e40 <__flsbuf+0x54>
    5e34:	2200      	movs	r2, #0
    5e36:	f043 0380 	orr.w	r3, r3, #128	; 0x80
    5e3a:	60a2      	str	r2, [r4, #8]
    5e3c:	60e3      	str	r3, [r4, #12]
    5e3e:	e051      	b.n	5ee4 <__flsbuf+0xf8>
    5e40:	f24a 0110 	movw	r1, #40976	; 0xa010
    5e44:	4019      	ands	r1, r3
    5e46:	f5b1 4f00 	cmp.w	r1, #32768	; 0x8000
    5e4a:	d10a      	bne.n	5e62 <__flsbuf+0x76>
    5e4c:	2100      	movs	r1, #0
    5e4e:	4620      	mov	r0, r4
    5e50:	f000 fa44 	bl	62dc <fseek>
    5e54:	68e3      	ldr	r3, [r4, #12]
    5e56:	0699      	lsls	r1, r3, #26
    5e58:	d502      	bpl.n	5e60 <__flsbuf+0x74>
    5e5a:	4620      	mov	r0, r4
    5e5c:	f7ff ffa4 	bl	5da8 <_deferredlazyseek>
    5e60:	68e5      	ldr	r5, [r4, #12]
    5e62:	f445 3390 	orr.w	r3, r5, #73728	; 0x12000
    5e66:	f415 6f70 	tst.w	r5, #3840	; 0xf00
    5e6a:	60e3      	str	r3, [r4, #12]
    5e6c:	d11c      	bne.n	5ea8 <__flsbuf+0xbc>
    5e6e:	6960      	ldr	r0, [r4, #20]
    5e70:	f000 ffd8 	bl	6e24 <__sys_istty>
    5e74:	b150      	cbz	r0, 5e8c <__flsbuf+0xa0>
    5e76:	056a      	lsls	r2, r5, #21
    5e78:	d508      	bpl.n	5e8c <__flsbuf+0xa0>
    5e7a:	6a63      	ldr	r3, [r4, #36]	; 0x24
    5e7c:	6123      	str	r3, [r4, #16]
    5e7e:	6023      	str	r3, [r4, #0]
    5e80:	2301      	movs	r3, #1
    5e82:	61e3      	str	r3, [r4, #28]
    5e84:	f445 3392 	orr.w	r3, r5, #74752	; 0x12400
    5e88:	60e3      	str	r3, [r4, #12]
    5e8a:	e00d      	b.n	5ea8 <__flsbuf+0xbc>
    5e8c:	f44f 5080 	mov.w	r0, #4096	; 0x1000
    5e90:	f000 f9c6 	bl	6220 <_Csys_alloc>
    5e94:	f44f 5380 	mov.w	r3, #4096	; 0x1000
    5e98:	68e2      	ldr	r2, [r4, #12]
    5e9a:	61e3      	str	r3, [r4, #28]
    5e9c:	f445 3394 	orr.w	r3, r5, #75776	; 0x12800
    5ea0:	431a      	orrs	r2, r3
    5ea2:	6120      	str	r0, [r4, #16]
    5ea4:	6020      	str	r0, [r4, #0]
    5ea6:	60e2      	str	r2, [r4, #12]
    5ea8:	f413 6f10 	tst.w	r3, #2304	; 0x900
    5eac:	6821      	ldr	r1, [r4, #0]
    5eae:	6925      	ldr	r5, [r4, #16]
    5eb0:	d01b      	beq.n	5eea <__flsbuf+0xfe>
    5eb2:	6a63      	ldr	r3, [r4, #36]	; 0x24
    5eb4:	689b      	ldr	r3, [r3, #8]
    5eb6:	428b      	cmp	r3, r1
    5eb8:	bf2c      	ite	cs
    5eba:	ebc5 0103 	rsbcs	r1, r5, r3
    5ebe:	ebc5 0101 	rsbcc	r1, r5, r1
    5ec2:	b949      	cbnz	r1, 5ed8 <__flsbuf+0xec>
    5ec4:	6a63      	ldr	r3, [r4, #36]	; 0x24
    5ec6:	1c6a      	adds	r2, r5, #1
    5ec8:	609a      	str	r2, [r3, #8]
    5eca:	6022      	str	r2, [r4, #0]
    5ecc:	69e2      	ldr	r2, [r4, #28]
    5ece:	1e51      	subs	r1, r2, #1
    5ed0:	60a1      	str	r1, [r4, #8]
    5ed2:	60da      	str	r2, [r3, #12]
    5ed4:	702e      	strb	r6, [r5, #0]
    5ed6:	e027      	b.n	5f28 <__flsbuf+0x13c>
    5ed8:	4622      	mov	r2, r4
    5eda:	4628      	mov	r0, r5
    5edc:	f000 f8f0 	bl	60c0 <_Cwritebuf>
    5ee0:	2800      	cmp	r0, #0
    5ee2:	d0ef      	beq.n	5ec4 <__flsbuf+0xd8>
    5ee4:	f04f 30ff 	mov.w	r0, #4294967295
    5ee8:	bdf8      	pop	{r3, r4, r5, r6, r7, pc}
    5eea:	1c4a      	adds	r2, r1, #1
    5eec:	6022      	str	r2, [r4, #0]
    5eee:	700e      	strb	r6, [r1, #0]
    5ef0:	6a67      	ldr	r7, [r4, #36]	; 0x24
    5ef2:	6822      	ldr	r2, [r4, #0]
    5ef4:	68b9      	ldr	r1, [r7, #8]
    5ef6:	428a      	cmp	r2, r1
    5ef8:	bf2c      	ite	cs
    5efa:	ebc5 0102 	rsbcs	r1, r5, r2
    5efe:	ebc5 0101 	rsbcc	r1, r5, r1
    5f02:	69e2      	ldr	r2, [r4, #28]
    5f04:	60fa      	str	r2, [r7, #12]
    5f06:	055b      	lsls	r3, r3, #21
    5f08:	d404      	bmi.n	5f14 <__flsbuf+0x128>
    5f0a:	b2f0      	uxtb	r0, r6
    5f0c:	280a      	cmp	r0, #10
    5f0e:	d001      	beq.n	5f14 <__flsbuf+0x128>
    5f10:	4291      	cmp	r1, r2
    5f12:	db0a      	blt.n	5f2a <__flsbuf+0x13e>
    5f14:	2300      	movs	r3, #0
    5f16:	60bd      	str	r5, [r7, #8]
    5f18:	4622      	mov	r2, r4
    5f1a:	6025      	str	r5, [r4, #0]
    5f1c:	60a3      	str	r3, [r4, #8]
    5f1e:	4628      	mov	r0, r5
    5f20:	f000 f8ce 	bl	60c0 <_Cwritebuf>
    5f24:	2800      	cmp	r0, #0
    5f26:	d1dd      	bne.n	5ee4 <__flsbuf+0xf8>
    5f28:	b2f0      	uxtb	r0, r6
    5f2a:	bdf8      	pop	{r3, r4, r5, r6, r7, pc}

00005f2c <_fdopen>:
    5f2c:	b570      	push	{r4, r5, r6, lr}
    5f2e:	460d      	mov	r5, r1
    5f30:	4606      	mov	r6, r0
    5f32:	4610      	mov	r0, r2
    5f34:	4614      	mov	r4, r2
    5f36:	f000 f983 	bl	6240 <fclose>
    5f3a:	782b      	ldrb	r3, [r5, #0]
    5f3c:	2b72      	cmp	r3, #114	; 0x72
    5f3e:	d00a      	beq.n	5f56 <_fdopen+0x2a>
    5f40:	2b77      	cmp	r3, #119	; 0x77
    5f42:	d005      	beq.n	5f50 <_fdopen+0x24>
    5f44:	2b61      	cmp	r3, #97	; 0x61
    5f46:	d122      	bne.n	5f8e <_fdopen+0x62>
    5f48:	2308      	movs	r3, #8
    5f4a:	f248 0202 	movw	r2, #32770	; 0x8002
    5f4e:	e004      	b.n	5f5a <_fdopen+0x2e>
    5f50:	2304      	movs	r3, #4
    5f52:	2202      	movs	r2, #2
    5f54:	e001      	b.n	5f5a <_fdopen+0x2e>
    5f56:	2300      	movs	r3, #0
    5f58:	2201      	movs	r2, #1
    5f5a:	f815 1f01 	ldrb.w	r1, [r5, #1]!
    5f5e:	292b      	cmp	r1, #43	; 0x2b
    5f60:	d006      	beq.n	5f70 <_fdopen+0x44>
    5f62:	2962      	cmp	r1, #98	; 0x62
    5f64:	d109      	bne.n	5f7a <_fdopen+0x4e>
    5f66:	f042 0204 	orr.w	r2, r2, #4
    5f6a:	f043 0301 	orr.w	r3, r3, #1
    5f6e:	e7f4      	b.n	5f5a <_fdopen+0x2e>
    5f70:	f042 0203 	orr.w	r2, r2, #3
    5f74:	f043 0302 	orr.w	r3, r3, #2
    5f78:	e7ef      	b.n	5f5a <_fdopen+0x2e>
    5f7a:	071b      	lsls	r3, r3, #28
    5f7c:	60e2      	str	r2, [r4, #12]
    5f7e:	6166      	str	r6, [r4, #20]
    5f80:	d507      	bpl.n	5f92 <_fdopen+0x66>
    5f82:	2202      	movs	r2, #2
    5f84:	2100      	movs	r1, #0
    5f86:	4620      	mov	r0, r4
    5f88:	f000 f9a8 	bl	62dc <fseek>
    5f8c:	e001      	b.n	5f92 <_fdopen+0x66>
    5f8e:	2000      	movs	r0, #0
    5f90:	bd70      	pop	{r4, r5, r6, pc}
    5f92:	4620      	mov	r0, r4
    5f94:	bd70      	pop	{r4, r5, r6, pc}

00005f96 <_fflush>:
    5f96:	b538      	push	{r3, r4, r5, lr}
    5f98:	6801      	ldr	r1, [r0, #0]
    5f9a:	6a43      	ldr	r3, [r0, #36]	; 0x24
    5f9c:	6905      	ldr	r5, [r0, #16]
    5f9e:	689b      	ldr	r3, [r3, #8]
    5fa0:	4604      	mov	r4, r0
    5fa2:	68c0      	ldr	r0, [r0, #12]
    5fa4:	f420 2200 	bic.w	r2, r0, #524288	; 0x80000
    5fa8:	60e2      	str	r2, [r4, #12]
    5faa:	f000 0282 	and.w	r2, r0, #130	; 0x82
    5fae:	2a02      	cmp	r2, #2
    5fb0:	d002      	beq.n	5fb8 <_fflush+0x22>
    5fb2:	f04f 30ff 	mov.w	r0, #4294967295
    5fb6:	bd38      	pop	{r3, r4, r5, pc}
    5fb8:	f410 3080 	ands.w	r0, r0, #65536	; 0x10000
    5fbc:	d016      	beq.n	5fec <_fflush+0x56>
    5fbe:	4299      	cmp	r1, r3
    5fc0:	bf38      	it	cc
    5fc2:	4619      	movcc	r1, r3
    5fc4:	428d      	cmp	r5, r1
    5fc6:	d109      	bne.n	5fdc <_fflush+0x46>
    5fc8:	6a63      	ldr	r3, [r4, #36]	; 0x24
    5fca:	609d      	str	r5, [r3, #8]
    5fcc:	68e3      	ldr	r3, [r4, #12]
    5fce:	6025      	str	r5, [r4, #0]
    5fd0:	2000      	movs	r0, #0
    5fd2:	f423 3380 	bic.w	r3, r3, #65536	; 0x10000
    5fd6:	60a0      	str	r0, [r4, #8]
    5fd8:	60e3      	str	r3, [r4, #12]
    5fda:	bd38      	pop	{r3, r4, r5, pc}
    5fdc:	4622      	mov	r2, r4
    5fde:	1b49      	subs	r1, r1, r5
    5fe0:	4628      	mov	r0, r5
    5fe2:	f000 f86d 	bl	60c0 <_Cwritebuf>
    5fe6:	2800      	cmp	r0, #0
    5fe8:	d0ee      	beq.n	5fc8 <_fflush+0x32>
    5fea:	e7e2      	b.n	5fb2 <_fflush+0x1c>
    5fec:	bd38      	pop	{r3, r4, r5, pc}
    5fee:	Address 0x00005fee is out of bounds.


00005ff0 <_frexpl>:
    5ff0:	b5f8      	push	{r3, r4, r5, r6, r7, lr}
    5ff2:	ec57 6b10 	vmov	r6, r7, d0
    5ff6:	4605      	mov	r5, r0
    5ff8:	2200      	movs	r2, #0
    5ffa:	2300      	movs	r3, #0
    5ffc:	ee10 0a10 	vmov	r0, s0
    6000:	4639      	mov	r1, r7
    6002:	f000 fe2e 	bl	6c62 <__aeabi_dcmpeq>
    6006:	b120      	cbz	r0, 6012 <_frexpl+0x22>
    6008:	2300      	movs	r3, #0
    600a:	602b      	str	r3, [r5, #0]
    600c:	ed9f 0b12 	vldr	d0, [pc, #72]	; 6058 <_frexpl+0x68>
    6010:	bdf8      	pop	{r3, r4, r5, r6, r7, pc}
    6012:	f3c7 530a 	ubfx	r3, r7, #20, #11
    6016:	4630      	mov	r0, r6
    6018:	4639      	mov	r1, r7
    601a:	f2a3 34fe 	subw	r4, r3, #1022	; 0x3fe
    601e:	b98b      	cbnz	r3, 6044 <_frexpl+0x54>
    6020:	f3c7 0313 	ubfx	r3, r7, #0, #20
    6024:	4632      	mov	r2, r6
    6026:	0fd7      	lsrs	r7, r2, #31
    6028:	f403 2600 	and.w	r6, r3, #524288	; 0x80000
    602c:	ea47 0343 	orr.w	r3, r7, r3, lsl #1
    6030:	f3c3 0313 	ubfx	r3, r3, #0, #20
    6034:	0052      	lsls	r2, r2, #1
    6036:	b11e      	cbz	r6, 6040 <_frexpl+0x50>
    6038:	f363 0113 	bfi	r1, r3, #0, #20
    603c:	4610      	mov	r0, r2
    603e:	e001      	b.n	6044 <_frexpl+0x54>
    6040:	3c01      	subs	r4, #1
    6042:	e7f0      	b.n	6026 <_frexpl+0x36>
    6044:	f240 33fe 	movw	r3, #1022	; 0x3fe
    6048:	f363 511e 	bfi	r1, r3, #20, #11
    604c:	602c      	str	r4, [r5, #0]
    604e:	ec41 0b10 	vmov	d0, r0, r1
    6052:	bdf8      	pop	{r3, r4, r5, r6, r7, pc}
    6054:	f3af 8000 	nop.w
	...

00006060 <_ldexpl>:
    6060:	b570      	push	{r4, r5, r6, lr}
    6062:	ec55 4b10 	vmov	r4, r5, d0
    6066:	4606      	mov	r6, r0
    6068:	2200      	movs	r2, #0
    606a:	2300      	movs	r3, #0
    606c:	ee10 0a10 	vmov	r0, s0
    6070:	4629      	mov	r1, r5
    6072:	f000 fdf6 	bl	6c62 <__aeabi_dcmpeq>
    6076:	b110      	cbz	r0, 607e <_ldexpl+0x1e>
    6078:	ed9f 0b0d 	vldr	d0, [pc, #52]	; 60b0 <_ldexpl+0x50>
    607c:	bd70      	pop	{r4, r5, r6, pc}
    607e:	f3c5 530a 	ubfx	r3, r5, #20, #11
    6082:	4433      	add	r3, r6
    6084:	f240 72fe 	movw	r2, #2046	; 0x7fe
    6088:	4293      	cmp	r3, r2
    608a:	4620      	mov	r0, r4
    608c:	4629      	mov	r1, r5
    608e:	dd06      	ble.n	609e <_ldexpl+0x3e>
    6090:	4b09      	ldr	r3, [pc, #36]	; (60b8 <_ldexpl+0x58>)
    6092:	2222      	movs	r2, #34	; 0x22
    6094:	601a      	str	r2, [r3, #0]
    6096:	4b09      	ldr	r3, [pc, #36]	; (60bc <_ldexpl+0x5c>)
    6098:	ed93 0b00 	vldr	d0, [r3]
    609c:	bd70      	pop	{r4, r5, r6, pc}
    609e:	2b00      	cmp	r3, #0
    60a0:	ddea      	ble.n	6078 <_ldexpl+0x18>
    60a2:	f363 511e 	bfi	r1, r3, #20, #11
    60a6:	ec41 0b10 	vmov	d0, r0, r1
    60aa:	bd70      	pop	{r4, r5, r6, pc}
    60ac:	f3af 8000 	nop.w
	...
    60b8:	20000250 	.word	0x20000250
    60bc:	0001c5e0 	.word	0x0001c5e0

000060c0 <_Cwritebuf>:
    60c0:	e92d 41f0 	stmdb	sp!, {r4, r5, r6, r7, r8, lr}
    60c4:	68d5      	ldr	r5, [r2, #12]
    60c6:	6957      	ldr	r7, [r2, #20]
    60c8:	02eb      	lsls	r3, r5, #11
    60ca:	4680      	mov	r8, r0
    60cc:	460e      	mov	r6, r1
    60ce:	4614      	mov	r4, r2
    60d0:	d505      	bpl.n	60de <_Cwritebuf+0x1e>
    60d2:	4638      	mov	r0, r7
    60d4:	f000 fea0 	bl	6e18 <__sys_flen>
    60d8:	f045 0510 	orr.w	r5, r5, #16
    60dc:	61a0      	str	r0, [r4, #24]
    60de:	4b11      	ldr	r3, [pc, #68]	; (6124 <_Cwritebuf+0x64>)
    60e0:	402b      	ands	r3, r5
    60e2:	b153      	cbz	r3, 60fa <_Cwritebuf+0x3a>
    60e4:	69a1      	ldr	r1, [r4, #24]
    60e6:	4638      	mov	r0, r7
    60e8:	f000 fea8 	bl	6e3c <__sys_seek>
    60ec:	2800      	cmp	r0, #0
    60ee:	db10      	blt.n	6112 <_Cwritebuf+0x52>
    60f0:	f425 3500 	bic.w	r5, r5, #131072	; 0x20000
    60f4:	f025 0510 	bic.w	r5, r5, #16
    60f8:	60e5      	str	r5, [r4, #12]
    60fa:	4632      	mov	r2, r6
    60fc:	4641      	mov	r1, r8
    60fe:	4638      	mov	r0, r7
    6100:	f7fb fac0 	bl	1684 <__sys_write>
    6104:	f020 4300 	bic.w	r3, r0, #2147483648	; 0x80000000
    6108:	1af6      	subs	r6, r6, r3
    610a:	69a3      	ldr	r3, [r4, #24]
    610c:	441e      	add	r6, r3
    610e:	61a6      	str	r6, [r4, #24]
    6110:	b128      	cbz	r0, 611e <_Cwritebuf+0x5e>
    6112:	68e3      	ldr	r3, [r4, #12]
    6114:	f043 0380 	orr.w	r3, r3, #128	; 0x80
    6118:	60e3      	str	r3, [r4, #12]
    611a:	f04f 30ff 	mov.w	r0, #4294967295
    611e:	e8bd 81f0 	ldmia.w	sp!, {r4, r5, r6, r7, r8, pc}
    6122:	bf00      	nop
    6124:	00020010 	.word	0x00020010

00006128 <malloc>:
    6128:	b5f8      	push	{r3, r4, r5, r6, r7, lr}
    612a:	4f30      	ldr	r7, [pc, #192]	; (61ec <malloc+0xc4>)
    612c:	683c      	ldr	r4, [r7, #0]
    612e:	b1a0      	cbz	r0, 615a <malloc+0x32>
    6130:	1cc5      	adds	r5, r0, #3
    6132:	08ad      	lsrs	r5, r5, #2
    6134:	2600      	movs	r6, #0
    6136:	f105 0e0a 	add.w	lr, r5, #10
    613a:	f105 0c03 	add.w	ip, r5, #3
    613e:	e005      	b.n	614c <malloc+0x24>
    6140:	6823      	ldr	r3, [r4, #0]
    6142:	f1b3 5f80 	cmp.w	r3, #268435456	; 0x10000000
    6146:	d014      	beq.n	6172 <malloc+0x4a>
    6148:	4626      	mov	r6, r4
    614a:	68a4      	ldr	r4, [r4, #8]
    614c:	2c00      	cmp	r4, #0
    614e:	d1f7      	bne.n	6140 <malloc+0x18>
    6150:	300c      	adds	r0, #12
    6152:	f000 f97b 	bl	644c <_sbrk>
    6156:	1c43      	adds	r3, r0, #1
    6158:	d110      	bne.n	617c <malloc+0x54>
    615a:	2000      	movs	r0, #0
    615c:	bdf8      	pop	{r3, r4, r5, r6, r7, pc}
    615e:	6811      	ldr	r1, [r2, #0]
    6160:	f1b1 5f80 	cmp.w	r1, #268435456	; 0x10000000
    6164:	d115      	bne.n	6192 <malloc+0x6a>
    6166:	6851      	ldr	r1, [r2, #4]
    6168:	440b      	add	r3, r1
    616a:	3303      	adds	r3, #3
    616c:	6063      	str	r3, [r4, #4]
    616e:	6893      	ldr	r3, [r2, #8]
    6170:	60a3      	str	r3, [r4, #8]
    6172:	68a2      	ldr	r2, [r4, #8]
    6174:	6863      	ldr	r3, [r4, #4]
    6176:	2a00      	cmp	r2, #0
    6178:	d1f1      	bne.n	615e <malloc+0x36>
    617a:	e00a      	b.n	6192 <malloc+0x6a>
    617c:	f04f 5300 	mov.w	r3, #536870912	; 0x20000000
    6180:	e880 0028 	stmia.w	r0, {r3, r5}
    6184:	6084      	str	r4, [r0, #8]
    6186:	b90e      	cbnz	r6, 618c <malloc+0x64>
    6188:	6038      	str	r0, [r7, #0]
    618a:	e000      	b.n	618e <malloc+0x66>
    618c:	60b0      	str	r0, [r6, #8]
    618e:	300c      	adds	r0, #12
    6190:	bdf8      	pop	{r3, r4, r5, r6, r7, pc}
    6192:	429d      	cmp	r5, r3
    6194:	dc07      	bgt.n	61a6 <malloc+0x7e>
    6196:	4563      	cmp	r3, ip
    6198:	dc05      	bgt.n	61a6 <malloc+0x7e>
    619a:	4620      	mov	r0, r4
    619c:	f04f 5300 	mov.w	r3, #536870912	; 0x20000000
    61a0:	f840 3b0c 	str.w	r3, [r0], #12
    61a4:	bdf8      	pop	{r3, r4, r5, r6, r7, pc}
    61a6:	4573      	cmp	r3, lr
    61a8:	d911      	bls.n	61ce <malloc+0xa6>
    61aa:	4620      	mov	r0, r4
    61ac:	f04f 5100 	mov.w	r1, #536870912	; 0x20000000
    61b0:	6065      	str	r5, [r4, #4]
    61b2:	f840 1b0c 	str.w	r1, [r0], #12
    61b6:	eb00 0185 	add.w	r1, r0, r5, lsl #2
    61ba:	60a1      	str	r1, [r4, #8]
    61bc:	f04f 5480 	mov.w	r4, #268435456	; 0x10000000
    61c0:	f840 4025 	str.w	r4, [r0, r5, lsl #2]
    61c4:	1b5d      	subs	r5, r3, r5
    61c6:	3d03      	subs	r5, #3
    61c8:	604d      	str	r5, [r1, #4]
    61ca:	608a      	str	r2, [r1, #8]
    61cc:	bdf8      	pop	{r3, r4, r5, r6, r7, pc}
    61ce:	2a00      	cmp	r2, #0
    61d0:	d1ba      	bne.n	6148 <malloc+0x20>
    61d2:	eba0 0083 	sub.w	r0, r0, r3, lsl #2
    61d6:	f000 f939 	bl	644c <_sbrk>
    61da:	3001      	adds	r0, #1
    61dc:	d0bd      	beq.n	615a <malloc+0x32>
    61de:	f04f 5300 	mov.w	r3, #536870912	; 0x20000000
    61e2:	e884 0028 	stmia.w	r4, {r3, r5}
    61e6:	f104 000c 	add.w	r0, r4, #12
    61ea:	bdf8      	pop	{r3, r4, r5, r6, r7, pc}
    61ec:	20000254 	.word	0x20000254

000061f0 <free>:
    61f0:	b1a8      	cbz	r0, 621e <free+0x2e>
    61f2:	f04f 5380 	mov.w	r3, #268435456	; 0x10000000
    61f6:	f840 3c0c 	str.w	r3, [r0, #-12]
    61fa:	f850 2c04 	ldr.w	r2, [r0, #-4]
    61fe:	b172      	cbz	r2, 621e <free+0x2e>
    6200:	6813      	ldr	r3, [r2, #0]
    6202:	f1b3 5f80 	cmp.w	r3, #268435456	; 0x10000000
    6206:	d10a      	bne.n	621e <free+0x2e>
    6208:	6853      	ldr	r3, [r2, #4]
    620a:	f850 1c08 	ldr.w	r1, [r0, #-8]
    620e:	440b      	add	r3, r1
    6210:	3303      	adds	r3, #3
    6212:	f840 3c08 	str.w	r3, [r0, #-8]
    6216:	6893      	ldr	r3, [r2, #8]
    6218:	f840 3c04 	str.w	r3, [r0, #-4]
    621c:	e7ed      	b.n	61fa <free+0xa>
    621e:	4770      	bx	lr

00006220 <_Csys_alloc>:
    6220:	b510      	push	{r4, lr}
    6222:	f7ff ff81 	bl	6128 <malloc>
    6226:	4604      	mov	r4, r0
    6228:	b928      	cbnz	r0, 6236 <_Csys_alloc+0x16>
    622a:	2217      	movs	r2, #23
    622c:	4903      	ldr	r1, [pc, #12]	; (623c <_Csys_alloc+0x1c>)
    622e:	f7fb fa29 	bl	1684 <__sys_write>
    6232:	f000 fde5 	bl	6e00 <__exit>
    6236:	4620      	mov	r0, r4
    6238:	bd10      	pop	{r4, pc}
    623a:	bf00      	nop
    623c:	0001c5e8 	.word	0x0001c5e8

00006240 <fclose>:
    6240:	e92d 41f0 	stmdb	sp!, {r4, r5, r6, r7, r8, lr}
    6244:	68c5      	ldr	r5, [r0, #12]
    6246:	6a46      	ldr	r6, [r0, #36]	; 0x24
    6248:	07a9      	lsls	r1, r5, #30
    624a:	b088      	sub	sp, #32
    624c:	4604      	mov	r4, r0
    624e:	d028      	beq.n	62a2 <fclose+0x62>
    6250:	072a      	lsls	r2, r5, #28
    6252:	d419      	bmi.n	6288 <fclose+0x48>
    6254:	f8d0 8014 	ldr.w	r8, [r0, #20]
    6258:	6907      	ldr	r7, [r0, #16]
    625a:	f000 f827 	bl	62ac <fflush>
    625e:	4640      	mov	r0, r8
    6260:	f000 fdd4 	bl	6e0c <__sys_close>
    6264:	052b      	lsls	r3, r5, #20
    6266:	d502      	bpl.n	626e <fclose+0x2e>
    6268:	4638      	mov	r0, r7
    626a:	f7ff ffc1 	bl	61f0 <free>
    626e:	0dad      	lsrs	r5, r5, #22
    6270:	05ad      	lsls	r5, r5, #22
    6272:	f115 4fa5 	cmn.w	r5, #1384120320	; 0x52800000
    6276:	d107      	bne.n	6288 <fclose+0x48>
    6278:	2220      	movs	r2, #32
    627a:	6a21      	ldr	r1, [r4, #32]
    627c:	4668      	mov	r0, sp
    627e:	f000 fde3 	bl	6e48 <__sys_tmpnam>
    6282:	4668      	mov	r0, sp
    6284:	f000 f8d8 	bl	6438 <remove>
    6288:	2218      	movs	r2, #24
    628a:	2100      	movs	r1, #0
    628c:	6a60      	ldr	r0, [r4, #36]	; 0x24
    628e:	f7fe f843 	bl	4318 <memset>
    6292:	2228      	movs	r2, #40	; 0x28
    6294:	2100      	movs	r1, #0
    6296:	4620      	mov	r0, r4
    6298:	f7fe f83e 	bl	4318 <memset>
    629c:	6266      	str	r6, [r4, #36]	; 0x24
    629e:	2000      	movs	r0, #0
    62a0:	e001      	b.n	62a6 <fclose+0x66>
    62a2:	f04f 30ff 	mov.w	r0, #4294967295
    62a6:	b008      	add	sp, #32
    62a8:	e8bd 81f0 	ldmia.w	sp!, {r4, r5, r6, r7, r8, pc}

000062ac <fflush>:
    62ac:	b570      	push	{r4, r5, r6, lr}
    62ae:	4604      	mov	r4, r0
    62b0:	b118      	cbz	r0, 62ba <fflush+0xe>
    62b2:	e8bd 4070 	ldmia.w	sp!, {r4, r5, r6, lr}
    62b6:	f000 b8e9 	b.w	648c <_do_fflush>
    62ba:	4e07      	ldr	r6, [pc, #28]	; (62d8 <fflush+0x2c>)
    62bc:	4605      	mov	r5, r0
    62be:	1930      	adds	r0, r6, r4
    62c0:	f000 f8e4 	bl	648c <_do_fflush>
    62c4:	3428      	adds	r4, #40	; 0x28
    62c6:	2800      	cmp	r0, #0
    62c8:	bf18      	it	ne
    62ca:	f04f 35ff 	movne.w	r5, #4294967295
    62ce:	f5b4 7fa0 	cmp.w	r4, #320	; 0x140
    62d2:	d1f4      	bne.n	62be <fflush+0x12>
    62d4:	4628      	mov	r0, r5
    62d6:	bd70      	pop	{r4, r5, r6, pc}
    62d8:	20000110 	.word	0x20000110

000062dc <fseek>:
    62dc:	e92d 43f8 	stmdb	sp!, {r3, r4, r5, r6, r7, r8, r9, lr}
    62e0:	68c6      	ldr	r6, [r0, #12]
    62e2:	4b41      	ldr	r3, [pc, #260]	; (63e8 <fseek+0x10c>)
    62e4:	4033      	ands	r3, r6
    62e6:	4604      	mov	r4, r0
    62e8:	460d      	mov	r5, r1
    62ea:	4690      	mov	r8, r2
    62ec:	2b00      	cmp	r3, #0
    62ee:	d077      	beq.n	63e0 <fseek+0x104>
    62f0:	f8d0 9014 	ldr.w	r9, [r0, #20]
    62f4:	4648      	mov	r0, r9
    62f6:	f000 fd95 	bl	6e24 <__sys_istty>
    62fa:	4607      	mov	r7, r0
    62fc:	2800      	cmp	r0, #0
    62fe:	d16f      	bne.n	63e0 <fseek+0x104>
    6300:	f1b8 0f01 	cmp.w	r8, #1
    6304:	d006      	beq.n	6314 <fseek+0x38>
    6306:	f1b8 0f02 	cmp.w	r8, #2
    630a:	d008      	beq.n	631e <fseek+0x42>
    630c:	f1b8 0f00 	cmp.w	r8, #0
    6310:	d166      	bne.n	63e0 <fseek+0x104>
    6312:	e029      	b.n	6368 <fseek+0x8c>
    6314:	4620      	mov	r0, r4
    6316:	f000 f869 	bl	63ec <ftell>
    631a:	4405      	add	r5, r0
    631c:	e024      	b.n	6368 <fseek+0x8c>
    631e:	4648      	mov	r0, r9
    6320:	f000 fd7a 	bl	6e18 <__sys_flen>
    6324:	f1b0 0e00 	subs.w	lr, r0, #0
    6328:	f8d4 c00c 	ldr.w	ip, [r4, #12]
    632c:	da04      	bge.n	6338 <fseek+0x5c>
    632e:	f04c 0180 	orr.w	r1, ip, #128	; 0x80
    6332:	60e1      	str	r1, [r4, #12]
    6334:	2701      	movs	r7, #1
    6336:	e054      	b.n	63e2 <fseek+0x106>
    6338:	6a60      	ldr	r0, [r4, #36]	; 0x24
    633a:	6883      	ldr	r3, [r0, #8]
    633c:	461a      	mov	r2, r3
    633e:	69a3      	ldr	r3, [r4, #24]
    6340:	4619      	mov	r1, r3
    6342:	6823      	ldr	r3, [r4, #0]
    6344:	4293      	cmp	r3, r2
    6346:	bf2c      	ite	cs
    6348:	18c9      	addcs	r1, r1, r3
    634a:	1889      	addcc	r1, r1, r2
    634c:	6923      	ldr	r3, [r4, #16]
    634e:	f01c 0f20 	tst.w	ip, #32
    6352:	eba1 0303 	sub.w	r3, r1, r3
    6356:	d003      	beq.n	6360 <fseek+0x84>
    6358:	6842      	ldr	r2, [r0, #4]
    635a:	4293      	cmp	r3, r2
    635c:	bfb8      	it	lt
    635e:	4613      	movlt	r3, r2
    6360:	4573      	cmp	r3, lr
    6362:	bfac      	ite	ge
    6364:	18ed      	addge	r5, r5, r3
    6366:	4475      	addlt	r5, lr
    6368:	2d00      	cmp	r5, #0
    636a:	db39      	blt.n	63e0 <fseek+0x104>
    636c:	f416 5f00 	tst.w	r6, #8192	; 0x2000
    6370:	6a62      	ldr	r2, [r4, #36]	; 0x24
    6372:	d004      	beq.n	637e <fseek+0xa2>
    6374:	6823      	ldr	r3, [r4, #0]
    6376:	6891      	ldr	r1, [r2, #8]
    6378:	4299      	cmp	r1, r3
    637a:	bf38      	it	cc
    637c:	6093      	strcc	r3, [r2, #8]
    637e:	69a1      	ldr	r1, [r4, #24]
    6380:	428d      	cmp	r5, r1
    6382:	db10      	blt.n	63a6 <fseek+0xca>
    6384:	6820      	ldr	r0, [r4, #0]
    6386:	6893      	ldr	r3, [r2, #8]
    6388:	f8d4 e010 	ldr.w	lr, [r4, #16]
    638c:	4283      	cmp	r3, r0
    638e:	bf38      	it	cc
    6390:	4603      	movcc	r3, r0
    6392:	1858      	adds	r0, r3, r1
    6394:	ebce 0000 	rsb	r0, lr, r0
    6398:	4285      	cmp	r5, r0
    639a:	dc04      	bgt.n	63a6 <fseek+0xca>
    639c:	68d0      	ldr	r0, [r2, #12]
    639e:	eb01 0c00 	add.w	ip, r1, r0
    63a2:	4565      	cmp	r5, ip
    63a4:	db06      	blt.n	63b4 <fseek+0xd8>
    63a6:	2300      	movs	r3, #0
    63a8:	60a3      	str	r3, [r4, #8]
    63aa:	6063      	str	r3, [r4, #4]
    63ac:	f046 0620 	orr.w	r6, r6, #32
    63b0:	6055      	str	r5, [r2, #4]
    63b2:	e00f      	b.n	63d4 <fseek+0xf8>
    63b4:	1a6d      	subs	r5, r5, r1
    63b6:	07b1      	lsls	r1, r6, #30
    63b8:	bf44      	itt	mi
    63ba:	1a28      	submi	r0, r5, r0
    63bc:	60a0      	strmi	r0, [r4, #8]
    63be:	07f2      	lsls	r2, r6, #31
    63c0:	bf44      	itt	mi
    63c2:	ebce 0303 	rsbmi	r3, lr, r3
    63c6:	1aeb      	submi	r3, r5, r3
    63c8:	4475      	add	r5, lr
    63ca:	bf48      	it	mi
    63cc:	6063      	strmi	r3, [r4, #4]
    63ce:	6025      	str	r5, [r4, #0]
    63d0:	f026 0620 	bic.w	r6, r6, #32
    63d4:	f426 2603 	bic.w	r6, r6, #536576	; 0x83000
    63d8:	f026 0640 	bic.w	r6, r6, #64	; 0x40
    63dc:	60e6      	str	r6, [r4, #12]
    63de:	e000      	b.n	63e2 <fseek+0x106>
    63e0:	2702      	movs	r7, #2
    63e2:	4638      	mov	r0, r7
    63e4:	e8bd 83f8 	ldmia.w	sp!, {r3, r4, r5, r6, r7, r8, r9, pc}
    63e8:	00100003 	.word	0x00100003

000063ec <ftell>:
    63ec:	68c3      	ldr	r3, [r0, #12]
    63ee:	079a      	lsls	r2, r3, #30
    63f0:	d105      	bne.n	63fe <ftell+0x12>
    63f2:	4b10      	ldr	r3, [pc, #64]	; (6434 <ftell+0x48>)
    63f4:	2221      	movs	r2, #33	; 0x21
    63f6:	601a      	str	r2, [r3, #0]
    63f8:	f04f 30ff 	mov.w	r0, #4294967295
    63fc:	4770      	bx	lr
    63fe:	f413 2f00 	tst.w	r3, #524288	; 0x80000
    6402:	f003 0320 	and.w	r3, r3, #32
    6406:	d00a      	beq.n	641e <ftell+0x32>
    6408:	b113      	cbz	r3, 6410 <ftell+0x24>
    640a:	6a43      	ldr	r3, [r0, #36]	; 0x24
    640c:	6858      	ldr	r0, [r3, #4]
    640e:	e004      	b.n	641a <ftell+0x2e>
    6410:	6802      	ldr	r2, [r0, #0]
    6412:	6983      	ldr	r3, [r0, #24]
    6414:	6900      	ldr	r0, [r0, #16]
    6416:	4413      	add	r3, r2
    6418:	1a18      	subs	r0, r3, r0
    641a:	3801      	subs	r0, #1
    641c:	4770      	bx	lr
    641e:	b113      	cbz	r3, 6426 <ftell+0x3a>
    6420:	6a43      	ldr	r3, [r0, #36]	; 0x24
    6422:	6858      	ldr	r0, [r3, #4]
    6424:	4770      	bx	lr
    6426:	6802      	ldr	r2, [r0, #0]
    6428:	6983      	ldr	r3, [r0, #24]
    642a:	6900      	ldr	r0, [r0, #16]
    642c:	4413      	add	r3, r2
    642e:	1a18      	subs	r0, r3, r0
    6430:	4770      	bx	lr
    6432:	bf00      	nop
    6434:	20000250 	.word	0x20000250

00006438 <remove>:
    6438:	b510      	push	{r4, lr}
    643a:	4604      	mov	r4, r0
    643c:	f7ff fbec 	bl	5c18 <strlen>
    6440:	4601      	mov	r1, r0
    6442:	4620      	mov	r0, r4
    6444:	e8bd 4010 	ldmia.w	sp!, {r4, lr}
    6448:	f000 bcf2 	b.w	6e30 <__sys_remove>

0000644c <_sbrk>:
    644c:	b538      	push	{r3, r4, r5, lr}
    644e:	4b0c      	ldr	r3, [pc, #48]	; (6480 <_sbrk+0x34>)
    6450:	681a      	ldr	r2, [r3, #0]
    6452:	b90a      	cbnz	r2, 6458 <_sbrk+0xc>
    6454:	4a0b      	ldr	r2, [pc, #44]	; (6484 <_sbrk+0x38>)
    6456:	601a      	str	r2, [r3, #0]
    6458:	1cc4      	adds	r4, r0, #3
    645a:	681d      	ldr	r5, [r3, #0]
    645c:	f024 0403 	bic.w	r4, r4, #3
    6460:	442c      	add	r4, r5
    6462:	4620      	mov	r0, r4
    6464:	f000 f834 	bl	64d0 <__check_heap_overflow>
    6468:	b918      	cbnz	r0, 6472 <_sbrk+0x26>
    646a:	4b05      	ldr	r3, [pc, #20]	; (6480 <_sbrk+0x34>)
    646c:	4628      	mov	r0, r5
    646e:	601c      	str	r4, [r3, #0]
    6470:	bd38      	pop	{r3, r4, r5, pc}
    6472:	4b05      	ldr	r3, [pc, #20]	; (6488 <_sbrk+0x3c>)
    6474:	220c      	movs	r2, #12
    6476:	601a      	str	r2, [r3, #0]
    6478:	f04f 30ff 	mov.w	r0, #4294967295
    647c:	bd38      	pop	{r3, r4, r5, pc}
    647e:	bf00      	nop
    6480:	20000258 	.word	0x20000258
    6484:	2000a4c8 	.word	0x2000a4c8
    6488:	20000250 	.word	0x20000250

0000648c <_do_fflush>:
    648c:	68c2      	ldr	r2, [r0, #12]
    648e:	f012 0303 	ands.w	r3, r2, #3
    6492:	b570      	push	{r4, r5, r6, lr}
    6494:	4604      	mov	r4, r0
    6496:	d019      	beq.n	64cc <_do_fflush+0x40>
    6498:	0693      	lsls	r3, r2, #26
    649a:	d504      	bpl.n	64a6 <_do_fflush+0x1a>
    649c:	6a43      	ldr	r3, [r0, #36]	; 0x24
    649e:	685d      	ldr	r5, [r3, #4]
    64a0:	f7ff fc82 	bl	5da8 <_deferredlazyseek>
    64a4:	e004      	b.n	64b0 <_do_fflush+0x24>
    64a6:	6805      	ldr	r5, [r0, #0]
    64a8:	6983      	ldr	r3, [r0, #24]
    64aa:	442b      	add	r3, r5
    64ac:	6905      	ldr	r5, [r0, #16]
    64ae:	1b5d      	subs	r5, r3, r5
    64b0:	68e3      	ldr	r3, [r4, #12]
    64b2:	f423 5340 	bic.w	r3, r3, #12288	; 0x3000
    64b6:	60e3      	str	r3, [r4, #12]
    64b8:	4620      	mov	r0, r4
    64ba:	f7ff fd6c 	bl	5f96 <_fflush>
    64be:	2200      	movs	r2, #0
    64c0:	4606      	mov	r6, r0
    64c2:	4629      	mov	r1, r5
    64c4:	4620      	mov	r0, r4
    64c6:	f7ff ff09 	bl	62dc <fseek>
    64ca:	4633      	mov	r3, r6
    64cc:	4618      	mov	r0, r3
    64ce:	bd70      	pop	{r4, r5, r6, pc}

000064d0 <__check_heap_overflow>:
    64d0:	4b04      	ldr	r3, [pc, #16]	; (64e4 <__check_heap_overflow+0x14>)
    64d2:	b123      	cbz	r3, 64de <__check_heap_overflow+0xe>
    64d4:	4298      	cmp	r0, r3
    64d6:	bf34      	ite	cc
    64d8:	2000      	movcc	r0, #0
    64da:	2001      	movcs	r0, #1
    64dc:	4770      	bx	lr
    64de:	4618      	mov	r0, r3
    64e0:	4770      	bx	lr
    64e2:	bf00      	nop
    64e4:	00000000 	.word	0x00000000

000064e8 <__aeabi_uldivmod>:
    64e8:	f05f 0c00 	movs.w	ip, #0

000064ec <__bhs_ldivmod1>:
    64ec:	b530      	push	{r4, r5, lr}
    64ee:	001c      	movs	r4, r3
    64f0:	d122      	bne.n	6538 <ldiv64>
    64f2:	0012      	movs	r2, r2
    64f4:	d06f      	beq.n	65d6 <ldiv_divzero>
    64f6:	4291      	cmp	r1, r2
    64f8:	d306      	bcc.n	6508 <ldiv32>
    64fa:	4605      	mov	r5, r0
    64fc:	4608      	mov	r0, r1
    64fe:	2100      	movs	r1, #0
    6500:	f000 f86f 	bl	65e2 <udiv6432>
    6504:	4604      	mov	r4, r0
    6506:	4628      	mov	r0, r5

00006508 <ldiv32>:
    6508:	f000 f86b 	bl	65e2 <udiv6432>
    650c:	460a      	mov	r2, r1
    650e:	4621      	mov	r1, r4

00006510 <ldiv_return>:
    6510:	e8bd 4030 	ldmia.w	sp!, {r4, r5, lr}
    6514:	f01c 4f40 	tst.w	ip, #3221225472	; 0xc0000000
    6518:	bf08      	it	eq
    651a:	4770      	bxeq	lr
    651c:	d503      	bpl.n	6526 <ldiv_sign>
    651e:	4249      	negs	r1, r1
    6520:	4240      	negs	r0, r0
    6522:	f161 0100 	sbc.w	r1, r1, #0

00006526 <ldiv_sign>:
    6526:	ea5f 0c8c 	movs.w	ip, ip, lsl #2
    652a:	bf38      	it	cc
    652c:	4770      	bxcc	lr
    652e:	425b      	negs	r3, r3
    6530:	4252      	negs	r2, r2
    6532:	f163 0300 	sbc.w	r3, r3, #0
    6536:	4770      	bx	lr

00006538 <ldiv64>:
    6538:	d442      	bmi.n	65c0 <ldiv_res01>
    653a:	0c1c      	lsrs	r4, r3, #16
    653c:	bf04      	itt	eq
    653e:	041b      	lsleq	r3, r3, #16
    6540:	f10c 0c10 	addeq.w	ip, ip, #16
    6544:	f013 4f7f 	tst.w	r3, #4278190080	; 0xff000000
    6548:	bf04      	itt	eq
    654a:	021b      	lsleq	r3, r3, #8
    654c:	f10c 0c08 	addeq.w	ip, ip, #8
    6550:	f013 4f70 	tst.w	r3, #4026531840	; 0xf0000000
    6554:	bf04      	itt	eq
    6556:	011b      	lsleq	r3, r3, #4
    6558:	f10c 0c04 	addeq.w	ip, ip, #4
    655c:	f013 4f40 	tst.w	r3, #3221225472	; 0xc0000000
    6560:	bf04      	itt	eq
    6562:	f10c 0c02 	addeq.w	ip, ip, #2
    6566:	ea5f 0383 	movseq.w	r3, r3, lsl #2
    656a:	bf5c      	itt	pl
    656c:	f10c 0c01 	addpl.w	ip, ip, #1
    6570:	005b      	lslpl	r3, r3, #1
    6572:	f1cc 0e20 	rsb	lr, ip, #32
    6576:	fa22 f40e 	lsr.w	r4, r2, lr
    657a:	4323      	orrs	r3, r4
    657c:	fa02 f20c 	lsl.w	r2, r2, ip
    6580:	fa00 f50c 	lsl.w	r5, r0, ip
    6584:	fa20 f00e 	lsr.w	r0, r0, lr
    6588:	fa01 f40c 	lsl.w	r4, r1, ip
    658c:	4320      	orrs	r0, r4
    658e:	fa21 f10e 	lsr.w	r1, r1, lr
    6592:	4614      	mov	r4, r2
    6594:	461a      	mov	r2, r3
    6596:	f000 f824 	bl	65e2 <udiv6432>
    659a:	fba4 2300 	umull	r2, r3, r4, r0
    659e:	1aaa      	subs	r2, r5, r2
    65a0:	eb71 0303 	sbcs.w	r3, r1, r3
    65a4:	bf3c      	itt	cc
    65a6:	191b      	addcc	r3, r3, r4
    65a8:	3801      	subcc	r0, #1
    65aa:	f1cc 0e20 	rsb	lr, ip, #32
    65ae:	fa22 f20c 	lsr.w	r2, r2, ip
    65b2:	fa03 f40e 	lsl.w	r4, r3, lr
    65b6:	4322      	orrs	r2, r4
    65b8:	fa23 f30c 	lsr.w	r3, r3, ip
    65bc:	2100      	movs	r1, #0
    65be:	e7a7      	b.n	6510 <ldiv_return>

000065c0 <ldiv_res01>:
    65c0:	1a82      	subs	r2, r0, r2
    65c2:	eb71 0303 	sbcs.w	r3, r1, r3
    65c6:	bf3c      	itt	cc
    65c8:	4602      	movcc	r2, r0
    65ca:	460b      	movcc	r3, r1
    65cc:	f04f 0100 	mov.w	r1, #0
    65d0:	f141 0000 	adc.w	r0, r1, #0
    65d4:	e79c      	b.n	6510 <ldiv_return>

000065d6 <ldiv_divzero>:
    65d6:	2000      	movs	r0, #0
    65d8:	2100      	movs	r1, #0
    65da:	e8bd 4030 	ldmia.w	sp!, {r4, r5, lr}
    65de:	f000 b83d 	b.w	665c <__aeabi_idiv0>

000065e2 <udiv6432>:
    65e2:	2304      	movs	r3, #4
    65e4:	ebb1 2f12 	cmp.w	r1, r2, lsr #8
    65e8:	d209      	bcs.n	65fe <udiv6432_entry>

000065ea <udiv6432_loop1>:
    65ea:	0209      	lsls	r1, r1, #8
    65ec:	ea41 6110 	orr.w	r1, r1, r0, lsr #24
    65f0:	0200      	lsls	r0, r0, #8
    65f2:	3b01      	subs	r3, #1
    65f4:	bf08      	it	eq
    65f6:	4770      	bxeq	lr
    65f8:	ebb1 2f12 	cmp.w	r1, r2, lsr #8
    65fc:	d3f5      	bcc.n	65ea <udiv6432_loop1>

000065fe <udiv6432_entry>:
    65fe:	1800      	adds	r0, r0, r0

00006600 <udiv6432_loop>:
    6600:	4149      	adcs	r1, r1
    6602:	bf34      	ite	cc
    6604:	4291      	cmpcc	r1, r2
    6606:	1a89      	subcs	r1, r1, r2
    6608:	4140      	adcs	r0, r0
    660a:	4149      	adcs	r1, r1
    660c:	bf34      	ite	cc
    660e:	4291      	cmpcc	r1, r2
    6610:	1a89      	subcs	r1, r1, r2
    6612:	4140      	adcs	r0, r0
    6614:	4149      	adcs	r1, r1
    6616:	bf34      	ite	cc
    6618:	4291      	cmpcc	r1, r2
    661a:	1a89      	subcs	r1, r1, r2
    661c:	4140      	adcs	r0, r0
    661e:	4149      	adcs	r1, r1
    6620:	bf34      	ite	cc
    6622:	4291      	cmpcc	r1, r2
    6624:	1a89      	subcs	r1, r1, r2
    6626:	4140      	adcs	r0, r0
    6628:	4149      	adcs	r1, r1
    662a:	bf34      	ite	cc
    662c:	4291      	cmpcc	r1, r2
    662e:	1a89      	subcs	r1, r1, r2
    6630:	4140      	adcs	r0, r0
    6632:	4149      	adcs	r1, r1
    6634:	bf34      	ite	cc
    6636:	4291      	cmpcc	r1, r2
    6638:	1a89      	subcs	r1, r1, r2
    663a:	4140      	adcs	r0, r0
    663c:	4149      	adcs	r1, r1
    663e:	bf34      	ite	cc
    6640:	4291      	cmpcc	r1, r2
    6642:	1a89      	subcs	r1, r1, r2
    6644:	4140      	adcs	r0, r0
    6646:	4149      	adcs	r1, r1
    6648:	bf34      	ite	cc
    664a:	4291      	cmpcc	r1, r2
    664c:	1a89      	subcs	r1, r1, r2
    664e:	4140      	adcs	r0, r0
    6650:	f1a3 0301 	sub.w	r3, r3, #1
    6654:	f013 0f0f 	tst.w	r3, #15
    6658:	d1d2      	bne.n	6600 <udiv6432_loop>
    665a:	4770      	bx	lr

0000665c <__aeabi_idiv0>:
    665c:	4770      	bx	lr
    665e:	Address 0x0000665e is out of bounds.


00006660 <__aeabi_dmul>:
    6660:	e92d 4ff0 	stmdb	sp!, {r4, r5, r6, r7, r8, r9, sl, fp, lr}
    6664:	f3c1 560a 	ubfx	r6, r1, #20, #11
    6668:	461c      	mov	r4, r3
    666a:	404b      	eors	r3, r1
    666c:	2e00      	cmp	r6, #0
    666e:	d059      	beq.n	6724 <__aeabi_dmul+0xc4>
    6670:	f240 77ff 	movw	r7, #2047	; 0x7ff
    6674:	42be      	cmp	r6, r7
    6676:	d055      	beq.n	6724 <__aeabi_dmul+0xc4>
    6678:	f3c4 550a 	ubfx	r5, r4, #20, #11
    667c:	2d00      	cmp	r5, #0
    667e:	d051      	beq.n	6724 <__aeabi_dmul+0xc4>
    6680:	42bd      	cmp	r5, r7
    6682:	d04f      	beq.n	6724 <__aeabi_dmul+0xc4>
    6684:	f3c1 0113 	ubfx	r1, r1, #0, #20
    6688:	f441 1180 	orr.w	r1, r1, #1048576	; 0x100000
    668c:	ea4f 28c2 	mov.w	r8, r2, lsl #11
    6690:	fba1 ab08 	umull	sl, fp, r1, r8
    6694:	ea4f 5e52 	mov.w	lr, r2, lsr #21
    6698:	fba8 8900 	umull	r8, r9, r8, r0
    669c:	eb06 0c05 	add.w	ip, r6, r5
    66a0:	ea4e 2ec4 	orr.w	lr, lr, r4, lsl #11
    66a4:	eb19 060a 	adds.w	r6, r9, sl
    66a8:	f04f 0700 	mov.w	r7, #0
    66ac:	f04e 4e00 	orr.w	lr, lr, #2147483648	; 0x80000000
    66b0:	f147 0700 	adc.w	r7, r7, #0
    66b4:	fbe0 670e 	umlal	r6, r7, r0, lr
    66b8:	eb17 040b 	adds.w	r4, r7, fp
    66bc:	f04f 0500 	mov.w	r5, #0
    66c0:	f145 0500 	adc.w	r5, r5, #0
    66c4:	fbee 4501 	umlal	r4, r5, lr, r1
    66c8:	f5b5 1f80 	cmp.w	r5, #1048576	; 0x100000
    66cc:	f003 4300 	and.w	r3, r3, #2147483648	; 0x80000000
    66d0:	ea46 0698 	orr.w	r6, r6, r8, lsr #2
    66d4:	d208      	bcs.n	66e8 <__aeabi_dmul+0x88>
    66d6:	1924      	adds	r4, r4, r4
    66d8:	ea4f 72d6 	mov.w	r2, r6, lsr #31
    66dc:	f5ac 6c80 	sub.w	ip, ip, #1024	; 0x400
    66e0:	416d      	adcs	r5, r5
    66e2:	4314      	orrs	r4, r2
    66e4:	0076      	lsls	r6, r6, #1
    66e6:	e001      	b.n	66ec <__aeabi_dmul+0x8c>
    66e8:	f2ac 3cff 	subw	ip, ip, #1023	; 0x3ff
    66ec:	0ff2      	lsrs	r2, r6, #31
    66ee:	18a4      	adds	r4, r4, r2
    66f0:	f145 0500 	adc.w	r5, r5, #0
    66f4:	f240 71fd 	movw	r1, #2045	; 0x7fd
    66f8:	f1b6 4f00 	cmp.w	r6, #2147483648	; 0x80000000
    66fc:	4622      	mov	r2, r4
    66fe:	bf08      	it	eq
    6700:	f024 0201 	biceq.w	r2, r4, #1
    6704:	458c      	cmp	ip, r1
    6706:	d805      	bhi.n	6714 <__aeabi_dmul+0xb4>
    6708:	432b      	orrs	r3, r5
    670a:	eb03 510c 	add.w	r1, r3, ip, lsl #20
    670e:	4610      	mov	r0, r2
    6710:	e8bd 8ff0 	ldmia.w	sp!, {r4, r5, r6, r7, r8, r9, sl, fp, pc}
    6714:	f1bc 0f00 	cmp.w	ip, #0
    6718:	db0e      	blt.n	6738 <__aeabi_dmul+0xd8>
    671a:	f043 43ff 	orr.w	r3, r3, #2139095040	; 0x7f800000
    671e:	f443 03e0 	orr.w	r3, r3, #7340032	; 0x700000
    6722:	e009      	b.n	6738 <__aeabi_dmul+0xd8>
    6724:	0049      	lsls	r1, r1, #1
    6726:	f511 1f00 	cmn.w	r1, #2097152	; 0x200000
    672a:	f003 4300 	and.w	r3, r3, #2147483648	; 0x80000000
    672e:	d207      	bcs.n	6740 <__aeabi_dmul+0xe0>
    6730:	0062      	lsls	r2, r4, #1
    6732:	f512 1f00 	cmn.w	r2, #2097152	; 0x200000
    6736:	d204      	bcs.n	6742 <__aeabi_dmul+0xe2>
    6738:	2000      	movs	r0, #0
    673a:	4619      	mov	r1, r3
    673c:	e8bd 8ff0 	ldmia.w	sp!, {r4, r5, r6, r7, r8, r9, sl, fp, pc}
    6740:	d109      	bne.n	6756 <__aeabi_dmul+0xf6>
    6742:	0064      	lsls	r4, r4, #1
    6744:	f514 1f00 	cmn.w	r4, #2097152	; 0x200000
    6748:	d805      	bhi.n	6756 <__aeabi_dmul+0xf6>
    674a:	0d49      	lsrs	r1, r1, #21
    674c:	0549      	lsls	r1, r1, #21
    674e:	b111      	cbz	r1, 6756 <__aeabi_dmul+0xf6>
    6750:	0d64      	lsrs	r4, r4, #21
    6752:	0564      	lsls	r4, r4, #21
    6754:	b91c      	cbnz	r4, 675e <__aeabi_dmul+0xfe>
    6756:	2000      	movs	r0, #0
    6758:	4904      	ldr	r1, [pc, #16]	; (676c <__aeabi_dmul+0x10c>)
    675a:	e8bd 8ff0 	ldmia.w	sp!, {r4, r5, r6, r7, r8, r9, sl, fp, pc}
    675e:	f043 43ff 	orr.w	r3, r3, #2139095040	; 0x7f800000
    6762:	2000      	movs	r0, #0
    6764:	f443 01e0 	orr.w	r1, r3, #7340032	; 0x700000
    6768:	e8bd 8ff0 	ldmia.w	sp!, {r4, r5, r6, r7, r8, r9, sl, fp, pc}
    676c:	7ff80000 	.word	0x7ff80000

00006770 <__aeabi_ddiv>:
    6770:	e92d 43f0 	stmdb	sp!, {r4, r5, r6, r7, r8, r9, lr}
    6774:	f3c1 570a 	ubfx	r7, r1, #20, #11
    6778:	460c      	mov	r4, r1
    677a:	2f00      	cmp	r7, #0
    677c:	d058      	beq.n	6830 <__aeabi_ddiv+0xc0>
    677e:	f240 75ff 	movw	r5, #2047	; 0x7ff
    6782:	42af      	cmp	r7, r5
    6784:	d054      	beq.n	6830 <__aeabi_ddiv+0xc0>
    6786:	f3c3 510a 	ubfx	r1, r3, #20, #11
    678a:	2900      	cmp	r1, #0
    678c:	d050      	beq.n	6830 <__aeabi_ddiv+0xc0>
    678e:	42a9      	cmp	r1, r5
    6790:	d04e      	beq.n	6830 <__aeabi_ddiv+0xc0>
    6792:	ea4f 5e50 	mov.w	lr, r0, lsr #21
    6796:	ea4e 2ec4 	orr.w	lr, lr, r4, lsl #11
    679a:	1a7f      	subs	r7, r7, r1
    679c:	ea84 0103 	eor.w	r1, r4, r3
    67a0:	02c4      	lsls	r4, r0, #11
    67a2:	0d50      	lsrs	r0, r2, #21
    67a4:	ea40 23c3 	orr.w	r3, r0, r3, lsl #11
    67a8:	f04e 4500 	orr.w	r5, lr, #2147483648	; 0x80000000
    67ac:	f043 4900 	orr.w	r9, r3, #2147483648	; 0x80000000
    67b0:	ea4f 28c2 	mov.w	r8, r2, lsl #11
    67b4:	454d      	cmp	r5, r9
    67b6:	bf08      	it	eq
    67b8:	4544      	cmpeq	r4, r8
    67ba:	d202      	bcs.n	67c2 <__aeabi_ddiv+0x52>
    67bc:	f207 30fd 	addw	r0, r7, #1021	; 0x3fd
    67c0:	e004      	b.n	67cc <__aeabi_ddiv+0x5c>
    67c2:	086d      	lsrs	r5, r5, #1
    67c4:	ea4f 0434 	mov.w	r4, r4, rrx
    67c8:	f207 30fe 	addw	r0, r7, #1022	; 0x3fe
    67cc:	ea5f 0959 	movs.w	r9, r9, lsr #1
    67d0:	ea4f 0838 	mov.w	r8, r8, rrx
    67d4:	2335      	movs	r3, #53	; 0x35
    67d6:	2200      	movs	r2, #0
    67d8:	454d      	cmp	r5, r9
    67da:	bf08      	it	eq
    67dc:	4544      	cmpeq	r4, r8
    67de:	ea4f 0242 	mov.w	r2, r2, lsl #1
    67e2:	d305      	bcc.n	67f0 <__aeabi_ddiv+0x80>
    67e4:	ebb4 0408 	subs.w	r4, r4, r8
    67e8:	eb65 0509 	sbc.w	r5, r5, r9
    67ec:	f042 0201 	orr.w	r2, r2, #1
    67f0:	1924      	adds	r4, r4, r4
    67f2:	416d      	adcs	r5, r5
    67f4:	2b21      	cmp	r3, #33	; 0x21
    67f6:	bf08      	it	eq
    67f8:	4616      	moveq	r6, r2
    67fa:	3b01      	subs	r3, #1
    67fc:	d1ec      	bne.n	67d8 <__aeabi_ddiv+0x68>
    67fe:	454d      	cmp	r5, r9
    6800:	bf08      	it	eq
    6802:	4544      	cmpeq	r4, r8
    6804:	d302      	bcc.n	680c <__aeabi_ddiv+0x9c>
    6806:	3201      	adds	r2, #1
    6808:	bf08      	it	eq
    680a:	3601      	addeq	r6, #1
    680c:	f001 4300 	and.w	r3, r1, #2147483648	; 0x80000000
    6810:	f240 71fd 	movw	r1, #2045	; 0x7fd
    6814:	4288      	cmp	r0, r1
    6816:	d803      	bhi.n	6820 <__aeabi_ddiv+0xb0>
    6818:	eb03 5300 	add.w	r3, r3, r0, lsl #20
    681c:	1999      	adds	r1, r3, r6
    681e:	e022      	b.n	6866 <__aeabi_ddiv+0xf6>
    6820:	2800      	cmp	r0, #0
    6822:	bfa4      	itt	ge
    6824:	f043 43ff 	orrge.w	r3, r3, #2139095040	; 0x7f800000
    6828:	f443 03e0 	orrge.w	r3, r3, #7340032	; 0x700000
    682c:	2000      	movs	r0, #0
    682e:	e034      	b.n	689a <__aeabi_ddiv+0x12a>
    6830:	0061      	lsls	r1, r4, #1
    6832:	f511 1f00 	cmn.w	r1, #2097152	; 0x200000
    6836:	d803      	bhi.n	6840 <__aeabi_ddiv+0xd0>
    6838:	0058      	lsls	r0, r3, #1
    683a:	f510 1f00 	cmn.w	r0, #2097152	; 0x200000
    683e:	d901      	bls.n	6844 <__aeabi_ddiv+0xd4>
    6840:	2000      	movs	r0, #0
    6842:	e02d      	b.n	68a0 <__aeabi_ddiv+0x130>
    6844:	ea44 0203 	orr.w	r2, r4, r3
    6848:	f3c2 520a 	ubfx	r2, r2, #20, #11
    684c:	0555      	lsls	r5, r2, #21
    684e:	b91a      	cbnz	r2, 6858 <__aeabi_ddiv+0xe8>
    6850:	4915      	ldr	r1, [pc, #84]	; (68a8 <__aeabi_ddiv+0x138>)
    6852:	4628      	mov	r0, r5
    6854:	e8bd 83f0 	ldmia.w	sp!, {r4, r5, r6, r7, r8, r9, pc}
    6858:	0d4a      	lsrs	r2, r1, #21
    685a:	4063      	eors	r3, r4
    685c:	0552      	lsls	r2, r2, #21
    685e:	f003 4300 	and.w	r3, r3, #2147483648	; 0x80000000
    6862:	b91a      	cbnz	r2, 686c <__aeabi_ddiv+0xfc>
    6864:	4619      	mov	r1, r3
    6866:	4610      	mov	r0, r2
    6868:	e8bd 83f0 	ldmia.w	sp!, {r4, r5, r6, r7, r8, r9, pc}
    686c:	0d42      	lsrs	r2, r0, #21
    686e:	0552      	lsls	r2, r2, #21
    6870:	b922      	cbnz	r2, 687c <__aeabi_ddiv+0x10c>
    6872:	f043 43ff 	orr.w	r3, r3, #2139095040	; 0x7f800000
    6876:	f443 01e0 	orr.w	r1, r3, #7340032	; 0x700000
    687a:	e7f4      	b.n	6866 <__aeabi_ddiv+0xf6>
    687c:	f510 1f00 	cmn.w	r0, #2097152	; 0x200000
    6880:	d006      	beq.n	6890 <__aeabi_ddiv+0x120>
    6882:	f043 43ff 	orr.w	r3, r3, #2139095040	; 0x7f800000
    6886:	2000      	movs	r0, #0
    6888:	f443 01e0 	orr.w	r1, r3, #7340032	; 0x700000
    688c:	e8bd 83f0 	ldmia.w	sp!, {r4, r5, r6, r7, r8, r9, pc}
    6890:	f511 1f00 	cmn.w	r1, #2097152	; 0x200000
    6894:	f04f 0000 	mov.w	r0, #0
    6898:	d002      	beq.n	68a0 <__aeabi_ddiv+0x130>
    689a:	4619      	mov	r1, r3
    689c:	e8bd 83f0 	ldmia.w	sp!, {r4, r5, r6, r7, r8, r9, pc}
    68a0:	4901      	ldr	r1, [pc, #4]	; (68a8 <__aeabi_ddiv+0x138>)
    68a2:	e8bd 83f0 	ldmia.w	sp!, {r4, r5, r6, r7, r8, r9, pc}
    68a6:	bf00      	nop
    68a8:	7ff80000 	.word	0x7ff80000

000068ac <__aeabi_dsub>:
    68ac:	b5f0      	push	{r4, r5, r6, r7, lr}
    68ae:	461f      	mov	r7, r3
    68b0:	404b      	eors	r3, r1
    68b2:	460e      	mov	r6, r1
    68b4:	4605      	mov	r5, r0
    68b6:	4694      	mov	ip, r2
    68b8:	d505      	bpl.n	68c6 <__aeabi_dsub+0x1a>
    68ba:	f107 4300 	add.w	r3, r7, #2147483648	; 0x80000000
    68be:	e8bd 40f0 	ldmia.w	sp!, {r4, r5, r6, r7, lr}
    68c2:	f000 b8cd 	b.w	6a60 <__aeabi_dadd>
    68c6:	42b9      	cmp	r1, r7
    68c8:	d303      	bcc.n	68d2 <__aeabi_dsub+0x26>
    68ca:	4290      	cmp	r0, r2
    68cc:	d80b      	bhi.n	68e6 <__aeabi_dsub+0x3a>
    68ce:	42b9      	cmp	r1, r7
    68d0:	d109      	bne.n	68e6 <__aeabi_dsub+0x3a>
    68d2:	f103 4300 	add.w	r3, r3, #2147483648	; 0x80000000
    68d6:	405e      	eors	r6, r3
    68d8:	405f      	eors	r7, r3
    68da:	ea85 030c 	eor.w	r3, r5, ip
    68de:	ea8c 0c03 	eor.w	ip, ip, r3
    68e2:	ea83 050c 	eor.w	r5, r3, ip
    68e6:	ea4f 5e16 	mov.w	lr, r6, lsr #20
    68ea:	f42e 6300 	bic.w	r3, lr, #2048	; 0x800
    68ee:	f240 72ff 	movw	r2, #2047	; 0x7ff
    68f2:	4293      	cmp	r3, r2
    68f4:	ebae 5417 	sub.w	r4, lr, r7, lsr #20
    68f8:	f000 80a2 	beq.w	6a40 <__aeabi_dsub+0x194>
    68fc:	429c      	cmp	r4, r3
    68fe:	f000 809c 	beq.w	6a3a <__aeabi_dsub+0x18e>
    6902:	f3c6 0113 	ubfx	r1, r6, #0, #20
    6906:	f3c7 0313 	ubfx	r3, r7, #0, #20
    690a:	2c1f      	cmp	r4, #31
    690c:	f441 1180 	orr.w	r1, r1, #1048576	; 0x100000
    6910:	f443 1380 	orr.w	r3, r3, #1048576	; 0x100000
    6914:	d84f      	bhi.n	69b6 <__aeabi_dsub+0x10a>
    6916:	fa23 f204 	lsr.w	r2, r3, r4
    691a:	1a89      	subs	r1, r1, r2
    691c:	fa2c f204 	lsr.w	r2, ip, r4
    6920:	f1c4 0420 	rsb	r4, r4, #32
    6924:	40a3      	lsls	r3, r4
    6926:	431a      	orrs	r2, r3
    6928:	1aaa      	subs	r2, r5, r2
    692a:	4295      	cmp	r5, r2
    692c:	bf38      	it	cc
    692e:	f101 31ff 	addcc.w	r1, r1, #4294967295
    6932:	fa1c f304 	lsls.w	r3, ip, r4
    6936:	d004      	beq.n	6942 <__aeabi_dsub+0x96>
    6938:	425b      	negs	r3, r3
    693a:	1e55      	subs	r5, r2, #1
    693c:	b912      	cbnz	r2, 6944 <__aeabi_dsub+0x98>
    693e:	3901      	subs	r1, #1
    6940:	e000      	b.n	6944 <__aeabi_dsub+0x98>
    6942:	4615      	mov	r5, r2
    6944:	f411 1fc0 	tst.w	r1, #1572864	; 0x180000
    6948:	d154      	bne.n	69f4 <__aeabi_dsub+0x148>
    694a:	0fea      	lsrs	r2, r5, #31
    694c:	0fdb      	lsrs	r3, r3, #31
    694e:	ea42 0241 	orr.w	r2, r2, r1, lsl #1
    6952:	ea43 0345 	orr.w	r3, r3, r5, lsl #1
    6956:	ea52 0403 	orrs.w	r4, r2, r3
    695a:	d06f      	beq.n	6a3c <__aeabi_dsub+0x190>
    695c:	f1ae 0502 	sub.w	r5, lr, #2
    6960:	0b51      	lsrs	r1, r2, #13
    6962:	d105      	bne.n	6970 <__aeabi_dsub+0xc4>
    6964:	0e19      	lsrs	r1, r3, #24
    6966:	ea41 2202 	orr.w	r2, r1, r2, lsl #8
    696a:	021b      	lsls	r3, r3, #8
    696c:	3d08      	subs	r5, #8
    696e:	e7f7      	b.n	6960 <__aeabi_dsub+0xb4>
    6970:	0c51      	lsrs	r1, r2, #17
    6972:	bf01      	itttt	eq
    6974:	0f19      	lsreq	r1, r3, #28
    6976:	ea41 1202 	orreq.w	r2, r1, r2, lsl #4
    697a:	011b      	lsleq	r3, r3, #4
    697c:	3d04      	subeq	r5, #4
    697e:	0cd1      	lsrs	r1, r2, #19
    6980:	bf01      	itttt	eq
    6982:	0f99      	lsreq	r1, r3, #30
    6984:	ea41 0282 	orreq.w	r2, r1, r2, lsl #2
    6988:	009b      	lsleq	r3, r3, #2
    698a:	3d02      	subeq	r5, #2
    698c:	0d11      	lsrs	r1, r2, #20
    698e:	bf04      	itt	eq
    6990:	0fd9      	lsreq	r1, r3, #31
    6992:	f105 35ff 	addeq.w	r5, r5, #4294967295
    6996:	ea4f 24de 	mov.w	r4, lr, lsr #11
    699a:	bf04      	itt	eq
    699c:	ea41 0242 	orreq.w	r2, r1, r2, lsl #1
    69a0:	005b      	lsleq	r3, r3, #1
    69a2:	ebb4 2fd5 	cmp.w	r4, r5, lsr #11
    69a6:	f04f 0000 	mov.w	r0, #0
    69aa:	bf06      	itte	eq
    69ac:	eb02 5105 	addeq.w	r1, r2, r5, lsl #20
    69b0:	4618      	moveq	r0, r3
    69b2:	07e1      	lslne	r1, r4, #31
    69b4:	bdf0      	pop	{r4, r5, r6, r7, pc}
    69b6:	2c35      	cmp	r4, #53	; 0x35
    69b8:	d81c      	bhi.n	69f4 <__aeabi_dsub+0x148>
    69ba:	3c20      	subs	r4, #32
    69bc:	fa23 f204 	lsr.w	r2, r3, r4
    69c0:	1aaa      	subs	r2, r5, r2
    69c2:	f1c4 0020 	rsb	r0, r4, #32
    69c6:	4295      	cmp	r5, r2
    69c8:	fa03 f300 	lsl.w	r3, r3, r0
    69cc:	bf38      	it	cc
    69ce:	f101 31ff 	addcc.w	r1, r1, #4294967295
    69d2:	fa2c f404 	lsr.w	r4, ip, r4
    69d6:	ea5f 600c 	movs.w	r0, ip, lsl #24
    69da:	ea43 0304 	orr.w	r3, r3, r4
    69de:	d002      	beq.n	69e6 <__aeabi_dsub+0x13a>
    69e0:	f043 03ff 	orr.w	r3, r3, #255	; 0xff
    69e4:	e000      	b.n	69e8 <__aeabi_dsub+0x13c>
    69e6:	b123      	cbz	r3, 69f2 <__aeabi_dsub+0x146>
    69e8:	425b      	negs	r3, r3
    69ea:	1e55      	subs	r5, r2, #1
    69ec:	b912      	cbnz	r2, 69f4 <__aeabi_dsub+0x148>
    69ee:	3901      	subs	r1, #1
    69f0:	e000      	b.n	69f4 <__aeabi_dsub+0x148>
    69f2:	4615      	mov	r5, r2
    69f4:	02ca      	lsls	r2, r1, #11
    69f6:	d410      	bmi.n	6a1a <__aeabi_dsub+0x16e>
    69f8:	f10e 3eff 	add.w	lr, lr, #4294967295
    69fc:	ea5f 524e 	movs.w	r2, lr, lsl #21
    6a00:	d007      	beq.n	6a12 <__aeabi_dsub+0x166>
    6a02:	0fea      	lsrs	r2, r5, #31
    6a04:	ea42 0141 	orr.w	r1, r2, r1, lsl #1
    6a08:	0fda      	lsrs	r2, r3, #31
    6a0a:	ea42 0545 	orr.w	r5, r2, r5, lsl #1
    6a0e:	005b      	lsls	r3, r3, #1
    6a10:	e003      	b.n	6a1a <__aeabi_dsub+0x16e>
    6a12:	ea4f 510e 	mov.w	r1, lr, lsl #20
    6a16:	4610      	mov	r0, r2
    6a18:	bdf0      	pop	{r4, r5, r6, r7, pc}
    6a1a:	2b00      	cmp	r3, #0
    6a1c:	f421 1280 	bic.w	r2, r1, #1048576	; 0x100000
    6a20:	ea4f 540e 	mov.w	r4, lr, lsl #20
    6a24:	da07      	bge.n	6a36 <__aeabi_dsub+0x18a>
    6a26:	3501      	adds	r5, #1
    6a28:	bf08      	it	eq
    6a2a:	3201      	addeq	r2, #1
    6a2c:	f1b3 4f00 	cmp.w	r3, #2147483648	; 0x80000000
    6a30:	bf08      	it	eq
    6a32:	f025 0501 	biceq.w	r5, r5, #1
    6a36:	18a1      	adds	r1, r4, r2
    6a38:	e00d      	b.n	6a56 <__aeabi_dsub+0x1aa>
    6a3a:	b95c      	cbnz	r4, 6a54 <__aeabi_dsub+0x1a8>
    6a3c:	4621      	mov	r1, r4
    6a3e:	e007      	b.n	6a50 <__aeabi_dsub+0x1a4>
    6a40:	0333      	lsls	r3, r6, #12
    6a42:	f04f 0000 	mov.w	r0, #0
    6a46:	d001      	beq.n	6a4c <__aeabi_dsub+0x1a0>
    6a48:	4904      	ldr	r1, [pc, #16]	; (6a5c <__aeabi_dsub+0x1b0>)
    6a4a:	bdf0      	pop	{r4, r5, r6, r7, pc}
    6a4c:	b914      	cbnz	r4, 6a54 <__aeabi_dsub+0x1a8>
    6a4e:	4903      	ldr	r1, [pc, #12]	; (6a5c <__aeabi_dsub+0x1b0>)
    6a50:	4620      	mov	r0, r4
    6a52:	bdf0      	pop	{r4, r5, r6, r7, pc}
    6a54:	4631      	mov	r1, r6
    6a56:	4628      	mov	r0, r5
    6a58:	bdf0      	pop	{r4, r5, r6, r7, pc}
    6a5a:	bf00      	nop
    6a5c:	7ff80000 	.word	0x7ff80000

00006a60 <__aeabi_dadd>:
    6a60:	e92d 03f0 	stmdb	sp!, {r4, r5, r6, r7, r8, r9}
    6a64:	461f      	mov	r7, r3
    6a66:	463d      	mov	r5, r7
    6a68:	4616      	mov	r6, r2
    6a6a:	4617      	mov	r7, r2
    6a6c:	ea91 0205 	eors.w	r2, r1, r5
    6a70:	460c      	mov	r4, r1
    6a72:	4603      	mov	r3, r0
    6a74:	d506      	bpl.n	6a84 <__aeabi_dadd+0x24>
    6a76:	f105 4300 	add.w	r3, r5, #2147483648	; 0x80000000
    6a7a:	4632      	mov	r2, r6
    6a7c:	e8bd 03f0 	ldmia.w	sp!, {r4, r5, r6, r7, r8, r9}
    6a80:	f7ff bf14 	b.w	68ac <__aeabi_dsub>
    6a84:	42a9      	cmp	r1, r5
    6a86:	d204      	bcs.n	6a92 <__aeabi_dadd+0x32>
    6a88:	4073      	eors	r3, r6
    6a8a:	405f      	eors	r7, r3
    6a8c:	4054      	eors	r4, r2
    6a8e:	4055      	eors	r5, r2
    6a90:	407b      	eors	r3, r7
    6a92:	0d22      	lsrs	r2, r4, #20
    6a94:	f422 6100 	bic.w	r1, r2, #2048	; 0x800
    6a98:	f240 70ff 	movw	r0, #2047	; 0x7ff
    6a9c:	4281      	cmp	r1, r0
    6a9e:	d05b      	beq.n	6b58 <__aeabi_dadd+0xf8>
    6aa0:	eba2 5615 	sub.w	r6, r2, r5, lsr #20
    6aa4:	428e      	cmp	r6, r1
    6aa6:	d052      	beq.n	6b4e <__aeabi_dadd+0xee>
    6aa8:	f3c4 0413 	ubfx	r4, r4, #0, #20
    6aac:	f3c5 0113 	ubfx	r1, r5, #0, #20
    6ab0:	2e1f      	cmp	r6, #31
    6ab2:	f444 1480 	orr.w	r4, r4, #1048576	; 0x100000
    6ab6:	f441 1180 	orr.w	r1, r1, #1048576	; 0x100000
    6aba:	d80e      	bhi.n	6ada <__aeabi_dadd+0x7a>
    6abc:	fa21 f006 	lsr.w	r0, r1, r6
    6ac0:	4404      	add	r4, r0
    6ac2:	fa27 f006 	lsr.w	r0, r7, r6
    6ac6:	f1c6 0620 	rsb	r6, r6, #32
    6aca:	40b1      	lsls	r1, r6
    6acc:	4301      	orrs	r1, r0
    6ace:	185b      	adds	r3, r3, r1
    6ad0:	bf28      	it	cs
    6ad2:	3401      	addcs	r4, #1
    6ad4:	fa07 f106 	lsl.w	r1, r7, r6
    6ad8:	e012      	b.n	6b00 <__aeabi_dadd+0xa0>
    6ada:	2e35      	cmp	r6, #53	; 0x35
    6adc:	d810      	bhi.n	6b00 <__aeabi_dadd+0xa0>
    6ade:	3e20      	subs	r6, #32
    6ae0:	fa21 f006 	lsr.w	r0, r1, r6
    6ae4:	181b      	adds	r3, r3, r0
    6ae6:	f1c6 0020 	rsb	r0, r6, #32
    6aea:	fa01 f100 	lsl.w	r1, r1, r0
    6aee:	fa27 f606 	lsr.w	r6, r7, r6
    6af2:	bf28      	it	cs
    6af4:	3401      	addcs	r4, #1
    6af6:	4331      	orrs	r1, r6
    6af8:	0638      	lsls	r0, r7, #24
    6afa:	bf18      	it	ne
    6afc:	f041 01ff 	orrne.w	r1, r1, #255	; 0xff
    6b00:	02a0      	lsls	r0, r4, #10
    6b02:	d515      	bpl.n	6b30 <__aeabi_dadd+0xd0>
    6b04:	3301      	adds	r3, #1
    6b06:	bf08      	it	eq
    6b08:	3401      	addeq	r4, #1
    6b0a:	b909      	cbnz	r1, 6b10 <__aeabi_dadd+0xb0>
    6b0c:	f023 0302 	bic.w	r3, r3, #2
    6b10:	0515      	lsls	r5, r2, #20
    6b12:	eb05 0554 	add.w	r5, r5, r4, lsr #1
    6b16:	0069      	lsls	r1, r5, #1
    6b18:	f511 1f00 	cmn.w	r1, #2097152	; 0x200000
    6b1c:	bf37      	itett	cc
    6b1e:	07e4      	lslcc	r4, r4, #31
    6b20:	3201      	addcs	r2, #1
    6b22:	4629      	movcc	r1, r5
    6b24:	ea44 0053 	orrcc.w	r0, r4, r3, lsr #1
    6b28:	bf24      	itt	cs
    6b2a:	2000      	movcs	r0, #0
    6b2c:	0511      	lslcs	r1, r2, #20
    6b2e:	e01b      	b.n	6b68 <__aeabi_dadd+0x108>
    6b30:	2900      	cmp	r1, #0
    6b32:	f102 32ff 	add.w	r2, r2, #4294967295
    6b36:	da07      	bge.n	6b48 <__aeabi_dadd+0xe8>
    6b38:	3301      	adds	r3, #1
    6b3a:	bf08      	it	eq
    6b3c:	3401      	addeq	r4, #1
    6b3e:	f1b1 4f00 	cmp.w	r1, #2147483648	; 0x80000000
    6b42:	bf08      	it	eq
    6b44:	f023 0301 	biceq.w	r3, r3, #1
    6b48:	eb04 5102 	add.w	r1, r4, r2, lsl #20
    6b4c:	e00b      	b.n	6b66 <__aeabi_dadd+0x106>
    6b4e:	b94e      	cbnz	r6, 6b64 <__aeabi_dadd+0x104>
    6b50:	f004 4100 	and.w	r1, r4, #2147483648	; 0x80000000
    6b54:	4630      	mov	r0, r6
    6b56:	e007      	b.n	6b68 <__aeabi_dadd+0x108>
    6b58:	0322      	lsls	r2, r4, #12
    6b5a:	f04f 0000 	mov.w	r0, #0
    6b5e:	d001      	beq.n	6b64 <__aeabi_dadd+0x104>
    6b60:	4903      	ldr	r1, [pc, #12]	; (6b70 <__aeabi_dadd+0x110>)
    6b62:	e001      	b.n	6b68 <__aeabi_dadd+0x108>
    6b64:	4621      	mov	r1, r4
    6b66:	4618      	mov	r0, r3
    6b68:	e8bd 03f0 	ldmia.w	sp!, {r4, r5, r6, r7, r8, r9}
    6b6c:	4770      	bx	lr
    6b6e:	bf00      	nop
    6b70:	7ff80000 	.word	0x7ff80000

00006b74 <__aeabi_d2f>:
    6b74:	b530      	push	{r4, r5, lr}
    6b76:	460c      	mov	r4, r1
    6b78:	f024 4200 	bic.w	r2, r4, #2147483648	; 0x80000000
    6b7c:	f102 4547 	add.w	r5, r2, #3338665984	; 0xc7000000
    6b80:	f505 0570 	add.w	r5, r5, #15728640	; 0xf00000
    6b84:	f1b5 6f7e 	cmp.w	r5, #266338304	; 0xfe00000
    6b88:	f001 4100 	and.w	r1, r1, #2147483648	; 0x80000000
    6b8c:	d20f      	bcs.n	6bae <__aeabi_d2f+0x3a>
    6b8e:	f102 4348 	add.w	r3, r2, #3355443200	; 0xc8000000
    6b92:	0f42      	lsrs	r2, r0, #29
    6b94:	00c4      	lsls	r4, r0, #3
    6b96:	ea42 02c3 	orr.w	r2, r2, r3, lsl #3
    6b9a:	eb02 73d4 	add.w	r3, r2, r4, lsr #31
    6b9e:	f1b4 4f00 	cmp.w	r4, #2147483648	; 0x80000000
    6ba2:	bf08      	it	eq
    6ba4:	f023 0301 	biceq.w	r3, r3, #1
    6ba8:	ea43 0001 	orr.w	r0, r3, r1
    6bac:	bd30      	pop	{r4, r5, pc}
    6bae:	2d00      	cmp	r5, #0
    6bb0:	da01      	bge.n	6bb6 <__aeabi_d2f+0x42>
    6bb2:	4608      	mov	r0, r1
    6bb4:	bd30      	pop	{r4, r5, pc}
    6bb6:	0064      	lsls	r4, r4, #1
    6bb8:	f514 1f00 	cmn.w	r4, #2097152	; 0x200000
    6bbc:	bf94      	ite	ls
    6bbe:	f041 40ff 	orrls.w	r0, r1, #2139095040	; 0x7f800000
    6bc2:	4801      	ldrhi	r0, [pc, #4]	; (6bc8 <__aeabi_d2f+0x54>)
    6bc4:	bd30      	pop	{r4, r5, pc}
    6bc6:	bf00      	nop
    6bc8:	7fc00000 	.word	0x7fc00000

00006bcc <__aeabi_d2iz>:
    6bcc:	02cb      	lsls	r3, r1, #11
    6bce:	ea43 5050 	orr.w	r0, r3, r0, lsr #21
    6bd2:	0d0b      	lsrs	r3, r1, #20
    6bd4:	f5c3 6383 	rsb	r3, r3, #1048	; 0x418
    6bd8:	3306      	adds	r3, #6
    6bda:	f040 4000 	orr.w	r0, r0, #2147483648	; 0x80000000
    6bde:	2bff      	cmp	r3, #255	; 0xff
    6be0:	fa20 f003 	lsr.w	r0, r0, r3
    6be4:	d911      	bls.n	6c0a <__aeabi_d2iz+0x3e>
    6be6:	f413 6fe0 	tst.w	r3, #1792	; 0x700
    6bea:	d101      	bne.n	6bf0 <__aeabi_d2iz+0x24>
    6bec:	4240      	negs	r0, r0
    6bee:	4770      	bx	lr
    6bf0:	f011 4080 	ands.w	r0, r1, #1073741824	; 0x40000000
    6bf4:	d009      	beq.n	6c0a <__aeabi_d2iz+0x3e>
    6bf6:	004b      	lsls	r3, r1, #1
    6bf8:	f513 1f00 	cmn.w	r3, #2097152	; 0x200000
    6bfc:	d804      	bhi.n	6c08 <__aeabi_d2iz+0x3c>
    6bfe:	0fc8      	lsrs	r0, r1, #31
    6c00:	f100 4000 	add.w	r0, r0, #2147483648	; 0x80000000
    6c04:	3801      	subs	r0, #1
    6c06:	4770      	bx	lr
    6c08:	2000      	movs	r0, #0
    6c0a:	4770      	bx	lr

00006c0c <__bhs_ui2d>:
    6c0c:	b910      	cbnz	r0, 6c14 <__bhs_ui2d+0x8>
    6c0e:	4603      	mov	r3, r0
    6c10:	4602      	mov	r2, r0
    6c12:	e01b      	b.n	6c4c <__bhs_ui2d+0x40>
    6c14:	0c03      	lsrs	r3, r0, #16
    6c16:	bf0c      	ite	eq
    6c18:	0400      	lsleq	r0, r0, #16
    6c1a:	f101 7180 	addne.w	r1, r1, #16777216	; 0x1000000
    6c1e:	0e03      	lsrs	r3, r0, #24
    6c20:	bf0c      	ite	eq
    6c22:	0200      	lsleq	r0, r0, #8
    6c24:	f501 0100 	addne.w	r1, r1, #8388608	; 0x800000
    6c28:	0f03      	lsrs	r3, r0, #28
    6c2a:	bf0c      	ite	eq
    6c2c:	0100      	lsleq	r0, r0, #4
    6c2e:	f501 0180 	addne.w	r1, r1, #4194304	; 0x400000
    6c32:	0f83      	lsrs	r3, r0, #30
    6c34:	bf0c      	ite	eq
    6c36:	0080      	lsleq	r0, r0, #2
    6c38:	f501 1100 	addne.w	r1, r1, #2097152	; 0x200000
    6c3c:	2800      	cmp	r0, #0
    6c3e:	bfac      	ite	ge
    6c40:	0040      	lslge	r0, r0, #1
    6c42:	f501 1180 	addlt.w	r1, r1, #1048576	; 0x100000
    6c46:	eb01 23e0 	add.w	r3, r1, r0, asr #11
    6c4a:	0542      	lsls	r2, r0, #21
    6c4c:	4610      	mov	r0, r2
    6c4e:	4619      	mov	r1, r3
    6c50:	4770      	bx	lr

00006c52 <__aeabi_i2d>:
    6c52:	f010 4100 	ands.w	r1, r0, #2147483648	; 0x80000000
    6c56:	bf18      	it	ne
    6c58:	4240      	negne	r0, r0
    6c5a:	f101 4180 	add.w	r1, r1, #1073741824	; 0x40000000
    6c5e:	f7ff bfd5 	b.w	6c0c <__bhs_ui2d>

00006c62 <__aeabi_dcmpeq>:
    6c62:	b510      	push	{r4, lr}
    6c64:	460c      	mov	r4, r1
    6c66:	4619      	mov	r1, r3
    6c68:	0063      	lsls	r3, r4, #1
    6c6a:	ea50 0e03 	orrs.w	lr, r0, r3
    6c6e:	d102      	bne.n	6c76 <__aeabi_dcmpeq+0x14>
    6c70:	ea52 0e41 	orrs.w	lr, r2, r1, lsl #1
    6c74:	d009      	beq.n	6c8a <__aeabi_dcmpeq+0x28>
    6c76:	428c      	cmp	r4, r1
    6c78:	d109      	bne.n	6c8e <__aeabi_dcmpeq+0x2c>
    6c7a:	4290      	cmp	r0, r2
    6c7c:	d107      	bne.n	6c8e <__aeabi_dcmpeq+0x2c>
    6c7e:	f513 1f00 	cmn.w	r3, #2097152	; 0x200000
    6c82:	bf8c      	ite	hi
    6c84:	2000      	movhi	r0, #0
    6c86:	2001      	movls	r0, #1
    6c88:	bd10      	pop	{r4, pc}
    6c8a:	2001      	movs	r0, #1
    6c8c:	bd10      	pop	{r4, pc}
    6c8e:	2000      	movs	r0, #0
    6c90:	bd10      	pop	{r4, pc}

00006c92 <__aeabi_dcmplt>:
    6c92:	b530      	push	{r4, r5, lr}
    6c94:	460d      	mov	r5, r1
    6c96:	461c      	mov	r4, r3
    6c98:	ea55 0304 	orrs.w	r3, r5, r4
    6c9c:	4601      	mov	r1, r0
    6c9e:	d40b      	bmi.n	6cb8 <__aeabi_dcmplt+0x26>
    6ca0:	0063      	lsls	r3, r4, #1
    6ca2:	f513 1f00 	cmn.w	r3, #2097152	; 0x200000
    6ca6:	d81e      	bhi.n	6ce6 <__aeabi_dcmplt+0x54>
    6ca8:	42a5      	cmp	r5, r4
    6caa:	d31a      	bcc.n	6ce2 <__aeabi_dcmplt+0x50>
    6cac:	d11b      	bne.n	6ce6 <__aeabi_dcmplt+0x54>
    6cae:	4290      	cmp	r0, r2
    6cb0:	bf2c      	ite	cs
    6cb2:	2000      	movcs	r0, #0
    6cb4:	2001      	movcc	r0, #1
    6cb6:	bd30      	pop	{r4, r5, pc}
    6cb8:	0068      	lsls	r0, r5, #1
    6cba:	f510 1f00 	cmn.w	r0, #2097152	; 0x200000
    6cbe:	d812      	bhi.n	6ce6 <__aeabi_dcmplt+0x54>
    6cc0:	0063      	lsls	r3, r4, #1
    6cc2:	f513 1f00 	cmn.w	r3, #2097152	; 0x200000
    6cc6:	d80e      	bhi.n	6ce6 <__aeabi_dcmplt+0x54>
    6cc8:	4308      	orrs	r0, r1
    6cca:	d102      	bne.n	6cd2 <__aeabi_dcmplt+0x40>
    6ccc:	ea52 0003 	orrs.w	r0, r2, r3
    6cd0:	d00a      	beq.n	6ce8 <__aeabi_dcmplt+0x56>
    6cd2:	42a5      	cmp	r5, r4
    6cd4:	d805      	bhi.n	6ce2 <__aeabi_dcmplt+0x50>
    6cd6:	d106      	bne.n	6ce6 <__aeabi_dcmplt+0x54>
    6cd8:	4291      	cmp	r1, r2
    6cda:	bf94      	ite	ls
    6cdc:	2000      	movls	r0, #0
    6cde:	2001      	movhi	r0, #1
    6ce0:	bd30      	pop	{r4, r5, pc}
    6ce2:	2001      	movs	r0, #1
    6ce4:	bd30      	pop	{r4, r5, pc}
    6ce6:	2000      	movs	r0, #0
    6ce8:	bd30      	pop	{r4, r5, pc}

00006cea <__aeabi_dcmple>:
    6cea:	b530      	push	{r4, r5, lr}
    6cec:	ea51 0403 	orrs.w	r4, r1, r3
    6cf0:	d40b      	bmi.n	6d0a <__aeabi_dcmple+0x20>
    6cf2:	005c      	lsls	r4, r3, #1
    6cf4:	f514 1f00 	cmn.w	r4, #2097152	; 0x200000
    6cf8:	d81f      	bhi.n	6d3a <__aeabi_dcmple+0x50>
    6cfa:	4299      	cmp	r1, r3
    6cfc:	d31b      	bcc.n	6d36 <__aeabi_dcmple+0x4c>
    6cfe:	d11c      	bne.n	6d3a <__aeabi_dcmple+0x50>
    6d00:	4290      	cmp	r0, r2
    6d02:	bf8c      	ite	hi
    6d04:	2000      	movhi	r0, #0
    6d06:	2001      	movls	r0, #1
    6d08:	bd30      	pop	{r4, r5, pc}
    6d0a:	004d      	lsls	r5, r1, #1
    6d0c:	f515 1f00 	cmn.w	r5, #2097152	; 0x200000
    6d10:	d813      	bhi.n	6d3a <__aeabi_dcmple+0x50>
    6d12:	005c      	lsls	r4, r3, #1
    6d14:	f514 1f00 	cmn.w	r4, #2097152	; 0x200000
    6d18:	d80f      	bhi.n	6d3a <__aeabi_dcmple+0x50>
    6d1a:	4299      	cmp	r1, r3
    6d1c:	d80b      	bhi.n	6d36 <__aeabi_dcmple+0x4c>
    6d1e:	d101      	bne.n	6d24 <__aeabi_dcmple+0x3a>
    6d20:	4290      	cmp	r0, r2
    6d22:	d208      	bcs.n	6d36 <__aeabi_dcmple+0x4c>
    6d24:	ea50 0305 	orrs.w	r3, r0, r5
    6d28:	d107      	bne.n	6d3a <__aeabi_dcmple+0x50>
    6d2a:	ea52 0304 	orrs.w	r3, r2, r4
    6d2e:	bf0c      	ite	eq
    6d30:	2001      	moveq	r0, #1
    6d32:	2000      	movne	r0, #0
    6d34:	bd30      	pop	{r4, r5, pc}
    6d36:	2001      	movs	r0, #1
    6d38:	bd30      	pop	{r4, r5, pc}
    6d3a:	2000      	movs	r0, #0
    6d3c:	bd30      	pop	{r4, r5, pc}

00006d3e <__aeabi_dcmpge>:
    6d3e:	b530      	push	{r4, r5, lr}
    6d40:	ea51 0403 	orrs.w	r4, r1, r3
    6d44:	ea4f 0441 	mov.w	r4, r1, lsl #1
    6d48:	d40a      	bmi.n	6d60 <__aeabi_dcmpge+0x22>
    6d4a:	f514 1f00 	cmn.w	r4, #2097152	; 0x200000
    6d4e:	d81e      	bhi.n	6d8e <__aeabi_dcmpge+0x50>
    6d50:	4299      	cmp	r1, r3
    6d52:	d81a      	bhi.n	6d8a <__aeabi_dcmpge+0x4c>
    6d54:	d11b      	bne.n	6d8e <__aeabi_dcmpge+0x50>
    6d56:	4290      	cmp	r0, r2
    6d58:	bf34      	ite	cc
    6d5a:	2000      	movcc	r0, #0
    6d5c:	2001      	movcs	r0, #1
    6d5e:	bd30      	pop	{r4, r5, pc}
    6d60:	f514 1f00 	cmn.w	r4, #2097152	; 0x200000
    6d64:	d813      	bhi.n	6d8e <__aeabi_dcmpge+0x50>
    6d66:	005d      	lsls	r5, r3, #1
    6d68:	f515 1f00 	cmn.w	r5, #2097152	; 0x200000
    6d6c:	d80f      	bhi.n	6d8e <__aeabi_dcmpge+0x50>
    6d6e:	4299      	cmp	r1, r3
    6d70:	d30b      	bcc.n	6d8a <__aeabi_dcmpge+0x4c>
    6d72:	d101      	bne.n	6d78 <__aeabi_dcmpge+0x3a>
    6d74:	4290      	cmp	r0, r2
    6d76:	d908      	bls.n	6d8a <__aeabi_dcmpge+0x4c>
    6d78:	ea50 0304 	orrs.w	r3, r0, r4
    6d7c:	d107      	bne.n	6d8e <__aeabi_dcmpge+0x50>
    6d7e:	ea52 0305 	orrs.w	r3, r2, r5
    6d82:	bf0c      	ite	eq
    6d84:	2001      	moveq	r0, #1
    6d86:	2000      	movne	r0, #0
    6d88:	bd30      	pop	{r4, r5, pc}
    6d8a:	2001      	movs	r0, #1
    6d8c:	bd30      	pop	{r4, r5, pc}
    6d8e:	2000      	movs	r0, #0
    6d90:	bd30      	pop	{r4, r5, pc}
    6d92:	Address 0x00006d92 is out of bounds.


00006d94 <__aeabi_f2d>:
    6d94:	10c3      	asrs	r3, r0, #3
    6d96:	f013 617f 	ands.w	r1, r3, #267386880	; 0xff00000
    6d9a:	d00a      	beq.n	6db2 <__aeabi_f2d+0x1e>
    6d9c:	f1b1 6f7f 	cmp.w	r1, #267386880	; 0xff00000
    6da0:	ea4f 7240 	mov.w	r2, r0, lsl #29
    6da4:	f043 43e0 	orr.w	r3, r3, #1879048192	; 0x70000000
    6da8:	d008      	beq.n	6dbc <__aeabi_f2d+0x28>
    6daa:	f103 4148 	add.w	r1, r3, #3355443200	; 0xc8000000
    6dae:	4610      	mov	r0, r2
    6db0:	4770      	bx	lr
    6db2:	f003 4300 	and.w	r3, r3, #2147483648	; 0x80000000
    6db6:	2000      	movs	r0, #0
    6db8:	4619      	mov	r1, r3
    6dba:	4770      	bx	lr
    6dbc:	ea52 3203 	orrs.w	r2, r2, r3, lsl #12
    6dc0:	4a01      	ldr	r2, [pc, #4]	; (6dc8 <__aeabi_f2d+0x34>)
    6dc2:	bf18      	it	ne
    6dc4:	4613      	movne	r3, r2
    6dc6:	e7f6      	b.n	6db6 <__aeabi_f2d+0x22>
    6dc8:	7ff80000 	.word	0x7ff80000

00006dcc <__aeabi_lowlevel_memset>:
    6dcc:	4603      	mov	r3, r0
    6dce:	f013 0f03 	tst.w	r3, #3
    6dd2:	d10e      	bne.n	6df2 <memset1a>
    6dd4:	f001 01ff 	and.w	r1, r1, #255	; 0xff
    6dd8:	ea41 2101 	orr.w	r1, r1, r1, lsl #8
    6ddc:	ea41 4101 	orr.w	r1, r1, r1, lsl #16

00006de0 <__bhs_memset4>:
    6de0:	3a04      	subs	r2, #4

00006de2 <memset4>:
    6de2:	bf24      	itt	cs
    6de4:	f843 1b04 	strcs.w	r1, [r3], #4
    6de8:	f1b2 0204 	subscs.w	r2, r2, #4
    6dec:	d2f9      	bcs.n	6de2 <memset4>

00006dee <memset1>:
    6dee:	f102 0204 	add.w	r2, r2, #4

00006df2 <memset1a>:
    6df2:	3a01      	subs	r2, #1
    6df4:	bf24      	itt	cs
    6df6:	f803 1b01 	strbcs.w	r1, [r3], #1
    6dfa:	e7fa      	bcs.n	6df2 <memset1a>
    6dfc:	4770      	bx	lr
    6dfe:	Address 0x00006dfe is out of bounds.


00006e00 <__exit>:
    6e00:	2018      	movs	r0, #24
    6e02:	4901      	ldr	r1, [pc, #4]	; (6e08 <__exit+0x8>)
    6e04:	beab      	bkpt	0x00ab
    6e06:	4770      	bx	lr
    6e08:	00020026 	.word	0x00020026

00006e0c <__sys_close>:
    6e0c:	b403      	push	{r0, r1}
    6e0e:	4669      	mov	r1, sp
    6e10:	2002      	movs	r0, #2
    6e12:	beab      	bkpt	0x00ab
    6e14:	b002      	add	sp, #8
    6e16:	4770      	bx	lr

00006e18 <__sys_flen>:
    6e18:	b403      	push	{r0, r1}
    6e1a:	4669      	mov	r1, sp
    6e1c:	200c      	movs	r0, #12
    6e1e:	beab      	bkpt	0x00ab
    6e20:	b002      	add	sp, #8
    6e22:	4770      	bx	lr

00006e24 <__sys_istty>:
    6e24:	b403      	push	{r0, r1}
    6e26:	4669      	mov	r1, sp
    6e28:	2009      	movs	r0, #9
    6e2a:	beab      	bkpt	0x00ab
    6e2c:	b002      	add	sp, #8
    6e2e:	4770      	bx	lr

00006e30 <__sys_remove>:
    6e30:	b403      	push	{r0, r1}
    6e32:	4669      	mov	r1, sp
    6e34:	200e      	movs	r0, #14
    6e36:	beab      	bkpt	0x00ab
    6e38:	b002      	add	sp, #8
    6e3a:	4770      	bx	lr

00006e3c <__sys_seek>:
    6e3c:	b403      	push	{r0, r1}
    6e3e:	4669      	mov	r1, sp
    6e40:	200a      	movs	r0, #10
    6e42:	beab      	bkpt	0x00ab
    6e44:	b002      	add	sp, #8
    6e46:	4770      	bx	lr

00006e48 <__sys_tmpnam>:
    6e48:	b40f      	push	{r0, r1, r2, r3}
    6e4a:	4669      	mov	r1, sp
    6e4c:	200d      	movs	r0, #13
    6e4e:	beab      	bkpt	0x00ab
    6e50:	b004      	add	sp, #16
    6e52:	4770      	bx	lr
    6e54:	74726f43 	.word	0x74726f43
    6e58:	4d207865 	.word	0x4d207865
    6e5c:	20372f34 	.word	0x20372f34
    6e60:	66726550 	.word	0x66726550
    6e64:	616d726f 	.word	0x616d726f
    6e68:	2065636e 	.word	0x2065636e
    6e6c:	74736554 	.word	0x74736554
    6e70:	00000a2e 	.word	0x00000a2e
    6e74:	20434347 	.word	0x20434347
    6e78:	73726556 	.word	0x73726556
    6e7c:	3a6e6f69 	.word	0x3a6e6f69
    6e80:	2e642520 	.word	0x2e642520
    6e84:	252e6425 	.word	0x252e6425
    6e88:	00000a64 	.word	0x00000a64
    6e8c:	64726148 	.word	0x64726148
    6e90:	00494241 	.word	0x00494241
    6e94:	00334f2d 	.word	0x00334f2d
    6e98:	3543504c 	.word	0x3543504c
    6e9c:	34313134 	.word	0x34313134
    6ea0:	00000000 	.word	0x00000000
    6ea4:	25207325 	.word	0x25207325
    6ea8:	73252073 	.word	0x73252073
    6eac:	0000000a 	.word	0x0000000a
    6eb0:	6c637943 	.word	0x6c637943
    6eb4:	664f2065 	.word	0x664f2065
    6eb8:	74657366 	.word	0x74657366
    6ebc:	6425203a 	.word	0x6425203a
    6ec0:	0000000a 	.word	0x0000000a
    6ec4:	6f6c420d 	.word	0x6f6c420d
    6ec8:	50206b63 	.word	0x50206b63
    6ecc:	65636f72 	.word	0x65636f72
    6ed0:	6e697373 	.word	0x6e697373
    6ed4:	75462067 	.word	0x75462067
    6ed8:	6974636e 	.word	0x6974636e
    6edc:	0d736e6f 	.word	0x0d736e6f
    6ee0:	00000000 	.word	0x00000000
    6ee4:	676e654c 	.word	0x676e654c
    6ee8:	31096874 	.word	0x31096874
    6eec:	32330936 	.word	0x32330936
    6ef0:	09343609 	.word	0x09343609
    6ef4:	09383231 	.word	0x09383231
    6ef8:	09363532 	.word	0x09363532
    6efc:	09323135 	.word	0x09323135
    6f00:	34323031 	.word	0x34323031
    6f04:	34303209 	.word	0x34303209
    6f08:	30340938 	.word	0x30340938
    6f0c:	00003639 	.word	0x00003639
    6f10:	4646430a 	.word	0x4646430a
    6f14:	33662d54 	.word	0x33662d54
    6f18:	69422d32 	.word	0x69422d32
    6f1c:	76655274 	.word	0x76655274
    6f20:	65737265 	.word	0x65737265
    6f24:	00000009 	.word	0x00000009
    6f28:	00006925 	.word	0x00006925
    6f2c:	54464643 	.word	0x54464643
    6f30:	3233662d 	.word	0x3233662d
    6f34:	426f4e2d 	.word	0x426f4e2d
    6f38:	65527469 	.word	0x65527469
    6f3c:	73726576 	.word	0x73726576
    6f40:	00000965 	.word	0x00000965
    6f44:	706d6f43 	.word	0x706d6f43
    6f48:	4d78656c 	.word	0x4d78656c
    6f4c:	662d6761 	.word	0x662d6761
    6f50:	00093233 	.word	0x00093233
    6f54:	706d6f43 	.word	0x706d6f43
    6f58:	4d78656c 	.word	0x4d78656c
    6f5c:	71536761 	.word	0x71536761
    6f60:	65726175 	.word	0x65726175
    6f64:	33662d64 	.word	0x33662d64
    6f68:	00000932 	.word	0x00000932
    6f6c:	72656f47 	.word	0x72656f47
    6f70:	6c657a74 	.word	0x6c657a74
    6f74:	3233665f 	.word	0x3233665f
    6f78:	0000095f 	.word	0x0000095f
    6f7c:	2d524949 	.word	0x2d524949
    6f80:	5f323366 	.word	0x5f323366
    6f84:	2d316664 	.word	0x2d316664
    6f88:	61745331 	.word	0x61745331
    6f8c:	00096567 	.word	0x00096567
    6f90:	2d524949 	.word	0x2d524949
    6f94:	5f323366 	.word	0x5f323366
    6f98:	54326664 	.word	0x54326664
    6f9c:	7453312d 	.word	0x7453312d
    6fa0:	09656761 	.word	0x09656761
    6fa4:	00000000 	.word	0x00000000
    6fa8:	2d524946 	.word	0x2d524946
    6fac:	5f323366 	.word	0x5f323366
    6fb0:	70617438 	.word	0x70617438
    6fb4:	00000009 	.word	0x00000009
    6fb8:	00612f6e 	.word	0x00612f6e
    6fbc:	2d524946 	.word	0x2d524946
    6fc0:	5f323366 	.word	0x5f323366
    6fc4:	61743631 	.word	0x61743631
    6fc8:	00000970 	.word	0x00000970
    6fcc:	2d524946 	.word	0x2d524946
    6fd0:	5f323366 	.word	0x5f323366
    6fd4:	61743233 	.word	0x61743233
    6fd8:	00000970 	.word	0x00000970
    6fdc:	61530d0d 	.word	0x61530d0d
    6fe0:	656c706d 	.word	0x656c706d
    6fe4:	20796220 	.word	0x20796220
    6fe8:	706d6153 	.word	0x706d6153
    6fec:	5420656c 	.word	0x5420656c
    6ff0:	73747365 	.word	0x73747365
    6ff4:	00000000 	.word	0x00000000
    6ff8:	6574490d 	.word	0x6574490d
    6ffc:	69746172 	.word	0x69746172
    7000:	30096e6f 	.word	0x30096e6f
    7004:	32093109 	.word	0x32093109
    7008:	34093309 	.word	0x34093309
    700c:	36093509 	.word	0x36093509
    7010:	000d3709 	.word	0x000d3709
    7014:	2d444950 	.word	0x2d444950
    7018:	09323366 	.word	0x09323366
    701c:	00000000 	.word	0x00000000

00007020 <ExtClockIn>:
    7020:	00000000                                ....

00007024 <tstBits>:
    7024:	07000600                                ....

00007028 <btnBits>:
    7028:	04001f00 ffff1800                       ........

00007030 <ledBits>:
    7030:	0a011d00 ffff0901                       ........

00007038 <pinmuxing>:
    7038:	00901d00 00900901 00900a01 00901f00     ................
    7048:	00900400 00901800 00870601 01810000     ................
    7058:	01810100 00800600 00800700 00820f00     ................
    7068:	281e0f00 5a50463c 82786e64 a096918c     ...(<FPZdnx.....
    7078:	b9b4aaa5 d2cdc8be ebe6e1dc ff00f5f0     ................

00007088 <arm_cfft_sR_f32_len256>:
    7088:	00000100 0000b188 00014060 000001b8     ........`@......

00007098 <arm_cfft_sR_f32_len2048>:
    7098:	00000800 00007118 0000fda0 00000ee0     .....q..........

000070a8 <arm_cfft_sR_f32_len16>:
    70a8:	00000010 0000b988 0000e918 00000014     ................

000070b8 <arm_cfft_sR_f32_len32>:
    70b8:	00000020 0000da08 0000e940 00000030      .......@...0...

000070c8 <arm_cfft_sR_f32_len64>:
    70c8:	00000040 00011b60 0000b118 00000038     @...`.......8...

000070d8 <arm_cfft_sR_f32_len1024>:
    70d8:	00000400 0000ba08 0000db08 00000708     ................

000070e8 <arm_cfft_sR_f32_len128>:
    70e8:	00000080 0000e9a0 000143d0 000000d0     .........C......

000070f8 <arm_cfft_sR_f32_len512>:
    70f8:	00000200 0000eda0 00013ce0 000001c0     .........<......

00007108 <arm_cfft_sR_f32_len4096>:
    7108:	00001000 00014570 00011d60 00000fc0     ....pE..`.......

00007118 <twiddleCoef_2048>:
    7118:	3f800000 00000000 3f7fffb1 3b490fc7     ...?.......?..I;
    7128:	3f7ffec4 3bc90f89 3f7ffd39 3c16cb59     ...?...;9..?Y..<
    7138:	3f7ffb11 3c490e90 3f7ff84a 3c7b514b     ...?..I<J..?KQ{<
    7148:	3f7ff4e6 3c96c9b6 3f7ff0e3 3cafea69     ...?...<...?i..<
    7158:	3f7fec43 3cc90ab0 3f7fe705 3ce22a7b     C..?...<...?{*.<
    7168:	3f7fe129 3cfb49b9 3f7fdaaf 3d0a342f     )..?.I.<...?/4.=
    7178:	3f7fd398 3d16c32c 3f7fcbe2 3d2351cc     ...?,..=...?.Q#=
    7188:	3f7fc38f 3d2fe007 3f7fba9e 3d3c6dd5     ...?../=...?.m<=
    7198:	3f7fb10f 3d48fb2f 3f7fa6e3 3d55880e     ...?/.H=...?..U=
    71a8:	3f7f9c18 3d621468 3f7f90b1 3d6ea038     ...?h.b=...?8.n=
    71b8:	3f7f84ab 3d7b2b74 3f7f7808 3d83db0a     ...?t+{=.x.?...=
    71c8:	3f7f6ac7 3d8a200a 3f7f5ce9 3d9064b4     .j.?. .=.\.?.d.=
    71d8:	3f7f4e6d 3d96a905 3f7f3f54 3d9cecf9     mN.?...=T?.?...=
    71e8:	3f7f2f9d 3da3308c 3f7f1f49 3da973ba     ./.?.0.=I..?.s.=
    71f8:	3f7f0e58 3dafb680 3f7efcc9 3db5f8da     X..?...=..~?...=
    7208:	3f7eea9d 3dbc3ac3 3f7ed7d4 3dc27c39     ..~?.:.=..~?9|.=
    7218:	3f7ec46d 3dc8bd36 3f7eb069 3dcefdb7     m.~?6..=i.~?...=
    7228:	3f7e9bc9 3dd53db9 3f7e868b 3ddb7d37     ..~?.=.=..~?7}.=
    7238:	3f7e70b0 3de1bc2e 3f7e5a38 3de7fa9a     .p~?...=8Z~?...=
    7248:	3f7e4323 3dee3876 3f7e2b72 3df475c0     #C~?v8.=r+~?.u.=
    7258:	3f7e1324 3dfab273 3f7dfa38 3e007745     $.~?s..=8.}?Ew.>
    7268:	3f7de0b1 3e039502 3f7dc68c 3e06b26e     ..}?...>..}?n..>
    7278:	3f7dabcc 3e09cf86 3f7d906e 3e0cec4a     ..}?...>n.}?J..>
    7288:	3f7d7474 3e1008b7 3f7d57de 3e1324ca     tt}?...>.W}?.$.>
    7298:	3f7d3aac 3e164083 3f7d1cdd 3e195be0     .:}?.@.>..}?.[.>
    72a8:	3f7cfe73 3e1c76de 3f7cdf6c 3e1f917b     s.|?.v.>l.|?{..>
    72b8:	3f7cbfc9 3e22abb6 3f7c9f8a 3e25c58c     ..|?..">..|?..%>
    72c8:	3f7c7eb0 3e28defc 3f7c5d3a 3e2bf804     .~|?..(>:]|?..+>
    72d8:	3f7c3b28 3e2f10a2 3f7c187a 3e3228d4     (;|?../>z.|?.(2>
    72e8:	3f7bf531 3e354098 3f7bd14d 3e3857ec     1.{?.@5>M.{?.W8>
    72f8:	3f7baccd 3e3b6ecf 3f7b87b2 3e3e853e     ..{?.n;>..{?>.>>
    7308:	3f7b61fc 3e419b37 3f7b3bab 3e44b0b9     .a{?7.A>.;{?..D>
    7318:	3f7b14be 3e47c5c2 3f7aed37 3e4ada4f     ..{?..G>7.z?O.J>
    7328:	3f7ac516 3e4dee60 3f7a9c59 3e5101f1     ..z?`.M>Y.z?..Q>
    7338:	3f7a7302 3e541501 3f7a4910 3e57278f     .sz?..T>.Iz?.'W>
    7348:	3f7a1e84 3e5a3997 3f79f35e 3e5d4b1a     ..z?.9Z>^.y?.K]>
    7358:	3f79c79d 3e605c13 3f799b43 3e636c83     ..y?.\`>C.y?.lc>
    7368:	3f796e4e 3e667c66 3f7940c0 3e698bba     Nny?f|f>.@y?..i>
    7378:	3f791298 3e6c9a7f 3f78e3d6 3e6fa8b2     ..y?..l>..x?..o>
    7388:	3f78b47b 3e72b651 3f788486 3e75c35a     {.x?Q.r>..x?Z.u>
    7398:	3f7853f8 3e78cfcc 3f7822d1 3e7bdba4     .Sx?..x>."x?..{>
    73a8:	3f77f110 3e7ee6e1 3f77beb7 3e80f8c0     ..w?..~>..w?...>
    73b8:	3f778bc5 3e827dc0 3f77583a 3e840270     ..w?.}.>:Xw?p..>
    73c8:	3f772417 3e8586ce 3f76ef5b 3e870ada     .$w?...>[.v?...>
    73d8:	3f76ba07 3e888e93 3f76841b 3e8a11f8     ..v?...>..v?...>
    73e8:	3f764d97 3e8b9507 3f76167a 3e8d17c0     .Mv?...>z.v?...>
    73f8:	3f75dec6 3e8e9a22 3f75a67b 3e901c2c     ..u?"..>{.u?,..>
    7408:	3f756d97 3e919ddd 3f75341d 3e931f35     .mu?...>.4u?5..>
    7418:	3f74fa0b 3e94a031 3f74bf62 3e9620d2     ..t?1..>b.t?. .>
    7428:	3f748422 3e97a117 3f74484b 3e9920fe     ".t?...>KHt?. .>
    7438:	3f740bdd 3e9aa086 3f73ced9 3e9c1faf     ..t?...>..s?...>
    7448:	3f73913f 3e9d9e78 3f73530e 3e9f1cdf     ?.s?x..>.Ss?...>
    7458:	3f731447 3ea09ae5 3f72d4eb 3ea21887     G.s?...>..r?...>
    7468:	3f7294f8 3ea395c5 3f725470 3ea5129f     ..r?...>pTr?...>
    7478:	3f721352 3ea68f12 3f71d19f 3ea80b1f     R.r?...>..q?...>
    7488:	3f718f57 3ea986c4 3f714c7a 3eab0201     W.q?...>zLq?...>
    7498:	3f710908 3eac7cd4 3f70c502 3eadf73c     ..q?.|.>..p?<..>
    74a8:	3f708066 3eaf713a 3f703b37 3eb0eacb     f.p?:q.>7;p?...>
    74b8:	3f6ff573 3eb263ef 3f6faf1b 3eb3dca5     s.o?.c.>..o?...>
    74c8:	3f6f6830 3eb554ec 3f6f20b0 3eb6ccc3     0ho?.T.>. o?...>
    74d8:	3f6ed89e 3eb8442a 3f6e8ff8 3eb9bb1e     ..n?*D.>..n?...>
    74e8:	3f6e46be 3ebb31a0 3f6dfcf2 3ebca7af     .Fn?.1.>..m?...>
    74f8:	3f6db293 3ebe1d4a 3f6d67a1 3ebf926f     ..m?J..>.gm?o..>
    7508:	3f6d1c1d 3ec1071e 3f6cd007 3ec27b55     ..m?...>..l?U{.>
    7518:	3f6c835e 3ec3ef15 3f6c3624 3ec5625c     ^.l?...>$6l?\b.>
    7528:	3f6be858 3ec6d529 3f6b99fb 3ec8477c     X.k?)..>..k?|G.>
    7538:	3f6b4b0c 3ec9b953 3f6afb8c 3ecb2aae     .Kk?S..>..j?.*.>
    7548:	3f6aab7b 3ecc9b8b 3f6a5ad9 3ece0bea     {.j?...>.Zj?...>
    7558:	3f6a09a7 3ecf7bca 3f69b7e4 3ed0eb2a     ..j?.{.>..i?*..>
    7568:	3f696591 3ed25a09 3f6912ae 3ed3c867     .ei?.Z.>..i?g..>
    7578:	3f68bf3c 3ed53641 3f686b39 3ed6a399     <.h?A6.>9kh?...>
    7588:	3f6816a8 3ed8106b 3f67c187 3ed97cb9     ..h?k..>..g?.|.>
    7598:	3f676bd8 3edae880 3f671599 3edc53c1     .kg?...>..g?.S.>
    75a8:	3f66becc 3eddbe79 3f666771 3edf28a9     ..f?y..>qgf?.(.>
    75b8:	3f660f88 3ee0924f 3f65b710 3ee1fb6a     ..f?O..>..e?j..>
    75c8:	3f655e0b 3ee363fa 3f650479 3ee4cbfe     .^e?.c.>y.e?...>
    75d8:	3f64aa59 3ee63375 3f644fac 3ee79a5d     Y.d?u3.>.Od?]..>
    75e8:	3f63f473 3ee900b7 3f6398ac 3eea6681     s.c?...>..c?.f.>
    75f8:	3f633c5a 3eebcbbb 3f62df7b 3eed3063     Z<c?...>{.b?c0.>
    7608:	3f628210 3eee9479 3f62241a 3eeff7fb     ..b?y..>.$b?...>
    7618:	3f61c598 3ef15aea 3f61668a 3ef2bd43     ..a?.Z.>.fa?C..>
    7628:	3f6106f2 3ef41f07 3f60a6cf 3ef58035     ..a?...>..`?5..>
    7638:	3f604621 3ef6e0cb 3f5fe4e9 3ef840c8     !F`?...>.._?.@.>
    7648:	3f5f8327 3ef9a02d 3f5f20db 3efafef7     '._?-..>. _?...>
    7658:	3f5ebe05 3efc5d27 3f5e5aa6 3efdbabb     ..^?'].>.Z^?...>
    7668:	3f5df6be 3eff17b2 3f5d924d 3f003a06     ..]?...>M.]?.:.?
    7678:	3f5d2d53 3f00e7e4 3f5cc7d1 3f019573     S-]?...?..\?s..?
    7688:	3f5c61c7 3f0242b1 3f5bfb34 3f02ef9f     .a\?.B.?4.[?...?
    7698:	3f5b941a 3f039c3d 3f5b2c79 3f044889     ..[?=..?y,[?.H.?
    76a8:	3f5ac450 3f04f484 3f5a5ba0 3f05a02c     P.Z?...?.[Z?,..?
    76b8:	3f59f26a 3f064b82 3f5988ad 3f06f686     j.Y?.K.?..Y?...?
    76c8:	3f591e6a 3f07a136 3f58b3a1 3f084b92     j.Y?6..?..X?.K.?
    76d8:	3f584853 3f08f59b 3f57dc7f 3f099f4e     SHX?...?..W?N..?
    76e8:	3f577026 3f0a48ad 3f570348 3f0af1b7     &pW?.H.?H.W?...?
    76f8:	3f5695e5 3f0b9a6b 3f5627fe 3f0c42c9     ..V?k..?.'V?.B.?
    7708:	3f55b993 3f0cead0 3f554aa4 3f0d9281     ..U?...?.JU?...?
    7718:	3f54db31 3f0e39da 3f546b3b 3f0ee0db     1.T?.9.?;kT?...?
    7728:	3f53fac3 3f0f8784 3f5389c7 3f102dd5     ..S?...?..S?.-.?
    7738:	3f531849 3f10d3cd 3f52a649 3f11796b     I.S?...?I.R?ky.?
    7748:	3f5233c6 3f121eb0 3f51c0c2 3f12c39a     .3R?...?..Q?...?
    7758:	3f514d3d 3f13682a 3f50d937 3f140c5f     =MQ?*h.?7.P?_..?
    7768:	3f5064af 3f14b039 3f4fefa8 3f1553b7     .dP?9..?..O?.S.?
    7778:	3f4f7a1f 3f15f6d9 3f4f0417 3f16999f     .zO?...?..O?...?
    7788:	3f4e8d90 3f173c07 3f4e1689 3f17de12     ..N?.<.?..N?...?
    7798:	3f4d9f02 3f187fc0 3f4d26fd 3f19210f     ..M?...?.&M?.!.?
    77a8:	3f4cae79 3f19c200 3f4c3578 3f1a6293     y.L?...?x5L?.b.?
    77b8:	3f4bbbf8 3f1b02c6 3f4b41fa 3f1ba299     ..K?...?.AK?...?
    77c8:	3f4ac77f 3f1c420c 3f4a4c87 3f1ce11f     ..J?.B.?.LJ?...?
    77d8:	3f49d112 3f1d7fd1 3f495521 3f1e1e22     ..I?...?!UI?"..?
    77e8:	3f48d8b3 3f1ebc12 3f485bca 3f1f599f     ..H?...?.[H?.Y.?
    77f8:	3f47de65 3f1ff6cb 3f476085 3f209393     e.G?...?.`G?.. ?
    7808:	3f46e22a 3f212ff9 3f466354 3f21cbfb     *.F?./!?TcF?..!?
    7818:	3f45e403 3f226799 3f456439 3f2302d3     ..E?.g"?9dE?..#?
    7828:	3f44e3f5 3f239da9 3f446337 3f24381a     ..D?..#?7cD?.8$?
    7838:	3f43e200 3f24d225 3f436051 3f256bcb     ..C?%.$?Q`C?.k%?
    7848:	3f42de29 3f26050a 3f425b89 3f269de3     ).B?..&?.[B?..&?
    7858:	3f41d870 3f273656 3f4154e1 3f27ce61     p.A?V6'?.TA?a.'?
    7868:	3f40d0da 3f286605 3f404c5c 3f28fd41     ..@?.f(?\L@?A.(?
    7878:	3f3fc767 3f299415 3f3f41fc 3f2a2a80     g.??..)?.A??.**?
    7888:	3f3ebc1b 3f2ac082 3f3e35c5 3f2b561b     ..>?..*?.5>?.V+?
    7898:	3f3daef9 3f2beb4a 3f3d27b8 3f2c800f     ..=?J.+?.'=?..,?
    78a8:	3f3ca003 3f2d1469 3f3c17d9 3f2da859     ..<?i.-?..<?Y.-?
    78b8:	3f3b8f3b 3f2e3bde 3f3b0629 3f2ecef7     ;.;?.;.?).;?...?
    78c8:	3f3a7ca4 3f2f61a5 3f39f2ac 3f2ff3e6     .|:?.a/?..9?../?
    78d8:	3f396842 3f3085bb 3f38dd65 3f311722     Bh9?..0?e.8?".1?
    78e8:	3f385216 3f31a81d 3f37c655 3f3238aa     .R8?..1?U.7?.82?
    78f8:	3f373a23 3f32c8c9 3f36ad7f 3f33587a     #:7?..2?..6?zX3?
    7908:	3f36206c 3f33e7bc 3f3592e7 3f34768f     l 6?..3?..5?.v4?
    7918:	3f3504f3 3f3504f3 3f34768f 3f3592e7     ..5?..5?.v4?..5?
    7928:	3f33e7bc 3f36206c 3f33587a 3f36ad7f     ..3?l 6?zX3?..6?
    7938:	3f32c8c9 3f373a23 3f3238aa 3f37c655     ..2?#:7?.82?U.7?
    7948:	3f31a81d 3f385216 3f311722 3f38dd65     ..1?.R8?".1?e.8?
    7958:	3f3085bb 3f396842 3f2ff3e6 3f39f2ac     ..0?Bh9?../?..9?
    7968:	3f2f61a5 3f3a7ca4 3f2ecef7 3f3b0629     .a/?.|:?...?).;?
    7978:	3f2e3bde 3f3b8f3b 3f2da859 3f3c17d9     .;.?;.;?Y.-?..<?
    7988:	3f2d1469 3f3ca003 3f2c800f 3f3d27b8     i.-?..<?..,?.'=?
    7998:	3f2beb4a 3f3daef9 3f2b561b 3f3e35c5     J.+?..=?.V+?.5>?
    79a8:	3f2ac082 3f3ebc1b 3f2a2a80 3f3f41fc     ..*?..>?.**?.A??
    79b8:	3f299415 3f3fc767 3f28fd41 3f404c5c     ..)?g.??A.(?\L@?
    79c8:	3f286605 3f40d0da 3f27ce61 3f4154e1     .f(?..@?a.'?.TA?
    79d8:	3f273656 3f41d870 3f269de3 3f425b89     V6'?p.A?..&?.[B?
    79e8:	3f26050a 3f42de29 3f256bcb 3f436051     ..&?).B?.k%?Q`C?
    79f8:	3f24d225 3f43e200 3f24381a 3f446337     %.$?..C?.8$?7cD?
    7a08:	3f239da9 3f44e3f5 3f2302d3 3f456439     ..#?..D?..#?9dE?
    7a18:	3f226799 3f45e403 3f21cbfb 3f466354     .g"?..E?..!?TcF?
    7a28:	3f212ff9 3f46e22a 3f209393 3f476085     ./!?*.F?.. ?.`G?
    7a38:	3f1ff6cb 3f47de65 3f1f599f 3f485bca     ...?e.G?.Y.?.[H?
    7a48:	3f1ebc12 3f48d8b3 3f1e1e22 3f495521     ...?..H?"..?!UI?
    7a58:	3f1d7fd1 3f49d112 3f1ce11f 3f4a4c87     ...?..I?...?.LJ?
    7a68:	3f1c420c 3f4ac77f 3f1ba299 3f4b41fa     .B.?..J?...?.AK?
    7a78:	3f1b02c6 3f4bbbf8 3f1a6293 3f4c3578     ...?..K?.b.?x5L?
    7a88:	3f19c200 3f4cae79 3f19210f 3f4d26fd     ...?y.L?.!.?.&M?
    7a98:	3f187fc0 3f4d9f02 3f17de12 3f4e1689     ...?..M?...?..N?
    7aa8:	3f173c07 3f4e8d90 3f16999f 3f4f0417     .<.?..N?...?..O?
    7ab8:	3f15f6d9 3f4f7a1f 3f1553b7 3f4fefa8     ...?.zO?.S.?..O?
    7ac8:	3f14b039 3f5064af 3f140c5f 3f50d937     9..?.dP?_..?7.P?
    7ad8:	3f13682a 3f514d3d 3f12c39a 3f51c0c2     *h.?=MQ?...?..Q?
    7ae8:	3f121eb0 3f5233c6 3f11796b 3f52a649     ...?.3R?ky.?I.R?
    7af8:	3f10d3cd 3f531849 3f102dd5 3f5389c7     ...?I.S?.-.?..S?
    7b08:	3f0f8784 3f53fac3 3f0ee0db 3f546b3b     ...?..S?...?;kT?
    7b18:	3f0e39da 3f54db31 3f0d9281 3f554aa4     .9.?1.T?...?.JU?
    7b28:	3f0cead0 3f55b993 3f0c42c9 3f5627fe     ...?..U?.B.?.'V?
    7b38:	3f0b9a6b 3f5695e5 3f0af1b7 3f570348     k..?..V?...?H.W?
    7b48:	3f0a48ad 3f577026 3f099f4e 3f57dc7f     .H.?&pW?N..?..W?
    7b58:	3f08f59b 3f584853 3f084b92 3f58b3a1     ...?SHX?.K.?..X?
    7b68:	3f07a136 3f591e6a 3f06f686 3f5988ad     6..?j.Y?...?..Y?
    7b78:	3f064b82 3f59f26a 3f05a02c 3f5a5ba0     .K.?j.Y?,..?.[Z?
    7b88:	3f04f484 3f5ac450 3f044889 3f5b2c79     ...?P.Z?.H.?y,[?
    7b98:	3f039c3d 3f5b941a 3f02ef9f 3f5bfb34     =..?..[?...?4.[?
    7ba8:	3f0242b1 3f5c61c7 3f019573 3f5cc7d1     .B.?.a\?s..?..\?
    7bb8:	3f00e7e4 3f5d2d53 3f003a06 3f5d924d     ...?S-]?.:.?M.]?
    7bc8:	3eff17b2 3f5df6be 3efdbabb 3f5e5aa6     ...>..]?...>.Z^?
    7bd8:	3efc5d27 3f5ebe05 3efafef7 3f5f20db     '].>..^?...>. _?
    7be8:	3ef9a02d 3f5f8327 3ef840c8 3f5fe4e9     -..>'._?.@.>.._?
    7bf8:	3ef6e0cb 3f604621 3ef58035 3f60a6cf     ...>!F`?5..>..`?
    7c08:	3ef41f07 3f6106f2 3ef2bd43 3f61668a     ...>..a?C..>.fa?
    7c18:	3ef15aea 3f61c598 3eeff7fb 3f62241a     .Z.>..a?...>.$b?
    7c28:	3eee9479 3f628210 3eed3063 3f62df7b     y..>..b?c0.>{.b?
    7c38:	3eebcbbb 3f633c5a 3eea6681 3f6398ac     ...>Z<c?.f.>..c?
    7c48:	3ee900b7 3f63f473 3ee79a5d 3f644fac     ...>s.c?]..>.Od?
    7c58:	3ee63375 3f64aa59 3ee4cbfe 3f650479     u3.>Y.d?...>y.e?
    7c68:	3ee363fa 3f655e0b 3ee1fb6a 3f65b710     .c.>.^e?j..>..e?
    7c78:	3ee0924f 3f660f88 3edf28a9 3f666771     O..>..f?.(.>qgf?
    7c88:	3eddbe79 3f66becc 3edc53c1 3f671599     y..>..f?.S.>..g?
    7c98:	3edae880 3f676bd8 3ed97cb9 3f67c187     ...>.kg?.|.>..g?
    7ca8:	3ed8106b 3f6816a8 3ed6a399 3f686b39     k..>..h?...>9kh?
    7cb8:	3ed53641 3f68bf3c 3ed3c867 3f6912ae     A6.><.h?g..>..i?
    7cc8:	3ed25a09 3f696591 3ed0eb2a 3f69b7e4     .Z.>.ei?*..>..i?
    7cd8:	3ecf7bca 3f6a09a7 3ece0bea 3f6a5ad9     .{.>..j?...>.Zj?
    7ce8:	3ecc9b8b 3f6aab7b 3ecb2aae 3f6afb8c     ...>{.j?.*.>..j?
    7cf8:	3ec9b953 3f6b4b0c 3ec8477c 3f6b99fb     S..>.Kk?|G.>..k?
    7d08:	3ec6d529 3f6be858 3ec5625c 3f6c3624     )..>X.k?\b.>$6l?
    7d18:	3ec3ef15 3f6c835e 3ec27b55 3f6cd007     ...>^.l?U{.>..l?
    7d28:	3ec1071e 3f6d1c1d 3ebf926f 3f6d67a1     ...>..m?o..>.gm?
    7d38:	3ebe1d4a 3f6db293 3ebca7af 3f6dfcf2     J..>..m?...>..m?
    7d48:	3ebb31a0 3f6e46be 3eb9bb1e 3f6e8ff8     .1.>.Fn?...>..n?
    7d58:	3eb8442a 3f6ed89e 3eb6ccc3 3f6f20b0     *D.>..n?...>. o?
    7d68:	3eb554ec 3f6f6830 3eb3dca5 3f6faf1b     .T.>0ho?...>..o?
    7d78:	3eb263ef 3f6ff573 3eb0eacb 3f703b37     .c.>s.o?...>7;p?
    7d88:	3eaf713a 3f708066 3eadf73c 3f70c502     :q.>f.p?<..>..p?
    7d98:	3eac7cd4 3f710908 3eab0201 3f714c7a     .|.>..q?...>zLq?
    7da8:	3ea986c4 3f718f57 3ea80b1f 3f71d19f     ...>W.q?...>..q?
    7db8:	3ea68f12 3f721352 3ea5129f 3f725470     ...>R.r?...>pTr?
    7dc8:	3ea395c5 3f7294f8 3ea21887 3f72d4eb     ...>..r?...>..r?
    7dd8:	3ea09ae5 3f731447 3e9f1cdf 3f73530e     ...>G.s?...>.Ss?
    7de8:	3e9d9e78 3f73913f 3e9c1faf 3f73ced9     x..>?.s?...>..s?
    7df8:	3e9aa086 3f740bdd 3e9920fe 3f74484b     ...>..t?. .>KHt?
    7e08:	3e97a117 3f748422 3e9620d2 3f74bf62     ...>".t?. .>b.t?
    7e18:	3e94a031 3f74fa0b 3e931f35 3f75341d     1..>..t?5..>.4u?
    7e28:	3e919ddd 3f756d97 3e901c2c 3f75a67b     ...>.mu?,..>{.u?
    7e38:	3e8e9a22 3f75dec6 3e8d17c0 3f76167a     "..>..u?...>z.v?
    7e48:	3e8b9507 3f764d97 3e8a11f8 3f76841b     ...>.Mv?...>..v?
    7e58:	3e888e93 3f76ba07 3e870ada 3f76ef5b     ...>..v?...>[.v?
    7e68:	3e8586ce 3f772417 3e840270 3f77583a     ...>.$w?p..>:Xw?
    7e78:	3e827dc0 3f778bc5 3e80f8c0 3f77beb7     .}.>..w?...>..w?
    7e88:	3e7ee6e1 3f77f110 3e7bdba4 3f7822d1     ..~>..w?..{>."x?
    7e98:	3e78cfcc 3f7853f8 3e75c35a 3f788486     ..x>.Sx?Z.u>..x?
    7ea8:	3e72b651 3f78b47b 3e6fa8b2 3f78e3d6     Q.r>{.x?..o>..x?
    7eb8:	3e6c9a7f 3f791298 3e698bba 3f7940c0     ..l>..y?..i>.@y?
    7ec8:	3e667c66 3f796e4e 3e636c83 3f799b43     f|f>Nny?.lc>C.y?
    7ed8:	3e605c13 3f79c79d 3e5d4b1a 3f79f35e     .\`>..y?.K]>^.y?
    7ee8:	3e5a3997 3f7a1e84 3e57278f 3f7a4910     .9Z>..z?.'W>.Iz?
    7ef8:	3e541501 3f7a7302 3e5101f1 3f7a9c59     ..T>.sz?..Q>Y.z?
    7f08:	3e4dee60 3f7ac516 3e4ada4f 3f7aed37     `.M>..z?O.J>7.z?
    7f18:	3e47c5c2 3f7b14be 3e44b0b9 3f7b3bab     ..G>..{?..D>.;{?
    7f28:	3e419b37 3f7b61fc 3e3e853e 3f7b87b2     7.A>.a{?>.>>..{?
    7f38:	3e3b6ecf 3f7baccd 3e3857ec 3f7bd14d     .n;>..{?.W8>M.{?
    7f48:	3e354098 3f7bf531 3e3228d4 3f7c187a     .@5>1.{?.(2>z.|?
    7f58:	3e2f10a2 3f7c3b28 3e2bf804 3f7c5d3a     ../>(;|?..+>:]|?
    7f68:	3e28defc 3f7c7eb0 3e25c58c 3f7c9f8a     ..(>.~|?..%>..|?
    7f78:	3e22abb6 3f7cbfc9 3e1f917b 3f7cdf6c     ..">..|?{..>l.|?
    7f88:	3e1c76de 3f7cfe73 3e195be0 3f7d1cdd     .v.>s.|?.[.>..}?
    7f98:	3e164083 3f7d3aac 3e1324ca 3f7d57de     .@.>.:}?.$.>.W}?
    7fa8:	3e1008b7 3f7d7474 3e0cec4a 3f7d906e     ...>tt}?J..>n.}?
    7fb8:	3e09cf86 3f7dabcc 3e06b26e 3f7dc68c     ...>..}?n..>..}?
    7fc8:	3e039502 3f7de0b1 3e007745 3f7dfa38     ...>..}?Ew.>8.}?
    7fd8:	3dfab273 3f7e1324 3df475c0 3f7e2b72     s..=$.~?.u.=r+~?
    7fe8:	3dee3876 3f7e4323 3de7fa9a 3f7e5a38     v8.=#C~?...=8Z~?
    7ff8:	3de1bc2e 3f7e70b0 3ddb7d37 3f7e868b     ...=.p~?7}.=..~?
    8008:	3dd53db9 3f7e9bc9 3dcefdb7 3f7eb069     .=.=..~?...=i.~?
    8018:	3dc8bd36 3f7ec46d 3dc27c39 3f7ed7d4     6..=m.~?9|.=..~?
    8028:	3dbc3ac3 3f7eea9d 3db5f8da 3f7efcc9     .:.=..~?...=..~?
    8038:	3dafb680 3f7f0e58 3da973ba 3f7f1f49     ...=X..?.s.=I..?
    8048:	3da3308c 3f7f2f9d 3d9cecf9 3f7f3f54     .0.=./.?...=T?.?
    8058:	3d96a905 3f7f4e6d 3d9064b4 3f7f5ce9     ...=mN.?.d.=.\.?
    8068:	3d8a200a 3f7f6ac7 3d83db0a 3f7f7808     . .=.j.?...=.x.?
    8078:	3d7b2b74 3f7f84ab 3d6ea038 3f7f90b1     t+{=...?8.n=...?
    8088:	3d621468 3f7f9c18 3d55880e 3f7fa6e3     h.b=...?..U=...?
    8098:	3d48fb2f 3f7fb10f 3d3c6dd5 3f7fba9e     /.H=...?.m<=...?
    80a8:	3d2fe007 3f7fc38f 3d2351cc 3f7fcbe2     ../=...?.Q#=...?
    80b8:	3d16c32c 3f7fd398 3d0a342f 3f7fdaaf     ,..=...?/4.=...?
    80c8:	3cfb49b9 3f7fe129 3ce22a7b 3f7fe705     .I.<)..?{*.<...?
    80d8:	3cc90ab0 3f7fec43 3cafea69 3f7ff0e3     ...<C..?i..<...?
    80e8:	3c96c9b6 3f7ff4e6 3c7b514b 3f7ff84a     ...<...?KQ{<J..?
    80f8:	3c490e90 3f7ffb11 3c16cb59 3f7ffd39     ..I<...?Y..<9..?
    8108:	3bc90f89 3f7ffec4 3b490fc7 3f7fffb1     ...;...?..I;...?
    8118:	00000000 3f800000 bb490fc7 3f7fffb1     .......?..I....?
    8128:	bbc90f89 3f7ffec4 bc16cb59 3f7ffd39     .......?Y...9..?
    8138:	bc490e90 3f7ffb11 bc7b514b 3f7ff84a     ..I....?KQ{.J..?
    8148:	bc96c9b6 3f7ff4e6 bcafea69 3f7ff0e3     .......?i......?
    8158:	bcc90ab0 3f7fec43 bce22a7b 3f7fe705     ....C..?{*.....?
    8168:	bcfb49b9 3f7fe129 bd0a342f 3f7fdaaf     .I..)..?/4.....?
    8178:	bd16c32c 3f7fd398 bd2351cc 3f7fcbe2     ,......?.Q#....?
    8188:	bd2fe007 3f7fc38f bd3c6dd5 3f7fba9e     ../....?.m<....?
    8198:	bd48fb2f 3f7fb10f bd55880e 3f7fa6e3     /.H....?..U....?
    81a8:	bd621468 3f7f9c18 bd6ea038 3f7f90b1     h.b....?8.n....?
    81b8:	bd7b2b74 3f7f84ab bd83db0a 3f7f7808     t+{....?.....x.?
    81c8:	bd8a200a 3f7f6ac7 bd9064b4 3f7f5ce9     . ...j.?.d...\.?
    81d8:	bd96a905 3f7f4e6d bd9cecf9 3f7f3f54     ....mN.?....T?.?
    81e8:	bda3308c 3f7f2f9d bda973ba 3f7f1f49     .0.../.?.s..I..?
    81f8:	bdafb680 3f7f0e58 bdb5f8da 3f7efcc9     ....X..?......~?
    8208:	bdbc3ac3 3f7eea9d bdc27c39 3f7ed7d4     .:....~?9|....~?
    8218:	bdc8bd36 3f7ec46d bdcefdb7 3f7eb069     6...m.~?....i.~?
    8228:	bdd53db9 3f7e9bc9 bddb7d37 3f7e868b     .=....~?7}....~?
    8238:	bde1bc2e 3f7e70b0 bde7fa9a 3f7e5a38     .....p~?....8Z~?
    8248:	bdee3876 3f7e4323 bdf475c0 3f7e2b72     v8..#C~?.u..r+~?
    8258:	bdfab273 3f7e1324 be007745 3f7dfa38     s...$.~?Ew..8.}?
    8268:	be039502 3f7de0b1 be06b26e 3f7dc68c     ......}?n.....}?
    8278:	be09cf86 3f7dabcc be0cec4a 3f7d906e     ......}?J...n.}?
    8288:	be1008b7 3f7d7474 be1324ca 3f7d57de     ....tt}?.$...W}?
    8298:	be164083 3f7d3aac be195be0 3f7d1cdd     .@...:}?.[....}?
    82a8:	be1c76de 3f7cfe73 be1f917b 3f7cdf6c     .v..s.|?{...l.|?
    82b8:	be22abb6 3f7cbfc9 be25c58c 3f7c9f8a     .."...|?..%...|?
    82c8:	be28defc 3f7c7eb0 be2bf804 3f7c5d3a     ..(..~|?..+.:]|?
    82d8:	be2f10a2 3f7c3b28 be3228d4 3f7c187a     ../.(;|?.(2.z.|?
    82e8:	be354098 3f7bf531 be3857ec 3f7bd14d     .@5.1.{?.W8.M.{?
    82f8:	be3b6ecf 3f7baccd be3e853e 3f7b87b2     .n;...{?>.>...{?
    8308:	be419b37 3f7b61fc be44b0b9 3f7b3bab     7.A..a{?..D..;{?
    8318:	be47c5c2 3f7b14be be4ada4f 3f7aed37     ..G...{?O.J.7.z?
    8328:	be4dee60 3f7ac516 be5101f1 3f7a9c59     `.M...z?..Q.Y.z?
    8338:	be541501 3f7a7302 be57278f 3f7a4910     ..T..sz?.'W..Iz?
    8348:	be5a3997 3f7a1e84 be5d4b1a 3f79f35e     .9Z...z?.K].^.y?
    8358:	be605c13 3f79c79d be636c83 3f799b43     .\`...y?.lc.C.y?
    8368:	be667c66 3f796e4e be698bba 3f7940c0     f|f.Nny?..i..@y?
    8378:	be6c9a7f 3f791298 be6fa8b2 3f78e3d6     ..l...y?..o...x?
    8388:	be72b651 3f78b47b be75c35a 3f788486     Q.r.{.x?Z.u...x?
    8398:	be78cfcc 3f7853f8 be7bdba4 3f7822d1     ..x..Sx?..{.."x?
    83a8:	be7ee6e1 3f77f110 be80f8c0 3f77beb7     ..~...w?......w?
    83b8:	be827dc0 3f778bc5 be840270 3f77583a     .}....w?p...:Xw?
    83c8:	be8586ce 3f772417 be870ada 3f76ef5b     .....$w?....[.v?
    83d8:	be888e93 3f76ba07 be8a11f8 3f76841b     ......v?......v?
    83e8:	be8b9507 3f764d97 be8d17c0 3f76167a     .....Mv?....z.v?
    83f8:	be8e9a22 3f75dec6 be901c2c 3f75a67b     ".....u?,...{.u?
    8408:	be919ddd 3f756d97 be931f35 3f75341d     .....mu?5....4u?
    8418:	be94a031 3f74fa0b be9620d2 3f74bf62     1.....t?. ..b.t?
    8428:	be97a117 3f748422 be9920fe 3f74484b     ....".t?. ..KHt?
    8438:	be9aa086 3f740bdd be9c1faf 3f73ced9     ......t?......s?
    8448:	be9d9e78 3f73913f be9f1cdf 3f73530e     x...?.s?.....Ss?
    8458:	bea09ae5 3f731447 bea21887 3f72d4eb     ....G.s?......r?
    8468:	bea395c5 3f7294f8 bea5129f 3f725470     ......r?....pTr?
    8478:	bea68f12 3f721352 bea80b1f 3f71d19f     ....R.r?......q?
    8488:	bea986c4 3f718f57 beab0201 3f714c7a     ....W.q?....zLq?
    8498:	beac7cd4 3f710908 beadf73c 3f70c502     .|....q?<.....p?
    84a8:	beaf713a 3f708066 beb0eacb 3f703b37     :q..f.p?....7;p?
    84b8:	beb263ef 3f6ff573 beb3dca5 3f6faf1b     .c..s.o?......o?
    84c8:	beb554ec 3f6f6830 beb6ccc3 3f6f20b0     .T..0ho?..... o?
    84d8:	beb8442a 3f6ed89e beb9bb1e 3f6e8ff8     *D....n?......n?
    84e8:	bebb31a0 3f6e46be bebca7af 3f6dfcf2     .1...Fn?......m?
    84f8:	bebe1d4a 3f6db293 bebf926f 3f6d67a1     J.....m?o....gm?
    8508:	bec1071e 3f6d1c1d bec27b55 3f6cd007     ......m?U{....l?
    8518:	bec3ef15 3f6c835e bec5625c 3f6c3624     ....^.l?\b..$6l?
    8528:	bec6d529 3f6be858 bec8477c 3f6b99fb     )...X.k?|G....k?
    8538:	bec9b953 3f6b4b0c becb2aae 3f6afb8c     S....Kk?.*....j?
    8548:	becc9b8b 3f6aab7b bece0bea 3f6a5ad9     ....{.j?.....Zj?
    8558:	becf7bca 3f6a09a7 bed0eb2a 3f69b7e4     .{....j?*.....i?
    8568:	bed25a09 3f696591 bed3c867 3f6912ae     .Z...ei?g.....i?
    8578:	bed53641 3f68bf3c bed6a399 3f686b39     A6..<.h?....9kh?
    8588:	bed8106b 3f6816a8 bed97cb9 3f67c187     k.....h?.|....g?
    8598:	bedae880 3f676bd8 bedc53c1 3f671599     .....kg?.S....g?
    85a8:	beddbe79 3f66becc bedf28a9 3f666771     y.....f?.(..qgf?
    85b8:	bee0924f 3f660f88 bee1fb6a 3f65b710     O.....f?j.....e?
    85c8:	bee363fa 3f655e0b bee4cbfe 3f650479     .c...^e?....y.e?
    85d8:	bee63375 3f64aa59 bee79a5d 3f644fac     u3..Y.d?]....Od?
    85e8:	bee900b7 3f63f473 beea6681 3f6398ac     ....s.c?.f....c?
    85f8:	beebcbbb 3f633c5a beed3063 3f62df7b     ....Z<c?c0..{.b?
    8608:	beee9479 3f628210 beeff7fb 3f62241a     y.....b?.....$b?
    8618:	bef15aea 3f61c598 bef2bd43 3f61668a     .Z....a?C....fa?
    8628:	bef41f07 3f6106f2 bef58035 3f60a6cf     ......a?5.....`?
    8638:	bef6e0cb 3f604621 bef840c8 3f5fe4e9     ....!F`?.@...._?
    8648:	bef9a02d 3f5f8327 befafef7 3f5f20db     -...'._?..... _?
    8658:	befc5d27 3f5ebe05 befdbabb 3f5e5aa6     ']....^?.....Z^?
    8668:	beff17b2 3f5df6be bf003a06 3f5d924d     ......]?.:..M.]?
    8678:	bf00e7e4 3f5d2d53 bf019573 3f5cc7d1     ....S-]?s.....\?
    8688:	bf0242b1 3f5c61c7 bf02ef9f 3f5bfb34     .B...a\?....4.[?
    8698:	bf039c3d 3f5b941a bf044889 3f5b2c79     =.....[?.H..y,[?
    86a8:	bf04f484 3f5ac450 bf05a02c 3f5a5ba0     ....P.Z?,....[Z?
    86b8:	bf064b82 3f59f26a bf06f686 3f5988ad     .K..j.Y?......Y?
    86c8:	bf07a136 3f591e6a bf084b92 3f58b3a1     6...j.Y?.K....X?
    86d8:	bf08f59b 3f584853 bf099f4e 3f57dc7f     ....SHX?N.....W?
    86e8:	bf0a48ad 3f577026 bf0af1b7 3f570348     .H..&pW?....H.W?
    86f8:	bf0b9a6b 3f5695e5 bf0c42c9 3f5627fe     k.....V?.B...'V?
    8708:	bf0cead0 3f55b993 bf0d9281 3f554aa4     ......U?.....JU?
    8718:	bf0e39da 3f54db31 bf0ee0db 3f546b3b     .9..1.T?....;kT?
    8728:	bf0f8784 3f53fac3 bf102dd5 3f5389c7     ......S?.-....S?
    8738:	bf10d3cd 3f531849 bf11796b 3f52a649     ....I.S?ky..I.R?
    8748:	bf121eb0 3f5233c6 bf12c39a 3f51c0c2     .....3R?......Q?
    8758:	bf13682a 3f514d3d bf140c5f 3f50d937     *h..=MQ?_...7.P?
    8768:	bf14b039 3f5064af bf1553b7 3f4fefa8     9....dP?.S....O?
    8778:	bf15f6d9 3f4f7a1f bf16999f 3f4f0417     .....zO?......O?
    8788:	bf173c07 3f4e8d90 bf17de12 3f4e1689     .<....N?......N?
    8798:	bf187fc0 3f4d9f02 bf19210f 3f4d26fd     ......M?.!...&M?
    87a8:	bf19c200 3f4cae79 bf1a6293 3f4c3578     ....y.L?.b..x5L?
    87b8:	bf1b02c6 3f4bbbf8 bf1ba299 3f4b41fa     ......K?.....AK?
    87c8:	bf1c420c 3f4ac77f bf1ce11f 3f4a4c87     .B....J?.....LJ?
    87d8:	bf1d7fd1 3f49d112 bf1e1e22 3f495521     ......I?"...!UI?
    87e8:	bf1ebc12 3f48d8b3 bf1f599f 3f485bca     ......H?.Y...[H?
    87f8:	bf1ff6cb 3f47de65 bf209393 3f476085     ....e.G?.. ..`G?
    8808:	bf212ff9 3f46e22a bf21cbfb 3f466354     ./!.*.F?..!.TcF?
    8818:	bf226799 3f45e403 bf2302d3 3f456439     .g"...E?..#.9dE?
    8828:	bf239da9 3f44e3f5 bf24381a 3f446337     ..#...D?.8$.7cD?
    8838:	bf24d225 3f43e200 bf256bcb 3f436051     %.$...C?.k%.Q`C?
    8848:	bf26050a 3f42de29 bf269de3 3f425b89     ..&.).B?..&..[B?
    8858:	bf273656 3f41d870 bf27ce61 3f4154e1     V6'.p.A?a.'..TA?
    8868:	bf286605 3f40d0da bf28fd41 3f404c5c     .f(...@?A.(.\L@?
    8878:	bf299415 3f3fc767 bf2a2a80 3f3f41fc     ..).g.??.**..A??
    8888:	bf2ac082 3f3ebc1b bf2b561b 3f3e35c5     ..*...>?.V+..5>?
    8898:	bf2beb4a 3f3daef9 bf2c800f 3f3d27b8     J.+...=?..,..'=?
    88a8:	bf2d1469 3f3ca003 bf2da859 3f3c17d9     i.-...<?Y.-...<?
    88b8:	bf2e3bde 3f3b8f3b bf2ecef7 3f3b0629     .;..;.;?....).;?
    88c8:	bf2f61a5 3f3a7ca4 bf2ff3e6 3f39f2ac     .a/..|:?../...9?
    88d8:	bf3085bb 3f396842 bf311722 3f38dd65     ..0.Bh9?".1.e.8?
    88e8:	bf31a81d 3f385216 bf3238aa 3f37c655     ..1..R8?.82.U.7?
    88f8:	bf32c8c9 3f373a23 bf33587a 3f36ad7f     ..2.#:7?zX3...6?
    8908:	bf33e7bc 3f36206c bf34768f 3f3592e7     ..3.l 6?.v4...5?
    8918:	bf3504f3 3f3504f3 bf3592e7 3f34768f     ..5...5?..5..v4?
    8928:	bf36206c 3f33e7bc bf36ad7f 3f33587a     l 6...3?..6.zX3?
    8938:	bf373a23 3f32c8c9 bf37c655 3f3238aa     #:7...2?U.7..82?
    8948:	bf385216 3f31a81d bf38dd65 3f311722     .R8...1?e.8.".1?
    8958:	bf396842 3f3085bb bf39f2ac 3f2ff3e6     Bh9...0?..9.../?
    8968:	bf3a7ca4 3f2f61a5 bf3b0629 3f2ecef7     .|:..a/?).;....?
    8978:	bf3b8f3b 3f2e3bde bf3c17d9 3f2da859     ;.;..;.?..<.Y.-?
    8988:	bf3ca003 3f2d1469 bf3d27b8 3f2c800f     ..<.i.-?.'=...,?
    8998:	bf3daef9 3f2beb4a bf3e35c5 3f2b561b     ..=.J.+?.5>..V+?
    89a8:	bf3ebc1b 3f2ac082 bf3f41fc 3f2a2a80     ..>...*?.A?..**?
    89b8:	bf3fc767 3f299415 bf404c5c 3f28fd41     g.?...)?\L@.A.(?
    89c8:	bf40d0da 3f286605 bf4154e1 3f27ce61     ..@..f(?.TA.a.'?
    89d8:	bf41d870 3f273656 bf425b89 3f269de3     p.A.V6'?.[B...&?
    89e8:	bf42de29 3f26050a bf436051 3f256bcb     ).B...&?Q`C..k%?
    89f8:	bf43e200 3f24d225 bf446337 3f24381a     ..C.%.$?7cD..8$?
    8a08:	bf44e3f5 3f239da9 bf456439 3f2302d3     ..D...#?9dE...#?
    8a18:	bf45e403 3f226799 bf466354 3f21cbfb     ..E..g"?TcF...!?
    8a28:	bf46e22a 3f212ff9 bf476085 3f209393     *.F../!?.`G... ?
    8a38:	bf47de65 3f1ff6cb bf485bca 3f1f599f     e.G....?.[H..Y.?
    8a48:	bf48d8b3 3f1ebc12 bf495521 3f1e1e22     ..H....?!UI."..?
    8a58:	bf49d112 3f1d7fd1 bf4a4c87 3f1ce11f     ..I....?.LJ....?
    8a68:	bf4ac77f 3f1c420c bf4b41fa 3f1ba299     ..J..B.?.AK....?
    8a78:	bf4bbbf8 3f1b02c6 bf4c3578 3f1a6293     ..K....?x5L..b.?
    8a88:	bf4cae79 3f19c200 bf4d26fd 3f19210f     y.L....?.&M..!.?
    8a98:	bf4d9f02 3f187fc0 bf4e1689 3f17de12     ..M....?..N....?
    8aa8:	bf4e8d90 3f173c07 bf4f0417 3f16999f     ..N..<.?..O....?
    8ab8:	bf4f7a1f 3f15f6d9 bf4fefa8 3f1553b7     .zO....?..O..S.?
    8ac8:	bf5064af 3f14b039 bf50d937 3f140c5f     .dP.9..?7.P._..?
    8ad8:	bf514d3d 3f13682a bf51c0c2 3f12c39a     =MQ.*h.?..Q....?
    8ae8:	bf5233c6 3f121eb0 bf52a649 3f11796b     .3R....?I.R.ky.?
    8af8:	bf531849 3f10d3cd bf5389c7 3f102dd5     I.S....?..S..-.?
    8b08:	bf53fac3 3f0f8784 bf546b3b 3f0ee0db     ..S....?;kT....?
    8b18:	bf54db31 3f0e39da bf554aa4 3f0d9281     1.T..9.?.JU....?
    8b28:	bf55b993 3f0cead0 bf5627fe 3f0c42c9     ..U....?.'V..B.?
    8b38:	bf5695e5 3f0b9a6b bf570348 3f0af1b7     ..V.k..?H.W....?
    8b48:	bf577026 3f0a48ad bf57dc7f 3f099f4e     &pW..H.?..W.N..?
    8b58:	bf584853 3f08f59b bf58b3a1 3f084b92     SHX....?..X..K.?
    8b68:	bf591e6a 3f07a136 bf5988ad 3f06f686     j.Y.6..?..Y....?
    8b78:	bf59f26a 3f064b82 bf5a5ba0 3f05a02c     j.Y..K.?.[Z.,..?
    8b88:	bf5ac450 3f04f484 bf5b2c79 3f044889     P.Z....?y,[..H.?
    8b98:	bf5b941a 3f039c3d bf5bfb34 3f02ef9f     ..[.=..?4.[....?
    8ba8:	bf5c61c7 3f0242b1 bf5cc7d1 3f019573     .a\..B.?..\.s..?
    8bb8:	bf5d2d53 3f00e7e4 bf5d924d 3f003a06     S-]....?M.]..:.?
    8bc8:	bf5df6be 3eff17b2 bf5e5aa6 3efdbabb     ..]....>.Z^....>
    8bd8:	bf5ebe05 3efc5d27 bf5f20db 3efafef7     ..^.'].>. _....>
    8be8:	bf5f8327 3ef9a02d bf5fe4e9 3ef840c8     '._.-..>.._..@.>
    8bf8:	bf604621 3ef6e0cb bf60a6cf 3ef58035     !F`....>..`.5..>
    8c08:	bf6106f2 3ef41f07 bf61668a 3ef2bd43     ..a....>.fa.C..>
    8c18:	bf61c598 3ef15aea bf62241a 3eeff7fb     ..a..Z.>.$b....>
    8c28:	bf628210 3eee9479 bf62df7b 3eed3063     ..b.y..>{.b.c0.>
    8c38:	bf633c5a 3eebcbbb bf6398ac 3eea6681     Z<c....>..c..f.>
    8c48:	bf63f473 3ee900b7 bf644fac 3ee79a5d     s.c....>.Od.]..>
    8c58:	bf64aa59 3ee63375 bf650479 3ee4cbfe     Y.d.u3.>y.e....>
    8c68:	bf655e0b 3ee363fa bf65b710 3ee1fb6a     .^e..c.>..e.j..>
    8c78:	bf660f88 3ee0924f bf666771 3edf28a9     ..f.O..>qgf..(.>
    8c88:	bf66becc 3eddbe79 bf671599 3edc53c1     ..f.y..>..g..S.>
    8c98:	bf676bd8 3edae880 bf67c187 3ed97cb9     .kg....>..g..|.>
    8ca8:	bf6816a8 3ed8106b bf686b39 3ed6a399     ..h.k..>9kh....>
    8cb8:	bf68bf3c 3ed53641 bf6912ae 3ed3c867     <.h.A6.>..i.g..>
    8cc8:	bf696591 3ed25a09 bf69b7e4 3ed0eb2a     .ei..Z.>..i.*..>
    8cd8:	bf6a09a7 3ecf7bca bf6a5ad9 3ece0bea     ..j..{.>.Zj....>
    8ce8:	bf6aab7b 3ecc9b8b bf6afb8c 3ecb2aae     {.j....>..j..*.>
    8cf8:	bf6b4b0c 3ec9b953 bf6b99fb 3ec8477c     .Kk.S..>..k.|G.>
    8d08:	bf6be858 3ec6d529 bf6c3624 3ec5625c     X.k.)..>$6l.\b.>
    8d18:	bf6c835e 3ec3ef15 bf6cd007 3ec27b55     ^.l....>..l.U{.>
    8d28:	bf6d1c1d 3ec1071e bf6d67a1 3ebf926f     ..m....>.gm.o..>
    8d38:	bf6db293 3ebe1d4a bf6dfcf2 3ebca7af     ..m.J..>..m....>
    8d48:	bf6e46be 3ebb31a0 bf6e8ff8 3eb9bb1e     .Fn..1.>..n....>
    8d58:	bf6ed89e 3eb8442a bf6f20b0 3eb6ccc3     ..n.*D.>. o....>
    8d68:	bf6f6830 3eb554ec bf6faf1b 3eb3dca5     0ho..T.>..o....>
    8d78:	bf6ff573 3eb263ef bf703b37 3eb0eacb     s.o..c.>7;p....>
    8d88:	bf708066 3eaf713a bf70c502 3eadf73c     f.p.:q.>..p.<..>
    8d98:	bf710908 3eac7cd4 bf714c7a 3eab0201     ..q..|.>zLq....>
    8da8:	bf718f57 3ea986c4 bf71d19f 3ea80b1f     W.q....>..q....>
    8db8:	bf721352 3ea68f12 bf725470 3ea5129f     R.r....>pTr....>
    8dc8:	bf7294f8 3ea395c5 bf72d4eb 3ea21887     ..r....>..r....>
    8dd8:	bf731447 3ea09ae5 bf73530e 3e9f1cdf     G.s....>.Ss....>
    8de8:	bf73913f 3e9d9e78 bf73ced9 3e9c1faf     ?.s.x..>..s....>
    8df8:	bf740bdd 3e9aa086 bf74484b 3e9920fe     ..t....>KHt.. .>
    8e08:	bf748422 3e97a117 bf74bf62 3e9620d2     ".t....>b.t.. .>
    8e18:	bf74fa0b 3e94a031 bf75341d 3e931f35     ..t.1..>.4u.5..>
    8e28:	bf756d97 3e919ddd bf75a67b 3e901c2c     .mu....>{.u.,..>
    8e38:	bf75dec6 3e8e9a22 bf76167a 3e8d17c0     ..u."..>z.v....>
    8e48:	bf764d97 3e8b9507 bf76841b 3e8a11f8     .Mv....>..v....>
    8e58:	bf76ba07 3e888e93 bf76ef5b 3e870ada     ..v....>[.v....>
    8e68:	bf772417 3e8586ce bf77583a 3e840270     .$w....>:Xw.p..>
    8e78:	bf778bc5 3e827dc0 bf77beb7 3e80f8c0     ..w..}.>..w....>
    8e88:	bf77f110 3e7ee6e1 bf7822d1 3e7bdba4     ..w...~>."x...{>
    8e98:	bf7853f8 3e78cfcc bf788486 3e75c35a     .Sx...x>..x.Z.u>
    8ea8:	bf78b47b 3e72b651 bf78e3d6 3e6fa8b2     {.x.Q.r>..x...o>
    8eb8:	bf791298 3e6c9a7f bf7940c0 3e698bba     ..y...l>.@y...i>
    8ec8:	bf796e4e 3e667c66 bf799b43 3e636c83     Nny.f|f>C.y..lc>
    8ed8:	bf79c79d 3e605c13 bf79f35e 3e5d4b1a     ..y..\`>^.y..K]>
    8ee8:	bf7a1e84 3e5a3997 bf7a4910 3e57278f     ..z..9Z>.Iz..'W>
    8ef8:	bf7a7302 3e541501 bf7a9c59 3e5101f1     .sz...T>Y.z...Q>
    8f08:	bf7ac516 3e4dee60 bf7aed37 3e4ada4f     ..z.`.M>7.z.O.J>
    8f18:	bf7b14be 3e47c5c2 bf7b3bab 3e44b0b9     ..{...G>.;{...D>
    8f28:	bf7b61fc 3e419b37 bf7b87b2 3e3e853e     .a{.7.A>..{.>.>>
    8f38:	bf7baccd 3e3b6ecf bf7bd14d 3e3857ec     ..{..n;>M.{..W8>
    8f48:	bf7bf531 3e354098 bf7c187a 3e3228d4     1.{..@5>z.|..(2>
    8f58:	bf7c3b28 3e2f10a2 bf7c5d3a 3e2bf804     (;|.../>:]|...+>
    8f68:	bf7c7eb0 3e28defc bf7c9f8a 3e25c58c     .~|...(>..|...%>
    8f78:	bf7cbfc9 3e22abb6 bf7cdf6c 3e1f917b     ..|...">l.|.{..>
    8f88:	bf7cfe73 3e1c76de bf7d1cdd 3e195be0     s.|..v.>..}..[.>
    8f98:	bf7d3aac 3e164083 bf7d57de 3e1324ca     .:}..@.>.W}..$.>
    8fa8:	bf7d7474 3e1008b7 bf7d906e 3e0cec4a     tt}....>n.}.J..>
    8fb8:	bf7dabcc 3e09cf86 bf7dc68c 3e06b26e     ..}....>..}.n..>
    8fc8:	bf7de0b1 3e039502 bf7dfa38 3e007745     ..}....>8.}.Ew.>
    8fd8:	bf7e1324 3dfab273 bf7e2b72 3df475c0     $.~.s..=r+~..u.=
    8fe8:	bf7e4323 3dee3876 bf7e5a38 3de7fa9a     #C~.v8.=8Z~....=
    8ff8:	bf7e70b0 3de1bc2e bf7e868b 3ddb7d37     .p~....=..~.7}.=
    9008:	bf7e9bc9 3dd53db9 bf7eb069 3dcefdb7     ..~..=.=i.~....=
    9018:	bf7ec46d 3dc8bd36 bf7ed7d4 3dc27c39     m.~.6..=..~.9|.=
    9028:	bf7eea9d 3dbc3ac3 bf7efcc9 3db5f8da     ..~..:.=..~....=
    9038:	bf7f0e58 3dafb680 bf7f1f49 3da973ba     X......=I....s.=
    9048:	bf7f2f9d 3da3308c bf7f3f54 3d9cecf9     ./...0.=T?.....=
    9058:	bf7f4e6d 3d96a905 bf7f5ce9 3d9064b4     mN.....=.\...d.=
    9068:	bf7f6ac7 3d8a200a bf7f7808 3d83db0a     .j... .=.x.....=
    9078:	bf7f84ab 3d7b2b74 bf7f90b1 3d6ea038     ....t+{=....8.n=
    9088:	bf7f9c18 3d621468 bf7fa6e3 3d55880e     ....h.b=......U=
    9098:	bf7fb10f 3d48fb2f bf7fba9e 3d3c6dd5     ..../.H=.....m<=
    90a8:	bf7fc38f 3d2fe007 bf7fcbe2 3d2351cc     ....../=.....Q#=
    90b8:	bf7fd398 3d16c32c bf7fdaaf 3d0a342f     ....,..=..../4.=
    90c8:	bf7fe129 3cfb49b9 bf7fe705 3ce22a7b     )....I.<....{*.<
    90d8:	bf7fec43 3cc90ab0 bf7ff0e3 3cafea69     C......<....i..<
    90e8:	bf7ff4e6 3c96c9b6 bf7ff84a 3c7b514b     .......<J...KQ{<
    90f8:	bf7ffb11 3c490e90 bf7ffd39 3c16cb59     ......I<9...Y..<
    9108:	bf7ffec4 3bc90f89 bf7fffb1 3b490fc7     .......;......I;
    9118:	bf800000 00000000 bf7fffb1 bb490fc7     ..............I.
    9128:	bf7ffec4 bbc90f89 bf7ffd39 bc16cb59     ........9...Y...
    9138:	bf7ffb11 bc490e90 bf7ff84a bc7b514b     ......I.J...KQ{.
    9148:	bf7ff4e6 bc96c9b6 bf7ff0e3 bcafea69     ............i...
    9158:	bf7fec43 bcc90ab0 bf7fe705 bce22a7b     C...........{*..
    9168:	bf7fe129 bcfb49b9 bf7fdaaf bd0a342f     )....I....../4..
    9178:	bf7fd398 bd16c32c bf7fcbe2 bd2351cc     ....,........Q#.
    9188:	bf7fc38f bd2fe007 bf7fba9e bd3c6dd5     ....../......m<.
    9198:	bf7fb10f bd48fb2f bf7fa6e3 bd55880e     ..../.H.......U.
    91a8:	bf7f9c18 bd621468 bf7f90b1 bd6ea038     ....h.b.....8.n.
    91b8:	bf7f84ab bd7b2b74 bf7f7808 bd83db0a     ....t+{..x......
    91c8:	bf7f6ac7 bd8a200a bf7f5ce9 bd9064b4     .j... ...\...d..
    91d8:	bf7f4e6d bd96a905 bf7f3f54 bd9cecf9     mN......T?......
    91e8:	bf7f2f9d bda3308c bf7f1f49 bda973ba     ./...0..I....s..
    91f8:	bf7f0e58 bdafb680 bf7efcc9 bdb5f8da     X.........~.....
    9208:	bf7eea9d bdbc3ac3 bf7ed7d4 bdc27c39     ..~..:....~.9|..
    9218:	bf7ec46d bdc8bd36 bf7eb069 bdcefdb7     m.~.6...i.~.....
    9228:	bf7e9bc9 bdd53db9 bf7e868b bddb7d37     ..~..=....~.7}..
    9238:	bf7e70b0 bde1bc2e bf7e5a38 bde7fa9a     .p~.....8Z~.....
    9248:	bf7e4323 bdee3876 bf7e2b72 bdf475c0     #C~.v8..r+~..u..
    9258:	bf7e1324 bdfab273 bf7dfa38 be007745     $.~.s...8.}.Ew..
    9268:	bf7de0b1 be039502 bf7dc68c be06b26e     ..}.......}.n...
    9278:	bf7dabcc be09cf86 bf7d906e be0cec4a     ..}.....n.}.J...
    9288:	bf7d7474 be1008b7 bf7d57de be1324ca     tt}......W}..$..
    9298:	bf7d3aac be164083 bf7d1cdd be195be0     .:}..@....}..[..
    92a8:	bf7cfe73 be1c76de bf7cdf6c be1f917b     s.|..v..l.|.{...
    92b8:	bf7cbfc9 be22abb6 bf7c9f8a be25c58c     ..|..."...|...%.
    92c8:	bf7c7eb0 be28defc bf7c5d3a be2bf804     .~|...(.:]|...+.
    92d8:	bf7c3b28 be2f10a2 bf7c187a be3228d4     (;|.../.z.|..(2.
    92e8:	bf7bf531 be354098 bf7bd14d be3857ec     1.{..@5.M.{..W8.
    92f8:	bf7baccd be3b6ecf bf7b87b2 be3e853e     ..{..n;...{.>.>.
    9308:	bf7b61fc be419b37 bf7b3bab be44b0b9     .a{.7.A..;{...D.
    9318:	bf7b14be be47c5c2 bf7aed37 be4ada4f     ..{...G.7.z.O.J.
    9328:	bf7ac516 be4dee60 bf7a9c59 be5101f1     ..z.`.M.Y.z...Q.
    9338:	bf7a7302 be541501 bf7a4910 be57278f     .sz...T..Iz..'W.
    9348:	bf7a1e84 be5a3997 bf79f35e be5d4b1a     ..z..9Z.^.y..K].
    9358:	bf79c79d be605c13 bf799b43 be636c83     ..y..\`.C.y..lc.
    9368:	bf796e4e be667c66 bf7940c0 be698bba     Nny.f|f..@y...i.
    9378:	bf791298 be6c9a7f bf78e3d6 be6fa8b2     ..y...l...x...o.
    9388:	bf78b47b be72b651 bf788486 be75c35a     {.x.Q.r...x.Z.u.
    9398:	bf7853f8 be78cfcc bf7822d1 be7bdba4     .Sx...x.."x...{.
    93a8:	bf77f110 be7ee6e1 bf77beb7 be80f8c0     ..w...~...w.....
    93b8:	bf778bc5 be827dc0 bf77583a be840270     ..w..}..:Xw.p...
    93c8:	bf772417 be8586ce bf76ef5b be870ada     .$w.....[.v.....
    93d8:	bf76ba07 be888e93 bf76841b be8a11f8     ..v.......v.....
    93e8:	bf764d97 be8b9507 bf76167a be8d17c0     .Mv.....z.v.....
    93f8:	bf75dec6 be8e9a22 bf75a67b be901c2c     ..u."...{.u.,...
    9408:	bf756d97 be919ddd bf75341d be931f35     .mu......4u.5...
    9418:	bf74fa0b be94a031 bf74bf62 be9620d2     ..t.1...b.t.. ..
    9428:	bf748422 be97a117 bf74484b be9920fe     ".t.....KHt.. ..
    9438:	bf740bdd be9aa086 bf73ced9 be9c1faf     ..t.......s.....
    9448:	bf73913f be9d9e78 bf73530e be9f1cdf     ?.s.x....Ss.....
    9458:	bf731447 bea09ae5 bf72d4eb bea21887     G.s.......r.....
    9468:	bf7294f8 bea395c5 bf725470 bea5129f     ..r.....pTr.....
    9478:	bf721352 bea68f12 bf71d19f bea80b1f     R.r.......q.....
    9488:	bf718f57 bea986c4 bf714c7a beab0201     W.q.....zLq.....
    9498:	bf710908 beac7cd4 bf70c502 beadf73c     ..q..|....p.<...
    94a8:	bf708066 beaf713a bf703b37 beb0eacb     f.p.:q..7;p.....
    94b8:	bf6ff573 beb263ef bf6faf1b beb3dca5     s.o..c....o.....
    94c8:	bf6f6830 beb554ec bf6f20b0 beb6ccc3     0ho..T... o.....
    94d8:	bf6ed89e beb8442a bf6e8ff8 beb9bb1e     ..n.*D....n.....
    94e8:	bf6e46be bebb31a0 bf6dfcf2 bebca7af     .Fn..1....m.....
    94f8:	bf6db293 bebe1d4a bf6d67a1 bebf926f     ..m.J....gm.o...
    9508:	bf6d1c1d bec1071e bf6cd007 bec27b55     ..m.......l.U{..
    9518:	bf6c835e bec3ef15 bf6c3624 bec5625c     ^.l.....$6l.\b..
    9528:	bf6be858 bec6d529 bf6b99fb bec8477c     X.k.).....k.|G..
    9538:	bf6b4b0c bec9b953 bf6afb8c becb2aae     .Kk.S.....j..*..
    9548:	bf6aab7b becc9b8b bf6a5ad9 bece0bea     {.j......Zj.....
    9558:	bf6a09a7 becf7bca bf69b7e4 bed0eb2a     ..j..{....i.*...
    9568:	bf696591 bed25a09 bf6912ae bed3c867     .ei..Z....i.g...
    9578:	bf68bf3c bed53641 bf686b39 bed6a399     <.h.A6..9kh.....
    9588:	bf6816a8 bed8106b bf67c187 bed97cb9     ..h.k.....g..|..
    9598:	bf676bd8 bedae880 bf671599 bedc53c1     .kg.......g..S..
    95a8:	bf66becc beddbe79 bf666771 bedf28a9     ..f.y...qgf..(..
    95b8:	bf660f88 bee0924f bf65b710 bee1fb6a     ..f.O.....e.j...
    95c8:	bf655e0b bee363fa bf650479 bee4cbfe     .^e..c..y.e.....
    95d8:	bf64aa59 bee63375 bf644fac bee79a5d     Y.d.u3...Od.]...
    95e8:	bf63f473 bee900b7 bf6398ac beea6681     s.c.......c..f..
    95f8:	bf633c5a beebcbbb bf62df7b beed3063     Z<c.....{.b.c0..
    9608:	bf628210 beee9479 bf62241a beeff7fb     ..b.y....$b.....
    9618:	bf61c598 bef15aea bf61668a bef2bd43     ..a..Z...fa.C...
    9628:	bf6106f2 bef41f07 bf60a6cf bef58035     ..a.......`.5...
    9638:	bf604621 bef6e0cb bf5fe4e9 bef840c8     !F`......._..@..
    9648:	bf5f8327 bef9a02d bf5f20db befafef7     '._.-.... _.....
    9658:	bf5ebe05 befc5d27 bf5e5aa6 befdbabb     ..^.']...Z^.....
    9668:	bf5df6be beff17b2 bf5d924d bf003a06     ..].....M.]..:..
    9678:	bf5d2d53 bf00e7e4 bf5cc7d1 bf019573     S-].......\.s...
    9688:	bf5c61c7 bf0242b1 bf5bfb34 bf02ef9f     .a\..B..4.[.....
    9698:	bf5b941a bf039c3d bf5b2c79 bf044889     ..[.=...y,[..H..
    96a8:	bf5ac450 bf04f484 bf5a5ba0 bf05a02c     P.Z......[Z.,...
    96b8:	bf59f26a bf064b82 bf5988ad bf06f686     j.Y..K....Y.....
    96c8:	bf591e6a bf07a136 bf58b3a1 bf084b92     j.Y.6.....X..K..
    96d8:	bf584853 bf08f59b bf57dc7f bf099f4e     SHX.......W.N...
    96e8:	bf577026 bf0a48ad bf570348 bf0af1b7     &pW..H..H.W.....
    96f8:	bf5695e5 bf0b9a6b bf5627fe bf0c42c9     ..V.k....'V..B..
    9708:	bf55b993 bf0cead0 bf554aa4 bf0d9281     ..U......JU.....
    9718:	bf54db31 bf0e39da bf546b3b bf0ee0db     1.T..9..;kT.....
    9728:	bf53fac3 bf0f8784 bf5389c7 bf102dd5     ..S.......S..-..
    9738:	bf531849 bf10d3cd bf52a649 bf11796b     I.S.....I.R.ky..
    9748:	bf5233c6 bf121eb0 bf51c0c2 bf12c39a     .3R.......Q.....
    9758:	bf514d3d bf13682a bf50d937 bf140c5f     =MQ.*h..7.P._...
    9768:	bf5064af bf14b039 bf4fefa8 bf1553b7     .dP.9.....O..S..
    9778:	bf4f7a1f bf15f6d9 bf4f0417 bf16999f     .zO.......O.....
    9788:	bf4e8d90 bf173c07 bf4e1689 bf17de12     ..N..<....N.....
    9798:	bf4d9f02 bf187fc0 bf4d26fd bf19210f     ..M......&M..!..
    97a8:	bf4cae79 bf19c200 bf4c3578 bf1a6293     y.L.....x5L..b..
    97b8:	bf4bbbf8 bf1b02c6 bf4b41fa bf1ba299     ..K......AK.....
    97c8:	bf4ac77f bf1c420c bf4a4c87 bf1ce11f     ..J..B...LJ.....
    97d8:	bf49d112 bf1d7fd1 bf495521 bf1e1e22     ..I.....!UI."...
    97e8:	bf48d8b3 bf1ebc12 bf485bca bf1f599f     ..H......[H..Y..
    97f8:	bf47de65 bf1ff6cb bf476085 bf209393     e.G......`G... .
    9808:	bf46e22a bf212ff9 bf466354 bf21cbfb     *.F../!.TcF...!.
    9818:	bf45e403 bf226799 bf456439 bf2302d3     ..E..g".9dE...#.
    9828:	bf44e3f5 bf239da9 bf446337 bf24381a     ..D...#.7cD..8$.
    9838:	bf43e200 bf24d225 bf436051 bf256bcb     ..C.%.$.Q`C..k%.
    9848:	bf42de29 bf26050a bf425b89 bf269de3     ).B...&..[B...&.
    9858:	bf41d870 bf273656 bf4154e1 bf27ce61     p.A.V6'..TA.a.'.
    9868:	bf40d0da bf286605 bf404c5c bf28fd41     ..@..f(.\L@.A.(.
    9878:	bf3fc767 bf299415 bf3f41fc bf2a2a80     g.?...)..A?..**.
    9888:	bf3ebc1b bf2ac082 bf3e35c5 bf2b561b     ..>...*..5>..V+.
    9898:	bf3daef9 bf2beb4a bf3d27b8 bf2c800f     ..=.J.+..'=...,.
    98a8:	bf3ca003 bf2d1469 bf3c17d9 bf2da859     ..<.i.-...<.Y.-.
    98b8:	bf3b8f3b bf2e3bde bf3b0629 bf2ecef7     ;.;..;..).;.....
    98c8:	bf3a7ca4 bf2f61a5 bf39f2ac bf2ff3e6     .|:..a/...9.../.
    98d8:	bf396842 bf3085bb bf38dd65 bf311722     Bh9...0.e.8.".1.
    98e8:	bf385216 bf31a81d bf37c655 bf3238aa     .R8...1.U.7..82.
    98f8:	bf373a23 bf32c8c9 bf36ad7f bf33587a     #:7...2...6.zX3.
    9908:	bf36206c bf33e7bc bf3592e7 bf34768f     l 6...3...5..v4.
    9918:	bf3504f3 bf3504f3 bf34768f bf3592e7     ..5...5..v4...5.
    9928:	bf33e7bc bf36206c bf33587a bf36ad7f     ..3.l 6.zX3...6.
    9938:	bf32c8c9 bf373a23 bf3238aa bf37c655     ..2.#:7..82.U.7.
    9948:	bf31a81d bf385216 bf311722 bf38dd65     ..1..R8.".1.e.8.
    9958:	bf3085bb bf396842 bf2ff3e6 bf39f2ac     ..0.Bh9.../...9.
    9968:	bf2f61a5 bf3a7ca4 bf2ecef7 bf3b0629     .a/..|:.....).;.
    9978:	bf2e3bde bf3b8f3b bf2da859 bf3c17d9     .;..;.;.Y.-...<.
    9988:	bf2d1469 bf3ca003 bf2c800f bf3d27b8     i.-...<...,..'=.
    9998:	bf2beb4a bf3daef9 bf2b561b bf3e35c5     J.+...=..V+..5>.
    99a8:	bf2ac082 bf3ebc1b bf2a2a80 bf3f41fc     ..*...>..**..A?.
    99b8:	bf299415 bf3fc767 bf28fd41 bf404c5c     ..).g.?.A.(.\L@.
    99c8:	bf286605 bf40d0da bf27ce61 bf4154e1     .f(...@.a.'..TA.
    99d8:	bf273656 bf41d870 bf269de3 bf425b89     V6'.p.A...&..[B.
    99e8:	bf26050a bf42de29 bf256bcb bf436051     ..&.).B..k%.Q`C.
    99f8:	bf24d225 bf43e200 bf24381a bf446337     %.$...C..8$.7cD.
    9a08:	bf239da9 bf44e3f5 bf2302d3 bf456439     ..#...D...#.9dE.
    9a18:	bf226799 bf45e403 bf21cbfb bf466354     .g"...E...!.TcF.
    9a28:	bf212ff9 bf46e22a bf209393 bf476085     ./!.*.F... ..`G.
    9a38:	bf1ff6cb bf47de65 bf1f599f bf485bca     ....e.G..Y...[H.
    9a48:	bf1ebc12 bf48d8b3 bf1e1e22 bf495521     ......H."...!UI.
    9a58:	bf1d7fd1 bf49d112 bf1ce11f bf4a4c87     ......I......LJ.
    9a68:	bf1c420c bf4ac77f bf1ba299 bf4b41fa     .B....J......AK.
    9a78:	bf1b02c6 bf4bbbf8 bf1a6293 bf4c3578     ......K..b..x5L.
    9a88:	bf19c200 bf4cae79 bf19210f bf4d26fd     ....y.L..!...&M.
    9a98:	bf187fc0 bf4d9f02 bf17de12 bf4e1689     ......M.......N.
    9aa8:	bf173c07 bf4e8d90 bf16999f bf4f0417     .<....N.......O.
    9ab8:	bf15f6d9 bf4f7a1f bf1553b7 bf4fefa8     .....zO..S....O.
    9ac8:	bf14b039 bf5064af bf140c5f bf50d937     9....dP._...7.P.
    9ad8:	bf13682a bf514d3d bf12c39a bf51c0c2     *h..=MQ.......Q.
    9ae8:	bf121eb0 bf5233c6 bf11796b bf52a649     .....3R.ky..I.R.
    9af8:	bf10d3cd bf531849 bf102dd5 bf5389c7     ....I.S..-....S.
    9b08:	bf0f8784 bf53fac3 bf0ee0db bf546b3b     ......S.....;kT.
    9b18:	bf0e39da bf54db31 bf0d9281 bf554aa4     .9..1.T......JU.
    9b28:	bf0cead0 bf55b993 bf0c42c9 bf5627fe     ......U..B...'V.
    9b38:	bf0b9a6b bf5695e5 bf0af1b7 bf570348     k.....V.....H.W.
    9b48:	bf0a48ad bf577026 bf099f4e bf57dc7f     .H..&pW.N.....W.
    9b58:	bf08f59b bf584853 bf084b92 bf58b3a1     ....SHX..K....X.
    9b68:	bf07a136 bf591e6a bf06f686 bf5988ad     6...j.Y.......Y.
    9b78:	bf064b82 bf59f26a bf05a02c bf5a5ba0     .K..j.Y.,....[Z.
    9b88:	bf04f484 bf5ac450 bf044889 bf5b2c79     ....P.Z..H..y,[.
    9b98:	bf039c3d bf5b941a bf02ef9f bf5bfb34     =.....[.....4.[.
    9ba8:	bf0242b1 bf5c61c7 bf019573 bf5cc7d1     .B...a\.s.....\.
    9bb8:	bf00e7e4 bf5d2d53 bf003a06 bf5d924d     ....S-]..:..M.].
    9bc8:	beff17b2 bf5df6be befdbabb bf5e5aa6     ......]......Z^.
    9bd8:	befc5d27 bf5ebe05 befafef7 bf5f20db     ']....^...... _.
    9be8:	bef9a02d bf5f8327 bef840c8 bf5fe4e9     -...'._..@...._.
    9bf8:	bef6e0cb bf604621 bef58035 bf60a6cf     ....!F`.5.....`.
    9c08:	bef41f07 bf6106f2 bef2bd43 bf61668a     ......a.C....fa.
    9c18:	bef15aea bf61c598 beeff7fb bf62241a     .Z....a......$b.
    9c28:	beee9479 bf628210 beed3063 bf62df7b     y.....b.c0..{.b.
    9c38:	beebcbbb bf633c5a beea6681 bf6398ac     ....Z<c..f....c.
    9c48:	bee900b7 bf63f473 bee79a5d bf644fac     ....s.c.]....Od.
    9c58:	bee63375 bf64aa59 bee4cbfe bf650479     u3..Y.d.....y.e.
    9c68:	bee363fa bf655e0b bee1fb6a bf65b710     .c...^e.j.....e.
    9c78:	bee0924f bf660f88 bedf28a9 bf666771     O.....f..(..qgf.
    9c88:	beddbe79 bf66becc bedc53c1 bf671599     y.....f..S....g.
    9c98:	bedae880 bf676bd8 bed97cb9 bf67c187     .....kg..|....g.
    9ca8:	bed8106b bf6816a8 bed6a399 bf686b39     k.....h.....9kh.
    9cb8:	bed53641 bf68bf3c bed3c867 bf6912ae     A6..<.h.g.....i.
    9cc8:	bed25a09 bf696591 bed0eb2a bf69b7e4     .Z...ei.*.....i.
    9cd8:	becf7bca bf6a09a7 bece0bea bf6a5ad9     .{....j......Zj.
    9ce8:	becc9b8b bf6aab7b becb2aae bf6afb8c     ....{.j..*....j.
    9cf8:	bec9b953 bf6b4b0c bec8477c bf6b99fb     S....Kk.|G....k.
    9d08:	bec6d529 bf6be858 bec5625c bf6c3624     )...X.k.\b..$6l.
    9d18:	bec3ef15 bf6c835e bec27b55 bf6cd007     ....^.l.U{....l.
    9d28:	bec1071e bf6d1c1d bebf926f bf6d67a1     ......m.o....gm.
    9d38:	bebe1d4a bf6db293 bebca7af bf6dfcf2     J.....m.......m.
    9d48:	bebb31a0 bf6e46be beb9bb1e bf6e8ff8     .1...Fn.......n.
    9d58:	beb8442a bf6ed89e beb6ccc3 bf6f20b0     *D....n...... o.
    9d68:	beb554ec bf6f6830 beb3dca5 bf6faf1b     .T..0ho.......o.
    9d78:	beb263ef bf6ff573 beb0eacb bf703b37     .c..s.o.....7;p.
    9d88:	beaf713a bf708066 beadf73c bf70c502     :q..f.p.<.....p.
    9d98:	beac7cd4 bf710908 beab0201 bf714c7a     .|....q.....zLq.
    9da8:	bea986c4 bf718f57 bea80b1f bf71d19f     ....W.q.......q.
    9db8:	bea68f12 bf721352 bea5129f bf725470     ....R.r.....pTr.
    9dc8:	bea395c5 bf7294f8 bea21887 bf72d4eb     ......r.......r.
    9dd8:	bea09ae5 bf731447 be9f1cdf bf73530e     ....G.s......Ss.
    9de8:	be9d9e78 bf73913f be9c1faf bf73ced9     x...?.s.......s.
    9df8:	be9aa086 bf740bdd be9920fe bf74484b     ......t.. ..KHt.
    9e08:	be97a117 bf748422 be9620d2 bf74bf62     ....".t.. ..b.t.
    9e18:	be94a031 bf74fa0b be931f35 bf75341d     1.....t.5....4u.
    9e28:	be919ddd bf756d97 be901c2c bf75a67b     .....mu.,...{.u.
    9e38:	be8e9a22 bf75dec6 be8d17c0 bf76167a     ".....u.....z.v.
    9e48:	be8b9507 bf764d97 be8a11f8 bf76841b     .....Mv.......v.
    9e58:	be888e93 bf76ba07 be870ada bf76ef5b     ......v.....[.v.
    9e68:	be8586ce bf772417 be840270 bf77583a     .....$w.p...:Xw.
    9e78:	be827dc0 bf778bc5 be80f8c0 bf77beb7     .}....w.......w.
    9e88:	be7ee6e1 bf77f110 be7bdba4 bf7822d1     ..~...w...{.."x.
    9e98:	be78cfcc bf7853f8 be75c35a bf788486     ..x..Sx.Z.u...x.
    9ea8:	be72b651 bf78b47b be6fa8b2 bf78e3d6     Q.r.{.x...o...x.
    9eb8:	be6c9a7f bf791298 be698bba bf7940c0     ..l...y...i..@y.
    9ec8:	be667c66 bf796e4e be636c83 bf799b43     f|f.Nny..lc.C.y.
    9ed8:	be605c13 bf79c79d be5d4b1a bf79f35e     .\`...y..K].^.y.
    9ee8:	be5a3997 bf7a1e84 be57278f bf7a4910     .9Z...z..'W..Iz.
    9ef8:	be541501 bf7a7302 be5101f1 bf7a9c59     ..T..sz...Q.Y.z.
    9f08:	be4dee60 bf7ac516 be4ada4f bf7aed37     `.M...z.O.J.7.z.
    9f18:	be47c5c2 bf7b14be be44b0b9 bf7b3bab     ..G...{...D..;{.
    9f28:	be419b37 bf7b61fc be3e853e bf7b87b2     7.A..a{.>.>...{.
    9f38:	be3b6ecf bf7baccd be3857ec bf7bd14d     .n;...{..W8.M.{.
    9f48:	be354098 bf7bf531 be3228d4 bf7c187a     .@5.1.{..(2.z.|.
    9f58:	be2f10a2 bf7c3b28 be2bf804 bf7c5d3a     ../.(;|...+.:]|.
    9f68:	be28defc bf7c7eb0 be25c58c bf7c9f8a     ..(..~|...%...|.
    9f78:	be22abb6 bf7cbfc9 be1f917b bf7cdf6c     .."...|.{...l.|.
    9f88:	be1c76de bf7cfe73 be195be0 bf7d1cdd     .v..s.|..[....}.
    9f98:	be164083 bf7d3aac be1324ca bf7d57de     .@...:}..$...W}.
    9fa8:	be1008b7 bf7d7474 be0cec4a bf7d906e     ....tt}.J...n.}.
    9fb8:	be09cf86 bf7dabcc be06b26e bf7dc68c     ......}.n.....}.
    9fc8:	be039502 bf7de0b1 be007745 bf7dfa38     ......}.Ew..8.}.
    9fd8:	bdfab273 bf7e1324 bdf475c0 bf7e2b72     s...$.~..u..r+~.
    9fe8:	bdee3876 bf7e4323 bde7fa9a bf7e5a38     v8..#C~.....8Z~.
    9ff8:	bde1bc2e bf7e70b0 bddb7d37 bf7e868b     .....p~.7}....~.
    a008:	bdd53db9 bf7e9bc9 bdcefdb7 bf7eb069     .=....~.....i.~.
    a018:	bdc8bd36 bf7ec46d bdc27c39 bf7ed7d4     6...m.~.9|....~.
    a028:	bdbc3ac3 bf7eea9d bdb5f8da bf7efcc9     .:....~.......~.
    a038:	bdafb680 bf7f0e58 bda973ba bf7f1f49     ....X....s..I...
    a048:	bda3308c bf7f2f9d bd9cecf9 bf7f3f54     .0.../......T?..
    a058:	bd96a905 bf7f4e6d bd9064b4 bf7f5ce9     ....mN...d...\..
    a068:	bd8a200a bf7f6ac7 bd83db0a bf7f7808     . ...j.......x..
    a078:	bd7b2b74 bf7f84ab bd6ea038 bf7f90b1     t+{.....8.n.....
    a088:	bd621468 bf7f9c18 bd55880e bf7fa6e3     h.b.......U.....
    a098:	bd48fb2f bf7fb10f bd3c6dd5 bf7fba9e     /.H......m<.....
    a0a8:	bd2fe007 bf7fc38f bd2351cc bf7fcbe2     ../......Q#.....
    a0b8:	bd16c32c bf7fd398 bd0a342f bf7fdaaf     ,......./4......
    a0c8:	bcfb49b9 bf7fe129 bce22a7b bf7fe705     .I..)...{*......
    a0d8:	bcc90ab0 bf7fec43 bcafea69 bf7ff0e3     ....C...i.......
    a0e8:	bc96c9b6 bf7ff4e6 bc7b514b bf7ff84a     ........KQ{.J...
    a0f8:	bc490e90 bf7ffb11 bc16cb59 bf7ffd39     ..I.....Y...9...
    a108:	bbc90f89 bf7ffec4 bb490fc7 bf7fffb1     ..........I.....
    a118:	80000000 bf800000 3b490fc7 bf7fffb1     ..........I;....
    a128:	3bc90f89 bf7ffec4 3c16cb59 bf7ffd39     ...;....Y..<9...
    a138:	3c490e90 bf7ffb11 3c7b514b bf7ff84a     ..I<....KQ{<J...
    a148:	3c96c9b6 bf7ff4e6 3cafea69 bf7ff0e3     ...<....i..<....
    a158:	3cc90ab0 bf7fec43 3ce22a7b bf7fe705     ...<C...{*.<....
    a168:	3cfb49b9 bf7fe129 3d0a342f bf7fdaaf     .I.<).../4.=....
    a178:	3d16c32c bf7fd398 3d2351cc bf7fcbe2     ,..=.....Q#=....
    a188:	3d2fe007 bf7fc38f 3d3c6dd5 bf7fba9e     ../=.....m<=....
    a198:	3d48fb2f bf7fb10f 3d55880e bf7fa6e3     /.H=......U=....
    a1a8:	3d621468 bf7f9c18 3d6ea038 bf7f90b1     h.b=....8.n=....
    a1b8:	3d7b2b74 bf7f84ab 3d83db0a bf7f7808     t+{=.......=.x..
    a1c8:	3d8a200a bf7f6ac7 3d9064b4 bf7f5ce9     . .=.j...d.=.\..
    a1d8:	3d96a905 bf7f4e6d 3d9cecf9 bf7f3f54     ...=mN.....=T?..
    a1e8:	3da3308c bf7f2f9d 3da973ba bf7f1f49     .0.=./...s.=I...
    a1f8:	3dafb680 bf7f0e58 3db5f8da bf7efcc9     ...=X......=..~.
    a208:	3dbc3ac3 bf7eea9d 3dc27c39 bf7ed7d4     .:.=..~.9|.=..~.
    a218:	3dc8bd36 bf7ec46d 3dcefdb7 bf7eb069     6..=m.~....=i.~.
    a228:	3dd53db9 bf7e9bc9 3ddb7d37 bf7e868b     .=.=..~.7}.=..~.
    a238:	3de1bc2e bf7e70b0 3de7fa9a bf7e5a38     ...=.p~....=8Z~.
    a248:	3dee3876 bf7e4323 3df475c0 bf7e2b72     v8.=#C~..u.=r+~.
    a258:	3dfab273 bf7e1324 3e007745 bf7dfa38     s..=$.~.Ew.>8.}.
    a268:	3e039502 bf7de0b1 3e06b26e bf7dc68c     ...>..}.n..>..}.
    a278:	3e09cf86 bf7dabcc 3e0cec4a bf7d906e     ...>..}.J..>n.}.
    a288:	3e1008b7 bf7d7474 3e1324ca bf7d57de     ...>tt}..$.>.W}.
    a298:	3e164083 bf7d3aac 3e195be0 bf7d1cdd     .@.>.:}..[.>..}.
    a2a8:	3e1c76de bf7cfe73 3e1f917b bf7cdf6c     .v.>s.|.{..>l.|.
    a2b8:	3e22abb6 bf7cbfc9 3e25c58c bf7c9f8a     ..">..|...%>..|.
    a2c8:	3e28defc bf7c7eb0 3e2bf804 bf7c5d3a     ..(>.~|...+>:]|.
    a2d8:	3e2f10a2 bf7c3b28 3e3228d4 bf7c187a     ../>(;|..(2>z.|.
    a2e8:	3e354098 bf7bf531 3e3857ec bf7bd14d     .@5>1.{..W8>M.{.
    a2f8:	3e3b6ecf bf7baccd 3e3e853e bf7b87b2     .n;>..{.>.>>..{.
    a308:	3e419b37 bf7b61fc 3e44b0b9 bf7b3bab     7.A>.a{...D>.;{.
    a318:	3e47c5c2 bf7b14be 3e4ada4f bf7aed37     ..G>..{.O.J>7.z.
    a328:	3e4dee60 bf7ac516 3e5101f1 bf7a9c59     `.M>..z...Q>Y.z.
    a338:	3e541501 bf7a7302 3e57278f bf7a4910     ..T>.sz..'W>.Iz.
    a348:	3e5a3997 bf7a1e84 3e5d4b1a bf79f35e     .9Z>..z..K]>^.y.
    a358:	3e605c13 bf79c79d 3e636c83 bf799b43     .\`>..y..lc>C.y.
    a368:	3e667c66 bf796e4e 3e698bba bf7940c0     f|f>Nny...i>.@y.
    a378:	3e6c9a7f bf791298 3e6fa8b2 bf78e3d6     ..l>..y...o>..x.
    a388:	3e72b651 bf78b47b 3e75c35a bf788486     Q.r>{.x.Z.u>..x.
    a398:	3e78cfcc bf7853f8 3e7bdba4 bf7822d1     ..x>.Sx...{>."x.
    a3a8:	3e7ee6e1 bf77f110 3e80f8c0 bf77beb7     ..~>..w....>..w.
    a3b8:	3e827dc0 bf778bc5 3e840270 bf77583a     .}.>..w.p..>:Xw.
    a3c8:	3e8586ce bf772417 3e870ada bf76ef5b     ...>.$w....>[.v.
    a3d8:	3e888e93 bf76ba07 3e8a11f8 bf76841b     ...>..v....>..v.
    a3e8:	3e8b9507 bf764d97 3e8d17c0 bf76167a     ...>.Mv....>z.v.
    a3f8:	3e8e9a22 bf75dec6 3e901c2c bf75a67b     "..>..u.,..>{.u.
    a408:	3e919ddd bf756d97 3e931f35 bf75341d     ...>.mu.5..>.4u.
    a418:	3e94a031 bf74fa0b 3e9620d2 bf74bf62     1..>..t.. .>b.t.
    a428:	3e97a117 bf748422 3e9920fe bf74484b     ...>".t.. .>KHt.
    a438:	3e9aa086 bf740bdd 3e9c1faf bf73ced9     ...>..t....>..s.
    a448:	3e9d9e78 bf73913f 3e9f1cdf bf73530e     x..>?.s....>.Ss.
    a458:	3ea09ae5 bf731447 3ea21887 bf72d4eb     ...>G.s....>..r.
    a468:	3ea395c5 bf7294f8 3ea5129f bf725470     ...>..r....>pTr.
    a478:	3ea68f12 bf721352 3ea80b1f bf71d19f     ...>R.r....>..q.
    a488:	3ea986c4 bf718f57 3eab0201 bf714c7a     ...>W.q....>zLq.
    a498:	3eac7cd4 bf710908 3eadf73c bf70c502     .|.>..q.<..>..p.
    a4a8:	3eaf713a bf708066 3eb0eacb bf703b37     :q.>f.p....>7;p.
    a4b8:	3eb263ef bf6ff573 3eb3dca5 bf6faf1b     .c.>s.o....>..o.
    a4c8:	3eb554ec bf6f6830 3eb6ccc3 bf6f20b0     .T.>0ho....>. o.
    a4d8:	3eb8442a bf6ed89e 3eb9bb1e bf6e8ff8     *D.>..n....>..n.
    a4e8:	3ebb31a0 bf6e46be 3ebca7af bf6dfcf2     .1.>.Fn....>..m.
    a4f8:	3ebe1d4a bf6db293 3ebf926f bf6d67a1     J..>..m.o..>.gm.
    a508:	3ec1071e bf6d1c1d 3ec27b55 bf6cd007     ...>..m.U{.>..l.
    a518:	3ec3ef15 bf6c835e 3ec5625c bf6c3624     ...>^.l.\b.>$6l.
    a528:	3ec6d529 bf6be858 3ec8477c bf6b99fb     )..>X.k.|G.>..k.
    a538:	3ec9b953 bf6b4b0c 3ecb2aae bf6afb8c     S..>.Kk..*.>..j.
    a548:	3ecc9b8b bf6aab7b 3ece0bea bf6a5ad9     ...>{.j....>.Zj.
    a558:	3ecf7bca bf6a09a7 3ed0eb2a bf69b7e4     .{.>..j.*..>..i.
    a568:	3ed25a09 bf696591 3ed3c867 bf6912ae     .Z.>.ei.g..>..i.
    a578:	3ed53641 bf68bf3c 3ed6a399 bf686b39     A6.><.h....>9kh.
    a588:	3ed8106b bf6816a8 3ed97cb9 bf67c187     k..>..h..|.>..g.
    a598:	3edae880 bf676bd8 3edc53c1 bf671599     ...>.kg..S.>..g.
    a5a8:	3eddbe79 bf66becc 3edf28a9 bf666771     y..>..f..(.>qgf.
    a5b8:	3ee0924f bf660f88 3ee1fb6a bf65b710     O..>..f.j..>..e.
    a5c8:	3ee363fa bf655e0b 3ee4cbfe bf650479     .c.>.^e....>y.e.
    a5d8:	3ee63375 bf64aa59 3ee79a5d bf644fac     u3.>Y.d.]..>.Od.
    a5e8:	3ee900b7 bf63f473 3eea6681 bf6398ac     ...>s.c..f.>..c.
    a5f8:	3eebcbbb bf633c5a 3eed3063 bf62df7b     ...>Z<c.c0.>{.b.
    a608:	3eee9479 bf628210 3eeff7fb bf62241a     y..>..b....>.$b.
    a618:	3ef15aea bf61c598 3ef2bd43 bf61668a     .Z.>..a.C..>.fa.
    a628:	3ef41f07 bf6106f2 3ef58035 bf60a6cf     ...>..a.5..>..`.
    a638:	3ef6e0cb bf604621 3ef840c8 bf5fe4e9     ...>!F`..@.>.._.
    a648:	3ef9a02d bf5f8327 3efafef7 bf5f20db     -..>'._....>. _.
    a658:	3efc5d27 bf5ebe05 3efdbabb bf5e5aa6     '].>..^....>.Z^.
    a668:	3eff17b2 bf5df6be 3f003a06 bf5d924d     ...>..]..:.?M.].
    a678:	3f00e7e4 bf5d2d53 3f019573 bf5cc7d1     ...?S-].s..?..\.
    a688:	3f0242b1 bf5c61c7 3f02ef9f bf5bfb34     .B.?.a\....?4.[.
    a698:	3f039c3d bf5b941a 3f044889 bf5b2c79     =..?..[..H.?y,[.
    a6a8:	3f04f484 bf5ac450 3f05a02c bf5a5ba0     ...?P.Z.,..?.[Z.
    a6b8:	3f064b82 bf59f26a 3f06f686 bf5988ad     .K.?j.Y....?..Y.
    a6c8:	3f07a136 bf591e6a 3f084b92 bf58b3a1     6..?j.Y..K.?..X.
    a6d8:	3f08f59b bf584853 3f099f4e bf57dc7f     ...?SHX.N..?..W.
    a6e8:	3f0a48ad bf577026 3f0af1b7 bf570348     .H.?&pW....?H.W.
    a6f8:	3f0b9a6b bf5695e5 3f0c42c9 bf5627fe     k..?..V..B.?.'V.
    a708:	3f0cead0 bf55b993 3f0d9281 bf554aa4     ...?..U....?.JU.
    a718:	3f0e39da bf54db31 3f0ee0db bf546b3b     .9.?1.T....?;kT.
    a728:	3f0f8784 bf53fac3 3f102dd5 bf5389c7     ...?..S..-.?..S.
    a738:	3f10d3cd bf531849 3f11796b bf52a649     ...?I.S.ky.?I.R.
    a748:	3f121eb0 bf5233c6 3f12c39a bf51c0c2     ...?.3R....?..Q.
    a758:	3f13682a bf514d3d 3f140c5f bf50d937     *h.?=MQ._..?7.P.
    a768:	3f14b039 bf5064af 3f1553b7 bf4fefa8     9..?.dP..S.?..O.
    a778:	3f15f6d9 bf4f7a1f 3f16999f bf4f0417     ...?.zO....?..O.
    a788:	3f173c07 bf4e8d90 3f17de12 bf4e1689     .<.?..N....?..N.
    a798:	3f187fc0 bf4d9f02 3f19210f bf4d26fd     ...?..M..!.?.&M.
    a7a8:	3f19c200 bf4cae79 3f1a6293 bf4c3578     ...?y.L..b.?x5L.
    a7b8:	3f1b02c6 bf4bbbf8 3f1ba299 bf4b41fa     ...?..K....?.AK.
    a7c8:	3f1c420c bf4ac77f 3f1ce11f bf4a4c87     .B.?..J....?.LJ.
    a7d8:	3f1d7fd1 bf49d112 3f1e1e22 bf495521     ...?..I."..?!UI.
    a7e8:	3f1ebc12 bf48d8b3 3f1f599f bf485bca     ...?..H..Y.?.[H.
    a7f8:	3f1ff6cb bf47de65 3f209393 bf476085     ...?e.G... ?.`G.
    a808:	3f212ff9 bf46e22a 3f21cbfb bf466354     ./!?*.F...!?TcF.
    a818:	3f226799 bf45e403 3f2302d3 bf456439     .g"?..E...#?9dE.
    a828:	3f239da9 bf44e3f5 3f24381a bf446337     ..#?..D..8$?7cD.
    a838:	3f24d225 bf43e200 3f256bcb bf436051     %.$?..C..k%?Q`C.
    a848:	3f26050a bf42de29 3f269de3 bf425b89     ..&?).B...&?.[B.
    a858:	3f273656 bf41d870 3f27ce61 bf4154e1     V6'?p.A.a.'?.TA.
    a868:	3f286605 bf40d0da 3f28fd41 bf404c5c     .f(?..@.A.(?\L@.
    a878:	3f299415 bf3fc767 3f2a2a80 bf3f41fc     ..)?g.?..**?.A?.
    a888:	3f2ac082 bf3ebc1b 3f2b561b bf3e35c5     ..*?..>..V+?.5>.
    a898:	3f2beb4a bf3daef9 3f2c800f bf3d27b8     J.+?..=...,?.'=.
    a8a8:	3f2d1469 bf3ca003 3f2da859 bf3c17d9     i.-?..<.Y.-?..<.
    a8b8:	3f2e3bde bf3b8f3b 3f2ecef7 bf3b0629     .;.?;.;....?).;.
    a8c8:	3f2f61a5 bf3a7ca4 3f2ff3e6 bf39f2ac     .a/?.|:.../?..9.
    a8d8:	3f3085bb bf396842 3f311722 bf38dd65     ..0?Bh9.".1?e.8.
    a8e8:	3f31a81d bf385216 3f3238aa bf37c655     ..1?.R8..82?U.7.
    a8f8:	3f32c8c9 bf373a23 3f33587a bf36ad7f     ..2?#:7.zX3?..6.
    a908:	3f33e7bc bf36206c 3f34768f bf3592e7     ..3?l 6..v4?..5.
    a918:	3f3504f3 bf3504f3 3f3592e7 bf34768f     ..5?..5...5?.v4.
    a928:	3f36206c bf33e7bc 3f36ad7f bf33587a     l 6?..3...6?zX3.
    a938:	3f373a23 bf32c8c9 3f37c655 bf3238aa     #:7?..2.U.7?.82.
    a948:	3f385216 bf31a81d 3f38dd65 bf311722     .R8?..1.e.8?".1.
    a958:	3f396842 bf3085bb 3f39f2ac bf2ff3e6     Bh9?..0...9?../.
    a968:	3f3a7ca4 bf2f61a5 3f3b0629 bf2ecef7     .|:?.a/.).;?....
    a978:	3f3b8f3b bf2e3bde 3f3c17d9 bf2da859     ;.;?.;....<?Y.-.
    a988:	3f3ca003 bf2d1469 3f3d27b8 bf2c800f     ..<?i.-..'=?..,.
    a998:	3f3daef9 bf2beb4a 3f3e35c5 bf2b561b     ..=?J.+..5>?.V+.
    a9a8:	3f3ebc1b bf2ac082 3f3f41fc bf2a2a80     ..>?..*..A??.**.
    a9b8:	3f3fc767 bf299415 3f404c5c bf28fd41     g.??..).\L@?A.(.
    a9c8:	3f40d0da bf286605 3f4154e1 bf27ce61     ..@?.f(..TA?a.'.
    a9d8:	3f41d870 bf273656 3f425b89 bf269de3     p.A?V6'..[B?..&.
    a9e8:	3f42de29 bf26050a 3f436051 bf256bcb     ).B?..&.Q`C?.k%.
    a9f8:	3f43e200 bf24d225 3f446337 bf24381a     ..C?%.$.7cD?.8$.
    aa08:	3f44e3f5 bf239da9 3f456439 bf2302d3     ..D?..#.9dE?..#.
    aa18:	3f45e403 bf226799 3f466354 bf21cbfb     ..E?.g".TcF?..!.
    aa28:	3f46e22a bf212ff9 3f476085 bf209393     *.F?./!..`G?.. .
    aa38:	3f47de65 bf1ff6cb 3f485bca bf1f599f     e.G?.....[H?.Y..
    aa48:	3f48d8b3 bf1ebc12 3f495521 bf1e1e22     ..H?....!UI?"...
    aa58:	3f49d112 bf1d7fd1 3f4a4c87 bf1ce11f     ..I?.....LJ?....
    aa68:	3f4ac77f bf1c420c 3f4b41fa bf1ba299     ..J?.B...AK?....
    aa78:	3f4bbbf8 bf1b02c6 3f4c3578 bf1a6293     ..K?....x5L?.b..
    aa88:	3f4cae79 bf19c200 3f4d26fd bf19210f     y.L?.....&M?.!..
    aa98:	3f4d9f02 bf187fc0 3f4e1689 bf17de12     ..M?......N?....
    aaa8:	3f4e8d90 bf173c07 3f4f0417 bf16999f     ..N?.<....O?....
    aab8:	3f4f7a1f bf15f6d9 3f4fefa8 bf1553b7     .zO?......O?.S..
    aac8:	3f5064af bf14b039 3f50d937 bf140c5f     .dP?9...7.P?_...
    aad8:	3f514d3d bf13682a 3f51c0c2 bf12c39a     =MQ?*h....Q?....
    aae8:	3f5233c6 bf121eb0 3f52a649 bf11796b     .3R?....I.R?ky..
    aaf8:	3f531849 bf10d3cd 3f5389c7 bf102dd5     I.S?......S?.-..
    ab08:	3f53fac3 bf0f8784 3f546b3b bf0ee0db     ..S?....;kT?....
    ab18:	3f54db31 bf0e39da 3f554aa4 bf0d9281     1.T?.9...JU?....
    ab28:	3f55b993 bf0cead0 3f5627fe bf0c42c9     ..U?.....'V?.B..
    ab38:	3f5695e5 bf0b9a6b 3f570348 bf0af1b7     ..V?k...H.W?....
    ab48:	3f577026 bf0a48ad 3f57dc7f bf099f4e     &pW?.H....W?N...
    ab58:	3f584853 bf08f59b 3f58b3a1 bf084b92     SHX?......X?.K..
    ab68:	3f591e6a bf07a136 3f5988ad bf06f686     j.Y?6.....Y?....
    ab78:	3f59f26a bf064b82 3f5a5ba0 bf05a02c     j.Y?.K...[Z?,...
    ab88:	3f5ac450 bf04f484 3f5b2c79 bf044889     P.Z?....y,[?.H..
    ab98:	3f5b941a bf039c3d 3f5bfb34 bf02ef9f     ..[?=...4.[?....
    aba8:	3f5c61c7 bf0242b1 3f5cc7d1 bf019573     .a\?.B....\?s...
    abb8:	3f5d2d53 bf00e7e4 3f5d924d bf003a06     S-]?....M.]?.:..
    abc8:	3f5df6be beff17b2 3f5e5aa6 befdbabb     ..]?.....Z^?....
    abd8:	3f5ebe05 befc5d27 3f5f20db befafef7     ..^?']... _?....
    abe8:	3f5f8327 bef9a02d 3f5fe4e9 bef840c8     '._?-....._?.@..
    abf8:	3f604621 bef6e0cb 3f60a6cf bef58035     !F`?......`?5...
    ac08:	3f6106f2 bef41f07 3f61668a bef2bd43     ..a?.....fa?C...
    ac18:	3f61c598 bef15aea 3f62241a beeff7fb     ..a?.Z...$b?....
    ac28:	3f628210 beee9479 3f62df7b beed3063     ..b?y...{.b?c0..
    ac38:	3f633c5a beebcbbb 3f6398ac beea6681     Z<c?......c?.f..
    ac48:	3f63f473 bee900b7 3f644fac bee79a5d     s.c?.....Od?]...
    ac58:	3f64aa59 bee63375 3f650479 bee4cbfe     Y.d?u3..y.e?....
    ac68:	3f655e0b bee363fa 3f65b710 bee1fb6a     .^e?.c....e?j...
    ac78:	3f660f88 bee0924f 3f666771 bedf28a9     ..f?O...qgf?.(..
    ac88:	3f66becc beddbe79 3f671599 bedc53c1     ..f?y.....g?.S..
    ac98:	3f676bd8 bedae880 3f67c187 bed97cb9     .kg?......g?.|..
    aca8:	3f6816a8 bed8106b 3f686b39 bed6a399     ..h?k...9kh?....
    acb8:	3f68bf3c bed53641 3f6912ae bed3c867     <.h?A6....i?g...
    acc8:	3f696591 bed25a09 3f69b7e4 bed0eb2a     .ei?.Z....i?*...
    acd8:	3f6a09a7 becf7bca 3f6a5ad9 bece0bea     ..j?.{...Zj?....
    ace8:	3f6aab7b becc9b8b 3f6afb8c becb2aae     {.j?......j?.*..
    acf8:	3f6b4b0c bec9b953 3f6b99fb bec8477c     .Kk?S.....k?|G..
    ad08:	3f6be858 bec6d529 3f6c3624 bec5625c     X.k?)...$6l?\b..
    ad18:	3f6c835e bec3ef15 3f6cd007 bec27b55     ^.l?......l?U{..
    ad28:	3f6d1c1d bec1071e 3f6d67a1 bebf926f     ..m?.....gm?o...
    ad38:	3f6db293 bebe1d4a 3f6dfcf2 bebca7af     ..m?J.....m?....
    ad48:	3f6e46be bebb31a0 3f6e8ff8 beb9bb1e     .Fn?.1....n?....
    ad58:	3f6ed89e beb8442a 3f6f20b0 beb6ccc3     ..n?*D... o?....
    ad68:	3f6f6830 beb554ec 3f6faf1b beb3dca5     0ho?.T....o?....
    ad78:	3f6ff573 beb263ef 3f703b37 beb0eacb     s.o?.c..7;p?....
    ad88:	3f708066 beaf713a 3f70c502 beadf73c     f.p?:q....p?<...
    ad98:	3f710908 beac7cd4 3f714c7a beab0201     ..q?.|..zLq?....
    ada8:	3f718f57 bea986c4 3f71d19f bea80b1f     W.q?......q?....
    adb8:	3f721352 bea68f12 3f725470 bea5129f     R.r?....pTr?....
    adc8:	3f7294f8 bea395c5 3f72d4eb bea21887     ..r?......r?....
    add8:	3f731447 bea09ae5 3f73530e be9f1cdf     G.s?.....Ss?....
    ade8:	3f73913f be9d9e78 3f73ced9 be9c1faf     ?.s?x.....s?....
    adf8:	3f740bdd be9aa086 3f74484b be9920fe     ..t?....KHt?. ..
    ae08:	3f748422 be97a117 3f74bf62 be9620d2     ".t?....b.t?. ..
    ae18:	3f74fa0b be94a031 3f75341d be931f35     ..t?1....4u?5...
    ae28:	3f756d97 be919ddd 3f75a67b be901c2c     .mu?....{.u?,...
    ae38:	3f75dec6 be8e9a22 3f76167a be8d17c0     ..u?"...z.v?....
    ae48:	3f764d97 be8b9507 3f76841b be8a11f8     .Mv?......v?....
    ae58:	3f76ba07 be888e93 3f76ef5b be870ada     ..v?....[.v?....
    ae68:	3f772417 be8586ce 3f77583a be840270     .$w?....:Xw?p...
    ae78:	3f778bc5 be827dc0 3f77beb7 be80f8c0     ..w?.}....w?....
    ae88:	3f77f110 be7ee6e1 3f7822d1 be7bdba4     ..w?..~.."x?..{.
    ae98:	3f7853f8 be78cfcc 3f788486 be75c35a     .Sx?..x...x?Z.u.
    aea8:	3f78b47b be72b651 3f78e3d6 be6fa8b2     {.x?Q.r...x?..o.
    aeb8:	3f791298 be6c9a7f 3f7940c0 be698bba     ..y?..l..@y?..i.
    aec8:	3f796e4e be667c66 3f799b43 be636c83     Nny?f|f.C.y?.lc.
    aed8:	3f79c79d be605c13 3f79f35e be5d4b1a     ..y?.\`.^.y?.K].
    aee8:	3f7a1e84 be5a3997 3f7a4910 be57278f     ..z?.9Z..Iz?.'W.
    aef8:	3f7a7302 be541501 3f7a9c59 be5101f1     .sz?..T.Y.z?..Q.
    af08:	3f7ac516 be4dee60 3f7aed37 be4ada4f     ..z?`.M.7.z?O.J.
    af18:	3f7b14be be47c5c2 3f7b3bab be44b0b9     ..{?..G..;{?..D.
    af28:	3f7b61fc be419b37 3f7b87b2 be3e853e     .a{?7.A...{?>.>.
    af38:	3f7baccd be3b6ecf 3f7bd14d be3857ec     ..{?.n;.M.{?.W8.
    af48:	3f7bf531 be354098 3f7c187a be3228d4     1.{?.@5.z.|?.(2.
    af58:	3f7c3b28 be2f10a2 3f7c5d3a be2bf804     (;|?../.:]|?..+.
    af68:	3f7c7eb0 be28defc 3f7c9f8a be25c58c     .~|?..(...|?..%.
    af78:	3f7cbfc9 be22abb6 3f7cdf6c be1f917b     ..|?..".l.|?{...
    af88:	3f7cfe73 be1c76de 3f7d1cdd be195be0     s.|?.v....}?.[..
    af98:	3f7d3aac be164083 3f7d57de be1324ca     .:}?.@...W}?.$..
    afa8:	3f7d7474 be1008b7 3f7d906e be0cec4a     tt}?....n.}?J...
    afb8:	3f7dabcc be09cf86 3f7dc68c be06b26e     ..}?......}?n...
    afc8:	3f7de0b1 be039502 3f7dfa38 be007745     ..}?....8.}?Ew..
    afd8:	3f7e1324 bdfab273 3f7e2b72 bdf475c0     $.~?s...r+~?.u..
    afe8:	3f7e4323 bdee3876 3f7e5a38 bde7fa9a     #C~?v8..8Z~?....
    aff8:	3f7e70b0 bde1bc2e 3f7e868b bddb7d37     .p~?......~?7}..
    b008:	3f7e9bc9 bdd53db9 3f7eb069 bdcefdb7     ..~?.=..i.~?....
    b018:	3f7ec46d bdc8bd36 3f7ed7d4 bdc27c39     m.~?6.....~?9|..
    b028:	3f7eea9d bdbc3ac3 3f7efcc9 bdb5f8da     ..~?.:....~?....
    b038:	3f7f0e58 bdafb680 3f7f1f49 bda973ba     X..?....I..?.s..
    b048:	3f7f2f9d bda3308c 3f7f3f54 bd9cecf9     ./.?.0..T?.?....
    b058:	3f7f4e6d bd96a905 3f7f5ce9 bd9064b4     mN.?.....\.?.d..
    b068:	3f7f6ac7 bd8a200a 3f7f7808 bd83db0a     .j.?. ...x.?....
    b078:	3f7f84ab bd7b2b74 3f7f90b1 bd6ea038     ...?t+{....?8.n.
    b088:	3f7f9c18 bd621468 3f7fa6e3 bd55880e     ...?h.b....?..U.
    b098:	3f7fb10f bd48fb2f 3f7fba9e bd3c6dd5     ...?/.H....?.m<.
    b0a8:	3f7fc38f bd2fe007 3f7fcbe2 bd2351cc     ...?../....?.Q#.
    b0b8:	3f7fd398 bd16c32c 3f7fdaaf bd0a342f     ...?,......?/4..
    b0c8:	3f7fe129 bcfb49b9 3f7fe705 bce22a7b     )..?.I.....?{*..
    b0d8:	3f7fec43 bcc90ab0 3f7ff0e3 bcafea69     C..?.......?i...
    b0e8:	3f7ff4e6 bc96c9b6 3f7ff84a bc7b514b     ...?....J..?KQ{.
    b0f8:	3f7ffb11 bc490e90 3f7ffd39 bc16cb59     ...?..I.9..?Y...
    b108:	3f7ffec4 bbc90f89 3f7fffb1 bb490fc7     ...?.......?..I.

0000b118 <armBitRevIndexTable64>:
    b118:	00400008 00800010 00c00018 01000020     ..@......... ...
    b128:	01400028 01800030 01c00038 00880050     (.@.0...8...P...
    b138:	00c80058 01080060 01480068 01880070     X...`...h.H.p...
    b148:	01c80078 00d00098 011000a0 015000a8     x.............P.
    b158:	019000b0 01d000b8 011800e0 015800e8     ..............X.
    b168:	019800f0 01d800f8 01600128 01a00130     ........(.`.0...
    b178:	01e00138 01a80170 01e80178 01f001b8     8...p...x.......

0000b188 <twiddleCoef_256>:
    b188:	3f800000 00000000 3f7fec43 3cc90ab0     ...?....C..?...<
    b198:	3f7fb10f 3d48fb2f 3f7f4e6d 3d96a905     ...?/.H=mN.?...=
    b1a8:	3f7ec46d 3dc8bd36 3f7e1324 3dfab273     m.~?6..=$.~?s..=
    b1b8:	3f7d3aac 3e164083 3f7c3b28 3e2f10a2     .:}?.@.>(;|?../>
    b1c8:	3f7b14be 3e47c5c2 3f79c79d 3e605c13     ..{?..G>..y?.\`>
    b1d8:	3f7853f8 3e78cfcc 3f76ba07 3e888e93     .Sx?..x>..v?...>
    b1e8:	3f74fa0b 3e94a031 3f731447 3ea09ae5     ..t?1..>G.s?...>
    b1f8:	3f710908 3eac7cd4 3f6ed89e 3eb8442a     ..q?.|.>..n?*D.>
    b208:	3f6c835e 3ec3ef15 3f6a09a7 3ecf7bca     ^.l?...>..j?.{.>
    b218:	3f676bd8 3edae880 3f64aa59 3ee63375     .kg?...>Y.d?u3.>
    b228:	3f61c598 3ef15aea 3f5ebe05 3efc5d27     ..a?.Z.>..^?'].>
    b238:	3f5b941a 3f039c3d 3f584853 3f08f59b     ..[?=..?SHX?...?
    b248:	3f54db31 3f0e39da 3f514d3d 3f13682a     1.T?.9.?=MQ?*h.?
    b258:	3f4d9f02 3f187fc0 3f49d112 3f1d7fd1     ..M?...?..I?...?
    b268:	3f45e403 3f226799 3f41d870 3f273656     ..E?.g"?p.A?V6'?
    b278:	3f3daef9 3f2beb4a 3f396842 3f3085bb     ..=?J.+?Bh9?..0?
    b288:	3f3504f3 3f3504f3 3f3085bb 3f396842     ..5?..5?..0?Bh9?
    b298:	3f2beb4a 3f3daef9 3f273656 3f41d870     J.+?..=?V6'?p.A?
    b2a8:	3f226799 3f45e403 3f1d7fd1 3f49d112     .g"?..E?...?..I?
    b2b8:	3f187fc0 3f4d9f02 3f13682a 3f514d3d     ...?..M?*h.?=MQ?
    b2c8:	3f0e39da 3f54db31 3f08f59b 3f584853     .9.?1.T?...?SHX?
    b2d8:	3f039c3d 3f5b941a 3efc5d27 3f5ebe05     =..?..[?'].>..^?
    b2e8:	3ef15aea 3f61c598 3ee63375 3f64aa59     .Z.>..a?u3.>Y.d?
    b2f8:	3edae880 3f676bd8 3ecf7bca 3f6a09a7     ...>.kg?.{.>..j?
    b308:	3ec3ef15 3f6c835e 3eb8442a 3f6ed89e     ...>^.l?*D.>..n?
    b318:	3eac7cd4 3f710908 3ea09ae5 3f731447     .|.>..q?...>G.s?
    b328:	3e94a031 3f74fa0b 3e888e93 3f76ba07     1..>..t?...>..v?
    b338:	3e78cfcc 3f7853f8 3e605c13 3f79c79d     ..x>.Sx?.\`>..y?
    b348:	3e47c5c2 3f7b14be 3e2f10a2 3f7c3b28     ..G>..{?../>(;|?
    b358:	3e164083 3f7d3aac 3dfab273 3f7e1324     .@.>.:}?s..=$.~?
    b368:	3dc8bd36 3f7ec46d 3d96a905 3f7f4e6d     6..=m.~?...=mN.?
    b378:	3d48fb2f 3f7fb10f 3cc90ab0 3f7fec43     /.H=...?...<C..?
    b388:	00000000 3f800000 bcc90ab0 3f7fec43     .......?....C..?
    b398:	bd48fb2f 3f7fb10f bd96a905 3f7f4e6d     /.H....?....mN.?
    b3a8:	bdc8bd36 3f7ec46d bdfab273 3f7e1324     6...m.~?s...$.~?
    b3b8:	be164083 3f7d3aac be2f10a2 3f7c3b28     .@...:}?../.(;|?
    b3c8:	be47c5c2 3f7b14be be605c13 3f79c79d     ..G...{?.\`...y?
    b3d8:	be78cfcc 3f7853f8 be888e93 3f76ba07     ..x..Sx?......v?
    b3e8:	be94a031 3f74fa0b bea09ae5 3f731447     1.....t?....G.s?
    b3f8:	beac7cd4 3f710908 beb8442a 3f6ed89e     .|....q?*D....n?
    b408:	bec3ef15 3f6c835e becf7bca 3f6a09a7     ....^.l?.{....j?
    b418:	bedae880 3f676bd8 bee63375 3f64aa59     .....kg?u3..Y.d?
    b428:	bef15aea 3f61c598 befc5d27 3f5ebe05     .Z....a?']....^?
    b438:	bf039c3d 3f5b941a bf08f59b 3f584853     =.....[?....SHX?
    b448:	bf0e39da 3f54db31 bf13682a 3f514d3d     .9..1.T?*h..=MQ?
    b458:	bf187fc0 3f4d9f02 bf1d7fd1 3f49d112     ......M?......I?
    b468:	bf226799 3f45e403 bf273656 3f41d870     .g"...E?V6'.p.A?
    b478:	bf2beb4a 3f3daef9 bf3085bb 3f396842     J.+...=?..0.Bh9?
    b488:	bf3504f3 3f3504f3 bf396842 3f3085bb     ..5...5?Bh9...0?
    b498:	bf3daef9 3f2beb4a bf41d870 3f273656     ..=.J.+?p.A.V6'?
    b4a8:	bf45e403 3f226799 bf49d112 3f1d7fd1     ..E..g"?..I....?
    b4b8:	bf4d9f02 3f187fc0 bf514d3d 3f13682a     ..M....?=MQ.*h.?
    b4c8:	bf54db31 3f0e39da bf584853 3f08f59b     1.T..9.?SHX....?
    b4d8:	bf5b941a 3f039c3d bf5ebe05 3efc5d27     ..[.=..?..^.'].>
    b4e8:	bf61c598 3ef15aea bf64aa59 3ee63375     ..a..Z.>Y.d.u3.>
    b4f8:	bf676bd8 3edae880 bf6a09a7 3ecf7bca     .kg....>..j..{.>
    b508:	bf6c835e 3ec3ef15 bf6ed89e 3eb8442a     ^.l....>..n.*D.>
    b518:	bf710908 3eac7cd4 bf731447 3ea09ae5     ..q..|.>G.s....>
    b528:	bf74fa0b 3e94a031 bf76ba07 3e888e93     ..t.1..>..v....>
    b538:	bf7853f8 3e78cfcc bf79c79d 3e605c13     .Sx...x>..y..\`>
    b548:	bf7b14be 3e47c5c2 bf7c3b28 3e2f10a2     ..{...G>(;|.../>
    b558:	bf7d3aac 3e164083 bf7e1324 3dfab273     .:}..@.>$.~.s..=
    b568:	bf7ec46d 3dc8bd36 bf7f4e6d 3d96a905     m.~.6..=mN.....=
    b578:	bf7fb10f 3d48fb2f bf7fec43 3cc90ab0     ..../.H=C......<
    b588:	bf800000 00000000 bf7fec43 bcc90ab0     ........C.......
    b598:	bf7fb10f bd48fb2f bf7f4e6d bd96a905     ..../.H.mN......
    b5a8:	bf7ec46d bdc8bd36 bf7e1324 bdfab273     m.~.6...$.~.s...
    b5b8:	bf7d3aac be164083 bf7c3b28 be2f10a2     .:}..@..(;|.../.
    b5c8:	bf7b14be be47c5c2 bf79c79d be605c13     ..{...G...y..\`.
    b5d8:	bf7853f8 be78cfcc bf76ba07 be888e93     .Sx...x...v.....
    b5e8:	bf74fa0b be94a031 bf731447 bea09ae5     ..t.1...G.s.....
    b5f8:	bf710908 beac7cd4 bf6ed89e beb8442a     ..q..|....n.*D..
    b608:	bf6c835e bec3ef15 bf6a09a7 becf7bca     ^.l.......j..{..
    b618:	bf676bd8 bedae880 bf64aa59 bee63375     .kg.....Y.d.u3..
    b628:	bf61c598 bef15aea bf5ebe05 befc5d27     ..a..Z....^.']..
    b638:	bf5b941a bf039c3d bf584853 bf08f59b     ..[.=...SHX.....
    b648:	bf54db31 bf0e39da bf514d3d bf13682a     1.T..9..=MQ.*h..
    b658:	bf4d9f02 bf187fc0 bf49d112 bf1d7fd1     ..M.......I.....
    b668:	bf45e403 bf226799 bf41d870 bf273656     ..E..g".p.A.V6'.
    b678:	bf3daef9 bf2beb4a bf396842 bf3085bb     ..=.J.+.Bh9...0.
    b688:	bf3504f3 bf3504f3 bf3085bb bf396842     ..5...5...0.Bh9.
    b698:	bf2beb4a bf3daef9 bf273656 bf41d870     J.+...=.V6'.p.A.
    b6a8:	bf226799 bf45e403 bf1d7fd1 bf49d112     .g"...E.......I.
    b6b8:	bf187fc0 bf4d9f02 bf13682a bf514d3d     ......M.*h..=MQ.
    b6c8:	bf0e39da bf54db31 bf08f59b bf584853     .9..1.T.....SHX.
    b6d8:	bf039c3d bf5b941a befc5d27 bf5ebe05     =.....[.']....^.
    b6e8:	bef15aea bf61c598 bee63375 bf64aa59     .Z....a.u3..Y.d.
    b6f8:	bedae880 bf676bd8 becf7bca bf6a09a7     .....kg..{....j.
    b708:	bec3ef15 bf6c835e beb8442a bf6ed89e     ....^.l.*D....n.
    b718:	beac7cd4 bf710908 bea09ae5 bf731447     .|....q.....G.s.
    b728:	be94a031 bf74fa0b be888e93 bf76ba07     1.....t.......v.
    b738:	be78cfcc bf7853f8 be605c13 bf79c79d     ..x..Sx..\`...y.
    b748:	be47c5c2 bf7b14be be2f10a2 bf7c3b28     ..G...{.../.(;|.
    b758:	be164083 bf7d3aac bdfab273 bf7e1324     .@...:}.s...$.~.
    b768:	bdc8bd36 bf7ec46d bd96a905 bf7f4e6d     6...m.~.....mN..
    b778:	bd48fb2f bf7fb10f bcc90ab0 bf7fec43     /.H.........C...
    b788:	80000000 bf800000 3cc90ab0 bf7fec43     ...........<C...
    b798:	3d48fb2f bf7fb10f 3d96a905 bf7f4e6d     /.H=.......=mN..
    b7a8:	3dc8bd36 bf7ec46d 3dfab273 bf7e1324     6..=m.~.s..=$.~.
    b7b8:	3e164083 bf7d3aac 3e2f10a2 bf7c3b28     .@.>.:}.../>(;|.
    b7c8:	3e47c5c2 bf7b14be 3e605c13 bf79c79d     ..G>..{..\`>..y.
    b7d8:	3e78cfcc bf7853f8 3e888e93 bf76ba07     ..x>.Sx....>..v.
    b7e8:	3e94a031 bf74fa0b 3ea09ae5 bf731447     1..>..t....>G.s.
    b7f8:	3eac7cd4 bf710908 3eb8442a bf6ed89e     .|.>..q.*D.>..n.
    b808:	3ec3ef15 bf6c835e 3ecf7bca bf6a09a7     ...>^.l..{.>..j.
    b818:	3edae880 bf676bd8 3ee63375 bf64aa59     ...>.kg.u3.>Y.d.
    b828:	3ef15aea bf61c598 3efc5d27 bf5ebe05     .Z.>..a.'].>..^.
    b838:	3f039c3d bf5b941a 3f08f59b bf584853     =..?..[....?SHX.
    b848:	3f0e39da bf54db31 3f13682a bf514d3d     .9.?1.T.*h.?=MQ.
    b858:	3f187fc0 bf4d9f02 3f1d7fd1 bf49d112     ...?..M....?..I.
    b868:	3f226799 bf45e403 3f273656 bf41d870     .g"?..E.V6'?p.A.
    b878:	3f2beb4a bf3daef9 3f3085bb bf396842     J.+?..=...0?Bh9.
    b888:	3f3504f3 bf3504f3 3f396842 bf3085bb     ..5?..5.Bh9?..0.
    b898:	3f3daef9 bf2beb4a 3f41d870 bf273656     ..=?J.+.p.A?V6'.
    b8a8:	3f45e403 bf226799 3f49d112 bf1d7fd1     ..E?.g"...I?....
    b8b8:	3f4d9f02 bf187fc0 3f514d3d bf13682a     ..M?....=MQ?*h..
    b8c8:	3f54db31 bf0e39da 3f584853 bf08f59b     1.T?.9..SHX?....
    b8d8:	3f5b941a bf039c3d 3f5ebe05 befc5d27     ..[?=.....^?']..
    b8e8:	3f61c598 bef15aea 3f64aa59 bee63375     ..a?.Z..Y.d?u3..
    b8f8:	3f676bd8 bedae880 3f6a09a7 becf7bca     .kg?......j?.{..
    b908:	3f6c835e bec3ef15 3f6ed89e beb8442a     ^.l?......n?*D..
    b918:	3f710908 beac7cd4 3f731447 bea09ae5     ..q?.|..G.s?....
    b928:	3f74fa0b be94a031 3f76ba07 be888e93     ..t?1.....v?....
    b938:	3f7853f8 be78cfcc 3f79c79d be605c13     .Sx?..x...y?.\`.
    b948:	3f7b14be be47c5c2 3f7c3b28 be2f10a2     ..{?..G.(;|?../.
    b958:	3f7d3aac be164083 3f7e1324 bdfab273     .:}?.@..$.~?s...
    b968:	3f7ec46d bdc8bd36 3f7f4e6d bd96a905     m.~?6...mN.?....
    b978:	3f7fb10f bd48fb2f 3f7fec43 bcc90ab0     ...?/.H.C..?....

0000b988 <twiddleCoef_16>:
    b988:	3f800000 00000000 3f6c835e 3ec3ef15     ...?....^.l?...>
    b998:	3f3504f3 3f3504f3 3ec3ef15 3f6c835e     ..5?..5?...>^.l?
    b9a8:	00000000 3f800000 bec3ef15 3f6c835e     .......?....^.l?
    b9b8:	bf3504f3 3f3504f3 bf6c835e 3ec3ef15     ..5...5?^.l....>
    b9c8:	bf800000 00000000 bf6c835e bec3ef15     ........^.l.....
    b9d8:	bf3504f3 bf3504f3 bec3ef15 bf6c835e     ..5...5.....^.l.
    b9e8:	80000000 bf800000 3ec3ef15 bf6c835e     ...........>^.l.
    b9f8:	3f3504f3 bf3504f3 3f6c835e bec3ef15     ..5?..5.^.l?....

0000ba08 <twiddleCoef_1024>:
    ba08:	3f800000 00000000 3f7ffec4 3bc90f89     ...?.......?...;
    ba18:	3f7ffb11 3c490e90 3f7ff4e6 3c96c9b6     ...?..I<...?...<
    ba28:	3f7fec43 3cc90ab0 3f7fe129 3cfb49b9     C..?...<)..?.I.<
    ba38:	3f7fd398 3d16c32c 3f7fc38f 3d2fe007     ...?,..=...?../=
    ba48:	3f7fb10f 3d48fb2f 3f7f9c18 3d621468     ...?/.H=...?h.b=
    ba58:	3f7f84ab 3d7b2b74 3f7f6ac7 3d8a200a     ...?t+{=.j.?. .=
    ba68:	3f7f4e6d 3d96a905 3f7f2f9d 3da3308c     mN.?...=./.?.0.=
    ba78:	3f7f0e58 3dafb680 3f7eea9d 3dbc3ac3     X..?...=..~?.:.=
    ba88:	3f7ec46d 3dc8bd36 3f7e9bc9 3dd53db9     m.~?6..=..~?.=.=
    ba98:	3f7e70b0 3de1bc2e 3f7e4323 3dee3876     .p~?...=#C~?v8.=
    baa8:	3f7e1324 3dfab273 3f7de0b1 3e039502     $.~?s..=..}?...>
    bab8:	3f7dabcc 3e09cf86 3f7d7474 3e1008b7     ..}?...>tt}?...>
    bac8:	3f7d3aac 3e164083 3f7cfe73 3e1c76de     .:}?.@.>s.|?.v.>
    bad8:	3f7cbfc9 3e22abb6 3f7c7eb0 3e28defc     ..|?..">.~|?..(>
    bae8:	3f7c3b28 3e2f10a2 3f7bf531 3e354098     (;|?../>1.{?.@5>
    baf8:	3f7baccd 3e3b6ecf 3f7b61fc 3e419b37     ..{?.n;>.a{?7.A>
    bb08:	3f7b14be 3e47c5c2 3f7ac516 3e4dee60     ..{?..G>..z?`.M>
    bb18:	3f7a7302 3e541501 3f7a1e84 3e5a3997     .sz?..T>..z?.9Z>
    bb28:	3f79c79d 3e605c13 3f796e4e 3e667c66     ..y?.\`>Nny?f|f>
    bb38:	3f791298 3e6c9a7f 3f78b47b 3e72b651     ..y?..l>{.x?Q.r>
    bb48:	3f7853f8 3e78cfcc 3f77f110 3e7ee6e1     .Sx?..x>..w?..~>
    bb58:	3f778bc5 3e827dc0 3f772417 3e8586ce     ..w?.}.>.$w?...>
    bb68:	3f76ba07 3e888e93 3f764d97 3e8b9507     ..v?...>.Mv?...>
    bb78:	3f75dec6 3e8e9a22 3f756d97 3e919ddd     ..u?"..>.mu?...>
    bb88:	3f74fa0b 3e94a031 3f748422 3e97a117     ..t?1..>".t?...>
    bb98:	3f740bdd 3e9aa086 3f73913f 3e9d9e78     ..t?...>?.s?x..>
    bba8:	3f731447 3ea09ae5 3f7294f8 3ea395c5     G.s?...>..r?...>
    bbb8:	3f721352 3ea68f12 3f718f57 3ea986c4     R.r?...>W.q?...>
    bbc8:	3f710908 3eac7cd4 3f708066 3eaf713a     ..q?.|.>f.p?:q.>
    bbd8:	3f6ff573 3eb263ef 3f6f6830 3eb554ec     s.o?.c.>0ho?.T.>
    bbe8:	3f6ed89e 3eb8442a 3f6e46be 3ebb31a0     ..n?*D.>.Fn?.1.>
    bbf8:	3f6db293 3ebe1d4a 3f6d1c1d 3ec1071e     ..m?J..>..m?...>
    bc08:	3f6c835e 3ec3ef15 3f6be858 3ec6d529     ^.l?...>X.k?)..>
    bc18:	3f6b4b0c 3ec9b953 3f6aab7b 3ecc9b8b     .Kk?S..>{.j?...>
    bc28:	3f6a09a7 3ecf7bca 3f696591 3ed25a09     ..j?.{.>.ei?.Z.>
    bc38:	3f68bf3c 3ed53641 3f6816a8 3ed8106b     <.h?A6.>..h?k..>
    bc48:	3f676bd8 3edae880 3f66becc 3eddbe79     .kg?...>..f?y..>
    bc58:	3f660f88 3ee0924f 3f655e0b 3ee363fa     ..f?O..>.^e?.c.>
    bc68:	3f64aa59 3ee63375 3f63f473 3ee900b7     Y.d?u3.>s.c?...>
    bc78:	3f633c5a 3eebcbbb 3f628210 3eee9479     Z<c?...>..b?y..>
    bc88:	3f61c598 3ef15aea 3f6106f2 3ef41f07     ..a?.Z.>..a?...>
    bc98:	3f604621 3ef6e0cb 3f5f8327 3ef9a02d     !F`?...>'._?-..>
    bca8:	3f5ebe05 3efc5d27 3f5df6be 3eff17b2     ..^?'].>..]?...>
    bcb8:	3f5d2d53 3f00e7e4 3f5c61c7 3f0242b1     S-]?...?.a\?.B.?
    bcc8:	3f5b941a 3f039c3d 3f5ac450 3f04f484     ..[?=..?P.Z?...?
    bcd8:	3f59f26a 3f064b82 3f591e6a 3f07a136     j.Y?.K.?j.Y?6..?
    bce8:	3f584853 3f08f59b 3f577026 3f0a48ad     SHX?...?&pW?.H.?
    bcf8:	3f5695e5 3f0b9a6b 3f55b993 3f0cead0     ..V?k..?..U?...?
    bd08:	3f54db31 3f0e39da 3f53fac3 3f0f8784     1.T?.9.?..S?...?
    bd18:	3f531849 3f10d3cd 3f5233c6 3f121eb0     I.S?...?.3R?...?
    bd28:	3f514d3d 3f13682a 3f5064af 3f14b039     =MQ?*h.?.dP?9..?
    bd38:	3f4f7a1f 3f15f6d9 3f4e8d90 3f173c07     .zO?...?..N?.<.?
    bd48:	3f4d9f02 3f187fc0 3f4cae79 3f19c200     ..M?...?y.L?...?
    bd58:	3f4bbbf8 3f1b02c6 3f4ac77f 3f1c420c     ..K?...?..J?.B.?
    bd68:	3f49d112 3f1d7fd1 3f48d8b3 3f1ebc12     ..I?...?..H?...?
    bd78:	3f47de65 3f1ff6cb 3f46e22a 3f212ff9     e.G?...?*.F?./!?
    bd88:	3f45e403 3f226799 3f44e3f5 3f239da9     ..E?.g"?..D?..#?
    bd98:	3f43e200 3f24d225 3f42de29 3f26050a     ..C?%.$?).B?..&?
    bda8:	3f41d870 3f273656 3f40d0da 3f286605     p.A?V6'?..@?.f(?
    bdb8:	3f3fc767 3f299415 3f3ebc1b 3f2ac082     g.??..)?..>?..*?
    bdc8:	3f3daef9 3f2beb4a 3f3ca003 3f2d1469     ..=?J.+?..<?i.-?
    bdd8:	3f3b8f3b 3f2e3bde 3f3a7ca4 3f2f61a5     ;.;?.;.?.|:?.a/?
    bde8:	3f396842 3f3085bb 3f385216 3f31a81d     Bh9?..0?.R8?..1?
    bdf8:	3f373a23 3f32c8c9 3f36206c 3f33e7bc     #:7?..2?l 6?..3?
    be08:	3f3504f3 3f3504f3 3f33e7bc 3f36206c     ..5?..5?..3?l 6?
    be18:	3f32c8c9 3f373a23 3f31a81d 3f385216     ..2?#:7?..1?.R8?
    be28:	3f3085bb 3f396842 3f2f61a5 3f3a7ca4     ..0?Bh9?.a/?.|:?
    be38:	3f2e3bde 3f3b8f3b 3f2d1469 3f3ca003     .;.?;.;?i.-?..<?
    be48:	3f2beb4a 3f3daef9 3f2ac082 3f3ebc1b     J.+?..=?..*?..>?
    be58:	3f299415 3f3fc767 3f286605 3f40d0da     ..)?g.??.f(?..@?
    be68:	3f273656 3f41d870 3f26050a 3f42de29     V6'?p.A?..&?).B?
    be78:	3f24d225 3f43e200 3f239da9 3f44e3f5     %.$?..C?..#?..D?
    be88:	3f226799 3f45e403 3f212ff9 3f46e22a     .g"?..E?./!?*.F?
    be98:	3f1ff6cb 3f47de65 3f1ebc12 3f48d8b3     ...?e.G?...?..H?
    bea8:	3f1d7fd1 3f49d112 3f1c420c 3f4ac77f     ...?..I?.B.?..J?
    beb8:	3f1b02c6 3f4bbbf8 3f19c200 3f4cae79     ...?..K?...?y.L?
    bec8:	3f187fc0 3f4d9f02 3f173c07 3f4e8d90     ...?..M?.<.?..N?
    bed8:	3f15f6d9 3f4f7a1f 3f14b039 3f5064af     ...?.zO?9..?.dP?
    bee8:	3f13682a 3f514d3d 3f121eb0 3f5233c6     *h.?=MQ?...?.3R?
    bef8:	3f10d3cd 3f531849 3f0f8784 3f53fac3     ...?I.S?...?..S?
    bf08:	3f0e39da 3f54db31 3f0cead0 3f55b993     .9.?1.T?...?..U?
    bf18:	3f0b9a6b 3f5695e5 3f0a48ad 3f577026     k..?..V?.H.?&pW?
    bf28:	3f08f59b 3f584853 3f07a136 3f591e6a     ...?SHX?6..?j.Y?
    bf38:	3f064b82 3f59f26a 3f04f484 3f5ac450     .K.?j.Y?...?P.Z?
    bf48:	3f039c3d 3f5b941a 3f0242b1 3f5c61c7     =..?..[?.B.?.a\?
    bf58:	3f00e7e4 3f5d2d53 3eff17b2 3f5df6be     ...?S-]?...>..]?
    bf68:	3efc5d27 3f5ebe05 3ef9a02d 3f5f8327     '].>..^?-..>'._?
    bf78:	3ef6e0cb 3f604621 3ef41f07 3f6106f2     ...>!F`?...>..a?
    bf88:	3ef15aea 3f61c598 3eee9479 3f628210     .Z.>..a?y..>..b?
    bf98:	3eebcbbb 3f633c5a 3ee900b7 3f63f473     ...>Z<c?...>s.c?
    bfa8:	3ee63375 3f64aa59 3ee363fa 3f655e0b     u3.>Y.d?.c.>.^e?
    bfb8:	3ee0924f 3f660f88 3eddbe79 3f66becc     O..>..f?y..>..f?
    bfc8:	3edae880 3f676bd8 3ed8106b 3f6816a8     ...>.kg?k..>..h?
    bfd8:	3ed53641 3f68bf3c 3ed25a09 3f696591     A6.><.h?.Z.>.ei?
    bfe8:	3ecf7bca 3f6a09a7 3ecc9b8b 3f6aab7b     .{.>..j?...>{.j?
    bff8:	3ec9b953 3f6b4b0c 3ec6d529 3f6be858     S..>.Kk?)..>X.k?
    c008:	3ec3ef15 3f6c835e 3ec1071e 3f6d1c1d     ...>^.l?...>..m?
    c018:	3ebe1d4a 3f6db293 3ebb31a0 3f6e46be     J..>..m?.1.>.Fn?
    c028:	3eb8442a 3f6ed89e 3eb554ec 3f6f6830     *D.>..n?.T.>0ho?
    c038:	3eb263ef 3f6ff573 3eaf713a 3f708066     .c.>s.o?:q.>f.p?
    c048:	3eac7cd4 3f710908 3ea986c4 3f718f57     .|.>..q?...>W.q?
    c058:	3ea68f12 3f721352 3ea395c5 3f7294f8     ...>R.r?...>..r?
    c068:	3ea09ae5 3f731447 3e9d9e78 3f73913f     ...>G.s?x..>?.s?
    c078:	3e9aa086 3f740bdd 3e97a117 3f748422     ...>..t?...>".t?
    c088:	3e94a031 3f74fa0b 3e919ddd 3f756d97     1..>..t?...>.mu?
    c098:	3e8e9a22 3f75dec6 3e8b9507 3f764d97     "..>..u?...>.Mv?
    c0a8:	3e888e93 3f76ba07 3e8586ce 3f772417     ...>..v?...>.$w?
    c0b8:	3e827dc0 3f778bc5 3e7ee6e1 3f77f110     .}.>..w?..~>..w?
    c0c8:	3e78cfcc 3f7853f8 3e72b651 3f78b47b     ..x>.Sx?Q.r>{.x?
    c0d8:	3e6c9a7f 3f791298 3e667c66 3f796e4e     ..l>..y?f|f>Nny?
    c0e8:	3e605c13 3f79c79d 3e5a3997 3f7a1e84     .\`>..y?.9Z>..z?
    c0f8:	3e541501 3f7a7302 3e4dee60 3f7ac516     ..T>.sz?`.M>..z?
    c108:	3e47c5c2 3f7b14be 3e419b37 3f7b61fc     ..G>..{?7.A>.a{?
    c118:	3e3b6ecf 3f7baccd 3e354098 3f7bf531     .n;>..{?.@5>1.{?
    c128:	3e2f10a2 3f7c3b28 3e28defc 3f7c7eb0     ../>(;|?..(>.~|?
    c138:	3e22abb6 3f7cbfc9 3e1c76de 3f7cfe73     ..">..|?.v.>s.|?
    c148:	3e164083 3f7d3aac 3e1008b7 3f7d7474     .@.>.:}?...>tt}?
    c158:	3e09cf86 3f7dabcc 3e039502 3f7de0b1     ...>..}?...>..}?
    c168:	3dfab273 3f7e1324 3dee3876 3f7e4323     s..=$.~?v8.=#C~?
    c178:	3de1bc2e 3f7e70b0 3dd53db9 3f7e9bc9     ...=.p~?.=.=..~?
    c188:	3dc8bd36 3f7ec46d 3dbc3ac3 3f7eea9d     6..=m.~?.:.=..~?
    c198:	3dafb680 3f7f0e58 3da3308c 3f7f2f9d     ...=X..?.0.=./.?
    c1a8:	3d96a905 3f7f4e6d 3d8a200a 3f7f6ac7     ...=mN.?. .=.j.?
    c1b8:	3d7b2b74 3f7f84ab 3d621468 3f7f9c18     t+{=...?h.b=...?
    c1c8:	3d48fb2f 3f7fb10f 3d2fe007 3f7fc38f     /.H=...?../=...?
    c1d8:	3d16c32c 3f7fd398 3cfb49b9 3f7fe129     ,..=...?.I.<)..?
    c1e8:	3cc90ab0 3f7fec43 3c96c9b6 3f7ff4e6     ...<C..?...<...?
    c1f8:	3c490e90 3f7ffb11 3bc90f89 3f7ffec4     ..I<...?...;...?
    c208:	00000000 3f800000 bbc90f89 3f7ffec4     .......?.......?
    c218:	bc490e90 3f7ffb11 bc96c9b6 3f7ff4e6     ..I....?.......?
    c228:	bcc90ab0 3f7fec43 bcfb49b9 3f7fe129     ....C..?.I..)..?
    c238:	bd16c32c 3f7fd398 bd2fe007 3f7fc38f     ,......?../....?
    c248:	bd48fb2f 3f7fb10f bd621468 3f7f9c18     /.H....?h.b....?
    c258:	bd7b2b74 3f7f84ab bd8a200a 3f7f6ac7     t+{....?. ...j.?
    c268:	bd96a905 3f7f4e6d bda3308c 3f7f2f9d     ....mN.?.0.../.?
    c278:	bdafb680 3f7f0e58 bdbc3ac3 3f7eea9d     ....X..?.:....~?
    c288:	bdc8bd36 3f7ec46d bdd53db9 3f7e9bc9     6...m.~?.=....~?
    c298:	bde1bc2e 3f7e70b0 bdee3876 3f7e4323     .....p~?v8..#C~?
    c2a8:	bdfab273 3f7e1324 be039502 3f7de0b1     s...$.~?......}?
    c2b8:	be09cf86 3f7dabcc be1008b7 3f7d7474     ......}?....tt}?
    c2c8:	be164083 3f7d3aac be1c76de 3f7cfe73     .@...:}?.v..s.|?
    c2d8:	be22abb6 3f7cbfc9 be28defc 3f7c7eb0     .."...|?..(..~|?
    c2e8:	be2f10a2 3f7c3b28 be354098 3f7bf531     ../.(;|?.@5.1.{?
    c2f8:	be3b6ecf 3f7baccd be419b37 3f7b61fc     .n;...{?7.A..a{?
    c308:	be47c5c2 3f7b14be be4dee60 3f7ac516     ..G...{?`.M...z?
    c318:	be541501 3f7a7302 be5a3997 3f7a1e84     ..T..sz?.9Z...z?
    c328:	be605c13 3f79c79d be667c66 3f796e4e     .\`...y?f|f.Nny?
    c338:	be6c9a7f 3f791298 be72b651 3f78b47b     ..l...y?Q.r.{.x?
    c348:	be78cfcc 3f7853f8 be7ee6e1 3f77f110     ..x..Sx?..~...w?
    c358:	be827dc0 3f778bc5 be8586ce 3f772417     .}....w?.....$w?
    c368:	be888e93 3f76ba07 be8b9507 3f764d97     ......v?.....Mv?
    c378:	be8e9a22 3f75dec6 be919ddd 3f756d97     ".....u?.....mu?
    c388:	be94a031 3f74fa0b be97a117 3f748422     1.....t?....".t?
    c398:	be9aa086 3f740bdd be9d9e78 3f73913f     ......t?x...?.s?
    c3a8:	bea09ae5 3f731447 bea395c5 3f7294f8     ....G.s?......r?
    c3b8:	bea68f12 3f721352 bea986c4 3f718f57     ....R.r?....W.q?
    c3c8:	beac7cd4 3f710908 beaf713a 3f708066     .|....q?:q..f.p?
    c3d8:	beb263ef 3f6ff573 beb554ec 3f6f6830     .c..s.o?.T..0ho?
    c3e8:	beb8442a 3f6ed89e bebb31a0 3f6e46be     *D....n?.1...Fn?
    c3f8:	bebe1d4a 3f6db293 bec1071e 3f6d1c1d     J.....m?......m?
    c408:	bec3ef15 3f6c835e bec6d529 3f6be858     ....^.l?)...X.k?
    c418:	bec9b953 3f6b4b0c becc9b8b 3f6aab7b     S....Kk?....{.j?
    c428:	becf7bca 3f6a09a7 bed25a09 3f696591     .{....j?.Z...ei?
    c438:	bed53641 3f68bf3c bed8106b 3f6816a8     A6..<.h?k.....h?
    c448:	bedae880 3f676bd8 beddbe79 3f66becc     .....kg?y.....f?
    c458:	bee0924f 3f660f88 bee363fa 3f655e0b     O.....f?.c...^e?
    c468:	bee63375 3f64aa59 bee900b7 3f63f473     u3..Y.d?....s.c?
    c478:	beebcbbb 3f633c5a beee9479 3f628210     ....Z<c?y.....b?
    c488:	bef15aea 3f61c598 bef41f07 3f6106f2     .Z....a?......a?
    c498:	bef6e0cb 3f604621 bef9a02d 3f5f8327     ....!F`?-...'._?
    c4a8:	befc5d27 3f5ebe05 beff17b2 3f5df6be     ']....^?......]?
    c4b8:	bf00e7e4 3f5d2d53 bf0242b1 3f5c61c7     ....S-]?.B...a\?
    c4c8:	bf039c3d 3f5b941a bf04f484 3f5ac450     =.....[?....P.Z?
    c4d8:	bf064b82 3f59f26a bf07a136 3f591e6a     .K..j.Y?6...j.Y?
    c4e8:	bf08f59b 3f584853 bf0a48ad 3f577026     ....SHX?.H..&pW?
    c4f8:	bf0b9a6b 3f5695e5 bf0cead0 3f55b993     k.....V?......U?
    c508:	bf0e39da 3f54db31 bf0f8784 3f53fac3     .9..1.T?......S?
    c518:	bf10d3cd 3f531849 bf121eb0 3f5233c6     ....I.S?.....3R?
    c528:	bf13682a 3f514d3d bf14b039 3f5064af     *h..=MQ?9....dP?
    c538:	bf15f6d9 3f4f7a1f bf173c07 3f4e8d90     .....zO?.<....N?
    c548:	bf187fc0 3f4d9f02 bf19c200 3f4cae79     ......M?....y.L?
    c558:	bf1b02c6 3f4bbbf8 bf1c420c 3f4ac77f     ......K?.B....J?
    c568:	bf1d7fd1 3f49d112 bf1ebc12 3f48d8b3     ......I?......H?
    c578:	bf1ff6cb 3f47de65 bf212ff9 3f46e22a     ....e.G?./!.*.F?
    c588:	bf226799 3f45e403 bf239da9 3f44e3f5     .g"...E?..#...D?
    c598:	bf24d225 3f43e200 bf26050a 3f42de29     %.$...C?..&.).B?
    c5a8:	bf273656 3f41d870 bf286605 3f40d0da     V6'.p.A?.f(...@?
    c5b8:	bf299415 3f3fc767 bf2ac082 3f3ebc1b     ..).g.??..*...>?
    c5c8:	bf2beb4a 3f3daef9 bf2d1469 3f3ca003     J.+...=?i.-...<?
    c5d8:	bf2e3bde 3f3b8f3b bf2f61a5 3f3a7ca4     .;..;.;?.a/..|:?
    c5e8:	bf3085bb 3f396842 bf31a81d 3f385216     ..0.Bh9?..1..R8?
    c5f8:	bf32c8c9 3f373a23 bf33e7bc 3f36206c     ..2.#:7?..3.l 6?
    c608:	bf3504f3 3f3504f3 bf36206c 3f33e7bc     ..5...5?l 6...3?
    c618:	bf373a23 3f32c8c9 bf385216 3f31a81d     #:7...2?.R8...1?
    c628:	bf396842 3f3085bb bf3a7ca4 3f2f61a5     Bh9...0?.|:..a/?
    c638:	bf3b8f3b 3f2e3bde bf3ca003 3f2d1469     ;.;..;.?..<.i.-?
    c648:	bf3daef9 3f2beb4a bf3ebc1b 3f2ac082     ..=.J.+?..>...*?
    c658:	bf3fc767 3f299415 bf40d0da 3f286605     g.?...)?..@..f(?
    c668:	bf41d870 3f273656 bf42de29 3f26050a     p.A.V6'?).B...&?
    c678:	bf43e200 3f24d225 bf44e3f5 3f239da9     ..C.%.$?..D...#?
    c688:	bf45e403 3f226799 bf46e22a 3f212ff9     ..E..g"?*.F../!?
    c698:	bf47de65 3f1ff6cb bf48d8b3 3f1ebc12     e.G....?..H....?
    c6a8:	bf49d112 3f1d7fd1 bf4ac77f 3f1c420c     ..I....?..J..B.?
    c6b8:	bf4bbbf8 3f1b02c6 bf4cae79 3f19c200     ..K....?y.L....?
    c6c8:	bf4d9f02 3f187fc0 bf4e8d90 3f173c07     ..M....?..N..<.?
    c6d8:	bf4f7a1f 3f15f6d9 bf5064af 3f14b039     .zO....?.dP.9..?
    c6e8:	bf514d3d 3f13682a bf5233c6 3f121eb0     =MQ.*h.?.3R....?
    c6f8:	bf531849 3f10d3cd bf53fac3 3f0f8784     I.S....?..S....?
    c708:	bf54db31 3f0e39da bf55b993 3f0cead0     1.T..9.?..U....?
    c718:	bf5695e5 3f0b9a6b bf577026 3f0a48ad     ..V.k..?&pW..H.?
    c728:	bf584853 3f08f59b bf591e6a 3f07a136     SHX....?j.Y.6..?
    c738:	bf59f26a 3f064b82 bf5ac450 3f04f484     j.Y..K.?P.Z....?
    c748:	bf5b941a 3f039c3d bf5c61c7 3f0242b1     ..[.=..?.a\..B.?
    c758:	bf5d2d53 3f00e7e4 bf5df6be 3eff17b2     S-]....?..]....>
    c768:	bf5ebe05 3efc5d27 bf5f8327 3ef9a02d     ..^.'].>'._.-..>
    c778:	bf604621 3ef6e0cb bf6106f2 3ef41f07     !F`....>..a....>
    c788:	bf61c598 3ef15aea bf628210 3eee9479     ..a..Z.>..b.y..>
    c798:	bf633c5a 3eebcbbb bf63f473 3ee900b7     Z<c....>s.c....>
    c7a8:	bf64aa59 3ee63375 bf655e0b 3ee363fa     Y.d.u3.>.^e..c.>
    c7b8:	bf660f88 3ee0924f bf66becc 3eddbe79     ..f.O..>..f.y..>
    c7c8:	bf676bd8 3edae880 bf6816a8 3ed8106b     .kg....>..h.k..>
    c7d8:	bf68bf3c 3ed53641 bf696591 3ed25a09     <.h.A6.>.ei..Z.>
    c7e8:	bf6a09a7 3ecf7bca bf6aab7b 3ecc9b8b     ..j..{.>{.j....>
    c7f8:	bf6b4b0c 3ec9b953 bf6be858 3ec6d529     .Kk.S..>X.k.)..>
    c808:	bf6c835e 3ec3ef15 bf6d1c1d 3ec1071e     ^.l....>..m....>
    c818:	bf6db293 3ebe1d4a bf6e46be 3ebb31a0     ..m.J..>.Fn..1.>
    c828:	bf6ed89e 3eb8442a bf6f6830 3eb554ec     ..n.*D.>0ho..T.>
    c838:	bf6ff573 3eb263ef bf708066 3eaf713a     s.o..c.>f.p.:q.>
    c848:	bf710908 3eac7cd4 bf718f57 3ea986c4     ..q..|.>W.q....>
    c858:	bf721352 3ea68f12 bf7294f8 3ea395c5     R.r....>..r....>
    c868:	bf731447 3ea09ae5 bf73913f 3e9d9e78     G.s....>?.s.x..>
    c878:	bf740bdd 3e9aa086 bf748422 3e97a117     ..t....>".t....>
    c888:	bf74fa0b 3e94a031 bf756d97 3e919ddd     ..t.1..>.mu....>
    c898:	bf75dec6 3e8e9a22 bf764d97 3e8b9507     ..u."..>.Mv....>
    c8a8:	bf76ba07 3e888e93 bf772417 3e8586ce     ..v....>.$w....>
    c8b8:	bf778bc5 3e827dc0 bf77f110 3e7ee6e1     ..w..}.>..w...~>
    c8c8:	bf7853f8 3e78cfcc bf78b47b 3e72b651     .Sx...x>{.x.Q.r>
    c8d8:	bf791298 3e6c9a7f bf796e4e 3e667c66     ..y...l>Nny.f|f>
    c8e8:	bf79c79d 3e605c13 bf7a1e84 3e5a3997     ..y..\`>..z..9Z>
    c8f8:	bf7a7302 3e541501 bf7ac516 3e4dee60     .sz...T>..z.`.M>
    c908:	bf7b14be 3e47c5c2 bf7b61fc 3e419b37     ..{...G>.a{.7.A>
    c918:	bf7baccd 3e3b6ecf bf7bf531 3e354098     ..{..n;>1.{..@5>
    c928:	bf7c3b28 3e2f10a2 bf7c7eb0 3e28defc     (;|.../>.~|...(>
    c938:	bf7cbfc9 3e22abb6 bf7cfe73 3e1c76de     ..|...">s.|..v.>
    c948:	bf7d3aac 3e164083 bf7d7474 3e1008b7     .:}..@.>tt}....>
    c958:	bf7dabcc 3e09cf86 bf7de0b1 3e039502     ..}....>..}....>
    c968:	bf7e1324 3dfab273 bf7e4323 3dee3876     $.~.s..=#C~.v8.=
    c978:	bf7e70b0 3de1bc2e bf7e9bc9 3dd53db9     .p~....=..~..=.=
    c988:	bf7ec46d 3dc8bd36 bf7eea9d 3dbc3ac3     m.~.6..=..~..:.=
    c998:	bf7f0e58 3dafb680 bf7f2f9d 3da3308c     X......=./...0.=
    c9a8:	bf7f4e6d 3d96a905 bf7f6ac7 3d8a200a     mN.....=.j... .=
    c9b8:	bf7f84ab 3d7b2b74 bf7f9c18 3d621468     ....t+{=....h.b=
    c9c8:	bf7fb10f 3d48fb2f bf7fc38f 3d2fe007     ..../.H=....../=
    c9d8:	bf7fd398 3d16c32c bf7fe129 3cfb49b9     ....,..=)....I.<
    c9e8:	bf7fec43 3cc90ab0 bf7ff4e6 3c96c9b6     C......<.......<
    c9f8:	bf7ffb11 3c490e90 bf7ffec4 3bc90f89     ......I<.......;
    ca08:	bf800000 00000000 bf7ffec4 bbc90f89     ................
    ca18:	bf7ffb11 bc490e90 bf7ff4e6 bc96c9b6     ......I.........
    ca28:	bf7fec43 bcc90ab0 bf7fe129 bcfb49b9     C.......)....I..
    ca38:	bf7fd398 bd16c32c bf7fc38f bd2fe007     ....,........./.
    ca48:	bf7fb10f bd48fb2f bf7f9c18 bd621468     ..../.H.....h.b.
    ca58:	bf7f84ab bd7b2b74 bf7f6ac7 bd8a200a     ....t+{..j... ..
    ca68:	bf7f4e6d bd96a905 bf7f2f9d bda3308c     mN......./...0..
    ca78:	bf7f0e58 bdafb680 bf7eea9d bdbc3ac3     X.........~..:..
    ca88:	bf7ec46d bdc8bd36 bf7e9bc9 bdd53db9     m.~.6.....~..=..
    ca98:	bf7e70b0 bde1bc2e bf7e4323 bdee3876     .p~.....#C~.v8..
    caa8:	bf7e1324 bdfab273 bf7de0b1 be039502     $.~.s.....}.....
    cab8:	bf7dabcc be09cf86 bf7d7474 be1008b7     ..}.....tt}.....
    cac8:	bf7d3aac be164083 bf7cfe73 be1c76de     .:}..@..s.|..v..
    cad8:	bf7cbfc9 be22abb6 bf7c7eb0 be28defc     ..|..."..~|...(.
    cae8:	bf7c3b28 be2f10a2 bf7bf531 be354098     (;|.../.1.{..@5.
    caf8:	bf7baccd be3b6ecf bf7b61fc be419b37     ..{..n;..a{.7.A.
    cb08:	bf7b14be be47c5c2 bf7ac516 be4dee60     ..{...G...z.`.M.
    cb18:	bf7a7302 be541501 bf7a1e84 be5a3997     .sz...T...z..9Z.
    cb28:	bf79c79d be605c13 bf796e4e be667c66     ..y..\`.Nny.f|f.
    cb38:	bf791298 be6c9a7f bf78b47b be72b651     ..y...l.{.x.Q.r.
    cb48:	bf7853f8 be78cfcc bf77f110 be7ee6e1     .Sx...x...w...~.
    cb58:	bf778bc5 be827dc0 bf772417 be8586ce     ..w..}...$w.....
    cb68:	bf76ba07 be888e93 bf764d97 be8b9507     ..v......Mv.....
    cb78:	bf75dec6 be8e9a22 bf756d97 be919ddd     ..u."....mu.....
    cb88:	bf74fa0b be94a031 bf748422 be97a117     ..t.1...".t.....
    cb98:	bf740bdd be9aa086 bf73913f be9d9e78     ..t.....?.s.x...
    cba8:	bf731447 bea09ae5 bf7294f8 bea395c5     G.s.......r.....
    cbb8:	bf721352 bea68f12 bf718f57 bea986c4     R.r.....W.q.....
    cbc8:	bf710908 beac7cd4 bf708066 beaf713a     ..q..|..f.p.:q..
    cbd8:	bf6ff573 beb263ef bf6f6830 beb554ec     s.o..c..0ho..T..
    cbe8:	bf6ed89e beb8442a bf6e46be bebb31a0     ..n.*D...Fn..1..
    cbf8:	bf6db293 bebe1d4a bf6d1c1d bec1071e     ..m.J.....m.....
    cc08:	bf6c835e bec3ef15 bf6be858 bec6d529     ^.l.....X.k.)...
    cc18:	bf6b4b0c bec9b953 bf6aab7b becc9b8b     .Kk.S...{.j.....
    cc28:	bf6a09a7 becf7bca bf696591 bed25a09     ..j..{...ei..Z..
    cc38:	bf68bf3c bed53641 bf6816a8 bed8106b     <.h.A6....h.k...
    cc48:	bf676bd8 bedae880 bf66becc beddbe79     .kg.......f.y...
    cc58:	bf660f88 bee0924f bf655e0b bee363fa     ..f.O....^e..c..
    cc68:	bf64aa59 bee63375 bf63f473 bee900b7     Y.d.u3..s.c.....
    cc78:	bf633c5a beebcbbb bf628210 beee9479     Z<c.......b.y...
    cc88:	bf61c598 bef15aea bf6106f2 bef41f07     ..a..Z....a.....
    cc98:	bf604621 bef6e0cb bf5f8327 bef9a02d     !F`.....'._.-...
    cca8:	bf5ebe05 befc5d27 bf5df6be beff17b2     ..^.']....].....
    ccb8:	bf5d2d53 bf00e7e4 bf5c61c7 bf0242b1     S-]......a\..B..
    ccc8:	bf5b941a bf039c3d bf5ac450 bf04f484     ..[.=...P.Z.....
    ccd8:	bf59f26a bf064b82 bf591e6a bf07a136     j.Y..K..j.Y.6...
    cce8:	bf584853 bf08f59b bf577026 bf0a48ad     SHX.....&pW..H..
    ccf8:	bf5695e5 bf0b9a6b bf55b993 bf0cead0     ..V.k.....U.....
    cd08:	bf54db31 bf0e39da bf53fac3 bf0f8784     1.T..9....S.....
    cd18:	bf531849 bf10d3cd bf5233c6 bf121eb0     I.S......3R.....
    cd28:	bf514d3d bf13682a bf5064af bf14b039     =MQ.*h...dP.9...
    cd38:	bf4f7a1f bf15f6d9 bf4e8d90 bf173c07     .zO.......N..<..
    cd48:	bf4d9f02 bf187fc0 bf4cae79 bf19c200     ..M.....y.L.....
    cd58:	bf4bbbf8 bf1b02c6 bf4ac77f bf1c420c     ..K.......J..B..
    cd68:	bf49d112 bf1d7fd1 bf48d8b3 bf1ebc12     ..I.......H.....
    cd78:	bf47de65 bf1ff6cb bf46e22a bf212ff9     e.G.....*.F../!.
    cd88:	bf45e403 bf226799 bf44e3f5 bf239da9     ..E..g"...D...#.
    cd98:	bf43e200 bf24d225 bf42de29 bf26050a     ..C.%.$.).B...&.
    cda8:	bf41d870 bf273656 bf40d0da bf286605     p.A.V6'...@..f(.
    cdb8:	bf3fc767 bf299415 bf3ebc1b bf2ac082     g.?...)...>...*.
    cdc8:	bf3daef9 bf2beb4a bf3ca003 bf2d1469     ..=.J.+...<.i.-.
    cdd8:	bf3b8f3b bf2e3bde bf3a7ca4 bf2f61a5     ;.;..;...|:..a/.
    cde8:	bf396842 bf3085bb bf385216 bf31a81d     Bh9...0..R8...1.
    cdf8:	bf373a23 bf32c8c9 bf36206c bf33e7bc     #:7...2.l 6...3.
    ce08:	bf3504f3 bf3504f3 bf33e7bc bf36206c     ..5...5...3.l 6.
    ce18:	bf32c8c9 bf373a23 bf31a81d bf385216     ..2.#:7...1..R8.
    ce28:	bf3085bb bf396842 bf2f61a5 bf3a7ca4     ..0.Bh9..a/..|:.
    ce38:	bf2e3bde bf3b8f3b bf2d1469 bf3ca003     .;..;.;.i.-...<.
    ce48:	bf2beb4a bf3daef9 bf2ac082 bf3ebc1b     J.+...=...*...>.
    ce58:	bf299415 bf3fc767 bf286605 bf40d0da     ..).g.?..f(...@.
    ce68:	bf273656 bf41d870 bf26050a bf42de29     V6'.p.A...&.).B.
    ce78:	bf24d225 bf43e200 bf239da9 bf44e3f5     %.$...C...#...D.
    ce88:	bf226799 bf45e403 bf212ff9 bf46e22a     .g"...E../!.*.F.
    ce98:	bf1ff6cb bf47de65 bf1ebc12 bf48d8b3     ....e.G.......H.
    cea8:	bf1d7fd1 bf49d112 bf1c420c bf4ac77f     ......I..B....J.
    ceb8:	bf1b02c6 bf4bbbf8 bf19c200 bf4cae79     ......K.....y.L.
    cec8:	bf187fc0 bf4d9f02 bf173c07 bf4e8d90     ......M..<....N.
    ced8:	bf15f6d9 bf4f7a1f bf14b039 bf5064af     .....zO.9....dP.
    cee8:	bf13682a bf514d3d bf121eb0 bf5233c6     *h..=MQ......3R.
    cef8:	bf10d3cd bf531849 bf0f8784 bf53fac3     ....I.S.......S.
    cf08:	bf0e39da bf54db31 bf0cead0 bf55b993     .9..1.T.......U.
    cf18:	bf0b9a6b bf5695e5 bf0a48ad bf577026     k.....V..H..&pW.
    cf28:	bf08f59b bf584853 bf07a136 bf591e6a     ....SHX.6...j.Y.
    cf38:	bf064b82 bf59f26a bf04f484 bf5ac450     .K..j.Y.....P.Z.
    cf48:	bf039c3d bf5b941a bf0242b1 bf5c61c7     =.....[..B...a\.
    cf58:	bf00e7e4 bf5d2d53 beff17b2 bf5df6be     ....S-].......].
    cf68:	befc5d27 bf5ebe05 bef9a02d bf5f8327     ']....^.-...'._.
    cf78:	bef6e0cb bf604621 bef41f07 bf6106f2     ....!F`.......a.
    cf88:	bef15aea bf61c598 beee9479 bf628210     .Z....a.y.....b.
    cf98:	beebcbbb bf633c5a bee900b7 bf63f473     ....Z<c.....s.c.
    cfa8:	bee63375 bf64aa59 bee363fa bf655e0b     u3..Y.d..c...^e.
    cfb8:	bee0924f bf660f88 beddbe79 bf66becc     O.....f.y.....f.
    cfc8:	bedae880 bf676bd8 bed8106b bf6816a8     .....kg.k.....h.
    cfd8:	bed53641 bf68bf3c bed25a09 bf696591     A6..<.h..Z...ei.
    cfe8:	becf7bca bf6a09a7 becc9b8b bf6aab7b     .{....j.....{.j.
    cff8:	bec9b953 bf6b4b0c bec6d529 bf6be858     S....Kk.)...X.k.
    d008:	bec3ef15 bf6c835e bec1071e bf6d1c1d     ....^.l.......m.
    d018:	bebe1d4a bf6db293 bebb31a0 bf6e46be     J.....m..1...Fn.
    d028:	beb8442a bf6ed89e beb554ec bf6f6830     *D....n..T..0ho.
    d038:	beb263ef bf6ff573 beaf713a bf708066     .c..s.o.:q..f.p.
    d048:	beac7cd4 bf710908 bea986c4 bf718f57     .|....q.....W.q.
    d058:	bea68f12 bf721352 bea395c5 bf7294f8     ....R.r.......r.
    d068:	bea09ae5 bf731447 be9d9e78 bf73913f     ....G.s.x...?.s.
    d078:	be9aa086 bf740bdd be97a117 bf748422     ......t.....".t.
    d088:	be94a031 bf74fa0b be919ddd bf756d97     1.....t......mu.
    d098:	be8e9a22 bf75dec6 be8b9507 bf764d97     ".....u......Mv.
    d0a8:	be888e93 bf76ba07 be8586ce bf772417     ......v......$w.
    d0b8:	be827dc0 bf778bc5 be7ee6e1 bf77f110     .}....w...~...w.
    d0c8:	be78cfcc bf7853f8 be72b651 bf78b47b     ..x..Sx.Q.r.{.x.
    d0d8:	be6c9a7f bf791298 be667c66 bf796e4e     ..l...y.f|f.Nny.
    d0e8:	be605c13 bf79c79d be5a3997 bf7a1e84     .\`...y..9Z...z.
    d0f8:	be541501 bf7a7302 be4dee60 bf7ac516     ..T..sz.`.M...z.
    d108:	be47c5c2 bf7b14be be419b37 bf7b61fc     ..G...{.7.A..a{.
    d118:	be3b6ecf bf7baccd be354098 bf7bf531     .n;...{..@5.1.{.
    d128:	be2f10a2 bf7c3b28 be28defc bf7c7eb0     ../.(;|...(..~|.
    d138:	be22abb6 bf7cbfc9 be1c76de bf7cfe73     .."...|..v..s.|.
    d148:	be164083 bf7d3aac be1008b7 bf7d7474     .@...:}.....tt}.
    d158:	be09cf86 bf7dabcc be039502 bf7de0b1     ......}.......}.
    d168:	bdfab273 bf7e1324 bdee3876 bf7e4323     s...$.~.v8..#C~.
    d178:	bde1bc2e bf7e70b0 bdd53db9 bf7e9bc9     .....p~..=....~.
    d188:	bdc8bd36 bf7ec46d bdbc3ac3 bf7eea9d     6...m.~..:....~.
    d198:	bdafb680 bf7f0e58 bda3308c bf7f2f9d     ....X....0.../..
    d1a8:	bd96a905 bf7f4e6d bd8a200a bf7f6ac7     ....mN... ...j..
    d1b8:	bd7b2b74 bf7f84ab bd621468 bf7f9c18     t+{.....h.b.....
    d1c8:	bd48fb2f bf7fb10f bd2fe007 bf7fc38f     /.H......./.....
    d1d8:	bd16c32c bf7fd398 bcfb49b9 bf7fe129     ,........I..)...
    d1e8:	bcc90ab0 bf7fec43 bc96c9b6 bf7ff4e6     ....C...........
    d1f8:	bc490e90 bf7ffb11 bbc90f89 bf7ffec4     ..I.............
    d208:	80000000 bf800000 3bc90f89 bf7ffec4     ...........;....
    d218:	3c490e90 bf7ffb11 3c96c9b6 bf7ff4e6     ..I<.......<....
    d228:	3cc90ab0 bf7fec43 3cfb49b9 bf7fe129     ...<C....I.<)...
    d238:	3d16c32c bf7fd398 3d2fe007 bf7fc38f     ,..=....../=....
    d248:	3d48fb2f bf7fb10f 3d621468 bf7f9c18     /.H=....h.b=....
    d258:	3d7b2b74 bf7f84ab 3d8a200a bf7f6ac7     t+{=..... .=.j..
    d268:	3d96a905 bf7f4e6d 3da3308c bf7f2f9d     ...=mN...0.=./..
    d278:	3dafb680 bf7f0e58 3dbc3ac3 bf7eea9d     ...=X....:.=..~.
    d288:	3dc8bd36 bf7ec46d 3dd53db9 bf7e9bc9     6..=m.~..=.=..~.
    d298:	3de1bc2e bf7e70b0 3dee3876 bf7e4323     ...=.p~.v8.=#C~.
    d2a8:	3dfab273 bf7e1324 3e039502 bf7de0b1     s..=$.~....>..}.
    d2b8:	3e09cf86 bf7dabcc 3e1008b7 bf7d7474     ...>..}....>tt}.
    d2c8:	3e164083 bf7d3aac 3e1c76de bf7cfe73     .@.>.:}..v.>s.|.
    d2d8:	3e22abb6 bf7cbfc9 3e28defc bf7c7eb0     ..">..|...(>.~|.
    d2e8:	3e2f10a2 bf7c3b28 3e354098 bf7bf531     ../>(;|..@5>1.{.
    d2f8:	3e3b6ecf bf7baccd 3e419b37 bf7b61fc     .n;>..{.7.A>.a{.
    d308:	3e47c5c2 bf7b14be 3e4dee60 bf7ac516     ..G>..{.`.M>..z.
    d318:	3e541501 bf7a7302 3e5a3997 bf7a1e84     ..T>.sz..9Z>..z.
    d328:	3e605c13 bf79c79d 3e667c66 bf796e4e     .\`>..y.f|f>Nny.
    d338:	3e6c9a7f bf791298 3e72b651 bf78b47b     ..l>..y.Q.r>{.x.
    d348:	3e78cfcc bf7853f8 3e7ee6e1 bf77f110     ..x>.Sx...~>..w.
    d358:	3e827dc0 bf778bc5 3e8586ce bf772417     .}.>..w....>.$w.
    d368:	3e888e93 bf76ba07 3e8b9507 bf764d97     ...>..v....>.Mv.
    d378:	3e8e9a22 bf75dec6 3e919ddd bf756d97     "..>..u....>.mu.
    d388:	3e94a031 bf74fa0b 3e97a117 bf748422     1..>..t....>".t.
    d398:	3e9aa086 bf740bdd 3e9d9e78 bf73913f     ...>..t.x..>?.s.
    d3a8:	3ea09ae5 bf731447 3ea395c5 bf7294f8     ...>G.s....>..r.
    d3b8:	3ea68f12 bf721352 3ea986c4 bf718f57     ...>R.r....>W.q.
    d3c8:	3eac7cd4 bf710908 3eaf713a bf708066     .|.>..q.:q.>f.p.
    d3d8:	3eb263ef bf6ff573 3eb554ec bf6f6830     .c.>s.o..T.>0ho.
    d3e8:	3eb8442a bf6ed89e 3ebb31a0 bf6e46be     *D.>..n..1.>.Fn.
    d3f8:	3ebe1d4a bf6db293 3ec1071e bf6d1c1d     J..>..m....>..m.
    d408:	3ec3ef15 bf6c835e 3ec6d529 bf6be858     ...>^.l.)..>X.k.
    d418:	3ec9b953 bf6b4b0c 3ecc9b8b bf6aab7b     S..>.Kk....>{.j.
    d428:	3ecf7bca bf6a09a7 3ed25a09 bf696591     .{.>..j..Z.>.ei.
    d438:	3ed53641 bf68bf3c 3ed8106b bf6816a8     A6.><.h.k..>..h.
    d448:	3edae880 bf676bd8 3eddbe79 bf66becc     ...>.kg.y..>..f.
    d458:	3ee0924f bf660f88 3ee363fa bf655e0b     O..>..f..c.>.^e.
    d468:	3ee63375 bf64aa59 3ee900b7 bf63f473     u3.>Y.d....>s.c.
    d478:	3eebcbbb bf633c5a 3eee9479 bf628210     ...>Z<c.y..>..b.
    d488:	3ef15aea bf61c598 3ef41f07 bf6106f2     .Z.>..a....>..a.
    d498:	3ef6e0cb bf604621 3ef9a02d bf5f8327     ...>!F`.-..>'._.
    d4a8:	3efc5d27 bf5ebe05 3eff17b2 bf5df6be     '].>..^....>..].
    d4b8:	3f00e7e4 bf5d2d53 3f0242b1 bf5c61c7     ...?S-]..B.?.a\.
    d4c8:	3f039c3d bf5b941a 3f04f484 bf5ac450     =..?..[....?P.Z.
    d4d8:	3f064b82 bf59f26a 3f07a136 bf591e6a     .K.?j.Y.6..?j.Y.
    d4e8:	3f08f59b bf584853 3f0a48ad bf577026     ...?SHX..H.?&pW.
    d4f8:	3f0b9a6b bf5695e5 3f0cead0 bf55b993     k..?..V....?..U.
    d508:	3f0e39da bf54db31 3f0f8784 bf53fac3     .9.?1.T....?..S.
    d518:	3f10d3cd bf531849 3f121eb0 bf5233c6     ...?I.S....?.3R.
    d528:	3f13682a bf514d3d 3f14b039 bf5064af     *h.?=MQ.9..?.dP.
    d538:	3f15f6d9 bf4f7a1f 3f173c07 bf4e8d90     ...?.zO..<.?..N.
    d548:	3f187fc0 bf4d9f02 3f19c200 bf4cae79     ...?..M....?y.L.
    d558:	3f1b02c6 bf4bbbf8 3f1c420c bf4ac77f     ...?..K..B.?..J.
    d568:	3f1d7fd1 bf49d112 3f1ebc12 bf48d8b3     ...?..I....?..H.
    d578:	3f1ff6cb bf47de65 3f212ff9 bf46e22a     ...?e.G../!?*.F.
    d588:	3f226799 bf45e403 3f239da9 bf44e3f5     .g"?..E...#?..D.
    d598:	3f24d225 bf43e200 3f26050a bf42de29     %.$?..C...&?).B.
    d5a8:	3f273656 bf41d870 3f286605 bf40d0da     V6'?p.A..f(?..@.
    d5b8:	3f299415 bf3fc767 3f2ac082 bf3ebc1b     ..)?g.?...*?..>.
    d5c8:	3f2beb4a bf3daef9 3f2d1469 bf3ca003     J.+?..=.i.-?..<.
    d5d8:	3f2e3bde bf3b8f3b 3f2f61a5 bf3a7ca4     .;.?;.;..a/?.|:.
    d5e8:	3f3085bb bf396842 3f31a81d bf385216     ..0?Bh9...1?.R8.
    d5f8:	3f32c8c9 bf373a23 3f33e7bc bf36206c     ..2?#:7...3?l 6.
    d608:	3f3504f3 bf3504f3 3f36206c bf33e7bc     ..5?..5.l 6?..3.
    d618:	3f373a23 bf32c8c9 3f385216 bf31a81d     #:7?..2..R8?..1.
    d628:	3f396842 bf3085bb 3f3a7ca4 bf2f61a5     Bh9?..0..|:?.a/.
    d638:	3f3b8f3b bf2e3bde 3f3ca003 bf2d1469     ;.;?.;....<?i.-.
    d648:	3f3daef9 bf2beb4a 3f3ebc1b bf2ac082     ..=?J.+...>?..*.
    d658:	3f3fc767 bf299415 3f40d0da bf286605     g.??..)...@?.f(.
    d668:	3f41d870 bf273656 3f42de29 bf26050a     p.A?V6'.).B?..&.
    d678:	3f43e200 bf24d225 3f44e3f5 bf239da9     ..C?%.$...D?..#.
    d688:	3f45e403 bf226799 3f46e22a bf212ff9     ..E?.g".*.F?./!.
    d698:	3f47de65 bf1ff6cb 3f48d8b3 bf1ebc12     e.G?......H?....
    d6a8:	3f49d112 bf1d7fd1 3f4ac77f bf1c420c     ..I?......J?.B..
    d6b8:	3f4bbbf8 bf1b02c6 3f4cae79 bf19c200     ..K?....y.L?....
    d6c8:	3f4d9f02 bf187fc0 3f4e8d90 bf173c07     ..M?......N?.<..
    d6d8:	3f4f7a1f bf15f6d9 3f5064af bf14b039     .zO?.....dP?9...
    d6e8:	3f514d3d bf13682a 3f5233c6 bf121eb0     =MQ?*h...3R?....
    d6f8:	3f531849 bf10d3cd 3f53fac3 bf0f8784     I.S?......S?....
    d708:	3f54db31 bf0e39da 3f55b993 bf0cead0     1.T?.9....U?....
    d718:	3f5695e5 bf0b9a6b 3f577026 bf0a48ad     ..V?k...&pW?.H..
    d728:	3f584853 bf08f59b 3f591e6a bf07a136     SHX?....j.Y?6...
    d738:	3f59f26a bf064b82 3f5ac450 bf04f484     j.Y?.K..P.Z?....
    d748:	3f5b941a bf039c3d 3f5c61c7 bf0242b1     ..[?=....a\?.B..
    d758:	3f5d2d53 bf00e7e4 3f5df6be beff17b2     S-]?......]?....
    d768:	3f5ebe05 befc5d27 3f5f8327 bef9a02d     ..^?']..'._?-...
    d778:	3f604621 bef6e0cb 3f6106f2 bef41f07     !F`?......a?....
    d788:	3f61c598 bef15aea 3f628210 beee9479     ..a?.Z....b?y...
    d798:	3f633c5a beebcbbb 3f63f473 bee900b7     Z<c?....s.c?....
    d7a8:	3f64aa59 bee63375 3f655e0b bee363fa     Y.d?u3...^e?.c..
    d7b8:	3f660f88 bee0924f 3f66becc beddbe79     ..f?O.....f?y...
    d7c8:	3f676bd8 bedae880 3f6816a8 bed8106b     .kg?......h?k...
    d7d8:	3f68bf3c bed53641 3f696591 bed25a09     <.h?A6...ei?.Z..
    d7e8:	3f6a09a7 becf7bca 3f6aab7b becc9b8b     ..j?.{..{.j?....
    d7f8:	3f6b4b0c bec9b953 3f6be858 bec6d529     .Kk?S...X.k?)...
    d808:	3f6c835e bec3ef15 3f6d1c1d bec1071e     ^.l?......m?....
    d818:	3f6db293 bebe1d4a 3f6e46be bebb31a0     ..m?J....Fn?.1..
    d828:	3f6ed89e beb8442a 3f6f6830 beb554ec     ..n?*D..0ho?.T..
    d838:	3f6ff573 beb263ef 3f708066 beaf713a     s.o?.c..f.p?:q..
    d848:	3f710908 beac7cd4 3f718f57 bea986c4     ..q?.|..W.q?....
    d858:	3f721352 bea68f12 3f7294f8 bea395c5     R.r?......r?....
    d868:	3f731447 bea09ae5 3f73913f be9d9e78     G.s?....?.s?x...
    d878:	3f740bdd be9aa086 3f748422 be97a117     ..t?....".t?....
    d888:	3f74fa0b be94a031 3f756d97 be919ddd     ..t?1....mu?....
    d898:	3f75dec6 be8e9a22 3f764d97 be8b9507     ..u?"....Mv?....
    d8a8:	3f76ba07 be888e93 3f772417 be8586ce     ..v?.....$w?....
    d8b8:	3f778bc5 be827dc0 3f77f110 be7ee6e1     ..w?.}....w?..~.
    d8c8:	3f7853f8 be78cfcc 3f78b47b be72b651     .Sx?..x.{.x?Q.r.
    d8d8:	3f791298 be6c9a7f 3f796e4e be667c66     ..y?..l.Nny?f|f.
    d8e8:	3f79c79d be605c13 3f7a1e84 be5a3997     ..y?.\`...z?.9Z.
    d8f8:	3f7a7302 be541501 3f7ac516 be4dee60     .sz?..T...z?`.M.
    d908:	3f7b14be be47c5c2 3f7b61fc be419b37     ..{?..G..a{?7.A.
    d918:	3f7baccd be3b6ecf 3f7bf531 be354098     ..{?.n;.1.{?.@5.
    d928:	3f7c3b28 be2f10a2 3f7c7eb0 be28defc     (;|?../..~|?..(.
    d938:	3f7cbfc9 be22abb6 3f7cfe73 be1c76de     ..|?..".s.|?.v..
    d948:	3f7d3aac be164083 3f7d7474 be1008b7     .:}?.@..tt}?....
    d958:	3f7dabcc be09cf86 3f7de0b1 be039502     ..}?......}?....
    d968:	3f7e1324 bdfab273 3f7e4323 bdee3876     $.~?s...#C~?v8..
    d978:	3f7e70b0 bde1bc2e 3f7e9bc9 bdd53db9     .p~?......~?.=..
    d988:	3f7ec46d bdc8bd36 3f7eea9d bdbc3ac3     m.~?6.....~?.:..
    d998:	3f7f0e58 bdafb680 3f7f2f9d bda3308c     X..?...../.?.0..
    d9a8:	3f7f4e6d bd96a905 3f7f6ac7 bd8a200a     mN.?.....j.?. ..
    d9b8:	3f7f84ab bd7b2b74 3f7f9c18 bd621468     ...?t+{....?h.b.
    d9c8:	3f7fb10f bd48fb2f 3f7fc38f bd2fe007     ...?/.H....?../.
    d9d8:	3f7fd398 bd16c32c 3f7fe129 bcfb49b9     ...?,...)..?.I..
    d9e8:	3f7fec43 bcc90ab0 3f7ff4e6 bc96c9b6     C..?.......?....
    d9f8:	3f7ffb11 bc490e90 3f7ffec4 bbc90f89     ...?..I....?....

0000da08 <twiddleCoef_32>:
    da08:	3f800000 00000000 3f7b14be 3e47c5c2     ...?......{?..G>
    da18:	3f6c835e 3ec3ef15 3f54db31 3f0e39da     ^.l?...>1.T?.9.?
    da28:	3f3504f3 3f3504f3 3f0e39da 3f54db31     ..5?..5?.9.?1.T?
    da38:	3ec3ef15 3f6c835e 3e47c5c2 3f7b14be     ...>^.l?..G>..{?
    da48:	00000000 3f800000 be47c5c2 3f7b14be     .......?..G...{?
    da58:	bec3ef15 3f6c835e bf0e39da 3f54db31     ....^.l?.9..1.T?
    da68:	bf3504f3 3f3504f3 bf54db31 3f0e39da     ..5...5?1.T..9.?
    da78:	bf6c835e 3ec3ef15 bf7b14be 3e47c5c2     ^.l....>..{...G>
    da88:	bf800000 00000000 bf7b14be be47c5c2     ..........{...G.
    da98:	bf6c835e bec3ef15 bf54db31 bf0e39da     ^.l.....1.T..9..
    daa8:	bf3504f3 bf3504f3 bf0e39da bf54db31     ..5...5..9..1.T.
    dab8:	bec3ef15 bf6c835e be47c5c2 bf7b14be     ....^.l...G...{.
    dac8:	80000000 bf800000 3e47c5c2 bf7b14be     ..........G>..{.
    dad8:	3ec3ef15 bf6c835e 3f0e39da bf54db31     ...>^.l..9.?1.T.
    dae8:	3f3504f3 bf3504f3 3f54db31 bf0e39da     ..5?..5.1.T?.9..
    daf8:	3f6c835e bec3ef15 3f7b14be be47c5c2     ^.l?......{?..G.

0000db08 <armBitRevIndexTable1024>:
    db08:	10000008 02000010 12000018 04000020     ............ ...
    db18:	14000028 06000030 16000038 08000040     (...0...8...@...
    db28:	18000048 0a000050 1a000058 0c000060     H...P...X...`...
    db38:	1c000068 0e000070 1e000078 08000080     h...p...x.......
    db48:	10400088 02400090 12400098 044000a0     ..@...@...@...@.
    db58:	144000a8 064000b0 164000b8 084000c0     ..@...@...@...@.
    db68:	184000c8 0a4000d0 1a4000d8 0c4000e0     ..@...@...@...@.
    db78:	1c4000e8 0e4000f0 1e4000f8 08000100     ..@...@...@.....
    db88:	10800108 02800110 12800118 04800120     ............ ...
    db98:	14800128 06800130 16800138 08800140     (...0...8...@...
    dba8:	18800148 0a800150 1a800158 0c800160     H...P...X...`...
    dbb8:	1c800168 0e800170 1e800178 08400180     h...p...x.....@.
    dbc8:	10c00188 02c00190 12c00198 04c001a0     ................
    dbd8:	14c001a8 06c001b0 16c001b8 08c001c0     ................
    dbe8:	18c001c8 0ac001d0 1ac001d8 0cc001e0     ................
    dbf8:	1cc001e8 0ec001f0 1ec001f8 08000200     ................
    dc08:	11000208 03000210 13000218 05000220     ............ ...
    dc18:	15000228 07000230 17000238 09000240     (...0...8...@...
    dc28:	19000248 0b000250 1b000258 0d000260     H...P...X...`...
    dc38:	1d000268 0f000270 1f000278 08800280     h...p...x.......
    dc48:	11400288 03400290 13400298 054002a0     ..@...@...@...@.
    dc58:	154002a8 074002b0 174002b8 094002c0     ..@...@...@...@.
    dc68:	194002c8 0b4002d0 1b4002d8 0d4002e0     ..@...@...@...@.
    dc78:	1d4002e8 0f4002f0 1f4002f8 08400300     ..@...@...@...@.
    dc88:	11800308 03800310 13800318 05800320     ............ ...
    dc98:	15800328 07800330 17800338 09800340     (...0...8...@...
    dca8:	19800348 0b800350 1b800358 0d800360     H...P...X...`...
    dcb8:	1d800368 0f800370 1f800378 08c00380     h...p...x.......
    dcc8:	11c00388 03c00390 13c00398 05c003a0     ................
    dcd8:	15c003a8 07c003b0 17c003b8 09c003c0     ................
    dce8:	19c003c8 0bc003d0 1bc003d8 0dc003e0     ................
    dcf8:	1dc003e8 0fc003f0 1fc003f8 10000400     ................
    dd08:	10080408 11000410 12080418 10080420     ............ ...
    dd18:	14080428 06080430 16080438 08080440     (...0...8...@...
    dd28:	18080448 0a080450 1a080458 0c080460     H...P...X...`...
    dd38:	1c080468 0e080470 1e080478 18000480     h...p...x.......
    dd48:	10480488 19000490 12480498 180804a0     ..H.......H.....
    dd58:	144804a8 064804b0 164804b8 084804c0     ..H...H...H...H.
    dd68:	184804c8 0a4804d0 1a4804d8 0c4804e0     ..H...H...H...H.
    dd78:	1c4804e8 0e4804f0 1e4804f8 10400500     ..H...H...H...@.
    dd88:	10880508 11400510 12880518 10480520     ......@..... .H.
    dd98:	14880528 06880530 16880538 08880540     (...0...8...@...
    dda8:	18880548 0a880550 1a880558 0c880560     H...P...X...`...
    ddb8:	1c880568 0e880570 1e880578 18400580     h...p...x.....@.
    ddc8:	10c80588 19400590 12c80598 184805a0     ......@.......H.
    ddd8:	14c805a8 06c805b0 16c805b8 08c805c0     ................
    dde8:	18c805c8 0ac805d0 1ac805d8 0cc805e0     ................
    ddf8:	1cc805e8 0ec805f0 1ec805f8 10800600     ................
    de08:	11080608 11800610 13080618 10880620     ............ ...
    de18:	15080628 07080630 17080638 09080640     (...0...8...@...
    de28:	19080648 0b080650 1b080658 0d080660     H...P...X...`...
    de38:	1d080668 0f080670 1f080678 18800680     h...p...x.......
    de48:	11480688 19800690 13480698 188806a0     ..H.......H.....
    de58:	154806a8 074806b0 174806b8 094806c0     ..H...H...H...H.
    de68:	194806c8 0b4806d0 1b4806d8 0d4806e0     ..H...H...H...H.
    de78:	1d4806e8 0f4806f0 1f4806f8 10c00700     ..H...H...H.....
    de88:	11880708 11c00710 13880718 10c80720     ............ ...
    de98:	15880728 07880730 17880738 09880740     (...0...8...@...
    dea8:	19880748 0b880750 1b880758 0d880760     H...P...X...`...
    deb8:	1d880768 0f880770 1f880778 18c00780     h...p...x.......
    dec8:	11c80788 19c00790 13c80798 18c807a0     ................
    ded8:	15c807a8 07c807b0 17c807b8 09c807c0     ................
    dee8:	19c807c8 0bc807d0 1bc807d8 0dc807e0     ................
    def8:	1dc807e8 0fc807f0 1fc807f8 10100808     ................
    df08:	08400810 12100818 11000820 14100828     ..@..... ...(...
    df18:	11800830 16100838 18100848 0a100850     0...8...H...P...
    df28:	1a100858 0c100860 1c100868 0e100870     X...`...h...p...
    df38:	1e100878 0a000880 10500888 0b000890     x.........P.....
    df48:	12500898 0a0808a0 145008a8 0b0808b0     ..P.......P.....
    df58:	165008b8 0a1008c0 185008c8 0a5008d0     ..P.......P...P.
    df68:	1a5008d8 0c5008e0 1c5008e8 0e5008f0     ..P...P...P...P.
    df78:	1e5008f8 10900908 09800910 12900918     ..P.............
    df88:	19000920 14900928 19800930 16900938      ...(...0...8...
    df98:	0b000940 18900948 0a900950 1a900958     @...H...P...X...
    dfa8:	0c900960 1c900968 0e900970 1e900978     `...h...p...x...
    dfb8:	0a400980 10d00988 0b400990 12d00998     ..@.......@.....
    dfc8:	0a4809a0 14d009a8 0b4809b0 16d009b8     ..H.......H.....
    dfd8:	0a5009c0 18d009c8 0ad009d0 1ad009d8     ..P.............
    dfe8:	0cd009e0 1cd009e8 0ed009f0 1ed009f8     ................
    dff8:	11100a08 13100a18 11400a20 15100a28     ........ .@.(...
    e008:	11c00a30 17100a38 19100a48 0b100a50     0...8...H...P...
    e018:	1b100a58 0d100a60 1d100a68 0f100a70     X...`...h...p...
    e028:	1f100a78 11500a88 0b800a90 13500a98     x.....P.......P.
    e038:	11500aa0 15500aa8 0b880ab0 17500ab8     ..P...P.......P.
    e048:	0b800ac0 19500ac8 0b500ad0 1b500ad8     ......P...P...P.
    e058:	0d500ae0 1d500ae8 0f500af0 1f500af8     ..P...P...P...P.
    e068:	11900b08 13900b18 19400b20 15900b28     ........ .@.(...
    e078:	19c00b30 17900b38 19900b48 0b900b50     0...8...H...P...
    e088:	1b900b58 0d900b60 1d900b68 0f900b70     X...`...h...p...
    e098:	1f900b78 11d00b88 0bc00b90 13d00b98     x...............
    e0a8:	19500ba0 15d00ba8 0bc80bb0 17d00bb8     ..P.............
    e0b8:	19d00bc8 1bd00bd8 0dd00be0 1dd00be8     ................
    e0c8:	0fd00bf0 1fd00bf8 12000c00 10180c08     ................
    e0d8:	13000c10 12180c18 12080c20 14180c28     ........ ...(...
    e0e8:	13080c30 16180c38 12100c40 18180c48     0...8...@...H...
    e0f8:	13100c50 1a180c58 12180c60 1c180c68     P...X...`...h...
    e108:	0e180c70 1e180c78 1a000c80 10580c88     p...x.........X.
    e118:	1b000c90 12580c98 1a080ca0 14580ca8     ......X.......X.
    e128:	1b080cb0 16580cb8 1a100cc0 18580cc8     ......X.......X.
    e138:	1b100cd0 1a580cd8 1a180ce0 1c580ce8     ......X.......X.
    e148:	0e580cf0 1e580cf8 12400d00 10980d08     ..X...X...@.....
    e158:	13400d10 12980d18 12480d20 14980d28     ..@..... .H.(...
    e168:	13480d30 16980d38 12500d40 18980d48     0.H.8...@.P.H...
    e178:	13500d50 1a980d58 12580d60 1c980d68     P.P.X...`.X.h...
    e188:	0e980d70 1e980d78 1a400d80 10d80d88     p...x.....@.....
    e198:	1b400d90 12d80d98 1a480da0 14d80da8     ..@.......H.....
    e1a8:	1b480db0 16d80db8 1a500dc0 18d80dc8     ..H.......P.....
    e1b8:	1b500dd0 1ad80dd8 1a580de0 1cd80de8     ..P.......X.....
    e1c8:	0ed80df0 1ed80df8 12800e00 11180e08     ................
    e1d8:	13800e10 13180e18 12880e20 15180e28     ........ ...(...
    e1e8:	13880e30 17180e38 12900e40 19180e48     0...8...@...H...
    e1f8:	13900e50 1b180e58 12980e60 1d180e68     P...X...`...h...
    e208:	0f180e70 1f180e78 1a800e80 11580e88     p...x.........X.
    e218:	1b800e90 13580e98 1a880ea0 15580ea8     ......X.......X.
    e228:	1b880eb0 17580eb8 1a900ec0 19580ec8     ......X.......X.
    e238:	1b900ed0 1b580ed8 1a980ee0 1d580ee8     ......X.......X.
    e248:	0f580ef0 1f580ef8 12c00f00 11980f08     ..X...X.........
    e258:	13c00f10 13980f18 12c80f20 15980f28     ........ ...(...
    e268:	13c80f30 17980f38 12d00f40 19980f48     0...8...@...H...
    e278:	13d00f50 1b980f58 12d80f60 1d980f68     P...X...`...h...
    e288:	0f980f70 1f980f78 1ac00f80 11d80f88     p...x...........
    e298:	1bc00f90 13d80f98 1ac80fa0 15d80fa8     ................
    e2a8:	1bc80fb0 17d80fb8 1ad00fc0 19d80fc8     ................
    e2b8:	1bd00fd0 1bd80fd8 1ad80fe0 1dd80fe8     ................
    e2c8:	1bd80ff0 1fd80ff8 10201008 10401010     .......... ...@.
    e2d8:	12201018 14201028 10881030 16201038     .. .(. .0...8. .
    e2e8:	11001040 18201048 11401050 1a201058     @...H. .P.@.X. .
    e2f8:	12081060 1c201068 12881070 1e201078     `...h. .p...x. .
    e308:	12001080 12081088 12401090 12601098     ..........@...`.
    e318:	122010a0 146010a8 126010b0 166010b8     .. ...`...`...`.
    e328:	130010c0 186010c8 134010d0 1a6010d8     ......`...@...`.
    e338:	121810e0 1c6010e8 129810f0 1e6010f8     ......`.......`.
    e348:	12201108 11401110 12a01118 18081120     .. ...@..... ...
    e358:	14a01128 18881130 16a01138 18a01148     (...0...8...H...
    e368:	1aa01158 1a081160 1ca01168 1a881170     X...`...h...p...
    e378:	1ea01178 12101180 12181188 12501190     x.............P.
    e388:	12e01198 181811a0 14e011a8 189811b0     ................
    e398:	16e011b8 131011c0 18e011c8 135011d0     ..............P.
    e3a8:	1ae011d8 1a1811e0 1ce011e8 1a9811f0     ................
    e3b8:	1ee011f8 18001200 18081208 18401210     ..............@.
    e3c8:	13201218 18201220 15201228 18601230     .. . . .(. .0.`.
    e3d8:	17201238 19001240 19201248 19401250     8. .@...H. .P.@.
    e3e8:	1b201258 19201260 1d201268 12c81270     X. .`. .h. .p...
    e3f8:	1f201278 1a001280 1a081288 1a401290     x. ...........@.
    e408:	13601298 1a2012a0 156012a8 1a6012b0     ..`... ...`...`.
    e418:	176012b8 1b0012c0 196012c8 1b4012d0     ..`.......`...@.
    e428:	1b6012d8 1b2012e0 1d6012e8 1b6012f0     ..`... ...`...`.
    e438:	1f6012f8 18101300 18181308 18501310     ..`...........P.
    e448:	13a01318 18481320 15a01328 18c81330     .... .H.(...0...
    e458:	17a01338 19101340 19a01348 19501350     8...@...H...P.P.
    e468:	1ba01358 1a481360 1da01368 1ac81370     X...`.H.h...p...
    e478:	1fa01378 1a101380 1a181388 1a501390     x.............P.
    e488:	13e01398 185813a0 15e013a8 18d813b0     ......X.........
    e498:	17e013b8 1b1013c0 19e013c8 1b5013d0     ..............P.
    e4a8:	1be013d8 1a5813e0 1de013e8 1ad813f0     ......X.........
    e4b8:	1fe013f8 14201408 15001410 15201418     ...... ....... .
    e4c8:	15081430 16281438 15001440 18281448     0...8.(.@...H.(.
    e4d8:	15101450 1a281458 15201460 1c281468     P...X.(.`. .h.(.
    e4e8:	15181470 1e281478 1c001480 1c201488     p...x.(....... .
    e4f8:	1d001490 1d201498 1c0814a0 1c2814a8     ...... .......(.
    e508:	1d0814b0 166814b8 1c1014c0 186814c8     ......h.......h.
    e518:	1d1014d0 1a6814d8 1c1814e0 1c6814e8     ......h.......h.
    e528:	1d1814f0 1e6814f8 15201508 15401510     ......h... ...@.
    e538:	15601518 18281520 1c281528 15481530     ..`. .(.(.(.0.H.
    e548:	16a81538 18a81548 1aa81558 1a281560     8...H...X...`.(.
    e558:	1ca81568 1aa81570 1ea81578 1c401580     h...p...x.....@.
    e568:	1c601588 1d401590 1d601598 1c4815a0     ..`...@...`...H.
    e578:	1c6815a8 1d4815b0 16e815b8 1c5015c0     ..h...H.......P.
    e588:	18e815c8 1d5015d0 1ae815d8 1c5815e0     ......P.......X.
    e598:	1ce815e8 1d5815f0 1ee815f8 1c001600     ......X.........
    e5a8:	1c081608 1c401610 1c481618 1c201620     ......@...H. . .
    e5b8:	1c281628 1c601630 17281638 1d001640     (.(.0.`.8.(.@...
    e5c8:	19281648 1d401650 1b281658 1d201660     H.(.P.@.X.(.`. .
    e5d8:	1d281668 1d601670 1f281678 1c801680     h.(.p.`.x.(.....
    e5e8:	1ca01688 1d801690 1da01698 1c8816a0     ................
    e5f8:	1ca816a8 1d8816b0 176816b8 1c9016c0     ..........h.....
    e608:	196816c8 1d9016d0 1b6816d8 1c9816e0     ..h.......h.....
    e618:	1d6816e8 1d9816f0 1f6816f8 1c101700     ..h.......h.....
    e628:	1c181708 1c501710 1c581718 18681720     ......P...X. .h.
    e638:	1c681728 18e81730 17a81738 1d101740     (.h.0...8...@...
    e648:	19a81748 1d501750 1ba81758 1a681760     H...P.P.X...`.h.
    e658:	1da81768 1ae81770 1fa81778 1cc01780     h...p...x.......
    e668:	1ce01788 1dc01790 1de01798 1cc817a0     ................
    e678:	1ce817a8 1dc817b0 17e817b8 1cd017c0     ................
    e688:	19e817c8 1dd017d0 1be817d8 1cd817e0     ................
    e698:	1de817e8 1dd817f0 1fe817f8 18601818     ..............`.
    e6a8:	18481830 1c601838 1a301858 1c301868     0.H.8.`.X.0.h.0.
    e6b8:	1a181870 1e301878 1a001880 1a081888     p...x.0.........
    e6c8:	1b001890 19601898 1a2018a0 1a2818a8     ......`... ...(.
    e6d8:	1b2018b0 1d6018b8 1a1018c0 1a1818c8     .. ...`.........
    e6e8:	1b1018d0 1a7018d8 1a3018e0 1c7018e8     ......p...0...p.
    e6f8:	1a5818f0 1e7018f8 19201908 1a601918     ..X...p... ...`.
    e708:	1d081928 19881930 1d881938 1b201948     (...0...8...H. .
    e718:	1ab01958 1b081960 1cb01968 1b881970     X...`...h...p...
    e728:	1eb01978 1a401980 1a481988 1b401990     x.....@...H...@.
    e738:	1b601998 1a6019a0 1d1819a8 1b6019b0     ..`...`.......`.
    e748:	1d9819b8 1a5019c0 1a5819c8 1b5019d0     ......P...X...P.
    e758:	1af019d8 1b1819e0 1cf019e8 1b9819f0     ................
    e768:	1ef019f8 1c701a38 1b301a58 1d301a68     ....8.p.X.0.h.0.
    e778:	1b181a70 1f301a78 1ac01a90 1ac81a98     p...x.0.........
    e788:	1ae01ab0 1ae81ab8 1b801ac0 1b881ac8     ................
    e798:	1bc01ad0 1b701ad8 1ba01ae0 1d701ae8     ......p.......p.
    e7a8:	1be01af0 1f701af8 1d481b28 1dc81b38     ......p.(.H.8...
    e7b8:	1b601b48 1bb01b58 1db01b68 1bc81b70     H.`.X...h...p...
    e7c8:	1fb01b78 1bc01b90 1bc81b98 1d581ba8     x.............X.
    e7d8:	1be01bb0 1dd81bb8 1bf01bd8 1df01be8     ................
    e7e8:	1ff01bf8 1c201c08 1c301c18 1c681c38     ...... ...0.8.h.
    e7f8:	1c601c48 1c701c58 1e381c78 1e001c80     H.`.X.p.x.8.....
    e808:	1e201c88 1f001c90 1f201c98 1e081ca0     .. ....... .....
    e818:	1e281ca8 1f081cb0 1f281cb8 1e101cc0     ..(.......(.....
    e828:	1e301cc8 1f101cd0 1f301cd8 1e181ce0     ..0.......0.....
    e838:	1e381ce8 1f181cf0 1e781cf8 1d201d08     ..8.......x... .
    e848:	1d301d18 1da81d38 1d601d48 1d701d58     ..0.8...H.`.X.p.
    e858:	1f281d68 1eb81d78 1e401d80 1e601d88     h.(.x.....@...`.
    e868:	1f401d90 1f601d98 1e481da0 1e681da8     ..@...`...H...h.
    e878:	1f481db0 1f681db8 1e501dc0 1e701dc8     ..H...h...P...p.
    e888:	1f501dd0 1f701dd8 1e581de0 1e781de8     ..P...p...X...x.
    e898:	1f581df0 1ef81df8 1e201e08 1e301e18     ..X....... ...0.
    e8a8:	1e601e48 1e701e58 1f381e78 1ea01e88     H.`.X.p.x.8.....
    e8b8:	1f801e90 1fa01e98 1f881eb0 1fa81eb8     ................
    e8c8:	1f801ec0 1f881ec8 1f901ed0 1fb01ed8     ................
    e8d8:	1fa01ee0 1fa81ee8 1f981ef0 1f781ef8     ..............x.
    e8e8:	1f201f08 1f301f18 1f601f48 1f701f58     .. ...0.H.`.X.p.
    e8f8:	1fb81f78 1fa01f88 1fc01f90 1fe01f98     x...............
    e908:	1fc81fb0 1fe81fb8 1fe01fc8 1ff01fd8     ................

0000e918 <armBitRevIndexTable16>:
    e918:	00400008 00480018 00400010 00500028     ..@...H...@.(.P.
    e928:	00400020 00580038 00480030 00680058      .@.8.X.0.H.X.h.
    e938:	00600048 00700068                       H.`.h.p.

0000e940 <armBitRevIndexTable32>:
    e940:	00400008 00800010 00c00018 00400020     ..@......... .@.
    e950:	00480028 00880030 00c80038 00800040     (.H.0...8...@...
    e960:	00500048 00d00058 00900050 00c00060     H.P.X...P...`...
    e970:	00d00068 00980070 00d80078 00c00088     h...p...x.......
    e980:	00a00090 00d000a8 00e00098 00d000b0     ................
    e990:	00e800b8 00f000d8 00e000c8 00f000e8     ................

0000e9a0 <twiddleCoef_128>:
    e9a0:	3f800000 00000000 3f7fb10f 3d48fb2f     ...?.......?/.H=
    e9b0:	3f7ec46d 3dc8bd36 3f7d3aac 3e164083     m.~?6..=.:}?.@.>
    e9c0:	3f7b14be 3e47c5c2 3f7853f8 3e78cfcc     ..{?..G>.Sx?..x>
    e9d0:	3f74fa0b 3e94a031 3f710908 3eac7cd4     ..t?1..>..q?.|.>
    e9e0:	3f6c835e 3ec3ef15 3f676bd8 3edae880     ^.l?...>.kg?...>
    e9f0:	3f61c598 3ef15aea 3f5b941a 3f039c3d     ..a?.Z.>..[?=..?
    ea00:	3f54db31 3f0e39da 3f4d9f02 3f187fc0     1.T?.9.?..M?...?
    ea10:	3f45e403 3f226799 3f3daef9 3f2beb4a     ..E?.g"?..=?J.+?
    ea20:	3f3504f3 3f3504f3 3f2beb4a 3f3daef9     ..5?..5?J.+?..=?
    ea30:	3f226799 3f45e403 3f187fc0 3f4d9f02     .g"?..E?...?..M?
    ea40:	3f0e39da 3f54db31 3f039c3d 3f5b941a     .9.?1.T?=..?..[?
    ea50:	3ef15aea 3f61c598 3edae880 3f676bd8     .Z.>..a?...>.kg?
    ea60:	3ec3ef15 3f6c835e 3eac7cd4 3f710908     ...>^.l?.|.>..q?
    ea70:	3e94a031 3f74fa0b 3e78cfcc 3f7853f8     1..>..t?..x>.Sx?
    ea80:	3e47c5c2 3f7b14be 3e164083 3f7d3aac     ..G>..{?.@.>.:}?
    ea90:	3dc8bd36 3f7ec46d 3d48fb2f 3f7fb10f     6..=m.~?/.H=...?
    eaa0:	00000000 3f800000 bd48fb2f 3f7fb10f     .......?/.H....?
    eab0:	bdc8bd36 3f7ec46d be164083 3f7d3aac     6...m.~?.@...:}?
    eac0:	be47c5c2 3f7b14be be78cfcc 3f7853f8     ..G...{?..x..Sx?
    ead0:	be94a031 3f74fa0b beac7cd4 3f710908     1.....t?.|....q?
    eae0:	bec3ef15 3f6c835e bedae880 3f676bd8     ....^.l?.....kg?
    eaf0:	bef15aea 3f61c598 bf039c3d 3f5b941a     .Z....a?=.....[?
    eb00:	bf0e39da 3f54db31 bf187fc0 3f4d9f02     .9..1.T?......M?
    eb10:	bf226799 3f45e403 bf2beb4a 3f3daef9     .g"...E?J.+...=?
    eb20:	bf3504f3 3f3504f3 bf3daef9 3f2beb4a     ..5...5?..=.J.+?
    eb30:	bf45e403 3f226799 bf4d9f02 3f187fc0     ..E..g"?..M....?
    eb40:	bf54db31 3f0e39da bf5b941a 3f039c3d     1.T..9.?..[.=..?
    eb50:	bf61c598 3ef15aea bf676bd8 3edae880     ..a..Z.>.kg....>
    eb60:	bf6c835e 3ec3ef15 bf710908 3eac7cd4     ^.l....>..q..|.>
    eb70:	bf74fa0b 3e94a031 bf7853f8 3e78cfcc     ..t.1..>.Sx...x>
    eb80:	bf7b14be 3e47c5c2 bf7d3aac 3e164083     ..{...G>.:}..@.>
    eb90:	bf7ec46d 3dc8bd36 bf7fb10f 3d48fb2f     m.~.6..=..../.H=
    eba0:	bf800000 00000000 bf7fb10f bd48fb2f     ............/.H.
    ebb0:	bf7ec46d bdc8bd36 bf7d3aac be164083     m.~.6....:}..@..
    ebc0:	bf7b14be be47c5c2 bf7853f8 be78cfcc     ..{...G..Sx...x.
    ebd0:	bf74fa0b be94a031 bf710908 beac7cd4     ..t.1.....q..|..
    ebe0:	bf6c835e bec3ef15 bf676bd8 bedae880     ^.l......kg.....
    ebf0:	bf61c598 bef15aea bf5b941a bf039c3d     ..a..Z....[.=...
    ec00:	bf54db31 bf0e39da bf4d9f02 bf187fc0     1.T..9....M.....
    ec10:	bf45e403 bf226799 bf3daef9 bf2beb4a     ..E..g"...=.J.+.
    ec20:	bf3504f3 bf3504f3 bf2beb4a bf3daef9     ..5...5.J.+...=.
    ec30:	bf226799 bf45e403 bf187fc0 bf4d9f02     .g"...E.......M.
    ec40:	bf0e39da bf54db31 bf039c3d bf5b941a     .9..1.T.=.....[.
    ec50:	bef15aea bf61c598 bedae880 bf676bd8     .Z....a......kg.
    ec60:	bec3ef15 bf6c835e beac7cd4 bf710908     ....^.l..|....q.
    ec70:	be94a031 bf74fa0b be78cfcc bf7853f8     1.....t...x..Sx.
    ec80:	be47c5c2 bf7b14be be164083 bf7d3aac     ..G...{..@...:}.
    ec90:	bdc8bd36 bf7ec46d bd48fb2f bf7fb10f     6...m.~./.H.....
    eca0:	80000000 bf800000 3d48fb2f bf7fb10f     ......../.H=....
    ecb0:	3dc8bd36 bf7ec46d 3e164083 bf7d3aac     6..=m.~..@.>.:}.
    ecc0:	3e47c5c2 bf7b14be 3e78cfcc bf7853f8     ..G>..{...x>.Sx.
    ecd0:	3e94a031 bf74fa0b 3eac7cd4 bf710908     1..>..t..|.>..q.
    ece0:	3ec3ef15 bf6c835e 3edae880 bf676bd8     ...>^.l....>.kg.
    ecf0:	3ef15aea bf61c598 3f039c3d bf5b941a     .Z.>..a.=..?..[.
    ed00:	3f0e39da bf54db31 3f187fc0 bf4d9f02     .9.?1.T....?..M.
    ed10:	3f226799 bf45e403 3f2beb4a bf3daef9     .g"?..E.J.+?..=.
    ed20:	3f3504f3 bf3504f3 3f3daef9 bf2beb4a     ..5?..5...=?J.+.
    ed30:	3f45e403 bf226799 3f4d9f02 bf187fc0     ..E?.g"...M?....
    ed40:	3f54db31 bf0e39da 3f5b941a bf039c3d     1.T?.9....[?=...
    ed50:	3f61c598 bef15aea 3f676bd8 bedae880     ..a?.Z...kg?....
    ed60:	3f6c835e bec3ef15 3f710908 beac7cd4     ^.l?......q?.|..
    ed70:	3f74fa0b be94a031 3f7853f8 be78cfcc     ..t?1....Sx?..x.
    ed80:	3f7b14be be47c5c2 3f7d3aac be164083     ..{?..G..:}?.@..
    ed90:	3f7ec46d bdc8bd36 3f7fb10f bd48fb2f     m.~?6......?/.H.

0000eda0 <twiddleCoef_512>:
    eda0:	3f800000 00000000 3f7ffb11 3c490e90     ...?.......?..I<
    edb0:	3f7fec43 3cc90ab0 3f7fd398 3d16c32c     C..?...<...?,..=
    edc0:	3f7fb10f 3d48fb2f 3f7f84ab 3d7b2b74     ...?/.H=...?t+{=
    edd0:	3f7f4e6d 3d96a905 3f7f0e58 3dafb680     mN.?...=X..?...=
    ede0:	3f7ec46d 3dc8bd36 3f7e70b0 3de1bc2e     m.~?6..=.p~?...=
    edf0:	3f7e1324 3dfab273 3f7dabcc 3e09cf86     $.~?s..=..}?...>
    ee00:	3f7d3aac 3e164083 3f7cbfc9 3e22abb6     .:}?.@.>..|?..">
    ee10:	3f7c3b28 3e2f10a2 3f7baccd 3e3b6ecf     (;|?../>..{?.n;>
    ee20:	3f7b14be 3e47c5c2 3f7a7302 3e541501     ..{?..G>.sz?..T>
    ee30:	3f79c79d 3e605c13 3f791298 3e6c9a7f     ..y?.\`>..y?..l>
    ee40:	3f7853f8 3e78cfcc 3f778bc5 3e827dc0     .Sx?..x>..w?.}.>
    ee50:	3f76ba07 3e888e93 3f75dec6 3e8e9a22     ..v?...>..u?"..>
    ee60:	3f74fa0b 3e94a031 3f740bdd 3e9aa086     ..t?1..>..t?...>
    ee70:	3f731447 3ea09ae5 3f721352 3ea68f12     G.s?...>R.r?...>
    ee80:	3f710908 3eac7cd4 3f6ff573 3eb263ef     ..q?.|.>s.o?.c.>
    ee90:	3f6ed89e 3eb8442a 3f6db293 3ebe1d4a     ..n?*D.>..m?J..>
    eea0:	3f6c835e 3ec3ef15 3f6b4b0c 3ec9b953     ^.l?...>.Kk?S..>
    eeb0:	3f6a09a7 3ecf7bca 3f68bf3c 3ed53641     ..j?.{.><.h?A6.>
    eec0:	3f676bd8 3edae880 3f660f88 3ee0924f     .kg?...>..f?O..>
    eed0:	3f64aa59 3ee63375 3f633c5a 3eebcbbb     Y.d?u3.>Z<c?...>
    eee0:	3f61c598 3ef15aea 3f604621 3ef6e0cb     ..a?.Z.>!F`?...>
    eef0:	3f5ebe05 3efc5d27 3f5d2d53 3f00e7e4     ..^?'].>S-]?...?
    ef00:	3f5b941a 3f039c3d 3f59f26a 3f064b82     ..[?=..?j.Y?.K.?
    ef10:	3f584853 3f08f59b 3f5695e5 3f0b9a6b     SHX?...?..V?k..?
    ef20:	3f54db31 3f0e39da 3f531849 3f10d3cd     1.T?.9.?I.S?...?
    ef30:	3f514d3d 3f13682a 3f4f7a1f 3f15f6d9     =MQ?*h.?.zO?...?
    ef40:	3f4d9f02 3f187fc0 3f4bbbf8 3f1b02c6     ..M?...?..K?...?
    ef50:	3f49d112 3f1d7fd1 3f47de65 3f1ff6cb     ..I?...?e.G?...?
    ef60:	3f45e403 3f226799 3f43e200 3f24d225     ..E?.g"?..C?%.$?
    ef70:	3f41d870 3f273656 3f3fc767 3f299415     p.A?V6'?g.??..)?
    ef80:	3f3daef9 3f2beb4a 3f3b8f3b 3f2e3bde     ..=?J.+?;.;?.;.?
    ef90:	3f396842 3f3085bb 3f373a23 3f32c8c9     Bh9?..0?#:7?..2?
    efa0:	3f3504f3 3f3504f3 3f32c8c9 3f373a23     ..5?..5?..2?#:7?
    efb0:	3f3085bb 3f396842 3f2e3bde 3f3b8f3b     ..0?Bh9?.;.?;.;?
    efc0:	3f2beb4a 3f3daef9 3f299415 3f3fc767     J.+?..=?..)?g.??
    efd0:	3f273656 3f41d870 3f24d225 3f43e200     V6'?p.A?%.$?..C?
    efe0:	3f226799 3f45e403 3f1ff6cb 3f47de65     .g"?..E?...?e.G?
    eff0:	3f1d7fd1 3f49d112 3f1b02c6 3f4bbbf8     ...?..I?...?..K?
    f000:	3f187fc0 3f4d9f02 3f15f6d9 3f4f7a1f     ...?..M?...?.zO?
    f010:	3f13682a 3f514d3d 3f10d3cd 3f531849     *h.?=MQ?...?I.S?
    f020:	3f0e39da 3f54db31 3f0b9a6b 3f5695e5     .9.?1.T?k..?..V?
    f030:	3f08f59b 3f584853 3f064b82 3f59f26a     ...?SHX?.K.?j.Y?
    f040:	3f039c3d 3f5b941a 3f00e7e4 3f5d2d53     =..?..[?...?S-]?
    f050:	3efc5d27 3f5ebe05 3ef6e0cb 3f604621     '].>..^?...>!F`?
    f060:	3ef15aea 3f61c598 3eebcbbb 3f633c5a     .Z.>..a?...>Z<c?
    f070:	3ee63375 3f64aa59 3ee0924f 3f660f88     u3.>Y.d?O..>..f?
    f080:	3edae880 3f676bd8 3ed53641 3f68bf3c     ...>.kg?A6.><.h?
    f090:	3ecf7bca 3f6a09a7 3ec9b953 3f6b4b0c     .{.>..j?S..>.Kk?
    f0a0:	3ec3ef15 3f6c835e 3ebe1d4a 3f6db293     ...>^.l?J..>..m?
    f0b0:	3eb8442a 3f6ed89e 3eb263ef 3f6ff573     *D.>..n?.c.>s.o?
    f0c0:	3eac7cd4 3f710908 3ea68f12 3f721352     .|.>..q?...>R.r?
    f0d0:	3ea09ae5 3f731447 3e9aa086 3f740bdd     ...>G.s?...>..t?
    f0e0:	3e94a031 3f74fa0b 3e8e9a22 3f75dec6     1..>..t?"..>..u?
    f0f0:	3e888e93 3f76ba07 3e827dc0 3f778bc5     ...>..v?.}.>..w?
    f100:	3e78cfcc 3f7853f8 3e6c9a7f 3f791298     ..x>.Sx?..l>..y?
    f110:	3e605c13 3f79c79d 3e541501 3f7a7302     .\`>..y?..T>.sz?
    f120:	3e47c5c2 3f7b14be 3e3b6ecf 3f7baccd     ..G>..{?.n;>..{?
    f130:	3e2f10a2 3f7c3b28 3e22abb6 3f7cbfc9     ../>(;|?..">..|?
    f140:	3e164083 3f7d3aac 3e09cf86 3f7dabcc     .@.>.:}?...>..}?
    f150:	3dfab273 3f7e1324 3de1bc2e 3f7e70b0     s..=$.~?...=.p~?
    f160:	3dc8bd36 3f7ec46d 3dafb680 3f7f0e58     6..=m.~?...=X..?
    f170:	3d96a905 3f7f4e6d 3d7b2b74 3f7f84ab     ...=mN.?t+{=...?
    f180:	3d48fb2f 3f7fb10f 3d16c32c 3f7fd398     /.H=...?,..=...?
    f190:	3cc90ab0 3f7fec43 3c490e90 3f7ffb11     ...<C..?..I<...?
    f1a0:	00000000 3f800000 bc490e90 3f7ffb11     .......?..I....?
    f1b0:	bcc90ab0 3f7fec43 bd16c32c 3f7fd398     ....C..?,......?
    f1c0:	bd48fb2f 3f7fb10f bd7b2b74 3f7f84ab     /.H....?t+{....?
    f1d0:	bd96a905 3f7f4e6d bdafb680 3f7f0e58     ....mN.?....X..?
    f1e0:	bdc8bd36 3f7ec46d bde1bc2e 3f7e70b0     6...m.~?.....p~?
    f1f0:	bdfab273 3f7e1324 be09cf86 3f7dabcc     s...$.~?......}?
    f200:	be164083 3f7d3aac be22abb6 3f7cbfc9     .@...:}?.."...|?
    f210:	be2f10a2 3f7c3b28 be3b6ecf 3f7baccd     ../.(;|?.n;...{?
    f220:	be47c5c2 3f7b14be be541501 3f7a7302     ..G...{?..T..sz?
    f230:	be605c13 3f79c79d be6c9a7f 3f791298     .\`...y?..l...y?
    f240:	be78cfcc 3f7853f8 be827dc0 3f778bc5     ..x..Sx?.}....w?
    f250:	be888e93 3f76ba07 be8e9a22 3f75dec6     ......v?".....u?
    f260:	be94a031 3f74fa0b be9aa086 3f740bdd     1.....t?......t?
    f270:	bea09ae5 3f731447 bea68f12 3f721352     ....G.s?....R.r?
    f280:	beac7cd4 3f710908 beb263ef 3f6ff573     .|....q?.c..s.o?
    f290:	beb8442a 3f6ed89e bebe1d4a 3f6db293     *D....n?J.....m?
    f2a0:	bec3ef15 3f6c835e bec9b953 3f6b4b0c     ....^.l?S....Kk?
    f2b0:	becf7bca 3f6a09a7 bed53641 3f68bf3c     .{....j?A6..<.h?
    f2c0:	bedae880 3f676bd8 bee0924f 3f660f88     .....kg?O.....f?
    f2d0:	bee63375 3f64aa59 beebcbbb 3f633c5a     u3..Y.d?....Z<c?
    f2e0:	bef15aea 3f61c598 bef6e0cb 3f604621     .Z....a?....!F`?
    f2f0:	befc5d27 3f5ebe05 bf00e7e4 3f5d2d53     ']....^?....S-]?
    f300:	bf039c3d 3f5b941a bf064b82 3f59f26a     =.....[?.K..j.Y?
    f310:	bf08f59b 3f584853 bf0b9a6b 3f5695e5     ....SHX?k.....V?
    f320:	bf0e39da 3f54db31 bf10d3cd 3f531849     .9..1.T?....I.S?
    f330:	bf13682a 3f514d3d bf15f6d9 3f4f7a1f     *h..=MQ?.....zO?
    f340:	bf187fc0 3f4d9f02 bf1b02c6 3f4bbbf8     ......M?......K?
    f350:	bf1d7fd1 3f49d112 bf1ff6cb 3f47de65     ......I?....e.G?
    f360:	bf226799 3f45e403 bf24d225 3f43e200     .g"...E?%.$...C?
    f370:	bf273656 3f41d870 bf299415 3f3fc767     V6'.p.A?..).g.??
    f380:	bf2beb4a 3f3daef9 bf2e3bde 3f3b8f3b     J.+...=?.;..;.;?
    f390:	bf3085bb 3f396842 bf32c8c9 3f373a23     ..0.Bh9?..2.#:7?
    f3a0:	bf3504f3 3f3504f3 bf373a23 3f32c8c9     ..5...5?#:7...2?
    f3b0:	bf396842 3f3085bb bf3b8f3b 3f2e3bde     Bh9...0?;.;..;.?
    f3c0:	bf3daef9 3f2beb4a bf3fc767 3f299415     ..=.J.+?g.?...)?
    f3d0:	bf41d870 3f273656 bf43e200 3f24d225     p.A.V6'?..C.%.$?
    f3e0:	bf45e403 3f226799 bf47de65 3f1ff6cb     ..E..g"?e.G....?
    f3f0:	bf49d112 3f1d7fd1 bf4bbbf8 3f1b02c6     ..I....?..K....?
    f400:	bf4d9f02 3f187fc0 bf4f7a1f 3f15f6d9     ..M....?.zO....?
    f410:	bf514d3d 3f13682a bf531849 3f10d3cd     =MQ.*h.?I.S....?
    f420:	bf54db31 3f0e39da bf5695e5 3f0b9a6b     1.T..9.?..V.k..?
    f430:	bf584853 3f08f59b bf59f26a 3f064b82     SHX....?j.Y..K.?
    f440:	bf5b941a 3f039c3d bf5d2d53 3f00e7e4     ..[.=..?S-]....?
    f450:	bf5ebe05 3efc5d27 bf604621 3ef6e0cb     ..^.'].>!F`....>
    f460:	bf61c598 3ef15aea bf633c5a 3eebcbbb     ..a..Z.>Z<c....>
    f470:	bf64aa59 3ee63375 bf660f88 3ee0924f     Y.d.u3.>..f.O..>
    f480:	bf676bd8 3edae880 bf68bf3c 3ed53641     .kg....><.h.A6.>
    f490:	bf6a09a7 3ecf7bca bf6b4b0c 3ec9b953     ..j..{.>.Kk.S..>
    f4a0:	bf6c835e 3ec3ef15 bf6db293 3ebe1d4a     ^.l....>..m.J..>
    f4b0:	bf6ed89e 3eb8442a bf6ff573 3eb263ef     ..n.*D.>s.o..c.>
    f4c0:	bf710908 3eac7cd4 bf721352 3ea68f12     ..q..|.>R.r....>
    f4d0:	bf731447 3ea09ae5 bf740bdd 3e9aa086     G.s....>..t....>
    f4e0:	bf74fa0b 3e94a031 bf75dec6 3e8e9a22     ..t.1..>..u."..>
    f4f0:	bf76ba07 3e888e93 bf778bc5 3e827dc0     ..v....>..w..}.>
    f500:	bf7853f8 3e78cfcc bf791298 3e6c9a7f     .Sx...x>..y...l>
    f510:	bf79c79d 3e605c13 bf7a7302 3e541501     ..y..\`>.sz...T>
    f520:	bf7b14be 3e47c5c2 bf7baccd 3e3b6ecf     ..{...G>..{..n;>
    f530:	bf7c3b28 3e2f10a2 bf7cbfc9 3e22abb6     (;|.../>..|...">
    f540:	bf7d3aac 3e164083 bf7dabcc 3e09cf86     .:}..@.>..}....>
    f550:	bf7e1324 3dfab273 bf7e70b0 3de1bc2e     $.~.s..=.p~....=
    f560:	bf7ec46d 3dc8bd36 bf7f0e58 3dafb680     m.~.6..=X......=
    f570:	bf7f4e6d 3d96a905 bf7f84ab 3d7b2b74     mN.....=....t+{=
    f580:	bf7fb10f 3d48fb2f bf7fd398 3d16c32c     ..../.H=....,..=
    f590:	bf7fec43 3cc90ab0 bf7ffb11 3c490e90     C......<......I<
    f5a0:	bf800000 00000000 bf7ffb11 bc490e90     ..............I.
    f5b0:	bf7fec43 bcc90ab0 bf7fd398 bd16c32c     C...........,...
    f5c0:	bf7fb10f bd48fb2f bf7f84ab bd7b2b74     ..../.H.....t+{.
    f5d0:	bf7f4e6d bd96a905 bf7f0e58 bdafb680     mN......X.......
    f5e0:	bf7ec46d bdc8bd36 bf7e70b0 bde1bc2e     m.~.6....p~.....
    f5f0:	bf7e1324 bdfab273 bf7dabcc be09cf86     $.~.s.....}.....
    f600:	bf7d3aac be164083 bf7cbfc9 be22abb6     .:}..@....|...".
    f610:	bf7c3b28 be2f10a2 bf7baccd be3b6ecf     (;|.../...{..n;.
    f620:	bf7b14be be47c5c2 bf7a7302 be541501     ..{...G..sz...T.
    f630:	bf79c79d be605c13 bf791298 be6c9a7f     ..y..\`...y...l.
    f640:	bf7853f8 be78cfcc bf778bc5 be827dc0     .Sx...x...w..}..
    f650:	bf76ba07 be888e93 bf75dec6 be8e9a22     ..v.......u."...
    f660:	bf74fa0b be94a031 bf740bdd be9aa086     ..t.1.....t.....
    f670:	bf731447 bea09ae5 bf721352 bea68f12     G.s.....R.r.....
    f680:	bf710908 beac7cd4 bf6ff573 beb263ef     ..q..|..s.o..c..
    f690:	bf6ed89e beb8442a bf6db293 bebe1d4a     ..n.*D....m.J...
    f6a0:	bf6c835e bec3ef15 bf6b4b0c bec9b953     ^.l......Kk.S...
    f6b0:	bf6a09a7 becf7bca bf68bf3c bed53641     ..j..{..<.h.A6..
    f6c0:	bf676bd8 bedae880 bf660f88 bee0924f     .kg.......f.O...
    f6d0:	bf64aa59 bee63375 bf633c5a beebcbbb     Y.d.u3..Z<c.....
    f6e0:	bf61c598 bef15aea bf604621 bef6e0cb     ..a..Z..!F`.....
    f6f0:	bf5ebe05 befc5d27 bf5d2d53 bf00e7e4     ..^.']..S-].....
    f700:	bf5b941a bf039c3d bf59f26a bf064b82     ..[.=...j.Y..K..
    f710:	bf584853 bf08f59b bf5695e5 bf0b9a6b     SHX.......V.k...
    f720:	bf54db31 bf0e39da bf531849 bf10d3cd     1.T..9..I.S.....
    f730:	bf514d3d bf13682a bf4f7a1f bf15f6d9     =MQ.*h...zO.....
    f740:	bf4d9f02 bf187fc0 bf4bbbf8 bf1b02c6     ..M.......K.....
    f750:	bf49d112 bf1d7fd1 bf47de65 bf1ff6cb     ..I.....e.G.....
    f760:	bf45e403 bf226799 bf43e200 bf24d225     ..E..g"...C.%.$.
    f770:	bf41d870 bf273656 bf3fc767 bf299415     p.A.V6'.g.?...).
    f780:	bf3daef9 bf2beb4a bf3b8f3b bf2e3bde     ..=.J.+.;.;..;..
    f790:	bf396842 bf3085bb bf373a23 bf32c8c9     Bh9...0.#:7...2.
    f7a0:	bf3504f3 bf3504f3 bf32c8c9 bf373a23     ..5...5...2.#:7.
    f7b0:	bf3085bb bf396842 bf2e3bde bf3b8f3b     ..0.Bh9..;..;.;.
    f7c0:	bf2beb4a bf3daef9 bf299415 bf3fc767     J.+...=...).g.?.
    f7d0:	bf273656 bf41d870 bf24d225 bf43e200     V6'.p.A.%.$...C.
    f7e0:	bf226799 bf45e403 bf1ff6cb bf47de65     .g"...E.....e.G.
    f7f0:	bf1d7fd1 bf49d112 bf1b02c6 bf4bbbf8     ......I.......K.
    f800:	bf187fc0 bf4d9f02 bf15f6d9 bf4f7a1f     ......M......zO.
    f810:	bf13682a bf514d3d bf10d3cd bf531849     *h..=MQ.....I.S.
    f820:	bf0e39da bf54db31 bf0b9a6b bf5695e5     .9..1.T.k.....V.
    f830:	bf08f59b bf584853 bf064b82 bf59f26a     ....SHX..K..j.Y.
    f840:	bf039c3d bf5b941a bf00e7e4 bf5d2d53     =.....[.....S-].
    f850:	befc5d27 bf5ebe05 bef6e0cb bf604621     ']....^.....!F`.
    f860:	bef15aea bf61c598 beebcbbb bf633c5a     .Z....a.....Z<c.
    f870:	bee63375 bf64aa59 bee0924f bf660f88     u3..Y.d.O.....f.
    f880:	bedae880 bf676bd8 bed53641 bf68bf3c     .....kg.A6..<.h.
    f890:	becf7bca bf6a09a7 bec9b953 bf6b4b0c     .{....j.S....Kk.
    f8a0:	bec3ef15 bf6c835e bebe1d4a bf6db293     ....^.l.J.....m.
    f8b0:	beb8442a bf6ed89e beb263ef bf6ff573     *D....n..c..s.o.
    f8c0:	beac7cd4 bf710908 bea68f12 bf721352     .|....q.....R.r.
    f8d0:	bea09ae5 bf731447 be9aa086 bf740bdd     ....G.s.......t.
    f8e0:	be94a031 bf74fa0b be8e9a22 bf75dec6     1.....t.".....u.
    f8f0:	be888e93 bf76ba07 be827dc0 bf778bc5     ......v..}....w.
    f900:	be78cfcc bf7853f8 be6c9a7f bf791298     ..x..Sx...l...y.
    f910:	be605c13 bf79c79d be541501 bf7a7302     .\`...y...T..sz.
    f920:	be47c5c2 bf7b14be be3b6ecf bf7baccd     ..G...{..n;...{.
    f930:	be2f10a2 bf7c3b28 be22abb6 bf7cbfc9     ../.(;|..."...|.
    f940:	be164083 bf7d3aac be09cf86 bf7dabcc     .@...:}.......}.
    f950:	bdfab273 bf7e1324 bde1bc2e bf7e70b0     s...$.~......p~.
    f960:	bdc8bd36 bf7ec46d bdafb680 bf7f0e58     6...m.~.....X...
    f970:	bd96a905 bf7f4e6d bd7b2b74 bf7f84ab     ....mN..t+{.....
    f980:	bd48fb2f bf7fb10f bd16c32c bf7fd398     /.H.....,.......
    f990:	bcc90ab0 bf7fec43 bc490e90 bf7ffb11     ....C.....I.....
    f9a0:	80000000 bf800000 3c490e90 bf7ffb11     ..........I<....
    f9b0:	3cc90ab0 bf7fec43 3d16c32c bf7fd398     ...<C...,..=....
    f9c0:	3d48fb2f bf7fb10f 3d7b2b74 bf7f84ab     /.H=....t+{=....
    f9d0:	3d96a905 bf7f4e6d 3dafb680 bf7f0e58     ...=mN.....=X...
    f9e0:	3dc8bd36 bf7ec46d 3de1bc2e bf7e70b0     6..=m.~....=.p~.
    f9f0:	3dfab273 bf7e1324 3e09cf86 bf7dabcc     s..=$.~....>..}.
    fa00:	3e164083 bf7d3aac 3e22abb6 bf7cbfc9     .@.>.:}...">..|.
    fa10:	3e2f10a2 bf7c3b28 3e3b6ecf bf7baccd     ../>(;|..n;>..{.
    fa20:	3e47c5c2 bf7b14be 3e541501 bf7a7302     ..G>..{...T>.sz.
    fa30:	3e605c13 bf79c79d 3e6c9a7f bf791298     .\`>..y...l>..y.
    fa40:	3e78cfcc bf7853f8 3e827dc0 bf778bc5     ..x>.Sx..}.>..w.
    fa50:	3e888e93 bf76ba07 3e8e9a22 bf75dec6     ...>..v."..>..u.
    fa60:	3e94a031 bf74fa0b 3e9aa086 bf740bdd     1..>..t....>..t.
    fa70:	3ea09ae5 bf731447 3ea68f12 bf721352     ...>G.s....>R.r.
    fa80:	3eac7cd4 bf710908 3eb263ef bf6ff573     .|.>..q..c.>s.o.
    fa90:	3eb8442a bf6ed89e 3ebe1d4a bf6db293     *D.>..n.J..>..m.
    faa0:	3ec3ef15 bf6c835e 3ec9b953 bf6b4b0c     ...>^.l.S..>.Kk.
    fab0:	3ecf7bca bf6a09a7 3ed53641 bf68bf3c     .{.>..j.A6.><.h.
    fac0:	3edae880 bf676bd8 3ee0924f bf660f88     ...>.kg.O..>..f.
    fad0:	3ee63375 bf64aa59 3eebcbbb bf633c5a     u3.>Y.d....>Z<c.
    fae0:	3ef15aea bf61c598 3ef6e0cb bf604621     .Z.>..a....>!F`.
    faf0:	3efc5d27 bf5ebe05 3f00e7e4 bf5d2d53     '].>..^....?S-].
    fb00:	3f039c3d bf5b941a 3f064b82 bf59f26a     =..?..[..K.?j.Y.
    fb10:	3f08f59b bf584853 3f0b9a6b bf5695e5     ...?SHX.k..?..V.
    fb20:	3f0e39da bf54db31 3f10d3cd bf531849     .9.?1.T....?I.S.
    fb30:	3f13682a bf514d3d 3f15f6d9 bf4f7a1f     *h.?=MQ....?.zO.
    fb40:	3f187fc0 bf4d9f02 3f1b02c6 bf4bbbf8     ...?..M....?..K.
    fb50:	3f1d7fd1 bf49d112 3f1ff6cb bf47de65     ...?..I....?e.G.
    fb60:	3f226799 bf45e403 3f24d225 bf43e200     .g"?..E.%.$?..C.
    fb70:	3f273656 bf41d870 3f299415 bf3fc767     V6'?p.A...)?g.?.
    fb80:	3f2beb4a bf3daef9 3f2e3bde bf3b8f3b     J.+?..=..;.?;.;.
    fb90:	3f3085bb bf396842 3f32c8c9 bf373a23     ..0?Bh9...2?#:7.
    fba0:	3f3504f3 bf3504f3 3f373a23 bf32c8c9     ..5?..5.#:7?..2.
    fbb0:	3f396842 bf3085bb 3f3b8f3b bf2e3bde     Bh9?..0.;.;?.;..
    fbc0:	3f3daef9 bf2beb4a 3f3fc767 bf299415     ..=?J.+.g.??..).
    fbd0:	3f41d870 bf273656 3f43e200 bf24d225     p.A?V6'...C?%.$.
    fbe0:	3f45e403 bf226799 3f47de65 bf1ff6cb     ..E?.g".e.G?....
    fbf0:	3f49d112 bf1d7fd1 3f4bbbf8 bf1b02c6     ..I?......K?....
    fc00:	3f4d9f02 bf187fc0 3f4f7a1f bf15f6d9     ..M?.....zO?....
    fc10:	3f514d3d bf13682a 3f531849 bf10d3cd     =MQ?*h..I.S?....
    fc20:	3f54db31 bf0e39da 3f5695e5 bf0b9a6b     1.T?.9....V?k...
    fc30:	3f584853 bf08f59b 3f59f26a bf064b82     SHX?....j.Y?.K..
    fc40:	3f5b941a bf039c3d 3f5d2d53 bf00e7e4     ..[?=...S-]?....
    fc50:	3f5ebe05 befc5d27 3f604621 bef6e0cb     ..^?']..!F`?....
    fc60:	3f61c598 bef15aea 3f633c5a beebcbbb     ..a?.Z..Z<c?....
    fc70:	3f64aa59 bee63375 3f660f88 bee0924f     Y.d?u3....f?O...
    fc80:	3f676bd8 bedae880 3f68bf3c bed53641     .kg?....<.h?A6..
    fc90:	3f6a09a7 becf7bca 3f6b4b0c bec9b953     ..j?.{...Kk?S...
    fca0:	3f6c835e bec3ef15 3f6db293 bebe1d4a     ^.l?......m?J...
    fcb0:	3f6ed89e beb8442a 3f6ff573 beb263ef     ..n?*D..s.o?.c..
    fcc0:	3f710908 beac7cd4 3f721352 bea68f12     ..q?.|..R.r?....
    fcd0:	3f731447 bea09ae5 3f740bdd be9aa086     G.s?......t?....
    fce0:	3f74fa0b be94a031 3f75dec6 be8e9a22     ..t?1.....u?"...
    fcf0:	3f76ba07 be888e93 3f778bc5 be827dc0     ..v?......w?.}..
    fd00:	3f7853f8 be78cfcc 3f791298 be6c9a7f     .Sx?..x...y?..l.
    fd10:	3f79c79d be605c13 3f7a7302 be541501     ..y?.\`..sz?..T.
    fd20:	3f7b14be be47c5c2 3f7baccd be3b6ecf     ..{?..G...{?.n;.
    fd30:	3f7c3b28 be2f10a2 3f7cbfc9 be22abb6     (;|?../...|?..".
    fd40:	3f7d3aac be164083 3f7dabcc be09cf86     .:}?.@....}?....
    fd50:	3f7e1324 bdfab273 3f7e70b0 bde1bc2e     $.~?s....p~?....
    fd60:	3f7ec46d bdc8bd36 3f7f0e58 bdafb680     m.~?6...X..?....
    fd70:	3f7f4e6d bd96a905 3f7f84ab bd7b2b74     mN.?.......?t+{.
    fd80:	3f7fb10f bd48fb2f 3f7fd398 bd16c32c     ...?/.H....?,...
    fd90:	3f7fec43 bcc90ab0 3f7ffb11 bc490e90     C..?.......?..I.

0000fda0 <armBitRevIndexTable2048>:
    fda0:	10000008 20000010 30000018 02000020     ....... ...0 ...
    fdb0:	12000028 22000030 32000038 04000040     (...0.."8..2@...
    fdc0:	14000048 24000050 34000058 06000060     H...P..$X..4`...
    fdd0:	16000068 26000070 36000078 08000080     h...p..&x..6....
    fde0:	18000088 28000090 38000098 0a0000a0     .......(...8....
    fdf0:	1a0000a8 2a0000b0 3a0000b8 0c0000c0     .......*...:....
    fe00:	1c0000c8 2c0000d0 3c0000d8 0e0000e0     .......,...<....
    fe10:	1e0000e8 2e0000f0 3e0000f8 04000100     ...........>....
    fe20:	10400108 20400110 30400118 02400120     ..@...@ ..@0 .@.
    fe30:	12400128 22400130 32400138 04400140     (.@.0.@"8.@2@.@.
    fe40:	14400148 24400150 34400158 06400160     H.@.P.@$X.@4`.@.
    fe50:	16400168 26400170 36400178 08400180     h.@.p.@&x.@6..@.
    fe60:	18400188 28400190 38400198 0a4001a0     ..@...@(..@8..@.
    fe70:	1a4001a8 2a4001b0 3a4001b8 0c4001c0     ..@...@*..@:..@.
    fe80:	1c4001c8 2c4001d0 3c4001d8 0e4001e0     ..@...@,..@<..@.
    fe90:	1e4001e8 2e4001f0 3e4001f8 08000200     ..@...@...@>....
    fea0:	10800208 20800210 30800218 02800220     ....... ...0 ...
    feb0:	12800228 22800230 32800238 04800240     (...0.."8..2@...
    fec0:	14800248 24800250 34800258 06800260     H...P..$X..4`...
    fed0:	16800268 26800270 36800278 08800280     h...p..&x..6....
    fee0:	18800288 28800290 38800298 0a8002a0     .......(...8....
    fef0:	1a8002a8 2a8002b0 3a8002b8 0c8002c0     .......*...:....
    ff00:	1c8002c8 2c8002d0 3c8002d8 0e8002e0     .......,...<....
    ff10:	1e8002e8 2e8002f0 3e8002f8 0c000300     ...........>....
    ff20:	10c00308 20c00310 30c00318 0c800320     ....... ...0 ...
    ff30:	12c00328 22c00330 32c00338 04c00340     (...0.."8..2@...
    ff40:	14c00348 24c00350 34c00358 06c00360     H...P..$X..4`...
    ff50:	16c00368 26c00370 36c00378 08c00380     h...p..&x..6....
    ff60:	18c00388 28c00390 38c00398 0ac003a0     .......(...8....
    ff70:	1ac003a8 2ac003b0 3ac003b8 0cc003c0     .......*...:....
    ff80:	1cc003c8 2cc003d0 3cc003d8 0ec003e0     .......,...<....
    ff90:	1ec003e8 2ec003f0 3ec003f8 11000408     ...........>....
    ffa0:	21000410 31000418 0c000420 13000428     ...!...1 ...(...
    ffb0:	23000430 33000438 05000440 15000448     0..#8..3@...H...
    ffc0:	25000450 35000458 07000460 17000468     P..%X..5`...h...
    ffd0:	27000470 37000478 09000480 19000488     p..'x..7........
    ffe0:	29000490 39000498 0b0004a0 1b0004a8     ...)...9........
    fff0:	2b0004b0 3b0004b8 0d0004c0 1d0004c8     ...+...;........
   10000:	2d0004d0 3d0004d8 0f0004e0 1f0004e8     ...-...=........
   10010:	2f0004f0 3f0004f8 11400508 21400510     .../...?..@...@!
   10020:	31400518 0d000520 13400528 23400530     ..@1 ...(.@.0.@#
   10030:	33400538 15400548 25400550 35400558     8.@3H.@.P.@%X.@5
   10040:	07400560 17400568 27400570 37400578     `.@.h.@.p.@'x.@7
   10050:	09400580 19400588 29400590 39400598     ..@...@...@)..@9
   10060:	0b4005a0 1b4005a8 2b4005b0 3b4005b8     ..@...@...@+..@;
   10070:	0d4005c0 1d4005c8 2d4005d0 3d4005d8     ..@...@...@-..@=
   10080:	0f4005e0 1f4005e8 2f4005f0 3f4005f8     ..@...@...@/..@?
   10090:	08400600 11800608 21800610 31800618     ..@........!...1
   100a0:	08c00620 13800628 23800630 33800638      ...(...0..#8..3
   100b0:	09400640 15800648 25800650 35800658     @.@.H...P..%X..5
   100c0:	07800660 17800668 27800670 37800678     `...h...p..'x..7
   100d0:	09800680 19800688 29800690 39800698     ...........)...9
   100e0:	0b8006a0 1b8006a8 2b8006b0 3b8006b8     ...........+...;
   100f0:	0d8006c0 1d8006c8 2d8006d0 3d8006d8     ...........-...=
   10100:	0f8006e0 1f8006e8 2f8006f0 3f8006f8     .........../...?
   10110:	0c400700 11c00708 21c00710 31c00718     ..@........!...1
   10120:	0cc00720 13c00728 23c00730 33c00738      ...(...0..#8..3
   10130:	0d400740 15c00748 25c00750 35c00758     @.@.H...P..%X..5
   10140:	07c00760 17c00768 27c00770 37c00778     `...h...p..'x..7
   10150:	09c00780 19c00788 29c00790 39c00798     ...........)...9
   10160:	0bc007a0 1bc007a8 2bc007b0 3bc007b8     ...........+...;
   10170:	0dc007c0 1dc007c8 2dc007d0 3dc007d8     ...........-...=
   10180:	0fc007e0 1fc007e8 2fc007f0 3fc007f8     .........../...?
   10190:	10000800 10080808 20080810 30080818     ........... ...0
   101a0:	10800820 12080828 22080830 32080838      ...(...0.."8..2
   101b0:	11000840 14080848 24080850 34080858     @...H...P..$X..4
   101c0:	11800860 16080868 26080870 36080878     `...h...p..&x..6
   101d0:	10080880 18080888 28080890 38080898     ...........(...8
   101e0:	0a0808a0 1a0808a8 2a0808b0 3a0808b8     ...........*...:
   101f0:	0c0808c0 1c0808c8 2c0808d0 3c0808d8     ...........,...<
   10200:	0e0808e0 1e0808e8 2e0808f0 3e0808f8     ...............>
   10210:	14000900 10480908 20480910 30480918     ......H...H ..H0
   10220:	14800920 12480928 22480930 32480938      ...(.H.0.H"8.H2
   10230:	15000940 14480948 24480950 34480958     @...H.H.P.H$X.H4
   10240:	15800960 16480968 26480970 36480978     `...h.H.p.H&x.H6
   10250:	14080980 18480988 28480990 38480998     ......H...H(..H8
   10260:	0a4809a0 1a4809a8 2a4809b0 3a4809b8     ..H...H...H*..H:
   10270:	0c4809c0 1c4809c8 2c4809d0 3c4809d8     ..H...H...H,..H<
   10280:	0e4809e0 1e4809e8 2e4809f0 3e4809f8     ..H...H...H...H>
   10290:	18000a00 10880a08 20880a10 30880a18     ........... ...0
   102a0:	18800a20 12880a28 22880a30 32880a38      ...(...0.."8..2
   102b0:	19000a40 14880a48 24880a50 34880a58     @...H...P..$X..4
   102c0:	19800a60 16880a68 26880a70 36880a78     `...h...p..&x..6
   102d0:	18080a80 18880a88 28880a90 38880a98     ...........(...8
   102e0:	18880aa0 1a880aa8 2a880ab0 3a880ab8     ...........*...:
   102f0:	0c880ac0 1c880ac8 2c880ad0 3c880ad8     ...........,...<
   10300:	0e880ae0 1e880ae8 2e880af0 3e880af8     ...............>
   10310:	1c000b00 10c80b08 20c80b10 30c80b18     ........... ...0
   10320:	1c800b20 12c80b28 22c80b30 32c80b38      ...(...0.."8..2
   10330:	1d000b40 14c80b48 24c80b50 34c80b58     @...H...P..$X..4
   10340:	1d800b60 16c80b68 26c80b70 36c80b78     `...h...p..&x..6
   10350:	1c080b80 18c80b88 28c80b90 38c80b98     ...........(...8
   10360:	1c880ba0 1ac80ba8 2ac80bb0 3ac80bb8     ...........*...:
   10370:	0cc80bc0 1cc80bc8 2cc80bd0 3cc80bd8     ...........,...<
   10380:	0ec80be0 1ec80be8 2ec80bf0 3ec80bf8     ...............>
   10390:	10400c00 11080c08 21080c10 31080c18     ..@........!...1
   103a0:	10c00c20 13080c28 23080c30 33080c38      ...(...0..#8..3
   103b0:	11400c40 15080c48 25080c50 35080c58     @.@.H...P..%X..5
   103c0:	11c00c60 17080c68 27080c70 37080c78     `...h...p..'x..7
   103d0:	10480c80 19080c88 29080c90 39080c98     ..H........)...9
   103e0:	10c80ca0 1b080ca8 2b080cb0 3b080cb8     ...........+...;
   103f0:	0d080cc0 1d080cc8 2d080cd0 3d080cd8     ...........-...=
   10400:	0f080ce0 1f080ce8 2f080cf0 3f080cf8     .........../...?
   10410:	14400d00 11480d08 21480d10 31480d18     ..@...H...H!..H1
   10420:	14c00d20 13480d28 23480d30 33480d38      ...(.H.0.H#8.H3
   10430:	15400d40 15480d48 25480d50 35480d58     @.@.H.H.P.H%X.H5
   10440:	15c00d60 17480d68 27480d70 37480d78     `...h.H.p.H'x.H7
   10450:	14480d80 19480d88 29480d90 39480d98     ..H...H...H)..H9
   10460:	14c80da0 1b480da8 2b480db0 3b480db8     ......H...H+..H;
   10470:	15480dc0 1d480dc8 2d480dd0 3d480dd8     ..H...H...H-..H=
   10480:	0f480de0 1f480de8 2f480df0 3f480df8     ..H...H...H/..H?
   10490:	18400e00 11880e08 21880e10 31880e18     ..@........!...1
   104a0:	18c00e20 13880e28 23880e30 33880e38      ...(...0..#8..3
   104b0:	19400e40 15880e48 25880e50 35880e58     @.@.H...P..%X..5
   104c0:	19c00e60 17880e68 27880e70 37880e78     `...h...p..'x..7
   104d0:	18480e80 19880e88 29880e90 39880e98     ..H........)...9
   104e0:	18c80ea0 1b880ea8 2b880eb0 3b880eb8     ...........+...;
   104f0:	19480ec0 1d880ec8 2d880ed0 3d880ed8     ..H........-...=
   10500:	0f880ee0 1f880ee8 2f880ef0 3f880ef8     .........../...?
   10510:	1c400f00 11c80f08 21c80f10 31c80f18     ..@........!...1
   10520:	1cc00f20 13c80f28 23c80f30 33c80f38      ...(...0..#8..3
   10530:	1d400f40 15c80f48 25c80f50 35c80f58     @.@.H...P..%X..5
   10540:	1dc00f60 17c80f68 27c80f70 37c80f78     `...h...p..'x..7
   10550:	1c480f80 19c80f88 29c80f90 39c80f98     ..H........)...9
   10560:	1cc80fa0 1bc80fa8 2bc80fb0 3bc80fb8     ...........+...;
   10570:	1d480fc0 1dc80fc8 2dc80fd0 3dc80fd8     ..H........-...=
   10580:	1dc80fe0 1fc80fe8 2fc80ff0 3fc80ff8     .........../...?
   10590:	20001000 10101008 20101010 30101018     ... ....... ...0
   105a0:	20801020 12101028 22101030 32101038      .. (...0.."8..2
   105b0:	21001040 14101048 24101050 34101058     @..!H...P..$X..4
   105c0:	21801060 16101068 26101070 36101078     `..!h...p..&x..6
   105d0:	20081080 18101088 28101090 38101098     ... .......(...8
   105e0:	208810a0 1a1010a8 2a1010b0 3a1010b8     ... .......*...:
   105f0:	210810c0 1c1010c8 2c1010d0 3c1010d8     ...!.......,...<
   10600:	218810e0 1e1010e8 2e1010f0 3e1010f8     ...!...........>
   10610:	24001100 24101108 20501110 30501118     ...$...$..P ..P0
   10620:	24801120 12501128 22501130 32501138      ..$(.P.0.P"8.P2
   10630:	25001140 14501148 24501150 34501158     @..%H.P.P.P$X.P4
   10640:	25801160 16501168 26501170 36501178     `..%h.P.p.P&x.P6
   10650:	24081180 18501188 28501190 38501198     ...$..P...P(..P8
   10660:	248811a0 1a5011a8 2a5011b0 3a5011b8     ...$..P...P*..P:
   10670:	250811c0 1c5011c8 2c5011d0 3c5011d8     ...%..P...P,..P<
   10680:	258811e0 1e5011e8 2e5011f0 3e5011f8     ...%..P...P...P>
   10690:	28001200 28101208 20901210 30901218     ...(...(... ...0
   106a0:	28801220 12901228 22901230 32901238      ..((...0.."8..2
   106b0:	29001240 14901248 24901250 34901258     @..)H...P..$X..4
   106c0:	29801260 16901268 26901270 36901278     `..)h...p..&x..6
   106d0:	28081280 18901288 28901290 38901298     ...(.......(...8
   106e0:	288812a0 1a9012a8 2a9012b0 3a9012b8     ...(.......*...:
   106f0:	290812c0 1c9012c8 2c9012d0 3c9012d8     ...).......,...<
   10700:	298812e0 1e9012e8 2e9012f0 3e9012f8     ...)...........>
   10710:	2c001300 2c101308 20d01310 30d01318     ...,...,... ...0
   10720:	2c801320 2c901328 22d01330 32d01338      ..,(..,0.."8..2
   10730:	2d001340 14d01348 24d01350 34d01358     @..-H...P..$X..4
   10740:	2d801360 16d01368 26d01370 36d01378     `..-h...p..&x..6
   10750:	2c081380 18d01388 28d01390 38d01398     ...,.......(...8
   10760:	2c8813a0 1ad013a8 2ad013b0 3ad013b8     ...,.......*...:
   10770:	2d0813c0 1cd013c8 2cd013d0 3cd013d8     ...-.......,...<
   10780:	2d8813e0 1ed013e8 2ed013f0 3ed013f8     ...-...........>
   10790:	20401400 20501408 21101410 31101418     ..@ ..P ...!...1
   107a0:	20c01420 20d01428 23101430 33101438      .. (.. 0..#8..3
   107b0:	21401440 15101448 25101450 35101458     @.@!H...P..%X..5
   107c0:	21c01460 17101468 27101470 37101478     `..!h...p..'x..7
   107d0:	20481480 19101488 29101490 39101498     ..H .......)...9
   107e0:	20c814a0 1b1014a8 2b1014b0 3b1014b8     ... .......+...;
   107f0:	214814c0 1d1014c8 2d1014d0 3d1014d8     ..H!.......-...=
   10800:	21c814e0 1f1014e8 2f1014f0 3f1014f8     ...!......./...?
   10810:	24401500 24501508 21501510 31501518     ..@$..P$..P!..P1
   10820:	24c01520 24d01528 23501530 33501538      ..$(..$0.P#8.P3
   10830:	25401540 15501548 25501550 35501558     @.@%H.P.P.P%X.P5
   10840:	25c01560 17501568 27501570 37501578     `..%h.P.p.P'x.P7
   10850:	24481580 19501588 29501590 39501598     ..H$..P...P)..P9
   10860:	24c815a0 1b5015a8 2b5015b0 3b5015b8     ...$..P...P+..P;
   10870:	254815c0 1d5015c8 2d5015d0 3d5015d8     ..H%..P...P-..P=
   10880:	25c815e0 1f5015e8 2f5015f0 3f5015f8     ...%..P...P/..P?
   10890:	28401600 28501608 21901610 31901618     ..@(..P(...!...1
   108a0:	28c01620 28d01628 23901630 33901638      ..((..(0..#8..3
   108b0:	29401640 29501648 25901650 35901658     @.@)H.P)P..%X..5
   108c0:	29c01660 17901668 27901670 37901678     `..)h...p..'x..7
   108d0:	28481680 19901688 29901690 39901698     ..H(.......)...9
   108e0:	28c816a0 1b9016a8 2b9016b0 3b9016b8     ...(.......+...;
   108f0:	294816c0 1d9016c8 2d9016d0 3d9016d8     ..H).......-...=
   10900:	29c816e0 1f9016e8 2f9016f0 3f9016f8     ...)......./...?
   10910:	2c401700 2c501708 21d01710 31d01718     ..@,..P,...!...1
   10920:	2cc01720 2cd01728 23d01730 33d01738      ..,(..,0..#8..3
   10930:	2d401740 2d501748 25d01750 35d01758     @.@-H.P-P..%X..5
   10940:	2dc01760 17d01768 27d01770 37d01778     `..-h...p..'x..7
   10950:	2c481780 19d01788 29d01790 39d01798     ..H,.......)...9
   10960:	2cc817a0 1bd017a8 2bd017b0 3bd017b8     ...,.......+...;
   10970:	2d4817c0 1dd017c8 2dd017d0 3dd017d8     ..H-.......-...=
   10980:	2dc817e0 1fd017e8 2fd017f0 3fd017f8     ...-......./...?
   10990:	30001800 30101808 20181810 30181818     ...0...0... ...0
   109a0:	30801820 30901828 22181830 32181838      ..0(..00.."8..2
   109b0:	31001840 31101848 24181850 34181858     @..1H..1P..$X..4
   109c0:	31801860 31901868 26181870 36181878     `..1h..1p..&x..6
   109d0:	30081880 30181888 28181890 38181898     ...0...0...(...8
   109e0:	308818a0 1a1818a8 2a1818b0 3a1818b8     ...0.......*...:
   109f0:	310818c0 1c1818c8 2c1818d0 3c1818d8     ...1.......,...<
   10a00:	318818e0 1e1818e8 2e1818f0 3e1818f8     ...1...........>
   10a10:	34001900 34101908 20581910 30581918     ...4...4..X ..X0
   10a20:	34801920 34901928 22581930 32581938      ..4(..40.X"8.X2
   10a30:	35001940 35101948 24581950 34581958     @..5H..5P.X$X.X4
   10a40:	35801960 35901968 26581970 36581978     `..5h..5p.X&x.X6
   10a50:	34081980 34181988 28581990 38581998     ...4...4..X(..X8
   10a60:	348819a0 1a5819a8 2a5819b0 3a5819b8     ...4..X...X*..X:
   10a70:	350819c0 1c5819c8 2c5819d0 3c5819d8     ...5..X...X,..X<
   10a80:	358819e0 1e5819e8 2e5819f0 3e5819f8     ...5..X...X...X>
   10a90:	38001a00 38101a08 20981a10 30981a18     ...8...8... ...0
   10aa0:	38801a20 38901a28 22981a30 32981a38      ..8(..80.."8..2
   10ab0:	39001a40 39101a48 24981a50 34981a58     @..9H..9P..$X..4
   10ac0:	39801a60 39901a68 26981a70 36981a78     `..9h..9p..&x..6
   10ad0:	38081a80 38181a88 28981a90 38981a98     ...8...8...(...8
   10ae0:	38881aa0 38981aa8 2a981ab0 3a981ab8     ...8...8...*...:
   10af0:	39081ac0 1c981ac8 2c981ad0 3c981ad8     ...9.......,...<
   10b00:	39881ae0 1e981ae8 2e981af0 3e981af8     ...9...........>
   10b10:	3c001b00 3c101b08 20d81b10 30d81b18     ...<...<... ...0
   10b20:	3c801b20 3c901b28 22d81b30 32d81b38      ..<(..<0.."8..2
   10b30:	3d001b40 3d101b48 24d81b50 34d81b58     @..=H..=P..$X..4
   10b40:	3d801b60 3d901b68 26d81b70 36d81b78     `..=h..=p..&x..6
   10b50:	3c081b80 3c181b88 28d81b90 38d81b98     ...<...<...(...8
   10b60:	3c881ba0 3c981ba8 2ad81bb0 3ad81bb8     ...<...<...*...:
   10b70:	3d081bc0 1cd81bc8 2cd81bd0 3cd81bd8     ...=.......,...<
   10b80:	3d881be0 1ed81be8 2ed81bf0 3ed81bf8     ...=...........>
   10b90:	30401c00 30501c08 21181c10 31181c18     ..@0..P0...!...1
   10ba0:	30c01c20 30d01c28 23181c30 33181c38      ..0(..00..#8..3
   10bb0:	31401c40 31501c48 25181c50 35181c58     @.@1H.P1P..%X..5
   10bc0:	31c01c60 31d01c68 27181c70 37181c78     `..1h..1p..'x..7
   10bd0:	30481c80 30581c88 29181c90 39181c98     ..H0..X0...)...9
   10be0:	30c81ca0 30d81ca8 2b181cb0 3b181cb8     ...0...0...+...;
   10bf0:	31481cc0 1d181cc8 2d181cd0 3d181cd8     ..H1.......-...=
   10c00:	31c81ce0 1f181ce8 2f181cf0 3f181cf8     ...1......./...?
   10c10:	34401d00 34501d08 21581d10 31581d18     ..@4..P4..X!..X1
   10c20:	34c01d20 34d01d28 23581d30 33581d38      ..4(..40.X#8.X3
   10c30:	35401d40 35501d48 25581d50 35581d58     @.@5H.P5P.X%X.X5
   10c40:	35c01d60 35d01d68 27581d70 37581d78     `..5h..5p.X'x.X7
   10c50:	34481d80 34581d88 29581d90 39581d98     ..H4..X4..X)..X9
   10c60:	34c81da0 34d81da8 2b581db0 3b581db8     ...4...4..X+..X;
   10c70:	35481dc0 35581dc8 2d581dd0 3d581dd8     ..H5..X5..X-..X=
   10c80:	35c81de0 1f581de8 2f581df0 3f581df8     ...5..X...X/..X?
   10c90:	38401e00 38501e08 21981e10 31981e18     ..@8..P8...!...1
   10ca0:	38c01e20 38d01e28 23981e30 33981e38      ..8(..80..#8..3
   10cb0:	39401e40 39501e48 25981e50 35981e58     @.@9H.P9P..%X..5
   10cc0:	39c01e60 39d01e68 27981e70 37981e78     `..9h..9p..'x..7
   10cd0:	38481e80 38581e88 29981e90 39981e98     ..H8..X8...)...9
   10ce0:	38c81ea0 38d81ea8 2b981eb0 3b981eb8     ...8...8...+...;
   10cf0:	39481ec0 39581ec8 2d981ed0 3d981ed8     ..H9..X9...-...=
   10d00:	39c81ee0 1f981ee8 2f981ef0 3f981ef8     ...9......./...?
   10d10:	3c401f00 3c501f08 21d81f10 31d81f18     ..@<..P<...!...1
   10d20:	3cc01f20 3cd01f28 23d81f30 33d81f38      ..<(..<0..#8..3
   10d30:	3d401f40 3d501f48 25d81f50 35d81f58     @.@=H.P=P..%X..5
   10d40:	3dc01f60 3dd01f68 27d81f70 37d81f78     `..=h..=p..'x..7
   10d50:	3c481f80 3c581f88 29d81f90 39d81f98     ..H<..X<...)...9
   10d60:	3cc81fa0 3cd81fa8 2bd81fb0 3bd81fb8     ...<...<...+...;
   10d70:	3d481fc0 3d581fc8 2dd81fd0 3dd81fd8     ..H=..X=...-...=
   10d80:	3dc81fe0 3dd81fe8 2fd81ff0 3fd81ff8     ...=...=.../...?
   10d90:	20802008 20202010 30202018 28802028     . . .   .  0( .(
   10da0:	22202030 32202038 21002040 20c02048     0  "8  2@ .!H . 
   10db0:	24202050 34202058 24102060 28c02068     P  $X  4` .$h .(
   10dc0:	26202070 36202078 30802088 28202090     p  &x  6. .0.  (
   10dd0:	38202098 300820a0 388020a8 2a2020b0     .  8. .0. .8.  *
   10de0:	3a2020b8 210820c0 30c020c8 2c2020d0     .  :. .!. .0.  ,
   10df0:	3c2020d8 310820e0 38c020e8 2e2020f0     .  <. .1. .8.  .
   10e00:	3e2020f8 24002100 21802108 24102110     .  >.!.$.!.!.!.$
   10e10:	30602118 24202120 29802128 22602130     .!`0 ! $(!.)0!`"
   10e20:	32602138 25002140 21c02148 24602150     8!`2@!.%H!.!P!`$
   10e30:	34602158 24502160 29c02168 26602170     X!`4`!P$h!.)p!`&
   10e40:	36602178 24082180 31802188 28602190     x!`6.!.$.!.1.!`(
   10e50:	38602198 340821a0 398021a8 2a6021b0     .!`8.!.4.!.9.!`*
   10e60:	3a6021b8 250821c0 31c021c8 2c6021d0     .!`:.!.%.!.1.!`,
   10e70:	3c6021d8 350821e0 39c021e8 2e6021f0     .!`<.!.5.!.9.!`.
   10e80:	3e6021f8 30002200 30802208 30082210     .!`>.".0.".0.".0
   10e90:	30a02218 30102220 28882228 22a02230     .".0 ".0(".(0"."
   10ea0:	32a02238 30402240 30c02248 24a02250     8".2@"@0H".0P".$
   10eb0:	34a02258 30502260 28c82268 26a02270     X".4`"P0h".(p".&
   10ec0:	36a02278 30202280 30882288 28a02290     x".6." 0.".0.".(
   10ed0:	38a02298 301822a0 388822a8 2aa022b0     .".8.".0.".8.".*
   10ee0:	3aa022b8 306022c0 30c822c8 2ca022d0     .".:."`0.".0.".,
   10ef0:	3ca022d8 311822e0 38c822e8 2ea022f0     .".<.".1.".8."..
   10f00:	3ea022f8 31002300 31802308 31082310     .".>.#.1.#.1.#.1
   10f10:	30e02318 31102320 29882328 31182330     .#.0 #.1(#.)0#.1
   10f20:	32e02338 31402340 31c02348 24e02350     8#.2@#@1H#.1P#.$
   10f30:	34e02358 31502360 29c82368 26e02370     X#.4`#P1h#.)p#.&
   10f40:	36e02378 24182380 31882388 28e02390     x#.6.#.$.#.1.#.(
   10f50:	38e02398 341823a0 398823a8 2ae023b0     .#.8.#.4.#.9.#.*
   10f60:	3ae023b8 251823c0 31c823c8 2ce023d0     .#.:.#.%.#.1.#.,
   10f70:	3ce023d8 351823e0 39c823e8 2ee023f0     .#.<.#.5.#.9.#..
   10f80:	3ee023f8 24802408 24202410 31202418     .#.>.$.$.$ $.$ 1
   10f90:	2c802428 31102430 33202438 25002440     ($.,0$.18$ 3@$.%
   10fa0:	24c02448 25202450 35202458 25102460     H$.$P$ %X$ 5`$.%
   10fb0:	2cc02468 27202470 37202478 34802488     h$.,p$ 'x$ 7.$.4
   10fc0:	29202490 39202498 304824a0 3c8024a8     .$ ).$ 9.$H0.$.<
   10fd0:	2b2024b0 3b2024b8 250824c0 34c024c8     .$ +.$ ;.$.%.$.4
   10fe0:	2d2024d0 3d2024d8 314824e0 3cc024e8     .$ -.$ =.$H1.$.<
   10ff0:	2f2024f0 3f2024f8 25802508 25202510     .$ /.$ ?.%.%.% %
   11000:	31602518 2d802528 31502530 33602538     .%`1(%.-0%P18%`3
   11010:	25c02548 25602550 35602558 2dc02568     H%.%P%`%X%`5h%.-
   11020:	27602570 37602578 35802588 29602590     p%`'x%`7.%.5.%`)
   11030:	39602598 344825a0 3d8025a8 2b6025b0     .%`9.%H4.%.=.%`+
   11040:	3b6025b8 35c025c8 2d6025d0 3d6025d8     .%`;.%.5.%`-.%`=
   11050:	354825e0 3dc025e8 2f6025f0 3f6025f8     .%H5.%.=.%`/.%`?
   11060:	34002600 34802608 34082610 31a02618     .&.4.&.4.&.4.&.1
   11070:	34102620 2c882628 34182630 33a02638      &.4(&.,0&.48&.3
   11080:	34402640 34c02648 34482650 35a02658     @&@4H&.4P&H4X&.5
   11090:	34502660 2cc82668 27a02670 37a02678     `&P4h&.,p&.'x&.7
   110a0:	34202680 34882688 29a02690 39a02698     .& 4.&.4.&.).&.9
   110b0:	305826a0 3c8826a8 2ba026b0 3ba026b8     .&X0.&.<.&.+.&.;
   110c0:	346026c0 34c826c8 2da026d0 3da026d8     .&`4.&.4.&.-.&.=
   110d0:	315826e0 3cc826e8 2fa026f0 3fa026f8     .&X1.&.<.&./.&.?
   110e0:	35002700 35802708 35082710 31e02718     .'.5.'.5.'.5.'.1
   110f0:	35102720 2d882728 35182730 33e02738      '.5('.-0'.58'.3
   11100:	35402740 35c02748 35482750 35e02758     @'@5H'.5P'H5X'.5
   11110:	35502760 2dc82768 27e02770 37e02778     `'P5h'.-p'.'x'.7
   11120:	35202780 35882788 29e02790 39e02798     .' 5.'.5.'.).'.9
   11130:	345827a0 3d8827a8 2be027b0 3be027b8     .'X4.'.=.'.+.'.;
   11140:	356027c0 35c827c8 2de027d0 3de027d8     .'`5.'.5.'.-.'.=
   11150:	355827e0 3dc827e8 2fe027f0 3fe027f8     .'X5.'.=.'./.'.?
   11160:	28202808 28802810 30282818 28902828     .( (.(.(.((0((.(
   11170:	28882830 32282838 2c002840 2c202848     0(.(8((2@(.,H( ,
   11180:	2c802850 34282858 2c082860 28d02868     P(.,X((4`(.,h(.(
   11190:	2c882870 36282878 30902888 38282898     p(.,x((6.(.0.((8
   111a0:	302828a0 389028a8 2a2828b0 3a2828b8     .((0.(.8.((*.((:
   111b0:	2c1028c0 30d028c8 2c2828d0 3c2828d8     .(.,.(.0.((,.((<
   111c0:	2c1828e0 38d028e8 2e2828f0 3e2828f8     .(.,.(.8.((..((>
   111d0:	2c002900 2c082908 2c102910 30682918     .).,.).,.).,.)h0
   111e0:	2c202920 29902928 30d02930 32682938      ) ,().)0).08)h2
   111f0:	2c402940 2c602948 2cc02950 34682958     @)@,H)`,P).,X)h4
   11200:	2c482960 29d02968 2cc82970 36682978     `)H,h).)p).,x)h6
   11210:	2c802980 31902988 2c282990 38682998     .).,.).1.)(,.)h8
   11220:	342829a0 399029a8 2a6829b0 3a6829b8     .)(4.).9.)h*.)h:
   11230:	2c5029c0 31d029c8 2c6829d0 3c6829d8     .)P,.).1.)h,.)h<
   11240:	2c5829e0 39d029e8 2e6829f0 3e6829f8     .)X,.).9.)h..)h>
   11250:	38002a00 38202a08 38802a10 30a82a18     .*.8.* 8.*.8.*.0
   11260:	38082a20 38282a28 38882a30 32a82a38      *.8(*(80*.88*.2
   11270:	3c002a40 3c202a48 3c802a50 34a82a58     @*.<H* <P*.<X*.4
   11280:	3c082a60 3c282a68 3c882a70 36a82a78     `*.<h*(<p*.<x*.6
   11290:	38102a80 30982a88 38902a90 38a82a98     .*.8.*.0.*.8.*.8
   112a0:	38182aa0 38982aa8 38982ab0 3aa82ab8     .*.8.*.8.*.8.*.:
   112b0:	3c102ac0 30d82ac8 2ca82ad0 3ca82ad8     .*.<.*.0.*.,.*.<
   112c0:	3c182ae0 38d82ae8 2ea82af0 3ea82af8     .*.<.*.8.*...*.>
   112d0:	38402b00 38602b08 38c02b10 30e82b18     .+@8.+`8.+.8.+.0
   112e0:	38482b20 38682b28 38c82b30 32e82b38      +H8(+h80+.88+.2
   112f0:	3c402b40 3c602b48 3cc02b50 34e82b58     @+@<H+`<P+.<X+.4
   11300:	3c482b60 3c682b68 3cc82b70 36e82b78     `+H<h+h<p+.<x+.6
   11310:	38502b80 31982b88 38d02b90 38e82b98     .+P8.+.1.+.8.+.8
   11320:	38582ba0 39982ba8 38d82bb0 3ae82bb8     .+X8.+.9.+.8.+.:
   11330:	3c502bc0 31d82bc8 2ce82bd0 3ce82bd8     .+P<.+.1.+.,.+.<
   11340:	3c582be0 39d82be8 2ee82bf0 3ee82bf8     .+X<.+.9.+...+.>
   11350:	2c202c08 2c802c10 31282c18 2c902c28     ., ,.,.,.,(1(,.,
   11360:	31902c30 33282c38 2d002c40 2d202c48     0,.18,(3@,.-H, -
   11370:	2d802c50 35282c58 2d082c60 2cd02c68     P,.-X,(5`,.-h,.,
   11380:	2d882c70 37282c78 34902c88 39282c98     p,.-x,(7.,.4.,(9
   11390:	30682ca0 3c902ca8 38682cb0 3b282cb8     .,h0.,.<.,h8.,(;
   113a0:	2d102cc0 34d02cc8 2d282cd0 3d282cd8     .,.-.,.4.,(-.,(=
   113b0:	2d182ce0 3cd02ce8 2f282cf0 3f282cf8     .,.-.,.<.,(/.,(?
   113c0:	2d202d08 2d802d10 31682d18 2d902d28     .- -.-.-.-h1(-.-
   113d0:	31d02d30 33682d38 2d602d48 2dc02d50     0-.18-h3H-`-P-.-
   113e0:	35682d58 2dd02d68 2dc82d70 37682d78     X-h5h-.-p-.-x-h7
   113f0:	35902d88 39682d98 34682da0 3d902da8     .-.5.-h9.-h4.-.=
   11400:	3c682db0 3b682db8 35d02dc8 3d682dd8     .-h<.-h;.-.5.-h=
   11410:	35682de0 3dd02de8 2f682df0 3f682df8     .-h5.-.=.-h/.-h?
   11420:	39002e00 39202e08 39802e10 31a82e18     ...9.. 9...9...1
   11430:	39082e20 39282e28 39882e30 33a82e38      ..9(.(90..98..3
   11440:	3d002e40 3d202e48 3d802e50 35a82e58     @..=H. =P..=X..5
   11450:	3d082e60 3d282e68 3d882e70 37a82e78     `..=h.(=p..=x..7
   11460:	39102e80 34982e88 39902e90 39a82e98     ...9...4...9...9
   11470:	39182ea0 3c982ea8 39982eb0 3ba82eb8     ...9...<...9...;
   11480:	3d102ec0 34d82ec8 3d902ed0 3da82ed8     ...=...4...=...=
   11490:	3d182ee0 3cd82ee8 2fa82ef0 3fa82ef8     ...=...<.../...?
   114a0:	39402f00 39602f08 39c02f10 31e82f18     ./@9./`9./.9./.1
   114b0:	39482f20 39682f28 39c82f30 33e82f38      /H9(/h90/.98/.3
   114c0:	3d402f40 3d602f48 3dc02f50 35e82f58     @/@=H/`=P/.=X/.5
   114d0:	3d482f60 3d682f68 3dc82f70 37e82f78     `/H=h/h=p/.=x/.7
   114e0:	39502f80 35982f88 39d02f90 39e82f98     ./P9./.5./.9./.9
   114f0:	39582fa0 3d982fa8 39d82fb0 3be82fb8     ./X9./.=./.9./.;
   11500:	3d502fc0 35d82fc8 3dd02fd0 3de82fd8     ./P=./.5./.=./.=
   11510:	3d582fe0 3dd82fe8 3dd82ff0 3fe82ff8     ./X=./.=./.=./.?
   11520:	30303018 32303038 31003040 31083048     .0008002@0.1H0.1
   11530:	31103050 34303058 31203060 31283068     P0.1X004`0 1h0(1
   11540:	34183070 36303078 30a03088 38303098     p0.4x006.0.0.008
   11550:	38a030a8 388830b0 3a3030b8 318030c0     .0.8.0.8.00:.0.1
   11560:	30e030c8 319030d0 3c3030d8 318830e0     .0.0.0.1.00<.0.1
   11570:	38e030e8 398830f0 3e3030f8 34003100     .0.8.0.9.00>.1.4
   11580:	34083108 34103110 34183118 34203120     .1.4.1.4.1.4 1 4
   11590:	34283128 34303130 32703138 35003140     (1(4010481p2@1.5
   115a0:	35083148 35103150 34703158 35203160     H1.5P1.5X1p4`1 5
   115b0:	35283168 34583170 36703178 34803180     h1(5p1X4x1p6.1.4
   115c0:	31a03188 34903190 38703198 348831a0     .1.1.1.4.1p8.1.4
   115d0:	39a031a8 3c8831b0 3a7031b8 358031c0     .1.9.1.<.1p:.1.5
   115e0:	31e031c8 359031d0 3c7031d8 358831e0     .1.1.1.5.1p<.1.5
   115f0:	39e031e8 3d8831f0 3e7031f8 38003200     .1.9.1.=.1p>.2.8
   11600:	38803208 38083210 38883218 38103220     .2.8.2.8.2.8 2.8
   11610:	38903228 38183230 32b03238 38403240     (2.802.882.2@2@8
   11620:	38c03248 38483250 34b03258 38503260     H2.8P2H8X2.4`2P8
   11630:	38d03268 38583270 36b03278 38203280     h2.8p2X8x2.6.2 8
   11640:	38a03288 38283290 38b03298 383032a0     .2.8.2(8.2.8.208
   11650:	38a832a8 389832b0 3ab032b8 386032c0     .2.8.2.8.2.:.2`8
   11660:	38e032c8 386832d0 3cb032d8 387032e0     .2.8.2h8.2.<.2p8
   11670:	38e832e8 399832f0 3eb032f8 39003300     .2.8.2.9.2.>.3.9
   11680:	39803308 39083310 39883318 39103320     .3.9.3.9.3.9 3.9
   11690:	39903328 39183330 39983338 39403340     (3.903.983.9@3@9
   116a0:	39c03348 39483350 34f03358 39503360     H3.9P3H9X3.4`3P9
   116b0:	39d03368 39583370 36f03378 39203380     h3.9p3X9x3.6.3 9
   116c0:	39a03388 39283390 38f03398 349833a0     .3.9.3(9.3.8.3.4
   116d0:	39a833a8 3c9833b0 3af033b8 396033c0     .3.9.3.<.3.:.3`9
   116e0:	39e033c8 396833d0 3cf033d8 359833e0     .3.9.3h9.3.<.3.5
   116f0:	39e833e8 3d9833f0 3ef033f8 34303418     .3.9.3.=.3.>.404
   11700:	39183438 35003440 35083448 35103450     84.9@4.5H4.5P4.5
   11710:	35303458 35203460 35283468 35183470     X405`4 5h4(5p4.5
   11720:	37303478 34a03488 39303498 3ca034a8     x407.4.4.409.4.<
   11730:	38c834b0 3b3034b8 358034c0 34e034c8     .4.8.40;.4.5.4.4
   11740:	359034d0 3d3034d8 358834e0 3ce034e8     .4.5.40=.4.5.4.<
   11750:	39c834f0 3f3034f8 35303518 39583538     .4.9.40?.50585X9
   11760:	35703558 37703578 35a03588 39703598     X5p5x5p7.5.5.5p9
   11770:	3da035a8 3cc835b0 3b7035b8 35e035c8     .5.=.5.<.5p;.5.5
   11780:	3d7035d8 3de035e8 3dc835f0 3f7035f8     .5p=.5.=.5.=.5p?
   11790:	3c003600 3c803608 3c083610 3c883618     .6.<.6.<.6.<.6.<
   117a0:	3c103620 3c903628 3c183630 3c983638      6.<(6.<06.<86.<
   117b0:	3c403640 3cc03648 3c483650 3cc83658     @6@<H6.<P6H<X6.<
   117c0:	3c503660 3cd03668 3c583670 37b03678     `6P<h6.<p6X<x6.7
   117d0:	3c203680 3ca03688 3c283690 39b03698     .6 <.6.<.6(<.6.9
   117e0:	3c3036a0 3ca836a8 38d836b0 3bb036b8     .60<.6.<.6.8.6.;
   117f0:	3c6036c0 3ce036c8 3c6836d0 3db036d8     .6`<.6.<.6h<.6.=
   11800:	3c7036e0 3ce836e8 39d836f0 3fb036f8     .6p<.6.<.6.9.6.?
   11810:	3d003700 3d803708 3d083710 3d883718     .7.=.7.=.7.=.7.=
   11820:	3d103720 3d903728 3d183730 3d983738      7.=(7.=07.=87.=
   11830:	3d403740 3dc03748 3d483750 3dc83758     @7@=H7.=P7H=X7.=
   11840:	3d503760 3dd03768 3d583770 37f03778     `7P=h7.=p7X=x7.7
   11850:	3d203780 3da03788 3d283790 39f03798     .7 =.7.=.7(=.7.9
   11860:	3d3037a0 3da837a8 3cd837b0 3bf037b8     .70=.7.=.7.<.7.;
   11870:	3d6037c0 3de037c8 3d6837d0 3df037d8     .7`=.7.=.7h=.7.=
   11880:	3d7037e0 3de837e8 3dd837f0 3ff037f8     .7p=.7.=.7.=.7.?
   11890:	38983838 39003840 39083848 39103850     88.8@8.9H8.9P8.9
   118a0:	39183858 39203860 39283868 39303870     X8.9`8 9h8(9p809
   118b0:	3c983878 38b038a8 3a3838b8 398038c0     x8.<.8.8.88:.8.9
   118c0:	398838c8 399038d0 3c3838d8 39a038e0     .8.9.8.9.88<.8.9
   118d0:	38f038e8 3e3838f8 39a838f0 3c003900     .8.8.88>.8.9.9.<
   118e0:	3c083908 3c103910 3c183918 3c203920     .9.<.9.<.9.< 9 <
   118f0:	3c283928 3c303930 3c383938 3d003940     (9(<090<898<@9.=
   11900:	3d083948 3d103950 3d183958 3d203960     H9.=P9.=X9.=`9 =
   11910:	3d283968 3d303970 3cd83978 3c803980     h9(=p90=x9.<.9.<
   11920:	3c883988 3c903990 3c983998 3ca039a0     .9.<.9.<.9.<.9.<
   11930:	39b039a8 3a7839b8 3ca839b0 3d8039c0     .9.9.9x:.9.<.9.=
   11940:	3d8839c8 3d9039d0 3c7839d8 3da039e0     .9.=.9.=.9x<.9.=
   11950:	39f039e8 3e7839f8 3da839f0 3a103a08     .9.9.9x>.9.=.:.:
   11960:	3a203a10 3a303a18 3a803a20 3a903a28     .: :.:0: :.:(:.:
   11970:	3aa03a30 3ab03a38 3b003a40 3b103a48     0:.:8:.:@:.;H:.;
   11980:	3b203a50 3b303a58 3b803a60 3b903a68     P: ;X:0;`:.;h:.;
   11990:	3ba03a70 3bb03a78 3aa03a88 3ab03a98     p:.;x:.;.:.:.:.:
   119a0:	3ab03aa8 3b083ac0 3b183ac8 3b283ad0     .:.:.:.;.:.;.:(;
   119b0:	3cb83ad8 3b883ae0 3b983ae8 3ba83af0     .:.<.:.;.:.;.:.;
   119c0:	3eb83af8 3e003b00 3e103b08 3e203b10     .:.>.;.>.;.>.; >
   119d0:	3e303b18 3e803b20 3e903b28 3ea03b30     .;0> ;.>(;.>0;.>
   119e0:	3eb03b38 3f003b40 3f103b48 3f203b50     8;.>@;.?H;.?P; ?
   119f0:	3f303b58 3f803b60 3f903b68 3fa03b70     X;0?`;.?h;.?p;.?
   11a00:	3fb03b78 3e083b80 3e183b88 3e283b90     x;.?.;.>.;.>.;(>
   11a10:	3e383b98 3e883ba0 3e983ba8 3ea83bb0     .;8>.;.>.;.>.;.>
   11a20:	3eb83bb8 3f083bc0 3f183bc8 3f283bd0     .;.>.;.?.;.?.;(?
   11a30:	3cf83bd8 3f883be0 3f983be8 3fa83bf0     .;.<.;.?.;.?.;.?
   11a40:	3ef83bf8 3c983c38 3d003c40 3d083c48     .;.>8<.<@<.=H<.=
   11a50:	3d103c50 3d183c58 3d203c60 3d283c68     P<.=X<.=`< =h<(=
   11a60:	3d303c70 3d983c78 3cb03ca8 3eb03cb8     p<0=x<.=.<.<.<.>
   11a70:	3d803cc0 3d883cc8 3d903cd0 3d383cd8     .<.=.<.=.<.=.<8=
   11a80:	3da03ce0 3cf03ce8 3da83cf0 3f383cf8     .<.=.<.<.<.=.<8?
   11a90:	3d983d38 3dd83d78 3db03da8 3fb03db8     8=.=x=.=.=.=.=.?
   11aa0:	3df03de8 3e803e08 3f783df8 3e803e10     .=.=.>.>.=x?.>.>
   11ab0:	3e883e18 3e803e20 3e903e28 3e883e30     .>.> >.>(>.>0>.>
   11ac0:	3e983e38 3f003e40 3f203e48 3f803e50     8>.>@>.?H> ?P>.?
   11ad0:	3fa03e58 3f083e60 3f283e68 3f883e70     X>.?`>.?h>(?p>.?
   11ae0:	3fa83e78 3ea03e88 3ea83e98 3f103ec0     x>.?.>.>.>.>.>.?
   11af0:	3eb03ea8 3f303ec8 3f903ed0 3fb03ed8     .>.>.>0?.>.?.>.?
   11b00:	3f183ee0 3f383ee8 3f983ef0 3f803f08     .>.?.>8?.>.?.?.?
   11b10:	3fb83ef8 3f803f10 3f883f18 3f803f20     .>.?.?.?.?.? ?.?
   11b20:	3f903f28 3f883f30 3f983f38 3f503f48     (?.?0?.?8?.?H?P?
   11b30:	3f603f50 3f703f58 3fc03f60 3fd03f68     P?`?X?p?`?.?h?.?
   11b40:	3fe03f70 3ff03f78 3fa03f88 3fa83f98     p?.?x?.?.?.?.?.?
   11b50:	3fb03fa8 3ff03fd8 3fe03fc8 3ff03fe8     .?.?.?.?.?.?.?.?

00011b60 <twiddleCoef_64>:
   11b60:	3f800000 00000000 3f7ec46d 3dc8bd36     ...?....m.~?6..=
   11b70:	3f7b14be 3e47c5c2 3f74fa0b 3e94a031     ..{?..G>..t?1..>
   11b80:	3f6c835e 3ec3ef15 3f61c598 3ef15aea     ^.l?...>..a?.Z.>
   11b90:	3f54db31 3f0e39da 3f45e403 3f226799     1.T?.9.?..E?.g"?
   11ba0:	3f3504f3 3f3504f3 3f226799 3f45e403     ..5?..5?.g"?..E?
   11bb0:	3f0e39da 3f54db31 3ef15aea 3f61c598     .9.?1.T?.Z.>..a?
   11bc0:	3ec3ef15 3f6c835e 3e94a031 3f74fa0b     ...>^.l?1..>..t?
   11bd0:	3e47c5c2 3f7b14be 3dc8bd36 3f7ec46d     ..G>..{?6..=m.~?
   11be0:	00000000 3f800000 bdc8bd36 3f7ec46d     .......?6...m.~?
   11bf0:	be47c5c2 3f7b14be be94a031 3f74fa0b     ..G...{?1.....t?
   11c00:	bec3ef15 3f6c835e bef15aea 3f61c598     ....^.l?.Z....a?
   11c10:	bf0e39da 3f54db31 bf226799 3f45e403     .9..1.T?.g"...E?
   11c20:	bf3504f3 3f3504f3 bf45e403 3f226799     ..5...5?..E..g"?
   11c30:	bf54db31 3f0e39da bf61c598 3ef15aea     1.T..9.?..a..Z.>
   11c40:	bf6c835e 3ec3ef15 bf74fa0b 3e94a031     ^.l....>..t.1..>
   11c50:	bf7b14be 3e47c5c2 bf7ec46d 3dc8bd36     ..{...G>m.~.6..=
   11c60:	bf800000 00000000 bf7ec46d bdc8bd36     ........m.~.6...
   11c70:	bf7b14be be47c5c2 bf74fa0b be94a031     ..{...G...t.1...
   11c80:	bf6c835e bec3ef15 bf61c598 bef15aea     ^.l.......a..Z..
   11c90:	bf54db31 bf0e39da bf45e403 bf226799     1.T..9....E..g".
   11ca0:	bf3504f3 bf3504f3 bf226799 bf45e403     ..5...5..g"...E.
   11cb0:	bf0e39da bf54db31 bef15aea bf61c598     .9..1.T..Z....a.
   11cc0:	bec3ef15 bf6c835e be94a031 bf74fa0b     ....^.l.1.....t.
   11cd0:	be47c5c2 bf7b14be bdc8bd36 bf7ec46d     ..G...{.6...m.~.
   11ce0:	80000000 bf800000 3dc8bd36 bf7ec46d     ........6..=m.~.
   11cf0:	3e47c5c2 bf7b14be 3e94a031 bf74fa0b     ..G>..{.1..>..t.
   11d00:	3ec3ef15 bf6c835e 3ef15aea bf61c598     ...>^.l..Z.>..a.
   11d10:	3f0e39da bf54db31 3f226799 bf45e403     .9.?1.T..g"?..E.
   11d20:	3f3504f3 bf3504f3 3f45e403 bf226799     ..5?..5...E?.g".
   11d30:	3f54db31 bf0e39da 3f61c598 bef15aea     1.T?.9....a?.Z..
   11d40:	3f6c835e bec3ef15 3f74fa0b be94a031     ^.l?......t?1...
   11d50:	3f7b14be be47c5c2 3f7ec46d bdc8bd36     ..{?..G.m.~?6...

00011d60 <armBitRevIndexTable4096>:
   11d60:	10000008 20000010 30000018 40000020     ....... ...0 ..@
   11d70:	50000028 60000030 70000038 02000040     (..P0..`8..p@...
   11d80:	12000048 22000050 32000058 42000060     H...P.."X..2`..B
   11d90:	52000068 62000070 72000078 04000080     h..Rp..bx..r....
   11da0:	14000088 24000090 34000098 440000a0     .......$...4...D
   11db0:	540000a8 640000b0 740000b8 060000c0     ...T...d...t....
   11dc0:	160000c8 260000d0 360000d8 460000e0     .......&...6...F
   11dd0:	560000e8 660000f0 760000f8 08000100     ...V...f...v....
   11de0:	18000108 28000110 38000118 48000120     .......(...8 ..H
   11df0:	58000128 68000130 78000138 0a000140     (..X0..h8..x@...
   11e00:	1a000148 2a000150 3a000158 4a000160     H...P..*X..:`..J
   11e10:	5a000168 6a000170 7a000178 0c000180     h..Zp..jx..z....
   11e20:	1c000188 2c000190 3c000198 4c0001a0     .......,...<...L
   11e30:	5c0001a8 6c0001b0 7c0001b8 0e0001c0     ...\...l...|....
   11e40:	1e0001c8 2e0001d0 3e0001d8 4e0001e0     ...........>...N
   11e50:	5e0001e8 6e0001f0 7e0001f8 10400208     ...^...n...~..@.
   11e60:	20400210 30400218 40400220 50400228     ..@ ..@0 .@@(.@P
   11e70:	60400230 70400238 12400248 22400250     0.@`8.@pH.@.P.@"
   11e80:	32400258 42400260 52400268 62400270     X.@2`.@Bh.@Rp.@b
   11e90:	72400278 04400280 14400288 24400290     x.@r..@...@...@$
   11ea0:	34400298 444002a0 544002a8 644002b0     ..@4..@D..@T..@d
   11eb0:	744002b8 064002c0 164002c8 264002d0     ..@t..@...@...@&
   11ec0:	364002d8 464002e0 564002e8 664002f0     ..@6..@F..@V..@f
   11ed0:	764002f8 08400300 18400308 28400310     ..@v..@...@...@(
   11ee0:	38400318 48400320 58400328 68400330     ..@8 .@H(.@X0.@h
   11ef0:	78400338 0a400340 1a400348 2a400350     8.@x@.@.H.@.P.@*
   11f00:	3a400358 4a400360 5a400368 6a400370     X.@:`.@Jh.@Zp.@j
   11f10:	7a400378 0c400380 1c400388 2c400390     x.@z..@...@...@,
   11f20:	3c400398 4c4003a0 5c4003a8 6c4003b0     ..@<..@L..@\..@l
   11f30:	7c4003b8 0e4003c0 1e4003c8 2e4003d0     ..@|..@...@...@.
   11f40:	3e4003d8 4e4003e0 5e4003e8 6e4003f0     ..@>..@N..@^..@n
   11f50:	7e4003f8 10800408 20800410 30800418     ..@~....... ...0
   11f60:	40800420 50800428 60800430 70800438      ..@(..P0..`8..p
   11f70:	12800448 22800450 32800458 42800460     H...P.."X..2`..B
   11f80:	52800468 62800470 72800478 14800488     h..Rp..bx..r....
   11f90:	24800490 34800498 448004a0 548004a8     ...$...4...D...T
   11fa0:	648004b0 748004b8 068004c0 168004c8     ...d...t........
   11fb0:	268004d0 368004d8 468004e0 568004e8     ...&...6...F...V
   11fc0:	668004f0 768004f8 08800500 18800508     ...f...v........
   11fd0:	28800510 38800518 48800520 58800528     ...(...8 ..H(..X
   11fe0:	68800530 78800538 0a800540 1a800548     0..h8..x@...H...
   11ff0:	2a800550 3a800558 4a800560 5a800568     P..*X..:`..Jh..Z
   12000:	6a800570 7a800578 0c800580 1c800588     p..jx..z........
   12010:	2c800590 3c800598 4c8005a0 5c8005a8     ...,...<...L...\
   12020:	6c8005b0 7c8005b8 0e8005c0 1e8005c8     ...l...|........
   12030:	2e8005d0 3e8005d8 4e8005e0 5e8005e8     .......>...N...^
   12040:	6e8005f0 7e8005f8 10c00608 20c00610     ...n...~....... 
   12050:	30c00618 40c00620 50c00628 60c00630     ...0 ..@(..P0..`
   12060:	70c00638 12c00648 22c00650 32c00658     8..pH...P.."X..2
   12070:	42c00660 52c00668 62c00670 72c00678     `..Bh..Rp..bx..r
   12080:	14c00688 24c00690 34c00698 44c006a0     .......$...4...D
   12090:	54c006a8 64c006b0 74c006b8 16c006c8     ...T...d...t....
   120a0:	26c006d0 36c006d8 46c006e0 56c006e8     ...&...6...F...V
   120b0:	66c006f0 76c006f8 08c00700 18c00708     ...f...v........
   120c0:	28c00710 38c00718 48c00720 58c00728     ...(...8 ..H(..X
   120d0:	68c00730 78c00738 0ac00740 1ac00748     0..h8..x@...H...
   120e0:	2ac00750 3ac00758 4ac00760 5ac00768     P..*X..:`..Jh..Z
   120f0:	6ac00770 7ac00778 0cc00780 1cc00788     p..jx..z........
   12100:	2cc00790 3cc00798 4cc007a0 5cc007a8     ...,...<...L...\
   12110:	6cc007b0 7cc007b8 0ec007c0 1ec007c8     ...l...|........
   12120:	2ec007d0 3ec007d8 4ec007e0 5ec007e8     .......>...N...^
   12130:	6ec007f0 7ec007f8 11000808 21000810     ...n...~.......!
   12140:	31000818 41000820 51000828 61000830     ...1 ..A(..Q0..a
   12150:	71000838 13000848 23000850 33000858     8..qH...P..#X..3
   12160:	43000860 53000868 63000870 73000878     `..Ch..Sp..cx..s
   12170:	15000888 25000890 35000898 450008a0     .......%...5...E
   12180:	550008a8 650008b0 750008b8 170008c8     ...U...e...u....
   12190:	270008d0 370008d8 470008e0 570008e8     ...'...7...G...W
   121a0:	670008f0 770008f8 19000908 29000910     ...g...w.......)
   121b0:	39000918 49000920 59000928 69000930     ...9 ..I(..Y0..i
   121c0:	79000938 0b000940 1b000948 2b000950     8..y@...H...P..+
   121d0:	3b000958 4b000960 5b000968 6b000970     X..;`..Kh..[p..k
   121e0:	7b000978 0d000980 1d000988 2d000990     x..{...........-
   121f0:	3d000998 4d0009a0 5d0009a8 6d0009b0     ...=...M...]...m
   12200:	7d0009b8 0f0009c0 1f0009c8 2f0009d0     ...}.........../
   12210:	3f0009d8 4f0009e0 5f0009e8 6f0009f0     ...?...O..._...o
   12220:	7f0009f8 11400a08 21400a10 31400a18     ......@...@!..@1
   12230:	41400a20 51400a28 61400a30 71400a38      .@A(.@Q0.@a8.@q
   12240:	13400a48 23400a50 33400a58 43400a60     H.@.P.@#X.@3`.@C
   12250:	53400a68 63400a70 73400a78 15400a88     h.@Sp.@cx.@s..@.
   12260:	25400a90 35400a98 45400aa0 55400aa8     ..@%..@5..@E..@U
   12270:	65400ab0 75400ab8 17400ac8 27400ad0     ..@e..@u..@...@'
   12280:	37400ad8 47400ae0 57400ae8 67400af0     ..@7..@G..@W..@g
   12290:	77400af8 19400b08 29400b10 39400b18     ..@w..@...@)..@9
   122a0:	49400b20 59400b28 69400b30 79400b38      .@I(.@Y0.@i8.@y
   122b0:	1b400b48 2b400b50 3b400b58 4b400b60     H.@.P.@+X.@;`.@K
   122c0:	5b400b68 6b400b70 7b400b78 0d400b80     h.@[p.@kx.@{..@.
   122d0:	1d400b88 2d400b90 3d400b98 4d400ba0     ..@...@-..@=..@M
   122e0:	5d400ba8 6d400bb0 7d400bb8 0f400bc0     ..@]..@m..@}..@.
   122f0:	1f400bc8 2f400bd0 3f400bd8 4f400be0     ..@...@/..@?..@O
   12300:	5f400be8 6f400bf0 7f400bf8 11800c08     ..@_..@o..@.....
   12310:	21800c10 31800c18 41800c20 51800c28     ...!...1 ..A(..Q
   12320:	61800c30 71800c38 13800c48 23800c50     0..a8..qH...P..#
   12330:	33800c58 43800c60 53800c68 63800c70     X..3`..Ch..Sp..c
   12340:	73800c78 15800c88 25800c90 35800c98     x..s.......%...5
   12350:	45800ca0 55800ca8 65800cb0 75800cb8     ...E...U...e...u
   12360:	17800cc8 27800cd0 37800cd8 47800ce0     .......'...7...G
   12370:	57800ce8 67800cf0 77800cf8 19800d08     ...W...g...w....
   12380:	29800d10 39800d18 49800d20 59800d28     ...)...9 ..I(..Y
   12390:	69800d30 79800d38 1b800d48 2b800d50     0..i8..yH...P..+
   123a0:	3b800d58 4b800d60 5b800d68 6b800d70     X..;`..Kh..[p..k
   123b0:	7b800d78 1d800d88 2d800d90 3d800d98     x..{.......-...=
   123c0:	4d800da0 5d800da8 6d800db0 7d800db8     ...M...]...m...}
   123d0:	0f800dc0 1f800dc8 2f800dd0 3f800dd8     .........../...?
   123e0:	4f800de0 5f800de8 6f800df0 7f800df8     ...O..._...o....
   123f0:	11c00e08 21c00e10 31c00e18 41c00e20     .......!...1 ..A
   12400:	51c00e28 61c00e30 71c00e38 13c00e48     (..Q0..a8..qH...
   12410:	23c00e50 33c00e58 43c00e60 53c00e68     P..#X..3`..Ch..S
   12420:	63c00e70 73c00e78 15c00e88 25c00e90     p..cx..s.......%
   12430:	35c00e98 45c00ea0 55c00ea8 65c00eb0     ...5...E...U...e
   12440:	75c00eb8 17c00ec8 27c00ed0 37c00ed8     ...u.......'...7
   12450:	47c00ee0 57c00ee8 67c00ef0 77c00ef8     ...G...W...g...w
   12460:	19c00f08 29c00f10 39c00f18 49c00f20     .......)...9 ..I
   12470:	59c00f28 69c00f30 79c00f38 1bc00f48     (..Y0..i8..yH...
   12480:	2bc00f50 3bc00f58 4bc00f60 5bc00f68     P..+X..;`..Kh..[
   12490:	6bc00f70 7bc00f78 1dc00f88 2dc00f90     p..kx..{.......-
   124a0:	3dc00f98 4dc00fa0 5dc00fa8 6dc00fb0     ...=...M...]...m
   124b0:	7dc00fb8 1fc00fc8 2fc00fd0 3fc00fd8     ...}......./...?
   124c0:	4fc00fe0 5fc00fe8 6fc00ff0 7fc00ff8     ...O..._...o....
   124d0:	20081010 30081018 40081020 50081028     ... ...0 ..@(..P
   124e0:	60081030 70081038 12081048 22081050     0..`8..pH...P.."
   124f0:	32081058 42081060 52081068 62081070     X..2`..Bh..Rp..b
   12500:	72081078 14081088 24081090 34081098     x..r.......$...4
   12510:	440810a0 540810a8 640810b0 740810b8     ...D...T...d...t
   12520:	160810c8 260810d0 360810d8 460810e0     .......&...6...F
   12530:	560810e8 660810f0 760810f8 18081108     ...V...f...v....
   12540:	28081110 38081118 48081120 58081128     ...(...8 ..H(..X
   12550:	68081130 78081138 1a081148 2a081150     0..h8..xH...P..*
   12560:	3a081158 4a081160 5a081168 6a081170     X..:`..Jh..Zp..j
   12570:	7a081178 1c081188 2c081190 3c081198     x..z.......,...<
   12580:	4c0811a0 5c0811a8 6c0811b0 7c0811b8     ...L...\...l...|
   12590:	1e0811c8 2e0811d0 3e0811d8 4e0811e0     ...........>...N
   125a0:	5e0811e8 6e0811f0 7e0811f8 20481210     ...^...n...~..H 
   125b0:	30481218 40481220 50481228 60481230     ..H0 .H@(.HP0.H`
   125c0:	70481238 22481250 32481258 42481260     8.HpP.H"X.H2`.HB
   125d0:	52481268 62481270 72481278 14481288     h.HRp.Hbx.Hr..H.
   125e0:	24481290 34481298 444812a0 544812a8     ..H$..H4..HD..HT
   125f0:	644812b0 744812b8 164812c8 264812d0     ..Hd..Ht..H...H&
   12600:	364812d8 464812e0 564812e8 664812f0     ..H6..HF..HV..Hf
   12610:	764812f8 18481308 28481310 38481318     ..Hv..H...H(..H8
   12620:	48481320 58481328 68481330 78481338      .HH(.HX0.Hh8.Hx
   12630:	1a481348 2a481350 3a481358 4a481360     H.H.P.H*X.H:`.HJ
   12640:	5a481368 6a481370 7a481378 1c481388     h.HZp.Hjx.Hz..H.
   12650:	2c481390 3c481398 4c4813a0 5c4813a8     ..H,..H<..HL..H\
   12660:	6c4813b0 7c4813b8 1e4813c8 2e4813d0     ..Hl..H|..H...H.
   12670:	3e4813d8 4e4813e0 5e4813e8 6e4813f0     ..H>..HN..H^..Hn
   12680:	7e4813f8 20881410 30881418 40881420     ..H~... ...0 ..@
   12690:	50881428 60881430 70881438 22881450     (..P0..`8..pP.."
   126a0:	32881458 42881460 52881468 62881470     X..2`..Bh..Rp..b
   126b0:	72881478 24881490 34881498 448814a0     x..r...$...4...D
   126c0:	548814a8 648814b0 748814b8 168814c8     ...T...d...t....
   126d0:	268814d0 368814d8 468814e0 568814e8     ...&...6...F...V
   126e0:	668814f0 768814f8 18881508 28881510     ...f...v.......(
   126f0:	38881518 48881520 58881528 68881530     ...8 ..H(..X0..h
   12700:	78881538 1a881548 2a881550 3a881558     8..xH...P..*X..:
   12710:	4a881560 5a881568 6a881570 7a881578     `..Jh..Zp..jx..z
   12720:	1c881588 2c881590 3c881598 4c8815a0     .......,...<...L
   12730:	5c8815a8 6c8815b0 7c8815b8 1e8815c8     ...\...l...|....
   12740:	2e8815d0 3e8815d8 4e8815e0 5e8815e8     .......>...N...^
   12750:	6e8815f0 7e8815f8 20c81610 30c81618     ...n...~... ...0
   12760:	40c81620 50c81628 60c81630 70c81638      ..@(..P0..`8..p
   12770:	22c81650 32c81658 42c81660 52c81668     P.."X..2`..Bh..R
   12780:	62c81670 72c81678 24c81690 34c81698     p..bx..r...$...4
   12790:	44c816a0 54c816a8 64c816b0 74c816b8     ...D...T...d...t
   127a0:	26c816d0 36c816d8 46c816e0 56c816e8     ...&...6...F...V
   127b0:	66c816f0 76c816f8 18c81708 28c81710     ...f...v.......(
   127c0:	38c81718 48c81720 58c81728 68c81730     ...8 ..H(..X0..h
   127d0:	78c81738 1ac81748 2ac81750 3ac81758     8..xH...P..*X..:
   127e0:	4ac81760 5ac81768 6ac81770 7ac81778     `..Jh..Zp..jx..z
   127f0:	1cc81788 2cc81790 3cc81798 4cc817a0     .......,...<...L
   12800:	5cc817a8 6cc817b0 7cc817b8 1ec817c8     ...\...l...|....
   12810:	2ec817d0 3ec817d8 4ec817e0 5ec817e8     .......>...N...^
   12820:	6ec817f0 7ec817f8 21081810 31081818     ...n...~...!...1
   12830:	41081820 51081828 61081830 71081838      ..A(..Q0..a8..q
   12840:	23081850 33081858 43081860 53081868     P..#X..3`..Ch..S
   12850:	63081870 73081878 25081890 35081898     p..cx..s...%...5
   12860:	450818a0 550818a8 650818b0 750818b8     ...E...U...e...u
   12870:	270818d0 370818d8 470818e0 570818e8     ...'...7...G...W
   12880:	670818f0 770818f8 29081910 39081918     ...g...w...)...9
   12890:	49081920 59081928 69081930 79081938      ..I(..Y0..i8..y
   128a0:	1b081948 2b081950 3b081958 4b081960     H...P..+X..;`..K
   128b0:	5b081968 6b081970 7b081978 1d081988     h..[p..kx..{....
   128c0:	2d081990 3d081998 4d0819a0 5d0819a8     ...-...=...M...]
   128d0:	6d0819b0 7d0819b8 1f0819c8 2f0819d0     ...m...}......./
   128e0:	3f0819d8 4f0819e0 5f0819e8 6f0819f0     ...?...O..._...o
   128f0:	7f0819f8 21481a10 31481a18 41481a20     ......H!..H1 .HA
   12900:	51481a28 61481a30 71481a38 23481a50     (.HQ0.Ha8.HqP.H#
   12910:	33481a58 43481a60 53481a68 63481a70     X.H3`.HCh.HSp.Hc
   12920:	73481a78 25481a90 35481a98 45481aa0     x.Hs..H%..H5..HE
   12930:	55481aa8 65481ab0 75481ab8 27481ad0     ..HU..He..Hu..H'
   12940:	37481ad8 47481ae0 57481ae8 67481af0     ..H7..HG..HW..Hg
   12950:	77481af8 29481b10 39481b18 49481b20     ..Hw..H)..H9 .HI
   12960:	59481b28 69481b30 79481b38 2b481b50     (.HY0.Hi8.HyP.H+
   12970:	3b481b58 4b481b60 5b481b68 6b481b70     X.H;`.HKh.H[p.Hk
   12980:	7b481b78 1d481b88 2d481b90 3d481b98     x.H{..H...H-..H=
   12990:	4d481ba0 5d481ba8 6d481bb0 7d481bb8     ..HM..H]..Hm..H}
   129a0:	1f481bc8 2f481bd0 3f481bd8 4f481be0     ..H...H/..H?..HO
   129b0:	5f481be8 6f481bf0 7f481bf8 21881c10     ..H_..Ho..H....!
   129c0:	31881c18 41881c20 51881c28 61881c30     ...1 ..A(..Q0..a
   129d0:	71881c38 23881c50 33881c58 43881c60     8..qP..#X..3`..C
   129e0:	53881c68 63881c70 73881c78 25881c90     h..Sp..cx..s...%
   129f0:	35881c98 45881ca0 55881ca8 65881cb0     ...5...E...U...e
   12a00:	75881cb8 27881cd0 37881cd8 47881ce0     ...u...'...7...G
   12a10:	57881ce8 67881cf0 77881cf8 29881d10     ...W...g...w...)
   12a20:	39881d18 49881d20 59881d28 69881d30     ...9 ..I(..Y0..i
   12a30:	79881d38 2b881d50 3b881d58 4b881d60     8..yP..+X..;`..K
   12a40:	5b881d68 6b881d70 7b881d78 2d881d90     h..[p..kx..{...-
   12a50:	3d881d98 4d881da0 5d881da8 6d881db0     ...=...M...]...m
   12a60:	7d881db8 1f881dc8 2f881dd0 3f881dd8     ...}......./...?
   12a70:	4f881de0 5f881de8 6f881df0 7f881df8     ...O..._...o....
   12a80:	21c81e10 31c81e18 41c81e20 51c81e28     ...!...1 ..A(..Q
   12a90:	61c81e30 71c81e38 23c81e50 33c81e58     0..a8..qP..#X..3
   12aa0:	43c81e60 53c81e68 63c81e70 73c81e78     `..Ch..Sp..cx..s
   12ab0:	25c81e90 35c81e98 45c81ea0 55c81ea8     ...%...5...E...U
   12ac0:	65c81eb0 75c81eb8 27c81ed0 37c81ed8     ...e...u...'...7
   12ad0:	47c81ee0 57c81ee8 67c81ef0 77c81ef8     ...G...W...g...w
   12ae0:	29c81f10 39c81f18 49c81f20 59c81f28     ...)...9 ..I(..Y
   12af0:	69c81f30 79c81f38 2bc81f50 3bc81f58     0..i8..yP..+X..;
   12b00:	4bc81f60 5bc81f68 6bc81f70 7bc81f78     `..Kh..[p..kx..{
   12b10:	2dc81f90 3dc81f98 4dc81fa0 5dc81fa8     ...-...=...M...]
   12b20:	6dc81fb0 7dc81fb8 2fc81fd0 3fc81fd8     ...m...}.../...?
   12b30:	4fc81fe0 5fc81fe8 6fc81ff0 7fc81ff8     ...O..._...o....
   12b40:	30102018 40102020 50102028 60102030     . .0  .@( .P0 .`
   12b50:	70102038 22102050 32102058 42102060     8 .pP ."X .2` .B
   12b60:	52102068 62102070 72102078 24102090     h .Rp .bx .r. .$
   12b70:	34102098 441020a0 541020a8 641020b0     . .4. .D. .T. .d
   12b80:	741020b8 261020d0 361020d8 461020e0     . .t. .&. .6. .F
   12b90:	561020e8 661020f0 761020f8 28102110     . .V. .f. .v.!.(
   12ba0:	38102118 48102120 58102128 68102130     .!.8 !.H(!.X0!.h
   12bb0:	78102138 2a102150 3a102158 4a102160     8!.xP!.*X!.:`!.J
   12bc0:	5a102168 6a102170 7a102178 2c102190     h!.Zp!.jx!.z.!.,
   12bd0:	3c102198 4c1021a0 5c1021a8 6c1021b0     .!.<.!.L.!.\.!.l
   12be0:	7c1021b8 2e1021d0 3e1021d8 4e1021e0     .!.|.!...!.>.!.N
   12bf0:	5e1021e8 6e1021f0 7e1021f8 30502218     .!.^.!.n.!.~."P0
   12c00:	40502220 50502228 60502230 70502238      "P@("PP0"P`8"Pp
   12c10:	32502258 42502260 52502268 62502270     X"P2`"PBh"PRp"Pb
   12c20:	72502278 24502290 34502298 445022a0     x"Pr."P$."P4."PD
   12c30:	545022a8 645022b0 745022b8 265022d0     ."PT."Pd."Pt."P&
   12c40:	365022d8 465022e0 565022e8 665022f0     ."P6."PF."PV."Pf
   12c50:	765022f8 28502310 38502318 48502320     ."Pv.#P(.#P8 #PH
   12c60:	58502328 68502330 78502338 2a502350     (#PX0#Ph8#PxP#P*
   12c70:	3a502358 4a502360 5a502368 6a502370     X#P:`#PJh#PZp#Pj
   12c80:	7a502378 2c502390 3c502398 4c5023a0     x#Pz.#P,.#P<.#PL
   12c90:	5c5023a8 6c5023b0 7c5023b8 2e5023d0     .#P\.#Pl.#P|.#P.
   12ca0:	3e5023d8 4e5023e0 5e5023e8 6e5023f0     .#P>.#PN.#P^.#Pn
   12cb0:	7e5023f8 30902418 40902420 50902428     .#P~.$.0 $.@($.P
   12cc0:	60902430 70902438 32902458 42902460     0$.`8$.pX$.2`$.B
   12cd0:	52902468 62902470 72902478 34902498     h$.Rp$.bx$.r.$.4
   12ce0:	449024a0 549024a8 649024b0 749024b8     .$.D.$.T.$.d.$.t
   12cf0:	269024d0 369024d8 469024e0 569024e8     .$.&.$.6.$.F.$.V
   12d00:	669024f0 769024f8 28902510 38902518     .$.f.$.v.%.(.%.8
   12d10:	48902520 58902528 68902530 78902538      %.H(%.X0%.h8%.x
   12d20:	2a902550 3a902558 4a902560 5a902568     P%.*X%.:`%.Jh%.Z
   12d30:	6a902570 7a902578 2c902590 3c902598     p%.jx%.z.%.,.%.<
   12d40:	4c9025a0 5c9025a8 6c9025b0 7c9025b8     .%.L.%.\.%.l.%.|
   12d50:	2e9025d0 3e9025d8 4e9025e0 5e9025e8     .%...%.>.%.N.%.^
   12d60:	6e9025f0 7e9025f8 30d02618 40d02620     .%.n.%.~.&.0 &.@
   12d70:	50d02628 60d02630 70d02638 32d02658     (&.P0&.`8&.pX&.2
   12d80:	42d02660 52d02668 62d02670 72d02678     `&.Bh&.Rp&.bx&.r
   12d90:	34d02698 44d026a0 54d026a8 64d026b0     .&.4.&.D.&.T.&.d
   12da0:	74d026b8 36d026d8 46d026e0 56d026e8     .&.t.&.6.&.F.&.V
   12db0:	66d026f0 76d026f8 28d02710 38d02718     .&.f.&.v.'.(.'.8
   12dc0:	48d02720 58d02728 68d02730 78d02738      '.H('.X0'.h8'.x
   12dd0:	2ad02750 3ad02758 4ad02760 5ad02768     P'.*X'.:`'.Jh'.Z
   12de0:	6ad02770 7ad02778 2cd02790 3cd02798     p'.jx'.z.'.,.'.<
   12df0:	4cd027a0 5cd027a8 6cd027b0 7cd027b8     .'.L.'.\.'.l.'.|
   12e00:	2ed027d0 3ed027d8 4ed027e0 5ed027e8     .'...'.>.'.N.'.^
   12e10:	6ed027f0 7ed027f8 31102818 41102820     .'.n.'.~.(.1 (.A
   12e20:	51102828 61102830 71102838 33102858     ((.Q0(.a8(.qX(.3
   12e30:	43102860 53102868 63102870 73102878     `(.Ch(.Sp(.cx(.s
   12e40:	35102898 451028a0 551028a8 651028b0     .(.5.(.E.(.U.(.e
   12e50:	751028b8 371028d8 471028e0 571028e8     .(.u.(.7.(.G.(.W
   12e60:	671028f0 771028f8 39102918 49102920     .(.g.(.w.).9 ).I
   12e70:	59102928 69102930 79102938 2b102950     ().Y0).i8).yP).+
   12e80:	3b102958 4b102960 5b102968 6b102970     X).;`).Kh).[p).k
   12e90:	7b102978 2d102990 3d102998 4d1029a0     x).{.).-.).=.).M
   12ea0:	5d1029a8 6d1029b0 7d1029b8 2f1029d0     .).].).m.).}.)./
   12eb0:	3f1029d8 4f1029e0 5f1029e8 6f1029f0     .).?.).O.)._.).o
   12ec0:	7f1029f8 31502a18 41502a20 51502a28     .)...*P1 *PA(*PQ
   12ed0:	61502a30 71502a38 33502a58 43502a60     0*Pa8*PqX*P3`*PC
   12ee0:	53502a68 63502a70 73502a78 35502a98     h*PSp*Pcx*Ps.*P5
   12ef0:	45502aa0 55502aa8 65502ab0 75502ab8     .*PE.*PU.*Pe.*Pu
   12f00:	37502ad8 47502ae0 57502ae8 67502af0     .*P7.*PG.*PW.*Pg
   12f10:	77502af8 39502b18 49502b20 59502b28     .*Pw.+P9 +PI(+PY
   12f20:	69502b30 79502b38 3b502b58 4b502b60     0+Pi8+PyX+P;`+PK
   12f30:	5b502b68 6b502b70 7b502b78 2d502b90     h+P[p+Pkx+P{.+P-
   12f40:	3d502b98 4d502ba0 5d502ba8 6d502bb0     .+P=.+PM.+P].+Pm
   12f50:	7d502bb8 2f502bd0 3f502bd8 4f502be0     .+P}.+P/.+P?.+PO
   12f60:	5f502be8 6f502bf0 7f502bf8 31902c18     .+P_.+Po.+P..,.1
   12f70:	41902c20 51902c28 61902c30 71902c38      ,.A(,.Q0,.a8,.q
   12f80:	33902c58 43902c60 53902c68 63902c70     X,.3`,.Ch,.Sp,.c
   12f90:	73902c78 35902c98 45902ca0 55902ca8     x,.s.,.5.,.E.,.U
   12fa0:	65902cb0 75902cb8 37902cd8 47902ce0     .,.e.,.u.,.7.,.G
   12fb0:	57902ce8 67902cf0 77902cf8 39902d18     .,.W.,.g.,.w.-.9
   12fc0:	49902d20 59902d28 69902d30 79902d38      -.I(-.Y0-.i8-.y
   12fd0:	3b902d58 4b902d60 5b902d68 6b902d70     X-.;`-.Kh-.[p-.k
   12fe0:	7b902d78 3d902d98 4d902da0 5d902da8     x-.{.-.=.-.M.-.]
   12ff0:	6d902db0 7d902db8 2f902dd0 3f902dd8     .-.m.-.}.-./.-.?
   13000:	4f902de0 5f902de8 6f902df0 7f902df8     .-.O.-._.-.o.-..
   13010:	31d02e18 41d02e20 51d02e28 61d02e30     ...1 ..A(..Q0..a
   13020:	71d02e38 33d02e58 43d02e60 53d02e68     8..qX..3`..Ch..S
   13030:	63d02e70 73d02e78 35d02e98 45d02ea0     p..cx..s...5...E
   13040:	55d02ea8 65d02eb0 75d02eb8 37d02ed8     ...U...e...u...7
   13050:	47d02ee0 57d02ee8 67d02ef0 77d02ef8     ...G...W...g...w
   13060:	39d02f18 49d02f20 59d02f28 69d02f30     ./.9 /.I(/.Y0/.i
   13070:	79d02f38 3bd02f58 4bd02f60 5bd02f68     8/.yX/.;`/.Kh/.[
   13080:	6bd02f70 7bd02f78 3dd02f98 4dd02fa0     p/.kx/.{./.=./.M
   13090:	5dd02fa8 6dd02fb0 7dd02fb8 3fd02fd8     ./.]./.m./.}./.?
   130a0:	4fd02fe0 5fd02fe8 6fd02ff0 7fd02ff8     ./.O./._./.o./..
   130b0:	40183020 50183028 60183030 70183038      0.@(0.P00.`80.p
   130c0:	32183058 42183060 52183068 62183070     X0.2`0.Bh0.Rp0.b
   130d0:	72183078 34183098 441830a0 541830a8     x0.r.0.4.0.D.0.T
   130e0:	641830b0 741830b8 361830d8 461830e0     .0.d.0.t.0.6.0.F
   130f0:	561830e8 661830f0 761830f8 38183118     .0.V.0.f.0.v.1.8
   13100:	48183120 58183128 68183130 78183138      1.H(1.X01.h81.x
   13110:	3a183158 4a183160 5a183168 6a183170     X1.:`1.Jh1.Zp1.j
   13120:	7a183178 3c183198 4c1831a0 5c1831a8     x1.z.1.<.1.L.1.\
   13130:	6c1831b0 7c1831b8 3e1831d8 4e1831e0     .1.l.1.|.1.>.1.N
   13140:	5e1831e8 6e1831f0 7e1831f8 40583220     .1.^.1.n.1.~ 2X@
   13150:	50583228 60583230 70583238 42583260     (2XP02X`82Xp`2XB
   13160:	52583268 62583270 72583278 34583298     h2XRp2Xbx2Xr.2X4
   13170:	445832a0 545832a8 645832b0 745832b8     .2XD.2XT.2Xd.2Xt
   13180:	365832d8 465832e0 565832e8 665832f0     .2X6.2XF.2XV.2Xf
   13190:	765832f8 38583318 48583320 58583328     .2Xv.3X8 3XH(3XX
   131a0:	68583330 78583338 3a583358 4a583360     03Xh83XxX3X:`3XJ
   131b0:	5a583368 6a583370 7a583378 3c583398     h3XZp3Xjx3Xz.3X<
   131c0:	4c5833a0 5c5833a8 6c5833b0 7c5833b8     .3XL.3X\.3Xl.3X|
   131d0:	3e5833d8 4e5833e0 5e5833e8 6e5833f0     .3X>.3XN.3X^.3Xn
   131e0:	7e5833f8 40983420 50983428 60983430     .3X~ 4.@(4.P04.`
   131f0:	70983438 42983460 52983468 62983470     84.p`4.Bh4.Rp4.b
   13200:	72983478 449834a0 549834a8 649834b0     x4.r.4.D.4.T.4.d
   13210:	749834b8 369834d8 469834e0 569834e8     .4.t.4.6.4.F.4.V
   13220:	669834f0 769834f8 38983518 48983520     .4.f.4.v.5.8 5.H
   13230:	58983528 68983530 78983538 3a983558     (5.X05.h85.xX5.:
   13240:	4a983560 5a983568 6a983570 7a983578     `5.Jh5.Zp5.jx5.z
   13250:	3c983598 4c9835a0 5c9835a8 6c9835b0     .5.<.5.L.5.\.5.l
   13260:	7c9835b8 3e9835d8 4e9835e0 5e9835e8     .5.|.5.>.5.N.5.^
   13270:	6e9835f0 7e9835f8 40d83620 50d83628     .5.n.5.~ 6.@(6.P
   13280:	60d83630 70d83638 42d83660 52d83668     06.`86.p`6.Bh6.R
   13290:	62d83670 72d83678 44d836a0 54d836a8     p6.bx6.r.6.D.6.T
   132a0:	64d836b0 74d836b8 46d836e0 56d836e8     .6.d.6.t.6.F.6.V
   132b0:	66d836f0 76d836f8 38d83718 48d83720     .6.f.6.v.7.8 7.H
   132c0:	58d83728 68d83730 78d83738 3ad83758     (7.X07.h87.xX7.:
   132d0:	4ad83760 5ad83768 6ad83770 7ad83778     `7.Jh7.Zp7.jx7.z
   132e0:	3cd83798 4cd837a0 5cd837a8 6cd837b0     .7.<.7.L.7.\.7.l
   132f0:	7cd837b8 3ed837d8 4ed837e0 5ed837e8     .7.|.7.>.7.N.7.^
   13300:	6ed837f0 7ed837f8 41183820 51183828     .7.n.7.~ 8.A(8.Q
   13310:	61183830 71183838 43183860 53183868     08.a88.q`8.Ch8.S
   13320:	63183870 73183878 451838a0 551838a8     p8.cx8.s.8.E.8.U
   13330:	651838b0 751838b8 471838e0 571838e8     .8.e.8.u.8.G.8.W
   13340:	671838f0 771838f8 49183920 59183928     .8.g.8.w 9.I(9.Y
   13350:	69183930 79183938 3b183958 4b183960     09.i89.yX9.;`9.K
   13360:	5b183968 6b183970 7b183978 3d183998     h9.[p9.kx9.{.9.=
   13370:	4d1839a0 5d1839a8 6d1839b0 7d1839b8     .9.M.9.].9.m.9.}
   13380:	3f1839d8 4f1839e0 5f1839e8 6f1839f0     .9.?.9.O.9._.9.o
   13390:	7f1839f8 41583a20 51583a28 61583a30     .9.. :XA(:XQ0:Xa
   133a0:	71583a38 43583a60 53583a68 63583a70     8:Xq`:XCh:XSp:Xc
   133b0:	73583a78 45583aa0 55583aa8 65583ab0     x:Xs.:XE.:XU.:Xe
   133c0:	75583ab8 47583ae0 57583ae8 67583af0     .:Xu.:XG.:XW.:Xg
   133d0:	77583af8 49583b20 59583b28 69583b30     .:Xw ;XI(;XY0;Xi
   133e0:	79583b38 4b583b60 5b583b68 6b583b70     8;Xy`;XKh;X[p;Xk
   133f0:	7b583b78 3d583b98 4d583ba0 5d583ba8     x;X{.;X=.;XM.;X]
   13400:	6d583bb0 7d583bb8 3f583bd8 4f583be0     .;Xm.;X}.;X?.;XO
   13410:	5f583be8 6f583bf0 7f583bf8 41983c20     .;X_.;Xo.;X. <.A
   13420:	51983c28 61983c30 71983c38 43983c60     (<.Q0<.a8<.q`<.C
   13430:	53983c68 63983c70 73983c78 45983ca0     h<.Sp<.cx<.s.<.E
   13440:	55983ca8 65983cb0 75983cb8 47983ce0     .<.U.<.e.<.u.<.G
   13450:	57983ce8 67983cf0 77983cf8 49983d20     .<.W.<.g.<.w =.I
   13460:	59983d28 69983d30 79983d38 4b983d60     (=.Y0=.i8=.y`=.K
   13470:	5b983d68 6b983d70 7b983d78 4d983da0     h=.[p=.kx=.{.=.M
   13480:	5d983da8 6d983db0 7d983db8 3f983dd8     .=.].=.m.=.}.=.?
   13490:	4f983de0 5f983de8 6f983df0 7f983df8     .=.O.=._.=.o.=..
   134a0:	41d83e20 51d83e28 61d83e30 71d83e38      >.A(>.Q0>.a8>.q
   134b0:	43d83e60 53d83e68 63d83e70 73d83e78     `>.Ch>.Sp>.cx>.s
   134c0:	45d83ea0 55d83ea8 65d83eb0 75d83eb8     .>.E.>.U.>.e.>.u
   134d0:	47d83ee0 57d83ee8 67d83ef0 77d83ef8     .>.G.>.W.>.g.>.w
   134e0:	49d83f20 59d83f28 69d83f30 79d83f38      ?.I(?.Y0?.i8?.y
   134f0:	4bd83f60 5bd83f68 6bd83f70 7bd83f78     `?.Kh?.[p?.kx?.{
   13500:	4dd83fa0 5dd83fa8 6dd83fb0 7dd83fb8     .?.M.?.].?.m.?.}
   13510:	4fd83fe0 5fd83fe8 6fd83ff0 7fd83ff8     .?.O.?._.?.o.?..
   13520:	50204028 60204030 70204038 42204060     (@ P0@ `8@ p`@ B
   13530:	52204068 62204070 72204078 442040a0     h@ Rp@ bx@ r.@ D
   13540:	542040a8 642040b0 742040b8 462040e0     .@ T.@ d.@ t.@ F
   13550:	562040e8 662040f0 762040f8 48204120     .@ V.@ f.@ v A H
   13560:	58204128 68204130 78204138 4a204160     (A X0A h8A x`A J
   13570:	5a204168 6a204170 7a204178 4c2041a0     hA ZpA jxA z.A L
   13580:	5c2041a8 6c2041b0 7c2041b8 4e2041e0     .A \.A l.A |.A N
   13590:	5e2041e8 6e2041f0 7e2041f8 50604228     .A ^.A n.A ~(B`P
   135a0:	60604230 70604238 52604268 62604270     0B``8B`phB`RpB`b
   135b0:	72604278 446042a0 546042a8 646042b0     xB`r.B`D.B`T.B`d
   135c0:	746042b8 466042e0 566042e8 666042f0     .B`t.B`F.B`V.B`f
   135d0:	766042f8 48604320 58604328 68604330     .B`v C`H(C`X0C`h
   135e0:	78604338 4a604360 5a604368 6a604370     8C`x`C`JhC`ZpC`j
   135f0:	7a604378 4c6043a0 5c6043a8 6c6043b0     xC`z.C`L.C`\.C`l
   13600:	7c6043b8 4e6043e0 5e6043e8 6e6043f0     .C`|.C`N.C`^.C`n
   13610:	7e6043f8 50a04428 60a04430 70a04438     .C`~(D.P0D.`8D.p
   13620:	52a04468 62a04470 72a04478 54a044a8     hD.RpD.bxD.r.D.T
   13630:	64a044b0 74a044b8 46a044e0 56a044e8     .D.d.D.t.D.F.D.V
   13640:	66a044f0 76a044f8 48a04520 58a04528     .D.f.D.v E.H(E.X
   13650:	68a04530 78a04538 4aa04560 5aa04568     0E.h8E.x`E.JhE.Z
   13660:	6aa04570 7aa04578 4ca045a0 5ca045a8     pE.jxE.z.E.L.E.\
   13670:	6ca045b0 7ca045b8 4ea045e0 5ea045e8     .E.l.E.|.E.N.E.^
   13680:	6ea045f0 7ea045f8 50e04628 60e04630     .E.n.E.~(F.P0F.`
   13690:	70e04638 52e04668 62e04670 72e04678     8F.phF.RpF.bxF.r
   136a0:	54e046a8 64e046b0 74e046b8 56e046e8     .F.T.F.d.F.t.F.V
   136b0:	66e046f0 76e046f8 48e04720 58e04728     .F.f.F.v G.H(G.X
   136c0:	68e04730 78e04738 4ae04760 5ae04768     0G.h8G.x`G.JhG.Z
   136d0:	6ae04770 7ae04778 4ce047a0 5ce047a8     pG.jxG.z.G.L.G.\
   136e0:	6ce047b0 7ce047b8 4ee047e0 5ee047e8     .G.l.G.|.G.N.G.^
   136f0:	6ee047f0 7ee047f8 51204828 61204830     .G.n.G.~(H Q0H a
   13700:	71204838 53204868 63204870 73204878     8H qhH SpH cxH s
   13710:	552048a8 652048b0 752048b8 572048e8     .H U.H e.H u.H W
   13720:	672048f0 772048f8 59204928 69204930     .H g.H w(I Y0I i
   13730:	79204938 4b204960 5b204968 6b204970     8I y`I KhI [pI k
   13740:	7b204978 4d2049a0 5d2049a8 6d2049b0     xI {.I M.I ].I m
   13750:	7d2049b8 4f2049e0 5f2049e8 6f2049f0     .I }.I O.I _.I o
   13760:	7f2049f8 51604a28 61604a30 71604a38     .I .(J`Q0J`a8J`q
   13770:	53604a68 63604a70 73604a78 55604aa8     hJ`SpJ`cxJ`s.J`U
   13780:	65604ab0 75604ab8 57604ae8 67604af0     .J`e.J`u.J`W.J`g
   13790:	77604af8 59604b28 69604b30 79604b38     .J`w(K`Y0K`i8K`y
   137a0:	5b604b68 6b604b70 7b604b78 4d604ba0     hK`[pK`kxK`{.K`M
   137b0:	5d604ba8 6d604bb0 7d604bb8 4f604be0     .K`].K`m.K`}.K`O
   137c0:	5f604be8 6f604bf0 7f604bf8 51a04c28     .K`_.K`o.K`.(L.Q
   137d0:	61a04c30 71a04c38 53a04c68 63a04c70     0L.a8L.qhL.SpL.c
   137e0:	73a04c78 55a04ca8 65a04cb0 75a04cb8     xL.s.L.U.L.e.L.u
   137f0:	57a04ce8 67a04cf0 77a04cf8 59a04d28     .L.W.L.g.L.w(M.Y
   13800:	69a04d30 79a04d38 5ba04d68 6ba04d70     0M.i8M.yhM.[pM.k
   13810:	7ba04d78 5da04da8 6da04db0 7da04db8     xM.{.M.].M.m.M.}
   13820:	4fa04de0 5fa04de8 6fa04df0 7fa04df8     .M.O.M._.M.o.M..
   13830:	51e04e28 61e04e30 71e04e38 53e04e68     (N.Q0N.a8N.qhN.S
   13840:	63e04e70 73e04e78 55e04ea8 65e04eb0     pN.cxN.s.N.U.N.e
   13850:	75e04eb8 57e04ee8 67e04ef0 77e04ef8     .N.u.N.W.N.g.N.w
   13860:	59e04f28 69e04f30 79e04f38 5be04f68     (O.Y0O.i8O.yhO.[
   13870:	6be04f70 7be04f78 5de04fa8 6de04fb0     pO.kxO.{.O.].O.m
   13880:	7de04fb8 5fe04fe8 6fe04ff0 7fe04ff8     .O.}.O._.O.o.O..
   13890:	60285030 70285038 52285068 62285070     0P(`8P(phP(RpP(b
   138a0:	72285078 542850a8 642850b0 742850b8     xP(r.P(T.P(d.P(t
   138b0:	562850e8 662850f0 762850f8 58285128     .P(V.P(f.P(v(Q(X
   138c0:	68285130 78285138 5a285168 6a285170     0Q(h8Q(xhQ(ZpQ(j
   138d0:	7a285178 5c2851a8 6c2851b0 7c2851b8     xQ(z.Q(\.Q(l.Q(|
   138e0:	5e2851e8 6e2851f0 7e2851f8 60685230     .Q(^.Q(n.Q(~0Rh`
   138f0:	70685238 62685270 72685278 546852a8     8RhppRhbxRhr.RhT
   13900:	646852b0 746852b8 566852e8 666852f0     .Rhd.Rht.RhV.Rhf
   13910:	766852f8 58685328 68685330 78685338     .Rhv(ShX0Shh8Shx
   13920:	5a685368 6a685370 7a685378 5c6853a8     hShZpShjxShz.Sh\
   13930:	6c6853b0 7c6853b8 5e6853e8 6e6853f0     .Shl.Sh|.Sh^.Shn
   13940:	7e6853f8 60a85430 70a85438 62a85470     .Sh~0T.`8T.ppT.b
   13950:	72a85478 64a854b0 74a854b8 56a854e8     xT.r.T.d.T.t.T.V
   13960:	66a854f0 76a854f8 58a85528 68a85530     .T.f.T.v(U.X0U.h
   13970:	78a85538 5aa85568 6aa85570 7aa85578     8U.xhU.ZpU.jxU.z
   13980:	5ca855a8 6ca855b0 7ca855b8 5ea855e8     .U.\.U.l.U.|.U.^
   13990:	6ea855f0 7ea855f8 60e85630 70e85638     .U.n.U.~0V.`8V.p
   139a0:	62e85670 72e85678 64e856b0 74e856b8     pV.bxV.r.V.d.V.t
   139b0:	66e856f0 76e856f8 58e85728 68e85730     .V.f.V.v(W.X0W.h
   139c0:	78e85738 5ae85768 6ae85770 7ae85778     8W.xhW.ZpW.jxW.z
   139d0:	5ce857a8 6ce857b0 7ce857b8 5ee857e8     .W.\.W.l.W.|.W.^
   139e0:	6ee857f0 7ee857f8 61285830 71285838     .W.n.W.~0X(a8X(q
   139f0:	63285870 73285878 652858b0 752858b8     pX(cxX(s.X(e.X(u
   13a00:	672858f0 772858f8 69285930 79285938     .X(g.X(w0Y(i8Y(y
   13a10:	5b285968 6b285970 7b285978 5d2859a8     hY([pY(kxY({.Y(]
   13a20:	6d2859b0 7d2859b8 5f2859e8 6f2859f0     .Y(m.Y(}.Y(_.Y(o
   13a30:	7f2859f8 61685a30 71685a38 63685a70     .Y(.0Zha8ZhqpZhc
   13a40:	73685a78 65685ab0 75685ab8 67685af0     xZhs.Zhe.Zhu.Zhg
   13a50:	77685af8 69685b30 79685b38 6b685b70     .Zhw0[hi8[hyp[hk
   13a60:	7b685b78 5d685ba8 6d685bb0 7d685bb8     x[h{.[h].[hm.[h}
   13a70:	5f685be8 6f685bf0 7f685bf8 61a85c30     .[h_.[ho.[h.0\.a
   13a80:	71a85c38 63a85c70 73a85c78 65a85cb0     8\.qp\.cx\.s.\.e
   13a90:	75a85cb8 67a85cf0 77a85cf8 69a85d30     .\.u.\.g.\.w0].i
   13aa0:	79a85d38 6ba85d70 7ba85d78 6da85db0     8].yp].kx].{.].m
   13ab0:	7da85db8 5fa85de8 6fa85df0 7fa85df8     .].}.]._.].o.]..
   13ac0:	61e85e30 71e85e38 63e85e70 73e85e78     0^.a8^.qp^.cx^.s
   13ad0:	65e85eb0 75e85eb8 67e85ef0 77e85ef8     .^.e.^.u.^.g.^.w
   13ae0:	69e85f30 79e85f38 6be85f70 7be85f78     0_.i8_.yp_.kx_.{
   13af0:	6de85fb0 7de85fb8 6fe85ff0 7fe85ff8     ._.m._.}._.o._..
   13b00:	70306038 62306070 72306078 643060b0     8`0pp`0bx`0r.`0d
   13b10:	743060b8 663060f0 763060f8 68306130     .`0t.`0f.`0v0a0h
   13b20:	78306138 6a306170 7a306178 6c3061b0     8a0xpa0jxa0z.a0l
   13b30:	7c3061b8 6e3061f0 7e3061f8 70706238     .a0|.a0n.a0~8bpp
   13b40:	72706278 647062b0 747062b8 667062f0     xbpr.bpd.bpt.bpf
   13b50:	767062f8 68706330 78706338 6a706370     .bpv0cph8cpxpcpj
   13b60:	7a706378 6c7063b0 7c7063b8 6e7063f0     xcpz.cpl.cp|.cpn
   13b70:	7e7063f8 70b06438 72b06478 74b064b8     .cp~8d.pxd.r.d.t
   13b80:	66b064f0 76b064f8 68b06530 78b06538     .d.f.d.v0e.h8e.x
   13b90:	6ab06570 7ab06578 6cb065b0 7cb065b8     pe.jxe.z.e.l.e.|
   13ba0:	6eb065f0 7eb065f8 70f06638 72f06678     .e.n.e.~8f.pxf.r
   13bb0:	74f066b8 76f066f8 68f06730 78f06738     .f.t.f.v0g.h8g.x
   13bc0:	6af06770 7af06778 6cf067b0 7cf067b8     pg.jxg.z.g.l.g.|
   13bd0:	6ef067f0 7ef067f8 71306838 73306878     .g.n.g.~8h0qxh0s
   13be0:	753068b8 773068f8 79306938 6b306970     .h0u.h0w8i0ypi0k
   13bf0:	7b306978 6d3069b0 7d3069b8 6f3069f0     xi0{.i0m.i0}.i0o
   13c00:	7f3069f8 71706a38 73706a78 75706ab8     .i0.8jpqxjps.jpu
   13c10:	77706af8 79706b38 7b706b78 6d706bb0     .jpw8kpyxkp{.kpm
   13c20:	7d706bb8 6f706bf0 7f706bf8 71b06c38     .kp}.kpo.kp.8l.q
   13c30:	73b06c78 75b06cb8 77b06cf8 79b06d38     xl.s.l.u.l.w8m.y
   13c40:	7bb06d78 7db06db8 6fb06df0 7fb06df8     xm.{.m.}.m.o.m..
   13c50:	71f06e38 73f06e78 75f06eb8 77f06ef8     8n.qxn.s.n.u.n.w
   13c60:	79f06f38 7bf06f78 7df06fb8 7ff06ff8     8o.yxo.{.o.}.o..
   13c70:	72387078 743870b8 763870f8 78387138     xp8r.p8t.p8v8q8x
   13c80:	7a387178 7c3871b8 7e3871f8 747872b8     xq8z.q8|.q8~.rxt
   13c90:	767872f8 78787338 7a787378 7c7873b8     .rxv8sxxxsxz.sx|
   13ca0:	7e7873f8 76b874f8 78b87538 7ab87578     .sx~.t.v8u.xxu.z
   13cb0:	7cb875b8 7eb875f8 78f87738 7af87778     .u.|.u.~8w.xxw.z
   13cc0:	7cf877b8 7ef877f8 7b387978 7d3879b8     .w.|.w.~xy8{.y8}
   13cd0:	7f3879f8 7d787bb8 7f787bf8 7fb87df8     .y8..{x}.{x..}..

00013ce0 <armBitRevIndexTable512>:
   13ce0:	02000008 04000010 06000018 08000020     ............ ...
   13cf0:	0a000028 0c000030 0e000038 02400048     (...0...8...H.@.
   13d00:	04400050 06400058 08400060 0a400068     P.@.X.@.`.@.h.@.
   13d10:	0c400070 0e400078 02800088 04800090     p.@.x.@.........
   13d20:	06800098 088000a0 0a8000a8 0c8000b0     ................
   13d30:	0e8000b8 02c000c8 04c000d0 06c000d8     ................
   13d40:	08c000e0 0ac000e8 0cc000f0 0ec000f8     ................
   13d50:	03000108 05000110 07000118 09000120     ............ ...
   13d60:	0b000128 0d000130 0f000138 03400148     (...0...8...H.@.
   13d70:	05400150 07400158 09400160 0b400168     P.@.X.@.`.@.h.@.
   13d80:	0d400170 0f400178 03800188 05800190     p.@.x.@.........
   13d90:	07800198 098001a0 0b8001a8 0d8001b0     ................
   13da0:	0f8001b8 03c001c8 05c001d0 07c001d8     ................
   13db0:	09c001e0 0bc001e8 0dc001f0 0fc001f8     ................
   13dc0:	04080210 06080218 08080220 0a080228     ........ ...(...
   13dd0:	0c080230 0e080238 04480250 06480258     0...8...P.H.X.H.
   13de0:	08480260 0a480268 0c480270 0e480278     `.H.h.H.p.H.x.H.
   13df0:	04880290 06880298 088802a0 0a8802a8     ................
   13e00:	0c8802b0 0e8802b8 04c802d0 06c802d8     ................
   13e10:	08c802e0 0ac802e8 0cc802f0 0ec802f8     ................
   13e20:	05080310 07080318 09080320 0b080328     ........ ...(...
   13e30:	0d080330 0f080338 05480350 07480358     0...8...P.H.X.H.
   13e40:	09480360 0b480368 0d480370 0f480378     `.H.h.H.p.H.x.H.
   13e50:	05880390 07880398 098803a0 0b8803a8     ................
   13e60:	0d8803b0 0f8803b8 05c803d0 07c803d8     ................
   13e70:	09c803e0 0bc803e8 0dc803f0 0fc803f8     ................
   13e80:	06100418 08100420 0a100428 0c100430     .... ...(...0...
   13e90:	0e100438 06500458 08500460 0a500468     8...X.P.`.P.h.P.
   13ea0:	0c500470 0e500478 06900498 089004a0     p.P.x.P.........
   13eb0:	0a9004a8 0c9004b0 0e9004b8 06d004d8     ................
   13ec0:	08d004e0 0ad004e8 0cd004f0 0ed004f8     ................
   13ed0:	07100518 09100520 0b100528 0d100530     .... ...(...0...
   13ee0:	0f100538 07500558 09500560 0b500568     8...X.P.`.P.h.P.
   13ef0:	0d500570 0f500578 07900598 099005a0     p.P.x.P.........
   13f00:	0b9005a8 0d9005b0 0f9005b8 07d005d8     ................
   13f10:	09d005e0 0bd005e8 0dd005f0 0fd005f8     ................
   13f20:	08180620 0a180628 0c180630 0e180638      ...(...0...8...
   13f30:	08580660 0a580668 0c580670 0e580678     `.X.h.X.p.X.x.X.
   13f40:	089806a0 0a9806a8 0c9806b0 0e9806b8     ................
   13f50:	08d806e0 0ad806e8 0cd806f0 0ed806f8     ................
   13f60:	09180720 0b180728 0d180730 0f180738      ...(...0...8...
   13f70:	09580760 0b580768 0d580770 0f580778     `.X.h.X.p.X.x.X.
   13f80:	099807a0 0b9807a8 0d9807b0 0f9807b8     ................
   13f90:	09d807e0 0bd807e8 0dd807f0 0fd807f8     ................
   13fa0:	0a200828 0c200830 0e200838 0a600868     (. .0. .8. .h.`.
   13fb0:	0c600870 0e600878 0aa008a8 0ca008b0     p.`.x.`.........
   13fc0:	0ea008b8 0ae008e8 0ce008f0 0ee008f8     ................
   13fd0:	0b200928 0d200930 0f200938 0b600968     (. .0. .8. .h.`.
   13fe0:	0d600970 0f600978 0ba009a8 0da009b0     p.`.x.`.........
   13ff0:	0fa009b8 0be009e8 0de009f0 0fe009f8     ................
   14000:	0c280a30 0e280a38 0c680a70 0e680a78     0.(.8.(.p.h.x.h.
   14010:	0ca80ab0 0ea80ab8 0ce80af0 0ee80af8     ................
   14020:	0d280b30 0f280b38 0d680b70 0f680b78     0.(.8.(.p.h.x.h.
   14030:	0da80bb0 0fa80bb8 0de80bf0 0fe80bf8     ................
   14040:	0e300c38 0e700c78 0eb00cb8 0ef00cf8     8.0.x.p.........
   14050:	0f300d38 0f700d78 0fb00db8 0ff00df8     8.0.x.p.........

00014060 <armBitRevIndexTable256>:
   14060:	02000008 04000010 06000018 00400020     ............ .@.
   14070:	02400028 04400030 06400038 00800040     (.@.0.@.8.@.@...
   14080:	02800048 04800050 06800058 00c00060     H...P...X...`...
   14090:	02c00068 04c00070 06c00078 01000080     h...p...x.......
   140a0:	03000088 05000090 07000098 014000a0     ..............@.
   140b0:	034000a8 054000b0 074000b8 018000c0     ..@...@...@.....
   140c0:	038000c8 058000d0 078000d8 01c000e0     ................
   140d0:	03c000e8 05c000f0 07c000f8 02000100     ................
   140e0:	02080108 04080110 06080118 02800120     ............ ...
   140f0:	02480128 04480130 06480138 03000140     (.H.0.H.8.H.@...
   14100:	02880148 04880150 06880158 03800160     H...P...X...`...
   14110:	02c80168 04c80170 06c80178 02080180     h...p...x.......
   14120:	03080188 05080190 07080198 028801a0     ................
   14130:	034801a8 054801b0 074801b8 030801c0     ..H...H...H.....
   14140:	038801c8 058801d0 078801d8 038801e0     ................
   14150:	03c801e8 05c801f0 07c801f8 02100208     ................
   14160:	04000200 04100210 06100218 04800220     ............ ...
   14170:	02500228 04500230 06500238 05000240     (.P.0.P.8.P.@...
   14180:	02900248 04900250 06900258 05800260     H...P...X...`...
   14190:	02d00268 04d00270 06d00278 04080280     h...p...x.......
   141a0:	03100288 05100290 07100298 048802a0     ................
   141b0:	035002a8 055002b0 075002b8 050802c0     ..P...P...P.....
   141c0:	039002c8 059002d0 079002d8 058802e0     ................
   141d0:	03d002e8 05d002f0 07d002f8 06000300     ................
   141e0:	06100308 04180310 06180318 06800320     ............ ...
   141f0:	06900328 04580330 06580338 07000340     (...0.X.8.X.@...
   14200:	07100348 04980350 06980358 07800360     H...P...X...`...
   14210:	07900368 04d80370 06d80378 06080380     h...p...x.......
   14220:	06180388 05180390 07180398 068803a0     ................
   14230:	069803a8 055803b0 075803b8 070803c0     ......X...X.....
   14240:	071803c8 059803d0 079803d8 078803e0     ................
   14250:	079803e8 05d803f0 07d803f8 04800408     ................
   14260:	04200410 06200418 05800428 04600430     .. ... .(...0.`.
   14270:	06600438 06000440 04880448 04a00450     8.`.@...H...P...
   14280:	06a00458 06100460 05880468 04e00470     X...`...h...p...
   14290:	06e00478 06800488 05200490 07200498     x......... ... .
   142a0:	060804a0 078004a8 056004b0 076004b8     ..........`...`.
   142b0:	062004c0 068804c8 05a004d0 07a004d8     .. .............
   142c0:	061804e0 078804e8 05e004f0 07e004f8     ................
   142d0:	05200508 05800510 06280518 05900528     .. .......(.(...
   142e0:	05880530 06680538 07000540 07200548     0...8.h.@...H. .
   142f0:	07800550 06a80558 07080560 05980568     P...X...`...h...
   14300:	07880570 06e80578 06900588 07280598     p...x.........(.
   14310:	062805a0 079005a8 072805b0 076805b8     ..(.......(...h.
   14320:	071005c0 069805c8 079005d0 07a805d8     ................
   14330:	071805e0 079805e8 079805f0 07e805f8     ................
   14340:	06300618 06700638 07000640 07800648     ..0.8.p.@...H...
   14350:	07080650 06b00658 07100660 07900668     P...X...`...h...
   14360:	07180670 06f00678 06a00688 07300698     p...x.........0.
   14370:	07a006a8 078806b0 077006b8 072006c0     ..........p... .
   14380:	07a006c8 072806d0 07b006d8 073006e0     ......(.......0.
   14390:	07a806e8 079806f0 07f006f8 07500748     ............H.P.
   143a0:	07980738 07600750 07700758 07c00760     8...P.`.X.p.`...
   143b0:	07d00768 07f00778 07e00770 07f007b8     h...x...p.......
   143c0:	07b007a8 07f007d8 07e007c8 07f007e8     ................

000143d0 <armBitRevIndexTable128>:
   143d0:	02000008 00400010 02400018 00800020     ......@...@. ...
   143e0:	02800028 00c00030 02c00038 01000040     (...0...8...@...
   143f0:	03000048 01400050 03400058 01800060     H...P.@.X.@.`...
   14400:	03800068 01c00070 03c00078 02000080     h...p...x.......
   14410:	02080088 03000090 02480098 020800a0     ..........H.....
   14420:	028800a8 00c800b0 02c800b8 010800c0     ................
   14430:	030800c8 014800d0 034800d8 018800e0     ......H...H.....
   14440:	038800e8 01c800f0 03c800f8 02100108     ................
   14450:	01400110 02500118 03000120 02900128     ..@...P. ...(...
   14460:	01480130 02d00138 03100148 03500158     0.H.8...H...X.P.
   14470:	01900160 03900168 01d00170 03d00178     `...h...p...x...
   14480:	02400180 02180188 03400190 02580198     ..@.......@...X.
   14490:	024801a0 029801a8 034801b0 02d801b8     ..H.......H.....
   144a0:	025001c0 031801c8 035001d0 035801d8     ..P.......P...X.
   144b0:	025801e0 039801e8 035801f0 03d801f8     ..X.......X.....
   144c0:	02200208 02400210 02600218 02a00228     .. ...@...`.(...
   144d0:	02600230 02e00238 03000240 03200248     0.`.8...@...H. .
   144e0:	03400250 03600258 03200260 03a00268     P.@.X.`.`. .h...
   144f0:	03600270 03e00278 02a00288 03800290     p.`.x...........
   14500:	03a00298 038802b0 02e802b8 038002c0     ................
   14510:	032802c8 039002d0 036802d8 03a002e0     ..(.......h.....
   14520:	03a802e8 039802f0 03e802f8 03200308     .............. .
   14530:	03400310 03600318 03880328 03600330     ..@...`.(...0.`.
   14540:	03980338 03600348 03700358 03b00368     8...H.`.X.p.h...
   14550:	03f00378 03a00388 03c00390 03e00398     x...............
   14560:	03c803b0 03e803b8 03e003c8 03f003d8     ................

00014570 <twiddleCoef_4096>:
   14570:	3f800000 00000000 3f7fffec 3ac90fd4     ...?.......?...:
   14580:	3f7fffb1 3b490fc7 3f7fff4e 3b96cbc1     ...?..I;N..?...;
   14590:	3f7ffec4 3bc90f89 3f7ffe13 3bfb5330     ...?...;...?0S.;
   145a0:	3f7ffd39 3c16cb59 3f7ffc39 3c2fed02     9..?Y..<9..?../<
   145b0:	3f7ffb11 3c490e90 3f7ff9c1 3c623000     ...?..I<...?.0b<
   145c0:	3f7ff84a 3c7b514b 3f7ff6ac 3c8a3938     J..?KQ{<...?89.<
   145d0:	3f7ff4e6 3c96c9b6 3f7ff2f8 3ca35a1c     ...?...<...?.Z.<
   145e0:	3f7ff0e3 3cafea69 3f7feea7 3cbc7a9b     ...?i..<...?.z.<
   145f0:	3f7fec43 3cc90ab0 3f7fe9b8 3cd59aa6     C..?...<...?...<
   14600:	3f7fe705 3ce22a7b 3f7fe42b 3ceeba2d     ...?{*.<+..?-..<
   14610:	3f7fe129 3cfb49b9 3f7fde00 3d03ec90     )..?.I.<...?...=
   14620:	3f7fdaaf 3d0a342f 3f7fd737 3d107bb8     ...?/4.=7..?.{.=
   14630:	3f7fd398 3d16c32c 3f7fcfd1 3d1d0a88     ...?,..=...?...=
   14640:	3f7fcbe2 3d2351cc 3f7fc7cc 3d2998f6     ...?.Q#=...?..)=
   14650:	3f7fc38f 3d2fe007 3f7fbf2a 3d3626fc     ...?../=*..?.&6=
   14660:	3f7fba9e 3d3c6dd5 3f7fb5ea 3d42b491     ...?.m<=...?..B=
   14670:	3f7fb10f 3d48fb2f 3f7fac0d 3d4f41af     ...?/.H=...?.AO=
   14680:	3f7fa6e3 3d55880e 3f7fa191 3d5bce4c     ...?..U=...?L.[=
   14690:	3f7f9c18 3d621468 3f7f9678 3d685a62     ...?h.b=x..?bZh=
   146a0:	3f7f90b1 3d6ea038 3f7f8ac2 3d74e5e9     ...?8.n=...?..t=
   146b0:	3f7f84ab 3d7b2b74 3f7f7e6d 3d80b86c     ...?t+{=m~.?l..=
   146c0:	3f7f7808 3d83db0a 3f7f717b 3d86fd94     .x.?...={q.?...=
   146d0:	3f7f6ac7 3d8a200a 3f7f63ec 3d8d426a     .j.?. .=.c.?jB.=
   146e0:	3f7f5ce9 3d9064b4 3f7f55bf 3d9386e7     .\.?.d.=.U.?...=
   146f0:	3f7f4e6d 3d96a905 3f7f46f4 3d99cb0a     mN.?...=.F.?...=
   14700:	3f7f3f54 3d9cecf9 3f7f378d 3da00ecf     T?.?...=.7.?...=
   14710:	3f7f2f9d 3da3308c 3f7f2787 3da65230     ./.?.0.=.'.?0R.=
   14720:	3f7f1f49 3da973ba 3f7f16e4 3dac952b     I..?.s.=...?+..=
   14730:	3f7f0e58 3dafb680 3f7f05a4 3db2d7bb     X..?...=...?...=
   14740:	3f7efcc9 3db5f8da 3f7ef3c7 3db919dd     ..~?...=..~?...=
   14750:	3f7eea9d 3dbc3ac3 3f7ee14c 3dbf5b8d     ..~?.:.=L.~?.[.=
   14760:	3f7ed7d4 3dc27c39 3f7ece34 3dc59cc6     ..~?9|.=4.~?...=
   14770:	3f7ec46d 3dc8bd36 3f7eba7f 3dcbdd86     m.~?6..=..~?...=
   14780:	3f7eb069 3dcefdb7 3f7ea62d 3dd21dc8     i.~?...=-.~?...=
   14790:	3f7e9bc9 3dd53db9 3f7e913d 3dd85d89     ..~?.=.==.~?.].=
   147a0:	3f7e868b 3ddb7d37 3f7e7bb1 3dde9cc4     ..~?7}.=.{~?...=
   147b0:	3f7e70b0 3de1bc2e 3f7e6588 3de4db76     .p~?...=.e~?v..=
   147c0:	3f7e5a38 3de7fa9a 3f7e4ec1 3deb199a     8Z~?...=.N~?...=
   147d0:	3f7e4323 3dee3876 3f7e375e 3df1572e     #C~?v8.=^7~?.W.=
   147e0:	3f7e2b72 3df475c0 3f7e1f5e 3df7942c     r+~?.u.=^.~?,..=
   147f0:	3f7e1324 3dfab273 3f7e06c2 3dfdd092     $.~?s..=..~?...=
   14800:	3f7dfa38 3e007745 3f7ded88 3e02062e     8.}?Ew.>..}?...>
   14810:	3f7de0b1 3e039502 3f7dd3b2 3e0523c2     ..}?...>..}?.#.>
   14820:	3f7dc68c 3e06b26e 3f7db940 3e084105     ..}?n..>@.}?.A.>
   14830:	3f7dabcc 3e09cf86 3f7d9e30 3e0b5df3     ..}?...>0.}?.].>
   14840:	3f7d906e 3e0cec4a 3f7d8285 3e0e7a8b     n.}?J..>..}?.z.>
   14850:	3f7d7474 3e1008b7 3f7d663d 3e1196cc     tt}?...>=f}?...>
   14860:	3f7d57de 3e1324ca 3f7d4959 3e14b2b2     .W}?.$.>YI}?...>
   14870:	3f7d3aac 3e164083 3f7d2bd8 3e17ce3d     .:}?.@.>.+}?=..>
   14880:	3f7d1cdd 3e195be0 3f7d0dbc 3e1ae96b     ..}?.[.>..}?k..>
   14890:	3f7cfe73 3e1c76de 3f7cef03 3e1e0438     s.|?.v.>..|?8..>
   148a0:	3f7cdf6c 3e1f917b 3f7ccfae 3e211ea5     l.|?{..>..|?..!>
   148b0:	3f7cbfc9 3e22abb6 3f7cafbd 3e2438ad     ..|?..">..|?.8$>
   148c0:	3f7c9f8a 3e25c58c 3f7c8f31 3e275251     ..|?..%>1.|?QR'>
   148d0:	3f7c7eb0 3e28defc 3f7c6e08 3e2a6b8d     .~|?..(>.n|?.k*>
   148e0:	3f7c5d3a 3e2bf804 3f7c4c44 3e2d8461     :]|?..+>DL|?a.->
   148f0:	3f7c3b28 3e2f10a2 3f7c29e5 3e309cc9     (;|?../>.)|?..0>
   14900:	3f7c187a 3e3228d4 3f7c06e9 3e33b4c4     z.|?.(2>..|?..3>
   14910:	3f7bf531 3e354098 3f7be353 3e36cc50     1.{?.@5>S.{?P.6>
   14920:	3f7bd14d 3e3857ec 3f7bbf20 3e39e36c     M.{?.W8> .{?l.9>
   14930:	3f7baccd 3e3b6ecf 3f7b9a53 3e3cfa15     ..{?.n;>S.{?..<>
   14940:	3f7b87b2 3e3e853e 3f7b74ea 3e401049     ..{?>.>>.t{?I.@>
   14950:	3f7b61fc 3e419b37 3f7b4ee7 3e432607     .a{?7.A>.N{?.&C>
   14960:	3f7b3bab 3e44b0b9 3f7b2848 3e463b4d     .;{?..D>H({?M;F>
   14970:	3f7b14be 3e47c5c2 3f7b010e 3e495018     ..{?..G>..{?.PI>
   14980:	3f7aed37 3e4ada4f 3f7ad93a 3e4c6467     7.z?O.J>:.z?gdL>
   14990:	3f7ac516 3e4dee60 3f7ab0cb 3e4f7838     ..z?`.M>..z?8xO>
   149a0:	3f7a9c59 3e5101f1 3f7a87c1 3e528b89     Y.z?..Q>..z?..R>
   149b0:	3f7a7302 3e541501 3f7a5e1c 3e559e58     .sz?..T>.^z?X.U>
   149c0:	3f7a4910 3e57278f 3f7a33dd 3e58b0a4     .Iz?.'W>.3z?..X>
   149d0:	3f7a1e84 3e5a3997 3f7a0904 3e5bc26a     ..z?.9Z>..z?j.[>
   149e0:	3f79f35e 3e5d4b1a 3f79dd91 3e5ed3a8     ^.y?.K]>..y?..^>
   149f0:	3f79c79d 3e605c13 3f79b183 3e61e45c     ..y?.\`>..y?\.a>
   14a00:	3f799b43 3e636c83 3f7984dc 3e64f486     C.y?.lc>..y?..d>
   14a10:	3f796e4e 3e667c66 3f79579a 3e680422     Nny?f|f>.Wy?".h>
   14a20:	3f7940c0 3e698bba 3f7929bf 3e6b132f     .@y?..i>.)y?/.k>
   14a30:	3f791298 3e6c9a7f 3f78fb4a 3e6e21ab     ..y?..l>J.x?.!n>
   14a40:	3f78e3d6 3e6fa8b2 3f78cc3b 3e712f94     ..x?..o>;.x?./q>
   14a50:	3f78b47b 3e72b651 3f789c93 3e743ce8     {.x?Q.r>..x?.<t>
   14a60:	3f788486 3e75c35a 3f786c52 3e7749a6     ..x?Z.u>Rlx?.Iw>
   14a70:	3f7853f8 3e78cfcc 3f783b77 3e7a55cb     .Sx?..x>w;x?.Uz>
   14a80:	3f7822d1 3e7bdba4 3f780a04 3e7d6156     ."x?..{>..x?Va}>
   14a90:	3f77f110 3e7ee6e1 3f77d7f7 3e803622     ..w?..~>..w?"6.>
   14aa0:	3f77beb7 3e80f8c0 3f77a551 3e81bb4a     ..w?...>Q.w?J..>
   14ab0:	3f778bc5 3e827dc0 3f777213 3e834022     ..w?.}.>.rw?"@.>
   14ac0:	3f77583a 3e840270 3f773e3c 3e84c4aa     :Xw?p..><>w?...>
   14ad0:	3f772417 3e8586ce 3f7709cc 3e8648df     .$w?...>..w?.H.>
   14ae0:	3f76ef5b 3e870ada 3f76d4c4 3e87ccc1     [.v?...>..v?...>
   14af0:	3f76ba07 3e888e93 3f769f24 3e895050     ..v?...>$.v?PP.>
   14b00:	3f76841b 3e8a11f8 3f7668ec 3e8ad38a     ..v?...>.hv?...>
   14b10:	3f764d97 3e8b9507 3f76321b 3e8c566e     .Mv?...>.2v?nV.>
   14b20:	3f76167a 3e8d17c0 3f75fab3 3e8dd8fc     z.v?...>..u?...>
   14b30:	3f75dec6 3e8e9a22 3f75c2b3 3e8f5b32     ..u?"..>..u?2[.>
   14b40:	3f75a67b 3e901c2c 3f758a1c 3e90dd10     {.u?,..>..u?...>
   14b50:	3f756d97 3e919ddd 3f7550ed 3e925e94     .mu?...>.Pu?.^.>
   14b60:	3f75341d 3e931f35 3f751727 3e93dfbf     .4u?5..>'.u?...>
   14b70:	3f74fa0b 3e94a031 3f74dcc9 3e95608d     ..t?1..>..t?.`.>
   14b80:	3f74bf62 3e9620d2 3f74a1d5 3e96e100     b.t?. .>..t?...>
   14b90:	3f748422 3e97a117 3f746649 3e986116     ".t?...>Ift?.a.>
   14ba0:	3f74484b 3e9920fe 3f742a27 3e99e0ce     KHt?. .>'*t?...>
   14bb0:	3f740bdd 3e9aa086 3f73ed6e 3e9b6027     ..t?...>n.s?'`.>
   14bc0:	3f73ced9 3e9c1faf 3f73b01f 3e9cdf20     ..s?...>..s? ..>
   14bd0:	3f73913f 3e9d9e78 3f737239 3e9e5db8     ?.s?x..>9rs?.].>
   14be0:	3f73530e 3e9f1cdf 3f7333be 3e9fdbee     .Ss?...>.3s?...>
   14bf0:	3f731447 3ea09ae5 3f72f4ac 3ea159c2     G.s?...>..r?.Y.>
   14c00:	3f72d4eb 3ea21887 3f72b504 3ea2d733     ..r?...>..r?3..>
   14c10:	3f7294f8 3ea395c5 3f7274c7 3ea4543f     ..r?...>.tr??T.>
   14c20:	3f725470 3ea5129f 3f7233f4 3ea5d0e5     pTr?...>.3r?...>
   14c30:	3f721352 3ea68f12 3f71f28c 3ea74d25     R.r?...>..q?%M.>
   14c40:	3f71d19f 3ea80b1f 3f71b08e 3ea8c8fe     ..q?...>..q?...>
   14c50:	3f718f57 3ea986c4 3f716dfb 3eaa446f     W.q?...>.mq?oD.>
   14c60:	3f714c7a 3eab0201 3f712ad4 3eabbf77     zLq?...>.*q?w..>
   14c70:	3f710908 3eac7cd4 3f70e717 3ead3a15     ..q?.|.>..p?.:.>
   14c80:	3f70c502 3eadf73c 3f70a2c6 3eaeb449     ..p?<..>..p?I..>
   14c90:	3f708066 3eaf713a 3f705de1 3eb02e10     f.p?:q.>.]p?...>
   14ca0:	3f703b37 3eb0eacb 3f701867 3eb1a76b     7;p?...>g.p?k..>
   14cb0:	3f6ff573 3eb263ef 3f6fd25a 3eb32058     s.o?.c.>Z.o?X .>
   14cc0:	3f6faf1b 3eb3dca5 3f6f8bb8 3eb498d6     ..o?...>..o?...>
   14cd0:	3f6f6830 3eb554ec 3f6f4483 3eb610e6     0ho?.T.>.Do?...>
   14ce0:	3f6f20b0 3eb6ccc3 3f6efcba 3eb78884     . o?...>..n?...>
   14cf0:	3f6ed89e 3eb8442a 3f6eb45d 3eb8ffb2     ..n?*D.>].n?...>
   14d00:	3f6e8ff8 3eb9bb1e 3f6e6b6d 3eba766e     ..n?...>mkn?nv.>
   14d10:	3f6e46be 3ebb31a0 3f6e21eb 3ebbecb6     .Fn?.1.>.!n?...>
   14d20:	3f6dfcf2 3ebca7af 3f6dd7d5 3ebd628b     ..m?...>..m?.b.>
   14d30:	3f6db293 3ebe1d4a 3f6d8d2d 3ebed7eb     ..m?J..>-.m?...>
   14d40:	3f6d67a1 3ebf926f 3f6d41f2 3ec04cd5     .gm?o..>.Am?.L.>
   14d50:	3f6d1c1d 3ec1071e 3f6cf624 3ec1c148     ..m?...>$.l?H..>
   14d60:	3f6cd007 3ec27b55 3f6ca9c5 3ec33544     ..l?U{.>..l?D5.>
   14d70:	3f6c835e 3ec3ef15 3f6c5cd4 3ec4a8c8     ^.l?...>.\l?...>
   14d80:	3f6c3624 3ec5625c 3f6c0f50 3ec61bd2     $6l?\b.>P.l?...>
   14d90:	3f6be858 3ec6d529 3f6bc13b 3ec78e62     X.k?)..>;.k?b..>
   14da0:	3f6b99fb 3ec8477c 3f6b7295 3ec90077     ..k?|G.>.rk?w..>
   14db0:	3f6b4b0c 3ec9b953 3f6b235e 3eca7210     .Kk?S..>^#k?.r.>
   14dc0:	3f6afb8c 3ecb2aae 3f6ad395 3ecbe32c     ..j?.*.>..j?,..>
   14dd0:	3f6aab7b 3ecc9b8b 3f6a833c 3ecd53ca     {.j?...><.j?.S.>
   14de0:	3f6a5ad9 3ece0bea 3f6a3252 3ecec3ea     .Zj?...>R2j?...>
   14df0:	3f6a09a7 3ecf7bca 3f69e0d7 3ed0338a     ..j?.{.>..i?.3.>
   14e00:	3f69b7e4 3ed0eb2a 3f698ecc 3ed1a2aa     ..i?*..>..i?...>
   14e10:	3f696591 3ed25a09 3f693c32 3ed31148     .ei?.Z.>2<i?H..>
   14e20:	3f6912ae 3ed3c867 3f68e907 3ed47f64     ..i?g..>..h?d..>
   14e30:	3f68bf3c 3ed53641 3f68954c 3ed5ecfd     <.h?A6.>L.h?...>
   14e40:	3f686b39 3ed6a399 3f684103 3ed75a13     9kh?...>.Ah?.Z.>
   14e50:	3f6816a8 3ed8106b 3f67ec2a 3ed8c6a3     ..h?k..>*.g?...>
   14e60:	3f67c187 3ed97cb9 3f6796c1 3eda32ad     ..g?.|.>..g?.2.>
   14e70:	3f676bd8 3edae880 3f6740ca 3edb9e31     .kg?...>.@g?1..>
   14e80:	3f671599 3edc53c1 3f66ea45 3edd092e     ..g?.S.>E.f?...>
   14e90:	3f66becc 3eddbe79 3f669330 3ede73a2     ..f?y..>0.f?.s.>
   14ea0:	3f666771 3edf28a9 3f663b8e 3edfdd8d     qgf?.(.>.;f?...>
   14eb0:	3f660f88 3ee0924f 3f65e35e 3ee146ee     ..f?O..>^.e?.F.>
   14ec0:	3f65b710 3ee1fb6a 3f658aa0 3ee2afc4     ..e?j..>..e?...>
   14ed0:	3f655e0b 3ee363fa 3f653154 3ee4180e     .^e?.c.>T1e?...>
   14ee0:	3f650479 3ee4cbfe 3f64d77b 3ee57fcb     y.e?...>{.d?...>
   14ef0:	3f64aa59 3ee63375 3f647d14 3ee6e6fb     Y.d?u3.>.}d?...>
   14f00:	3f644fac 3ee79a5d 3f642221 3ee84d9c     .Od?]..>!"d?.M.>
   14f10:	3f63f473 3ee900b7 3f63c6a1 3ee9b3ae     s.c?...>..c?...>
   14f20:	3f6398ac 3eea6681 3f636a95 3eeb1930     ..c?.f.>.jc?0..>
   14f30:	3f633c5a 3eebcbbb 3f630dfc 3eec7e21     Z<c?...>..c?!~.>
   14f40:	3f62df7b 3eed3063 3f62b0d7 3eede280     {.b?c0.>..b?...>
   14f50:	3f628210 3eee9479 3f625326 3eef464c     ..b?y..>&Sb?LF.>
   14f60:	3f62241a 3eeff7fb 3f61f4ea 3ef0a985     .$b?...>..a?...>
   14f70:	3f61c598 3ef15aea 3f619622 3ef20c29     ..a?.Z.>".a?)..>
   14f80:	3f61668a 3ef2bd43 3f6136d0 3ef36e38     .fa?C..>.6a?8n.>
   14f90:	3f6106f2 3ef41f07 3f60d6f2 3ef4cfb1     ..a?...>..`?...>
   14fa0:	3f60a6cf 3ef58035 3f607689 3ef63093     ..`?5..>.v`?.0.>
   14fb0:	3f604621 3ef6e0cb 3f601596 3ef790dc     !F`?...>..`?...>
   14fc0:	3f5fe4e9 3ef840c8 3f5fb419 3ef8f08e     .._?.@.>.._?...>
   14fd0:	3f5f8327 3ef9a02d 3f5f5212 3efa4fa5     '._?-..>.R_?.O.>
   14fe0:	3f5f20db 3efafef7 3f5eef81 3efbae22     . _?...>..^?"..>
   14ff0:	3f5ebe05 3efc5d27 3f5e8c67 3efd0c04     ..^?'].>g.^?...>
   15000:	3f5e5aa6 3efdbabb 3f5e28c3 3efe694a     .Z^?...>.(^?Ji.>
   15010:	3f5df6be 3eff17b2 3f5dc497 3effc5f3     ..]?...>..]?...>
   15020:	3f5d924d 3f003a06 3f5d5fe1 3f0090ff     M.]?.:.?._]?...?
   15030:	3f5d2d53 3f00e7e4 3f5cfaa3 3f013eb5     S-]?...?..\?.>.?
   15040:	3f5cc7d1 3f019573 3f5c94dd 3f01ec1c     ..\?s..?..\?...?
   15050:	3f5c61c7 3f0242b1 3f5c2e8e 3f029932     .a\?.B.?..\?2..?
   15060:	3f5bfb34 3f02ef9f 3f5bc7b8 3f0345f8     4.[?...?..[?.E.?
   15070:	3f5b941a 3f039c3d 3f5b605a 3f03f26d     ..[?=..?Z`[?m..?
   15080:	3f5b2c79 3f044889 3f5af875 3f049e91     y,[?.H.?u.Z?...?
   15090:	3f5ac450 3f04f484 3f5a9009 3f054a62     P.Z?...?..Z?bJ.?
   150a0:	3f5a5ba0 3f05a02c 3f5a2716 3f05f5e2     .[Z?,..?.'Z?...?
   150b0:	3f59f26a 3f064b82 3f59bd9c 3f06a10e     j.Y?.K.?..Y?...?
   150c0:	3f5988ad 3f06f686 3f59539c 3f074be8     ..Y?...?.SY?.K.?
   150d0:	3f591e6a 3f07a136 3f58e917 3f07f66f     j.Y?6..?..X?o..?
   150e0:	3f58b3a1 3f084b92 3f587e0b 3f08a0a1     ..X?.K.?.~X?...?
   150f0:	3f584853 3f08f59b 3f581279 3f094a7f     SHX?...?y.X?.J.?
   15100:	3f57dc7f 3f099f4e 3f57a663 3f09f409     ..W?N..?c.W?...?
   15110:	3f577026 3f0a48ad 3f5739c7 3f0a9d3d     &pW?.H.?.9W?=..?
   15120:	3f570348 3f0af1b7 3f56cca7 3f0b461c     H.W?...?..V?.F.?
   15130:	3f5695e5 3f0b9a6b 3f565f02 3f0beea5     ..V?k..?._V?...?
   15140:	3f5627fe 3f0c42c9 3f55f0d9 3f0c96d7     .'V?.B.?..U?...?
   15150:	3f55b993 3f0cead0 3f55822c 3f0d3eb3     ..U?...?,.U?.>.?
   15160:	3f554aa4 3f0d9281 3f5512fb 3f0de638     .JU?...?..U?8..?
   15170:	3f54db31 3f0e39da 3f54a347 3f0e8d65     1.T?.9.?G.T?e..?
   15180:	3f546b3b 3f0ee0db 3f54330f 3f0f343b     ;kT?...?.3T?;4.?
   15190:	3f53fac3 3f0f8784 3f53c255 3f0fdab8     ..S?...?U.S?...?
   151a0:	3f5389c7 3f102dd5 3f535118 3f1080dc     ..S?.-.?.QS?...?
   151b0:	3f531849 3f10d3cd 3f52df59 3f1126a7     I.S?...?Y.R?.&.?
   151c0:	3f52a649 3f11796b 3f526d18 3f11cc19     I.R?ky.?.mR?...?
   151d0:	3f5233c6 3f121eb0 3f51fa54 3f127130     .3R?...?T.Q?0q.?
   151e0:	3f51c0c2 3f12c39a 3f518710 3f1315ee     ..Q?...?..Q?...?
   151f0:	3f514d3d 3f13682a 3f51134a 3f13ba50     =MQ?*h.?J.Q?P..?
   15200:	3f50d937 3f140c5f 3f509f03 3f145e58     7.P?_..?..P?X^.?
   15210:	3f5064af 3f14b039 3f502a3b 3f150204     .dP?9..?;*P?...?
   15220:	3f4fefa8 3f1553b7 3f4fb4f4 3f15a554     ..O?.S.?..O?T..?
   15230:	3f4f7a1f 3f15f6d9 3f4f3f2b 3f164847     .zO?...?+?O?GH.?
   15240:	3f4f0417 3f16999f 3f4ec8e4 3f16eadf     ..O?...?..N?...?
   15250:	3f4e8d90 3f173c07 3f4e521c 3f178d18     ..N?.<.?.RN?...?
   15260:	3f4e1689 3f17de12 3f4ddad5 3f182ef5     ..N?...?..M?...?
   15270:	3f4d9f02 3f187fc0 3f4d6310 3f18d073     ..M?...?.cM?s..?
   15280:	3f4d26fd 3f19210f 3f4ceacb 3f197194     .&M?.!.?..L?.q.?
   15290:	3f4cae79 3f19c200 3f4c7208 3f1a1255     y.L?...?.rL?U..?
   152a0:	3f4c3578 3f1a6293 3f4bf8c7 3f1ab2b8     x5L?.b.?..K?...?
   152b0:	3f4bbbf8 3f1b02c6 3f4b7f09 3f1b52bb     ..K?...?..K?.R.?
   152c0:	3f4b41fa 3f1ba299 3f4b04cc 3f1bf25f     .AK?...?..K?_..?
   152d0:	3f4ac77f 3f1c420c 3f4a8a13 3f1c91a2     ..J?.B.?..J?...?
   152e0:	3f4a4c87 3f1ce11f 3f4a0edc 3f1d3084     .LJ?...?..J?.0.?
   152f0:	3f49d112 3f1d7fd1 3f499329 3f1dcf06     ..I?...?).I?...?
   15300:	3f495521 3f1e1e22 3f4916fa 3f1e6d26     !UI?"..?..I?&m.?
   15310:	3f48d8b3 3f1ebc12 3f489a4e 3f1f0ae5     ..H?...?N.H?...?
   15320:	3f485bca 3f1f599f 3f481d27 3f1fa841     .[H?.Y.?'.H?A..?
   15330:	3f47de65 3f1ff6cb 3f479f84 3f20453b     e.G?...?..G?;E ?
   15340:	3f476085 3f209393 3f472167 3f20e1d2     .`G?.. ?g!G?.. ?
   15350:	3f46e22a 3f212ff9 3f46a2ce 3f217e06     *.F?./!?..F?.~!?
   15360:	3f466354 3f21cbfb 3f4623bb 3f2219d7     TcF?..!?.#F?.."?
   15370:	3f45e403 3f226799 3f45a42d 3f22b543     ..E?.g"?-.E?C."?
   15380:	3f456439 3f2302d3 3f452426 3f23504b     9dE?..#?&$E?KP#?
   15390:	3f44e3f5 3f239da9 3f44a3a5 3f23eaee     ..D?..#?..D?..#?
   153a0:	3f446337 3f24381a 3f4422ab 3f24852c     7cD?.8$?."D?,.$?
   153b0:	3f43e200 3f24d225 3f43a138 3f251f04     ..C?%.$?8.C?..%?
   153c0:	3f436051 3f256bcb 3f431f4c 3f25b877     Q`C?.k%?L.C?w.%?
   153d0:	3f42de29 3f26050a 3f429ce8 3f265184     ).B?..&?..B?.Q&?
   153e0:	3f425b89 3f269de3 3f421a0b 3f26ea2a     .[B?..&?..B?*.&?
   153f0:	3f41d870 3f273656 3f4196b7 3f278268     p.A?V6'?..A?h.'?
   15400:	3f4154e1 3f27ce61 3f4112ec 3f281a40     .TA?a.'?..A?@.(?
   15410:	3f40d0da 3f286605 3f408ea9 3f28b1b0     ..@?.f(?..@?..(?
   15420:	3f404c5c 3f28fd41 3f4009f0 3f2948b8     \L@?A.(?..@?.H)?
   15430:	3f3fc767 3f299415 3f3f84c0 3f29df57     g.??..)?..??W.)?
   15440:	3f3f41fc 3f2a2a80 3f3eff1b 3f2a758e     .A??.**?..>?.u*?
   15450:	3f3ebc1b 3f2ac082 3f3e78ff 3f2b0b5b     ..>?..*?.x>?[.+?
   15460:	3f3e35c5 3f2b561b 3f3df26e 3f2ba0bf     .5>?.V+?n.=?..+?
   15470:	3f3daef9 3f2beb4a 3f3d6b67 3f2c35b9     ..=?J.+?gk=?.5,?
   15480:	3f3d27b8 3f2c800f 3f3ce3ec 3f2cca49     .'=?..,?..<?I.,?
   15490:	3f3ca003 3f2d1469 3f3c5bfc 3f2d5e6f     ..<?i.-?.[<?o^-?
   154a0:	3f3c17d9 3f2da859 3f3bd398 3f2df229     ..<?Y.-?..;?).-?
   154b0:	3f3b8f3b 3f2e3bde 3f3b4ac1 3f2e8578     ;.;?.;.?.J;?x..?
   154c0:	3f3b0629 3f2ecef7 3f3ac175 3f2f185b     ).;?...?u.:?[./?
   154d0:	3f3a7ca4 3f2f61a5 3f3a37b7 3f2faad3     .|:?.a/?.7:?../?
   154e0:	3f39f2ac 3f2ff3e6 3f39ad85 3f303cde     ..9?../?..9?.<0?
   154f0:	3f396842 3f3085bb 3f3922e1 3f30ce7c     Bh9?..0?."9?|.0?
   15500:	3f38dd65 3f311722 3f3897cb 3f315fad     e.8?".1?..8?._1?
   15510:	3f385216 3f31a81d 3f380c43 3f31f071     .R8?..1?C.8?q.1?
   15520:	3f37c655 3f3238aa 3f37804a 3f3280c7     U.7?.82?J.7?..2?
   15530:	3f373a23 3f32c8c9 3f36f3df 3f3310af     #:7?..2?..6?..3?
   15540:	3f36ad7f 3f33587a 3f366704 3f33a029     ..6?zX3?.g6?).3?
   15550:	3f36206c 3f33e7bc 3f35d9b8 3f342f34     l 6?..3?..5?4/4?
   15560:	3f3592e7 3f34768f 3f354bfb 3f34bdcf     ..5?.v4?.K5?..4?
   15570:	3f3504f3 3f3504f3 3f34bdcf 3f354bfb     ..5?..5?..4?.K5?
   15580:	3f34768f 3f3592e7 3f342f34 3f35d9b8     .v4?..5?4/4?..5?
   15590:	3f33e7bc 3f36206c 3f33a029 3f366704     ..3?l 6?).3?.g6?
   155a0:	3f33587a 3f36ad7f 3f3310af 3f36f3df     zX3?..6?..3?..6?
   155b0:	3f32c8c9 3f373a23 3f3280c7 3f37804a     ..2?#:7?..2?J.7?
   155c0:	3f3238aa 3f37c655 3f31f071 3f380c43     .82?U.7?q.1?C.8?
   155d0:	3f31a81d 3f385216 3f315fad 3f3897cb     ..1?.R8?._1?..8?
   155e0:	3f311722 3f38dd65 3f30ce7c 3f3922e1     ".1?e.8?|.0?."9?
   155f0:	3f3085bb 3f396842 3f303cde 3f39ad85     ..0?Bh9?.<0?..9?
   15600:	3f2ff3e6 3f39f2ac 3f2faad3 3f3a37b7     ../?..9?../?.7:?
   15610:	3f2f61a5 3f3a7ca4 3f2f185b 3f3ac175     .a/?.|:?[./?u.:?
   15620:	3f2ecef7 3f3b0629 3f2e8578 3f3b4ac1     ...?).;?x..?.J;?
   15630:	3f2e3bde 3f3b8f3b 3f2df229 3f3bd398     .;.?;.;?).-?..;?
   15640:	3f2da859 3f3c17d9 3f2d5e6f 3f3c5bfc     Y.-?..<?o^-?.[<?
   15650:	3f2d1469 3f3ca003 3f2cca49 3f3ce3ec     i.-?..<?I.,?..<?
   15660:	3f2c800f 3f3d27b8 3f2c35b9 3f3d6b67     ..,?.'=?.5,?gk=?
   15670:	3f2beb4a 3f3daef9 3f2ba0bf 3f3df26e     J.+?..=?..+?n.=?
   15680:	3f2b561b 3f3e35c5 3f2b0b5b 3f3e78ff     .V+?.5>?[.+?.x>?
   15690:	3f2ac082 3f3ebc1b 3f2a758e 3f3eff1b     ..*?..>?.u*?..>?
   156a0:	3f2a2a80 3f3f41fc 3f29df57 3f3f84c0     .**?.A??W.)?..??
   156b0:	3f299415 3f3fc767 3f2948b8 3f4009f0     ..)?g.??.H)?..@?
   156c0:	3f28fd41 3f404c5c 3f28b1b0 3f408ea9     A.(?\L@?..(?..@?
   156d0:	3f286605 3f40d0da 3f281a40 3f4112ec     .f(?..@?@.(?..A?
   156e0:	3f27ce61 3f4154e1 3f278268 3f4196b7     a.'?.TA?h.'?..A?
   156f0:	3f273656 3f41d870 3f26ea2a 3f421a0b     V6'?p.A?*.&?..B?
   15700:	3f269de3 3f425b89 3f265184 3f429ce8     ..&?.[B?.Q&?..B?
   15710:	3f26050a 3f42de29 3f25b877 3f431f4c     ..&?).B?w.%?L.C?
   15720:	3f256bcb 3f436051 3f251f04 3f43a138     .k%?Q`C?..%?8.C?
   15730:	3f24d225 3f43e200 3f24852c 3f4422ab     %.$?..C?,.$?."D?
   15740:	3f24381a 3f446337 3f23eaee 3f44a3a5     .8$?7cD?..#?..D?
   15750:	3f239da9 3f44e3f5 3f23504b 3f452426     ..#?..D?KP#?&$E?
   15760:	3f2302d3 3f456439 3f22b543 3f45a42d     ..#?9dE?C."?-.E?
   15770:	3f226799 3f45e403 3f2219d7 3f4623bb     .g"?..E?.."?.#F?
   15780:	3f21cbfb 3f466354 3f217e06 3f46a2ce     ..!?TcF?.~!?..F?
   15790:	3f212ff9 3f46e22a 3f20e1d2 3f472167     ./!?*.F?.. ?g!G?
   157a0:	3f209393 3f476085 3f20453b 3f479f84     .. ?.`G?;E ?..G?
   157b0:	3f1ff6cb 3f47de65 3f1fa841 3f481d27     ...?e.G?A..?'.H?
   157c0:	3f1f599f 3f485bca 3f1f0ae5 3f489a4e     .Y.?.[H?...?N.H?
   157d0:	3f1ebc12 3f48d8b3 3f1e6d26 3f4916fa     ...?..H?&m.?..I?
   157e0:	3f1e1e22 3f495521 3f1dcf06 3f499329     "..?!UI?...?).I?
   157f0:	3f1d7fd1 3f49d112 3f1d3084 3f4a0edc     ...?..I?.0.?..J?
   15800:	3f1ce11f 3f4a4c87 3f1c91a2 3f4a8a13     ...?.LJ?...?..J?
   15810:	3f1c420c 3f4ac77f 3f1bf25f 3f4b04cc     .B.?..J?_..?..K?
   15820:	3f1ba299 3f4b41fa 3f1b52bb 3f4b7f09     ...?.AK?.R.?..K?
   15830:	3f1b02c6 3f4bbbf8 3f1ab2b8 3f4bf8c7     ...?..K?...?..K?
   15840:	3f1a6293 3f4c3578 3f1a1255 3f4c7208     .b.?x5L?U..?.rL?
   15850:	3f19c200 3f4cae79 3f197194 3f4ceacb     ...?y.L?.q.?..L?
   15860:	3f19210f 3f4d26fd 3f18d073 3f4d6310     .!.?.&M?s..?.cM?
   15870:	3f187fc0 3f4d9f02 3f182ef5 3f4ddad5     ...?..M?...?..M?
   15880:	3f17de12 3f4e1689 3f178d18 3f4e521c     ...?..N?...?.RN?
   15890:	3f173c07 3f4e8d90 3f16eadf 3f4ec8e4     .<.?..N?...?..N?
   158a0:	3f16999f 3f4f0417 3f164847 3f4f3f2b     ...?..O?GH.?+?O?
   158b0:	3f15f6d9 3f4f7a1f 3f15a554 3f4fb4f4     ...?.zO?T..?..O?
   158c0:	3f1553b7 3f4fefa8 3f150204 3f502a3b     .S.?..O?...?;*P?
   158d0:	3f14b039 3f5064af 3f145e58 3f509f03     9..?.dP?X^.?..P?
   158e0:	3f140c5f 3f50d937 3f13ba50 3f51134a     _..?7.P?P..?J.Q?
   158f0:	3f13682a 3f514d3d 3f1315ee 3f518710     *h.?=MQ?...?..Q?
   15900:	3f12c39a 3f51c0c2 3f127130 3f51fa54     ...?..Q?0q.?T.Q?
   15910:	3f121eb0 3f5233c6 3f11cc19 3f526d18     ...?.3R?...?.mR?
   15920:	3f11796b 3f52a649 3f1126a7 3f52df59     ky.?I.R?.&.?Y.R?
   15930:	3f10d3cd 3f531849 3f1080dc 3f535118     ...?I.S?...?.QS?
   15940:	3f102dd5 3f5389c7 3f0fdab8 3f53c255     .-.?..S?...?U.S?
   15950:	3f0f8784 3f53fac3 3f0f343b 3f54330f     ...?..S?;4.?.3T?
   15960:	3f0ee0db 3f546b3b 3f0e8d65 3f54a347     ...?;kT?e..?G.T?
   15970:	3f0e39da 3f54db31 3f0de638 3f5512fb     .9.?1.T?8..?..U?
   15980:	3f0d9281 3f554aa4 3f0d3eb3 3f55822c     ...?.JU?.>.?,.U?
   15990:	3f0cead0 3f55b993 3f0c96d7 3f55f0d9     ...?..U?...?..U?
   159a0:	3f0c42c9 3f5627fe 3f0beea5 3f565f02     .B.?.'V?...?._V?
   159b0:	3f0b9a6b 3f5695e5 3f0b461c 3f56cca7     k..?..V?.F.?..V?
   159c0:	3f0af1b7 3f570348 3f0a9d3d 3f5739c7     ...?H.W?=..?.9W?
   159d0:	3f0a48ad 3f577026 3f09f409 3f57a663     .H.?&pW?...?c.W?
   159e0:	3f099f4e 3f57dc7f 3f094a7f 3f581279     N..?..W?.J.?y.X?
   159f0:	3f08f59b 3f584853 3f08a0a1 3f587e0b     ...?SHX?...?.~X?
   15a00:	3f084b92 3f58b3a1 3f07f66f 3f58e917     .K.?..X?o..?..X?
   15a10:	3f07a136 3f591e6a 3f074be8 3f59539c     6..?j.Y?.K.?.SY?
   15a20:	3f06f686 3f5988ad 3f06a10e 3f59bd9c     ...?..Y?...?..Y?
   15a30:	3f064b82 3f59f26a 3f05f5e2 3f5a2716     .K.?j.Y?...?.'Z?
   15a40:	3f05a02c 3f5a5ba0 3f054a62 3f5a9009     ,..?.[Z?bJ.?..Z?
   15a50:	3f04f484 3f5ac450 3f049e91 3f5af875     ...?P.Z?...?u.Z?
   15a60:	3f044889 3f5b2c79 3f03f26d 3f5b605a     .H.?y,[?m..?Z`[?
   15a70:	3f039c3d 3f5b941a 3f0345f8 3f5bc7b8     =..?..[?.E.?..[?
   15a80:	3f02ef9f 3f5bfb34 3f029932 3f5c2e8e     ...?4.[?2..?..\?
   15a90:	3f0242b1 3f5c61c7 3f01ec1c 3f5c94dd     .B.?.a\?...?..\?
   15aa0:	3f019573 3f5cc7d1 3f013eb5 3f5cfaa3     s..?..\?.>.?..\?
   15ab0:	3f00e7e4 3f5d2d53 3f0090ff 3f5d5fe1     ...?S-]?...?._]?
   15ac0:	3f003a06 3f5d924d 3effc5f3 3f5dc497     .:.?M.]?...>..]?
   15ad0:	3eff17b2 3f5df6be 3efe694a 3f5e28c3     ...>..]?Ji.>.(^?
   15ae0:	3efdbabb 3f5e5aa6 3efd0c04 3f5e8c67     ...>.Z^?...>g.^?
   15af0:	3efc5d27 3f5ebe05 3efbae22 3f5eef81     '].>..^?"..>..^?
   15b00:	3efafef7 3f5f20db 3efa4fa5 3f5f5212     ...>. _?.O.>.R_?
   15b10:	3ef9a02d 3f5f8327 3ef8f08e 3f5fb419     -..>'._?...>.._?
   15b20:	3ef840c8 3f5fe4e9 3ef790dc 3f601596     .@.>.._?...>..`?
   15b30:	3ef6e0cb 3f604621 3ef63093 3f607689     ...>!F`?.0.>.v`?
   15b40:	3ef58035 3f60a6cf 3ef4cfb1 3f60d6f2     5..>..`?...>..`?
   15b50:	3ef41f07 3f6106f2 3ef36e38 3f6136d0     ...>..a?8n.>.6a?
   15b60:	3ef2bd43 3f61668a 3ef20c29 3f619622     C..>.fa?)..>".a?
   15b70:	3ef15aea 3f61c598 3ef0a985 3f61f4ea     .Z.>..a?...>..a?
   15b80:	3eeff7fb 3f62241a 3eef464c 3f625326     ...>.$b?LF.>&Sb?
   15b90:	3eee9479 3f628210 3eede280 3f62b0d7     y..>..b?...>..b?
   15ba0:	3eed3063 3f62df7b 3eec7e21 3f630dfc     c0.>{.b?!~.>..c?
   15bb0:	3eebcbbb 3f633c5a 3eeb1930 3f636a95     ...>Z<c?0..>.jc?
   15bc0:	3eea6681 3f6398ac 3ee9b3ae 3f63c6a1     .f.>..c?...>..c?
   15bd0:	3ee900b7 3f63f473 3ee84d9c 3f642221     ...>s.c?.M.>!"d?
   15be0:	3ee79a5d 3f644fac 3ee6e6fb 3f647d14     ]..>.Od?...>.}d?
   15bf0:	3ee63375 3f64aa59 3ee57fcb 3f64d77b     u3.>Y.d?...>{.d?
   15c00:	3ee4cbfe 3f650479 3ee4180e 3f653154     ...>y.e?...>T1e?
   15c10:	3ee363fa 3f655e0b 3ee2afc4 3f658aa0     .c.>.^e?...>..e?
   15c20:	3ee1fb6a 3f65b710 3ee146ee 3f65e35e     j..>..e?.F.>^.e?
   15c30:	3ee0924f 3f660f88 3edfdd8d 3f663b8e     O..>..f?...>.;f?
   15c40:	3edf28a9 3f666771 3ede73a2 3f669330     .(.>qgf?.s.>0.f?
   15c50:	3eddbe79 3f66becc 3edd092e 3f66ea45     y..>..f?...>E.f?
   15c60:	3edc53c1 3f671599 3edb9e31 3f6740ca     .S.>..g?1..>.@g?
   15c70:	3edae880 3f676bd8 3eda32ad 3f6796c1     ...>.kg?.2.>..g?
   15c80:	3ed97cb9 3f67c187 3ed8c6a3 3f67ec2a     .|.>..g?...>*.g?
   15c90:	3ed8106b 3f6816a8 3ed75a13 3f684103     k..>..h?.Z.>.Ah?
   15ca0:	3ed6a399 3f686b39 3ed5ecfd 3f68954c     ...>9kh?...>L.h?
   15cb0:	3ed53641 3f68bf3c 3ed47f64 3f68e907     A6.><.h?d..>..h?
   15cc0:	3ed3c867 3f6912ae 3ed31148 3f693c32     g..>..i?H..>2<i?
   15cd0:	3ed25a09 3f696591 3ed1a2aa 3f698ecc     .Z.>.ei?...>..i?
   15ce0:	3ed0eb2a 3f69b7e4 3ed0338a 3f69e0d7     *..>..i?.3.>..i?
   15cf0:	3ecf7bca 3f6a09a7 3ecec3ea 3f6a3252     .{.>..j?...>R2j?
   15d00:	3ece0bea 3f6a5ad9 3ecd53ca 3f6a833c     ...>.Zj?.S.><.j?
   15d10:	3ecc9b8b 3f6aab7b 3ecbe32c 3f6ad395     ...>{.j?,..>..j?
   15d20:	3ecb2aae 3f6afb8c 3eca7210 3f6b235e     .*.>..j?.r.>^#k?
   15d30:	3ec9b953 3f6b4b0c 3ec90077 3f6b7295     S..>.Kk?w..>.rk?
   15d40:	3ec8477c 3f6b99fb 3ec78e62 3f6bc13b     |G.>..k?b..>;.k?
   15d50:	3ec6d529 3f6be858 3ec61bd2 3f6c0f50     )..>X.k?...>P.l?
   15d60:	3ec5625c 3f6c3624 3ec4a8c8 3f6c5cd4     \b.>$6l?...>.\l?
   15d70:	3ec3ef15 3f6c835e 3ec33544 3f6ca9c5     ...>^.l?D5.>..l?
   15d80:	3ec27b55 3f6cd007 3ec1c148 3f6cf624     U{.>..l?H..>$.l?
   15d90:	3ec1071e 3f6d1c1d 3ec04cd5 3f6d41f2     ...>..m?.L.>.Am?
   15da0:	3ebf926f 3f6d67a1 3ebed7eb 3f6d8d2d     o..>.gm?...>-.m?
   15db0:	3ebe1d4a 3f6db293 3ebd628b 3f6dd7d5     J..>..m?.b.>..m?
   15dc0:	3ebca7af 3f6dfcf2 3ebbecb6 3f6e21eb     ...>..m?...>.!n?
   15dd0:	3ebb31a0 3f6e46be 3eba766e 3f6e6b6d     .1.>.Fn?nv.>mkn?
   15de0:	3eb9bb1e 3f6e8ff8 3eb8ffb2 3f6eb45d     ...>..n?...>].n?
   15df0:	3eb8442a 3f6ed89e 3eb78884 3f6efcba     *D.>..n?...>..n?
   15e00:	3eb6ccc3 3f6f20b0 3eb610e6 3f6f4483     ...>. o?...>.Do?
   15e10:	3eb554ec 3f6f6830 3eb498d6 3f6f8bb8     .T.>0ho?...>..o?
   15e20:	3eb3dca5 3f6faf1b 3eb32058 3f6fd25a     ...>..o?X .>Z.o?
   15e30:	3eb263ef 3f6ff573 3eb1a76b 3f701867     .c.>s.o?k..>g.p?
   15e40:	3eb0eacb 3f703b37 3eb02e10 3f705de1     ...>7;p?...>.]p?
   15e50:	3eaf713a 3f708066 3eaeb449 3f70a2c6     :q.>f.p?I..>..p?
   15e60:	3eadf73c 3f70c502 3ead3a15 3f70e717     <..>..p?.:.>..p?
   15e70:	3eac7cd4 3f710908 3eabbf77 3f712ad4     .|.>..q?w..>.*q?
   15e80:	3eab0201 3f714c7a 3eaa446f 3f716dfb     ...>zLq?oD.>.mq?
   15e90:	3ea986c4 3f718f57 3ea8c8fe 3f71b08e     ...>W.q?...>..q?
   15ea0:	3ea80b1f 3f71d19f 3ea74d25 3f71f28c     ...>..q?%M.>..q?
   15eb0:	3ea68f12 3f721352 3ea5d0e5 3f7233f4     ...>R.r?...>.3r?
   15ec0:	3ea5129f 3f725470 3ea4543f 3f7274c7     ...>pTr??T.>.tr?
   15ed0:	3ea395c5 3f7294f8 3ea2d733 3f72b504     ...>..r?3..>..r?
   15ee0:	3ea21887 3f72d4eb 3ea159c2 3f72f4ac     ...>..r?.Y.>..r?
   15ef0:	3ea09ae5 3f731447 3e9fdbee 3f7333be     ...>G.s?...>.3s?
   15f00:	3e9f1cdf 3f73530e 3e9e5db8 3f737239     ...>.Ss?.].>9rs?
   15f10:	3e9d9e78 3f73913f 3e9cdf20 3f73b01f     x..>?.s? ..>..s?
   15f20:	3e9c1faf 3f73ced9 3e9b6027 3f73ed6e     ...>..s?'`.>n.s?
   15f30:	3e9aa086 3f740bdd 3e99e0ce 3f742a27     ...>..t?...>'*t?
   15f40:	3e9920fe 3f74484b 3e986116 3f746649     . .>KHt?.a.>Ift?
   15f50:	3e97a117 3f748422 3e96e100 3f74a1d5     ...>".t?...>..t?
   15f60:	3e9620d2 3f74bf62 3e95608d 3f74dcc9     . .>b.t?.`.>..t?
   15f70:	3e94a031 3f74fa0b 3e93dfbf 3f751727     1..>..t?...>'.u?
   15f80:	3e931f35 3f75341d 3e925e94 3f7550ed     5..>.4u?.^.>.Pu?
   15f90:	3e919ddd 3f756d97 3e90dd10 3f758a1c     ...>.mu?...>..u?
   15fa0:	3e901c2c 3f75a67b 3e8f5b32 3f75c2b3     ,..>{.u?2[.>..u?
   15fb0:	3e8e9a22 3f75dec6 3e8dd8fc 3f75fab3     "..>..u?...>..u?
   15fc0:	3e8d17c0 3f76167a 3e8c566e 3f76321b     ...>z.v?nV.>.2v?
   15fd0:	3e8b9507 3f764d97 3e8ad38a 3f7668ec     ...>.Mv?...>.hv?
   15fe0:	3e8a11f8 3f76841b 3e895050 3f769f24     ...>..v?PP.>$.v?
   15ff0:	3e888e93 3f76ba07 3e87ccc1 3f76d4c4     ...>..v?...>..v?
   16000:	3e870ada 3f76ef5b 3e8648df 3f7709cc     ...>[.v?.H.>..w?
   16010:	3e8586ce 3f772417 3e84c4aa 3f773e3c     ...>.$w?...><>w?
   16020:	3e840270 3f77583a 3e834022 3f777213     p..>:Xw?"@.>.rw?
   16030:	3e827dc0 3f778bc5 3e81bb4a 3f77a551     .}.>..w?J..>Q.w?
   16040:	3e80f8c0 3f77beb7 3e803622 3f77d7f7     ...>..w?"6.>..w?
   16050:	3e7ee6e1 3f77f110 3e7d6156 3f780a04     ..~>..w?Va}>..x?
   16060:	3e7bdba4 3f7822d1 3e7a55cb 3f783b77     ..{>."x?.Uz>w;x?
   16070:	3e78cfcc 3f7853f8 3e7749a6 3f786c52     ..x>.Sx?.Iw>Rlx?
   16080:	3e75c35a 3f788486 3e743ce8 3f789c93     Z.u>..x?.<t>..x?
   16090:	3e72b651 3f78b47b 3e712f94 3f78cc3b     Q.r>{.x?./q>;.x?
   160a0:	3e6fa8b2 3f78e3d6 3e6e21ab 3f78fb4a     ..o>..x?.!n>J.x?
   160b0:	3e6c9a7f 3f791298 3e6b132f 3f7929bf     ..l>..y?/.k>.)y?
   160c0:	3e698bba 3f7940c0 3e680422 3f79579a     ..i>.@y?".h>.Wy?
   160d0:	3e667c66 3f796e4e 3e64f486 3f7984dc     f|f>Nny?..d>..y?
   160e0:	3e636c83 3f799b43 3e61e45c 3f79b183     .lc>C.y?\.a>..y?
   160f0:	3e605c13 3f79c79d 3e5ed3a8 3f79dd91     .\`>..y?..^>..y?
   16100:	3e5d4b1a 3f79f35e 3e5bc26a 3f7a0904     .K]>^.y?j.[>..z?
   16110:	3e5a3997 3f7a1e84 3e58b0a4 3f7a33dd     .9Z>..z?..X>.3z?
   16120:	3e57278f 3f7a4910 3e559e58 3f7a5e1c     .'W>.Iz?X.U>.^z?
   16130:	3e541501 3f7a7302 3e528b89 3f7a87c1     ..T>.sz?..R>..z?
   16140:	3e5101f1 3f7a9c59 3e4f7838 3f7ab0cb     ..Q>Y.z?8xO>..z?
   16150:	3e4dee60 3f7ac516 3e4c6467 3f7ad93a     `.M>..z?gdL>:.z?
   16160:	3e4ada4f 3f7aed37 3e495018 3f7b010e     O.J>7.z?.PI>..{?
   16170:	3e47c5c2 3f7b14be 3e463b4d 3f7b2848     ..G>..{?M;F>H({?
   16180:	3e44b0b9 3f7b3bab 3e432607 3f7b4ee7     ..D>.;{?.&C>.N{?
   16190:	3e419b37 3f7b61fc 3e401049 3f7b74ea     7.A>.a{?I.@>.t{?
   161a0:	3e3e853e 3f7b87b2 3e3cfa15 3f7b9a53     >.>>..{?..<>S.{?
   161b0:	3e3b6ecf 3f7baccd 3e39e36c 3f7bbf20     .n;>..{?l.9> .{?
   161c0:	3e3857ec 3f7bd14d 3e36cc50 3f7be353     .W8>M.{?P.6>S.{?
   161d0:	3e354098 3f7bf531 3e33b4c4 3f7c06e9     .@5>1.{?..3>..|?
   161e0:	3e3228d4 3f7c187a 3e309cc9 3f7c29e5     .(2>z.|?..0>.)|?
   161f0:	3e2f10a2 3f7c3b28 3e2d8461 3f7c4c44     ../>(;|?a.->DL|?
   16200:	3e2bf804 3f7c5d3a 3e2a6b8d 3f7c6e08     ..+>:]|?.k*>.n|?
   16210:	3e28defc 3f7c7eb0 3e275251 3f7c8f31     ..(>.~|?QR'>1.|?
   16220:	3e25c58c 3f7c9f8a 3e2438ad 3f7cafbd     ..%>..|?.8$>..|?
   16230:	3e22abb6 3f7cbfc9 3e211ea5 3f7ccfae     ..">..|?..!>..|?
   16240:	3e1f917b 3f7cdf6c 3e1e0438 3f7cef03     {..>l.|?8..>..|?
   16250:	3e1c76de 3f7cfe73 3e1ae96b 3f7d0dbc     .v.>s.|?k..>..}?
   16260:	3e195be0 3f7d1cdd 3e17ce3d 3f7d2bd8     .[.>..}?=..>.+}?
   16270:	3e164083 3f7d3aac 3e14b2b2 3f7d4959     .@.>.:}?...>YI}?
   16280:	3e1324ca 3f7d57de 3e1196cc 3f7d663d     .$.>.W}?...>=f}?
   16290:	3e1008b7 3f7d7474 3e0e7a8b 3f7d8285     ...>tt}?.z.>..}?
   162a0:	3e0cec4a 3f7d906e 3e0b5df3 3f7d9e30     J..>n.}?.].>0.}?
   162b0:	3e09cf86 3f7dabcc 3e084105 3f7db940     ...>..}?.A.>@.}?
   162c0:	3e06b26e 3f7dc68c 3e0523c2 3f7dd3b2     n..>..}?.#.>..}?
   162d0:	3e039502 3f7de0b1 3e02062e 3f7ded88     ...>..}?...>..}?
   162e0:	3e007745 3f7dfa38 3dfdd092 3f7e06c2     Ew.>8.}?...=..~?
   162f0:	3dfab273 3f7e1324 3df7942c 3f7e1f5e     s..=$.~?,..=^.~?
   16300:	3df475c0 3f7e2b72 3df1572e 3f7e375e     .u.=r+~?.W.=^7~?
   16310:	3dee3876 3f7e4323 3deb199a 3f7e4ec1     v8.=#C~?...=.N~?
   16320:	3de7fa9a 3f7e5a38 3de4db76 3f7e6588     ...=8Z~?v..=.e~?
   16330:	3de1bc2e 3f7e70b0 3dde9cc4 3f7e7bb1     ...=.p~?...=.{~?
   16340:	3ddb7d37 3f7e868b 3dd85d89 3f7e913d     7}.=..~?.].==.~?
   16350:	3dd53db9 3f7e9bc9 3dd21dc8 3f7ea62d     .=.=..~?...=-.~?
   16360:	3dcefdb7 3f7eb069 3dcbdd86 3f7eba7f     ...=i.~?...=..~?
   16370:	3dc8bd36 3f7ec46d 3dc59cc6 3f7ece34     6..=m.~?...=4.~?
   16380:	3dc27c39 3f7ed7d4 3dbf5b8d 3f7ee14c     9|.=..~?.[.=L.~?
   16390:	3dbc3ac3 3f7eea9d 3db919dd 3f7ef3c7     .:.=..~?...=..~?
   163a0:	3db5f8da 3f7efcc9 3db2d7bb 3f7f05a4     ...=..~?...=...?
   163b0:	3dafb680 3f7f0e58 3dac952b 3f7f16e4     ...=X..?+..=...?
   163c0:	3da973ba 3f7f1f49 3da65230 3f7f2787     .s.=I..?0R.=.'.?
   163d0:	3da3308c 3f7f2f9d 3da00ecf 3f7f378d     .0.=./.?...=.7.?
   163e0:	3d9cecf9 3f7f3f54 3d99cb0a 3f7f46f4     ...=T?.?...=.F.?
   163f0:	3d96a905 3f7f4e6d 3d9386e7 3f7f55bf     ...=mN.?...=.U.?
   16400:	3d9064b4 3f7f5ce9 3d8d426a 3f7f63ec     .d.=.\.?jB.=.c.?
   16410:	3d8a200a 3f7f6ac7 3d86fd94 3f7f717b     . .=.j.?...={q.?
   16420:	3d83db0a 3f7f7808 3d80b86c 3f7f7e6d     ...=.x.?l..=m~.?
   16430:	3d7b2b74 3f7f84ab 3d74e5e9 3f7f8ac2     t+{=...?..t=...?
   16440:	3d6ea038 3f7f90b1 3d685a62 3f7f9678     8.n=...?bZh=x..?
   16450:	3d621468 3f7f9c18 3d5bce4c 3f7fa191     h.b=...?L.[=...?
   16460:	3d55880e 3f7fa6e3 3d4f41af 3f7fac0d     ..U=...?.AO=...?
   16470:	3d48fb2f 3f7fb10f 3d42b491 3f7fb5ea     /.H=...?..B=...?
   16480:	3d3c6dd5 3f7fba9e 3d3626fc 3f7fbf2a     .m<=...?.&6=*..?
   16490:	3d2fe007 3f7fc38f 3d2998f6 3f7fc7cc     ../=...?..)=...?
   164a0:	3d2351cc 3f7fcbe2 3d1d0a88 3f7fcfd1     .Q#=...?...=...?
   164b0:	3d16c32c 3f7fd398 3d107bb8 3f7fd737     ,..=...?.{.=7..?
   164c0:	3d0a342f 3f7fdaaf 3d03ec90 3f7fde00     /4.=...?...=...?
   164d0:	3cfb49b9 3f7fe129 3ceeba2d 3f7fe42b     .I.<)..?-..<+..?
   164e0:	3ce22a7b 3f7fe705 3cd59aa6 3f7fe9b8     {*.<...?...<...?
   164f0:	3cc90ab0 3f7fec43 3cbc7a9b 3f7feea7     ...<C..?.z.<...?
   16500:	3cafea69 3f7ff0e3 3ca35a1c 3f7ff2f8     i..<...?.Z.<...?
   16510:	3c96c9b6 3f7ff4e6 3c8a3938 3f7ff6ac     ...<...?89.<...?
   16520:	3c7b514b 3f7ff84a 3c623000 3f7ff9c1     KQ{<J..?.0b<...?
   16530:	3c490e90 3f7ffb11 3c2fed02 3f7ffc39     ..I<...?../<9..?
   16540:	3c16cb59 3f7ffd39 3bfb5330 3f7ffe13     Y..<9..?0S.;...?
   16550:	3bc90f89 3f7ffec4 3b96cbc1 3f7fff4e     ...;...?...;N..?
   16560:	3b490fc7 3f7fffb1 3ac90fd4 3f7fffec     ..I;...?...:...?
   16570:	00000000 3f800000 bac90fd4 3f7fffec     .......?.......?
   16580:	bb490fc7 3f7fffb1 bb96cbc1 3f7fff4e     ..I....?....N..?
   16590:	bbc90f89 3f7ffec4 bbfb5330 3f7ffe13     .......?0S.....?
   165a0:	bc16cb59 3f7ffd39 bc2fed02 3f7ffc39     Y...9..?../.9..?
   165b0:	bc490e90 3f7ffb11 bc623000 3f7ff9c1     ..I....?.0b....?
   165c0:	bc7b514b 3f7ff84a bc8a3938 3f7ff6ac     KQ{.J..?89.....?
   165d0:	bc96c9b6 3f7ff4e6 bca35a1c 3f7ff2f8     .......?.Z.....?
   165e0:	bcafea69 3f7ff0e3 bcbc7a9b 3f7feea7     i......?.z.....?
   165f0:	bcc90ab0 3f7fec43 bcd59aa6 3f7fe9b8     ....C..?.......?
   16600:	bce22a7b 3f7fe705 bceeba2d 3f7fe42b     {*.....?-...+..?
   16610:	bcfb49b9 3f7fe129 bd03ec90 3f7fde00     .I..)..?.......?
   16620:	bd0a342f 3f7fdaaf bd107bb8 3f7fd737     /4.....?.{..7..?
   16630:	bd16c32c 3f7fd398 bd1d0a88 3f7fcfd1     ,......?.......?
   16640:	bd2351cc 3f7fcbe2 bd2998f6 3f7fc7cc     .Q#....?..)....?
   16650:	bd2fe007 3f7fc38f bd3626fc 3f7fbf2a     ../....?.&6.*..?
   16660:	bd3c6dd5 3f7fba9e bd42b491 3f7fb5ea     .m<....?..B....?
   16670:	bd48fb2f 3f7fb10f bd4f41af 3f7fac0d     /.H....?.AO....?
   16680:	bd55880e 3f7fa6e3 bd5bce4c 3f7fa191     ..U....?L.[....?
   16690:	bd621468 3f7f9c18 bd685a62 3f7f9678     h.b....?bZh.x..?
   166a0:	bd6ea038 3f7f90b1 bd74e5e9 3f7f8ac2     8.n....?..t....?
   166b0:	bd7b2b74 3f7f84ab bd80b86c 3f7f7e6d     t+{....?l...m~.?
   166c0:	bd83db0a 3f7f7808 bd86fd94 3f7f717b     .....x.?....{q.?
   166d0:	bd8a200a 3f7f6ac7 bd8d426a 3f7f63ec     . ...j.?jB...c.?
   166e0:	bd9064b4 3f7f5ce9 bd9386e7 3f7f55bf     .d...\.?.....U.?
   166f0:	bd96a905 3f7f4e6d bd99cb0a 3f7f46f4     ....mN.?.....F.?
   16700:	bd9cecf9 3f7f3f54 bda00ecf 3f7f378d     ....T?.?.....7.?
   16710:	bda3308c 3f7f2f9d bda65230 3f7f2787     .0.../.?0R...'.?
   16720:	bda973ba 3f7f1f49 bdac952b 3f7f16e4     .s..I..?+......?
   16730:	bdafb680 3f7f0e58 bdb2d7bb 3f7f05a4     ....X..?.......?
   16740:	bdb5f8da 3f7efcc9 bdb919dd 3f7ef3c7     ......~?......~?
   16750:	bdbc3ac3 3f7eea9d bdbf5b8d 3f7ee14c     .:....~?.[..L.~?
   16760:	bdc27c39 3f7ed7d4 bdc59cc6 3f7ece34     9|....~?....4.~?
   16770:	bdc8bd36 3f7ec46d bdcbdd86 3f7eba7f     6...m.~?......~?
   16780:	bdcefdb7 3f7eb069 bdd21dc8 3f7ea62d     ....i.~?....-.~?
   16790:	bdd53db9 3f7e9bc9 bdd85d89 3f7e913d     .=....~?.]..=.~?
   167a0:	bddb7d37 3f7e868b bdde9cc4 3f7e7bb1     7}....~?.....{~?
   167b0:	bde1bc2e 3f7e70b0 bde4db76 3f7e6588     .....p~?v....e~?
   167c0:	bde7fa9a 3f7e5a38 bdeb199a 3f7e4ec1     ....8Z~?.....N~?
   167d0:	bdee3876 3f7e4323 bdf1572e 3f7e375e     v8..#C~?.W..^7~?
   167e0:	bdf475c0 3f7e2b72 bdf7942c 3f7e1f5e     .u..r+~?,...^.~?
   167f0:	bdfab273 3f7e1324 bdfdd092 3f7e06c2     s...$.~?......~?
   16800:	be007745 3f7dfa38 be02062e 3f7ded88     Ew..8.}?......}?
   16810:	be039502 3f7de0b1 be0523c2 3f7dd3b2     ......}?.#....}?
   16820:	be06b26e 3f7dc68c be084105 3f7db940     n.....}?.A..@.}?
   16830:	be09cf86 3f7dabcc be0b5df3 3f7d9e30     ......}?.]..0.}?
   16840:	be0cec4a 3f7d906e be0e7a8b 3f7d8285     J...n.}?.z....}?
   16850:	be1008b7 3f7d7474 be1196cc 3f7d663d     ....tt}?....=f}?
   16860:	be1324ca 3f7d57de be14b2b2 3f7d4959     .$...W}?....YI}?
   16870:	be164083 3f7d3aac be17ce3d 3f7d2bd8     .@...:}?=....+}?
   16880:	be195be0 3f7d1cdd be1ae96b 3f7d0dbc     .[....}?k.....}?
   16890:	be1c76de 3f7cfe73 be1e0438 3f7cef03     .v..s.|?8.....|?
   168a0:	be1f917b 3f7cdf6c be211ea5 3f7ccfae     {...l.|?..!...|?
   168b0:	be22abb6 3f7cbfc9 be2438ad 3f7cafbd     .."...|?.8$...|?
   168c0:	be25c58c 3f7c9f8a be275251 3f7c8f31     ..%...|?QR'.1.|?
   168d0:	be28defc 3f7c7eb0 be2a6b8d 3f7c6e08     ..(..~|?.k*..n|?
   168e0:	be2bf804 3f7c5d3a be2d8461 3f7c4c44     ..+.:]|?a.-.DL|?
   168f0:	be2f10a2 3f7c3b28 be309cc9 3f7c29e5     ../.(;|?..0..)|?
   16900:	be3228d4 3f7c187a be33b4c4 3f7c06e9     .(2.z.|?..3...|?
   16910:	be354098 3f7bf531 be36cc50 3f7be353     .@5.1.{?P.6.S.{?
   16920:	be3857ec 3f7bd14d be39e36c 3f7bbf20     .W8.M.{?l.9. .{?
   16930:	be3b6ecf 3f7baccd be3cfa15 3f7b9a53     .n;...{?..<.S.{?
   16940:	be3e853e 3f7b87b2 be401049 3f7b74ea     >.>...{?I.@..t{?
   16950:	be419b37 3f7b61fc be432607 3f7b4ee7     7.A..a{?.&C..N{?
   16960:	be44b0b9 3f7b3bab be463b4d 3f7b2848     ..D..;{?M;F.H({?
   16970:	be47c5c2 3f7b14be be495018 3f7b010e     ..G...{?.PI...{?
   16980:	be4ada4f 3f7aed37 be4c6467 3f7ad93a     O.J.7.z?gdL.:.z?
   16990:	be4dee60 3f7ac516 be4f7838 3f7ab0cb     `.M...z?8xO...z?
   169a0:	be5101f1 3f7a9c59 be528b89 3f7a87c1     ..Q.Y.z?..R...z?
   169b0:	be541501 3f7a7302 be559e58 3f7a5e1c     ..T..sz?X.U..^z?
   169c0:	be57278f 3f7a4910 be58b0a4 3f7a33dd     .'W..Iz?..X..3z?
   169d0:	be5a3997 3f7a1e84 be5bc26a 3f7a0904     .9Z...z?j.[...z?
   169e0:	be5d4b1a 3f79f35e be5ed3a8 3f79dd91     .K].^.y?..^...y?
   169f0:	be605c13 3f79c79d be61e45c 3f79b183     .\`...y?\.a...y?
   16a00:	be636c83 3f799b43 be64f486 3f7984dc     .lc.C.y?..d...y?
   16a10:	be667c66 3f796e4e be680422 3f79579a     f|f.Nny?".h..Wy?
   16a20:	be698bba 3f7940c0 be6b132f 3f7929bf     ..i..@y?/.k..)y?
   16a30:	be6c9a7f 3f791298 be6e21ab 3f78fb4a     ..l...y?.!n.J.x?
   16a40:	be6fa8b2 3f78e3d6 be712f94 3f78cc3b     ..o...x?./q.;.x?
   16a50:	be72b651 3f78b47b be743ce8 3f789c93     Q.r.{.x?.<t...x?
   16a60:	be75c35a 3f788486 be7749a6 3f786c52     Z.u...x?.Iw.Rlx?
   16a70:	be78cfcc 3f7853f8 be7a55cb 3f783b77     ..x..Sx?.Uz.w;x?
   16a80:	be7bdba4 3f7822d1 be7d6156 3f780a04     ..{.."x?Va}...x?
   16a90:	be7ee6e1 3f77f110 be803622 3f77d7f7     ..~...w?"6....w?
   16aa0:	be80f8c0 3f77beb7 be81bb4a 3f77a551     ......w?J...Q.w?
   16ab0:	be827dc0 3f778bc5 be834022 3f777213     .}....w?"@...rw?
   16ac0:	be840270 3f77583a be84c4aa 3f773e3c     p...:Xw?....<>w?
   16ad0:	be8586ce 3f772417 be8648df 3f7709cc     .....$w?.H....w?
   16ae0:	be870ada 3f76ef5b be87ccc1 3f76d4c4     ....[.v?......v?
   16af0:	be888e93 3f76ba07 be895050 3f769f24     ......v?PP..$.v?
   16b00:	be8a11f8 3f76841b be8ad38a 3f7668ec     ......v?.....hv?
   16b10:	be8b9507 3f764d97 be8c566e 3f76321b     .....Mv?nV...2v?
   16b20:	be8d17c0 3f76167a be8dd8fc 3f75fab3     ....z.v?......u?
   16b30:	be8e9a22 3f75dec6 be8f5b32 3f75c2b3     ".....u?2[....u?
   16b40:	be901c2c 3f75a67b be90dd10 3f758a1c     ,...{.u?......u?
   16b50:	be919ddd 3f756d97 be925e94 3f7550ed     .....mu?.^...Pu?
   16b60:	be931f35 3f75341d be93dfbf 3f751727     5....4u?....'.u?
   16b70:	be94a031 3f74fa0b be95608d 3f74dcc9     1.....t?.`....t?
   16b80:	be9620d2 3f74bf62 be96e100 3f74a1d5     . ..b.t?......t?
   16b90:	be97a117 3f748422 be986116 3f746649     ....".t?.a..Ift?
   16ba0:	be9920fe 3f74484b be99e0ce 3f742a27     . ..KHt?....'*t?
   16bb0:	be9aa086 3f740bdd be9b6027 3f73ed6e     ......t?'`..n.s?
   16bc0:	be9c1faf 3f73ced9 be9cdf20 3f73b01f     ......s? .....s?
   16bd0:	be9d9e78 3f73913f be9e5db8 3f737239     x...?.s?.]..9rs?
   16be0:	be9f1cdf 3f73530e be9fdbee 3f7333be     .....Ss?.....3s?
   16bf0:	bea09ae5 3f731447 bea159c2 3f72f4ac     ....G.s?.Y....r?
   16c00:	bea21887 3f72d4eb bea2d733 3f72b504     ......r?3.....r?
   16c10:	bea395c5 3f7294f8 bea4543f 3f7274c7     ......r??T...tr?
   16c20:	bea5129f 3f725470 bea5d0e5 3f7233f4     ....pTr?.....3r?
   16c30:	bea68f12 3f721352 bea74d25 3f71f28c     ....R.r?%M....q?
   16c40:	bea80b1f 3f71d19f bea8c8fe 3f71b08e     ......q?......q?
   16c50:	bea986c4 3f718f57 beaa446f 3f716dfb     ....W.q?oD...mq?
   16c60:	beab0201 3f714c7a beabbf77 3f712ad4     ....zLq?w....*q?
   16c70:	beac7cd4 3f710908 bead3a15 3f70e717     .|....q?.:....p?
   16c80:	beadf73c 3f70c502 beaeb449 3f70a2c6     <.....p?I.....p?
   16c90:	beaf713a 3f708066 beb02e10 3f705de1     :q..f.p?.....]p?
   16ca0:	beb0eacb 3f703b37 beb1a76b 3f701867     ....7;p?k...g.p?
   16cb0:	beb263ef 3f6ff573 beb32058 3f6fd25a     .c..s.o?X ..Z.o?
   16cc0:	beb3dca5 3f6faf1b beb498d6 3f6f8bb8     ......o?......o?
   16cd0:	beb554ec 3f6f6830 beb610e6 3f6f4483     .T..0ho?.....Do?
   16ce0:	beb6ccc3 3f6f20b0 beb78884 3f6efcba     ..... o?......n?
   16cf0:	beb8442a 3f6ed89e beb8ffb2 3f6eb45d     *D....n?....].n?
   16d00:	beb9bb1e 3f6e8ff8 beba766e 3f6e6b6d     ......n?nv..mkn?
   16d10:	bebb31a0 3f6e46be bebbecb6 3f6e21eb     .1...Fn?.....!n?
   16d20:	bebca7af 3f6dfcf2 bebd628b 3f6dd7d5     ......m?.b....m?
   16d30:	bebe1d4a 3f6db293 bebed7eb 3f6d8d2d     J.....m?....-.m?
   16d40:	bebf926f 3f6d67a1 bec04cd5 3f6d41f2     o....gm?.L...Am?
   16d50:	bec1071e 3f6d1c1d bec1c148 3f6cf624     ......m?H...$.l?
   16d60:	bec27b55 3f6cd007 bec33544 3f6ca9c5     U{....l?D5....l?
   16d70:	bec3ef15 3f6c835e bec4a8c8 3f6c5cd4     ....^.l?.....\l?
   16d80:	bec5625c 3f6c3624 bec61bd2 3f6c0f50     \b..$6l?....P.l?
   16d90:	bec6d529 3f6be858 bec78e62 3f6bc13b     )...X.k?b...;.k?
   16da0:	bec8477c 3f6b99fb bec90077 3f6b7295     |G....k?w....rk?
   16db0:	bec9b953 3f6b4b0c beca7210 3f6b235e     S....Kk?.r..^#k?
   16dc0:	becb2aae 3f6afb8c becbe32c 3f6ad395     .*....j?,.....j?
   16dd0:	becc9b8b 3f6aab7b becd53ca 3f6a833c     ....{.j?.S..<.j?
   16de0:	bece0bea 3f6a5ad9 becec3ea 3f6a3252     .....Zj?....R2j?
   16df0:	becf7bca 3f6a09a7 bed0338a 3f69e0d7     .{....j?.3....i?
   16e00:	bed0eb2a 3f69b7e4 bed1a2aa 3f698ecc     *.....i?......i?
   16e10:	bed25a09 3f696591 bed31148 3f693c32     .Z...ei?H...2<i?
   16e20:	bed3c867 3f6912ae bed47f64 3f68e907     g.....i?d.....h?
   16e30:	bed53641 3f68bf3c bed5ecfd 3f68954c     A6..<.h?....L.h?
   16e40:	bed6a399 3f686b39 bed75a13 3f684103     ....9kh?.Z...Ah?
   16e50:	bed8106b 3f6816a8 bed8c6a3 3f67ec2a     k.....h?....*.g?
   16e60:	bed97cb9 3f67c187 beda32ad 3f6796c1     .|....g?.2....g?
   16e70:	bedae880 3f676bd8 bedb9e31 3f6740ca     .....kg?1....@g?
   16e80:	bedc53c1 3f671599 bedd092e 3f66ea45     .S....g?....E.f?
   16e90:	beddbe79 3f66becc bede73a2 3f669330     y.....f?.s..0.f?
   16ea0:	bedf28a9 3f666771 bedfdd8d 3f663b8e     .(..qgf?.....;f?
   16eb0:	bee0924f 3f660f88 bee146ee 3f65e35e     O.....f?.F..^.e?
   16ec0:	bee1fb6a 3f65b710 bee2afc4 3f658aa0     j.....e?......e?
   16ed0:	bee363fa 3f655e0b bee4180e 3f653154     .c...^e?....T1e?
   16ee0:	bee4cbfe 3f650479 bee57fcb 3f64d77b     ....y.e?....{.d?
   16ef0:	bee63375 3f64aa59 bee6e6fb 3f647d14     u3..Y.d?.....}d?
   16f00:	bee79a5d 3f644fac bee84d9c 3f642221     ]....Od?.M..!"d?
   16f10:	bee900b7 3f63f473 bee9b3ae 3f63c6a1     ....s.c?......c?
   16f20:	beea6681 3f6398ac beeb1930 3f636a95     .f....c?0....jc?
   16f30:	beebcbbb 3f633c5a beec7e21 3f630dfc     ....Z<c?!~....c?
   16f40:	beed3063 3f62df7b beede280 3f62b0d7     c0..{.b?......b?
   16f50:	beee9479 3f628210 beef464c 3f625326     y.....b?LF..&Sb?
   16f60:	beeff7fb 3f62241a bef0a985 3f61f4ea     .....$b?......a?
   16f70:	bef15aea 3f61c598 bef20c29 3f619622     .Z....a?)...".a?
   16f80:	bef2bd43 3f61668a bef36e38 3f6136d0     C....fa?8n...6a?
   16f90:	bef41f07 3f6106f2 bef4cfb1 3f60d6f2     ......a?......`?
   16fa0:	bef58035 3f60a6cf bef63093 3f607689     5.....`?.0...v`?
   16fb0:	bef6e0cb 3f604621 bef790dc 3f601596     ....!F`?......`?
   16fc0:	bef840c8 3f5fe4e9 bef8f08e 3f5fb419     .@...._?......_?
   16fd0:	bef9a02d 3f5f8327 befa4fa5 3f5f5212     -...'._?.O...R_?
   16fe0:	befafef7 3f5f20db befbae22 3f5eef81     ..... _?".....^?
   16ff0:	befc5d27 3f5ebe05 befd0c04 3f5e8c67     ']....^?....g.^?
   17000:	befdbabb 3f5e5aa6 befe694a 3f5e28c3     .....Z^?Ji...(^?
   17010:	beff17b2 3f5df6be beffc5f3 3f5dc497     ......]?......]?
   17020:	bf003a06 3f5d924d bf0090ff 3f5d5fe1     .:..M.]?....._]?
   17030:	bf00e7e4 3f5d2d53 bf013eb5 3f5cfaa3     ....S-]?.>....\?
   17040:	bf019573 3f5cc7d1 bf01ec1c 3f5c94dd     s.....\?......\?
   17050:	bf0242b1 3f5c61c7 bf029932 3f5c2e8e     .B...a\?2.....\?
   17060:	bf02ef9f 3f5bfb34 bf0345f8 3f5bc7b8     ....4.[?.E....[?
   17070:	bf039c3d 3f5b941a bf03f26d 3f5b605a     =.....[?m...Z`[?
   17080:	bf044889 3f5b2c79 bf049e91 3f5af875     .H..y,[?....u.Z?
   17090:	bf04f484 3f5ac450 bf054a62 3f5a9009     ....P.Z?bJ....Z?
   170a0:	bf05a02c 3f5a5ba0 bf05f5e2 3f5a2716     ,....[Z?.....'Z?
   170b0:	bf064b82 3f59f26a bf06a10e 3f59bd9c     .K..j.Y?......Y?
   170c0:	bf06f686 3f5988ad bf074be8 3f59539c     ......Y?.K...SY?
   170d0:	bf07a136 3f591e6a bf07f66f 3f58e917     6...j.Y?o.....X?
   170e0:	bf084b92 3f58b3a1 bf08a0a1 3f587e0b     .K....X?.....~X?
   170f0:	bf08f59b 3f584853 bf094a7f 3f581279     ....SHX?.J..y.X?
   17100:	bf099f4e 3f57dc7f bf09f409 3f57a663     N.....W?....c.W?
   17110:	bf0a48ad 3f577026 bf0a9d3d 3f5739c7     .H..&pW?=....9W?
   17120:	bf0af1b7 3f570348 bf0b461c 3f56cca7     ....H.W?.F....V?
   17130:	bf0b9a6b 3f5695e5 bf0beea5 3f565f02     k.....V?....._V?
   17140:	bf0c42c9 3f5627fe bf0c96d7 3f55f0d9     .B...'V?......U?
   17150:	bf0cead0 3f55b993 bf0d3eb3 3f55822c     ......U?.>..,.U?
   17160:	bf0d9281 3f554aa4 bf0de638 3f5512fb     .....JU?8.....U?
   17170:	bf0e39da 3f54db31 bf0e8d65 3f54a347     .9..1.T?e...G.T?
   17180:	bf0ee0db 3f546b3b bf0f343b 3f54330f     ....;kT?;4...3T?
   17190:	bf0f8784 3f53fac3 bf0fdab8 3f53c255     ......S?....U.S?
   171a0:	bf102dd5 3f5389c7 bf1080dc 3f535118     .-....S?.....QS?
   171b0:	bf10d3cd 3f531849 bf1126a7 3f52df59     ....I.S?.&..Y.R?
   171c0:	bf11796b 3f52a649 bf11cc19 3f526d18     ky..I.R?.....mR?
   171d0:	bf121eb0 3f5233c6 bf127130 3f51fa54     .....3R?0q..T.Q?
   171e0:	bf12c39a 3f51c0c2 bf1315ee 3f518710     ......Q?......Q?
   171f0:	bf13682a 3f514d3d bf13ba50 3f51134a     *h..=MQ?P...J.Q?
   17200:	bf140c5f 3f50d937 bf145e58 3f509f03     _...7.P?X^....P?
   17210:	bf14b039 3f5064af bf150204 3f502a3b     9....dP?....;*P?
   17220:	bf1553b7 3f4fefa8 bf15a554 3f4fb4f4     .S....O?T.....O?
   17230:	bf15f6d9 3f4f7a1f bf164847 3f4f3f2b     .....zO?GH..+?O?
   17240:	bf16999f 3f4f0417 bf16eadf 3f4ec8e4     ......O?......N?
   17250:	bf173c07 3f4e8d90 bf178d18 3f4e521c     .<....N?.....RN?
   17260:	bf17de12 3f4e1689 bf182ef5 3f4ddad5     ......N?......M?
   17270:	bf187fc0 3f4d9f02 bf18d073 3f4d6310     ......M?s....cM?
   17280:	bf19210f 3f4d26fd bf197194 3f4ceacb     .!...&M?.q....L?
   17290:	bf19c200 3f4cae79 bf1a1255 3f4c7208     ....y.L?U....rL?
   172a0:	bf1a6293 3f4c3578 bf1ab2b8 3f4bf8c7     .b..x5L?......K?
   172b0:	bf1b02c6 3f4bbbf8 bf1b52bb 3f4b7f09     ......K?.R....K?
   172c0:	bf1ba299 3f4b41fa bf1bf25f 3f4b04cc     .....AK?_.....K?
   172d0:	bf1c420c 3f4ac77f bf1c91a2 3f4a8a13     .B....J?......J?
   172e0:	bf1ce11f 3f4a4c87 bf1d3084 3f4a0edc     .....LJ?.0....J?
   172f0:	bf1d7fd1 3f49d112 bf1dcf06 3f499329     ......I?....).I?
   17300:	bf1e1e22 3f495521 bf1e6d26 3f4916fa     "...!UI?&m....I?
   17310:	bf1ebc12 3f48d8b3 bf1f0ae5 3f489a4e     ......H?....N.H?
   17320:	bf1f599f 3f485bca bf1fa841 3f481d27     .Y...[H?A...'.H?
   17330:	bf1ff6cb 3f47de65 bf20453b 3f479f84     ....e.G?;E ...G?
   17340:	bf209393 3f476085 bf20e1d2 3f472167     .. ..`G?.. .g!G?
   17350:	bf212ff9 3f46e22a bf217e06 3f46a2ce     ./!.*.F?.~!...F?
   17360:	bf21cbfb 3f466354 bf2219d7 3f4623bb     ..!.TcF?.."..#F?
   17370:	bf226799 3f45e403 bf22b543 3f45a42d     .g"...E?C.".-.E?
   17380:	bf2302d3 3f456439 bf23504b 3f452426     ..#.9dE?KP#.&$E?
   17390:	bf239da9 3f44e3f5 bf23eaee 3f44a3a5     ..#...D?..#...D?
   173a0:	bf24381a 3f446337 bf24852c 3f4422ab     .8$.7cD?,.$.."D?
   173b0:	bf24d225 3f43e200 bf251f04 3f43a138     %.$...C?..%.8.C?
   173c0:	bf256bcb 3f436051 bf25b877 3f431f4c     .k%.Q`C?w.%.L.C?
   173d0:	bf26050a 3f42de29 bf265184 3f429ce8     ..&.).B?.Q&...B?
   173e0:	bf269de3 3f425b89 bf26ea2a 3f421a0b     ..&..[B?*.&...B?
   173f0:	bf273656 3f41d870 bf278268 3f4196b7     V6'.p.A?h.'...A?
   17400:	bf27ce61 3f4154e1 bf281a40 3f4112ec     a.'..TA?@.(...A?
   17410:	bf286605 3f40d0da bf28b1b0 3f408ea9     .f(...@?..(...@?
   17420:	bf28fd41 3f404c5c bf2948b8 3f4009f0     A.(.\L@?.H)...@?
   17430:	bf299415 3f3fc767 bf29df57 3f3f84c0     ..).g.??W.)...??
   17440:	bf2a2a80 3f3f41fc bf2a758e 3f3eff1b     .**..A??.u*...>?
   17450:	bf2ac082 3f3ebc1b bf2b0b5b 3f3e78ff     ..*...>?[.+..x>?
   17460:	bf2b561b 3f3e35c5 bf2ba0bf 3f3df26e     .V+..5>?..+.n.=?
   17470:	bf2beb4a 3f3daef9 bf2c35b9 3f3d6b67     J.+...=?.5,.gk=?
   17480:	bf2c800f 3f3d27b8 bf2cca49 3f3ce3ec     ..,..'=?I.,...<?
   17490:	bf2d1469 3f3ca003 bf2d5e6f 3f3c5bfc     i.-...<?o^-..[<?
   174a0:	bf2da859 3f3c17d9 bf2df229 3f3bd398     Y.-...<?).-...;?
   174b0:	bf2e3bde 3f3b8f3b bf2e8578 3f3b4ac1     .;..;.;?x....J;?
   174c0:	bf2ecef7 3f3b0629 bf2f185b 3f3ac175     ....).;?[./.u.:?
   174d0:	bf2f61a5 3f3a7ca4 bf2faad3 3f3a37b7     .a/..|:?../..7:?
   174e0:	bf2ff3e6 3f39f2ac bf303cde 3f39ad85     ../...9?.<0...9?
   174f0:	bf3085bb 3f396842 bf30ce7c 3f3922e1     ..0.Bh9?|.0.."9?
   17500:	bf311722 3f38dd65 bf315fad 3f3897cb     ".1.e.8?._1...8?
   17510:	bf31a81d 3f385216 bf31f071 3f380c43     ..1..R8?q.1.C.8?
   17520:	bf3238aa 3f37c655 bf3280c7 3f37804a     .82.U.7?..2.J.7?
   17530:	bf32c8c9 3f373a23 bf3310af 3f36f3df     ..2.#:7?..3...6?
   17540:	bf33587a 3f36ad7f bf33a029 3f366704     zX3...6?).3..g6?
   17550:	bf33e7bc 3f36206c bf342f34 3f35d9b8     ..3.l 6?4/4...5?
   17560:	bf34768f 3f3592e7 bf34bdcf 3f354bfb     .v4...5?..4..K5?
   17570:	bf3504f3 3f3504f3 bf354bfb 3f34bdcf     ..5...5?.K5...4?
   17580:	bf3592e7 3f34768f bf35d9b8 3f342f34     ..5..v4?..5.4/4?
   17590:	bf36206c 3f33e7bc bf366704 3f33a029     l 6...3?.g6.).3?
   175a0:	bf36ad7f 3f33587a bf36f3df 3f3310af     ..6.zX3?..6...3?
   175b0:	bf373a23 3f32c8c9 bf37804a 3f3280c7     #:7...2?J.7...2?
   175c0:	bf37c655 3f3238aa bf380c43 3f31f071     U.7..82?C.8.q.1?
   175d0:	bf385216 3f31a81d bf3897cb 3f315fad     .R8...1?..8.._1?
   175e0:	bf38dd65 3f311722 bf3922e1 3f30ce7c     e.8.".1?."9.|.0?
   175f0:	bf396842 3f3085bb bf39ad85 3f303cde     Bh9...0?..9..<0?
   17600:	bf39f2ac 3f2ff3e6 bf3a37b7 3f2faad3     ..9.../?.7:.../?
   17610:	bf3a7ca4 3f2f61a5 bf3ac175 3f2f185b     .|:..a/?u.:.[./?
   17620:	bf3b0629 3f2ecef7 bf3b4ac1 3f2e8578     ).;....?.J;.x..?
   17630:	bf3b8f3b 3f2e3bde bf3bd398 3f2df229     ;.;..;.?..;.).-?
   17640:	bf3c17d9 3f2da859 bf3c5bfc 3f2d5e6f     ..<.Y.-?.[<.o^-?
   17650:	bf3ca003 3f2d1469 bf3ce3ec 3f2cca49     ..<.i.-?..<.I.,?
   17660:	bf3d27b8 3f2c800f bf3d6b67 3f2c35b9     .'=...,?gk=..5,?
   17670:	bf3daef9 3f2beb4a bf3df26e 3f2ba0bf     ..=.J.+?n.=...+?
   17680:	bf3e35c5 3f2b561b bf3e78ff 3f2b0b5b     .5>..V+?.x>.[.+?
   17690:	bf3ebc1b 3f2ac082 bf3eff1b 3f2a758e     ..>...*?..>..u*?
   176a0:	bf3f41fc 3f2a2a80 bf3f84c0 3f29df57     .A?..**?..?.W.)?
   176b0:	bf3fc767 3f299415 bf4009f0 3f2948b8     g.?...)?..@..H)?
   176c0:	bf404c5c 3f28fd41 bf408ea9 3f28b1b0     \L@.A.(?..@...(?
   176d0:	bf40d0da 3f286605 bf4112ec 3f281a40     ..@..f(?..A.@.(?
   176e0:	bf4154e1 3f27ce61 bf4196b7 3f278268     .TA.a.'?..A.h.'?
   176f0:	bf41d870 3f273656 bf421a0b 3f26ea2a     p.A.V6'?..B.*.&?
   17700:	bf425b89 3f269de3 bf429ce8 3f265184     .[B...&?..B..Q&?
   17710:	bf42de29 3f26050a bf431f4c 3f25b877     ).B...&?L.C.w.%?
   17720:	bf436051 3f256bcb bf43a138 3f251f04     Q`C..k%?8.C...%?
   17730:	bf43e200 3f24d225 bf4422ab 3f24852c     ..C.%.$?."D.,.$?
   17740:	bf446337 3f24381a bf44a3a5 3f23eaee     7cD..8$?..D...#?
   17750:	bf44e3f5 3f239da9 bf452426 3f23504b     ..D...#?&$E.KP#?
   17760:	bf456439 3f2302d3 bf45a42d 3f22b543     9dE...#?-.E.C."?
   17770:	bf45e403 3f226799 bf4623bb 3f2219d7     ..E..g"?.#F..."?
   17780:	bf466354 3f21cbfb bf46a2ce 3f217e06     TcF...!?..F..~!?
   17790:	bf46e22a 3f212ff9 bf472167 3f20e1d2     *.F../!?g!G... ?
   177a0:	bf476085 3f209393 bf479f84 3f20453b     .`G... ?..G.;E ?
   177b0:	bf47de65 3f1ff6cb bf481d27 3f1fa841     e.G....?'.H.A..?
   177c0:	bf485bca 3f1f599f bf489a4e 3f1f0ae5     .[H..Y.?N.H....?
   177d0:	bf48d8b3 3f1ebc12 bf4916fa 3f1e6d26     ..H....?..I.&m.?
   177e0:	bf495521 3f1e1e22 bf499329 3f1dcf06     !UI."..?).I....?
   177f0:	bf49d112 3f1d7fd1 bf4a0edc 3f1d3084     ..I....?..J..0.?
   17800:	bf4a4c87 3f1ce11f bf4a8a13 3f1c91a2     .LJ....?..J....?
   17810:	bf4ac77f 3f1c420c bf4b04cc 3f1bf25f     ..J..B.?..K._..?
   17820:	bf4b41fa 3f1ba299 bf4b7f09 3f1b52bb     .AK....?..K..R.?
   17830:	bf4bbbf8 3f1b02c6 bf4bf8c7 3f1ab2b8     ..K....?..K....?
   17840:	bf4c3578 3f1a6293 bf4c7208 3f1a1255     x5L..b.?.rL.U..?
   17850:	bf4cae79 3f19c200 bf4ceacb 3f197194     y.L....?..L..q.?
   17860:	bf4d26fd 3f19210f bf4d6310 3f18d073     .&M..!.?.cM.s..?
   17870:	bf4d9f02 3f187fc0 bf4ddad5 3f182ef5     ..M....?..M....?
   17880:	bf4e1689 3f17de12 bf4e521c 3f178d18     ..N....?.RN....?
   17890:	bf4e8d90 3f173c07 bf4ec8e4 3f16eadf     ..N..<.?..N....?
   178a0:	bf4f0417 3f16999f bf4f3f2b 3f164847     ..O....?+?O.GH.?
   178b0:	bf4f7a1f 3f15f6d9 bf4fb4f4 3f15a554     .zO....?..O.T..?
   178c0:	bf4fefa8 3f1553b7 bf502a3b 3f150204     ..O..S.?;*P....?
   178d0:	bf5064af 3f14b039 bf509f03 3f145e58     .dP.9..?..P.X^.?
   178e0:	bf50d937 3f140c5f bf51134a 3f13ba50     7.P._..?J.Q.P..?
   178f0:	bf514d3d 3f13682a bf518710 3f1315ee     =MQ.*h.?..Q....?
   17900:	bf51c0c2 3f12c39a bf51fa54 3f127130     ..Q....?T.Q.0q.?
   17910:	bf5233c6 3f121eb0 bf526d18 3f11cc19     .3R....?.mR....?
   17920:	bf52a649 3f11796b bf52df59 3f1126a7     I.R.ky.?Y.R..&.?
   17930:	bf531849 3f10d3cd bf535118 3f1080dc     I.S....?.QS....?
   17940:	bf5389c7 3f102dd5 bf53c255 3f0fdab8     ..S..-.?U.S....?
   17950:	bf53fac3 3f0f8784 bf54330f 3f0f343b     ..S....?.3T.;4.?
   17960:	bf546b3b 3f0ee0db bf54a347 3f0e8d65     ;kT....?G.T.e..?
   17970:	bf54db31 3f0e39da bf5512fb 3f0de638     1.T..9.?..U.8..?
   17980:	bf554aa4 3f0d9281 bf55822c 3f0d3eb3     .JU....?,.U..>.?
   17990:	bf55b993 3f0cead0 bf55f0d9 3f0c96d7     ..U....?..U....?
   179a0:	bf5627fe 3f0c42c9 bf565f02 3f0beea5     .'V..B.?._V....?
   179b0:	bf5695e5 3f0b9a6b bf56cca7 3f0b461c     ..V.k..?..V..F.?
   179c0:	bf570348 3f0af1b7 bf5739c7 3f0a9d3d     H.W....?.9W.=..?
   179d0:	bf577026 3f0a48ad bf57a663 3f09f409     &pW..H.?c.W....?
   179e0:	bf57dc7f 3f099f4e bf581279 3f094a7f     ..W.N..?y.X..J.?
   179f0:	bf584853 3f08f59b bf587e0b 3f08a0a1     SHX....?.~X....?
   17a00:	bf58b3a1 3f084b92 bf58e917 3f07f66f     ..X..K.?..X.o..?
   17a10:	bf591e6a 3f07a136 bf59539c 3f074be8     j.Y.6..?.SY..K.?
   17a20:	bf5988ad 3f06f686 bf59bd9c 3f06a10e     ..Y....?..Y....?
   17a30:	bf59f26a 3f064b82 bf5a2716 3f05f5e2     j.Y..K.?.'Z....?
   17a40:	bf5a5ba0 3f05a02c bf5a9009 3f054a62     .[Z.,..?..Z.bJ.?
   17a50:	bf5ac450 3f04f484 bf5af875 3f049e91     P.Z....?u.Z....?
   17a60:	bf5b2c79 3f044889 bf5b605a 3f03f26d     y,[..H.?Z`[.m..?
   17a70:	bf5b941a 3f039c3d bf5bc7b8 3f0345f8     ..[.=..?..[..E.?
   17a80:	bf5bfb34 3f02ef9f bf5c2e8e 3f029932     4.[....?..\.2..?
   17a90:	bf5c61c7 3f0242b1 bf5c94dd 3f01ec1c     .a\..B.?..\....?
   17aa0:	bf5cc7d1 3f019573 bf5cfaa3 3f013eb5     ..\.s..?..\..>.?
   17ab0:	bf5d2d53 3f00e7e4 bf5d5fe1 3f0090ff     S-]....?._]....?
   17ac0:	bf5d924d 3f003a06 bf5dc497 3effc5f3     M.]..:.?..]....>
   17ad0:	bf5df6be 3eff17b2 bf5e28c3 3efe694a     ..]....>.(^.Ji.>
   17ae0:	bf5e5aa6 3efdbabb bf5e8c67 3efd0c04     .Z^....>g.^....>
   17af0:	bf5ebe05 3efc5d27 bf5eef81 3efbae22     ..^.'].>..^."..>
   17b00:	bf5f20db 3efafef7 bf5f5212 3efa4fa5     . _....>.R_..O.>
   17b10:	bf5f8327 3ef9a02d bf5fb419 3ef8f08e     '._.-..>.._....>
   17b20:	bf5fe4e9 3ef840c8 bf601596 3ef790dc     .._..@.>..`....>
   17b30:	bf604621 3ef6e0cb bf607689 3ef63093     !F`....>.v`..0.>
   17b40:	bf60a6cf 3ef58035 bf60d6f2 3ef4cfb1     ..`.5..>..`....>
   17b50:	bf6106f2 3ef41f07 bf6136d0 3ef36e38     ..a....>.6a.8n.>
   17b60:	bf61668a 3ef2bd43 bf619622 3ef20c29     .fa.C..>".a.)..>
   17b70:	bf61c598 3ef15aea bf61f4ea 3ef0a985     ..a..Z.>..a....>
   17b80:	bf62241a 3eeff7fb bf625326 3eef464c     .$b....>&Sb.LF.>
   17b90:	bf628210 3eee9479 bf62b0d7 3eede280     ..b.y..>..b....>
   17ba0:	bf62df7b 3eed3063 bf630dfc 3eec7e21     {.b.c0.>..c.!~.>
   17bb0:	bf633c5a 3eebcbbb bf636a95 3eeb1930     Z<c....>.jc.0..>
   17bc0:	bf6398ac 3eea6681 bf63c6a1 3ee9b3ae     ..c..f.>..c....>
   17bd0:	bf63f473 3ee900b7 bf642221 3ee84d9c     s.c....>!"d..M.>
   17be0:	bf644fac 3ee79a5d bf647d14 3ee6e6fb     .Od.]..>.}d....>
   17bf0:	bf64aa59 3ee63375 bf64d77b 3ee57fcb     Y.d.u3.>{.d....>
   17c00:	bf650479 3ee4cbfe bf653154 3ee4180e     y.e....>T1e....>
   17c10:	bf655e0b 3ee363fa bf658aa0 3ee2afc4     .^e..c.>..e....>
   17c20:	bf65b710 3ee1fb6a bf65e35e 3ee146ee     ..e.j..>^.e..F.>
   17c30:	bf660f88 3ee0924f bf663b8e 3edfdd8d     ..f.O..>.;f....>
   17c40:	bf666771 3edf28a9 bf669330 3ede73a2     qgf..(.>0.f..s.>
   17c50:	bf66becc 3eddbe79 bf66ea45 3edd092e     ..f.y..>E.f....>
   17c60:	bf671599 3edc53c1 bf6740ca 3edb9e31     ..g..S.>.@g.1..>
   17c70:	bf676bd8 3edae880 bf6796c1 3eda32ad     .kg....>..g..2.>
   17c80:	bf67c187 3ed97cb9 bf67ec2a 3ed8c6a3     ..g..|.>*.g....>
   17c90:	bf6816a8 3ed8106b bf684103 3ed75a13     ..h.k..>.Ah..Z.>
   17ca0:	bf686b39 3ed6a399 bf68954c 3ed5ecfd     9kh....>L.h....>
   17cb0:	bf68bf3c 3ed53641 bf68e907 3ed47f64     <.h.A6.>..h.d..>
   17cc0:	bf6912ae 3ed3c867 bf693c32 3ed31148     ..i.g..>2<i.H..>
   17cd0:	bf696591 3ed25a09 bf698ecc 3ed1a2aa     .ei..Z.>..i....>
   17ce0:	bf69b7e4 3ed0eb2a bf69e0d7 3ed0338a     ..i.*..>..i..3.>
   17cf0:	bf6a09a7 3ecf7bca bf6a3252 3ecec3ea     ..j..{.>R2j....>
   17d00:	bf6a5ad9 3ece0bea bf6a833c 3ecd53ca     .Zj....><.j..S.>
   17d10:	bf6aab7b 3ecc9b8b bf6ad395 3ecbe32c     {.j....>..j.,..>
   17d20:	bf6afb8c 3ecb2aae bf6b235e 3eca7210     ..j..*.>^#k..r.>
   17d30:	bf6b4b0c 3ec9b953 bf6b7295 3ec90077     .Kk.S..>.rk.w..>
   17d40:	bf6b99fb 3ec8477c bf6bc13b 3ec78e62     ..k.|G.>;.k.b..>
   17d50:	bf6be858 3ec6d529 bf6c0f50 3ec61bd2     X.k.)..>P.l....>
   17d60:	bf6c3624 3ec5625c bf6c5cd4 3ec4a8c8     $6l.\b.>.\l....>
   17d70:	bf6c835e 3ec3ef15 bf6ca9c5 3ec33544     ^.l....>..l.D5.>
   17d80:	bf6cd007 3ec27b55 bf6cf624 3ec1c148     ..l.U{.>$.l.H..>
   17d90:	bf6d1c1d 3ec1071e bf6d41f2 3ec04cd5     ..m....>.Am..L.>
   17da0:	bf6d67a1 3ebf926f bf6d8d2d 3ebed7eb     .gm.o..>-.m....>
   17db0:	bf6db293 3ebe1d4a bf6dd7d5 3ebd628b     ..m.J..>..m..b.>
   17dc0:	bf6dfcf2 3ebca7af bf6e21eb 3ebbecb6     ..m....>.!n....>
   17dd0:	bf6e46be 3ebb31a0 bf6e6b6d 3eba766e     .Fn..1.>mkn.nv.>
   17de0:	bf6e8ff8 3eb9bb1e bf6eb45d 3eb8ffb2     ..n....>].n....>
   17df0:	bf6ed89e 3eb8442a bf6efcba 3eb78884     ..n.*D.>..n....>
   17e00:	bf6f20b0 3eb6ccc3 bf6f4483 3eb610e6     . o....>.Do....>
   17e10:	bf6f6830 3eb554ec bf6f8bb8 3eb498d6     0ho..T.>..o....>
   17e20:	bf6faf1b 3eb3dca5 bf6fd25a 3eb32058     ..o....>Z.o.X .>
   17e30:	bf6ff573 3eb263ef bf701867 3eb1a76b     s.o..c.>g.p.k..>
   17e40:	bf703b37 3eb0eacb bf705de1 3eb02e10     7;p....>.]p....>
   17e50:	bf708066 3eaf713a bf70a2c6 3eaeb449     f.p.:q.>..p.I..>
   17e60:	bf70c502 3eadf73c bf70e717 3ead3a15     ..p.<..>..p..:.>
   17e70:	bf710908 3eac7cd4 bf712ad4 3eabbf77     ..q..|.>.*q.w..>
   17e80:	bf714c7a 3eab0201 bf716dfb 3eaa446f     zLq....>.mq.oD.>
   17e90:	bf718f57 3ea986c4 bf71b08e 3ea8c8fe     W.q....>..q....>
   17ea0:	bf71d19f 3ea80b1f bf71f28c 3ea74d25     ..q....>..q.%M.>
   17eb0:	bf721352 3ea68f12 bf7233f4 3ea5d0e5     R.r....>.3r....>
   17ec0:	bf725470 3ea5129f bf7274c7 3ea4543f     pTr....>.tr.?T.>
   17ed0:	bf7294f8 3ea395c5 bf72b504 3ea2d733     ..r....>..r.3..>
   17ee0:	bf72d4eb 3ea21887 bf72f4ac 3ea159c2     ..r....>..r..Y.>
   17ef0:	bf731447 3ea09ae5 bf7333be 3e9fdbee     G.s....>.3s....>
   17f00:	bf73530e 3e9f1cdf bf737239 3e9e5db8     .Ss....>9rs..].>
   17f10:	bf73913f 3e9d9e78 bf73b01f 3e9cdf20     ?.s.x..>..s. ..>
   17f20:	bf73ced9 3e9c1faf bf73ed6e 3e9b6027     ..s....>n.s.'`.>
   17f30:	bf740bdd 3e9aa086 bf742a27 3e99e0ce     ..t....>'*t....>
   17f40:	bf74484b 3e9920fe bf746649 3e986116     KHt.. .>Ift..a.>
   17f50:	bf748422 3e97a117 bf74a1d5 3e96e100     ".t....>..t....>
   17f60:	bf74bf62 3e9620d2 bf74dcc9 3e95608d     b.t.. .>..t..`.>
   17f70:	bf74fa0b 3e94a031 bf751727 3e93dfbf     ..t.1..>'.u....>
   17f80:	bf75341d 3e931f35 bf7550ed 3e925e94     .4u.5..>.Pu..^.>
   17f90:	bf756d97 3e919ddd bf758a1c 3e90dd10     .mu....>..u....>
   17fa0:	bf75a67b 3e901c2c bf75c2b3 3e8f5b32     {.u.,..>..u.2[.>
   17fb0:	bf75dec6 3e8e9a22 bf75fab3 3e8dd8fc     ..u."..>..u....>
   17fc0:	bf76167a 3e8d17c0 bf76321b 3e8c566e     z.v....>.2v.nV.>
   17fd0:	bf764d97 3e8b9507 bf7668ec 3e8ad38a     .Mv....>.hv....>
   17fe0:	bf76841b 3e8a11f8 bf769f24 3e895050     ..v....>$.v.PP.>
   17ff0:	bf76ba07 3e888e93 bf76d4c4 3e87ccc1     ..v....>..v....>
   18000:	bf76ef5b 3e870ada bf7709cc 3e8648df     [.v....>..w..H.>
   18010:	bf772417 3e8586ce bf773e3c 3e84c4aa     .$w....><>w....>
   18020:	bf77583a 3e840270 bf777213 3e834022     :Xw.p..>.rw."@.>
   18030:	bf778bc5 3e827dc0 bf77a551 3e81bb4a     ..w..}.>Q.w.J..>
   18040:	bf77beb7 3e80f8c0 bf77d7f7 3e803622     ..w....>..w."6.>
   18050:	bf77f110 3e7ee6e1 bf780a04 3e7d6156     ..w...~>..x.Va}>
   18060:	bf7822d1 3e7bdba4 bf783b77 3e7a55cb     ."x...{>w;x..Uz>
   18070:	bf7853f8 3e78cfcc bf786c52 3e7749a6     .Sx...x>Rlx..Iw>
   18080:	bf788486 3e75c35a bf789c93 3e743ce8     ..x.Z.u>..x..<t>
   18090:	bf78b47b 3e72b651 bf78cc3b 3e712f94     {.x.Q.r>;.x../q>
   180a0:	bf78e3d6 3e6fa8b2 bf78fb4a 3e6e21ab     ..x...o>J.x..!n>
   180b0:	bf791298 3e6c9a7f bf7929bf 3e6b132f     ..y...l>.)y./.k>
   180c0:	bf7940c0 3e698bba bf79579a 3e680422     .@y...i>.Wy.".h>
   180d0:	bf796e4e 3e667c66 bf7984dc 3e64f486     Nny.f|f>..y...d>
   180e0:	bf799b43 3e636c83 bf79b183 3e61e45c     C.y..lc>..y.\.a>
   180f0:	bf79c79d 3e605c13 bf79dd91 3e5ed3a8     ..y..\`>..y...^>
   18100:	bf79f35e 3e5d4b1a bf7a0904 3e5bc26a     ^.y..K]>..z.j.[>
   18110:	bf7a1e84 3e5a3997 bf7a33dd 3e58b0a4     ..z..9Z>.3z...X>
   18120:	bf7a4910 3e57278f bf7a5e1c 3e559e58     .Iz..'W>.^z.X.U>
   18130:	bf7a7302 3e541501 bf7a87c1 3e528b89     .sz...T>..z...R>
   18140:	bf7a9c59 3e5101f1 bf7ab0cb 3e4f7838     Y.z...Q>..z.8xO>
   18150:	bf7ac516 3e4dee60 bf7ad93a 3e4c6467     ..z.`.M>:.z.gdL>
   18160:	bf7aed37 3e4ada4f bf7b010e 3e495018     7.z.O.J>..{..PI>
   18170:	bf7b14be 3e47c5c2 bf7b2848 3e463b4d     ..{...G>H({.M;F>
   18180:	bf7b3bab 3e44b0b9 bf7b4ee7 3e432607     .;{...D>.N{..&C>
   18190:	bf7b61fc 3e419b37 bf7b74ea 3e401049     .a{.7.A>.t{.I.@>
   181a0:	bf7b87b2 3e3e853e bf7b9a53 3e3cfa15     ..{.>.>>S.{...<>
   181b0:	bf7baccd 3e3b6ecf bf7bbf20 3e39e36c     ..{..n;> .{.l.9>
   181c0:	bf7bd14d 3e3857ec bf7be353 3e36cc50     M.{..W8>S.{.P.6>
   181d0:	bf7bf531 3e354098 bf7c06e9 3e33b4c4     1.{..@5>..|...3>
   181e0:	bf7c187a 3e3228d4 bf7c29e5 3e309cc9     z.|..(2>.)|...0>
   181f0:	bf7c3b28 3e2f10a2 bf7c4c44 3e2d8461     (;|.../>DL|.a.->
   18200:	bf7c5d3a 3e2bf804 bf7c6e08 3e2a6b8d     :]|...+>.n|..k*>
   18210:	bf7c7eb0 3e28defc bf7c8f31 3e275251     .~|...(>1.|.QR'>
   18220:	bf7c9f8a 3e25c58c bf7cafbd 3e2438ad     ..|...%>..|..8$>
   18230:	bf7cbfc9 3e22abb6 bf7ccfae 3e211ea5     ..|...">..|...!>
   18240:	bf7cdf6c 3e1f917b bf7cef03 3e1e0438     l.|.{..>..|.8..>
   18250:	bf7cfe73 3e1c76de bf7d0dbc 3e1ae96b     s.|..v.>..}.k..>
   18260:	bf7d1cdd 3e195be0 bf7d2bd8 3e17ce3d     ..}..[.>.+}.=..>
   18270:	bf7d3aac 3e164083 bf7d4959 3e14b2b2     .:}..@.>YI}....>
   18280:	bf7d57de 3e1324ca bf7d663d 3e1196cc     .W}..$.>=f}....>
   18290:	bf7d7474 3e1008b7 bf7d8285 3e0e7a8b     tt}....>..}..z.>
   182a0:	bf7d906e 3e0cec4a bf7d9e30 3e0b5df3     n.}.J..>0.}..].>
   182b0:	bf7dabcc 3e09cf86 bf7db940 3e084105     ..}....>@.}..A.>
   182c0:	bf7dc68c 3e06b26e bf7dd3b2 3e0523c2     ..}.n..>..}..#.>
   182d0:	bf7de0b1 3e039502 bf7ded88 3e02062e     ..}....>..}....>
   182e0:	bf7dfa38 3e007745 bf7e06c2 3dfdd092     8.}.Ew.>..~....=
   182f0:	bf7e1324 3dfab273 bf7e1f5e 3df7942c     $.~.s..=^.~.,..=
   18300:	bf7e2b72 3df475c0 bf7e375e 3df1572e     r+~..u.=^7~..W.=
   18310:	bf7e4323 3dee3876 bf7e4ec1 3deb199a     #C~.v8.=.N~....=
   18320:	bf7e5a38 3de7fa9a bf7e6588 3de4db76     8Z~....=.e~.v..=
   18330:	bf7e70b0 3de1bc2e bf7e7bb1 3dde9cc4     .p~....=.{~....=
   18340:	bf7e868b 3ddb7d37 bf7e913d 3dd85d89     ..~.7}.==.~..].=
   18350:	bf7e9bc9 3dd53db9 bf7ea62d 3dd21dc8     ..~..=.=-.~....=
   18360:	bf7eb069 3dcefdb7 bf7eba7f 3dcbdd86     i.~....=..~....=
   18370:	bf7ec46d 3dc8bd36 bf7ece34 3dc59cc6     m.~.6..=4.~....=
   18380:	bf7ed7d4 3dc27c39 bf7ee14c 3dbf5b8d     ..~.9|.=L.~..[.=
   18390:	bf7eea9d 3dbc3ac3 bf7ef3c7 3db919dd     ..~..:.=..~....=
   183a0:	bf7efcc9 3db5f8da bf7f05a4 3db2d7bb     ..~....=.......=
   183b0:	bf7f0e58 3dafb680 bf7f16e4 3dac952b     X......=....+..=
   183c0:	bf7f1f49 3da973ba bf7f2787 3da65230     I....s.=.'..0R.=
   183d0:	bf7f2f9d 3da3308c bf7f378d 3da00ecf     ./...0.=.7.....=
   183e0:	bf7f3f54 3d9cecf9 bf7f46f4 3d99cb0a     T?.....=.F.....=
   183f0:	bf7f4e6d 3d96a905 bf7f55bf 3d9386e7     mN.....=.U.....=
   18400:	bf7f5ce9 3d9064b4 bf7f63ec 3d8d426a     .\...d.=.c..jB.=
   18410:	bf7f6ac7 3d8a200a bf7f717b 3d86fd94     .j... .={q.....=
   18420:	bf7f7808 3d83db0a bf7f7e6d 3d80b86c     .x.....=m~..l..=
   18430:	bf7f84ab 3d7b2b74 bf7f8ac2 3d74e5e9     ....t+{=......t=
   18440:	bf7f90b1 3d6ea038 bf7f9678 3d685a62     ....8.n=x...bZh=
   18450:	bf7f9c18 3d621468 bf7fa191 3d5bce4c     ....h.b=....L.[=
   18460:	bf7fa6e3 3d55880e bf7fac0d 3d4f41af     ......U=.....AO=
   18470:	bf7fb10f 3d48fb2f bf7fb5ea 3d42b491     ..../.H=......B=
   18480:	bf7fba9e 3d3c6dd5 bf7fbf2a 3d3626fc     .....m<=*....&6=
   18490:	bf7fc38f 3d2fe007 bf7fc7cc 3d2998f6     ....../=......)=
   184a0:	bf7fcbe2 3d2351cc bf7fcfd1 3d1d0a88     .....Q#=.......=
   184b0:	bf7fd398 3d16c32c bf7fd737 3d107bb8     ....,..=7....{.=
   184c0:	bf7fdaaf 3d0a342f bf7fde00 3d03ec90     ..../4.=.......=
   184d0:	bf7fe129 3cfb49b9 bf7fe42b 3ceeba2d     )....I.<+...-..<
   184e0:	bf7fe705 3ce22a7b bf7fe9b8 3cd59aa6     ....{*.<.......<
   184f0:	bf7fec43 3cc90ab0 bf7feea7 3cbc7a9b     C......<.....z.<
   18500:	bf7ff0e3 3cafea69 bf7ff2f8 3ca35a1c     ....i..<.....Z.<
   18510:	bf7ff4e6 3c96c9b6 bf7ff6ac 3c8a3938     .......<....89.<
   18520:	bf7ff84a 3c7b514b bf7ff9c1 3c623000     J...KQ{<.....0b<
   18530:	bf7ffb11 3c490e90 bf7ffc39 3c2fed02     ......I<9...../<
   18540:	bf7ffd39 3c16cb59 bf7ffe13 3bfb5330     9...Y..<....0S.;
   18550:	bf7ffec4 3bc90f89 bf7fff4e 3b96cbc1     .......;N......;
   18560:	bf7fffb1 3b490fc7 bf7fffec 3ac90fd4     ......I;.......:
   18570:	bf800000 00000000 bf7fffec bac90fd4     ................
   18580:	bf7fffb1 bb490fc7 bf7fff4e bb96cbc1     ......I.N.......
   18590:	bf7ffec4 bbc90f89 bf7ffe13 bbfb5330     ............0S..
   185a0:	bf7ffd39 bc16cb59 bf7ffc39 bc2fed02     9...Y...9...../.
   185b0:	bf7ffb11 bc490e90 bf7ff9c1 bc623000     ......I......0b.
   185c0:	bf7ff84a bc7b514b bf7ff6ac bc8a3938     J...KQ{.....89..
   185d0:	bf7ff4e6 bc96c9b6 bf7ff2f8 bca35a1c     .............Z..
   185e0:	bf7ff0e3 bcafea69 bf7feea7 bcbc7a9b     ....i........z..
   185f0:	bf7fec43 bcc90ab0 bf7fe9b8 bcd59aa6     C...............
   18600:	bf7fe705 bce22a7b bf7fe42b bceeba2d     ....{*..+...-...
   18610:	bf7fe129 bcfb49b9 bf7fde00 bd03ec90     )....I..........
   18620:	bf7fdaaf bd0a342f bf7fd737 bd107bb8     ..../4..7....{..
   18630:	bf7fd398 bd16c32c bf7fcfd1 bd1d0a88     ....,...........
   18640:	bf7fcbe2 bd2351cc bf7fc7cc bd2998f6     .....Q#.......).
   18650:	bf7fc38f bd2fe007 bf7fbf2a bd3626fc     ....../.*....&6.
   18660:	bf7fba9e bd3c6dd5 bf7fb5ea bd42b491     .....m<.......B.
   18670:	bf7fb10f bd48fb2f bf7fac0d bd4f41af     ..../.H......AO.
   18680:	bf7fa6e3 bd55880e bf7fa191 bd5bce4c     ......U.....L.[.
   18690:	bf7f9c18 bd621468 bf7f9678 bd685a62     ....h.b.x...bZh.
   186a0:	bf7f90b1 bd6ea038 bf7f8ac2 bd74e5e9     ....8.n.......t.
   186b0:	bf7f84ab bd7b2b74 bf7f7e6d bd80b86c     ....t+{.m~..l...
   186c0:	bf7f7808 bd83db0a bf7f717b bd86fd94     .x......{q......
   186d0:	bf7f6ac7 bd8a200a bf7f63ec bd8d426a     .j... ...c..jB..
   186e0:	bf7f5ce9 bd9064b4 bf7f55bf bd9386e7     .\...d...U......
   186f0:	bf7f4e6d bd96a905 bf7f46f4 bd99cb0a     mN.......F......
   18700:	bf7f3f54 bd9cecf9 bf7f378d bda00ecf     T?.......7......
   18710:	bf7f2f9d bda3308c bf7f2787 bda65230     ./...0...'..0R..
   18720:	bf7f1f49 bda973ba bf7f16e4 bdac952b     I....s......+...
   18730:	bf7f0e58 bdafb680 bf7f05a4 bdb2d7bb     X...............
   18740:	bf7efcc9 bdb5f8da bf7ef3c7 bdb919dd     ..~.......~.....
   18750:	bf7eea9d bdbc3ac3 bf7ee14c bdbf5b8d     ..~..:..L.~..[..
   18760:	bf7ed7d4 bdc27c39 bf7ece34 bdc59cc6     ..~.9|..4.~.....
   18770:	bf7ec46d bdc8bd36 bf7eba7f bdcbdd86     m.~.6.....~.....
   18780:	bf7eb069 bdcefdb7 bf7ea62d bdd21dc8     i.~.....-.~.....
   18790:	bf7e9bc9 bdd53db9 bf7e913d bdd85d89     ..~..=..=.~..]..
   187a0:	bf7e868b bddb7d37 bf7e7bb1 bdde9cc4     ..~.7}...{~.....
   187b0:	bf7e70b0 bde1bc2e bf7e6588 bde4db76     .p~......e~.v...
   187c0:	bf7e5a38 bde7fa9a bf7e4ec1 bdeb199a     8Z~......N~.....
   187d0:	bf7e4323 bdee3876 bf7e375e bdf1572e     #C~.v8..^7~..W..
   187e0:	bf7e2b72 bdf475c0 bf7e1f5e bdf7942c     r+~..u..^.~.,...
   187f0:	bf7e1324 bdfab273 bf7e06c2 bdfdd092     $.~.s.....~.....
   18800:	bf7dfa38 be007745 bf7ded88 be02062e     8.}.Ew....}.....
   18810:	bf7de0b1 be039502 bf7dd3b2 be0523c2     ..}.......}..#..
   18820:	bf7dc68c be06b26e bf7db940 be084105     ..}.n...@.}..A..
   18830:	bf7dabcc be09cf86 bf7d9e30 be0b5df3     ..}.....0.}..]..
   18840:	bf7d906e be0cec4a bf7d8285 be0e7a8b     n.}.J.....}..z..
   18850:	bf7d7474 be1008b7 bf7d663d be1196cc     tt}.....=f}.....
   18860:	bf7d57de be1324ca bf7d4959 be14b2b2     .W}..$..YI}.....
   18870:	bf7d3aac be164083 bf7d2bd8 be17ce3d     .:}..@...+}.=...
   18880:	bf7d1cdd be195be0 bf7d0dbc be1ae96b     ..}..[....}.k...
   18890:	bf7cfe73 be1c76de bf7cef03 be1e0438     s.|..v....|.8...
   188a0:	bf7cdf6c be1f917b bf7ccfae be211ea5     l.|.{.....|...!.
   188b0:	bf7cbfc9 be22abb6 bf7cafbd be2438ad     ..|..."...|..8$.
   188c0:	bf7c9f8a be25c58c bf7c8f31 be275251     ..|...%.1.|.QR'.
   188d0:	bf7c7eb0 be28defc bf7c6e08 be2a6b8d     .~|...(..n|..k*.
   188e0:	bf7c5d3a be2bf804 bf7c4c44 be2d8461     :]|...+.DL|.a.-.
   188f0:	bf7c3b28 be2f10a2 bf7c29e5 be309cc9     (;|.../..)|...0.
   18900:	bf7c187a be3228d4 bf7c06e9 be33b4c4     z.|..(2...|...3.
   18910:	bf7bf531 be354098 bf7be353 be36cc50     1.{..@5.S.{.P.6.
   18920:	bf7bd14d be3857ec bf7bbf20 be39e36c     M.{..W8. .{.l.9.
   18930:	bf7baccd be3b6ecf bf7b9a53 be3cfa15     ..{..n;.S.{...<.
   18940:	bf7b87b2 be3e853e bf7b74ea be401049     ..{.>.>..t{.I.@.
   18950:	bf7b61fc be419b37 bf7b4ee7 be432607     .a{.7.A..N{..&C.
   18960:	bf7b3bab be44b0b9 bf7b2848 be463b4d     .;{...D.H({.M;F.
   18970:	bf7b14be be47c5c2 bf7b010e be495018     ..{...G...{..PI.
   18980:	bf7aed37 be4ada4f bf7ad93a be4c6467     7.z.O.J.:.z.gdL.
   18990:	bf7ac516 be4dee60 bf7ab0cb be4f7838     ..z.`.M...z.8xO.
   189a0:	bf7a9c59 be5101f1 bf7a87c1 be528b89     Y.z...Q...z...R.
   189b0:	bf7a7302 be541501 bf7a5e1c be559e58     .sz...T..^z.X.U.
   189c0:	bf7a4910 be57278f bf7a33dd be58b0a4     .Iz..'W..3z...X.
   189d0:	bf7a1e84 be5a3997 bf7a0904 be5bc26a     ..z..9Z...z.j.[.
   189e0:	bf79f35e be5d4b1a bf79dd91 be5ed3a8     ^.y..K]...y...^.
   189f0:	bf79c79d be605c13 bf79b183 be61e45c     ..y..\`...y.\.a.
   18a00:	bf799b43 be636c83 bf7984dc be64f486     C.y..lc...y...d.
   18a10:	bf796e4e be667c66 bf79579a be680422     Nny.f|f..Wy.".h.
   18a20:	bf7940c0 be698bba bf7929bf be6b132f     .@y...i..)y./.k.
   18a30:	bf791298 be6c9a7f bf78fb4a be6e21ab     ..y...l.J.x..!n.
   18a40:	bf78e3d6 be6fa8b2 bf78cc3b be712f94     ..x...o.;.x../q.
   18a50:	bf78b47b be72b651 bf789c93 be743ce8     {.x.Q.r...x..<t.
   18a60:	bf788486 be75c35a bf786c52 be7749a6     ..x.Z.u.Rlx..Iw.
   18a70:	bf7853f8 be78cfcc bf783b77 be7a55cb     .Sx...x.w;x..Uz.
   18a80:	bf7822d1 be7bdba4 bf780a04 be7d6156     ."x...{...x.Va}.
   18a90:	bf77f110 be7ee6e1 bf77d7f7 be803622     ..w...~...w."6..
   18aa0:	bf77beb7 be80f8c0 bf77a551 be81bb4a     ..w.....Q.w.J...
   18ab0:	bf778bc5 be827dc0 bf777213 be834022     ..w..}...rw."@..
   18ac0:	bf77583a be840270 bf773e3c be84c4aa     :Xw.p...<>w.....
   18ad0:	bf772417 be8586ce bf7709cc be8648df     .$w.......w..H..
   18ae0:	bf76ef5b be870ada bf76d4c4 be87ccc1     [.v.......v.....
   18af0:	bf76ba07 be888e93 bf769f24 be895050     ..v.....$.v.PP..
   18b00:	bf76841b be8a11f8 bf7668ec be8ad38a     ..v......hv.....
   18b10:	bf764d97 be8b9507 bf76321b be8c566e     .Mv......2v.nV..
   18b20:	bf76167a be8d17c0 bf75fab3 be8dd8fc     z.v.......u.....
   18b30:	bf75dec6 be8e9a22 bf75c2b3 be8f5b32     ..u.".....u.2[..
   18b40:	bf75a67b be901c2c bf758a1c be90dd10     {.u.,.....u.....
   18b50:	bf756d97 be919ddd bf7550ed be925e94     .mu......Pu..^..
   18b60:	bf75341d be931f35 bf751727 be93dfbf     .4u.5...'.u.....
   18b70:	bf74fa0b be94a031 bf74dcc9 be95608d     ..t.1.....t..`..
   18b80:	bf74bf62 be9620d2 bf74a1d5 be96e100     b.t.. ....t.....
   18b90:	bf748422 be97a117 bf746649 be986116     ".t.....Ift..a..
   18ba0:	bf74484b be9920fe bf742a27 be99e0ce     KHt.. ..'*t.....
   18bb0:	bf740bdd be9aa086 bf73ed6e be9b6027     ..t.....n.s.'`..
   18bc0:	bf73ced9 be9c1faf bf73b01f be9cdf20     ..s.......s. ...
   18bd0:	bf73913f be9d9e78 bf737239 be9e5db8     ?.s.x...9rs..]..
   18be0:	bf73530e be9f1cdf bf7333be be9fdbee     .Ss......3s.....
   18bf0:	bf731447 bea09ae5 bf72f4ac bea159c2     G.s.......r..Y..
   18c00:	bf72d4eb bea21887 bf72b504 bea2d733     ..r.......r.3...
   18c10:	bf7294f8 bea395c5 bf7274c7 bea4543f     ..r......tr.?T..
   18c20:	bf725470 bea5129f bf7233f4 bea5d0e5     pTr......3r.....
   18c30:	bf721352 bea68f12 bf71f28c bea74d25     R.r.......q.%M..
   18c40:	bf71d19f bea80b1f bf71b08e bea8c8fe     ..q.......q.....
   18c50:	bf718f57 bea986c4 bf716dfb beaa446f     W.q......mq.oD..
   18c60:	bf714c7a beab0201 bf712ad4 beabbf77     zLq......*q.w...
   18c70:	bf710908 beac7cd4 bf70e717 bead3a15     ..q..|....p..:..
   18c80:	bf70c502 beadf73c bf70a2c6 beaeb449     ..p.<.....p.I...
   18c90:	bf708066 beaf713a bf705de1 beb02e10     f.p.:q...]p.....
   18ca0:	bf703b37 beb0eacb bf701867 beb1a76b     7;p.....g.p.k...
   18cb0:	bf6ff573 beb263ef bf6fd25a beb32058     s.o..c..Z.o.X ..
   18cc0:	bf6faf1b beb3dca5 bf6f8bb8 beb498d6     ..o.......o.....
   18cd0:	bf6f6830 beb554ec bf6f4483 beb610e6     0ho..T...Do.....
   18ce0:	bf6f20b0 beb6ccc3 bf6efcba beb78884     . o.......n.....
   18cf0:	bf6ed89e beb8442a bf6eb45d beb8ffb2     ..n.*D..].n.....
   18d00:	bf6e8ff8 beb9bb1e bf6e6b6d beba766e     ..n.....mkn.nv..
   18d10:	bf6e46be bebb31a0 bf6e21eb bebbecb6     .Fn..1...!n.....
   18d20:	bf6dfcf2 bebca7af bf6dd7d5 bebd628b     ..m.......m..b..
   18d30:	bf6db293 bebe1d4a bf6d8d2d bebed7eb     ..m.J...-.m.....
   18d40:	bf6d67a1 bebf926f bf6d41f2 bec04cd5     .gm.o....Am..L..
   18d50:	bf6d1c1d bec1071e bf6cf624 bec1c148     ..m.....$.l.H...
   18d60:	bf6cd007 bec27b55 bf6ca9c5 bec33544     ..l.U{....l.D5..
   18d70:	bf6c835e bec3ef15 bf6c5cd4 bec4a8c8     ^.l......\l.....
   18d80:	bf6c3624 bec5625c bf6c0f50 bec61bd2     $6l.\b..P.l.....
   18d90:	bf6be858 bec6d529 bf6bc13b bec78e62     X.k.)...;.k.b...
   18da0:	bf6b99fb bec8477c bf6b7295 bec90077     ..k.|G...rk.w...
   18db0:	bf6b4b0c bec9b953 bf6b235e beca7210     .Kk.S...^#k..r..
   18dc0:	bf6afb8c becb2aae bf6ad395 becbe32c     ..j..*....j.,...
   18dd0:	bf6aab7b becc9b8b bf6a833c becd53ca     {.j.....<.j..S..
   18de0:	bf6a5ad9 bece0bea bf6a3252 becec3ea     .Zj.....R2j.....
   18df0:	bf6a09a7 becf7bca bf69e0d7 bed0338a     ..j..{....i..3..
   18e00:	bf69b7e4 bed0eb2a bf698ecc bed1a2aa     ..i.*.....i.....
   18e10:	bf696591 bed25a09 bf693c32 bed31148     .ei..Z..2<i.H...
   18e20:	bf6912ae bed3c867 bf68e907 bed47f64     ..i.g.....h.d...
   18e30:	bf68bf3c bed53641 bf68954c bed5ecfd     <.h.A6..L.h.....
   18e40:	bf686b39 bed6a399 bf684103 bed75a13     9kh......Ah..Z..
   18e50:	bf6816a8 bed8106b bf67ec2a bed8c6a3     ..h.k...*.g.....
   18e60:	bf67c187 bed97cb9 bf6796c1 beda32ad     ..g..|....g..2..
   18e70:	bf676bd8 bedae880 bf6740ca bedb9e31     .kg......@g.1...
   18e80:	bf671599 bedc53c1 bf66ea45 bedd092e     ..g..S..E.f.....
   18e90:	bf66becc beddbe79 bf669330 bede73a2     ..f.y...0.f..s..
   18ea0:	bf666771 bedf28a9 bf663b8e bedfdd8d     qgf..(...;f.....
   18eb0:	bf660f88 bee0924f bf65e35e bee146ee     ..f.O...^.e..F..
   18ec0:	bf65b710 bee1fb6a bf658aa0 bee2afc4     ..e.j.....e.....
   18ed0:	bf655e0b bee363fa bf653154 bee4180e     .^e..c..T1e.....
   18ee0:	bf650479 bee4cbfe bf64d77b bee57fcb     y.e.....{.d.....
   18ef0:	bf64aa59 bee63375 bf647d14 bee6e6fb     Y.d.u3...}d.....
   18f00:	bf644fac bee79a5d bf642221 bee84d9c     .Od.]...!"d..M..
   18f10:	bf63f473 bee900b7 bf63c6a1 bee9b3ae     s.c.......c.....
   18f20:	bf6398ac beea6681 bf636a95 beeb1930     ..c..f...jc.0...
   18f30:	bf633c5a beebcbbb bf630dfc beec7e21     Z<c.......c.!~..
   18f40:	bf62df7b beed3063 bf62b0d7 beede280     {.b.c0....b.....
   18f50:	bf628210 beee9479 bf625326 beef464c     ..b.y...&Sb.LF..
   18f60:	bf62241a beeff7fb bf61f4ea bef0a985     .$b.......a.....
   18f70:	bf61c598 bef15aea bf619622 bef20c29     ..a..Z..".a.)...
   18f80:	bf61668a bef2bd43 bf6136d0 bef36e38     .fa.C....6a.8n..
   18f90:	bf6106f2 bef41f07 bf60d6f2 bef4cfb1     ..a.......`.....
   18fa0:	bf60a6cf bef58035 bf607689 bef63093     ..`.5....v`..0..
   18fb0:	bf604621 bef6e0cb bf601596 bef790dc     !F`.......`.....
   18fc0:	bf5fe4e9 bef840c8 bf5fb419 bef8f08e     .._..@...._.....
   18fd0:	bf5f8327 bef9a02d bf5f5212 befa4fa5     '._.-....R_..O..
   18fe0:	bf5f20db befafef7 bf5eef81 befbae22     . _.......^."...
   18ff0:	bf5ebe05 befc5d27 bf5e8c67 befd0c04     ..^.']..g.^.....
   19000:	bf5e5aa6 befdbabb bf5e28c3 befe694a     .Z^......(^.Ji..
   19010:	bf5df6be beff17b2 bf5dc497 beffc5f3     ..].......].....
   19020:	bf5d924d bf003a06 bf5d5fe1 bf0090ff     M.]..:..._].....
   19030:	bf5d2d53 bf00e7e4 bf5cfaa3 bf013eb5     S-].......\..>..
   19040:	bf5cc7d1 bf019573 bf5c94dd bf01ec1c     ..\.s.....\.....
   19050:	bf5c61c7 bf0242b1 bf5c2e8e bf029932     .a\..B....\.2...
   19060:	bf5bfb34 bf02ef9f bf5bc7b8 bf0345f8     4.[.......[..E..
   19070:	bf5b941a bf039c3d bf5b605a bf03f26d     ..[.=...Z`[.m...
   19080:	bf5b2c79 bf044889 bf5af875 bf049e91     y,[..H..u.Z.....
   19090:	bf5ac450 bf04f484 bf5a9009 bf054a62     P.Z.......Z.bJ..
   190a0:	bf5a5ba0 bf05a02c bf5a2716 bf05f5e2     .[Z.,....'Z.....
   190b0:	bf59f26a bf064b82 bf59bd9c bf06a10e     j.Y..K....Y.....
   190c0:	bf5988ad bf06f686 bf59539c bf074be8     ..Y......SY..K..
   190d0:	bf591e6a bf07a136 bf58e917 bf07f66f     j.Y.6.....X.o...
   190e0:	bf58b3a1 bf084b92 bf587e0b bf08a0a1     ..X..K...~X.....
   190f0:	bf584853 bf08f59b bf581279 bf094a7f     SHX.....y.X..J..
   19100:	bf57dc7f bf099f4e bf57a663 bf09f409     ..W.N...c.W.....
   19110:	bf577026 bf0a48ad bf5739c7 bf0a9d3d     &pW..H...9W.=...
   19120:	bf570348 bf0af1b7 bf56cca7 bf0b461c     H.W.......V..F..
   19130:	bf5695e5 bf0b9a6b bf565f02 bf0beea5     ..V.k...._V.....
   19140:	bf5627fe bf0c42c9 bf55f0d9 bf0c96d7     .'V..B....U.....
   19150:	bf55b993 bf0cead0 bf55822c bf0d3eb3     ..U.....,.U..>..
   19160:	bf554aa4 bf0d9281 bf5512fb bf0de638     .JU.......U.8...
   19170:	bf54db31 bf0e39da bf54a347 bf0e8d65     1.T..9..G.T.e...
   19180:	bf546b3b bf0ee0db bf54330f bf0f343b     ;kT......3T.;4..
   19190:	bf53fac3 bf0f8784 bf53c255 bf0fdab8     ..S.....U.S.....
   191a0:	bf5389c7 bf102dd5 bf535118 bf1080dc     ..S..-...QS.....
   191b0:	bf531849 bf10d3cd bf52df59 bf1126a7     I.S.....Y.R..&..
   191c0:	bf52a649 bf11796b bf526d18 bf11cc19     I.R.ky...mR.....
   191d0:	bf5233c6 bf121eb0 bf51fa54 bf127130     .3R.....T.Q.0q..
   191e0:	bf51c0c2 bf12c39a bf518710 bf1315ee     ..Q.......Q.....
   191f0:	bf514d3d bf13682a bf51134a bf13ba50     =MQ.*h..J.Q.P...
   19200:	bf50d937 bf140c5f bf509f03 bf145e58     7.P._.....P.X^..
   19210:	bf5064af bf14b039 bf502a3b bf150204     .dP.9...;*P.....
   19220:	bf4fefa8 bf1553b7 bf4fb4f4 bf15a554     ..O..S....O.T...
   19230:	bf4f7a1f bf15f6d9 bf4f3f2b bf164847     .zO.....+?O.GH..
   19240:	bf4f0417 bf16999f bf4ec8e4 bf16eadf     ..O.......N.....
   19250:	bf4e8d90 bf173c07 bf4e521c bf178d18     ..N..<...RN.....
   19260:	bf4e1689 bf17de12 bf4ddad5 bf182ef5     ..N.......M.....
   19270:	bf4d9f02 bf187fc0 bf4d6310 bf18d073     ..M......cM.s...
   19280:	bf4d26fd bf19210f bf4ceacb bf197194     .&M..!....L..q..
   19290:	bf4cae79 bf19c200 bf4c7208 bf1a1255     y.L......rL.U...
   192a0:	bf4c3578 bf1a6293 bf4bf8c7 bf1ab2b8     x5L..b....K.....
   192b0:	bf4bbbf8 bf1b02c6 bf4b7f09 bf1b52bb     ..K.......K..R..
   192c0:	bf4b41fa bf1ba299 bf4b04cc bf1bf25f     .AK.......K._...
   192d0:	bf4ac77f bf1c420c bf4a8a13 bf1c91a2     ..J..B....J.....
   192e0:	bf4a4c87 bf1ce11f bf4a0edc bf1d3084     .LJ.......J..0..
   192f0:	bf49d112 bf1d7fd1 bf499329 bf1dcf06     ..I.....).I.....
   19300:	bf495521 bf1e1e22 bf4916fa bf1e6d26     !UI.".....I.&m..
   19310:	bf48d8b3 bf1ebc12 bf489a4e bf1f0ae5     ..H.....N.H.....
   19320:	bf485bca bf1f599f bf481d27 bf1fa841     .[H..Y..'.H.A...
   19330:	bf47de65 bf1ff6cb bf479f84 bf20453b     e.G.......G.;E .
   19340:	bf476085 bf209393 bf472167 bf20e1d2     .`G... .g!G... .
   19350:	bf46e22a bf212ff9 bf46a2ce bf217e06     *.F../!...F..~!.
   19360:	bf466354 bf21cbfb bf4623bb bf2219d7     TcF...!..#F...".
   19370:	bf45e403 bf226799 bf45a42d bf22b543     ..E..g".-.E.C.".
   19380:	bf456439 bf2302d3 bf452426 bf23504b     9dE...#.&$E.KP#.
   19390:	bf44e3f5 bf239da9 bf44a3a5 bf23eaee     ..D...#...D...#.
   193a0:	bf446337 bf24381a bf4422ab bf24852c     7cD..8$.."D.,.$.
   193b0:	bf43e200 bf24d225 bf43a138 bf251f04     ..C.%.$.8.C...%.
   193c0:	bf436051 bf256bcb bf431f4c bf25b877     Q`C..k%.L.C.w.%.
   193d0:	bf42de29 bf26050a bf429ce8 bf265184     ).B...&...B..Q&.
   193e0:	bf425b89 bf269de3 bf421a0b bf26ea2a     .[B...&...B.*.&.
   193f0:	bf41d870 bf273656 bf4196b7 bf278268     p.A.V6'...A.h.'.
   19400:	bf4154e1 bf27ce61 bf4112ec bf281a40     .TA.a.'...A.@.(.
   19410:	bf40d0da bf286605 bf408ea9 bf28b1b0     ..@..f(...@...(.
   19420:	bf404c5c bf28fd41 bf4009f0 bf2948b8     \L@.A.(...@..H).
   19430:	bf3fc767 bf299415 bf3f84c0 bf29df57     g.?...)...?.W.).
   19440:	bf3f41fc bf2a2a80 bf3eff1b bf2a758e     .A?..**...>..u*.
   19450:	bf3ebc1b bf2ac082 bf3e78ff bf2b0b5b     ..>...*..x>.[.+.
   19460:	bf3e35c5 bf2b561b bf3df26e bf2ba0bf     .5>..V+.n.=...+.
   19470:	bf3daef9 bf2beb4a bf3d6b67 bf2c35b9     ..=.J.+.gk=..5,.
   19480:	bf3d27b8 bf2c800f bf3ce3ec bf2cca49     .'=...,...<.I.,.
   19490:	bf3ca003 bf2d1469 bf3c5bfc bf2d5e6f     ..<.i.-..[<.o^-.
   194a0:	bf3c17d9 bf2da859 bf3bd398 bf2df229     ..<.Y.-...;.).-.
   194b0:	bf3b8f3b bf2e3bde bf3b4ac1 bf2e8578     ;.;..;...J;.x...
   194c0:	bf3b0629 bf2ecef7 bf3ac175 bf2f185b     ).;.....u.:.[./.
   194d0:	bf3a7ca4 bf2f61a5 bf3a37b7 bf2faad3     .|:..a/..7:.../.
   194e0:	bf39f2ac bf2ff3e6 bf39ad85 bf303cde     ..9.../...9..<0.
   194f0:	bf396842 bf3085bb bf3922e1 bf30ce7c     Bh9...0.."9.|.0.
   19500:	bf38dd65 bf311722 bf3897cb bf315fad     e.8.".1...8.._1.
   19510:	bf385216 bf31a81d bf380c43 bf31f071     .R8...1.C.8.q.1.
   19520:	bf37c655 bf3238aa bf37804a bf3280c7     U.7..82.J.7...2.
   19530:	bf373a23 bf32c8c9 bf36f3df bf3310af     #:7...2...6...3.
   19540:	bf36ad7f bf33587a bf366704 bf33a029     ..6.zX3..g6.).3.
   19550:	bf36206c bf33e7bc bf35d9b8 bf342f34     l 6...3...5.4/4.
   19560:	bf3592e7 bf34768f bf354bfb bf34bdcf     ..5..v4..K5...4.
   19570:	bf3504f3 bf3504f3 bf34bdcf bf354bfb     ..5...5...4..K5.
   19580:	bf34768f bf3592e7 bf342f34 bf35d9b8     .v4...5.4/4...5.
   19590:	bf33e7bc bf36206c bf33a029 bf366704     ..3.l 6.).3..g6.
   195a0:	bf33587a bf36ad7f bf3310af bf36f3df     zX3...6...3...6.
   195b0:	bf32c8c9 bf373a23 bf3280c7 bf37804a     ..2.#:7...2.J.7.
   195c0:	bf3238aa bf37c655 bf31f071 bf380c43     .82.U.7.q.1.C.8.
   195d0:	bf31a81d bf385216 bf315fad bf3897cb     ..1..R8.._1...8.
   195e0:	bf311722 bf38dd65 bf30ce7c bf3922e1     ".1.e.8.|.0.."9.
   195f0:	bf3085bb bf396842 bf303cde bf39ad85     ..0.Bh9..<0...9.
   19600:	bf2ff3e6 bf39f2ac bf2faad3 bf3a37b7     ../...9.../..7:.
   19610:	bf2f61a5 bf3a7ca4 bf2f185b bf3ac175     .a/..|:.[./.u.:.
   19620:	bf2ecef7 bf3b0629 bf2e8578 bf3b4ac1     ....).;.x....J;.
   19630:	bf2e3bde bf3b8f3b bf2df229 bf3bd398     .;..;.;.).-...;.
   19640:	bf2da859 bf3c17d9 bf2d5e6f bf3c5bfc     Y.-...<.o^-..[<.
   19650:	bf2d1469 bf3ca003 bf2cca49 bf3ce3ec     i.-...<.I.,...<.
   19660:	bf2c800f bf3d27b8 bf2c35b9 bf3d6b67     ..,..'=..5,.gk=.
   19670:	bf2beb4a bf3daef9 bf2ba0bf bf3df26e     J.+...=...+.n.=.
   19680:	bf2b561b bf3e35c5 bf2b0b5b bf3e78ff     .V+..5>.[.+..x>.
   19690:	bf2ac082 bf3ebc1b bf2a758e bf3eff1b     ..*...>..u*...>.
   196a0:	bf2a2a80 bf3f41fc bf29df57 bf3f84c0     .**..A?.W.)...?.
   196b0:	bf299415 bf3fc767 bf2948b8 bf4009f0     ..).g.?..H)...@.
   196c0:	bf28fd41 bf404c5c bf28b1b0 bf408ea9     A.(.\L@...(...@.
   196d0:	bf286605 bf40d0da bf281a40 bf4112ec     .f(...@.@.(...A.
   196e0:	bf27ce61 bf4154e1 bf278268 bf4196b7     a.'..TA.h.'...A.
   196f0:	bf273656 bf41d870 bf26ea2a bf421a0b     V6'.p.A.*.&...B.
   19700:	bf269de3 bf425b89 bf265184 bf429ce8     ..&..[B..Q&...B.
   19710:	bf26050a bf42de29 bf25b877 bf431f4c     ..&.).B.w.%.L.C.
   19720:	bf256bcb bf436051 bf251f04 bf43a138     .k%.Q`C...%.8.C.
   19730:	bf24d225 bf43e200 bf24852c bf4422ab     %.$...C.,.$.."D.
   19740:	bf24381a bf446337 bf23eaee bf44a3a5     .8$.7cD...#...D.
   19750:	bf239da9 bf44e3f5 bf23504b bf452426     ..#...D.KP#.&$E.
   19760:	bf2302d3 bf456439 bf22b543 bf45a42d     ..#.9dE.C.".-.E.
   19770:	bf226799 bf45e403 bf2219d7 bf4623bb     .g"...E..."..#F.
   19780:	bf21cbfb bf466354 bf217e06 bf46a2ce     ..!.TcF..~!...F.
   19790:	bf212ff9 bf46e22a bf20e1d2 bf472167     ./!.*.F... .g!G.
   197a0:	bf209393 bf476085 bf20453b bf479f84     .. ..`G.;E ...G.
   197b0:	bf1ff6cb bf47de65 bf1fa841 bf481d27     ....e.G.A...'.H.
   197c0:	bf1f599f bf485bca bf1f0ae5 bf489a4e     .Y...[H.....N.H.
   197d0:	bf1ebc12 bf48d8b3 bf1e6d26 bf4916fa     ......H.&m....I.
   197e0:	bf1e1e22 bf495521 bf1dcf06 bf499329     "...!UI.....).I.
   197f0:	bf1d7fd1 bf49d112 bf1d3084 bf4a0edc     ......I..0....J.
   19800:	bf1ce11f bf4a4c87 bf1c91a2 bf4a8a13     .....LJ.......J.
   19810:	bf1c420c bf4ac77f bf1bf25f bf4b04cc     .B....J._.....K.
   19820:	bf1ba299 bf4b41fa bf1b52bb bf4b7f09     .....AK..R....K.
   19830:	bf1b02c6 bf4bbbf8 bf1ab2b8 bf4bf8c7     ......K.......K.
   19840:	bf1a6293 bf4c3578 bf1a1255 bf4c7208     .b..x5L.U....rL.
   19850:	bf19c200 bf4cae79 bf197194 bf4ceacb     ....y.L..q....L.
   19860:	bf19210f bf4d26fd bf18d073 bf4d6310     .!...&M.s....cM.
   19870:	bf187fc0 bf4d9f02 bf182ef5 bf4ddad5     ......M.......M.
   19880:	bf17de12 bf4e1689 bf178d18 bf4e521c     ......N......RN.
   19890:	bf173c07 bf4e8d90 bf16eadf bf4ec8e4     .<....N.......N.
   198a0:	bf16999f bf4f0417 bf164847 bf4f3f2b     ......O.GH..+?O.
   198b0:	bf15f6d9 bf4f7a1f bf15a554 bf4fb4f4     .....zO.T.....O.
   198c0:	bf1553b7 bf4fefa8 bf150204 bf502a3b     .S....O.....;*P.
   198d0:	bf14b039 bf5064af bf145e58 bf509f03     9....dP.X^....P.
   198e0:	bf140c5f bf50d937 bf13ba50 bf51134a     _...7.P.P...J.Q.
   198f0:	bf13682a bf514d3d bf1315ee bf518710     *h..=MQ.......Q.
   19900:	bf12c39a bf51c0c2 bf127130 bf51fa54     ......Q.0q..T.Q.
   19910:	bf121eb0 bf5233c6 bf11cc19 bf526d18     .....3R......mR.
   19920:	bf11796b bf52a649 bf1126a7 bf52df59     ky..I.R..&..Y.R.
   19930:	bf10d3cd bf531849 bf1080dc bf535118     ....I.S......QS.
   19940:	bf102dd5 bf5389c7 bf0fdab8 bf53c255     .-....S.....U.S.
   19950:	bf0f8784 bf53fac3 bf0f343b bf54330f     ......S.;4...3T.
   19960:	bf0ee0db bf546b3b bf0e8d65 bf54a347     ....;kT.e...G.T.
   19970:	bf0e39da bf54db31 bf0de638 bf5512fb     .9..1.T.8.....U.
   19980:	bf0d9281 bf554aa4 bf0d3eb3 bf55822c     .....JU..>..,.U.
   19990:	bf0cead0 bf55b993 bf0c96d7 bf55f0d9     ......U.......U.
   199a0:	bf0c42c9 bf5627fe bf0beea5 bf565f02     .B...'V......_V.
   199b0:	bf0b9a6b bf5695e5 bf0b461c bf56cca7     k.....V..F....V.
   199c0:	bf0af1b7 bf570348 bf0a9d3d bf5739c7     ....H.W.=....9W.
   199d0:	bf0a48ad bf577026 bf09f409 bf57a663     .H..&pW.....c.W.
   199e0:	bf099f4e bf57dc7f bf094a7f bf581279     N.....W..J..y.X.
   199f0:	bf08f59b bf584853 bf08a0a1 bf587e0b     ....SHX......~X.
   19a00:	bf084b92 bf58b3a1 bf07f66f bf58e917     .K....X.o.....X.
   19a10:	bf07a136 bf591e6a bf074be8 bf59539c     6...j.Y..K...SY.
   19a20:	bf06f686 bf5988ad bf06a10e bf59bd9c     ......Y.......Y.
   19a30:	bf064b82 bf59f26a bf05f5e2 bf5a2716     .K..j.Y......'Z.
   19a40:	bf05a02c bf5a5ba0 bf054a62 bf5a9009     ,....[Z.bJ....Z.
   19a50:	bf04f484 bf5ac450 bf049e91 bf5af875     ....P.Z.....u.Z.
   19a60:	bf044889 bf5b2c79 bf03f26d bf5b605a     .H..y,[.m...Z`[.
   19a70:	bf039c3d bf5b941a bf0345f8 bf5bc7b8     =.....[..E....[.
   19a80:	bf02ef9f bf5bfb34 bf029932 bf5c2e8e     ....4.[.2.....\.
   19a90:	bf0242b1 bf5c61c7 bf01ec1c bf5c94dd     .B...a\.......\.
   19aa0:	bf019573 bf5cc7d1 bf013eb5 bf5cfaa3     s.....\..>....\.
   19ab0:	bf00e7e4 bf5d2d53 bf0090ff bf5d5fe1     ....S-]......_].
   19ac0:	bf003a06 bf5d924d beffc5f3 bf5dc497     .:..M.].......].
   19ad0:	beff17b2 bf5df6be befe694a bf5e28c3     ......].Ji...(^.
   19ae0:	befdbabb bf5e5aa6 befd0c04 bf5e8c67     .....Z^.....g.^.
   19af0:	befc5d27 bf5ebe05 befbae22 bf5eef81     ']....^.".....^.
   19b00:	befafef7 bf5f20db befa4fa5 bf5f5212     ..... _..O...R_.
   19b10:	bef9a02d bf5f8327 bef8f08e bf5fb419     -...'._......._.
   19b20:	bef840c8 bf5fe4e9 bef790dc bf601596     .@...._.......`.
   19b30:	bef6e0cb bf604621 bef63093 bf607689     ....!F`..0...v`.
   19b40:	bef58035 bf60a6cf bef4cfb1 bf60d6f2     5.....`.......`.
   19b50:	bef41f07 bf6106f2 bef36e38 bf6136d0     ......a.8n...6a.
   19b60:	bef2bd43 bf61668a bef20c29 bf619622     C....fa.)...".a.
   19b70:	bef15aea bf61c598 bef0a985 bf61f4ea     .Z....a.......a.
   19b80:	beeff7fb bf62241a beef464c bf625326     .....$b.LF..&Sb.
   19b90:	beee9479 bf628210 beede280 bf62b0d7     y.....b.......b.
   19ba0:	beed3063 bf62df7b beec7e21 bf630dfc     c0..{.b.!~....c.
   19bb0:	beebcbbb bf633c5a beeb1930 bf636a95     ....Z<c.0....jc.
   19bc0:	beea6681 bf6398ac bee9b3ae bf63c6a1     .f....c.......c.
   19bd0:	bee900b7 bf63f473 bee84d9c bf642221     ....s.c..M..!"d.
   19be0:	bee79a5d bf644fac bee6e6fb bf647d14     ]....Od......}d.
   19bf0:	bee63375 bf64aa59 bee57fcb bf64d77b     u3..Y.d.....{.d.
   19c00:	bee4cbfe bf650479 bee4180e bf653154     ....y.e.....T1e.
   19c10:	bee363fa bf655e0b bee2afc4 bf658aa0     .c...^e.......e.
   19c20:	bee1fb6a bf65b710 bee146ee bf65e35e     j.....e..F..^.e.
   19c30:	bee0924f bf660f88 bedfdd8d bf663b8e     O.....f......;f.
   19c40:	bedf28a9 bf666771 bede73a2 bf669330     .(..qgf..s..0.f.
   19c50:	beddbe79 bf66becc bedd092e bf66ea45     y.....f.....E.f.
   19c60:	bedc53c1 bf671599 bedb9e31 bf6740ca     .S....g.1....@g.
   19c70:	bedae880 bf676bd8 beda32ad bf6796c1     .....kg..2....g.
   19c80:	bed97cb9 bf67c187 bed8c6a3 bf67ec2a     .|....g.....*.g.
   19c90:	bed8106b bf6816a8 bed75a13 bf684103     k.....h..Z...Ah.
   19ca0:	bed6a399 bf686b39 bed5ecfd bf68954c     ....9kh.....L.h.
   19cb0:	bed53641 bf68bf3c bed47f64 bf68e907     A6..<.h.d.....h.
   19cc0:	bed3c867 bf6912ae bed31148 bf693c32     g.....i.H...2<i.
   19cd0:	bed25a09 bf696591 bed1a2aa bf698ecc     .Z...ei.......i.
   19ce0:	bed0eb2a bf69b7e4 bed0338a bf69e0d7     *.....i..3....i.
   19cf0:	becf7bca bf6a09a7 becec3ea bf6a3252     .{....j.....R2j.
   19d00:	bece0bea bf6a5ad9 becd53ca bf6a833c     .....Zj..S..<.j.
   19d10:	becc9b8b bf6aab7b becbe32c bf6ad395     ....{.j.,.....j.
   19d20:	becb2aae bf6afb8c beca7210 bf6b235e     .*....j..r..^#k.
   19d30:	bec9b953 bf6b4b0c bec90077 bf6b7295     S....Kk.w....rk.
   19d40:	bec8477c bf6b99fb bec78e62 bf6bc13b     |G....k.b...;.k.
   19d50:	bec6d529 bf6be858 bec61bd2 bf6c0f50     )...X.k.....P.l.
   19d60:	bec5625c bf6c3624 bec4a8c8 bf6c5cd4     \b..$6l......\l.
   19d70:	bec3ef15 bf6c835e bec33544 bf6ca9c5     ....^.l.D5....l.
   19d80:	bec27b55 bf6cd007 bec1c148 bf6cf624     U{....l.H...$.l.
   19d90:	bec1071e bf6d1c1d bec04cd5 bf6d41f2     ......m..L...Am.
   19da0:	bebf926f bf6d67a1 bebed7eb bf6d8d2d     o....gm.....-.m.
   19db0:	bebe1d4a bf6db293 bebd628b bf6dd7d5     J.....m..b....m.
   19dc0:	bebca7af bf6dfcf2 bebbecb6 bf6e21eb     ......m......!n.
   19dd0:	bebb31a0 bf6e46be beba766e bf6e6b6d     .1...Fn.nv..mkn.
   19de0:	beb9bb1e bf6e8ff8 beb8ffb2 bf6eb45d     ......n.....].n.
   19df0:	beb8442a bf6ed89e beb78884 bf6efcba     *D....n.......n.
   19e00:	beb6ccc3 bf6f20b0 beb610e6 bf6f4483     ..... o......Do.
   19e10:	beb554ec bf6f6830 beb498d6 bf6f8bb8     .T..0ho.......o.
   19e20:	beb3dca5 bf6faf1b beb32058 bf6fd25a     ......o.X ..Z.o.
   19e30:	beb263ef bf6ff573 beb1a76b bf701867     .c..s.o.k...g.p.
   19e40:	beb0eacb bf703b37 beb02e10 bf705de1     ....7;p......]p.
   19e50:	beaf713a bf708066 beaeb449 bf70a2c6     :q..f.p.I.....p.
   19e60:	beadf73c bf70c502 bead3a15 bf70e717     <.....p..:....p.
   19e70:	beac7cd4 bf710908 beabbf77 bf712ad4     .|....q.w....*q.
   19e80:	beab0201 bf714c7a beaa446f bf716dfb     ....zLq.oD...mq.
   19e90:	bea986c4 bf718f57 bea8c8fe bf71b08e     ....W.q.......q.
   19ea0:	bea80b1f bf71d19f bea74d25 bf71f28c     ......q.%M....q.
   19eb0:	bea68f12 bf721352 bea5d0e5 bf7233f4     ....R.r......3r.
   19ec0:	bea5129f bf725470 bea4543f bf7274c7     ....pTr.?T...tr.
   19ed0:	bea395c5 bf7294f8 bea2d733 bf72b504     ......r.3.....r.
   19ee0:	bea21887 bf72d4eb bea159c2 bf72f4ac     ......r..Y....r.
   19ef0:	bea09ae5 bf731447 be9fdbee bf7333be     ....G.s......3s.
   19f00:	be9f1cdf bf73530e be9e5db8 bf737239     .....Ss..]..9rs.
   19f10:	be9d9e78 bf73913f be9cdf20 bf73b01f     x...?.s. .....s.
   19f20:	be9c1faf bf73ced9 be9b6027 bf73ed6e     ......s.'`..n.s.
   19f30:	be9aa086 bf740bdd be99e0ce bf742a27     ......t.....'*t.
   19f40:	be9920fe bf74484b be986116 bf746649     . ..KHt..a..Ift.
   19f50:	be97a117 bf748422 be96e100 bf74a1d5     ....".t.......t.
   19f60:	be9620d2 bf74bf62 be95608d bf74dcc9     . ..b.t..`....t.
   19f70:	be94a031 bf74fa0b be93dfbf bf751727     1.....t.....'.u.
   19f80:	be931f35 bf75341d be925e94 bf7550ed     5....4u..^...Pu.
   19f90:	be919ddd bf756d97 be90dd10 bf758a1c     .....mu.......u.
   19fa0:	be901c2c bf75a67b be8f5b32 bf75c2b3     ,...{.u.2[....u.
   19fb0:	be8e9a22 bf75dec6 be8dd8fc bf75fab3     ".....u.......u.
   19fc0:	be8d17c0 bf76167a be8c566e bf76321b     ....z.v.nV...2v.
   19fd0:	be8b9507 bf764d97 be8ad38a bf7668ec     .....Mv......hv.
   19fe0:	be8a11f8 bf76841b be895050 bf769f24     ......v.PP..$.v.
   19ff0:	be888e93 bf76ba07 be87ccc1 bf76d4c4     ......v.......v.
   1a000:	be870ada bf76ef5b be8648df bf7709cc     ....[.v..H....w.
   1a010:	be8586ce bf772417 be84c4aa bf773e3c     .....$w.....<>w.
   1a020:	be840270 bf77583a be834022 bf777213     p...:Xw."@...rw.
   1a030:	be827dc0 bf778bc5 be81bb4a bf77a551     .}....w.J...Q.w.
   1a040:	be80f8c0 bf77beb7 be803622 bf77d7f7     ......w."6....w.
   1a050:	be7ee6e1 bf77f110 be7d6156 bf780a04     ..~...w.Va}...x.
   1a060:	be7bdba4 bf7822d1 be7a55cb bf783b77     ..{.."x..Uz.w;x.
   1a070:	be78cfcc bf7853f8 be7749a6 bf786c52     ..x..Sx..Iw.Rlx.
   1a080:	be75c35a bf788486 be743ce8 bf789c93     Z.u...x..<t...x.
   1a090:	be72b651 bf78b47b be712f94 bf78cc3b     Q.r.{.x../q.;.x.
   1a0a0:	be6fa8b2 bf78e3d6 be6e21ab bf78fb4a     ..o...x..!n.J.x.
   1a0b0:	be6c9a7f bf791298 be6b132f bf7929bf     ..l...y./.k..)y.
   1a0c0:	be698bba bf7940c0 be680422 bf79579a     ..i..@y.".h..Wy.
   1a0d0:	be667c66 bf796e4e be64f486 bf7984dc     f|f.Nny...d...y.
   1a0e0:	be636c83 bf799b43 be61e45c bf79b183     .lc.C.y.\.a...y.
   1a0f0:	be605c13 bf79c79d be5ed3a8 bf79dd91     .\`...y...^...y.
   1a100:	be5d4b1a bf79f35e be5bc26a bf7a0904     .K].^.y.j.[...z.
   1a110:	be5a3997 bf7a1e84 be58b0a4 bf7a33dd     .9Z...z...X..3z.
   1a120:	be57278f bf7a4910 be559e58 bf7a5e1c     .'W..Iz.X.U..^z.
   1a130:	be541501 bf7a7302 be528b89 bf7a87c1     ..T..sz...R...z.
   1a140:	be5101f1 bf7a9c59 be4f7838 bf7ab0cb     ..Q.Y.z.8xO...z.
   1a150:	be4dee60 bf7ac516 be4c6467 bf7ad93a     `.M...z.gdL.:.z.
   1a160:	be4ada4f bf7aed37 be495018 bf7b010e     O.J.7.z..PI...{.
   1a170:	be47c5c2 bf7b14be be463b4d bf7b2848     ..G...{.M;F.H({.
   1a180:	be44b0b9 bf7b3bab be432607 bf7b4ee7     ..D..;{..&C..N{.
   1a190:	be419b37 bf7b61fc be401049 bf7b74ea     7.A..a{.I.@..t{.
   1a1a0:	be3e853e bf7b87b2 be3cfa15 bf7b9a53     >.>...{...<.S.{.
   1a1b0:	be3b6ecf bf7baccd be39e36c bf7bbf20     .n;...{.l.9. .{.
   1a1c0:	be3857ec bf7bd14d be36cc50 bf7be353     .W8.M.{.P.6.S.{.
   1a1d0:	be354098 bf7bf531 be33b4c4 bf7c06e9     .@5.1.{...3...|.
   1a1e0:	be3228d4 bf7c187a be309cc9 bf7c29e5     .(2.z.|...0..)|.
   1a1f0:	be2f10a2 bf7c3b28 be2d8461 bf7c4c44     ../.(;|.a.-.DL|.
   1a200:	be2bf804 bf7c5d3a be2a6b8d bf7c6e08     ..+.:]|..k*..n|.
   1a210:	be28defc bf7c7eb0 be275251 bf7c8f31     ..(..~|.QR'.1.|.
   1a220:	be25c58c bf7c9f8a be2438ad bf7cafbd     ..%...|..8$...|.
   1a230:	be22abb6 bf7cbfc9 be211ea5 bf7ccfae     .."...|...!...|.
   1a240:	be1f917b bf7cdf6c be1e0438 bf7cef03     {...l.|.8.....|.
   1a250:	be1c76de bf7cfe73 be1ae96b bf7d0dbc     .v..s.|.k.....}.
   1a260:	be195be0 bf7d1cdd be17ce3d bf7d2bd8     .[....}.=....+}.
   1a270:	be164083 bf7d3aac be14b2b2 bf7d4959     .@...:}.....YI}.
   1a280:	be1324ca bf7d57de be1196cc bf7d663d     .$...W}.....=f}.
   1a290:	be1008b7 bf7d7474 be0e7a8b bf7d8285     ....tt}..z....}.
   1a2a0:	be0cec4a bf7d906e be0b5df3 bf7d9e30     J...n.}..]..0.}.
   1a2b0:	be09cf86 bf7dabcc be084105 bf7db940     ......}..A..@.}.
   1a2c0:	be06b26e bf7dc68c be0523c2 bf7dd3b2     n.....}..#....}.
   1a2d0:	be039502 bf7de0b1 be02062e bf7ded88     ......}.......}.
   1a2e0:	be007745 bf7dfa38 bdfdd092 bf7e06c2     Ew..8.}.......~.
   1a2f0:	bdfab273 bf7e1324 bdf7942c bf7e1f5e     s...$.~.,...^.~.
   1a300:	bdf475c0 bf7e2b72 bdf1572e bf7e375e     .u..r+~..W..^7~.
   1a310:	bdee3876 bf7e4323 bdeb199a bf7e4ec1     v8..#C~......N~.
   1a320:	bde7fa9a bf7e5a38 bde4db76 bf7e6588     ....8Z~.v....e~.
   1a330:	bde1bc2e bf7e70b0 bdde9cc4 bf7e7bb1     .....p~......{~.
   1a340:	bddb7d37 bf7e868b bdd85d89 bf7e913d     7}....~..]..=.~.
   1a350:	bdd53db9 bf7e9bc9 bdd21dc8 bf7ea62d     .=....~.....-.~.
   1a360:	bdcefdb7 bf7eb069 bdcbdd86 bf7eba7f     ....i.~.......~.
   1a370:	bdc8bd36 bf7ec46d bdc59cc6 bf7ece34     6...m.~.....4.~.
   1a380:	bdc27c39 bf7ed7d4 bdbf5b8d bf7ee14c     9|....~..[..L.~.
   1a390:	bdbc3ac3 bf7eea9d bdb919dd bf7ef3c7     .:....~.......~.
   1a3a0:	bdb5f8da bf7efcc9 bdb2d7bb bf7f05a4     ......~.........
   1a3b0:	bdafb680 bf7f0e58 bdac952b bf7f16e4     ....X...+.......
   1a3c0:	bda973ba bf7f1f49 bda65230 bf7f2787     .s..I...0R...'..
   1a3d0:	bda3308c bf7f2f9d bda00ecf bf7f378d     .0.../.......7..
   1a3e0:	bd9cecf9 bf7f3f54 bd99cb0a bf7f46f4     ....T?.......F..
   1a3f0:	bd96a905 bf7f4e6d bd9386e7 bf7f55bf     ....mN.......U..
   1a400:	bd9064b4 bf7f5ce9 bd8d426a bf7f63ec     .d...\..jB...c..
   1a410:	bd8a200a bf7f6ac7 bd86fd94 bf7f717b     . ...j......{q..
   1a420:	bd83db0a bf7f7808 bd80b86c bf7f7e6d     .....x..l...m~..
   1a430:	bd7b2b74 bf7f84ab bd74e5e9 bf7f8ac2     t+{.......t.....
   1a440:	bd6ea038 bf7f90b1 bd685a62 bf7f9678     8.n.....bZh.x...
   1a450:	bd621468 bf7f9c18 bd5bce4c bf7fa191     h.b.....L.[.....
   1a460:	bd55880e bf7fa6e3 bd4f41af bf7fac0d     ..U......AO.....
   1a470:	bd48fb2f bf7fb10f bd42b491 bf7fb5ea     /.H.......B.....
   1a480:	bd3c6dd5 bf7fba9e bd3626fc bf7fbf2a     .m<......&6.*...
   1a490:	bd2fe007 bf7fc38f bd2998f6 bf7fc7cc     ../.......).....
   1a4a0:	bd2351cc bf7fcbe2 bd1d0a88 bf7fcfd1     .Q#.............
   1a4b0:	bd16c32c bf7fd398 bd107bb8 bf7fd737     ,........{..7...
   1a4c0:	bd0a342f bf7fdaaf bd03ec90 bf7fde00     /4..............
   1a4d0:	bcfb49b9 bf7fe129 bceeba2d bf7fe42b     .I..)...-...+...
   1a4e0:	bce22a7b bf7fe705 bcd59aa6 bf7fe9b8     {*..............
   1a4f0:	bcc90ab0 bf7fec43 bcbc7a9b bf7feea7     ....C....z......
   1a500:	bcafea69 bf7ff0e3 bca35a1c bf7ff2f8     i........Z......
   1a510:	bc96c9b6 bf7ff4e6 bc8a3938 bf7ff6ac     ........89......
   1a520:	bc7b514b bf7ff84a bc623000 bf7ff9c1     KQ{.J....0b.....
   1a530:	bc490e90 bf7ffb11 bc2fed02 bf7ffc39     ..I......./.9...
   1a540:	bc16cb59 bf7ffd39 bbfb5330 bf7ffe13     Y...9...0S......
   1a550:	bbc90f89 bf7ffec4 bb96cbc1 bf7fff4e     ............N...
   1a560:	bb490fc7 bf7fffb1 bac90fd4 bf7fffec     ..I.............
   1a570:	80000000 bf800000 3ac90fd4 bf7fffec     ...........:....
   1a580:	3b490fc7 bf7fffb1 3b96cbc1 bf7fff4e     ..I;.......;N...
   1a590:	3bc90f89 bf7ffec4 3bfb5330 bf7ffe13     ...;....0S.;....
   1a5a0:	3c16cb59 bf7ffd39 3c2fed02 bf7ffc39     Y..<9...../<9...
   1a5b0:	3c490e90 bf7ffb11 3c623000 bf7ff9c1     ..I<.....0b<....
   1a5c0:	3c7b514b bf7ff84a 3c8a3938 bf7ff6ac     KQ{<J...89.<....
   1a5d0:	3c96c9b6 bf7ff4e6 3ca35a1c bf7ff2f8     ...<.....Z.<....
   1a5e0:	3cafea69 bf7ff0e3 3cbc7a9b bf7feea7     i..<.....z.<....
   1a5f0:	3cc90ab0 bf7fec43 3cd59aa6 bf7fe9b8     ...<C......<....
   1a600:	3ce22a7b bf7fe705 3ceeba2d bf7fe42b     {*.<....-..<+...
   1a610:	3cfb49b9 bf7fe129 3d03ec90 bf7fde00     .I.<)......=....
   1a620:	3d0a342f bf7fdaaf 3d107bb8 bf7fd737     /4.=.....{.=7...
   1a630:	3d16c32c bf7fd398 3d1d0a88 bf7fcfd1     ,..=.......=....
   1a640:	3d2351cc bf7fcbe2 3d2998f6 bf7fc7cc     .Q#=......)=....
   1a650:	3d2fe007 bf7fc38f 3d3626fc bf7fbf2a     ../=.....&6=*...
   1a660:	3d3c6dd5 bf7fba9e 3d42b491 bf7fb5ea     .m<=......B=....
   1a670:	3d48fb2f bf7fb10f 3d4f41af bf7fac0d     /.H=.....AO=....
   1a680:	3d55880e bf7fa6e3 3d5bce4c bf7fa191     ..U=....L.[=....
   1a690:	3d621468 bf7f9c18 3d685a62 bf7f9678     h.b=....bZh=x...
   1a6a0:	3d6ea038 bf7f90b1 3d74e5e9 bf7f8ac2     8.n=......t=....
   1a6b0:	3d7b2b74 bf7f84ab 3d80b86c bf7f7e6d     t+{=....l..=m~..
   1a6c0:	3d83db0a bf7f7808 3d86fd94 bf7f717b     ...=.x.....={q..
   1a6d0:	3d8a200a bf7f6ac7 3d8d426a bf7f63ec     . .=.j..jB.=.c..
   1a6e0:	3d9064b4 bf7f5ce9 3d9386e7 bf7f55bf     .d.=.\.....=.U..
   1a6f0:	3d96a905 bf7f4e6d 3d99cb0a bf7f46f4     ...=mN.....=.F..
   1a700:	3d9cecf9 bf7f3f54 3da00ecf bf7f378d     ...=T?.....=.7..
   1a710:	3da3308c bf7f2f9d 3da65230 bf7f2787     .0.=./..0R.=.'..
   1a720:	3da973ba bf7f1f49 3dac952b bf7f16e4     .s.=I...+..=....
   1a730:	3dafb680 bf7f0e58 3db2d7bb bf7f05a4     ...=X......=....
   1a740:	3db5f8da bf7efcc9 3db919dd bf7ef3c7     ...=..~....=..~.
   1a750:	3dbc3ac3 bf7eea9d 3dbf5b8d bf7ee14c     .:.=..~..[.=L.~.
   1a760:	3dc27c39 bf7ed7d4 3dc59cc6 bf7ece34     9|.=..~....=4.~.
   1a770:	3dc8bd36 bf7ec46d 3dcbdd86 bf7eba7f     6..=m.~....=..~.
   1a780:	3dcefdb7 bf7eb069 3dd21dc8 bf7ea62d     ...=i.~....=-.~.
   1a790:	3dd53db9 bf7e9bc9 3dd85d89 bf7e913d     .=.=..~..].==.~.
   1a7a0:	3ddb7d37 bf7e868b 3dde9cc4 bf7e7bb1     7}.=..~....=.{~.
   1a7b0:	3de1bc2e bf7e70b0 3de4db76 bf7e6588     ...=.p~.v..=.e~.
   1a7c0:	3de7fa9a bf7e5a38 3deb199a bf7e4ec1     ...=8Z~....=.N~.
   1a7d0:	3dee3876 bf7e4323 3df1572e bf7e375e     v8.=#C~..W.=^7~.
   1a7e0:	3df475c0 bf7e2b72 3df7942c bf7e1f5e     .u.=r+~.,..=^.~.
   1a7f0:	3dfab273 bf7e1324 3dfdd092 bf7e06c2     s..=$.~....=..~.
   1a800:	3e007745 bf7dfa38 3e02062e bf7ded88     Ew.>8.}....>..}.
   1a810:	3e039502 bf7de0b1 3e0523c2 bf7dd3b2     ...>..}..#.>..}.
   1a820:	3e06b26e bf7dc68c 3e084105 bf7db940     n..>..}..A.>@.}.
   1a830:	3e09cf86 bf7dabcc 3e0b5df3 bf7d9e30     ...>..}..].>0.}.
   1a840:	3e0cec4a bf7d906e 3e0e7a8b bf7d8285     J..>n.}..z.>..}.
   1a850:	3e1008b7 bf7d7474 3e1196cc bf7d663d     ...>tt}....>=f}.
   1a860:	3e1324ca bf7d57de 3e14b2b2 bf7d4959     .$.>.W}....>YI}.
   1a870:	3e164083 bf7d3aac 3e17ce3d bf7d2bd8     .@.>.:}.=..>.+}.
   1a880:	3e195be0 bf7d1cdd 3e1ae96b bf7d0dbc     .[.>..}.k..>..}.
   1a890:	3e1c76de bf7cfe73 3e1e0438 bf7cef03     .v.>s.|.8..>..|.
   1a8a0:	3e1f917b bf7cdf6c 3e211ea5 bf7ccfae     {..>l.|...!>..|.
   1a8b0:	3e22abb6 bf7cbfc9 3e2438ad bf7cafbd     ..">..|..8$>..|.
   1a8c0:	3e25c58c bf7c9f8a 3e275251 bf7c8f31     ..%>..|.QR'>1.|.
   1a8d0:	3e28defc bf7c7eb0 3e2a6b8d bf7c6e08     ..(>.~|..k*>.n|.
   1a8e0:	3e2bf804 bf7c5d3a 3e2d8461 bf7c4c44     ..+>:]|.a.->DL|.
   1a8f0:	3e2f10a2 bf7c3b28 3e309cc9 bf7c29e5     ../>(;|...0>.)|.
   1a900:	3e3228d4 bf7c187a 3e33b4c4 bf7c06e9     .(2>z.|...3>..|.
   1a910:	3e354098 bf7bf531 3e36cc50 bf7be353     .@5>1.{.P.6>S.{.
   1a920:	3e3857ec bf7bd14d 3e39e36c bf7bbf20     .W8>M.{.l.9> .{.
   1a930:	3e3b6ecf bf7baccd 3e3cfa15 bf7b9a53     .n;>..{...<>S.{.
   1a940:	3e3e853e bf7b87b2 3e401049 bf7b74ea     >.>>..{.I.@>.t{.
   1a950:	3e419b37 bf7b61fc 3e432607 bf7b4ee7     7.A>.a{..&C>.N{.
   1a960:	3e44b0b9 bf7b3bab 3e463b4d bf7b2848     ..D>.;{.M;F>H({.
   1a970:	3e47c5c2 bf7b14be 3e495018 bf7b010e     ..G>..{..PI>..{.
   1a980:	3e4ada4f bf7aed37 3e4c6467 bf7ad93a     O.J>7.z.gdL>:.z.
   1a990:	3e4dee60 bf7ac516 3e4f7838 bf7ab0cb     `.M>..z.8xO>..z.
   1a9a0:	3e5101f1 bf7a9c59 3e528b89 bf7a87c1     ..Q>Y.z...R>..z.
   1a9b0:	3e541501 bf7a7302 3e559e58 bf7a5e1c     ..T>.sz.X.U>.^z.
   1a9c0:	3e57278f bf7a4910 3e58b0a4 bf7a33dd     .'W>.Iz...X>.3z.
   1a9d0:	3e5a3997 bf7a1e84 3e5bc26a bf7a0904     .9Z>..z.j.[>..z.
   1a9e0:	3e5d4b1a bf79f35e 3e5ed3a8 bf79dd91     .K]>^.y...^>..y.
   1a9f0:	3e605c13 bf79c79d 3e61e45c bf79b183     .\`>..y.\.a>..y.
   1aa00:	3e636c83 bf799b43 3e64f486 bf7984dc     .lc>C.y...d>..y.
   1aa10:	3e667c66 bf796e4e 3e680422 bf79579a     f|f>Nny.".h>.Wy.
   1aa20:	3e698bba bf7940c0 3e6b132f bf7929bf     ..i>.@y./.k>.)y.
   1aa30:	3e6c9a7f bf791298 3e6e21ab bf78fb4a     ..l>..y..!n>J.x.
   1aa40:	3e6fa8b2 bf78e3d6 3e712f94 bf78cc3b     ..o>..x../q>;.x.
   1aa50:	3e72b651 bf78b47b 3e743ce8 bf789c93     Q.r>{.x..<t>..x.
   1aa60:	3e75c35a bf788486 3e7749a6 bf786c52     Z.u>..x..Iw>Rlx.
   1aa70:	3e78cfcc bf7853f8 3e7a55cb bf783b77     ..x>.Sx..Uz>w;x.
   1aa80:	3e7bdba4 bf7822d1 3e7d6156 bf780a04     ..{>."x.Va}>..x.
   1aa90:	3e7ee6e1 bf77f110 3e803622 bf77d7f7     ..~>..w."6.>..w.
   1aaa0:	3e80f8c0 bf77beb7 3e81bb4a bf77a551     ...>..w.J..>Q.w.
   1aab0:	3e827dc0 bf778bc5 3e834022 bf777213     .}.>..w."@.>.rw.
   1aac0:	3e840270 bf77583a 3e84c4aa bf773e3c     p..>:Xw....><>w.
   1aad0:	3e8586ce bf772417 3e8648df bf7709cc     ...>.$w..H.>..w.
   1aae0:	3e870ada bf76ef5b 3e87ccc1 bf76d4c4     ...>[.v....>..v.
   1aaf0:	3e888e93 bf76ba07 3e895050 bf769f24     ...>..v.PP.>$.v.
   1ab00:	3e8a11f8 bf76841b 3e8ad38a bf7668ec     ...>..v....>.hv.
   1ab10:	3e8b9507 bf764d97 3e8c566e bf76321b     ...>.Mv.nV.>.2v.
   1ab20:	3e8d17c0 bf76167a 3e8dd8fc bf75fab3     ...>z.v....>..u.
   1ab30:	3e8e9a22 bf75dec6 3e8f5b32 bf75c2b3     "..>..u.2[.>..u.
   1ab40:	3e901c2c bf75a67b 3e90dd10 bf758a1c     ,..>{.u....>..u.
   1ab50:	3e919ddd bf756d97 3e925e94 bf7550ed     ...>.mu..^.>.Pu.
   1ab60:	3e931f35 bf75341d 3e93dfbf bf751727     5..>.4u....>'.u.
   1ab70:	3e94a031 bf74fa0b 3e95608d bf74dcc9     1..>..t..`.>..t.
   1ab80:	3e9620d2 bf74bf62 3e96e100 bf74a1d5     . .>b.t....>..t.
   1ab90:	3e97a117 bf748422 3e986116 bf746649     ...>".t..a.>Ift.
   1aba0:	3e9920fe bf74484b 3e99e0ce bf742a27     . .>KHt....>'*t.
   1abb0:	3e9aa086 bf740bdd 3e9b6027 bf73ed6e     ...>..t.'`.>n.s.
   1abc0:	3e9c1faf bf73ced9 3e9cdf20 bf73b01f     ...>..s. ..>..s.
   1abd0:	3e9d9e78 bf73913f 3e9e5db8 bf737239     x..>?.s..].>9rs.
   1abe0:	3e9f1cdf bf73530e 3e9fdbee bf7333be     ...>.Ss....>.3s.
   1abf0:	3ea09ae5 bf731447 3ea159c2 bf72f4ac     ...>G.s..Y.>..r.
   1ac00:	3ea21887 bf72d4eb 3ea2d733 bf72b504     ...>..r.3..>..r.
   1ac10:	3ea395c5 bf7294f8 3ea4543f bf7274c7     ...>..r.?T.>.tr.
   1ac20:	3ea5129f bf725470 3ea5d0e5 bf7233f4     ...>pTr....>.3r.
   1ac30:	3ea68f12 bf721352 3ea74d25 bf71f28c     ...>R.r.%M.>..q.
   1ac40:	3ea80b1f bf71d19f 3ea8c8fe bf71b08e     ...>..q....>..q.
   1ac50:	3ea986c4 bf718f57 3eaa446f bf716dfb     ...>W.q.oD.>.mq.
   1ac60:	3eab0201 bf714c7a 3eabbf77 bf712ad4     ...>zLq.w..>.*q.
   1ac70:	3eac7cd4 bf710908 3ead3a15 bf70e717     .|.>..q..:.>..p.
   1ac80:	3eadf73c bf70c502 3eaeb449 bf70a2c6     <..>..p.I..>..p.
   1ac90:	3eaf713a bf708066 3eb02e10 bf705de1     :q.>f.p....>.]p.
   1aca0:	3eb0eacb bf703b37 3eb1a76b bf701867     ...>7;p.k..>g.p.
   1acb0:	3eb263ef bf6ff573 3eb32058 bf6fd25a     .c.>s.o.X .>Z.o.
   1acc0:	3eb3dca5 bf6faf1b 3eb498d6 bf6f8bb8     ...>..o....>..o.
   1acd0:	3eb554ec bf6f6830 3eb610e6 bf6f4483     .T.>0ho....>.Do.
   1ace0:	3eb6ccc3 bf6f20b0 3eb78884 bf6efcba     ...>. o....>..n.
   1acf0:	3eb8442a bf6ed89e 3eb8ffb2 bf6eb45d     *D.>..n....>].n.
   1ad00:	3eb9bb1e bf6e8ff8 3eba766e bf6e6b6d     ...>..n.nv.>mkn.
   1ad10:	3ebb31a0 bf6e46be 3ebbecb6 bf6e21eb     .1.>.Fn....>.!n.
   1ad20:	3ebca7af bf6dfcf2 3ebd628b bf6dd7d5     ...>..m..b.>..m.
   1ad30:	3ebe1d4a bf6db293 3ebed7eb bf6d8d2d     J..>..m....>-.m.
   1ad40:	3ebf926f bf6d67a1 3ec04cd5 bf6d41f2     o..>.gm..L.>.Am.
   1ad50:	3ec1071e bf6d1c1d 3ec1c148 bf6cf624     ...>..m.H..>$.l.
   1ad60:	3ec27b55 bf6cd007 3ec33544 bf6ca9c5     U{.>..l.D5.>..l.
   1ad70:	3ec3ef15 bf6c835e 3ec4a8c8 bf6c5cd4     ...>^.l....>.\l.
   1ad80:	3ec5625c bf6c3624 3ec61bd2 bf6c0f50     \b.>$6l....>P.l.
   1ad90:	3ec6d529 bf6be858 3ec78e62 bf6bc13b     )..>X.k.b..>;.k.
   1ada0:	3ec8477c bf6b99fb 3ec90077 bf6b7295     |G.>..k.w..>.rk.
   1adb0:	3ec9b953 bf6b4b0c 3eca7210 bf6b235e     S..>.Kk..r.>^#k.
   1adc0:	3ecb2aae bf6afb8c 3ecbe32c bf6ad395     .*.>..j.,..>..j.
   1add0:	3ecc9b8b bf6aab7b 3ecd53ca bf6a833c     ...>{.j..S.><.j.
   1ade0:	3ece0bea bf6a5ad9 3ecec3ea bf6a3252     ...>.Zj....>R2j.
   1adf0:	3ecf7bca bf6a09a7 3ed0338a bf69e0d7     .{.>..j..3.>..i.
   1ae00:	3ed0eb2a bf69b7e4 3ed1a2aa bf698ecc     *..>..i....>..i.
   1ae10:	3ed25a09 bf696591 3ed31148 bf693c32     .Z.>.ei.H..>2<i.
   1ae20:	3ed3c867 bf6912ae 3ed47f64 bf68e907     g..>..i.d..>..h.
   1ae30:	3ed53641 bf68bf3c 3ed5ecfd bf68954c     A6.><.h....>L.h.
   1ae40:	3ed6a399 bf686b39 3ed75a13 bf684103     ...>9kh..Z.>.Ah.
   1ae50:	3ed8106b bf6816a8 3ed8c6a3 bf67ec2a     k..>..h....>*.g.
   1ae60:	3ed97cb9 bf67c187 3eda32ad bf6796c1     .|.>..g..2.>..g.
   1ae70:	3edae880 bf676bd8 3edb9e31 bf6740ca     ...>.kg.1..>.@g.
   1ae80:	3edc53c1 bf671599 3edd092e bf66ea45     .S.>..g....>E.f.
   1ae90:	3eddbe79 bf66becc 3ede73a2 bf669330     y..>..f..s.>0.f.
   1aea0:	3edf28a9 bf666771 3edfdd8d bf663b8e     .(.>qgf....>.;f.
   1aeb0:	3ee0924f bf660f88 3ee146ee bf65e35e     O..>..f..F.>^.e.
   1aec0:	3ee1fb6a bf65b710 3ee2afc4 bf658aa0     j..>..e....>..e.
   1aed0:	3ee363fa bf655e0b 3ee4180e bf653154     .c.>.^e....>T1e.
   1aee0:	3ee4cbfe bf650479 3ee57fcb bf64d77b     ...>y.e....>{.d.
   1aef0:	3ee63375 bf64aa59 3ee6e6fb bf647d14     u3.>Y.d....>.}d.
   1af00:	3ee79a5d bf644fac 3ee84d9c bf642221     ]..>.Od..M.>!"d.
   1af10:	3ee900b7 bf63f473 3ee9b3ae bf63c6a1     ...>s.c....>..c.
   1af20:	3eea6681 bf6398ac 3eeb1930 bf636a95     .f.>..c.0..>.jc.
   1af30:	3eebcbbb bf633c5a 3eec7e21 bf630dfc     ...>Z<c.!~.>..c.
   1af40:	3eed3063 bf62df7b 3eede280 bf62b0d7     c0.>{.b....>..b.
   1af50:	3eee9479 bf628210 3eef464c bf625326     y..>..b.LF.>&Sb.
   1af60:	3eeff7fb bf62241a 3ef0a985 bf61f4ea     ...>.$b....>..a.
   1af70:	3ef15aea bf61c598 3ef20c29 bf619622     .Z.>..a.)..>".a.
   1af80:	3ef2bd43 bf61668a 3ef36e38 bf6136d0     C..>.fa.8n.>.6a.
   1af90:	3ef41f07 bf6106f2 3ef4cfb1 bf60d6f2     ...>..a....>..`.
   1afa0:	3ef58035 bf60a6cf 3ef63093 bf607689     5..>..`..0.>.v`.
   1afb0:	3ef6e0cb bf604621 3ef790dc bf601596     ...>!F`....>..`.
   1afc0:	3ef840c8 bf5fe4e9 3ef8f08e bf5fb419     .@.>.._....>.._.
   1afd0:	3ef9a02d bf5f8327 3efa4fa5 bf5f5212     -..>'._..O.>.R_.
   1afe0:	3efafef7 bf5f20db 3efbae22 bf5eef81     ...>. _."..>..^.
   1aff0:	3efc5d27 bf5ebe05 3efd0c04 bf5e8c67     '].>..^....>g.^.
   1b000:	3efdbabb bf5e5aa6 3efe694a bf5e28c3     ...>.Z^.Ji.>.(^.
   1b010:	3eff17b2 bf5df6be 3effc5f3 bf5dc497     ...>..]....>..].
   1b020:	3f003a06 bf5d924d 3f0090ff bf5d5fe1     .:.?M.]....?._].
   1b030:	3f00e7e4 bf5d2d53 3f013eb5 bf5cfaa3     ...?S-]..>.?..\.
   1b040:	3f019573 bf5cc7d1 3f01ec1c bf5c94dd     s..?..\....?..\.
   1b050:	3f0242b1 bf5c61c7 3f029932 bf5c2e8e     .B.?.a\.2..?..\.
   1b060:	3f02ef9f bf5bfb34 3f0345f8 bf5bc7b8     ...?4.[..E.?..[.
   1b070:	3f039c3d bf5b941a 3f03f26d bf5b605a     =..?..[.m..?Z`[.
   1b080:	3f044889 bf5b2c79 3f049e91 bf5af875     .H.?y,[....?u.Z.
   1b090:	3f04f484 bf5ac450 3f054a62 bf5a9009     ...?P.Z.bJ.?..Z.
   1b0a0:	3f05a02c bf5a5ba0 3f05f5e2 bf5a2716     ,..?.[Z....?.'Z.
   1b0b0:	3f064b82 bf59f26a 3f06a10e bf59bd9c     .K.?j.Y....?..Y.
   1b0c0:	3f06f686 bf5988ad 3f074be8 bf59539c     ...?..Y..K.?.SY.
   1b0d0:	3f07a136 bf591e6a 3f07f66f bf58e917     6..?j.Y.o..?..X.
   1b0e0:	3f084b92 bf58b3a1 3f08a0a1 bf587e0b     .K.?..X....?.~X.
   1b0f0:	3f08f59b bf584853 3f094a7f bf581279     ...?SHX..J.?y.X.
   1b100:	3f099f4e bf57dc7f 3f09f409 bf57a663     N..?..W....?c.W.
   1b110:	3f0a48ad bf577026 3f0a9d3d bf5739c7     .H.?&pW.=..?.9W.
   1b120:	3f0af1b7 bf570348 3f0b461c bf56cca7     ...?H.W..F.?..V.
   1b130:	3f0b9a6b bf5695e5 3f0beea5 bf565f02     k..?..V....?._V.
   1b140:	3f0c42c9 bf5627fe 3f0c96d7 bf55f0d9     .B.?.'V....?..U.
   1b150:	3f0cead0 bf55b993 3f0d3eb3 bf55822c     ...?..U..>.?,.U.
   1b160:	3f0d9281 bf554aa4 3f0de638 bf5512fb     ...?.JU.8..?..U.
   1b170:	3f0e39da bf54db31 3f0e8d65 bf54a347     .9.?1.T.e..?G.T.
   1b180:	3f0ee0db bf546b3b 3f0f343b bf54330f     ...?;kT.;4.?.3T.
   1b190:	3f0f8784 bf53fac3 3f0fdab8 bf53c255     ...?..S....?U.S.
   1b1a0:	3f102dd5 bf5389c7 3f1080dc bf535118     .-.?..S....?.QS.
   1b1b0:	3f10d3cd bf531849 3f1126a7 bf52df59     ...?I.S..&.?Y.R.
   1b1c0:	3f11796b bf52a649 3f11cc19 bf526d18     ky.?I.R....?.mR.
   1b1d0:	3f121eb0 bf5233c6 3f127130 bf51fa54     ...?.3R.0q.?T.Q.
   1b1e0:	3f12c39a bf51c0c2 3f1315ee bf518710     ...?..Q....?..Q.
   1b1f0:	3f13682a bf514d3d 3f13ba50 bf51134a     *h.?=MQ.P..?J.Q.
   1b200:	3f140c5f bf50d937 3f145e58 bf509f03     _..?7.P.X^.?..P.
   1b210:	3f14b039 bf5064af 3f150204 bf502a3b     9..?.dP....?;*P.
   1b220:	3f1553b7 bf4fefa8 3f15a554 bf4fb4f4     .S.?..O.T..?..O.
   1b230:	3f15f6d9 bf4f7a1f 3f164847 bf4f3f2b     ...?.zO.GH.?+?O.
   1b240:	3f16999f bf4f0417 3f16eadf bf4ec8e4     ...?..O....?..N.
   1b250:	3f173c07 bf4e8d90 3f178d18 bf4e521c     .<.?..N....?.RN.
   1b260:	3f17de12 bf4e1689 3f182ef5 bf4ddad5     ...?..N....?..M.
   1b270:	3f187fc0 bf4d9f02 3f18d073 bf4d6310     ...?..M.s..?.cM.
   1b280:	3f19210f bf4d26fd 3f197194 bf4ceacb     .!.?.&M..q.?..L.
   1b290:	3f19c200 bf4cae79 3f1a1255 bf4c7208     ...?y.L.U..?.rL.
   1b2a0:	3f1a6293 bf4c3578 3f1ab2b8 bf4bf8c7     .b.?x5L....?..K.
   1b2b0:	3f1b02c6 bf4bbbf8 3f1b52bb bf4b7f09     ...?..K..R.?..K.
   1b2c0:	3f1ba299 bf4b41fa 3f1bf25f bf4b04cc     ...?.AK._..?..K.
   1b2d0:	3f1c420c bf4ac77f 3f1c91a2 bf4a8a13     .B.?..J....?..J.
   1b2e0:	3f1ce11f bf4a4c87 3f1d3084 bf4a0edc     ...?.LJ..0.?..J.
   1b2f0:	3f1d7fd1 bf49d112 3f1dcf06 bf499329     ...?..I....?).I.
   1b300:	3f1e1e22 bf495521 3f1e6d26 bf4916fa     "..?!UI.&m.?..I.
   1b310:	3f1ebc12 bf48d8b3 3f1f0ae5 bf489a4e     ...?..H....?N.H.
   1b320:	3f1f599f bf485bca 3f1fa841 bf481d27     .Y.?.[H.A..?'.H.
   1b330:	3f1ff6cb bf47de65 3f20453b bf479f84     ...?e.G.;E ?..G.
   1b340:	3f209393 bf476085 3f20e1d2 bf472167     .. ?.`G... ?g!G.
   1b350:	3f212ff9 bf46e22a 3f217e06 bf46a2ce     ./!?*.F..~!?..F.
   1b360:	3f21cbfb bf466354 3f2219d7 bf4623bb     ..!?TcF..."?.#F.
   1b370:	3f226799 bf45e403 3f22b543 bf45a42d     .g"?..E.C."?-.E.
   1b380:	3f2302d3 bf456439 3f23504b bf452426     ..#?9dE.KP#?&$E.
   1b390:	3f239da9 bf44e3f5 3f23eaee bf44a3a5     ..#?..D...#?..D.
   1b3a0:	3f24381a bf446337 3f24852c bf4422ab     .8$?7cD.,.$?."D.
   1b3b0:	3f24d225 bf43e200 3f251f04 bf43a138     %.$?..C...%?8.C.
   1b3c0:	3f256bcb bf436051 3f25b877 bf431f4c     .k%?Q`C.w.%?L.C.
   1b3d0:	3f26050a bf42de29 3f265184 bf429ce8     ..&?).B..Q&?..B.
   1b3e0:	3f269de3 bf425b89 3f26ea2a bf421a0b     ..&?.[B.*.&?..B.
   1b3f0:	3f273656 bf41d870 3f278268 bf4196b7     V6'?p.A.h.'?..A.
   1b400:	3f27ce61 bf4154e1 3f281a40 bf4112ec     a.'?.TA.@.(?..A.
   1b410:	3f286605 bf40d0da 3f28b1b0 bf408ea9     .f(?..@...(?..@.
   1b420:	3f28fd41 bf404c5c 3f2948b8 bf4009f0     A.(?\L@..H)?..@.
   1b430:	3f299415 bf3fc767 3f29df57 bf3f84c0     ..)?g.?.W.)?..?.
   1b440:	3f2a2a80 bf3f41fc 3f2a758e bf3eff1b     .**?.A?..u*?..>.
   1b450:	3f2ac082 bf3ebc1b 3f2b0b5b bf3e78ff     ..*?..>.[.+?.x>.
   1b460:	3f2b561b bf3e35c5 3f2ba0bf bf3df26e     .V+?.5>...+?n.=.
   1b470:	3f2beb4a bf3daef9 3f2c35b9 bf3d6b67     J.+?..=..5,?gk=.
   1b480:	3f2c800f bf3d27b8 3f2cca49 bf3ce3ec     ..,?.'=.I.,?..<.
   1b490:	3f2d1469 bf3ca003 3f2d5e6f bf3c5bfc     i.-?..<.o^-?.[<.
   1b4a0:	3f2da859 bf3c17d9 3f2df229 bf3bd398     Y.-?..<.).-?..;.
   1b4b0:	3f2e3bde bf3b8f3b 3f2e8578 bf3b4ac1     .;.?;.;.x..?.J;.
   1b4c0:	3f2ecef7 bf3b0629 3f2f185b bf3ac175     ...?).;.[./?u.:.
   1b4d0:	3f2f61a5 bf3a7ca4 3f2faad3 bf3a37b7     .a/?.|:.../?.7:.
   1b4e0:	3f2ff3e6 bf39f2ac 3f303cde bf39ad85     ../?..9..<0?..9.
   1b4f0:	3f3085bb bf396842 3f30ce7c bf3922e1     ..0?Bh9.|.0?."9.
   1b500:	3f311722 bf38dd65 3f315fad bf3897cb     ".1?e.8.._1?..8.
   1b510:	3f31a81d bf385216 3f31f071 bf380c43     ..1?.R8.q.1?C.8.
   1b520:	3f3238aa bf37c655 3f3280c7 bf37804a     .82?U.7...2?J.7.
   1b530:	3f32c8c9 bf373a23 3f3310af bf36f3df     ..2?#:7...3?..6.
   1b540:	3f33587a bf36ad7f 3f33a029 bf366704     zX3?..6.).3?.g6.
   1b550:	3f33e7bc bf36206c 3f342f34 bf35d9b8     ..3?l 6.4/4?..5.
   1b560:	3f34768f bf3592e7 3f34bdcf bf354bfb     .v4?..5...4?.K5.
   1b570:	3f3504f3 bf3504f3 3f354bfb bf34bdcf     ..5?..5..K5?..4.
   1b580:	3f3592e7 bf34768f 3f35d9b8 bf342f34     ..5?.v4...5?4/4.
   1b590:	3f36206c bf33e7bc 3f366704 bf33a029     l 6?..3..g6?).3.
   1b5a0:	3f36ad7f bf33587a 3f36f3df bf3310af     ..6?zX3...6?..3.
   1b5b0:	3f373a23 bf32c8c9 3f37804a bf3280c7     #:7?..2.J.7?..2.
   1b5c0:	3f37c655 bf3238aa 3f380c43 bf31f071     U.7?.82.C.8?q.1.
   1b5d0:	3f385216 bf31a81d 3f3897cb bf315fad     .R8?..1...8?._1.
   1b5e0:	3f38dd65 bf311722 3f3922e1 bf30ce7c     e.8?".1.."9?|.0.
   1b5f0:	3f396842 bf3085bb 3f39ad85 bf303cde     Bh9?..0...9?.<0.
   1b600:	3f39f2ac bf2ff3e6 3f3a37b7 bf2faad3     ..9?../..7:?../.
   1b610:	3f3a7ca4 bf2f61a5 3f3ac175 bf2f185b     .|:?.a/.u.:?[./.
   1b620:	3f3b0629 bf2ecef7 3f3b4ac1 bf2e8578     ).;?.....J;?x...
   1b630:	3f3b8f3b bf2e3bde 3f3bd398 bf2df229     ;.;?.;....;?).-.
   1b640:	3f3c17d9 bf2da859 3f3c5bfc bf2d5e6f     ..<?Y.-..[<?o^-.
   1b650:	3f3ca003 bf2d1469 3f3ce3ec bf2cca49     ..<?i.-...<?I.,.
   1b660:	3f3d27b8 bf2c800f 3f3d6b67 bf2c35b9     .'=?..,.gk=?.5,.
   1b670:	3f3daef9 bf2beb4a 3f3df26e bf2ba0bf     ..=?J.+.n.=?..+.
   1b680:	3f3e35c5 bf2b561b 3f3e78ff bf2b0b5b     .5>?.V+..x>?[.+.
   1b690:	3f3ebc1b bf2ac082 3f3eff1b bf2a758e     ..>?..*...>?.u*.
   1b6a0:	3f3f41fc bf2a2a80 3f3f84c0 bf29df57     .A??.**...??W.).
   1b6b0:	3f3fc767 bf299415 3f4009f0 bf2948b8     g.??..)...@?.H).
   1b6c0:	3f404c5c bf28fd41 3f408ea9 bf28b1b0     \L@?A.(...@?..(.
   1b6d0:	3f40d0da bf286605 3f4112ec bf281a40     ..@?.f(...A?@.(.
   1b6e0:	3f4154e1 bf27ce61 3f4196b7 bf278268     .TA?a.'...A?h.'.
   1b6f0:	3f41d870 bf273656 3f421a0b bf26ea2a     p.A?V6'...B?*.&.
   1b700:	3f425b89 bf269de3 3f429ce8 bf265184     .[B?..&...B?.Q&.
   1b710:	3f42de29 bf26050a 3f431f4c bf25b877     ).B?..&.L.C?w.%.
   1b720:	3f436051 bf256bcb 3f43a138 bf251f04     Q`C?.k%.8.C?..%.
   1b730:	3f43e200 bf24d225 3f4422ab bf24852c     ..C?%.$.."D?,.$.
   1b740:	3f446337 bf24381a 3f44a3a5 bf23eaee     7cD?.8$...D?..#.
   1b750:	3f44e3f5 bf239da9 3f452426 bf23504b     ..D?..#.&$E?KP#.
   1b760:	3f456439 bf2302d3 3f45a42d bf22b543     9dE?..#.-.E?C.".
   1b770:	3f45e403 bf226799 3f4623bb bf2219d7     ..E?.g"..#F?..".
   1b780:	3f466354 bf21cbfb 3f46a2ce bf217e06     TcF?..!...F?.~!.
   1b790:	3f46e22a bf212ff9 3f472167 bf20e1d2     *.F?./!.g!G?.. .
   1b7a0:	3f476085 bf209393 3f479f84 bf20453b     .`G?.. ...G?;E .
   1b7b0:	3f47de65 bf1ff6cb 3f481d27 bf1fa841     e.G?....'.H?A...
   1b7c0:	3f485bca bf1f599f 3f489a4e bf1f0ae5     .[H?.Y..N.H?....
   1b7d0:	3f48d8b3 bf1ebc12 3f4916fa bf1e6d26     ..H?......I?&m..
   1b7e0:	3f495521 bf1e1e22 3f499329 bf1dcf06     !UI?"...).I?....
   1b7f0:	3f49d112 bf1d7fd1 3f4a0edc bf1d3084     ..I?......J?.0..
   1b800:	3f4a4c87 bf1ce11f 3f4a8a13 bf1c91a2     .LJ?......J?....
   1b810:	3f4ac77f bf1c420c 3f4b04cc bf1bf25f     ..J?.B....K?_...
   1b820:	3f4b41fa bf1ba299 3f4b7f09 bf1b52bb     .AK?......K?.R..
   1b830:	3f4bbbf8 bf1b02c6 3f4bf8c7 bf1ab2b8     ..K?......K?....
   1b840:	3f4c3578 bf1a6293 3f4c7208 bf1a1255     x5L?.b...rL?U...
   1b850:	3f4cae79 bf19c200 3f4ceacb bf197194     y.L?......L?.q..
   1b860:	3f4d26fd bf19210f 3f4d6310 bf18d073     .&M?.!...cM?s...
   1b870:	3f4d9f02 bf187fc0 3f4ddad5 bf182ef5     ..M?......M?....
   1b880:	3f4e1689 bf17de12 3f4e521c bf178d18     ..N?.....RN?....
   1b890:	3f4e8d90 bf173c07 3f4ec8e4 bf16eadf     ..N?.<....N?....
   1b8a0:	3f4f0417 bf16999f 3f4f3f2b bf164847     ..O?....+?O?GH..
   1b8b0:	3f4f7a1f bf15f6d9 3f4fb4f4 bf15a554     .zO?......O?T...
   1b8c0:	3f4fefa8 bf1553b7 3f502a3b bf150204     ..O?.S..;*P?....
   1b8d0:	3f5064af bf14b039 3f509f03 bf145e58     .dP?9.....P?X^..
   1b8e0:	3f50d937 bf140c5f 3f51134a bf13ba50     7.P?_...J.Q?P...
   1b8f0:	3f514d3d bf13682a 3f518710 bf1315ee     =MQ?*h....Q?....
   1b900:	3f51c0c2 bf12c39a 3f51fa54 bf127130     ..Q?....T.Q?0q..
   1b910:	3f5233c6 bf121eb0 3f526d18 bf11cc19     .3R?.....mR?....
   1b920:	3f52a649 bf11796b 3f52df59 bf1126a7     I.R?ky..Y.R?.&..
   1b930:	3f531849 bf10d3cd 3f535118 bf1080dc     I.S?.....QS?....
   1b940:	3f5389c7 bf102dd5 3f53c255 bf0fdab8     ..S?.-..U.S?....
   1b950:	3f53fac3 bf0f8784 3f54330f bf0f343b     ..S?.....3T?;4..
   1b960:	3f546b3b bf0ee0db 3f54a347 bf0e8d65     ;kT?....G.T?e...
   1b970:	3f54db31 bf0e39da 3f5512fb bf0de638     1.T?.9....U?8...
   1b980:	3f554aa4 bf0d9281 3f55822c bf0d3eb3     .JU?....,.U?.>..
   1b990:	3f55b993 bf0cead0 3f55f0d9 bf0c96d7     ..U?......U?....
   1b9a0:	3f5627fe bf0c42c9 3f565f02 bf0beea5     .'V?.B..._V?....
   1b9b0:	3f5695e5 bf0b9a6b 3f56cca7 bf0b461c     ..V?k.....V?.F..
   1b9c0:	3f570348 bf0af1b7 3f5739c7 bf0a9d3d     H.W?.....9W?=...
   1b9d0:	3f577026 bf0a48ad 3f57a663 bf09f409     &pW?.H..c.W?....
   1b9e0:	3f57dc7f bf099f4e 3f581279 bf094a7f     ..W?N...y.X?.J..
   1b9f0:	3f584853 bf08f59b 3f587e0b bf08a0a1     SHX?.....~X?....
   1ba00:	3f58b3a1 bf084b92 3f58e917 bf07f66f     ..X?.K....X?o...
   1ba10:	3f591e6a bf07a136 3f59539c bf074be8     j.Y?6....SY?.K..
   1ba20:	3f5988ad bf06f686 3f59bd9c bf06a10e     ..Y?......Y?....
   1ba30:	3f59f26a bf064b82 3f5a2716 bf05f5e2     j.Y?.K...'Z?....
   1ba40:	3f5a5ba0 bf05a02c 3f5a9009 bf054a62     .[Z?,.....Z?bJ..
   1ba50:	3f5ac450 bf04f484 3f5af875 bf049e91     P.Z?....u.Z?....
   1ba60:	3f5b2c79 bf044889 3f5b605a bf03f26d     y,[?.H..Z`[?m...
   1ba70:	3f5b941a bf039c3d 3f5bc7b8 bf0345f8     ..[?=.....[?.E..
   1ba80:	3f5bfb34 bf02ef9f 3f5c2e8e bf029932     4.[?......\?2...
   1ba90:	3f5c61c7 bf0242b1 3f5c94dd bf01ec1c     .a\?.B....\?....
   1baa0:	3f5cc7d1 bf019573 3f5cfaa3 bf013eb5     ..\?s.....\?.>..
   1bab0:	3f5d2d53 bf00e7e4 3f5d5fe1 bf0090ff     S-]?....._]?....
   1bac0:	3f5d924d bf003a06 3f5dc497 beffc5f3     M.]?.:....]?....
   1bad0:	3f5df6be beff17b2 3f5e28c3 befe694a     ..]?.....(^?Ji..
   1bae0:	3f5e5aa6 befdbabb 3f5e8c67 befd0c04     .Z^?....g.^?....
   1baf0:	3f5ebe05 befc5d27 3f5eef81 befbae22     ..^?']....^?"...
   1bb00:	3f5f20db befafef7 3f5f5212 befa4fa5     . _?.....R_?.O..
   1bb10:	3f5f8327 bef9a02d 3f5fb419 bef8f08e     '._?-....._?....
   1bb20:	3f5fe4e9 bef840c8 3f601596 bef790dc     .._?.@....`?....
   1bb30:	3f604621 bef6e0cb 3f607689 bef63093     !F`?.....v`?.0..
   1bb40:	3f60a6cf bef58035 3f60d6f2 bef4cfb1     ..`?5.....`?....
   1bb50:	3f6106f2 bef41f07 3f6136d0 bef36e38     ..a?.....6a?8n..
   1bb60:	3f61668a bef2bd43 3f619622 bef20c29     .fa?C...".a?)...
   1bb70:	3f61c598 bef15aea 3f61f4ea bef0a985     ..a?.Z....a?....
   1bb80:	3f62241a beeff7fb 3f625326 beef464c     .$b?....&Sb?LF..
   1bb90:	3f628210 beee9479 3f62b0d7 beede280     ..b?y.....b?....
   1bba0:	3f62df7b beed3063 3f630dfc beec7e21     {.b?c0....c?!~..
   1bbb0:	3f633c5a beebcbbb 3f636a95 beeb1930     Z<c?.....jc?0...
   1bbc0:	3f6398ac beea6681 3f63c6a1 bee9b3ae     ..c?.f....c?....
   1bbd0:	3f63f473 bee900b7 3f642221 bee84d9c     s.c?....!"d?.M..
   1bbe0:	3f644fac bee79a5d 3f647d14 bee6e6fb     .Od?]....}d?....
   1bbf0:	3f64aa59 bee63375 3f64d77b bee57fcb     Y.d?u3..{.d?....
   1bc00:	3f650479 bee4cbfe 3f653154 bee4180e     y.e?....T1e?....
   1bc10:	3f655e0b bee363fa 3f658aa0 bee2afc4     .^e?.c....e?....
   1bc20:	3f65b710 bee1fb6a 3f65e35e bee146ee     ..e?j...^.e?.F..
   1bc30:	3f660f88 bee0924f 3f663b8e bedfdd8d     ..f?O....;f?....
   1bc40:	3f666771 bedf28a9 3f669330 bede73a2     qgf?.(..0.f?.s..
   1bc50:	3f66becc beddbe79 3f66ea45 bedd092e     ..f?y...E.f?....
   1bc60:	3f671599 bedc53c1 3f6740ca bedb9e31     ..g?.S...@g?1...
   1bc70:	3f676bd8 bedae880 3f6796c1 beda32ad     .kg?......g?.2..
   1bc80:	3f67c187 bed97cb9 3f67ec2a bed8c6a3     ..g?.|..*.g?....
   1bc90:	3f6816a8 bed8106b 3f684103 bed75a13     ..h?k....Ah?.Z..
   1bca0:	3f686b39 bed6a399 3f68954c bed5ecfd     9kh?....L.h?....
   1bcb0:	3f68bf3c bed53641 3f68e907 bed47f64     <.h?A6....h?d...
   1bcc0:	3f6912ae bed3c867 3f693c32 bed31148     ..i?g...2<i?H...
   1bcd0:	3f696591 bed25a09 3f698ecc bed1a2aa     .ei?.Z....i?....
   1bce0:	3f69b7e4 bed0eb2a 3f69e0d7 bed0338a     ..i?*.....i?.3..
   1bcf0:	3f6a09a7 becf7bca 3f6a3252 becec3ea     ..j?.{..R2j?....
   1bd00:	3f6a5ad9 bece0bea 3f6a833c becd53ca     .Zj?....<.j?.S..
   1bd10:	3f6aab7b becc9b8b 3f6ad395 becbe32c     {.j?......j?,...
   1bd20:	3f6afb8c becb2aae 3f6b235e beca7210     ..j?.*..^#k?.r..
   1bd30:	3f6b4b0c bec9b953 3f6b7295 bec90077     .Kk?S....rk?w...
   1bd40:	3f6b99fb bec8477c 3f6bc13b bec78e62     ..k?|G..;.k?b...
   1bd50:	3f6be858 bec6d529 3f6c0f50 bec61bd2     X.k?)...P.l?....
   1bd60:	3f6c3624 bec5625c 3f6c5cd4 bec4a8c8     $6l?\b...\l?....
   1bd70:	3f6c835e bec3ef15 3f6ca9c5 bec33544     ^.l?......l?D5..
   1bd80:	3f6cd007 bec27b55 3f6cf624 bec1c148     ..l?U{..$.l?H...
   1bd90:	3f6d1c1d bec1071e 3f6d41f2 bec04cd5     ..m?.....Am?.L..
   1bda0:	3f6d67a1 bebf926f 3f6d8d2d bebed7eb     .gm?o...-.m?....
   1bdb0:	3f6db293 bebe1d4a 3f6dd7d5 bebd628b     ..m?J.....m?.b..
   1bdc0:	3f6dfcf2 bebca7af 3f6e21eb bebbecb6     ..m?.....!n?....
   1bdd0:	3f6e46be bebb31a0 3f6e6b6d beba766e     .Fn?.1..mkn?nv..
   1bde0:	3f6e8ff8 beb9bb1e 3f6eb45d beb8ffb2     ..n?....].n?....
   1bdf0:	3f6ed89e beb8442a 3f6efcba beb78884     ..n?*D....n?....
   1be00:	3f6f20b0 beb6ccc3 3f6f4483 beb610e6     . o?.....Do?....
   1be10:	3f6f6830 beb554ec 3f6f8bb8 beb498d6     0ho?.T....o?....
   1be20:	3f6faf1b beb3dca5 3f6fd25a beb32058     ..o?....Z.o?X ..
   1be30:	3f6ff573 beb263ef 3f701867 beb1a76b     s.o?.c..g.p?k...
   1be40:	3f703b37 beb0eacb 3f705de1 beb02e10     7;p?.....]p?....
   1be50:	3f708066 beaf713a 3f70a2c6 beaeb449     f.p?:q....p?I...
   1be60:	3f70c502 beadf73c 3f70e717 bead3a15     ..p?<.....p?.:..
   1be70:	3f710908 beac7cd4 3f712ad4 beabbf77     ..q?.|...*q?w...
   1be80:	3f714c7a beab0201 3f716dfb beaa446f     zLq?.....mq?oD..
   1be90:	3f718f57 bea986c4 3f71b08e bea8c8fe     W.q?......q?....
   1bea0:	3f71d19f bea80b1f 3f71f28c bea74d25     ..q?......q?%M..
   1beb0:	3f721352 bea68f12 3f7233f4 bea5d0e5     R.r?.....3r?....
   1bec0:	3f725470 bea5129f 3f7274c7 bea4543f     pTr?.....tr??T..
   1bed0:	3f7294f8 bea395c5 3f72b504 bea2d733     ..r?......r?3...
   1bee0:	3f72d4eb bea21887 3f72f4ac bea159c2     ..r?......r?.Y..
   1bef0:	3f731447 bea09ae5 3f7333be be9fdbee     G.s?.....3s?....
   1bf00:	3f73530e be9f1cdf 3f737239 be9e5db8     .Ss?....9rs?.]..
   1bf10:	3f73913f be9d9e78 3f73b01f be9cdf20     ?.s?x.....s? ...
   1bf20:	3f73ced9 be9c1faf 3f73ed6e be9b6027     ..s?....n.s?'`..
   1bf30:	3f740bdd be9aa086 3f742a27 be99e0ce     ..t?....'*t?....
   1bf40:	3f74484b be9920fe 3f746649 be986116     KHt?. ..Ift?.a..
   1bf50:	3f748422 be97a117 3f74a1d5 be96e100     ".t?......t?....
   1bf60:	3f74bf62 be9620d2 3f74dcc9 be95608d     b.t?. ....t?.`..
   1bf70:	3f74fa0b be94a031 3f751727 be93dfbf     ..t?1...'.u?....
   1bf80:	3f75341d be931f35 3f7550ed be925e94     .4u?5....Pu?.^..
   1bf90:	3f756d97 be919ddd 3f758a1c be90dd10     .mu?......u?....
   1bfa0:	3f75a67b be901c2c 3f75c2b3 be8f5b32     {.u?,.....u?2[..
   1bfb0:	3f75dec6 be8e9a22 3f75fab3 be8dd8fc     ..u?".....u?....
   1bfc0:	3f76167a be8d17c0 3f76321b be8c566e     z.v?.....2v?nV..
   1bfd0:	3f764d97 be8b9507 3f7668ec be8ad38a     .Mv?.....hv?....
   1bfe0:	3f76841b be8a11f8 3f769f24 be895050     ..v?....$.v?PP..
   1bff0:	3f76ba07 be888e93 3f76d4c4 be87ccc1     ..v?......v?....
   1c000:	3f76ef5b be870ada 3f7709cc be8648df     [.v?......w?.H..
   1c010:	3f772417 be8586ce 3f773e3c be84c4aa     .$w?....<>w?....
   1c020:	3f77583a be840270 3f777213 be834022     :Xw?p....rw?"@..
   1c030:	3f778bc5 be827dc0 3f77a551 be81bb4a     ..w?.}..Q.w?J...
   1c040:	3f77beb7 be80f8c0 3f77d7f7 be803622     ..w?......w?"6..
   1c050:	3f77f110 be7ee6e1 3f780a04 be7d6156     ..w?..~...x?Va}.
   1c060:	3f7822d1 be7bdba4 3f783b77 be7a55cb     ."x?..{.w;x?.Uz.
   1c070:	3f7853f8 be78cfcc 3f786c52 be7749a6     .Sx?..x.Rlx?.Iw.
   1c080:	3f788486 be75c35a 3f789c93 be743ce8     ..x?Z.u...x?.<t.
   1c090:	3f78b47b be72b651 3f78cc3b be712f94     {.x?Q.r.;.x?./q.
   1c0a0:	3f78e3d6 be6fa8b2 3f78fb4a be6e21ab     ..x?..o.J.x?.!n.
   1c0b0:	3f791298 be6c9a7f 3f7929bf be6b132f     ..y?..l..)y?/.k.
   1c0c0:	3f7940c0 be698bba 3f79579a be680422     .@y?..i..Wy?".h.
   1c0d0:	3f796e4e be667c66 3f7984dc be64f486     Nny?f|f...y?..d.
   1c0e0:	3f799b43 be636c83 3f79b183 be61e45c     C.y?.lc...y?\.a.
   1c0f0:	3f79c79d be605c13 3f79dd91 be5ed3a8     ..y?.\`...y?..^.
   1c100:	3f79f35e be5d4b1a 3f7a0904 be5bc26a     ^.y?.K]...z?j.[.
   1c110:	3f7a1e84 be5a3997 3f7a33dd be58b0a4     ..z?.9Z..3z?..X.
   1c120:	3f7a4910 be57278f 3f7a5e1c be559e58     .Iz?.'W..^z?X.U.
   1c130:	3f7a7302 be541501 3f7a87c1 be528b89     .sz?..T...z?..R.
   1c140:	3f7a9c59 be5101f1 3f7ab0cb be4f7838     Y.z?..Q...z?8xO.
   1c150:	3f7ac516 be4dee60 3f7ad93a be4c6467     ..z?`.M.:.z?gdL.
   1c160:	3f7aed37 be4ada4f 3f7b010e be495018     7.z?O.J...{?.PI.
   1c170:	3f7b14be be47c5c2 3f7b2848 be463b4d     ..{?..G.H({?M;F.
   1c180:	3f7b3bab be44b0b9 3f7b4ee7 be432607     .;{?..D..N{?.&C.
   1c190:	3f7b61fc be419b37 3f7b74ea be401049     .a{?7.A..t{?I.@.
   1c1a0:	3f7b87b2 be3e853e 3f7b9a53 be3cfa15     ..{?>.>.S.{?..<.
   1c1b0:	3f7baccd be3b6ecf 3f7bbf20 be39e36c     ..{?.n;. .{?l.9.
   1c1c0:	3f7bd14d be3857ec 3f7be353 be36cc50     M.{?.W8.S.{?P.6.
   1c1d0:	3f7bf531 be354098 3f7c06e9 be33b4c4     1.{?.@5...|?..3.
   1c1e0:	3f7c187a be3228d4 3f7c29e5 be309cc9     z.|?.(2..)|?..0.
   1c1f0:	3f7c3b28 be2f10a2 3f7c4c44 be2d8461     (;|?../.DL|?a.-.
   1c200:	3f7c5d3a be2bf804 3f7c6e08 be2a6b8d     :]|?..+..n|?.k*.
   1c210:	3f7c7eb0 be28defc 3f7c8f31 be275251     .~|?..(.1.|?QR'.
   1c220:	3f7c9f8a be25c58c 3f7cafbd be2438ad     ..|?..%...|?.8$.
   1c230:	3f7cbfc9 be22abb6 3f7ccfae be211ea5     ..|?.."...|?..!.
   1c240:	3f7cdf6c be1f917b 3f7cef03 be1e0438     l.|?{.....|?8...
   1c250:	3f7cfe73 be1c76de 3f7d0dbc be1ae96b     s.|?.v....}?k...
   1c260:	3f7d1cdd be195be0 3f7d2bd8 be17ce3d     ..}?.[...+}?=...
   1c270:	3f7d3aac be164083 3f7d4959 be14b2b2     .:}?.@..YI}?....
   1c280:	3f7d57de be1324ca 3f7d663d be1196cc     .W}?.$..=f}?....
   1c290:	3f7d7474 be1008b7 3f7d8285 be0e7a8b     tt}?......}?.z..
   1c2a0:	3f7d906e be0cec4a 3f7d9e30 be0b5df3     n.}?J...0.}?.]..
   1c2b0:	3f7dabcc be09cf86 3f7db940 be084105     ..}?....@.}?.A..
   1c2c0:	3f7dc68c be06b26e 3f7dd3b2 be0523c2     ..}?n.....}?.#..
   1c2d0:	3f7de0b1 be039502 3f7ded88 be02062e     ..}?......}?....
   1c2e0:	3f7dfa38 be007745 3f7e06c2 bdfdd092     8.}?Ew....~?....
   1c2f0:	3f7e1324 bdfab273 3f7e1f5e bdf7942c     $.~?s...^.~?,...
   1c300:	3f7e2b72 bdf475c0 3f7e375e bdf1572e     r+~?.u..^7~?.W..
   1c310:	3f7e4323 bdee3876 3f7e4ec1 bdeb199a     #C~?v8...N~?....
   1c320:	3f7e5a38 bde7fa9a 3f7e6588 bde4db76     8Z~?.....e~?v...
   1c330:	3f7e70b0 bde1bc2e 3f7e7bb1 bdde9cc4     .p~?.....{~?....
   1c340:	3f7e868b bddb7d37 3f7e913d bdd85d89     ..~?7}..=.~?.]..
   1c350:	3f7e9bc9 bdd53db9 3f7ea62d bdd21dc8     ..~?.=..-.~?....
   1c360:	3f7eb069 bdcefdb7 3f7eba7f bdcbdd86     i.~?......~?....
   1c370:	3f7ec46d bdc8bd36 3f7ece34 bdc59cc6     m.~?6...4.~?....
   1c380:	3f7ed7d4 bdc27c39 3f7ee14c bdbf5b8d     ..~?9|..L.~?.[..
   1c390:	3f7eea9d bdbc3ac3 3f7ef3c7 bdb919dd     ..~?.:....~?....
   1c3a0:	3f7efcc9 bdb5f8da 3f7f05a4 bdb2d7bb     ..~?.......?....
   1c3b0:	3f7f0e58 bdafb680 3f7f16e4 bdac952b     X..?.......?+...
   1c3c0:	3f7f1f49 bda973ba 3f7f2787 bda65230     I..?.s...'.?0R..
   1c3d0:	3f7f2f9d bda3308c 3f7f378d bda00ecf     ./.?.0...7.?....
   1c3e0:	3f7f3f54 bd9cecf9 3f7f46f4 bd99cb0a     T?.?.....F.?....
   1c3f0:	3f7f4e6d bd96a905 3f7f55bf bd9386e7     mN.?.....U.?....
   1c400:	3f7f5ce9 bd9064b4 3f7f63ec bd8d426a     .\.?.d...c.?jB..
   1c410:	3f7f6ac7 bd8a200a 3f7f717b bd86fd94     .j.?. ..{q.?....
   1c420:	3f7f7808 bd83db0a 3f7f7e6d bd80b86c     .x.?....m~.?l...
   1c430:	3f7f84ab bd7b2b74 3f7f8ac2 bd74e5e9     ...?t+{....?..t.
   1c440:	3f7f90b1 bd6ea038 3f7f9678 bd685a62     ...?8.n.x..?bZh.
   1c450:	3f7f9c18 bd621468 3f7fa191 bd5bce4c     ...?h.b....?L.[.
   1c460:	3f7fa6e3 bd55880e 3f7fac0d bd4f41af     ...?..U....?.AO.
   1c470:	3f7fb10f bd48fb2f 3f7fb5ea bd42b491     ...?/.H....?..B.
   1c480:	3f7fba9e bd3c6dd5 3f7fbf2a bd3626fc     ...?.m<.*..?.&6.
   1c490:	3f7fc38f bd2fe007 3f7fc7cc bd2998f6     ...?../....?..).
   1c4a0:	3f7fcbe2 bd2351cc 3f7fcfd1 bd1d0a88     ...?.Q#....?....
   1c4b0:	3f7fd398 bd16c32c 3f7fd737 bd107bb8     ...?,...7..?.{..
   1c4c0:	3f7fdaaf bd0a342f 3f7fde00 bd03ec90     ...?/4.....?....
   1c4d0:	3f7fe129 bcfb49b9 3f7fe42b bceeba2d     )..?.I..+..?-...
   1c4e0:	3f7fe705 bce22a7b 3f7fe9b8 bcd59aa6     ...?{*.....?....
   1c4f0:	3f7fec43 bcc90ab0 3f7feea7 bcbc7a9b     C..?.......?.z..
   1c500:	3f7ff0e3 bcafea69 3f7ff2f8 bca35a1c     ...?i......?.Z..
   1c510:	3f7ff4e6 bc96c9b6 3f7ff6ac bc8a3938     ...?.......?89..
   1c520:	3f7ff84a bc7b514b 3f7ff9c1 bc623000     J..?KQ{....?.0b.
   1c530:	3f7ffb11 bc490e90 3f7ffc39 bc2fed02     ...?..I.9..?../.
   1c540:	3f7ffd39 bc16cb59 3f7ffe13 bbfb5330     9..?Y......?0S..
   1c550:	3f7ffec4 bbc90f89 3f7fff4e bb96cbc1     ...?....N..?....
   1c560:	3f7fffb1 bb490fc7 3f7fffec bac90fd4     ...?..I....?....
   1c570:	0020002b 63257830 00642570 63255830     +. .0x%cp%d.0X%c
   1c580:	00642550 63257830 2a2e252e 70786c6c     P%d.0x%c.%.*llxp
   1c590:	30006425 2e632558 6c2a2e25 2550586c     %d.0X%c.%.*llXP%
   1c5a0:	002d0064 00770072 6c756e28 3000296c     d.-.r.w.(null).0
   1c5b0:	78300058 30003000 34333231 38373635     X.0x.0.012345678
   1c5c0:	43424139 00464544 33323130 37363534     9ABCDEF.01234567
   1c5d0:	62613938 66656463 ffffff00 ffffffff     89abcdef........

0001c5e0 <__huge_vall>:
   1c5e0:	ffffffff 7fefffff 202a2a2a 7973435f     ........*** _Csy
   1c5f0:	6c615f73 20636f6c 6c696166 000a6465     s_alloc failed..
