
C:\Users\emh203\Documents\GitHub\ESC-M4\CM4_TEST\CM4_TEST_XPRESSO54114\-O0 SOFT\CM4_TEST_LPC54110_O0_SOFT.axf:     file format elf32-littlearm
C:\Users\emh203\Documents\GitHub\ESC-M4\CM4_TEST\CM4_TEST_XPRESSO54114\-O0 SOFT\CM4_TEST_LPC54110_O0_SOFT.axf
architecture: arm, flags 0x00000112:
EXEC_P, HAS_SYMS, D_PAGED
start address 0x000001c1

Program Header:
    LOAD off    0x00010000 vaddr 0x00000000 paddr 0x00000000 align 2**16
         filesz 0x0001f0f8 memsz 0x0001f0f8 flags r-x
    LOAD off    0x00030000 vaddr 0x20000000 paddr 0x0001f0f8 align 2**16
         filesz 0x000000f8 memsz 0x0000a4c8 flags rw-
private flags = 5000200: [Version5 EABI] [soft-float ABI]

Sections:
Idx Name          Size      VMA       LMA       File off  Algn
  0 .text         0001f0f8  00000000  00000000  00010000  2**3
                  CONTENTS, ALLOC, LOAD, READONLY, CODE
  1 .data         000000f8  20000000  0001f0f8  00030000  2**2
                  CONTENTS, ALLOC, LOAD, DATA
  2 .bss          0000a3d0  200000f8  0001f1f0  000300f8  2**3
                  ALLOC
  3 .uninit_RESERVED 00000000  20000000  20000000  000300f8  2**2
                  CONTENTS
  4 .noinit       00000000  2000a4c8  2000a4c8  000300f8  2**2
                  CONTENTS
  5 .debug_info   0000edec  00000000  00000000  000300f8  2**0
                  CONTENTS, READONLY, DEBUGGING
  6 .debug_abbrev 00002659  00000000  00000000  0003eee4  2**0
                  CONTENTS, READONLY, DEBUGGING
  7 .debug_aranges 000008b0  00000000  00000000  00041540  2**3
                  CONTENTS, READONLY, DEBUGGING
  8 .debug_ranges 000006c0  00000000  00000000  00041df0  2**0
                  CONTENTS, READONLY, DEBUGGING
  9 .debug_macro  00008588  00000000  00000000  000424b0  2**0
                  CONTENTS, READONLY, DEBUGGING
 10 .debug_line   000073ac  00000000  00000000  0004aa38  2**0
                  CONTENTS, READONLY, DEBUGGING
 11 .debug_str    0001a162  00000000  00000000  00051de4  2**0
                  CONTENTS, READONLY, DEBUGGING
 12 .comment      0000014c  00000000  00000000  0006bf46  2**0
                  CONTENTS, READONLY
 13 .ARM.attributes 00000035  00000000  00000000  0006c092  2**0
                  CONTENTS, READONLY
 14 .debug_frame  00001b24  00000000  00000000  0006c0c8  2**2
                  CONTENTS, READONLY, DEBUGGING
 15 .debug_loc    00000aeb  00000000  00000000  0006dbec  2**0
                  CONTENTS, READONLY, DEBUGGING
SYMBOL TABLE:
00000000 l    d  .text	00000000 .text
20000000 l    d  .data	00000000 .data
200000f8 l    d  .bss	00000000 .bss
20000000 l    d  .uninit_RESERVED	00000000 .uninit_RESERVED
2000a4c8 l    d  .noinit	00000000 .noinit
00000000 l    d  .debug_info	00000000 .debug_info
00000000 l    d  .debug_abbrev	00000000 .debug_abbrev
00000000 l    d  .debug_aranges	00000000 .debug_aranges
00000000 l    d  .debug_ranges	00000000 .debug_ranges
00000000 l    d  .debug_macro	00000000 .debug_macro
00000000 l    d  .debug_line	00000000 .debug_line
00000000 l    d  .debug_str	00000000 .debug_str
00000000 l    d  .comment	00000000 .comment
00000000 l    d  .ARM.attributes	00000000 .ARM.attributes
00000000 l    d  .debug_frame	00000000 .debug_frame
00000000 l    d  .debug_loc	00000000 .debug_loc
00000000 l    df *ABS*	00000000 cr_startup_lpc5411x.c
00000000 l    df *ABS*	00000000 crp.c
00000000 l    df *ABS*	00000000 CM4_TEST.c
00000300 l     F .text	00000088 Chip_SYSCON_PeriphReset
00000388 l     F .text	0000008c Chip_TIMER_Init
00000414 l     F .text	00000078 arm_pid_f32
00000000 l    df *ABS*	00000000 Goertzel.c
00000000 l    df *ABS*	00000000 sysinit.c
00000000 l    df *ABS*	00000000 board.c
00001e0c l     F .text	00000040 Board_LED_Init
00001e4c l     F .text	00000040 Board_TestIO_Init
00001e8c l     F .text	0000003c Board_Button_Init
00001ec8 l     F .text	0000003c Board_UART_Init
00009b20 l     O .text	00000004 tstBits
00009b24 l     O .text	00000006 btnBits
00009b2c l     O .text	00000006 ledBits
00000000 l    df *ABS*	00000000 board_sysinit.c
00001fc4 l     F .text	00000094 ConfigureBridgeSSEL
00009b34 l     O .text	00000030 pinmuxing
00000000 l    df *ABS*	00000000 arm_cfft_f32.c
00000000 l    df *ABS*	00000000 arm_cfft_radix8_f32.c
00000000 l    df *ABS*	00000000 arm_biquad_cascade_df1_f32.c
00000000 l    df *ABS*	00000000 arm_biquad_cascade_df1_init_f32.c
00000000 l    df *ABS*	00000000 arm_biquad_cascade_df2T_f32.c
00000000 l    df *ABS*	00000000 arm_biquad_cascade_df2T_init_f32.c
00000000 l    df *ABS*	00000000 arm_fir_f32.c
00000000 l    df *ABS*	00000000 arm_fir_init_f32.c
00000000 l    df *ABS*	00000000 arm_pid_init_f32.c
00000000 l    df *ABS*	00000000 arm_cmplx_mag_f32.c
000056c4 l     F .text	0000003e arm_sqrt_f32
00000000 l    df *ABS*	00000000 arm_cmplx_mag_squared_f32.c
00000000 l    df *ABS*	00000000 arm_bitreversal2.o
00005a2c l       .text	00000000 arm_bitreversal_32_0
00005a96 l       .text	00000000 arm_bitreversal_16_0
00000000 l    df *ABS*	00000000 chip_5411x.c
00000000 l    df *ABS*	00000000 clock_5411x.c
00005af4 l     F .text	00000018 Chip_Clock_GetExtClockInRate
00005b0c l     F .text	00000012 Chip_Clock_GetRTCOscRate
00005b20 l     F .text	0000002c Chip_Clock_GetFROHFRate
00005b4c l     F .text	0000001e Chip_Clock_GetMain_A_ClockSource
00005b6c l     F .text	00000018 Chip_Clock_GetMain_B_ClockSource
00005b84 l     F .text	0000001e Chip_Clock_GetFRGClockSource
00000000 l    df *ABS*	00000000 fpu_init.c
00000000 l    df *ABS*	00000000 pll_5411x.c
00005e30 l     F .text	00000018 Chip_Clock_GetExtClockInRate
00005e48 l     F .text	00000012 Chip_Clock_GetRTCOscRate
20000108 l     O .bss	00000004 curPllRate
00005e5c l     F .text	000000a0 pllDecodeN
00005efc l     F .text	00000088 pllDecodeP
00005f84 l     F .text	000000a0 pllDecodeM
000060e0 l     F .text	00000020 Chip_Clock_GetSystemPLLOutFromSetupUpdate
00000000 l    df *ABS*	00000000 syscon_5411x.c
00000000 l    df *ABS*	00000000 sysinit_5411x.c
000063cc l     F .text	00000034 Chip_SYSCON_SetFLASHAccess
00006400 l     F .text	00000020 Chip_Clock_SetMain_A_ClockSource
00006420 l     F .text	00000020 Chip_Clock_SetMain_B_ClockSource
00006440 l     F .text	00000020 Chip_Clock_SetAsyncSysconClockSource
00006460 l     F .text	0000003c Chip_Clock_SetMainClockSource
0000649c l     F .text	00000068 setupFlashClocks
00000000 l    df *ABS*	00000000 timer_5411x.c
00000000 l    df *ABS*	00000000 uart_5411x.c
000065ac l     F .text	0000002c Chip_SYSCON_SetUSARTFRGCtrl
000065d8 l     F .text	00000026 Chip_Clock_SetFLEXCOMMClockSource
00006600 l     F .text	00000020 Chip_Clock_SetFRGClockSource
00006620 l     F .text	0000001e Chip_Clock_GetFRGClockSource
00006640 l     F .text	00000020 Chip_UART_SendByte
00006660 l     F .text	0000001a Chip_UART_GetFIFOStatus
0000667c l     F .text	00000030 Chip_UART_SetFIFOCfg
000066ac l     F .text	0000001a Chip_UART_FlushFIFOs
000066c8 l     F .text	00000064 _UART_DivClk
0000672c l     F .text	00000052 _UART_GetHighDiv
00006780 l     F .text	00000070 _CalcErr
000067f0 l     F .text	000000e4 _UART_CalcDiv
000068d4 l     F .text	000000c8 _UART_CalcMul
00000000 l    df *ABS*	00000000 flexcomm_5411x.c
00006b24 l     F .text	00000088 Chip_SYSCON_PeriphReset
00006bac l     F .text	00000038 Chip_SYSCON_EnableWakeup
00006be4 l     F .text	00000026 Chip_Clock_SetFLEXCOMMClockSource
00000000 l    df *ABS*	00000000 _cr__main.c
00000000 l    df *ABS*	00000000 cosf.c
00000000 l    df *ABS*	00000000 sinf.c
00000000 l    df *ABS*	00000000 sqrtf_m4_softfp.o
00000000 l    df *ABS*	00000000 memset.c
00000000 l    df *ABS*	00000000 fpprintf.c
00006e3a l     F .text	0000004e fp_round
00006e88 l     F .text	00000026 pr_dec.constprop.1
00006f20 l     F .text	000008f6 fp_display
00000000 l    df *ABS*	00000000 initio.c
00000000 l    df *ABS*	00000000 printf.c
00000000 l    df *ABS*	00000000 setvbuf.c
00000000 l    df *ABS*	00000000 stdlib.c
20000014 l     O .data	000000dc _random_number_seed
200000f0 l     O .data	00000004 _random_j
200000f4 l     O .data	00000004 _random_k
00000000 l    df *ABS*	00000000 strlen.c
00000000 l    df *ABS*	00000000 _sincosf.c
00000000 l    df *ABS*	00000000 fabsf.c
00000000 l    df *ABS*	00000000 _deferredlazyseek.c
00000000 l    df *ABS*	00000000 _fdopen.c
00000000 l    df *ABS*	00000000 _fflush.c
00000000 l    df *ABS*	00000000 _frexpl.c
00000000 l    df *ABS*	00000000 _ldexpl.c
00000000 l    df *ABS*	00000000 _writebuf.c
00000000 l    df *ABS*	00000000 alloc.c
00000000 l    df *ABS*	00000000 fclose.c
00000000 l    df *ABS*	00000000 fflush.c
00000000 l    df *ABS*	00000000 fseek.c
00000000 l    df *ABS*	00000000 ftell.c
00000000 l    df *ABS*	00000000 remove.c
00000000 l    df *ABS*	00000000 _cr_sbrk.c
00000000 l    df *ABS*	00000000 _do_fflush.c
00000000 l    df *ABS*	00000000 _cr_check_heap.c
00000000 l    df *ABS*	00000000 division_64.o
0000902c l       .text	00000000 ldiv64
000090ca l       .text	00000000 ldiv_divzero
00008ffc l       .text	00000000 ldiv32
000090d6 l       .text	00000000 udiv6432
00009004 l       .text	00000000 ldiv_return
0000901a l       .text	00000000 ldiv_sign
000090b4 l       .text	00000000 ldiv_res01
000090f2 l       .text	00000000 udiv6432_entry
000090de l       .text	00000000 udiv6432_loop1
000090f4 l       .text	00000000 udiv6432_loop
00000000 l    df *ABS*	00000000 division_idiv0.o
00000000 l    df *ABS*	00000000 double.c
00000000 l    df *ABS*	00000000 float.c
00000000 l    df *ABS*	00000000 memcpy.o
000098e6 l       .text	00000000 memset1a
000098d4 l       .text	00000000 __bhs_memset4
000098d6 l       .text	00000000 memset4
000098e2 l       .text	00000000 memset1
00000000 l    df *ABS*	00000000 __sys_appexit.o
00000000 l    df *ABS*	00000000 __sys_close.o
00000000 l    df *ABS*	00000000 __sys_flen.o
00000000 l    df *ABS*	00000000 __sys_istty.o
00000000 l    df *ABS*	00000000 __sys_remove.o
00000000 l    df *ABS*	00000000 __sys_seek.o
00000000 l    df *ABS*	00000000 __sys_tmpnam.o
00000000 l    df *ABS*	00000000 arm_const_structs.c
00000000 l    df *ABS*	00000000 arm_common_tables.c
00000000 l    df *ABS*	00000000 _hugeval.c
20000260 g     O .bss	00000040 FIR_Coef_q15
000097de g     F .text	00000054 __aeabi_dcmple
00011b74 g     O .text	00008000 twiddleCoef_4096
000001b8  w    F .text	00000006 SCT0_IRQHandler
00006dac g     F .text	00000014 __main
000001a0  w    F .text	00000006 DebugMon_Handler
000088c8 g     F .text	00000044 _deferredlazyseek
00000000 g       *ABS*	00000000 __base_MFlash256
0000327c g     F .text	00000146 arm_cfft_f32
000000e0 g       .text	00000000 __section_table_start
000098f4 g     F .text	00000000 __exit
00006310 g     F .text	0000002e Chip_SYSCON_Enable_ASYNC_Syscon
0000993c g     F .text	00000000 __sys_tmpnam
00007874 g     F .text	00000054 printf
00009b84 g     O .text	00000010 arm_cfft_sR_f32_len64
00000178  w    F .text	00000006 HardFault_Handler
000001b8  w    F .text	00000006 WDT_BOD_IRQHandler
000001b8  w    F .text	00000006 FLEXCOMM5_IRQHandler
00000000 g       *ABS*	00000000 __vectors_start__
000001b8  w    F .text	00000006 FLEXCOMM7_IRQHandler
000001b0  w    F .text	00000006 SysTick_Handler
00006a94 g     F .text	0000008e Chip_UART_SetBaud
00006504 g     F .text	0000006c Chip_SetupFROClocking
000001a8  w    F .text	00000006 PendSV_Handler
000060a0 g     F .text	00000040 findPllMMult
00000170  w    F .text	00000006 NMI_Handler
00005ccc g     F .text	0000001e Chip_Clock_GetSystemClockRate
0001f0f8 g       .text	00000000 __exidx_end
000000ec g       .text	00000000 __data_section_table_end
000001b8  w    F .text	00000006 MRT_IRQHandler
0000890c g     F .text	00000140 __flsbuf
00009c74 g     O .text	00000100 twiddleCoef_32
dffd76ba g       *ABS*	00000000 __valid_user_code_checksum
2000a4c0 g     O .bss	00000004 __SWVtrace_Enabled
20000250 g     O .bss	00000004 errno
0001f0f8 g       .text	00000000 _etext
00008b68 g     F .text	0000004c _ldexpl
2000010c g     O .bss	00000004 _extra
00006e28 g     F .text	00000000 sqrtf
00006dac  w    F .text	00000014 __CR_SEMIHOST
00008b0e g     F .text	0000005a _frexpl
000001b8  w    F .text	00000006 ADC_SEQB_IRQHandler
00001d2c g     F .text	000000c0 ProcessGoertzel_f32_Power
00000138 g     F .text	00000038 bss_init
00006570 g     F .text	0000003c Chip_TIMER_Reset
00004890 g     F .text	00000d84 arm_fir_f32
00004858 g     F .text	00000038 arm_biquad_cascade_df2T_init_f32
000086b4 g     F .text	00000040 setvbuf
00005a86 g       .text	00000000 arm_bitreversal_16
00009d74 g     O .text	00000200 twiddleCoef_64
00008fdc g     F .text	00000174 __aeabi_uldivmod
2000a4c8 g       .noinit	00000000 _noinit
2000a4c4 g     O .bss	00000004 SystemCoreClock
00006060 g     F .text	0000003e findPllPostDiv
0000699c g     F .text	00000032 Chip_UART_Init
000001b8  w    F .text	00000006 HWVAD_IRQHandler
00008c1c g     F .text	000000c8 malloc
00008f2c g     F .text	00000014 remove
00006a6c g     F .text	00000026 Chip_UART_CalculateBaud
00009bf4 g     O .text	00000080 twiddleCoef_16
20000000 g     O .data	00000014 IIR_Coef_f32
00009b64 g     O .text	00000010 arm_cfft_sR_f32_len16
00000190  w    F .text	00000006 UsageFault_Handler
20028000 g       *ABS*	00000000 __top_RAM
000001b8  w    F .text	00000006 FLEXCOMM3_IRQHandler
00007818 g     F .text	0000005c vsnprintf
000046c4 g     F .text	00000038 arm_biquad_cascade_df1_init_f32
00002090 g     F .text	00000028 Board_SetupClocking
0000990c g     F .text	00000000 __sys_flen
00005704 g     F .text	00000180 arm_cmplx_mag_f32
00006100 g     F .text	00000064 Chip_Clock_GetSystemPLLInClockRate
000001b8  w    F .text	00000006 CT32B2_IRQHandler
000001b8  w    F .text	00000006 PIN_INT6_IRQHandler
000001b8  w    F .text	00000006 IntDefaultHandler
00000300 g       .text	00000000 __CRP_WORD_END__
000088b0 g     F .text	00000018 fabsf
000001b8  w    F .text	00000006 PIN_INT4_IRQHandler
00000000  w      *UND*	00000000 _pvHeapLimit
00009786 g     F .text	00000058 __aeabi_dcmplt
00008da0 g     F .text	00000030 fflush
00009264 g     F .text	0000013c __aeabi_ddiv
000001b8  w    F .text	00000006 FLEXCOMM6_IRQHandler
0001f0f8 g       .text	00000000 __exidx_start
00009154 g     F .text	00000110 __aeabi_dmul
000002fc g     O .text	00000004 CRP_WORD
00019b9c g     O .text	00000060 armBitRevIndexTable32
00009b1c g     O .text	00000004 ExtClockIn
00008a4c g     F .text	0000006a _fdopen
00006024 g     F .text	0000003a findPllPreDiv
000098c0 g     F .text	00000032 __aeabi_lowlevel_memset
000043d0 g     F .text	000002f4 arm_biquad_cascade_df1_f32
00019e0c g     O .text	00000370 armBitRevIndexTable256
00008f40 g     F .text	00000040 _sbrk
200002a0 g     O .bss	00000050 E_IIR
200002f0 g     O .bss	00002080 FIR_State
00001f6c g     F .text	00000058 Board_Init
200000f8 g     O .bss	00000010 IIR_State_f32
000000e0 g       .text	00000000 __data_section_table
00006dc0 g     F .text	0000003c cosf
00009668 g     F .text	00000058 __aeabi_d2f
000001b8  w    F .text	00000006 RTC_IRQHandler
2000a4c8 g       .bss	00000000 _ebss
000001b8  w    F .text	00000006 FLEXCOMM0_IRQHandler
0000796c g     F .text	00000d46 __vfprintf
00005ca4 g     F .text	00000028 Chip_Clock_GetMainClockRate
000001b8  w    F .text	00000006 USB_NEEDCLK_IRQHandler
0001a17c g     O .text	00000380 armBitRevIndexTable512
000001b8  w    F .text	00000006 CT32B3_IRQHandler
0001b30c g     O .text	00001dc0 armBitRevIndexTable2048
00009554 g     F .text	00000114 __aeabi_dadd
000000f4 g     F .text	00000044 data_init
00006164 g     F .text	00000144 Chip_Clock_GetSystemPLLOutFromSetup
000033c4 g     F .text	0000100a arm_radix8_butterfly_f32
00009ba4 g     O .text	00000010 arm_cfft_sR_f32_len256
0001d0cc g     O .text	00001f80 armBitRevIndexTable4096
000020d8 g     F .text	0000004c Chip_POWER_SetFROHFRate
00008dd0 g     F .text	00000110 fseek
00000000 g       *ABS*	00000000 __base_Flash
000001b8  w    F .text	00000006 CT32B1_IRQHandler
00019c6c g     O .text	000001a0 armBitRevIndexTable128
00008ab6 g     F .text	00000058 _fflush
000001b8  w    F .text	00000006 PIN_INT5_IRQHandler
00009700 g     F .text	00000046 __bhs_ui2d
00040000 g       *ABS*	00000000 __top_MFlash256
00009832 g     F .text	00000054 __aeabi_dcmpge
000001b8  w    F .text	00000006 PIN_INT2_IRQHandler
00008780 g     F .text	00000130 _sincosf
000001b8  w    F .text	00000006 FLEXCOMM2_IRQHandler
200000f8 g       .bss	00000000 _bss
000093a0 g     F .text	000001b4 __aeabi_dsub
20002370 g     O .bss	00000024 PID_Inst
00005c44 g     F .text	00000060 Chip_Clock_EnablePeriphClock
000086f4 g     F .text	0000003c rand
00009bc4 g     O .text	00000010 arm_cfft_sR_f32_len1024
00040000 g       *ABS*	00000000 __top_Flash
2000a4c8 g       .noinit	00000000 _end_noinit
20028000 g       *ABS*	00000000 _vStackTop
00009f74 g     O .text	00000400 twiddleCoef_128
20002394 g     O .bss	00000010 G
0000a374 g     O .text	00000800 twiddleCoef_256
0000db74 g     O .text	00004000 twiddleCoef_2048
000001b8  w    F .text	00000006 PIN_INT7_IRQHandler
000000f4 g       .text	00000000 __bss_section_table_end
20000000 g       *ABS*	00000000 __base_Ram0_160
00008fc4 g     F .text	00000018 __check_heap_overflow
00009746 g     F .text	00000010 __aeabi_i2d
000001b8  w    F .text	00000006 ADC_THCMP_IRQHandler
000001b8  w    F .text	00000006 PIN_INT1_IRQHandler
000001b8  w    F .text	00000006 USB_IRQHandler
200023a4 g     O .bss	00004000 InputData
00002124 g     F .text	00000118 Chip_POWER_SetVoltage
00001f2c g     F .text	0000001c Board_UARTPutChar
00009bd4 g     O .text	00000010 arm_cfft_sR_f32_len2048
000069d0 g     F .text	00000050 Chip_UART_Send
000001b8  w    F .text	00000006 CT32B4_IRQHandler
000062a8 g     F .text	00000068 Chip_Clock_GetSystemPLLOutClockRate
000001b8  w    F .text	00000006 IOH_IRQHandler
000002fc g       .text	00000000 __CRP_WORD_START__
00001f48 g     F .text	0000001a __sys_write
00005658 g     F .text	0000006c arm_pid_init_f32
00006e36 g     F .text	00000004 memset
00000180  w    F .text	00000006 MemManage_Handler
0000048c g     F .text	00001848 main
00008f80 g     F .text	00000044 _do_fflush
00008ee0 g     F .text	0000004c ftell
000001b8  w    F .text	00000006 MAILBOX_IRQHandler
00000198  w    F .text	00000006 SVC_Handler
00008d34 g     F .text	0000006c fclose
00005cec g     F .text	00000060 Chip_Clock_GetFRGInClockRate
0000ab74 g     O .text	00001000 twiddleCoef_512
0001a4fc g     O .text	00000e10 armBitRevIndexTable1024
000001b8  w    F .text	00000006 ADC_SEQA_IRQHandler
00009930 g     F .text	00000000 __sys_seek
00008fe0 g     F .text	00000000 __bhs_ldivmod1
00005dbc g     F .text	00000074 fpuInit
000001b8  w    F .text	00000006 PIN_INT0_IRQHandler
00005a1c g       .text	00000000 arm_bitreversal_32
00005c04 g     F .text	00000040 Chip_Clock_GetMain_B_ClockRate
00001dec g     F .text	00000020 SystemInit
000001b8  w    F .text	00000006 SPIFI_IRQHandler
000000ec g       .text	00000000 __bss_section_table
00005d4c g     F .text	00000070 Chip_Clock_GetWDTOSCRate
0001f0d8 g     O .text	00000008 __huge_vall
00009900 g     F .text	00000000 __sys_close
00006a20 g     F .text	0000004a Chip_UART_SendBlocking
00006eb0 g     F .text	0000006c sprintf
000046fc g     F .text	0000015a arm_biquad_cascade_df2T_f32
00002058 g     F .text	00000038 Board_SetupMuxing
00005ba4 g     F .text	00000060 Chip_Clock_GetMain_A_ClockRate
000001b8  w    F .text	00000006 UTICK_IRQHandler
000001b8  w    F .text	00000006 CT32B0_IRQHandler
00006340 g     F .text	0000008c Chip_SYSCON_PowerUp
200063a4 g     O .bss	00000080 FIR_Coef_f32
20000000 g       .uninit_RESERVED	00000000 _end_uninit_RESERVED
00008bb4 g     F .text	00000068 _Cwritebuf
00001cd4 g     F .text	00000058 InitGoertzel_f32
20000000 g       .data	00000000 _data
2000a4c8 g       .bss	00000000 _pvHeapStart
000000f4 g       .text	00000000 __section_table_end
00005614 g     F .text	00000042 arm_fir_init_f32
00006dfc g     F .text	0000002c sinf
00009bb4 g     O .text	00000010 arm_cfft_sR_f32_len512
000001b8  w    F .text	00000006 GINT0_IRQHandler
000001b8  w    F .text	00000006 FLEXCOMM4_IRQHandler
20006424 g     O .bss	0000000c FIR_Inst
00001f64 g     F .text	00000008 Board_Debug_Init
00009924 g     F .text	00000000 __sys_remove
00009756 g     F .text	00000030 __aeabi_dcmpeq
200000f8 g       .data	00000000 _edata
00006d1c g     F .text	0000008e Chip_FLEXCOMM_SetPeriph
00009b94 g     O .text	00000010 arm_cfft_sR_f32_len128
00002624 g     F .text	00000c56 arm_cfft_radix8by4_f32
000001b8  w    F .text	00000006 FLEXCOMM1_IRQHandler
00019bfc g     O .text	00000070 armBitRevIndexTable64
20000254 g     O .bss	00000004 __heaps
000098f4 g     F .text	00000000 __sys_appexit
00009be4 g     O .text	00000010 arm_cfft_sR_f32_len4096
20000000 g       *ABS*	00000000 __base_RAM
00000000 g     O .text	000000e0 g_pfnVectors
000001c0 g     F .text	000000c4 ResetISR
00005adc g     F .text	00000018 SystemCoreClockUpdate
00006ca8 g     F .text	00000074 Chip_FLEXCOMM_Init
000096c0 g     F .text	00000040 __aeabi_d2iz
00006c0c g     F .text	0000009c Chip_FLEXCOMM_GetIndex
20000258 g     O .bss	00000004 __end_of_heap
0000bb74 g     O .text	00002000 twiddleCoef_1024
000001b8  w    F .text	00000006 DMA_IRQHandler
00008d14 g     F .text	00000020 _Csys_alloc
00009150 g     F .text	00000002 __aeabi_idiv0
000001b8  w    F .text	00000006 Reserved38_IRQHandler
000001b8  w    F .text	00000006 PIN_INT3_IRQHandler
00000188  w    F .text	00000006 BusFault_Handler
00008730 g     F .text	0000004a strlen
00009b74 g     O .text	00000010 arm_cfft_sR_f32_len32
20006430 g     O .bss	00000080 FIR_Coef_q31
00001f04 g     F .text	00000028 Board_LED_Set
00009888 g     F .text	00000038 __aeabi_f2d
000078c8 g     F .text	000000a4 _initio
200064b0 g     O .bss	00004000 OutputData
000001b8  w    F .text	00000006 GINT1_IRQHandler
20000110 g     O .bss	00000140 __Ciob
20028000 g       *ABS*	00000000 __top_Ram0_160
00009918 g     F .text	00000000 __sys_istty
00019b74 g     O .text	00000028 armBitRevIndexTable16
0000223c g     F .text	000003e8 arm_cfft_radix8by2_f32
000001b8  w    F .text	00000006 DMIC_IRQHandler
00005884 g     F .text	00000198 arm_cmplx_mag_squared_f32
00008ce4 g     F .text	00000030 free
000020b8 g     F .text	00000020 Board_SystemInit
2000a4b0 g     O .bss	00000010 IIR_Inst



Disassembly of section .text:

00000000 <g_pfnVectors>:
       0:	00 80 02 20 c1 01 00 00 71 01 00 00 79 01 00 00     ... ....q...y...
      10:	81 01 00 00 89 01 00 00 91 01 00 00 ba 76 fd df     .............v..
	...
      2c:	99 01 00 00 a1 01 00 00 00 00 00 00 a9 01 00 00     ................
      3c:	b1 01 00 00 b9 01 00 00 b9 01 00 00 b9 01 00 00     ................
      4c:	b9 01 00 00 b9 01 00 00 b9 01 00 00 b9 01 00 00     ................
      5c:	b9 01 00 00 b9 01 00 00 b9 01 00 00 b9 01 00 00     ................
      6c:	b9 01 00 00 b9 01 00 00 b9 01 00 00 b9 01 00 00     ................
      7c:	b9 01 00 00 b9 01 00 00 b9 01 00 00 b9 01 00 00     ................
      8c:	b9 01 00 00 b9 01 00 00 b9 01 00 00 b9 01 00 00     ................
      9c:	b9 01 00 00 b9 01 00 00 b9 01 00 00 b9 01 00 00     ................
      ac:	b9 01 00 00 b9 01 00 00 b9 01 00 00 b9 01 00 00     ................
      bc:	b9 01 00 00 b9 01 00 00 b9 01 00 00 b9 01 00 00     ................
      cc:	b9 01 00 00 b9 01 00 00 b9 01 00 00 b9 01 00 00     ................
      dc:	b9 01 00 00                                         ....

000000e0 <__data_section_table>:
      e0:	0001f0f8 	.word	0x0001f0f8
      e4:	20000000 	.word	0x20000000
      e8:	000000f8 	.word	0x000000f8

000000ec <__bss_section_table>:
      ec:	200000f8 	.word	0x200000f8
      f0:	0000a3d0 	.word	0x0000a3d0

000000f4 <data_init>:
      f4:	b480      	push	{r7}
      f6:	b089      	sub	sp, #36	; 0x24
      f8:	af00      	add	r7, sp, #0
      fa:	60f8      	str	r0, [r7, #12]
      fc:	60b9      	str	r1, [r7, #8]
      fe:	607a      	str	r2, [r7, #4]
     100:	68bb      	ldr	r3, [r7, #8]
     102:	61fb      	str	r3, [r7, #28]
     104:	68fb      	ldr	r3, [r7, #12]
     106:	61bb      	str	r3, [r7, #24]
     108:	2300      	movs	r3, #0
     10a:	617b      	str	r3, [r7, #20]
     10c:	e00a      	b.n	124 <data_init+0x30>
     10e:	69fb      	ldr	r3, [r7, #28]
     110:	1d1a      	adds	r2, r3, #4
     112:	61fa      	str	r2, [r7, #28]
     114:	69ba      	ldr	r2, [r7, #24]
     116:	1d11      	adds	r1, r2, #4
     118:	61b9      	str	r1, [r7, #24]
     11a:	6812      	ldr	r2, [r2, #0]
     11c:	601a      	str	r2, [r3, #0]
     11e:	697b      	ldr	r3, [r7, #20]
     120:	3304      	adds	r3, #4
     122:	617b      	str	r3, [r7, #20]
     124:	697a      	ldr	r2, [r7, #20]
     126:	687b      	ldr	r3, [r7, #4]
     128:	429a      	cmp	r2, r3
     12a:	d3f0      	bcc.n	10e <data_init+0x1a>
     12c:	bf00      	nop
     12e:	3724      	adds	r7, #36	; 0x24
     130:	46bd      	mov	sp, r7
     132:	f85d 7b04 	ldr.w	r7, [sp], #4
     136:	4770      	bx	lr

00000138 <bss_init>:
     138:	b480      	push	{r7}
     13a:	b085      	sub	sp, #20
     13c:	af00      	add	r7, sp, #0
     13e:	6078      	str	r0, [r7, #4]
     140:	6039      	str	r1, [r7, #0]
     142:	687b      	ldr	r3, [r7, #4]
     144:	60fb      	str	r3, [r7, #12]
     146:	2300      	movs	r3, #0
     148:	60bb      	str	r3, [r7, #8]
     14a:	e007      	b.n	15c <bss_init+0x24>
     14c:	68fb      	ldr	r3, [r7, #12]
     14e:	1d1a      	adds	r2, r3, #4
     150:	60fa      	str	r2, [r7, #12]
     152:	2200      	movs	r2, #0
     154:	601a      	str	r2, [r3, #0]
     156:	68bb      	ldr	r3, [r7, #8]
     158:	3304      	adds	r3, #4
     15a:	60bb      	str	r3, [r7, #8]
     15c:	68ba      	ldr	r2, [r7, #8]
     15e:	683b      	ldr	r3, [r7, #0]
     160:	429a      	cmp	r2, r3
     162:	d3f3      	bcc.n	14c <bss_init+0x14>
     164:	bf00      	nop
     166:	3714      	adds	r7, #20
     168:	46bd      	mov	sp, r7
     16a:	f85d 7b04 	ldr.w	r7, [sp], #4
     16e:	4770      	bx	lr

00000170 <NMI_Handler>:
     170:	b480      	push	{r7}
     172:	af00      	add	r7, sp, #0
     174:	e7fe      	b.n	174 <NMI_Handler+0x4>
     176:	bf00      	nop

00000178 <HardFault_Handler>:
     178:	b480      	push	{r7}
     17a:	af00      	add	r7, sp, #0
     17c:	e7fe      	b.n	17c <HardFault_Handler+0x4>
     17e:	bf00      	nop

00000180 <MemManage_Handler>:
     180:	b480      	push	{r7}
     182:	af00      	add	r7, sp, #0
     184:	e7fe      	b.n	184 <MemManage_Handler+0x4>
     186:	bf00      	nop

00000188 <BusFault_Handler>:
     188:	b480      	push	{r7}
     18a:	af00      	add	r7, sp, #0
     18c:	e7fe      	b.n	18c <BusFault_Handler+0x4>
     18e:	bf00      	nop

00000190 <UsageFault_Handler>:
     190:	b480      	push	{r7}
     192:	af00      	add	r7, sp, #0
     194:	e7fe      	b.n	194 <UsageFault_Handler+0x4>
     196:	bf00      	nop

00000198 <SVC_Handler>:
     198:	b480      	push	{r7}
     19a:	af00      	add	r7, sp, #0
     19c:	e7fe      	b.n	19c <SVC_Handler+0x4>
     19e:	bf00      	nop

000001a0 <DebugMon_Handler>:
     1a0:	b480      	push	{r7}
     1a2:	af00      	add	r7, sp, #0
     1a4:	e7fe      	b.n	1a4 <DebugMon_Handler+0x4>
     1a6:	bf00      	nop

000001a8 <PendSV_Handler>:
     1a8:	b480      	push	{r7}
     1aa:	af00      	add	r7, sp, #0
     1ac:	e7fe      	b.n	1ac <PendSV_Handler+0x4>
     1ae:	bf00      	nop

000001b0 <SysTick_Handler>:
     1b0:	b480      	push	{r7}
     1b2:	af00      	add	r7, sp, #0
     1b4:	e7fe      	b.n	1b4 <SysTick_Handler+0x4>
     1b6:	bf00      	nop

000001b8 <ADC_SEQA_IRQHandler>:
     1b8:	b480      	push	{r7}
     1ba:	af00      	add	r7, sp, #0
     1bc:	e7fe      	b.n	1bc <ADC_SEQA_IRQHandler+0x4>
     1be:	bf00      	nop

000001c0 <ResetISR>:
     1c0:	b580      	push	{r7, lr}
     1c2:	b088      	sub	sp, #32
     1c4:	af00      	add	r7, sp, #0
     1c6:	4b28      	ldr	r3, [pc, #160]	; (268 <ResetISR+0xa8>)
     1c8:	61bb      	str	r3, [r7, #24]
     1ca:	69bb      	ldr	r3, [r7, #24]
     1cc:	2210      	movs	r2, #16
     1ce:	601a      	str	r2, [r3, #0]
     1d0:	4b26      	ldr	r3, [pc, #152]	; (26c <ResetISR+0xac>)
     1d2:	61fb      	str	r3, [r7, #28]
     1d4:	e013      	b.n	1fe <ResetISR+0x3e>
     1d6:	69fb      	ldr	r3, [r7, #28]
     1d8:	1d1a      	adds	r2, r3, #4
     1da:	61fa      	str	r2, [r7, #28]
     1dc:	681b      	ldr	r3, [r3, #0]
     1de:	617b      	str	r3, [r7, #20]
     1e0:	69fb      	ldr	r3, [r7, #28]
     1e2:	1d1a      	adds	r2, r3, #4
     1e4:	61fa      	str	r2, [r7, #28]
     1e6:	681b      	ldr	r3, [r3, #0]
     1e8:	613b      	str	r3, [r7, #16]
     1ea:	69fb      	ldr	r3, [r7, #28]
     1ec:	1d1a      	adds	r2, r3, #4
     1ee:	61fa      	str	r2, [r7, #28]
     1f0:	681b      	ldr	r3, [r3, #0]
     1f2:	60fb      	str	r3, [r7, #12]
     1f4:	68fa      	ldr	r2, [r7, #12]
     1f6:	6939      	ldr	r1, [r7, #16]
     1f8:	6978      	ldr	r0, [r7, #20]
     1fa:	f7ff ff7b 	bl	f4 <data_init>
     1fe:	69fb      	ldr	r3, [r7, #28]
     200:	4a1b      	ldr	r2, [pc, #108]	; (270 <ResetISR+0xb0>)
     202:	4293      	cmp	r3, r2
     204:	d3e7      	bcc.n	1d6 <ResetISR+0x16>
     206:	e00d      	b.n	224 <ResetISR+0x64>
     208:	69fb      	ldr	r3, [r7, #28]
     20a:	1d1a      	adds	r2, r3, #4
     20c:	61fa      	str	r2, [r7, #28]
     20e:	681b      	ldr	r3, [r3, #0]
     210:	613b      	str	r3, [r7, #16]
     212:	69fb      	ldr	r3, [r7, #28]
     214:	1d1a      	adds	r2, r3, #4
     216:	61fa      	str	r2, [r7, #28]
     218:	681b      	ldr	r3, [r3, #0]
     21a:	60fb      	str	r3, [r7, #12]
     21c:	68f9      	ldr	r1, [r7, #12]
     21e:	6938      	ldr	r0, [r7, #16]
     220:	f7ff ff8a 	bl	138 <bss_init>
     224:	69fb      	ldr	r3, [r7, #28]
     226:	4a13      	ldr	r2, [pc, #76]	; (274 <ResetISR+0xb4>)
     228:	4293      	cmp	r3, r2
     22a:	d3ed      	bcc.n	208 <ResetISR+0x48>
     22c:	4b12      	ldr	r3, [pc, #72]	; (278 <ResetISR+0xb8>)
     22e:	60bb      	str	r3, [r7, #8]
     230:	4b0d      	ldr	r3, [pc, #52]	; (268 <ResetISR+0xa8>)
     232:	607b      	str	r3, [r7, #4]
     234:	4b11      	ldr	r3, [pc, #68]	; (27c <ResetISR+0xbc>)
     236:	603b      	str	r3, [r7, #0]
     238:	68bb      	ldr	r3, [r7, #8]
     23a:	2200      	movs	r2, #0
     23c:	601a      	str	r2, [r3, #0]
     23e:	687b      	ldr	r3, [r7, #4]
     240:	f44f 5200 	mov.w	r2, #8192	; 0x2000
     244:	601a      	str	r2, [r3, #0]
     246:	683b      	ldr	r3, [r7, #0]
     248:	681b      	ldr	r3, [r3, #0]
     24a:	f403 5300 	and.w	r3, r3, #8192	; 0x2000
     24e:	2b00      	cmp	r3, #0
     250:	bf14      	ite	ne
     252:	2301      	movne	r3, #1
     254:	2300      	moveq	r3, #0
     256:	b2db      	uxtb	r3, r3
     258:	461a      	mov	r2, r3
     25a:	4b09      	ldr	r3, [pc, #36]	; (280 <ResetISR+0xc0>)
     25c:	601a      	str	r2, [r3, #0]
     25e:	f001 fdc5 	bl	1dec <SystemInit>
     262:	f006 fda3 	bl	6dac <__main>
     266:	e7fe      	b.n	266 <ResetISR+0xa6>
     268:	40000220 	.word	0x40000220
     26c:	000000e0 	.word	0x000000e0
     270:	000000ec 	.word	0x000000ec
     274:	000000f4 	.word	0x000000f4
     278:	40000304 	.word	0x40000304
     27c:	40000200 	.word	0x40000200
     280:	2000a4c0 	.word	0x2000a4c0
     284:	ffffffff 	.word	0xffffffff
     288:	ffffffff 	.word	0xffffffff
     28c:	ffffffff 	.word	0xffffffff
     290:	ffffffff 	.word	0xffffffff
     294:	ffffffff 	.word	0xffffffff
     298:	ffffffff 	.word	0xffffffff
     29c:	ffffffff 	.word	0xffffffff
     2a0:	ffffffff 	.word	0xffffffff
     2a4:	ffffffff 	.word	0xffffffff
     2a8:	ffffffff 	.word	0xffffffff
     2ac:	ffffffff 	.word	0xffffffff
     2b0:	ffffffff 	.word	0xffffffff
     2b4:	ffffffff 	.word	0xffffffff
     2b8:	ffffffff 	.word	0xffffffff
     2bc:	ffffffff 	.word	0xffffffff
     2c0:	ffffffff 	.word	0xffffffff
     2c4:	ffffffff 	.word	0xffffffff
     2c8:	ffffffff 	.word	0xffffffff
     2cc:	ffffffff 	.word	0xffffffff
     2d0:	ffffffff 	.word	0xffffffff
     2d4:	ffffffff 	.word	0xffffffff
     2d8:	ffffffff 	.word	0xffffffff
     2dc:	ffffffff 	.word	0xffffffff
     2e0:	ffffffff 	.word	0xffffffff
     2e4:	ffffffff 	.word	0xffffffff
     2e8:	ffffffff 	.word	0xffffffff
     2ec:	ffffffff 	.word	0xffffffff
     2f0:	ffffffff 	.word	0xffffffff
     2f4:	ffffffff 	.word	0xffffffff
     2f8:	ffffffff 	.word	0xffffffff

000002fc <CRP_WORD>:
     2fc:	ffffffff                                ....

00000300 <Chip_SYSCON_PeriphReset>:
     300:	b480      	push	{r7}
     302:	b085      	sub	sp, #20
     304:	af00      	add	r7, sp, #0
     306:	4603      	mov	r3, r0
     308:	71fb      	strb	r3, [r7, #7]
     30a:	79fb      	ldrb	r3, [r7, #7]
     30c:	60fb      	str	r3, [r7, #12]
     30e:	68fb      	ldr	r3, [r7, #12]
     310:	2b7f      	cmp	r3, #127	; 0x7f
     312:	d80d      	bhi.n	330 <Chip_SYSCON_PeriphReset+0x30>
     314:	f04f 4180 	mov.w	r1, #1073741824	; 0x40000000
     318:	68fb      	ldr	r3, [r7, #12]
     31a:	095b      	lsrs	r3, r3, #5
     31c:	68fa      	ldr	r2, [r7, #12]
     31e:	f002 021f 	and.w	r2, r2, #31
     322:	2001      	movs	r0, #1
     324:	fa00 f202 	lsl.w	r2, r0, r2
     328:	3348      	adds	r3, #72	; 0x48
     32a:	f841 2023 	str.w	r2, [r1, r3, lsl #2]
     32e:	e006      	b.n	33e <Chip_SYSCON_PeriphReset+0x3e>
     330:	4a14      	ldr	r2, [pc, #80]	; (384 <Chip_SYSCON_PeriphReset+0x84>)
     332:	68fb      	ldr	r3, [r7, #12]
     334:	3b80      	subs	r3, #128	; 0x80
     336:	2101      	movs	r1, #1
     338:	fa01 f303 	lsl.w	r3, r1, r3
     33c:	6053      	str	r3, [r2, #4]
     33e:	bf00      	nop
     340:	bf00      	nop
     342:	bf00      	nop
     344:	bf00      	nop
     346:	68fb      	ldr	r3, [r7, #12]
     348:	2b7f      	cmp	r3, #127	; 0x7f
     34a:	d80d      	bhi.n	368 <Chip_SYSCON_PeriphReset+0x68>
     34c:	f04f 4180 	mov.w	r1, #1073741824	; 0x40000000
     350:	68fb      	ldr	r3, [r7, #12]
     352:	095b      	lsrs	r3, r3, #5
     354:	68fa      	ldr	r2, [r7, #12]
     356:	f002 021f 	and.w	r2, r2, #31
     35a:	2001      	movs	r0, #1
     35c:	fa00 f202 	lsl.w	r2, r0, r2
     360:	3350      	adds	r3, #80	; 0x50
     362:	f841 2023 	str.w	r2, [r1, r3, lsl #2]
     366:	e006      	b.n	376 <Chip_SYSCON_PeriphReset+0x76>
     368:	4a06      	ldr	r2, [pc, #24]	; (384 <Chip_SYSCON_PeriphReset+0x84>)
     36a:	68fb      	ldr	r3, [r7, #12]
     36c:	3b80      	subs	r3, #128	; 0x80
     36e:	2101      	movs	r1, #1
     370:	fa01 f303 	lsl.w	r3, r1, r3
     374:	6093      	str	r3, [r2, #8]
     376:	bf00      	nop
     378:	3714      	adds	r7, #20
     37a:	46bd      	mov	sp, r7
     37c:	f85d 7b04 	ldr.w	r7, [sp], #4
     380:	4770      	bx	lr
     382:	bf00      	nop
     384:	40040000 	.word	0x40040000

00000388 <Chip_TIMER_Init>:
     388:	b580      	push	{r7, lr}
     38a:	b082      	sub	sp, #8
     38c:	af00      	add	r7, sp, #0
     38e:	6078      	str	r0, [r7, #4]
     390:	687b      	ldr	r3, [r7, #4]
     392:	4a1b      	ldr	r2, [pc, #108]	; (400 <Chip_TIMER_Init+0x78>)
     394:	4293      	cmp	r3, r2
     396:	d01c      	beq.n	3d2 <Chip_TIMER_Init+0x4a>
     398:	4a19      	ldr	r2, [pc, #100]	; (400 <Chip_TIMER_Init+0x78>)
     39a:	4293      	cmp	r3, r2
     39c:	d806      	bhi.n	3ac <Chip_TIMER_Init+0x24>
     39e:	4a19      	ldr	r2, [pc, #100]	; (404 <Chip_TIMER_Init+0x7c>)
     3a0:	4293      	cmp	r3, r2
     3a2:	d022      	beq.n	3ea <Chip_TIMER_Init+0x62>
     3a4:	4a18      	ldr	r2, [pc, #96]	; (408 <Chip_TIMER_Init+0x80>)
     3a6:	4293      	cmp	r3, r2
     3a8:	d019      	beq.n	3de <Chip_TIMER_Init+0x56>
     3aa:	e025      	b.n	3f8 <Chip_TIMER_Init+0x70>
     3ac:	4a17      	ldr	r2, [pc, #92]	; (40c <Chip_TIMER_Init+0x84>)
     3ae:	4293      	cmp	r3, r2
     3b0:	d009      	beq.n	3c6 <Chip_TIMER_Init+0x3e>
     3b2:	4a17      	ldr	r2, [pc, #92]	; (410 <Chip_TIMER_Init+0x88>)
     3b4:	4293      	cmp	r3, r2
     3b6:	d000      	beq.n	3ba <Chip_TIMER_Init+0x32>
     3b8:	e01e      	b.n	3f8 <Chip_TIMER_Init+0x70>
     3ba:	208e      	movs	r0, #142	; 0x8e
     3bc:	f005 fc42 	bl	5c44 <Chip_Clock_EnablePeriphClock>
     3c0:	208e      	movs	r0, #142	; 0x8e
     3c2:	f7ff ff9d 	bl	300 <Chip_SYSCON_PeriphReset>
     3c6:	208d      	movs	r0, #141	; 0x8d
     3c8:	f005 fc3c 	bl	5c44 <Chip_Clock_EnablePeriphClock>
     3cc:	208d      	movs	r0, #141	; 0x8d
     3ce:	f7ff ff97 	bl	300 <Chip_SYSCON_PeriphReset>
     3d2:	2036      	movs	r0, #54	; 0x36
     3d4:	f005 fc36 	bl	5c44 <Chip_Clock_EnablePeriphClock>
     3d8:	2036      	movs	r0, #54	; 0x36
     3da:	f7ff ff91 	bl	300 <Chip_SYSCON_PeriphReset>
     3de:	203b      	movs	r0, #59	; 0x3b
     3e0:	f005 fc30 	bl	5c44 <Chip_Clock_EnablePeriphClock>
     3e4:	2039      	movs	r0, #57	; 0x39
     3e6:	f7ff ff8b 	bl	300 <Chip_SYSCON_PeriphReset>
     3ea:	203a      	movs	r0, #58	; 0x3a
     3ec:	f005 fc2a 	bl	5c44 <Chip_Clock_EnablePeriphClock>
     3f0:	2038      	movs	r0, #56	; 0x38
     3f2:	f7ff ff85 	bl	300 <Chip_SYSCON_PeriphReset>
     3f6:	bf00      	nop
     3f8:	3708      	adds	r7, #8
     3fa:	46bd      	mov	sp, r7
     3fc:	bd80      	pop	{r7, pc}
     3fe:	bf00      	nop
     400:	40028000 	.word	0x40028000
     404:	40008000 	.word	0x40008000
     408:	40009000 	.word	0x40009000
     40c:	40048000 	.word	0x40048000
     410:	40049000 	.word	0x40049000

00000414 <arm_pid_f32>:
     414:	b480      	push	{r7}
     416:	b085      	sub	sp, #20
     418:	af00      	add	r7, sp, #0
     41a:	6078      	str	r0, [r7, #4]
     41c:	ed87 0a00 	vstr	s0, [r7]
     420:	687b      	ldr	r3, [r7, #4]
     422:	ed93 7a00 	vldr	s14, [r3]
     426:	edd7 7a00 	vldr	s15, [r7]
     42a:	ee27 7a27 	vmul.f32	s14, s14, s15
     42e:	687b      	ldr	r3, [r7, #4]
     430:	edd3 6a01 	vldr	s13, [r3, #4]
     434:	687b      	ldr	r3, [r7, #4]
     436:	edd3 7a03 	vldr	s15, [r3, #12]
     43a:	ee66 7aa7 	vmul.f32	s15, s13, s15
     43e:	ee37 7a27 	vadd.f32	s14, s14, s15
     442:	687b      	ldr	r3, [r7, #4]
     444:	edd3 6a02 	vldr	s13, [r3, #8]
     448:	687b      	ldr	r3, [r7, #4]
     44a:	edd3 7a04 	vldr	s15, [r3, #16]
     44e:	ee66 7aa7 	vmul.f32	s15, s13, s15
     452:	ee37 7a27 	vadd.f32	s14, s14, s15
     456:	687b      	ldr	r3, [r7, #4]
     458:	edd3 7a05 	vldr	s15, [r3, #20]
     45c:	ee77 7a27 	vadd.f32	s15, s14, s15
     460:	edc7 7a03 	vstr	s15, [r7, #12]
     464:	687b      	ldr	r3, [r7, #4]
     466:	68da      	ldr	r2, [r3, #12]
     468:	687b      	ldr	r3, [r7, #4]
     46a:	611a      	str	r2, [r3, #16]
     46c:	687b      	ldr	r3, [r7, #4]
     46e:	683a      	ldr	r2, [r7, #0]
     470:	60da      	str	r2, [r3, #12]
     472:	687b      	ldr	r3, [r7, #4]
     474:	68fa      	ldr	r2, [r7, #12]
     476:	615a      	str	r2, [r3, #20]
     478:	68fb      	ldr	r3, [r7, #12]
     47a:	ee07 3a90 	vmov	s15, r3
     47e:	eeb0 0a67 	vmov.f32	s0, s15
     482:	3714      	adds	r7, #20
     484:	46bd      	mov	sp, r7
     486:	f85d 7b04 	ldr.w	r7, [sp], #4
     48a:	4770      	bx	lr

0000048c <main>:
     48c:	b580      	push	{r7, lr}
     48e:	b086      	sub	sp, #24
     490:	af02      	add	r7, sp, #8
     492:	2300      	movs	r3, #0
     494:	60fb      	str	r3, [r7, #12]
     496:	f04f 537e 	mov.w	r3, #1065353216	; 0x3f800000
     49a:	603b      	str	r3, [r7, #0]
     49c:	2300      	movs	r3, #0
     49e:	60bb      	str	r3, [r7, #8]
     4a0:	2300      	movs	r3, #0
     4a2:	607b      	str	r3, [r7, #4]
     4a4:	f005 fb1a 	bl	5adc <SystemCoreClockUpdate>
     4a8:	f001 fd60 	bl	1f6c <Board_Init>
     4ac:	2101      	movs	r1, #1
     4ae:	2000      	movs	r0, #0
     4b0:	f001 fd28 	bl	1f04 <Board_LED_Set>
     4b4:	f005 fc82 	bl	5dbc <fpuInit>
     4b8:	2300      	movs	r3, #0
     4ba:	60fb      	str	r3, [r7, #12]
     4bc:	e01e      	b.n	4fc <main+0x70>
     4be:	68fb      	ldr	r3, [r7, #12]
     4c0:	ee07 3a90 	vmov	s15, r3
     4c4:	eeb8 7ae7 	vcvt.f32.s32	s14, s15
     4c8:	eddf 6a14 	vldr	s13, [pc, #80]	; 51c <main+0x90>
     4cc:	eec7 7a26 	vdiv.f32	s15, s14, s13
     4d0:	4a13      	ldr	r2, [pc, #76]	; (520 <main+0x94>)
     4d2:	68fb      	ldr	r3, [r7, #12]
     4d4:	009b      	lsls	r3, r3, #2
     4d6:	4413      	add	r3, r2
     4d8:	edc3 7a00 	vstr	s15, [r3]
     4dc:	68fb      	ldr	r3, [r7, #12]
     4de:	069a      	lsls	r2, r3, #26
     4e0:	4910      	ldr	r1, [pc, #64]	; (524 <main+0x98>)
     4e2:	68fb      	ldr	r3, [r7, #12]
     4e4:	f841 2023 	str.w	r2, [r1, r3, lsl #2]
     4e8:	68fb      	ldr	r3, [r7, #12]
     4ea:	029b      	lsls	r3, r3, #10
     4ec:	b219      	sxth	r1, r3
     4ee:	4a0e      	ldr	r2, [pc, #56]	; (528 <main+0x9c>)
     4f0:	68fb      	ldr	r3, [r7, #12]
     4f2:	f822 1013 	strh.w	r1, [r2, r3, lsl #1]
     4f6:	68fb      	ldr	r3, [r7, #12]
     4f8:	3301      	adds	r3, #1
     4fa:	60fb      	str	r3, [r7, #12]
     4fc:	68fb      	ldr	r3, [r7, #12]
     4fe:	2b1f      	cmp	r3, #31
     500:	dddd      	ble.n	4be <main+0x32>
     502:	480a      	ldr	r0, [pc, #40]	; (52c <main+0xa0>)
     504:	f7ff ff40 	bl	388 <Chip_TIMER_Init>
     508:	4808      	ldr	r0, [pc, #32]	; (52c <main+0xa0>)
     50a:	f006 f831 	bl	6570 <Chip_TIMER_Reset>
     50e:	4b07      	ldr	r3, [pc, #28]	; (52c <main+0xa0>)
     510:	2200      	movs	r2, #0
     512:	605a      	str	r2, [r3, #4]
     514:	2300      	movs	r3, #0
     516:	60fb      	str	r3, [r7, #12]
     518:	e014      	b.n	544 <main+0xb8>
     51a:	bf00      	nop
     51c:	42000000 	.word	0x42000000
     520:	200063a4 	.word	0x200063a4
     524:	20006430 	.word	0x20006430
     528:	20000260 	.word	0x20000260
     52c:	40008000 	.word	0x40008000
     530:	f008 f8e0 	bl	86f4 <rand>
     534:	4601      	mov	r1, r0
     536:	4aa9      	ldr	r2, [pc, #676]	; (7dc <main+0x350>)
     538:	68fb      	ldr	r3, [r7, #12]
     53a:	f842 1023 	str.w	r1, [r2, r3, lsl #2]
     53e:	68fb      	ldr	r3, [r7, #12]
     540:	3301      	adds	r3, #1
     542:	60fb      	str	r3, [r7, #12]
     544:	68fb      	ldr	r3, [r7, #12]
     546:	f5b3 5f80 	cmp.w	r3, #4096	; 0x1000
     54a:	dbf1      	blt.n	530 <main+0xa4>
     54c:	48a4      	ldr	r0, [pc, #656]	; (7e0 <main+0x354>)
     54e:	f007 f991 	bl	7874 <printf>
     552:	2301      	movs	r3, #1
     554:	2204      	movs	r2, #4
     556:	2105      	movs	r1, #5
     558:	48a2      	ldr	r0, [pc, #648]	; (7e4 <main+0x358>)
     55a:	f007 f98b 	bl	7874 <printf>
     55e:	4ba2      	ldr	r3, [pc, #648]	; (7e8 <main+0x35c>)
     560:	4aa2      	ldr	r2, [pc, #648]	; (7ec <main+0x360>)
     562:	49a3      	ldr	r1, [pc, #652]	; (7f0 <main+0x364>)
     564:	48a3      	ldr	r0, [pc, #652]	; (7f4 <main+0x368>)
     566:	f007 f985 	bl	7874 <printf>
     56a:	48a3      	ldr	r0, [pc, #652]	; (7f8 <main+0x36c>)
     56c:	f006 f800 	bl	6570 <Chip_TIMER_Reset>
     570:	4ba1      	ldr	r3, [pc, #644]	; (7f8 <main+0x36c>)
     572:	2201      	movs	r2, #1
     574:	605a      	str	r2, [r3, #4]
     576:	4ba0      	ldr	r3, [pc, #640]	; (7f8 <main+0x36c>)
     578:	2200      	movs	r2, #0
     57a:	605a      	str	r2, [r3, #4]
     57c:	4b9e      	ldr	r3, [pc, #632]	; (7f8 <main+0x36c>)
     57e:	689b      	ldr	r3, [r3, #8]
     580:	607b      	str	r3, [r7, #4]
     582:	6879      	ldr	r1, [r7, #4]
     584:	489d      	ldr	r0, [pc, #628]	; (7fc <main+0x370>)
     586:	f007 f975 	bl	7874 <printf>
     58a:	6879      	ldr	r1, [r7, #4]
     58c:	489c      	ldr	r0, [pc, #624]	; (800 <main+0x374>)
     58e:	f007 f971 	bl	7874 <printf>
     592:	489c      	ldr	r0, [pc, #624]	; (804 <main+0x378>)
     594:	f007 f96e 	bl	7874 <printf>
     598:	489b      	ldr	r0, [pc, #620]	; (808 <main+0x37c>)
     59a:	f007 f96b 	bl	7874 <printf>
     59e:	489b      	ldr	r0, [pc, #620]	; (80c <main+0x380>)
     5a0:	f007 f968 	bl	7874 <printf>
     5a4:	4894      	ldr	r0, [pc, #592]	; (7f8 <main+0x36c>)
     5a6:	f005 ffe3 	bl	6570 <Chip_TIMER_Reset>
     5aa:	4b93      	ldr	r3, [pc, #588]	; (7f8 <main+0x36c>)
     5ac:	2201      	movs	r2, #1
     5ae:	605a      	str	r2, [r3, #4]
     5b0:	2301      	movs	r3, #1
     5b2:	2200      	movs	r2, #0
     5b4:	4989      	ldr	r1, [pc, #548]	; (7dc <main+0x350>)
     5b6:	4896      	ldr	r0, [pc, #600]	; (810 <main+0x384>)
     5b8:	f002 fe60 	bl	327c <arm_cfft_f32>
     5bc:	4b8e      	ldr	r3, [pc, #568]	; (7f8 <main+0x36c>)
     5be:	2200      	movs	r2, #0
     5c0:	605a      	str	r2, [r3, #4]
     5c2:	4b8d      	ldr	r3, [pc, #564]	; (7f8 <main+0x36c>)
     5c4:	689b      	ldr	r3, [r3, #8]
     5c6:	60bb      	str	r3, [r7, #8]
     5c8:	68ba      	ldr	r2, [r7, #8]
     5ca:	687b      	ldr	r3, [r7, #4]
     5cc:	1ad3      	subs	r3, r2, r3
     5ce:	4619      	mov	r1, r3
     5d0:	4890      	ldr	r0, [pc, #576]	; (814 <main+0x388>)
     5d2:	f007 f94f 	bl	7874 <printf>
     5d6:	4890      	ldr	r0, [pc, #576]	; (818 <main+0x38c>)
     5d8:	f007 f94c 	bl	7874 <printf>
     5dc:	4886      	ldr	r0, [pc, #536]	; (7f8 <main+0x36c>)
     5de:	f005 ffc7 	bl	6570 <Chip_TIMER_Reset>
     5e2:	4b85      	ldr	r3, [pc, #532]	; (7f8 <main+0x36c>)
     5e4:	2201      	movs	r2, #1
     5e6:	605a      	str	r2, [r3, #4]
     5e8:	2301      	movs	r3, #1
     5ea:	2200      	movs	r2, #0
     5ec:	497b      	ldr	r1, [pc, #492]	; (7dc <main+0x350>)
     5ee:	488b      	ldr	r0, [pc, #556]	; (81c <main+0x390>)
     5f0:	f002 fe44 	bl	327c <arm_cfft_f32>
     5f4:	4b80      	ldr	r3, [pc, #512]	; (7f8 <main+0x36c>)
     5f6:	2200      	movs	r2, #0
     5f8:	605a      	str	r2, [r3, #4]
     5fa:	4b7f      	ldr	r3, [pc, #508]	; (7f8 <main+0x36c>)
     5fc:	689b      	ldr	r3, [r3, #8]
     5fe:	60bb      	str	r3, [r7, #8]
     600:	68ba      	ldr	r2, [r7, #8]
     602:	687b      	ldr	r3, [r7, #4]
     604:	1ad3      	subs	r3, r2, r3
     606:	4619      	mov	r1, r3
     608:	4882      	ldr	r0, [pc, #520]	; (814 <main+0x388>)
     60a:	f007 f933 	bl	7874 <printf>
     60e:	4882      	ldr	r0, [pc, #520]	; (818 <main+0x38c>)
     610:	f007 f930 	bl	7874 <printf>
     614:	4878      	ldr	r0, [pc, #480]	; (7f8 <main+0x36c>)
     616:	f005 ffab 	bl	6570 <Chip_TIMER_Reset>
     61a:	4b77      	ldr	r3, [pc, #476]	; (7f8 <main+0x36c>)
     61c:	2201      	movs	r2, #1
     61e:	605a      	str	r2, [r3, #4]
     620:	2301      	movs	r3, #1
     622:	2200      	movs	r2, #0
     624:	496d      	ldr	r1, [pc, #436]	; (7dc <main+0x350>)
     626:	487e      	ldr	r0, [pc, #504]	; (820 <main+0x394>)
     628:	f002 fe28 	bl	327c <arm_cfft_f32>
     62c:	4b72      	ldr	r3, [pc, #456]	; (7f8 <main+0x36c>)
     62e:	2200      	movs	r2, #0
     630:	605a      	str	r2, [r3, #4]
     632:	4b71      	ldr	r3, [pc, #452]	; (7f8 <main+0x36c>)
     634:	689b      	ldr	r3, [r3, #8]
     636:	60bb      	str	r3, [r7, #8]
     638:	68ba      	ldr	r2, [r7, #8]
     63a:	687b      	ldr	r3, [r7, #4]
     63c:	1ad3      	subs	r3, r2, r3
     63e:	4619      	mov	r1, r3
     640:	4874      	ldr	r0, [pc, #464]	; (814 <main+0x388>)
     642:	f007 f917 	bl	7874 <printf>
     646:	4874      	ldr	r0, [pc, #464]	; (818 <main+0x38c>)
     648:	f007 f914 	bl	7874 <printf>
     64c:	486a      	ldr	r0, [pc, #424]	; (7f8 <main+0x36c>)
     64e:	f005 ff8f 	bl	6570 <Chip_TIMER_Reset>
     652:	4b69      	ldr	r3, [pc, #420]	; (7f8 <main+0x36c>)
     654:	2201      	movs	r2, #1
     656:	605a      	str	r2, [r3, #4]
     658:	2301      	movs	r3, #1
     65a:	2200      	movs	r2, #0
     65c:	495f      	ldr	r1, [pc, #380]	; (7dc <main+0x350>)
     65e:	4871      	ldr	r0, [pc, #452]	; (824 <main+0x398>)
     660:	f002 fe0c 	bl	327c <arm_cfft_f32>
     664:	4b64      	ldr	r3, [pc, #400]	; (7f8 <main+0x36c>)
     666:	2200      	movs	r2, #0
     668:	605a      	str	r2, [r3, #4]
     66a:	4b63      	ldr	r3, [pc, #396]	; (7f8 <main+0x36c>)
     66c:	689b      	ldr	r3, [r3, #8]
     66e:	60bb      	str	r3, [r7, #8]
     670:	68ba      	ldr	r2, [r7, #8]
     672:	687b      	ldr	r3, [r7, #4]
     674:	1ad3      	subs	r3, r2, r3
     676:	4619      	mov	r1, r3
     678:	4866      	ldr	r0, [pc, #408]	; (814 <main+0x388>)
     67a:	f007 f8fb 	bl	7874 <printf>
     67e:	4866      	ldr	r0, [pc, #408]	; (818 <main+0x38c>)
     680:	f007 f8f8 	bl	7874 <printf>
     684:	485c      	ldr	r0, [pc, #368]	; (7f8 <main+0x36c>)
     686:	f005 ff73 	bl	6570 <Chip_TIMER_Reset>
     68a:	4b5b      	ldr	r3, [pc, #364]	; (7f8 <main+0x36c>)
     68c:	2201      	movs	r2, #1
     68e:	605a      	str	r2, [r3, #4]
     690:	2301      	movs	r3, #1
     692:	2200      	movs	r2, #0
     694:	4951      	ldr	r1, [pc, #324]	; (7dc <main+0x350>)
     696:	4864      	ldr	r0, [pc, #400]	; (828 <main+0x39c>)
     698:	f002 fdf0 	bl	327c <arm_cfft_f32>
     69c:	4b56      	ldr	r3, [pc, #344]	; (7f8 <main+0x36c>)
     69e:	2200      	movs	r2, #0
     6a0:	605a      	str	r2, [r3, #4]
     6a2:	4b55      	ldr	r3, [pc, #340]	; (7f8 <main+0x36c>)
     6a4:	689b      	ldr	r3, [r3, #8]
     6a6:	60bb      	str	r3, [r7, #8]
     6a8:	68ba      	ldr	r2, [r7, #8]
     6aa:	687b      	ldr	r3, [r7, #4]
     6ac:	1ad3      	subs	r3, r2, r3
     6ae:	4619      	mov	r1, r3
     6b0:	4858      	ldr	r0, [pc, #352]	; (814 <main+0x388>)
     6b2:	f007 f8df 	bl	7874 <printf>
     6b6:	4858      	ldr	r0, [pc, #352]	; (818 <main+0x38c>)
     6b8:	f007 f8dc 	bl	7874 <printf>
     6bc:	484e      	ldr	r0, [pc, #312]	; (7f8 <main+0x36c>)
     6be:	f005 ff57 	bl	6570 <Chip_TIMER_Reset>
     6c2:	4b4d      	ldr	r3, [pc, #308]	; (7f8 <main+0x36c>)
     6c4:	2201      	movs	r2, #1
     6c6:	605a      	str	r2, [r3, #4]
     6c8:	2301      	movs	r3, #1
     6ca:	2200      	movs	r2, #0
     6cc:	4943      	ldr	r1, [pc, #268]	; (7dc <main+0x350>)
     6ce:	4857      	ldr	r0, [pc, #348]	; (82c <main+0x3a0>)
     6d0:	f002 fdd4 	bl	327c <arm_cfft_f32>
     6d4:	4b48      	ldr	r3, [pc, #288]	; (7f8 <main+0x36c>)
     6d6:	2200      	movs	r2, #0
     6d8:	605a      	str	r2, [r3, #4]
     6da:	4b47      	ldr	r3, [pc, #284]	; (7f8 <main+0x36c>)
     6dc:	689b      	ldr	r3, [r3, #8]
     6de:	60bb      	str	r3, [r7, #8]
     6e0:	68ba      	ldr	r2, [r7, #8]
     6e2:	687b      	ldr	r3, [r7, #4]
     6e4:	1ad3      	subs	r3, r2, r3
     6e6:	4619      	mov	r1, r3
     6e8:	484a      	ldr	r0, [pc, #296]	; (814 <main+0x388>)
     6ea:	f007 f8c3 	bl	7874 <printf>
     6ee:	484a      	ldr	r0, [pc, #296]	; (818 <main+0x38c>)
     6f0:	f007 f8c0 	bl	7874 <printf>
     6f4:	4840      	ldr	r0, [pc, #256]	; (7f8 <main+0x36c>)
     6f6:	f005 ff3b 	bl	6570 <Chip_TIMER_Reset>
     6fa:	4b3f      	ldr	r3, [pc, #252]	; (7f8 <main+0x36c>)
     6fc:	2201      	movs	r2, #1
     6fe:	605a      	str	r2, [r3, #4]
     700:	2301      	movs	r3, #1
     702:	2200      	movs	r2, #0
     704:	4935      	ldr	r1, [pc, #212]	; (7dc <main+0x350>)
     706:	484a      	ldr	r0, [pc, #296]	; (830 <main+0x3a4>)
     708:	f002 fdb8 	bl	327c <arm_cfft_f32>
     70c:	4b3a      	ldr	r3, [pc, #232]	; (7f8 <main+0x36c>)
     70e:	2200      	movs	r2, #0
     710:	605a      	str	r2, [r3, #4]
     712:	4b39      	ldr	r3, [pc, #228]	; (7f8 <main+0x36c>)
     714:	689b      	ldr	r3, [r3, #8]
     716:	60bb      	str	r3, [r7, #8]
     718:	68ba      	ldr	r2, [r7, #8]
     71a:	687b      	ldr	r3, [r7, #4]
     71c:	1ad3      	subs	r3, r2, r3
     71e:	4619      	mov	r1, r3
     720:	483c      	ldr	r0, [pc, #240]	; (814 <main+0x388>)
     722:	f007 f8a7 	bl	7874 <printf>
     726:	483c      	ldr	r0, [pc, #240]	; (818 <main+0x38c>)
     728:	f007 f8a4 	bl	7874 <printf>
     72c:	4832      	ldr	r0, [pc, #200]	; (7f8 <main+0x36c>)
     72e:	f005 ff1f 	bl	6570 <Chip_TIMER_Reset>
     732:	4b31      	ldr	r3, [pc, #196]	; (7f8 <main+0x36c>)
     734:	2201      	movs	r2, #1
     736:	605a      	str	r2, [r3, #4]
     738:	2301      	movs	r3, #1
     73a:	2200      	movs	r2, #0
     73c:	4927      	ldr	r1, [pc, #156]	; (7dc <main+0x350>)
     73e:	483d      	ldr	r0, [pc, #244]	; (834 <main+0x3a8>)
     740:	f002 fd9c 	bl	327c <arm_cfft_f32>
     744:	4b2c      	ldr	r3, [pc, #176]	; (7f8 <main+0x36c>)
     746:	2200      	movs	r2, #0
     748:	605a      	str	r2, [r3, #4]
     74a:	4b2b      	ldr	r3, [pc, #172]	; (7f8 <main+0x36c>)
     74c:	689b      	ldr	r3, [r3, #8]
     74e:	60bb      	str	r3, [r7, #8]
     750:	68ba      	ldr	r2, [r7, #8]
     752:	687b      	ldr	r3, [r7, #4]
     754:	1ad3      	subs	r3, r2, r3
     756:	4619      	mov	r1, r3
     758:	482e      	ldr	r0, [pc, #184]	; (814 <main+0x388>)
     75a:	f007 f88b 	bl	7874 <printf>
     75e:	482e      	ldr	r0, [pc, #184]	; (818 <main+0x38c>)
     760:	f007 f888 	bl	7874 <printf>
     764:	4824      	ldr	r0, [pc, #144]	; (7f8 <main+0x36c>)
     766:	f005 ff03 	bl	6570 <Chip_TIMER_Reset>
     76a:	4b23      	ldr	r3, [pc, #140]	; (7f8 <main+0x36c>)
     76c:	2201      	movs	r2, #1
     76e:	605a      	str	r2, [r3, #4]
     770:	2301      	movs	r3, #1
     772:	2200      	movs	r2, #0
     774:	4919      	ldr	r1, [pc, #100]	; (7dc <main+0x350>)
     776:	4830      	ldr	r0, [pc, #192]	; (838 <main+0x3ac>)
     778:	f002 fd80 	bl	327c <arm_cfft_f32>
     77c:	4b1e      	ldr	r3, [pc, #120]	; (7f8 <main+0x36c>)
     77e:	2200      	movs	r2, #0
     780:	605a      	str	r2, [r3, #4]
     782:	4b1d      	ldr	r3, [pc, #116]	; (7f8 <main+0x36c>)
     784:	689b      	ldr	r3, [r3, #8]
     786:	60bb      	str	r3, [r7, #8]
     788:	68ba      	ldr	r2, [r7, #8]
     78a:	687b      	ldr	r3, [r7, #4]
     78c:	1ad3      	subs	r3, r2, r3
     78e:	4619      	mov	r1, r3
     790:	4820      	ldr	r0, [pc, #128]	; (814 <main+0x388>)
     792:	f007 f86f 	bl	7874 <printf>
     796:	4820      	ldr	r0, [pc, #128]	; (818 <main+0x38c>)
     798:	f007 f86c 	bl	7874 <printf>
     79c:	481a      	ldr	r0, [pc, #104]	; (808 <main+0x37c>)
     79e:	f007 f869 	bl	7874 <printf>
     7a2:	4826      	ldr	r0, [pc, #152]	; (83c <main+0x3b0>)
     7a4:	f007 f866 	bl	7874 <printf>
     7a8:	4813      	ldr	r0, [pc, #76]	; (7f8 <main+0x36c>)
     7aa:	f005 fee1 	bl	6570 <Chip_TIMER_Reset>
     7ae:	4b12      	ldr	r3, [pc, #72]	; (7f8 <main+0x36c>)
     7b0:	2201      	movs	r2, #1
     7b2:	605a      	str	r2, [r3, #4]
     7b4:	2300      	movs	r3, #0
     7b6:	2200      	movs	r2, #0
     7b8:	4908      	ldr	r1, [pc, #32]	; (7dc <main+0x350>)
     7ba:	4815      	ldr	r0, [pc, #84]	; (810 <main+0x384>)
     7bc:	f002 fd5e 	bl	327c <arm_cfft_f32>
     7c0:	4b0d      	ldr	r3, [pc, #52]	; (7f8 <main+0x36c>)
     7c2:	2200      	movs	r2, #0
     7c4:	605a      	str	r2, [r3, #4]
     7c6:	4b0c      	ldr	r3, [pc, #48]	; (7f8 <main+0x36c>)
     7c8:	689b      	ldr	r3, [r3, #8]
     7ca:	60bb      	str	r3, [r7, #8]
     7cc:	68ba      	ldr	r2, [r7, #8]
     7ce:	687b      	ldr	r3, [r7, #4]
     7d0:	1ad3      	subs	r3, r2, r3
     7d2:	4619      	mov	r1, r3
     7d4:	480f      	ldr	r0, [pc, #60]	; (814 <main+0x388>)
     7d6:	f007 f84d 	bl	7874 <printf>
     7da:	e031      	b.n	840 <main+0x3b4>
     7dc:	200023a4 	.word	0x200023a4
     7e0:	00009948 	.word	0x00009948
     7e4:	00009968 	.word	0x00009968
     7e8:	00009980 	.word	0x00009980
     7ec:	00009988 	.word	0x00009988
     7f0:	0000998c 	.word	0x0000998c
     7f4:	00009998 	.word	0x00009998
     7f8:	40008000 	.word	0x40008000
     7fc:	000099a4 	.word	0x000099a4
     800:	000099b8 	.word	0x000099b8
     804:	000099d8 	.word	0x000099d8
     808:	00009a04 	.word	0x00009a04
     80c:	00009a08 	.word	0x00009a08
     810:	00009b64 	.word	0x00009b64
     814:	00009a20 	.word	0x00009a20
     818:	00009a24 	.word	0x00009a24
     81c:	00009b74 	.word	0x00009b74
     820:	00009b84 	.word	0x00009b84
     824:	00009b94 	.word	0x00009b94
     828:	00009ba4 	.word	0x00009ba4
     82c:	00009bb4 	.word	0x00009bb4
     830:	00009bc4 	.word	0x00009bc4
     834:	00009bd4 	.word	0x00009bd4
     838:	00009be4 	.word	0x00009be4
     83c:	00009a28 	.word	0x00009a28
     840:	48a9      	ldr	r0, [pc, #676]	; (ae8 <main+0x65c>)
     842:	f007 f817 	bl	7874 <printf>
     846:	48a9      	ldr	r0, [pc, #676]	; (aec <main+0x660>)
     848:	f005 fe92 	bl	6570 <Chip_TIMER_Reset>
     84c:	4ba7      	ldr	r3, [pc, #668]	; (aec <main+0x660>)
     84e:	2201      	movs	r2, #1
     850:	605a      	str	r2, [r3, #4]
     852:	2300      	movs	r3, #0
     854:	2200      	movs	r2, #0
     856:	49a6      	ldr	r1, [pc, #664]	; (af0 <main+0x664>)
     858:	48a6      	ldr	r0, [pc, #664]	; (af4 <main+0x668>)
     85a:	f002 fd0f 	bl	327c <arm_cfft_f32>
     85e:	4ba3      	ldr	r3, [pc, #652]	; (aec <main+0x660>)
     860:	2200      	movs	r2, #0
     862:	605a      	str	r2, [r3, #4]
     864:	4ba1      	ldr	r3, [pc, #644]	; (aec <main+0x660>)
     866:	689b      	ldr	r3, [r3, #8]
     868:	60bb      	str	r3, [r7, #8]
     86a:	68ba      	ldr	r2, [r7, #8]
     86c:	687b      	ldr	r3, [r7, #4]
     86e:	1ad3      	subs	r3, r2, r3
     870:	4619      	mov	r1, r3
     872:	48a1      	ldr	r0, [pc, #644]	; (af8 <main+0x66c>)
     874:	f006 fffe 	bl	7874 <printf>
     878:	489b      	ldr	r0, [pc, #620]	; (ae8 <main+0x65c>)
     87a:	f006 fffb 	bl	7874 <printf>
     87e:	489b      	ldr	r0, [pc, #620]	; (aec <main+0x660>)
     880:	f005 fe76 	bl	6570 <Chip_TIMER_Reset>
     884:	4b99      	ldr	r3, [pc, #612]	; (aec <main+0x660>)
     886:	2201      	movs	r2, #1
     888:	605a      	str	r2, [r3, #4]
     88a:	2300      	movs	r3, #0
     88c:	2200      	movs	r2, #0
     88e:	4998      	ldr	r1, [pc, #608]	; (af0 <main+0x664>)
     890:	489a      	ldr	r0, [pc, #616]	; (afc <main+0x670>)
     892:	f002 fcf3 	bl	327c <arm_cfft_f32>
     896:	4b95      	ldr	r3, [pc, #596]	; (aec <main+0x660>)
     898:	2200      	movs	r2, #0
     89a:	605a      	str	r2, [r3, #4]
     89c:	4b93      	ldr	r3, [pc, #588]	; (aec <main+0x660>)
     89e:	689b      	ldr	r3, [r3, #8]
     8a0:	60bb      	str	r3, [r7, #8]
     8a2:	68ba      	ldr	r2, [r7, #8]
     8a4:	687b      	ldr	r3, [r7, #4]
     8a6:	1ad3      	subs	r3, r2, r3
     8a8:	4619      	mov	r1, r3
     8aa:	4893      	ldr	r0, [pc, #588]	; (af8 <main+0x66c>)
     8ac:	f006 ffe2 	bl	7874 <printf>
     8b0:	488d      	ldr	r0, [pc, #564]	; (ae8 <main+0x65c>)
     8b2:	f006 ffdf 	bl	7874 <printf>
     8b6:	488d      	ldr	r0, [pc, #564]	; (aec <main+0x660>)
     8b8:	f005 fe5a 	bl	6570 <Chip_TIMER_Reset>
     8bc:	4b8b      	ldr	r3, [pc, #556]	; (aec <main+0x660>)
     8be:	2201      	movs	r2, #1
     8c0:	605a      	str	r2, [r3, #4]
     8c2:	2300      	movs	r3, #0
     8c4:	2200      	movs	r2, #0
     8c6:	498a      	ldr	r1, [pc, #552]	; (af0 <main+0x664>)
     8c8:	488d      	ldr	r0, [pc, #564]	; (b00 <main+0x674>)
     8ca:	f002 fcd7 	bl	327c <arm_cfft_f32>
     8ce:	4b87      	ldr	r3, [pc, #540]	; (aec <main+0x660>)
     8d0:	2200      	movs	r2, #0
     8d2:	605a      	str	r2, [r3, #4]
     8d4:	4b85      	ldr	r3, [pc, #532]	; (aec <main+0x660>)
     8d6:	689b      	ldr	r3, [r3, #8]
     8d8:	60bb      	str	r3, [r7, #8]
     8da:	68ba      	ldr	r2, [r7, #8]
     8dc:	687b      	ldr	r3, [r7, #4]
     8de:	1ad3      	subs	r3, r2, r3
     8e0:	4619      	mov	r1, r3
     8e2:	4885      	ldr	r0, [pc, #532]	; (af8 <main+0x66c>)
     8e4:	f006 ffc6 	bl	7874 <printf>
     8e8:	487f      	ldr	r0, [pc, #508]	; (ae8 <main+0x65c>)
     8ea:	f006 ffc3 	bl	7874 <printf>
     8ee:	487f      	ldr	r0, [pc, #508]	; (aec <main+0x660>)
     8f0:	f005 fe3e 	bl	6570 <Chip_TIMER_Reset>
     8f4:	4b7d      	ldr	r3, [pc, #500]	; (aec <main+0x660>)
     8f6:	2201      	movs	r2, #1
     8f8:	605a      	str	r2, [r3, #4]
     8fa:	2300      	movs	r3, #0
     8fc:	2200      	movs	r2, #0
     8fe:	497c      	ldr	r1, [pc, #496]	; (af0 <main+0x664>)
     900:	4880      	ldr	r0, [pc, #512]	; (b04 <main+0x678>)
     902:	f002 fcbb 	bl	327c <arm_cfft_f32>
     906:	4b79      	ldr	r3, [pc, #484]	; (aec <main+0x660>)
     908:	2200      	movs	r2, #0
     90a:	605a      	str	r2, [r3, #4]
     90c:	4b77      	ldr	r3, [pc, #476]	; (aec <main+0x660>)
     90e:	689b      	ldr	r3, [r3, #8]
     910:	60bb      	str	r3, [r7, #8]
     912:	68ba      	ldr	r2, [r7, #8]
     914:	687b      	ldr	r3, [r7, #4]
     916:	1ad3      	subs	r3, r2, r3
     918:	4619      	mov	r1, r3
     91a:	4877      	ldr	r0, [pc, #476]	; (af8 <main+0x66c>)
     91c:	f006 ffaa 	bl	7874 <printf>
     920:	4871      	ldr	r0, [pc, #452]	; (ae8 <main+0x65c>)
     922:	f006 ffa7 	bl	7874 <printf>
     926:	4871      	ldr	r0, [pc, #452]	; (aec <main+0x660>)
     928:	f005 fe22 	bl	6570 <Chip_TIMER_Reset>
     92c:	4b6f      	ldr	r3, [pc, #444]	; (aec <main+0x660>)
     92e:	2201      	movs	r2, #1
     930:	605a      	str	r2, [r3, #4]
     932:	2300      	movs	r3, #0
     934:	2200      	movs	r2, #0
     936:	496e      	ldr	r1, [pc, #440]	; (af0 <main+0x664>)
     938:	4873      	ldr	r0, [pc, #460]	; (b08 <main+0x67c>)
     93a:	f002 fc9f 	bl	327c <arm_cfft_f32>
     93e:	4b6b      	ldr	r3, [pc, #428]	; (aec <main+0x660>)
     940:	2200      	movs	r2, #0
     942:	605a      	str	r2, [r3, #4]
     944:	4b69      	ldr	r3, [pc, #420]	; (aec <main+0x660>)
     946:	689b      	ldr	r3, [r3, #8]
     948:	60bb      	str	r3, [r7, #8]
     94a:	68ba      	ldr	r2, [r7, #8]
     94c:	687b      	ldr	r3, [r7, #4]
     94e:	1ad3      	subs	r3, r2, r3
     950:	4619      	mov	r1, r3
     952:	4869      	ldr	r0, [pc, #420]	; (af8 <main+0x66c>)
     954:	f006 ff8e 	bl	7874 <printf>
     958:	4863      	ldr	r0, [pc, #396]	; (ae8 <main+0x65c>)
     95a:	f006 ff8b 	bl	7874 <printf>
     95e:	4863      	ldr	r0, [pc, #396]	; (aec <main+0x660>)
     960:	f005 fe06 	bl	6570 <Chip_TIMER_Reset>
     964:	4b61      	ldr	r3, [pc, #388]	; (aec <main+0x660>)
     966:	2201      	movs	r2, #1
     968:	605a      	str	r2, [r3, #4]
     96a:	2300      	movs	r3, #0
     96c:	2200      	movs	r2, #0
     96e:	4960      	ldr	r1, [pc, #384]	; (af0 <main+0x664>)
     970:	4866      	ldr	r0, [pc, #408]	; (b0c <main+0x680>)
     972:	f002 fc83 	bl	327c <arm_cfft_f32>
     976:	4b5d      	ldr	r3, [pc, #372]	; (aec <main+0x660>)
     978:	2200      	movs	r2, #0
     97a:	605a      	str	r2, [r3, #4]
     97c:	4b5b      	ldr	r3, [pc, #364]	; (aec <main+0x660>)
     97e:	689b      	ldr	r3, [r3, #8]
     980:	60bb      	str	r3, [r7, #8]
     982:	68ba      	ldr	r2, [r7, #8]
     984:	687b      	ldr	r3, [r7, #4]
     986:	1ad3      	subs	r3, r2, r3
     988:	4619      	mov	r1, r3
     98a:	485b      	ldr	r0, [pc, #364]	; (af8 <main+0x66c>)
     98c:	f006 ff72 	bl	7874 <printf>
     990:	4855      	ldr	r0, [pc, #340]	; (ae8 <main+0x65c>)
     992:	f006 ff6f 	bl	7874 <printf>
     996:	4855      	ldr	r0, [pc, #340]	; (aec <main+0x660>)
     998:	f005 fdea 	bl	6570 <Chip_TIMER_Reset>
     99c:	4b53      	ldr	r3, [pc, #332]	; (aec <main+0x660>)
     99e:	2201      	movs	r2, #1
     9a0:	605a      	str	r2, [r3, #4]
     9a2:	2300      	movs	r3, #0
     9a4:	2200      	movs	r2, #0
     9a6:	4952      	ldr	r1, [pc, #328]	; (af0 <main+0x664>)
     9a8:	4859      	ldr	r0, [pc, #356]	; (b10 <main+0x684>)
     9aa:	f002 fc67 	bl	327c <arm_cfft_f32>
     9ae:	4b4f      	ldr	r3, [pc, #316]	; (aec <main+0x660>)
     9b0:	2200      	movs	r2, #0
     9b2:	605a      	str	r2, [r3, #4]
     9b4:	4b4d      	ldr	r3, [pc, #308]	; (aec <main+0x660>)
     9b6:	689b      	ldr	r3, [r3, #8]
     9b8:	60bb      	str	r3, [r7, #8]
     9ba:	68ba      	ldr	r2, [r7, #8]
     9bc:	687b      	ldr	r3, [r7, #4]
     9be:	1ad3      	subs	r3, r2, r3
     9c0:	4619      	mov	r1, r3
     9c2:	484d      	ldr	r0, [pc, #308]	; (af8 <main+0x66c>)
     9c4:	f006 ff56 	bl	7874 <printf>
     9c8:	4847      	ldr	r0, [pc, #284]	; (ae8 <main+0x65c>)
     9ca:	f006 ff53 	bl	7874 <printf>
     9ce:	4847      	ldr	r0, [pc, #284]	; (aec <main+0x660>)
     9d0:	f005 fdce 	bl	6570 <Chip_TIMER_Reset>
     9d4:	4b45      	ldr	r3, [pc, #276]	; (aec <main+0x660>)
     9d6:	2201      	movs	r2, #1
     9d8:	605a      	str	r2, [r3, #4]
     9da:	2300      	movs	r3, #0
     9dc:	2200      	movs	r2, #0
     9de:	4944      	ldr	r1, [pc, #272]	; (af0 <main+0x664>)
     9e0:	484c      	ldr	r0, [pc, #304]	; (b14 <main+0x688>)
     9e2:	f002 fc4b 	bl	327c <arm_cfft_f32>
     9e6:	4b41      	ldr	r3, [pc, #260]	; (aec <main+0x660>)
     9e8:	2200      	movs	r2, #0
     9ea:	605a      	str	r2, [r3, #4]
     9ec:	4b3f      	ldr	r3, [pc, #252]	; (aec <main+0x660>)
     9ee:	689b      	ldr	r3, [r3, #8]
     9f0:	60bb      	str	r3, [r7, #8]
     9f2:	68ba      	ldr	r2, [r7, #8]
     9f4:	687b      	ldr	r3, [r7, #4]
     9f6:	1ad3      	subs	r3, r2, r3
     9f8:	4619      	mov	r1, r3
     9fa:	483f      	ldr	r0, [pc, #252]	; (af8 <main+0x66c>)
     9fc:	f006 ff3a 	bl	7874 <printf>
     a00:	4839      	ldr	r0, [pc, #228]	; (ae8 <main+0x65c>)
     a02:	f006 ff37 	bl	7874 <printf>
     a06:	4844      	ldr	r0, [pc, #272]	; (b18 <main+0x68c>)
     a08:	f006 ff34 	bl	7874 <printf>
     a0c:	4843      	ldr	r0, [pc, #268]	; (b1c <main+0x690>)
     a0e:	f006 ff31 	bl	7874 <printf>
     a12:	4836      	ldr	r0, [pc, #216]	; (aec <main+0x660>)
     a14:	f005 fdac 	bl	6570 <Chip_TIMER_Reset>
     a18:	4b34      	ldr	r3, [pc, #208]	; (aec <main+0x660>)
     a1a:	2201      	movs	r2, #1
     a1c:	605a      	str	r2, [r3, #4]
     a1e:	2210      	movs	r2, #16
     a20:	493f      	ldr	r1, [pc, #252]	; (b20 <main+0x694>)
     a22:	4833      	ldr	r0, [pc, #204]	; (af0 <main+0x664>)
     a24:	f004 fe6e 	bl	5704 <arm_cmplx_mag_f32>
     a28:	4b30      	ldr	r3, [pc, #192]	; (aec <main+0x660>)
     a2a:	2200      	movs	r2, #0
     a2c:	605a      	str	r2, [r3, #4]
     a2e:	4b2f      	ldr	r3, [pc, #188]	; (aec <main+0x660>)
     a30:	689b      	ldr	r3, [r3, #8]
     a32:	60bb      	str	r3, [r7, #8]
     a34:	68ba      	ldr	r2, [r7, #8]
     a36:	687b      	ldr	r3, [r7, #4]
     a38:	1ad3      	subs	r3, r2, r3
     a3a:	4619      	mov	r1, r3
     a3c:	482e      	ldr	r0, [pc, #184]	; (af8 <main+0x66c>)
     a3e:	f006 ff19 	bl	7874 <printf>
     a42:	4829      	ldr	r0, [pc, #164]	; (ae8 <main+0x65c>)
     a44:	f006 ff16 	bl	7874 <printf>
     a48:	4828      	ldr	r0, [pc, #160]	; (aec <main+0x660>)
     a4a:	f005 fd91 	bl	6570 <Chip_TIMER_Reset>
     a4e:	4b27      	ldr	r3, [pc, #156]	; (aec <main+0x660>)
     a50:	2201      	movs	r2, #1
     a52:	605a      	str	r2, [r3, #4]
     a54:	2220      	movs	r2, #32
     a56:	4932      	ldr	r1, [pc, #200]	; (b20 <main+0x694>)
     a58:	4825      	ldr	r0, [pc, #148]	; (af0 <main+0x664>)
     a5a:	f004 fe53 	bl	5704 <arm_cmplx_mag_f32>
     a5e:	4b23      	ldr	r3, [pc, #140]	; (aec <main+0x660>)
     a60:	2200      	movs	r2, #0
     a62:	605a      	str	r2, [r3, #4]
     a64:	4b21      	ldr	r3, [pc, #132]	; (aec <main+0x660>)
     a66:	689b      	ldr	r3, [r3, #8]
     a68:	60bb      	str	r3, [r7, #8]
     a6a:	68ba      	ldr	r2, [r7, #8]
     a6c:	687b      	ldr	r3, [r7, #4]
     a6e:	1ad3      	subs	r3, r2, r3
     a70:	4619      	mov	r1, r3
     a72:	4821      	ldr	r0, [pc, #132]	; (af8 <main+0x66c>)
     a74:	f006 fefe 	bl	7874 <printf>
     a78:	481b      	ldr	r0, [pc, #108]	; (ae8 <main+0x65c>)
     a7a:	f006 fefb 	bl	7874 <printf>
     a7e:	481b      	ldr	r0, [pc, #108]	; (aec <main+0x660>)
     a80:	f005 fd76 	bl	6570 <Chip_TIMER_Reset>
     a84:	4b19      	ldr	r3, [pc, #100]	; (aec <main+0x660>)
     a86:	2201      	movs	r2, #1
     a88:	605a      	str	r2, [r3, #4]
     a8a:	2240      	movs	r2, #64	; 0x40
     a8c:	4924      	ldr	r1, [pc, #144]	; (b20 <main+0x694>)
     a8e:	4818      	ldr	r0, [pc, #96]	; (af0 <main+0x664>)
     a90:	f004 fe38 	bl	5704 <arm_cmplx_mag_f32>
     a94:	4b15      	ldr	r3, [pc, #84]	; (aec <main+0x660>)
     a96:	2200      	movs	r2, #0
     a98:	605a      	str	r2, [r3, #4]
     a9a:	4b14      	ldr	r3, [pc, #80]	; (aec <main+0x660>)
     a9c:	689b      	ldr	r3, [r3, #8]
     a9e:	60bb      	str	r3, [r7, #8]
     aa0:	68ba      	ldr	r2, [r7, #8]
     aa2:	687b      	ldr	r3, [r7, #4]
     aa4:	1ad3      	subs	r3, r2, r3
     aa6:	4619      	mov	r1, r3
     aa8:	4813      	ldr	r0, [pc, #76]	; (af8 <main+0x66c>)
     aaa:	f006 fee3 	bl	7874 <printf>
     aae:	480e      	ldr	r0, [pc, #56]	; (ae8 <main+0x65c>)
     ab0:	f006 fee0 	bl	7874 <printf>
     ab4:	480d      	ldr	r0, [pc, #52]	; (aec <main+0x660>)
     ab6:	f005 fd5b 	bl	6570 <Chip_TIMER_Reset>
     aba:	4b0c      	ldr	r3, [pc, #48]	; (aec <main+0x660>)
     abc:	2201      	movs	r2, #1
     abe:	605a      	str	r2, [r3, #4]
     ac0:	2280      	movs	r2, #128	; 0x80
     ac2:	4917      	ldr	r1, [pc, #92]	; (b20 <main+0x694>)
     ac4:	480a      	ldr	r0, [pc, #40]	; (af0 <main+0x664>)
     ac6:	f004 fe1d 	bl	5704 <arm_cmplx_mag_f32>
     aca:	4b08      	ldr	r3, [pc, #32]	; (aec <main+0x660>)
     acc:	2200      	movs	r2, #0
     ace:	605a      	str	r2, [r3, #4]
     ad0:	4b06      	ldr	r3, [pc, #24]	; (aec <main+0x660>)
     ad2:	689b      	ldr	r3, [r3, #8]
     ad4:	60bb      	str	r3, [r7, #8]
     ad6:	68ba      	ldr	r2, [r7, #8]
     ad8:	687b      	ldr	r3, [r7, #4]
     ada:	1ad3      	subs	r3, r2, r3
     adc:	4619      	mov	r1, r3
     ade:	4806      	ldr	r0, [pc, #24]	; (af8 <main+0x66c>)
     ae0:	f006 fec8 	bl	7874 <printf>
     ae4:	e01e      	b.n	b24 <main+0x698>
     ae6:	bf00      	nop
     ae8:	00009a24 	.word	0x00009a24
     aec:	40008000 	.word	0x40008000
     af0:	200023a4 	.word	0x200023a4
     af4:	00009b74 	.word	0x00009b74
     af8:	00009a20 	.word	0x00009a20
     afc:	00009b84 	.word	0x00009b84
     b00:	00009b94 	.word	0x00009b94
     b04:	00009ba4 	.word	0x00009ba4
     b08:	00009bb4 	.word	0x00009bb4
     b0c:	00009bc4 	.word	0x00009bc4
     b10:	00009bd4 	.word	0x00009bd4
     b14:	00009be4 	.word	0x00009be4
     b18:	00009a04 	.word	0x00009a04
     b1c:	00009a40 	.word	0x00009a40
     b20:	200064b0 	.word	0x200064b0
     b24:	48a9      	ldr	r0, [pc, #676]	; (dcc <main+0x940>)
     b26:	f006 fea5 	bl	7874 <printf>
     b2a:	48a9      	ldr	r0, [pc, #676]	; (dd0 <main+0x944>)
     b2c:	f005 fd20 	bl	6570 <Chip_TIMER_Reset>
     b30:	4ba7      	ldr	r3, [pc, #668]	; (dd0 <main+0x944>)
     b32:	2201      	movs	r2, #1
     b34:	605a      	str	r2, [r3, #4]
     b36:	f44f 7280 	mov.w	r2, #256	; 0x100
     b3a:	49a6      	ldr	r1, [pc, #664]	; (dd4 <main+0x948>)
     b3c:	48a6      	ldr	r0, [pc, #664]	; (dd8 <main+0x94c>)
     b3e:	f004 fde1 	bl	5704 <arm_cmplx_mag_f32>
     b42:	4ba3      	ldr	r3, [pc, #652]	; (dd0 <main+0x944>)
     b44:	2200      	movs	r2, #0
     b46:	605a      	str	r2, [r3, #4]
     b48:	4ba1      	ldr	r3, [pc, #644]	; (dd0 <main+0x944>)
     b4a:	689b      	ldr	r3, [r3, #8]
     b4c:	60bb      	str	r3, [r7, #8]
     b4e:	68ba      	ldr	r2, [r7, #8]
     b50:	687b      	ldr	r3, [r7, #4]
     b52:	1ad3      	subs	r3, r2, r3
     b54:	4619      	mov	r1, r3
     b56:	48a1      	ldr	r0, [pc, #644]	; (ddc <main+0x950>)
     b58:	f006 fe8c 	bl	7874 <printf>
     b5c:	489b      	ldr	r0, [pc, #620]	; (dcc <main+0x940>)
     b5e:	f006 fe89 	bl	7874 <printf>
     b62:	489b      	ldr	r0, [pc, #620]	; (dd0 <main+0x944>)
     b64:	f005 fd04 	bl	6570 <Chip_TIMER_Reset>
     b68:	4b99      	ldr	r3, [pc, #612]	; (dd0 <main+0x944>)
     b6a:	2201      	movs	r2, #1
     b6c:	605a      	str	r2, [r3, #4]
     b6e:	f44f 7200 	mov.w	r2, #512	; 0x200
     b72:	4998      	ldr	r1, [pc, #608]	; (dd4 <main+0x948>)
     b74:	4898      	ldr	r0, [pc, #608]	; (dd8 <main+0x94c>)
     b76:	f004 fdc5 	bl	5704 <arm_cmplx_mag_f32>
     b7a:	4b95      	ldr	r3, [pc, #596]	; (dd0 <main+0x944>)
     b7c:	2200      	movs	r2, #0
     b7e:	605a      	str	r2, [r3, #4]
     b80:	4b93      	ldr	r3, [pc, #588]	; (dd0 <main+0x944>)
     b82:	689b      	ldr	r3, [r3, #8]
     b84:	60bb      	str	r3, [r7, #8]
     b86:	68ba      	ldr	r2, [r7, #8]
     b88:	687b      	ldr	r3, [r7, #4]
     b8a:	1ad3      	subs	r3, r2, r3
     b8c:	4619      	mov	r1, r3
     b8e:	4893      	ldr	r0, [pc, #588]	; (ddc <main+0x950>)
     b90:	f006 fe70 	bl	7874 <printf>
     b94:	488d      	ldr	r0, [pc, #564]	; (dcc <main+0x940>)
     b96:	f006 fe6d 	bl	7874 <printf>
     b9a:	488d      	ldr	r0, [pc, #564]	; (dd0 <main+0x944>)
     b9c:	f005 fce8 	bl	6570 <Chip_TIMER_Reset>
     ba0:	4b8b      	ldr	r3, [pc, #556]	; (dd0 <main+0x944>)
     ba2:	2201      	movs	r2, #1
     ba4:	605a      	str	r2, [r3, #4]
     ba6:	f44f 6280 	mov.w	r2, #1024	; 0x400
     baa:	498a      	ldr	r1, [pc, #552]	; (dd4 <main+0x948>)
     bac:	488a      	ldr	r0, [pc, #552]	; (dd8 <main+0x94c>)
     bae:	f004 fda9 	bl	5704 <arm_cmplx_mag_f32>
     bb2:	4b87      	ldr	r3, [pc, #540]	; (dd0 <main+0x944>)
     bb4:	2200      	movs	r2, #0
     bb6:	605a      	str	r2, [r3, #4]
     bb8:	4b85      	ldr	r3, [pc, #532]	; (dd0 <main+0x944>)
     bba:	689b      	ldr	r3, [r3, #8]
     bbc:	60bb      	str	r3, [r7, #8]
     bbe:	68ba      	ldr	r2, [r7, #8]
     bc0:	687b      	ldr	r3, [r7, #4]
     bc2:	1ad3      	subs	r3, r2, r3
     bc4:	4619      	mov	r1, r3
     bc6:	4885      	ldr	r0, [pc, #532]	; (ddc <main+0x950>)
     bc8:	f006 fe54 	bl	7874 <printf>
     bcc:	487f      	ldr	r0, [pc, #508]	; (dcc <main+0x940>)
     bce:	f006 fe51 	bl	7874 <printf>
     bd2:	487f      	ldr	r0, [pc, #508]	; (dd0 <main+0x944>)
     bd4:	f005 fccc 	bl	6570 <Chip_TIMER_Reset>
     bd8:	4b7d      	ldr	r3, [pc, #500]	; (dd0 <main+0x944>)
     bda:	2201      	movs	r2, #1
     bdc:	605a      	str	r2, [r3, #4]
     bde:	f44f 6200 	mov.w	r2, #2048	; 0x800
     be2:	497c      	ldr	r1, [pc, #496]	; (dd4 <main+0x948>)
     be4:	487c      	ldr	r0, [pc, #496]	; (dd8 <main+0x94c>)
     be6:	f004 fd8d 	bl	5704 <arm_cmplx_mag_f32>
     bea:	4b79      	ldr	r3, [pc, #484]	; (dd0 <main+0x944>)
     bec:	2200      	movs	r2, #0
     bee:	605a      	str	r2, [r3, #4]
     bf0:	4b77      	ldr	r3, [pc, #476]	; (dd0 <main+0x944>)
     bf2:	689b      	ldr	r3, [r3, #8]
     bf4:	60bb      	str	r3, [r7, #8]
     bf6:	68ba      	ldr	r2, [r7, #8]
     bf8:	687b      	ldr	r3, [r7, #4]
     bfa:	1ad3      	subs	r3, r2, r3
     bfc:	4619      	mov	r1, r3
     bfe:	4877      	ldr	r0, [pc, #476]	; (ddc <main+0x950>)
     c00:	f006 fe38 	bl	7874 <printf>
     c04:	4871      	ldr	r0, [pc, #452]	; (dcc <main+0x940>)
     c06:	f006 fe35 	bl	7874 <printf>
     c0a:	4871      	ldr	r0, [pc, #452]	; (dd0 <main+0x944>)
     c0c:	f005 fcb0 	bl	6570 <Chip_TIMER_Reset>
     c10:	4b6f      	ldr	r3, [pc, #444]	; (dd0 <main+0x944>)
     c12:	2201      	movs	r2, #1
     c14:	605a      	str	r2, [r3, #4]
     c16:	f44f 5280 	mov.w	r2, #4096	; 0x1000
     c1a:	496e      	ldr	r1, [pc, #440]	; (dd4 <main+0x948>)
     c1c:	486e      	ldr	r0, [pc, #440]	; (dd8 <main+0x94c>)
     c1e:	f004 fd71 	bl	5704 <arm_cmplx_mag_f32>
     c22:	4b6b      	ldr	r3, [pc, #428]	; (dd0 <main+0x944>)
     c24:	2200      	movs	r2, #0
     c26:	605a      	str	r2, [r3, #4]
     c28:	4b69      	ldr	r3, [pc, #420]	; (dd0 <main+0x944>)
     c2a:	689b      	ldr	r3, [r3, #8]
     c2c:	60bb      	str	r3, [r7, #8]
     c2e:	68ba      	ldr	r2, [r7, #8]
     c30:	687b      	ldr	r3, [r7, #4]
     c32:	1ad3      	subs	r3, r2, r3
     c34:	4619      	mov	r1, r3
     c36:	4869      	ldr	r0, [pc, #420]	; (ddc <main+0x950>)
     c38:	f006 fe1c 	bl	7874 <printf>
     c3c:	4863      	ldr	r0, [pc, #396]	; (dcc <main+0x940>)
     c3e:	f006 fe19 	bl	7874 <printf>
     c42:	4867      	ldr	r0, [pc, #412]	; (de0 <main+0x954>)
     c44:	f006 fe16 	bl	7874 <printf>
     c48:	4866      	ldr	r0, [pc, #408]	; (de4 <main+0x958>)
     c4a:	f006 fe13 	bl	7874 <printf>
     c4e:	4860      	ldr	r0, [pc, #384]	; (dd0 <main+0x944>)
     c50:	f005 fc8e 	bl	6570 <Chip_TIMER_Reset>
     c54:	4b5e      	ldr	r3, [pc, #376]	; (dd0 <main+0x944>)
     c56:	2201      	movs	r2, #1
     c58:	605a      	str	r2, [r3, #4]
     c5a:	2210      	movs	r2, #16
     c5c:	495d      	ldr	r1, [pc, #372]	; (dd4 <main+0x948>)
     c5e:	485e      	ldr	r0, [pc, #376]	; (dd8 <main+0x94c>)
     c60:	f004 fe10 	bl	5884 <arm_cmplx_mag_squared_f32>
     c64:	4b5a      	ldr	r3, [pc, #360]	; (dd0 <main+0x944>)
     c66:	2200      	movs	r2, #0
     c68:	605a      	str	r2, [r3, #4]
     c6a:	4b59      	ldr	r3, [pc, #356]	; (dd0 <main+0x944>)
     c6c:	689b      	ldr	r3, [r3, #8]
     c6e:	60bb      	str	r3, [r7, #8]
     c70:	68ba      	ldr	r2, [r7, #8]
     c72:	687b      	ldr	r3, [r7, #4]
     c74:	1ad3      	subs	r3, r2, r3
     c76:	4619      	mov	r1, r3
     c78:	4858      	ldr	r0, [pc, #352]	; (ddc <main+0x950>)
     c7a:	f006 fdfb 	bl	7874 <printf>
     c7e:	4853      	ldr	r0, [pc, #332]	; (dcc <main+0x940>)
     c80:	f006 fdf8 	bl	7874 <printf>
     c84:	4852      	ldr	r0, [pc, #328]	; (dd0 <main+0x944>)
     c86:	f005 fc73 	bl	6570 <Chip_TIMER_Reset>
     c8a:	4b51      	ldr	r3, [pc, #324]	; (dd0 <main+0x944>)
     c8c:	2201      	movs	r2, #1
     c8e:	605a      	str	r2, [r3, #4]
     c90:	2220      	movs	r2, #32
     c92:	4950      	ldr	r1, [pc, #320]	; (dd4 <main+0x948>)
     c94:	4850      	ldr	r0, [pc, #320]	; (dd8 <main+0x94c>)
     c96:	f004 fdf5 	bl	5884 <arm_cmplx_mag_squared_f32>
     c9a:	4b4d      	ldr	r3, [pc, #308]	; (dd0 <main+0x944>)
     c9c:	2200      	movs	r2, #0
     c9e:	605a      	str	r2, [r3, #4]
     ca0:	4b4b      	ldr	r3, [pc, #300]	; (dd0 <main+0x944>)
     ca2:	689b      	ldr	r3, [r3, #8]
     ca4:	60bb      	str	r3, [r7, #8]
     ca6:	68ba      	ldr	r2, [r7, #8]
     ca8:	687b      	ldr	r3, [r7, #4]
     caa:	1ad3      	subs	r3, r2, r3
     cac:	4619      	mov	r1, r3
     cae:	484b      	ldr	r0, [pc, #300]	; (ddc <main+0x950>)
     cb0:	f006 fde0 	bl	7874 <printf>
     cb4:	4845      	ldr	r0, [pc, #276]	; (dcc <main+0x940>)
     cb6:	f006 fddd 	bl	7874 <printf>
     cba:	4845      	ldr	r0, [pc, #276]	; (dd0 <main+0x944>)
     cbc:	f005 fc58 	bl	6570 <Chip_TIMER_Reset>
     cc0:	4b43      	ldr	r3, [pc, #268]	; (dd0 <main+0x944>)
     cc2:	2201      	movs	r2, #1
     cc4:	605a      	str	r2, [r3, #4]
     cc6:	2240      	movs	r2, #64	; 0x40
     cc8:	4942      	ldr	r1, [pc, #264]	; (dd4 <main+0x948>)
     cca:	4843      	ldr	r0, [pc, #268]	; (dd8 <main+0x94c>)
     ccc:	f004 fdda 	bl	5884 <arm_cmplx_mag_squared_f32>
     cd0:	4b3f      	ldr	r3, [pc, #252]	; (dd0 <main+0x944>)
     cd2:	2200      	movs	r2, #0
     cd4:	605a      	str	r2, [r3, #4]
     cd6:	4b3e      	ldr	r3, [pc, #248]	; (dd0 <main+0x944>)
     cd8:	689b      	ldr	r3, [r3, #8]
     cda:	60bb      	str	r3, [r7, #8]
     cdc:	68ba      	ldr	r2, [r7, #8]
     cde:	687b      	ldr	r3, [r7, #4]
     ce0:	1ad3      	subs	r3, r2, r3
     ce2:	4619      	mov	r1, r3
     ce4:	483d      	ldr	r0, [pc, #244]	; (ddc <main+0x950>)
     ce6:	f006 fdc5 	bl	7874 <printf>
     cea:	4838      	ldr	r0, [pc, #224]	; (dcc <main+0x940>)
     cec:	f006 fdc2 	bl	7874 <printf>
     cf0:	4837      	ldr	r0, [pc, #220]	; (dd0 <main+0x944>)
     cf2:	f005 fc3d 	bl	6570 <Chip_TIMER_Reset>
     cf6:	4b36      	ldr	r3, [pc, #216]	; (dd0 <main+0x944>)
     cf8:	2201      	movs	r2, #1
     cfa:	605a      	str	r2, [r3, #4]
     cfc:	2280      	movs	r2, #128	; 0x80
     cfe:	4935      	ldr	r1, [pc, #212]	; (dd4 <main+0x948>)
     d00:	4835      	ldr	r0, [pc, #212]	; (dd8 <main+0x94c>)
     d02:	f004 fdbf 	bl	5884 <arm_cmplx_mag_squared_f32>
     d06:	4b32      	ldr	r3, [pc, #200]	; (dd0 <main+0x944>)
     d08:	2200      	movs	r2, #0
     d0a:	605a      	str	r2, [r3, #4]
     d0c:	4b30      	ldr	r3, [pc, #192]	; (dd0 <main+0x944>)
     d0e:	689b      	ldr	r3, [r3, #8]
     d10:	60bb      	str	r3, [r7, #8]
     d12:	68ba      	ldr	r2, [r7, #8]
     d14:	687b      	ldr	r3, [r7, #4]
     d16:	1ad3      	subs	r3, r2, r3
     d18:	4619      	mov	r1, r3
     d1a:	4830      	ldr	r0, [pc, #192]	; (ddc <main+0x950>)
     d1c:	f006 fdaa 	bl	7874 <printf>
     d20:	482a      	ldr	r0, [pc, #168]	; (dcc <main+0x940>)
     d22:	f006 fda7 	bl	7874 <printf>
     d26:	482a      	ldr	r0, [pc, #168]	; (dd0 <main+0x944>)
     d28:	f005 fc22 	bl	6570 <Chip_TIMER_Reset>
     d2c:	4b28      	ldr	r3, [pc, #160]	; (dd0 <main+0x944>)
     d2e:	2201      	movs	r2, #1
     d30:	605a      	str	r2, [r3, #4]
     d32:	f44f 7280 	mov.w	r2, #256	; 0x100
     d36:	4927      	ldr	r1, [pc, #156]	; (dd4 <main+0x948>)
     d38:	4827      	ldr	r0, [pc, #156]	; (dd8 <main+0x94c>)
     d3a:	f004 fda3 	bl	5884 <arm_cmplx_mag_squared_f32>
     d3e:	4b24      	ldr	r3, [pc, #144]	; (dd0 <main+0x944>)
     d40:	2200      	movs	r2, #0
     d42:	605a      	str	r2, [r3, #4]
     d44:	4b22      	ldr	r3, [pc, #136]	; (dd0 <main+0x944>)
     d46:	689b      	ldr	r3, [r3, #8]
     d48:	60bb      	str	r3, [r7, #8]
     d4a:	68ba      	ldr	r2, [r7, #8]
     d4c:	687b      	ldr	r3, [r7, #4]
     d4e:	1ad3      	subs	r3, r2, r3
     d50:	4619      	mov	r1, r3
     d52:	4822      	ldr	r0, [pc, #136]	; (ddc <main+0x950>)
     d54:	f006 fd8e 	bl	7874 <printf>
     d58:	481c      	ldr	r0, [pc, #112]	; (dcc <main+0x940>)
     d5a:	f006 fd8b 	bl	7874 <printf>
     d5e:	481c      	ldr	r0, [pc, #112]	; (dd0 <main+0x944>)
     d60:	f005 fc06 	bl	6570 <Chip_TIMER_Reset>
     d64:	4b1a      	ldr	r3, [pc, #104]	; (dd0 <main+0x944>)
     d66:	2201      	movs	r2, #1
     d68:	605a      	str	r2, [r3, #4]
     d6a:	f44f 7200 	mov.w	r2, #512	; 0x200
     d6e:	4919      	ldr	r1, [pc, #100]	; (dd4 <main+0x948>)
     d70:	4819      	ldr	r0, [pc, #100]	; (dd8 <main+0x94c>)
     d72:	f004 fd87 	bl	5884 <arm_cmplx_mag_squared_f32>
     d76:	4b16      	ldr	r3, [pc, #88]	; (dd0 <main+0x944>)
     d78:	2200      	movs	r2, #0
     d7a:	605a      	str	r2, [r3, #4]
     d7c:	4b14      	ldr	r3, [pc, #80]	; (dd0 <main+0x944>)
     d7e:	689b      	ldr	r3, [r3, #8]
     d80:	60bb      	str	r3, [r7, #8]
     d82:	68ba      	ldr	r2, [r7, #8]
     d84:	687b      	ldr	r3, [r7, #4]
     d86:	1ad3      	subs	r3, r2, r3
     d88:	4619      	mov	r1, r3
     d8a:	4814      	ldr	r0, [pc, #80]	; (ddc <main+0x950>)
     d8c:	f006 fd72 	bl	7874 <printf>
     d90:	480e      	ldr	r0, [pc, #56]	; (dcc <main+0x940>)
     d92:	f006 fd6f 	bl	7874 <printf>
     d96:	480e      	ldr	r0, [pc, #56]	; (dd0 <main+0x944>)
     d98:	f005 fbea 	bl	6570 <Chip_TIMER_Reset>
     d9c:	4b0c      	ldr	r3, [pc, #48]	; (dd0 <main+0x944>)
     d9e:	2201      	movs	r2, #1
     da0:	605a      	str	r2, [r3, #4]
     da2:	f44f 6280 	mov.w	r2, #1024	; 0x400
     da6:	490b      	ldr	r1, [pc, #44]	; (dd4 <main+0x948>)
     da8:	480b      	ldr	r0, [pc, #44]	; (dd8 <main+0x94c>)
     daa:	f004 fd6b 	bl	5884 <arm_cmplx_mag_squared_f32>
     dae:	4b08      	ldr	r3, [pc, #32]	; (dd0 <main+0x944>)
     db0:	2200      	movs	r2, #0
     db2:	605a      	str	r2, [r3, #4]
     db4:	4b06      	ldr	r3, [pc, #24]	; (dd0 <main+0x944>)
     db6:	689b      	ldr	r3, [r3, #8]
     db8:	60bb      	str	r3, [r7, #8]
     dba:	68ba      	ldr	r2, [r7, #8]
     dbc:	687b      	ldr	r3, [r7, #4]
     dbe:	1ad3      	subs	r3, r2, r3
     dc0:	4619      	mov	r1, r3
     dc2:	4806      	ldr	r0, [pc, #24]	; (ddc <main+0x950>)
     dc4:	f006 fd56 	bl	7874 <printf>
     dc8:	e00e      	b.n	de8 <main+0x95c>
     dca:	bf00      	nop
     dcc:	00009a24 	.word	0x00009a24
     dd0:	40008000 	.word	0x40008000
     dd4:	200064b0 	.word	0x200064b0
     dd8:	200023a4 	.word	0x200023a4
     ddc:	00009a20 	.word	0x00009a20
     de0:	00009a04 	.word	0x00009a04
     de4:	00009a50 	.word	0x00009a50
     de8:	48aa      	ldr	r0, [pc, #680]	; (1094 <main+0xc08>)
     dea:	f006 fd43 	bl	7874 <printf>
     dee:	48aa      	ldr	r0, [pc, #680]	; (1098 <main+0xc0c>)
     df0:	f005 fbbe 	bl	6570 <Chip_TIMER_Reset>
     df4:	4ba8      	ldr	r3, [pc, #672]	; (1098 <main+0xc0c>)
     df6:	2201      	movs	r2, #1
     df8:	605a      	str	r2, [r3, #4]
     dfa:	f44f 6200 	mov.w	r2, #2048	; 0x800
     dfe:	49a7      	ldr	r1, [pc, #668]	; (109c <main+0xc10>)
     e00:	48a7      	ldr	r0, [pc, #668]	; (10a0 <main+0xc14>)
     e02:	f004 fd3f 	bl	5884 <arm_cmplx_mag_squared_f32>
     e06:	4ba4      	ldr	r3, [pc, #656]	; (1098 <main+0xc0c>)
     e08:	2200      	movs	r2, #0
     e0a:	605a      	str	r2, [r3, #4]
     e0c:	4ba2      	ldr	r3, [pc, #648]	; (1098 <main+0xc0c>)
     e0e:	689b      	ldr	r3, [r3, #8]
     e10:	60bb      	str	r3, [r7, #8]
     e12:	68ba      	ldr	r2, [r7, #8]
     e14:	687b      	ldr	r3, [r7, #4]
     e16:	1ad3      	subs	r3, r2, r3
     e18:	4619      	mov	r1, r3
     e1a:	48a2      	ldr	r0, [pc, #648]	; (10a4 <main+0xc18>)
     e1c:	f006 fd2a 	bl	7874 <printf>
     e20:	489c      	ldr	r0, [pc, #624]	; (1094 <main+0xc08>)
     e22:	f006 fd27 	bl	7874 <printf>
     e26:	489c      	ldr	r0, [pc, #624]	; (1098 <main+0xc0c>)
     e28:	f005 fba2 	bl	6570 <Chip_TIMER_Reset>
     e2c:	4b9a      	ldr	r3, [pc, #616]	; (1098 <main+0xc0c>)
     e2e:	2201      	movs	r2, #1
     e30:	605a      	str	r2, [r3, #4]
     e32:	f44f 5280 	mov.w	r2, #4096	; 0x1000
     e36:	4999      	ldr	r1, [pc, #612]	; (109c <main+0xc10>)
     e38:	4899      	ldr	r0, [pc, #612]	; (10a0 <main+0xc14>)
     e3a:	f004 fd23 	bl	5884 <arm_cmplx_mag_squared_f32>
     e3e:	4b96      	ldr	r3, [pc, #600]	; (1098 <main+0xc0c>)
     e40:	2200      	movs	r2, #0
     e42:	605a      	str	r2, [r3, #4]
     e44:	4b94      	ldr	r3, [pc, #592]	; (1098 <main+0xc0c>)
     e46:	689b      	ldr	r3, [r3, #8]
     e48:	60bb      	str	r3, [r7, #8]
     e4a:	68ba      	ldr	r2, [r7, #8]
     e4c:	687b      	ldr	r3, [r7, #4]
     e4e:	1ad3      	subs	r3, r2, r3
     e50:	4619      	mov	r1, r3
     e52:	4894      	ldr	r0, [pc, #592]	; (10a4 <main+0xc18>)
     e54:	f006 fd0e 	bl	7874 <printf>
     e58:	488e      	ldr	r0, [pc, #568]	; (1094 <main+0xc08>)
     e5a:	f006 fd0b 	bl	7874 <printf>
     e5e:	2320      	movs	r3, #32
     e60:	4a91      	ldr	r2, [pc, #580]	; (10a8 <main+0xc1c>)
     e62:	4992      	ldr	r1, [pc, #584]	; (10ac <main+0xc20>)
     e64:	4892      	ldr	r0, [pc, #584]	; (10b0 <main+0xc24>)
     e66:	f000 ff35 	bl	1cd4 <InitGoertzel_f32>
     e6a:	4892      	ldr	r0, [pc, #584]	; (10b4 <main+0xc28>)
     e6c:	f006 fd02 	bl	7874 <printf>
     e70:	4b8f      	ldr	r3, [pc, #572]	; (10b0 <main+0xc24>)
     e72:	2220      	movs	r2, #32
     e74:	609a      	str	r2, [r3, #8]
     e76:	4888      	ldr	r0, [pc, #544]	; (1098 <main+0xc0c>)
     e78:	f005 fb7a 	bl	6570 <Chip_TIMER_Reset>
     e7c:	4b86      	ldr	r3, [pc, #536]	; (1098 <main+0xc0c>)
     e7e:	2201      	movs	r2, #1
     e80:	605a      	str	r2, [r3, #4]
     e82:	4987      	ldr	r1, [pc, #540]	; (10a0 <main+0xc14>)
     e84:	488a      	ldr	r0, [pc, #552]	; (10b0 <main+0xc24>)
     e86:	f000 ff51 	bl	1d2c <ProcessGoertzel_f32_Power>
     e8a:	4603      	mov	r3, r0
     e8c:	603b      	str	r3, [r7, #0]
     e8e:	4b82      	ldr	r3, [pc, #520]	; (1098 <main+0xc0c>)
     e90:	2200      	movs	r2, #0
     e92:	605a      	str	r2, [r3, #4]
     e94:	4b80      	ldr	r3, [pc, #512]	; (1098 <main+0xc0c>)
     e96:	689b      	ldr	r3, [r3, #8]
     e98:	60bb      	str	r3, [r7, #8]
     e9a:	68ba      	ldr	r2, [r7, #8]
     e9c:	687b      	ldr	r3, [r7, #4]
     e9e:	1ad3      	subs	r3, r2, r3
     ea0:	4619      	mov	r1, r3
     ea2:	4880      	ldr	r0, [pc, #512]	; (10a4 <main+0xc18>)
     ea4:	f006 fce6 	bl	7874 <printf>
     ea8:	487a      	ldr	r0, [pc, #488]	; (1094 <main+0xc08>)
     eaa:	f006 fce3 	bl	7874 <printf>
     eae:	edd7 7a00 	vldr	s15, [r7]
     eb2:	ee77 7aa7 	vadd.f32	s15, s15, s15
     eb6:	edc7 7a00 	vstr	s15, [r7]
     eba:	4b7d      	ldr	r3, [pc, #500]	; (10b0 <main+0xc24>)
     ebc:	2220      	movs	r2, #32
     ebe:	609a      	str	r2, [r3, #8]
     ec0:	4875      	ldr	r0, [pc, #468]	; (1098 <main+0xc0c>)
     ec2:	f005 fb55 	bl	6570 <Chip_TIMER_Reset>
     ec6:	4b74      	ldr	r3, [pc, #464]	; (1098 <main+0xc0c>)
     ec8:	2201      	movs	r2, #1
     eca:	605a      	str	r2, [r3, #4]
     ecc:	4974      	ldr	r1, [pc, #464]	; (10a0 <main+0xc14>)
     ece:	4878      	ldr	r0, [pc, #480]	; (10b0 <main+0xc24>)
     ed0:	f000 ff2c 	bl	1d2c <ProcessGoertzel_f32_Power>
     ed4:	4603      	mov	r3, r0
     ed6:	603b      	str	r3, [r7, #0]
     ed8:	4b6f      	ldr	r3, [pc, #444]	; (1098 <main+0xc0c>)
     eda:	2200      	movs	r2, #0
     edc:	605a      	str	r2, [r3, #4]
     ede:	4b6e      	ldr	r3, [pc, #440]	; (1098 <main+0xc0c>)
     ee0:	689b      	ldr	r3, [r3, #8]
     ee2:	60bb      	str	r3, [r7, #8]
     ee4:	68ba      	ldr	r2, [r7, #8]
     ee6:	687b      	ldr	r3, [r7, #4]
     ee8:	1ad3      	subs	r3, r2, r3
     eea:	4619      	mov	r1, r3
     eec:	486d      	ldr	r0, [pc, #436]	; (10a4 <main+0xc18>)
     eee:	f006 fcc1 	bl	7874 <printf>
     ef2:	4868      	ldr	r0, [pc, #416]	; (1094 <main+0xc08>)
     ef4:	f006 fcbe 	bl	7874 <printf>
     ef8:	edd7 7a00 	vldr	s15, [r7]
     efc:	ee77 7aa7 	vadd.f32	s15, s15, s15
     f00:	edc7 7a00 	vstr	s15, [r7]
     f04:	4b6a      	ldr	r3, [pc, #424]	; (10b0 <main+0xc24>)
     f06:	2240      	movs	r2, #64	; 0x40
     f08:	609a      	str	r2, [r3, #8]
     f0a:	4863      	ldr	r0, [pc, #396]	; (1098 <main+0xc0c>)
     f0c:	f005 fb30 	bl	6570 <Chip_TIMER_Reset>
     f10:	4b61      	ldr	r3, [pc, #388]	; (1098 <main+0xc0c>)
     f12:	2201      	movs	r2, #1
     f14:	605a      	str	r2, [r3, #4]
     f16:	4962      	ldr	r1, [pc, #392]	; (10a0 <main+0xc14>)
     f18:	4865      	ldr	r0, [pc, #404]	; (10b0 <main+0xc24>)
     f1a:	f000 ff07 	bl	1d2c <ProcessGoertzel_f32_Power>
     f1e:	4603      	mov	r3, r0
     f20:	603b      	str	r3, [r7, #0]
     f22:	4b5d      	ldr	r3, [pc, #372]	; (1098 <main+0xc0c>)
     f24:	2200      	movs	r2, #0
     f26:	605a      	str	r2, [r3, #4]
     f28:	4b5b      	ldr	r3, [pc, #364]	; (1098 <main+0xc0c>)
     f2a:	689b      	ldr	r3, [r3, #8]
     f2c:	60bb      	str	r3, [r7, #8]
     f2e:	68ba      	ldr	r2, [r7, #8]
     f30:	687b      	ldr	r3, [r7, #4]
     f32:	1ad3      	subs	r3, r2, r3
     f34:	4619      	mov	r1, r3
     f36:	485b      	ldr	r0, [pc, #364]	; (10a4 <main+0xc18>)
     f38:	f006 fc9c 	bl	7874 <printf>
     f3c:	4855      	ldr	r0, [pc, #340]	; (1094 <main+0xc08>)
     f3e:	f006 fc99 	bl	7874 <printf>
     f42:	edd7 7a00 	vldr	s15, [r7]
     f46:	ee77 7aa7 	vadd.f32	s15, s15, s15
     f4a:	edc7 7a00 	vstr	s15, [r7]
     f4e:	4b58      	ldr	r3, [pc, #352]	; (10b0 <main+0xc24>)
     f50:	2280      	movs	r2, #128	; 0x80
     f52:	609a      	str	r2, [r3, #8]
     f54:	4850      	ldr	r0, [pc, #320]	; (1098 <main+0xc0c>)
     f56:	f005 fb0b 	bl	6570 <Chip_TIMER_Reset>
     f5a:	4b4f      	ldr	r3, [pc, #316]	; (1098 <main+0xc0c>)
     f5c:	2201      	movs	r2, #1
     f5e:	605a      	str	r2, [r3, #4]
     f60:	494f      	ldr	r1, [pc, #316]	; (10a0 <main+0xc14>)
     f62:	4853      	ldr	r0, [pc, #332]	; (10b0 <main+0xc24>)
     f64:	f000 fee2 	bl	1d2c <ProcessGoertzel_f32_Power>
     f68:	4603      	mov	r3, r0
     f6a:	603b      	str	r3, [r7, #0]
     f6c:	4b4a      	ldr	r3, [pc, #296]	; (1098 <main+0xc0c>)
     f6e:	2200      	movs	r2, #0
     f70:	605a      	str	r2, [r3, #4]
     f72:	4b49      	ldr	r3, [pc, #292]	; (1098 <main+0xc0c>)
     f74:	689b      	ldr	r3, [r3, #8]
     f76:	60bb      	str	r3, [r7, #8]
     f78:	68ba      	ldr	r2, [r7, #8]
     f7a:	687b      	ldr	r3, [r7, #4]
     f7c:	1ad3      	subs	r3, r2, r3
     f7e:	4619      	mov	r1, r3
     f80:	4848      	ldr	r0, [pc, #288]	; (10a4 <main+0xc18>)
     f82:	f006 fc77 	bl	7874 <printf>
     f86:	4843      	ldr	r0, [pc, #268]	; (1094 <main+0xc08>)
     f88:	f006 fc74 	bl	7874 <printf>
     f8c:	edd7 7a00 	vldr	s15, [r7]
     f90:	ee77 7aa7 	vadd.f32	s15, s15, s15
     f94:	edc7 7a00 	vstr	s15, [r7]
     f98:	4b45      	ldr	r3, [pc, #276]	; (10b0 <main+0xc24>)
     f9a:	f44f 7280 	mov.w	r2, #256	; 0x100
     f9e:	609a      	str	r2, [r3, #8]
     fa0:	483d      	ldr	r0, [pc, #244]	; (1098 <main+0xc0c>)
     fa2:	f005 fae5 	bl	6570 <Chip_TIMER_Reset>
     fa6:	4b3c      	ldr	r3, [pc, #240]	; (1098 <main+0xc0c>)
     fa8:	2201      	movs	r2, #1
     faa:	605a      	str	r2, [r3, #4]
     fac:	493c      	ldr	r1, [pc, #240]	; (10a0 <main+0xc14>)
     fae:	4840      	ldr	r0, [pc, #256]	; (10b0 <main+0xc24>)
     fb0:	f000 febc 	bl	1d2c <ProcessGoertzel_f32_Power>
     fb4:	4603      	mov	r3, r0
     fb6:	603b      	str	r3, [r7, #0]
     fb8:	4b37      	ldr	r3, [pc, #220]	; (1098 <main+0xc0c>)
     fba:	2200      	movs	r2, #0
     fbc:	605a      	str	r2, [r3, #4]
     fbe:	4b36      	ldr	r3, [pc, #216]	; (1098 <main+0xc0c>)
     fc0:	689b      	ldr	r3, [r3, #8]
     fc2:	60bb      	str	r3, [r7, #8]
     fc4:	68ba      	ldr	r2, [r7, #8]
     fc6:	687b      	ldr	r3, [r7, #4]
     fc8:	1ad3      	subs	r3, r2, r3
     fca:	4619      	mov	r1, r3
     fcc:	4835      	ldr	r0, [pc, #212]	; (10a4 <main+0xc18>)
     fce:	f006 fc51 	bl	7874 <printf>
     fd2:	4830      	ldr	r0, [pc, #192]	; (1094 <main+0xc08>)
     fd4:	f006 fc4e 	bl	7874 <printf>
     fd8:	edd7 7a00 	vldr	s15, [r7]
     fdc:	ee77 7aa7 	vadd.f32	s15, s15, s15
     fe0:	edc7 7a00 	vstr	s15, [r7]
     fe4:	4b32      	ldr	r3, [pc, #200]	; (10b0 <main+0xc24>)
     fe6:	f44f 7200 	mov.w	r2, #512	; 0x200
     fea:	609a      	str	r2, [r3, #8]
     fec:	482a      	ldr	r0, [pc, #168]	; (1098 <main+0xc0c>)
     fee:	f005 fabf 	bl	6570 <Chip_TIMER_Reset>
     ff2:	4b29      	ldr	r3, [pc, #164]	; (1098 <main+0xc0c>)
     ff4:	2201      	movs	r2, #1
     ff6:	605a      	str	r2, [r3, #4]
     ff8:	4929      	ldr	r1, [pc, #164]	; (10a0 <main+0xc14>)
     ffa:	482d      	ldr	r0, [pc, #180]	; (10b0 <main+0xc24>)
     ffc:	f000 fe96 	bl	1d2c <ProcessGoertzel_f32_Power>
    1000:	4603      	mov	r3, r0
    1002:	603b      	str	r3, [r7, #0]
    1004:	4b24      	ldr	r3, [pc, #144]	; (1098 <main+0xc0c>)
    1006:	2200      	movs	r2, #0
    1008:	605a      	str	r2, [r3, #4]
    100a:	4b23      	ldr	r3, [pc, #140]	; (1098 <main+0xc0c>)
    100c:	689b      	ldr	r3, [r3, #8]
    100e:	60bb      	str	r3, [r7, #8]
    1010:	68ba      	ldr	r2, [r7, #8]
    1012:	687b      	ldr	r3, [r7, #4]
    1014:	1ad3      	subs	r3, r2, r3
    1016:	4619      	mov	r1, r3
    1018:	4822      	ldr	r0, [pc, #136]	; (10a4 <main+0xc18>)
    101a:	f006 fc2b 	bl	7874 <printf>
    101e:	481d      	ldr	r0, [pc, #116]	; (1094 <main+0xc08>)
    1020:	f006 fc28 	bl	7874 <printf>
    1024:	edd7 7a00 	vldr	s15, [r7]
    1028:	ee77 7aa7 	vadd.f32	s15, s15, s15
    102c:	edc7 7a00 	vstr	s15, [r7]
    1030:	4b1f      	ldr	r3, [pc, #124]	; (10b0 <main+0xc24>)
    1032:	f44f 6280 	mov.w	r2, #1024	; 0x400
    1036:	609a      	str	r2, [r3, #8]
    1038:	4817      	ldr	r0, [pc, #92]	; (1098 <main+0xc0c>)
    103a:	f005 fa99 	bl	6570 <Chip_TIMER_Reset>
    103e:	4b16      	ldr	r3, [pc, #88]	; (1098 <main+0xc0c>)
    1040:	2201      	movs	r2, #1
    1042:	605a      	str	r2, [r3, #4]
    1044:	4916      	ldr	r1, [pc, #88]	; (10a0 <main+0xc14>)
    1046:	481a      	ldr	r0, [pc, #104]	; (10b0 <main+0xc24>)
    1048:	f000 fe70 	bl	1d2c <ProcessGoertzel_f32_Power>
    104c:	4603      	mov	r3, r0
    104e:	603b      	str	r3, [r7, #0]
    1050:	4b11      	ldr	r3, [pc, #68]	; (1098 <main+0xc0c>)
    1052:	2200      	movs	r2, #0
    1054:	605a      	str	r2, [r3, #4]
    1056:	4b10      	ldr	r3, [pc, #64]	; (1098 <main+0xc0c>)
    1058:	689b      	ldr	r3, [r3, #8]
    105a:	60bb      	str	r3, [r7, #8]
    105c:	68ba      	ldr	r2, [r7, #8]
    105e:	687b      	ldr	r3, [r7, #4]
    1060:	1ad3      	subs	r3, r2, r3
    1062:	4619      	mov	r1, r3
    1064:	480f      	ldr	r0, [pc, #60]	; (10a4 <main+0xc18>)
    1066:	f006 fc05 	bl	7874 <printf>
    106a:	480a      	ldr	r0, [pc, #40]	; (1094 <main+0xc08>)
    106c:	f006 fc02 	bl	7874 <printf>
    1070:	edd7 7a00 	vldr	s15, [r7]
    1074:	ee77 7aa7 	vadd.f32	s15, s15, s15
    1078:	edc7 7a00 	vstr	s15, [r7]
    107c:	4b0c      	ldr	r3, [pc, #48]	; (10b0 <main+0xc24>)
    107e:	f44f 6200 	mov.w	r2, #2048	; 0x800
    1082:	609a      	str	r2, [r3, #8]
    1084:	4804      	ldr	r0, [pc, #16]	; (1098 <main+0xc0c>)
    1086:	f005 fa73 	bl	6570 <Chip_TIMER_Reset>
    108a:	4b03      	ldr	r3, [pc, #12]	; (1098 <main+0xc0c>)
    108c:	2201      	movs	r2, #1
    108e:	605a      	str	r2, [r3, #4]
    1090:	4903      	ldr	r1, [pc, #12]	; (10a0 <main+0xc14>)
    1092:	e011      	b.n	10b8 <main+0xc2c>
    1094:	00009a24 	.word	0x00009a24
    1098:	40008000 	.word	0x40008000
    109c:	200064b0 	.word	0x200064b0
    10a0:	200023a4 	.word	0x200023a4
    10a4:	00009a20 	.word	0x00009a20
    10a8:	49742400 	.word	0x49742400
    10ac:	482fc800 	.word	0x482fc800
    10b0:	20002394 	.word	0x20002394
    10b4:	00009a68 	.word	0x00009a68
    10b8:	48a8      	ldr	r0, [pc, #672]	; (135c <main+0xed0>)
    10ba:	f000 fe37 	bl	1d2c <ProcessGoertzel_f32_Power>
    10be:	4603      	mov	r3, r0
    10c0:	603b      	str	r3, [r7, #0]
    10c2:	4ba7      	ldr	r3, [pc, #668]	; (1360 <main+0xed4>)
    10c4:	2200      	movs	r2, #0
    10c6:	605a      	str	r2, [r3, #4]
    10c8:	4ba5      	ldr	r3, [pc, #660]	; (1360 <main+0xed4>)
    10ca:	689b      	ldr	r3, [r3, #8]
    10cc:	60bb      	str	r3, [r7, #8]
    10ce:	68ba      	ldr	r2, [r7, #8]
    10d0:	687b      	ldr	r3, [r7, #4]
    10d2:	1ad3      	subs	r3, r2, r3
    10d4:	4619      	mov	r1, r3
    10d6:	48a3      	ldr	r0, [pc, #652]	; (1364 <main+0xed8>)
    10d8:	f006 fbcc 	bl	7874 <printf>
    10dc:	48a2      	ldr	r0, [pc, #648]	; (1368 <main+0xedc>)
    10de:	f006 fbc9 	bl	7874 <printf>
    10e2:	edd7 7a00 	vldr	s15, [r7]
    10e6:	ee77 7aa7 	vadd.f32	s15, s15, s15
    10ea:	edc7 7a00 	vstr	s15, [r7]
    10ee:	4b9b      	ldr	r3, [pc, #620]	; (135c <main+0xed0>)
    10f0:	f44f 5280 	mov.w	r2, #4096	; 0x1000
    10f4:	609a      	str	r2, [r3, #8]
    10f6:	489a      	ldr	r0, [pc, #616]	; (1360 <main+0xed4>)
    10f8:	f005 fa3a 	bl	6570 <Chip_TIMER_Reset>
    10fc:	4b98      	ldr	r3, [pc, #608]	; (1360 <main+0xed4>)
    10fe:	2201      	movs	r2, #1
    1100:	605a      	str	r2, [r3, #4]
    1102:	499a      	ldr	r1, [pc, #616]	; (136c <main+0xee0>)
    1104:	4895      	ldr	r0, [pc, #596]	; (135c <main+0xed0>)
    1106:	f000 fe11 	bl	1d2c <ProcessGoertzel_f32_Power>
    110a:	4603      	mov	r3, r0
    110c:	603b      	str	r3, [r7, #0]
    110e:	4b94      	ldr	r3, [pc, #592]	; (1360 <main+0xed4>)
    1110:	2200      	movs	r2, #0
    1112:	605a      	str	r2, [r3, #4]
    1114:	4b92      	ldr	r3, [pc, #584]	; (1360 <main+0xed4>)
    1116:	689b      	ldr	r3, [r3, #8]
    1118:	60bb      	str	r3, [r7, #8]
    111a:	68ba      	ldr	r2, [r7, #8]
    111c:	687b      	ldr	r3, [r7, #4]
    111e:	1ad3      	subs	r3, r2, r3
    1120:	4619      	mov	r1, r3
    1122:	4890      	ldr	r0, [pc, #576]	; (1364 <main+0xed8>)
    1124:	f006 fba6 	bl	7874 <printf>
    1128:	488f      	ldr	r0, [pc, #572]	; (1368 <main+0xedc>)
    112a:	f006 fba3 	bl	7874 <printf>
    112e:	edd7 7a00 	vldr	s15, [r7]
    1132:	ee77 7aa7 	vadd.f32	s15, s15, s15
    1136:	edc7 7a00 	vstr	s15, [r7]
    113a:	488d      	ldr	r0, [pc, #564]	; (1370 <main+0xee4>)
    113c:	f006 fb9a 	bl	7874 <printf>
    1140:	488c      	ldr	r0, [pc, #560]	; (1374 <main+0xee8>)
    1142:	f006 fb97 	bl	7874 <printf>
    1146:	4b8c      	ldr	r3, [pc, #560]	; (1378 <main+0xeec>)
    1148:	4a8c      	ldr	r2, [pc, #560]	; (137c <main+0xef0>)
    114a:	2101      	movs	r1, #1
    114c:	488c      	ldr	r0, [pc, #560]	; (1380 <main+0xef4>)
    114e:	f003 fab9 	bl	46c4 <arm_biquad_cascade_df1_init_f32>
    1152:	4883      	ldr	r0, [pc, #524]	; (1360 <main+0xed4>)
    1154:	f005 fa0c 	bl	6570 <Chip_TIMER_Reset>
    1158:	4b81      	ldr	r3, [pc, #516]	; (1360 <main+0xed4>)
    115a:	2201      	movs	r2, #1
    115c:	605a      	str	r2, [r3, #4]
    115e:	2310      	movs	r3, #16
    1160:	4a88      	ldr	r2, [pc, #544]	; (1384 <main+0xef8>)
    1162:	4982      	ldr	r1, [pc, #520]	; (136c <main+0xee0>)
    1164:	4886      	ldr	r0, [pc, #536]	; (1380 <main+0xef4>)
    1166:	f003 f933 	bl	43d0 <arm_biquad_cascade_df1_f32>
    116a:	4b7d      	ldr	r3, [pc, #500]	; (1360 <main+0xed4>)
    116c:	2200      	movs	r2, #0
    116e:	605a      	str	r2, [r3, #4]
    1170:	4b7b      	ldr	r3, [pc, #492]	; (1360 <main+0xed4>)
    1172:	689b      	ldr	r3, [r3, #8]
    1174:	60bb      	str	r3, [r7, #8]
    1176:	68ba      	ldr	r2, [r7, #8]
    1178:	687b      	ldr	r3, [r7, #4]
    117a:	1ad3      	subs	r3, r2, r3
    117c:	4619      	mov	r1, r3
    117e:	4879      	ldr	r0, [pc, #484]	; (1364 <main+0xed8>)
    1180:	f006 fb78 	bl	7874 <printf>
    1184:	4878      	ldr	r0, [pc, #480]	; (1368 <main+0xedc>)
    1186:	f006 fb75 	bl	7874 <printf>
    118a:	4875      	ldr	r0, [pc, #468]	; (1360 <main+0xed4>)
    118c:	f005 f9f0 	bl	6570 <Chip_TIMER_Reset>
    1190:	4b73      	ldr	r3, [pc, #460]	; (1360 <main+0xed4>)
    1192:	2201      	movs	r2, #1
    1194:	605a      	str	r2, [r3, #4]
    1196:	2320      	movs	r3, #32
    1198:	4a7a      	ldr	r2, [pc, #488]	; (1384 <main+0xef8>)
    119a:	4974      	ldr	r1, [pc, #464]	; (136c <main+0xee0>)
    119c:	4878      	ldr	r0, [pc, #480]	; (1380 <main+0xef4>)
    119e:	f003 f917 	bl	43d0 <arm_biquad_cascade_df1_f32>
    11a2:	4b6f      	ldr	r3, [pc, #444]	; (1360 <main+0xed4>)
    11a4:	2200      	movs	r2, #0
    11a6:	605a      	str	r2, [r3, #4]
    11a8:	4b6d      	ldr	r3, [pc, #436]	; (1360 <main+0xed4>)
    11aa:	689b      	ldr	r3, [r3, #8]
    11ac:	60bb      	str	r3, [r7, #8]
    11ae:	68ba      	ldr	r2, [r7, #8]
    11b0:	687b      	ldr	r3, [r7, #4]
    11b2:	1ad3      	subs	r3, r2, r3
    11b4:	4619      	mov	r1, r3
    11b6:	486b      	ldr	r0, [pc, #428]	; (1364 <main+0xed8>)
    11b8:	f006 fb5c 	bl	7874 <printf>
    11bc:	486a      	ldr	r0, [pc, #424]	; (1368 <main+0xedc>)
    11be:	f006 fb59 	bl	7874 <printf>
    11c2:	4867      	ldr	r0, [pc, #412]	; (1360 <main+0xed4>)
    11c4:	f005 f9d4 	bl	6570 <Chip_TIMER_Reset>
    11c8:	4b65      	ldr	r3, [pc, #404]	; (1360 <main+0xed4>)
    11ca:	2201      	movs	r2, #1
    11cc:	605a      	str	r2, [r3, #4]
    11ce:	2340      	movs	r3, #64	; 0x40
    11d0:	4a6c      	ldr	r2, [pc, #432]	; (1384 <main+0xef8>)
    11d2:	4966      	ldr	r1, [pc, #408]	; (136c <main+0xee0>)
    11d4:	486a      	ldr	r0, [pc, #424]	; (1380 <main+0xef4>)
    11d6:	f003 f8fb 	bl	43d0 <arm_biquad_cascade_df1_f32>
    11da:	4b61      	ldr	r3, [pc, #388]	; (1360 <main+0xed4>)
    11dc:	2200      	movs	r2, #0
    11de:	605a      	str	r2, [r3, #4]
    11e0:	4b5f      	ldr	r3, [pc, #380]	; (1360 <main+0xed4>)
    11e2:	689b      	ldr	r3, [r3, #8]
    11e4:	60bb      	str	r3, [r7, #8]
    11e6:	68ba      	ldr	r2, [r7, #8]
    11e8:	687b      	ldr	r3, [r7, #4]
    11ea:	1ad3      	subs	r3, r2, r3
    11ec:	4619      	mov	r1, r3
    11ee:	485d      	ldr	r0, [pc, #372]	; (1364 <main+0xed8>)
    11f0:	f006 fb40 	bl	7874 <printf>
    11f4:	485c      	ldr	r0, [pc, #368]	; (1368 <main+0xedc>)
    11f6:	f006 fb3d 	bl	7874 <printf>
    11fa:	4859      	ldr	r0, [pc, #356]	; (1360 <main+0xed4>)
    11fc:	f005 f9b8 	bl	6570 <Chip_TIMER_Reset>
    1200:	4b57      	ldr	r3, [pc, #348]	; (1360 <main+0xed4>)
    1202:	2201      	movs	r2, #1
    1204:	605a      	str	r2, [r3, #4]
    1206:	2380      	movs	r3, #128	; 0x80
    1208:	4a5e      	ldr	r2, [pc, #376]	; (1384 <main+0xef8>)
    120a:	4958      	ldr	r1, [pc, #352]	; (136c <main+0xee0>)
    120c:	485c      	ldr	r0, [pc, #368]	; (1380 <main+0xef4>)
    120e:	f003 f8df 	bl	43d0 <arm_biquad_cascade_df1_f32>
    1212:	4b53      	ldr	r3, [pc, #332]	; (1360 <main+0xed4>)
    1214:	2200      	movs	r2, #0
    1216:	605a      	str	r2, [r3, #4]
    1218:	4b51      	ldr	r3, [pc, #324]	; (1360 <main+0xed4>)
    121a:	689b      	ldr	r3, [r3, #8]
    121c:	60bb      	str	r3, [r7, #8]
    121e:	68ba      	ldr	r2, [r7, #8]
    1220:	687b      	ldr	r3, [r7, #4]
    1222:	1ad3      	subs	r3, r2, r3
    1224:	4619      	mov	r1, r3
    1226:	484f      	ldr	r0, [pc, #316]	; (1364 <main+0xed8>)
    1228:	f006 fb24 	bl	7874 <printf>
    122c:	484e      	ldr	r0, [pc, #312]	; (1368 <main+0xedc>)
    122e:	f006 fb21 	bl	7874 <printf>
    1232:	484b      	ldr	r0, [pc, #300]	; (1360 <main+0xed4>)
    1234:	f005 f99c 	bl	6570 <Chip_TIMER_Reset>
    1238:	4b49      	ldr	r3, [pc, #292]	; (1360 <main+0xed4>)
    123a:	2201      	movs	r2, #1
    123c:	605a      	str	r2, [r3, #4]
    123e:	f44f 7380 	mov.w	r3, #256	; 0x100
    1242:	4a50      	ldr	r2, [pc, #320]	; (1384 <main+0xef8>)
    1244:	4949      	ldr	r1, [pc, #292]	; (136c <main+0xee0>)
    1246:	484e      	ldr	r0, [pc, #312]	; (1380 <main+0xef4>)
    1248:	f003 f8c2 	bl	43d0 <arm_biquad_cascade_df1_f32>
    124c:	4b44      	ldr	r3, [pc, #272]	; (1360 <main+0xed4>)
    124e:	2200      	movs	r2, #0
    1250:	605a      	str	r2, [r3, #4]
    1252:	4b43      	ldr	r3, [pc, #268]	; (1360 <main+0xed4>)
    1254:	689b      	ldr	r3, [r3, #8]
    1256:	60bb      	str	r3, [r7, #8]
    1258:	68ba      	ldr	r2, [r7, #8]
    125a:	687b      	ldr	r3, [r7, #4]
    125c:	1ad3      	subs	r3, r2, r3
    125e:	4619      	mov	r1, r3
    1260:	4840      	ldr	r0, [pc, #256]	; (1364 <main+0xed8>)
    1262:	f006 fb07 	bl	7874 <printf>
    1266:	4840      	ldr	r0, [pc, #256]	; (1368 <main+0xedc>)
    1268:	f006 fb04 	bl	7874 <printf>
    126c:	483c      	ldr	r0, [pc, #240]	; (1360 <main+0xed4>)
    126e:	f005 f97f 	bl	6570 <Chip_TIMER_Reset>
    1272:	4b3b      	ldr	r3, [pc, #236]	; (1360 <main+0xed4>)
    1274:	2201      	movs	r2, #1
    1276:	605a      	str	r2, [r3, #4]
    1278:	f44f 7300 	mov.w	r3, #512	; 0x200
    127c:	4a41      	ldr	r2, [pc, #260]	; (1384 <main+0xef8>)
    127e:	493b      	ldr	r1, [pc, #236]	; (136c <main+0xee0>)
    1280:	483f      	ldr	r0, [pc, #252]	; (1380 <main+0xef4>)
    1282:	f003 f8a5 	bl	43d0 <arm_biquad_cascade_df1_f32>
    1286:	4b36      	ldr	r3, [pc, #216]	; (1360 <main+0xed4>)
    1288:	2200      	movs	r2, #0
    128a:	605a      	str	r2, [r3, #4]
    128c:	4b34      	ldr	r3, [pc, #208]	; (1360 <main+0xed4>)
    128e:	689b      	ldr	r3, [r3, #8]
    1290:	60bb      	str	r3, [r7, #8]
    1292:	68ba      	ldr	r2, [r7, #8]
    1294:	687b      	ldr	r3, [r7, #4]
    1296:	1ad3      	subs	r3, r2, r3
    1298:	4619      	mov	r1, r3
    129a:	4832      	ldr	r0, [pc, #200]	; (1364 <main+0xed8>)
    129c:	f006 faea 	bl	7874 <printf>
    12a0:	4831      	ldr	r0, [pc, #196]	; (1368 <main+0xedc>)
    12a2:	f006 fae7 	bl	7874 <printf>
    12a6:	482e      	ldr	r0, [pc, #184]	; (1360 <main+0xed4>)
    12a8:	f005 f962 	bl	6570 <Chip_TIMER_Reset>
    12ac:	4b2c      	ldr	r3, [pc, #176]	; (1360 <main+0xed4>)
    12ae:	2201      	movs	r2, #1
    12b0:	605a      	str	r2, [r3, #4]
    12b2:	f44f 6380 	mov.w	r3, #1024	; 0x400
    12b6:	4a33      	ldr	r2, [pc, #204]	; (1384 <main+0xef8>)
    12b8:	492c      	ldr	r1, [pc, #176]	; (136c <main+0xee0>)
    12ba:	4831      	ldr	r0, [pc, #196]	; (1380 <main+0xef4>)
    12bc:	f003 f888 	bl	43d0 <arm_biquad_cascade_df1_f32>
    12c0:	4b27      	ldr	r3, [pc, #156]	; (1360 <main+0xed4>)
    12c2:	2200      	movs	r2, #0
    12c4:	605a      	str	r2, [r3, #4]
    12c6:	4b26      	ldr	r3, [pc, #152]	; (1360 <main+0xed4>)
    12c8:	689b      	ldr	r3, [r3, #8]
    12ca:	60bb      	str	r3, [r7, #8]
    12cc:	68ba      	ldr	r2, [r7, #8]
    12ce:	687b      	ldr	r3, [r7, #4]
    12d0:	1ad3      	subs	r3, r2, r3
    12d2:	4619      	mov	r1, r3
    12d4:	4823      	ldr	r0, [pc, #140]	; (1364 <main+0xed8>)
    12d6:	f006 facd 	bl	7874 <printf>
    12da:	4823      	ldr	r0, [pc, #140]	; (1368 <main+0xedc>)
    12dc:	f006 faca 	bl	7874 <printf>
    12e0:	481f      	ldr	r0, [pc, #124]	; (1360 <main+0xed4>)
    12e2:	f005 f945 	bl	6570 <Chip_TIMER_Reset>
    12e6:	4b1e      	ldr	r3, [pc, #120]	; (1360 <main+0xed4>)
    12e8:	2201      	movs	r2, #1
    12ea:	605a      	str	r2, [r3, #4]
    12ec:	f44f 6300 	mov.w	r3, #2048	; 0x800
    12f0:	4a24      	ldr	r2, [pc, #144]	; (1384 <main+0xef8>)
    12f2:	491e      	ldr	r1, [pc, #120]	; (136c <main+0xee0>)
    12f4:	4822      	ldr	r0, [pc, #136]	; (1380 <main+0xef4>)
    12f6:	f003 f86b 	bl	43d0 <arm_biquad_cascade_df1_f32>
    12fa:	4b19      	ldr	r3, [pc, #100]	; (1360 <main+0xed4>)
    12fc:	2200      	movs	r2, #0
    12fe:	605a      	str	r2, [r3, #4]
    1300:	4b17      	ldr	r3, [pc, #92]	; (1360 <main+0xed4>)
    1302:	689b      	ldr	r3, [r3, #8]
    1304:	60bb      	str	r3, [r7, #8]
    1306:	68ba      	ldr	r2, [r7, #8]
    1308:	687b      	ldr	r3, [r7, #4]
    130a:	1ad3      	subs	r3, r2, r3
    130c:	4619      	mov	r1, r3
    130e:	4815      	ldr	r0, [pc, #84]	; (1364 <main+0xed8>)
    1310:	f006 fab0 	bl	7874 <printf>
    1314:	4814      	ldr	r0, [pc, #80]	; (1368 <main+0xedc>)
    1316:	f006 faad 	bl	7874 <printf>
    131a:	4811      	ldr	r0, [pc, #68]	; (1360 <main+0xed4>)
    131c:	f005 f928 	bl	6570 <Chip_TIMER_Reset>
    1320:	4b0f      	ldr	r3, [pc, #60]	; (1360 <main+0xed4>)
    1322:	2201      	movs	r2, #1
    1324:	605a      	str	r2, [r3, #4]
    1326:	f44f 5380 	mov.w	r3, #4096	; 0x1000
    132a:	4a16      	ldr	r2, [pc, #88]	; (1384 <main+0xef8>)
    132c:	490f      	ldr	r1, [pc, #60]	; (136c <main+0xee0>)
    132e:	4814      	ldr	r0, [pc, #80]	; (1380 <main+0xef4>)
    1330:	f003 f84e 	bl	43d0 <arm_biquad_cascade_df1_f32>
    1334:	4b0a      	ldr	r3, [pc, #40]	; (1360 <main+0xed4>)
    1336:	2200      	movs	r2, #0
    1338:	605a      	str	r2, [r3, #4]
    133a:	4b09      	ldr	r3, [pc, #36]	; (1360 <main+0xed4>)
    133c:	689b      	ldr	r3, [r3, #8]
    133e:	60bb      	str	r3, [r7, #8]
    1340:	68ba      	ldr	r2, [r7, #8]
    1342:	687b      	ldr	r3, [r7, #4]
    1344:	1ad3      	subs	r3, r2, r3
    1346:	4619      	mov	r1, r3
    1348:	4806      	ldr	r0, [pc, #24]	; (1364 <main+0xed8>)
    134a:	f006 fa93 	bl	7874 <printf>
    134e:	4806      	ldr	r0, [pc, #24]	; (1368 <main+0xedc>)
    1350:	f006 fa90 	bl	7874 <printf>
    1354:	4806      	ldr	r0, [pc, #24]	; (1370 <main+0xee4>)
    1356:	f006 fa8d 	bl	7874 <printf>
    135a:	e015      	b.n	1388 <main+0xefc>
    135c:	20002394 	.word	0x20002394
    1360:	40008000 	.word	0x40008000
    1364:	00009a20 	.word	0x00009a20
    1368:	00009a24 	.word	0x00009a24
    136c:	200023a4 	.word	0x200023a4
    1370:	00009a04 	.word	0x00009a04
    1374:	00009a78 	.word	0x00009a78
    1378:	200000f8 	.word	0x200000f8
    137c:	20000000 	.word	0x20000000
    1380:	2000a4b0 	.word	0x2000a4b0
    1384:	200064b0 	.word	0x200064b0
    1388:	48a7      	ldr	r0, [pc, #668]	; (1628 <main+0x119c>)
    138a:	f006 fa73 	bl	7874 <printf>
    138e:	4ba7      	ldr	r3, [pc, #668]	; (162c <main+0x11a0>)
    1390:	4aa7      	ldr	r2, [pc, #668]	; (1630 <main+0x11a4>)
    1392:	2101      	movs	r1, #1
    1394:	48a7      	ldr	r0, [pc, #668]	; (1634 <main+0x11a8>)
    1396:	f003 fa5f 	bl	4858 <arm_biquad_cascade_df2T_init_f32>
    139a:	48a7      	ldr	r0, [pc, #668]	; (1638 <main+0x11ac>)
    139c:	f005 f8e8 	bl	6570 <Chip_TIMER_Reset>
    13a0:	4ba5      	ldr	r3, [pc, #660]	; (1638 <main+0x11ac>)
    13a2:	2201      	movs	r2, #1
    13a4:	605a      	str	r2, [r3, #4]
    13a6:	2310      	movs	r3, #16
    13a8:	4aa4      	ldr	r2, [pc, #656]	; (163c <main+0x11b0>)
    13aa:	49a5      	ldr	r1, [pc, #660]	; (1640 <main+0x11b4>)
    13ac:	48a1      	ldr	r0, [pc, #644]	; (1634 <main+0x11a8>)
    13ae:	f003 f9a5 	bl	46fc <arm_biquad_cascade_df2T_f32>
    13b2:	4ba1      	ldr	r3, [pc, #644]	; (1638 <main+0x11ac>)
    13b4:	2200      	movs	r2, #0
    13b6:	605a      	str	r2, [r3, #4]
    13b8:	4b9f      	ldr	r3, [pc, #636]	; (1638 <main+0x11ac>)
    13ba:	689b      	ldr	r3, [r3, #8]
    13bc:	60bb      	str	r3, [r7, #8]
    13be:	68ba      	ldr	r2, [r7, #8]
    13c0:	687b      	ldr	r3, [r7, #4]
    13c2:	1ad3      	subs	r3, r2, r3
    13c4:	4619      	mov	r1, r3
    13c6:	489f      	ldr	r0, [pc, #636]	; (1644 <main+0x11b8>)
    13c8:	f006 fa54 	bl	7874 <printf>
    13cc:	489e      	ldr	r0, [pc, #632]	; (1648 <main+0x11bc>)
    13ce:	f006 fa51 	bl	7874 <printf>
    13d2:	4899      	ldr	r0, [pc, #612]	; (1638 <main+0x11ac>)
    13d4:	f005 f8cc 	bl	6570 <Chip_TIMER_Reset>
    13d8:	4b97      	ldr	r3, [pc, #604]	; (1638 <main+0x11ac>)
    13da:	2201      	movs	r2, #1
    13dc:	605a      	str	r2, [r3, #4]
    13de:	2320      	movs	r3, #32
    13e0:	4a96      	ldr	r2, [pc, #600]	; (163c <main+0x11b0>)
    13e2:	4997      	ldr	r1, [pc, #604]	; (1640 <main+0x11b4>)
    13e4:	4893      	ldr	r0, [pc, #588]	; (1634 <main+0x11a8>)
    13e6:	f003 f989 	bl	46fc <arm_biquad_cascade_df2T_f32>
    13ea:	4b93      	ldr	r3, [pc, #588]	; (1638 <main+0x11ac>)
    13ec:	2200      	movs	r2, #0
    13ee:	605a      	str	r2, [r3, #4]
    13f0:	4b91      	ldr	r3, [pc, #580]	; (1638 <main+0x11ac>)
    13f2:	689b      	ldr	r3, [r3, #8]
    13f4:	60bb      	str	r3, [r7, #8]
    13f6:	68ba      	ldr	r2, [r7, #8]
    13f8:	687b      	ldr	r3, [r7, #4]
    13fa:	1ad3      	subs	r3, r2, r3
    13fc:	4619      	mov	r1, r3
    13fe:	4891      	ldr	r0, [pc, #580]	; (1644 <main+0x11b8>)
    1400:	f006 fa38 	bl	7874 <printf>
    1404:	4890      	ldr	r0, [pc, #576]	; (1648 <main+0x11bc>)
    1406:	f006 fa35 	bl	7874 <printf>
    140a:	488b      	ldr	r0, [pc, #556]	; (1638 <main+0x11ac>)
    140c:	f005 f8b0 	bl	6570 <Chip_TIMER_Reset>
    1410:	4b89      	ldr	r3, [pc, #548]	; (1638 <main+0x11ac>)
    1412:	2201      	movs	r2, #1
    1414:	605a      	str	r2, [r3, #4]
    1416:	2340      	movs	r3, #64	; 0x40
    1418:	4a88      	ldr	r2, [pc, #544]	; (163c <main+0x11b0>)
    141a:	4989      	ldr	r1, [pc, #548]	; (1640 <main+0x11b4>)
    141c:	4885      	ldr	r0, [pc, #532]	; (1634 <main+0x11a8>)
    141e:	f003 f96d 	bl	46fc <arm_biquad_cascade_df2T_f32>
    1422:	4b85      	ldr	r3, [pc, #532]	; (1638 <main+0x11ac>)
    1424:	2200      	movs	r2, #0
    1426:	605a      	str	r2, [r3, #4]
    1428:	4b83      	ldr	r3, [pc, #524]	; (1638 <main+0x11ac>)
    142a:	689b      	ldr	r3, [r3, #8]
    142c:	60bb      	str	r3, [r7, #8]
    142e:	68ba      	ldr	r2, [r7, #8]
    1430:	687b      	ldr	r3, [r7, #4]
    1432:	1ad3      	subs	r3, r2, r3
    1434:	4619      	mov	r1, r3
    1436:	4883      	ldr	r0, [pc, #524]	; (1644 <main+0x11b8>)
    1438:	f006 fa1c 	bl	7874 <printf>
    143c:	4882      	ldr	r0, [pc, #520]	; (1648 <main+0x11bc>)
    143e:	f006 fa19 	bl	7874 <printf>
    1442:	487d      	ldr	r0, [pc, #500]	; (1638 <main+0x11ac>)
    1444:	f005 f894 	bl	6570 <Chip_TIMER_Reset>
    1448:	4b7b      	ldr	r3, [pc, #492]	; (1638 <main+0x11ac>)
    144a:	2201      	movs	r2, #1
    144c:	605a      	str	r2, [r3, #4]
    144e:	2380      	movs	r3, #128	; 0x80
    1450:	4a7a      	ldr	r2, [pc, #488]	; (163c <main+0x11b0>)
    1452:	497b      	ldr	r1, [pc, #492]	; (1640 <main+0x11b4>)
    1454:	4877      	ldr	r0, [pc, #476]	; (1634 <main+0x11a8>)
    1456:	f003 f951 	bl	46fc <arm_biquad_cascade_df2T_f32>
    145a:	4b77      	ldr	r3, [pc, #476]	; (1638 <main+0x11ac>)
    145c:	2200      	movs	r2, #0
    145e:	605a      	str	r2, [r3, #4]
    1460:	4b75      	ldr	r3, [pc, #468]	; (1638 <main+0x11ac>)
    1462:	689b      	ldr	r3, [r3, #8]
    1464:	60bb      	str	r3, [r7, #8]
    1466:	68ba      	ldr	r2, [r7, #8]
    1468:	687b      	ldr	r3, [r7, #4]
    146a:	1ad3      	subs	r3, r2, r3
    146c:	4619      	mov	r1, r3
    146e:	4875      	ldr	r0, [pc, #468]	; (1644 <main+0x11b8>)
    1470:	f006 fa00 	bl	7874 <printf>
    1474:	4874      	ldr	r0, [pc, #464]	; (1648 <main+0x11bc>)
    1476:	f006 f9fd 	bl	7874 <printf>
    147a:	486f      	ldr	r0, [pc, #444]	; (1638 <main+0x11ac>)
    147c:	f005 f878 	bl	6570 <Chip_TIMER_Reset>
    1480:	4b6d      	ldr	r3, [pc, #436]	; (1638 <main+0x11ac>)
    1482:	2201      	movs	r2, #1
    1484:	605a      	str	r2, [r3, #4]
    1486:	f44f 7380 	mov.w	r3, #256	; 0x100
    148a:	4a6c      	ldr	r2, [pc, #432]	; (163c <main+0x11b0>)
    148c:	496c      	ldr	r1, [pc, #432]	; (1640 <main+0x11b4>)
    148e:	4869      	ldr	r0, [pc, #420]	; (1634 <main+0x11a8>)
    1490:	f003 f934 	bl	46fc <arm_biquad_cascade_df2T_f32>
    1494:	4b68      	ldr	r3, [pc, #416]	; (1638 <main+0x11ac>)
    1496:	2200      	movs	r2, #0
    1498:	605a      	str	r2, [r3, #4]
    149a:	4b67      	ldr	r3, [pc, #412]	; (1638 <main+0x11ac>)
    149c:	689b      	ldr	r3, [r3, #8]
    149e:	60bb      	str	r3, [r7, #8]
    14a0:	68ba      	ldr	r2, [r7, #8]
    14a2:	687b      	ldr	r3, [r7, #4]
    14a4:	1ad3      	subs	r3, r2, r3
    14a6:	4619      	mov	r1, r3
    14a8:	4866      	ldr	r0, [pc, #408]	; (1644 <main+0x11b8>)
    14aa:	f006 f9e3 	bl	7874 <printf>
    14ae:	4866      	ldr	r0, [pc, #408]	; (1648 <main+0x11bc>)
    14b0:	f006 f9e0 	bl	7874 <printf>
    14b4:	4860      	ldr	r0, [pc, #384]	; (1638 <main+0x11ac>)
    14b6:	f005 f85b 	bl	6570 <Chip_TIMER_Reset>
    14ba:	4b5f      	ldr	r3, [pc, #380]	; (1638 <main+0x11ac>)
    14bc:	2201      	movs	r2, #1
    14be:	605a      	str	r2, [r3, #4]
    14c0:	f44f 7300 	mov.w	r3, #512	; 0x200
    14c4:	4a5d      	ldr	r2, [pc, #372]	; (163c <main+0x11b0>)
    14c6:	495e      	ldr	r1, [pc, #376]	; (1640 <main+0x11b4>)
    14c8:	485a      	ldr	r0, [pc, #360]	; (1634 <main+0x11a8>)
    14ca:	f003 f917 	bl	46fc <arm_biquad_cascade_df2T_f32>
    14ce:	4b5a      	ldr	r3, [pc, #360]	; (1638 <main+0x11ac>)
    14d0:	2200      	movs	r2, #0
    14d2:	605a      	str	r2, [r3, #4]
    14d4:	4b58      	ldr	r3, [pc, #352]	; (1638 <main+0x11ac>)
    14d6:	689b      	ldr	r3, [r3, #8]
    14d8:	60bb      	str	r3, [r7, #8]
    14da:	68ba      	ldr	r2, [r7, #8]
    14dc:	687b      	ldr	r3, [r7, #4]
    14de:	1ad3      	subs	r3, r2, r3
    14e0:	4619      	mov	r1, r3
    14e2:	4858      	ldr	r0, [pc, #352]	; (1644 <main+0x11b8>)
    14e4:	f006 f9c6 	bl	7874 <printf>
    14e8:	4857      	ldr	r0, [pc, #348]	; (1648 <main+0x11bc>)
    14ea:	f006 f9c3 	bl	7874 <printf>
    14ee:	4852      	ldr	r0, [pc, #328]	; (1638 <main+0x11ac>)
    14f0:	f005 f83e 	bl	6570 <Chip_TIMER_Reset>
    14f4:	4b50      	ldr	r3, [pc, #320]	; (1638 <main+0x11ac>)
    14f6:	2201      	movs	r2, #1
    14f8:	605a      	str	r2, [r3, #4]
    14fa:	f44f 6380 	mov.w	r3, #1024	; 0x400
    14fe:	4a4f      	ldr	r2, [pc, #316]	; (163c <main+0x11b0>)
    1500:	494f      	ldr	r1, [pc, #316]	; (1640 <main+0x11b4>)
    1502:	484c      	ldr	r0, [pc, #304]	; (1634 <main+0x11a8>)
    1504:	f003 f8fa 	bl	46fc <arm_biquad_cascade_df2T_f32>
    1508:	4b4b      	ldr	r3, [pc, #300]	; (1638 <main+0x11ac>)
    150a:	2200      	movs	r2, #0
    150c:	605a      	str	r2, [r3, #4]
    150e:	4b4a      	ldr	r3, [pc, #296]	; (1638 <main+0x11ac>)
    1510:	689b      	ldr	r3, [r3, #8]
    1512:	60bb      	str	r3, [r7, #8]
    1514:	68ba      	ldr	r2, [r7, #8]
    1516:	687b      	ldr	r3, [r7, #4]
    1518:	1ad3      	subs	r3, r2, r3
    151a:	4619      	mov	r1, r3
    151c:	4849      	ldr	r0, [pc, #292]	; (1644 <main+0x11b8>)
    151e:	f006 f9a9 	bl	7874 <printf>
    1522:	4849      	ldr	r0, [pc, #292]	; (1648 <main+0x11bc>)
    1524:	f006 f9a6 	bl	7874 <printf>
    1528:	4843      	ldr	r0, [pc, #268]	; (1638 <main+0x11ac>)
    152a:	f005 f821 	bl	6570 <Chip_TIMER_Reset>
    152e:	4b42      	ldr	r3, [pc, #264]	; (1638 <main+0x11ac>)
    1530:	2201      	movs	r2, #1
    1532:	605a      	str	r2, [r3, #4]
    1534:	f44f 6300 	mov.w	r3, #2048	; 0x800
    1538:	4a40      	ldr	r2, [pc, #256]	; (163c <main+0x11b0>)
    153a:	4941      	ldr	r1, [pc, #260]	; (1640 <main+0x11b4>)
    153c:	483d      	ldr	r0, [pc, #244]	; (1634 <main+0x11a8>)
    153e:	f003 f8dd 	bl	46fc <arm_biquad_cascade_df2T_f32>
    1542:	4b3d      	ldr	r3, [pc, #244]	; (1638 <main+0x11ac>)
    1544:	2200      	movs	r2, #0
    1546:	605a      	str	r2, [r3, #4]
    1548:	4b3b      	ldr	r3, [pc, #236]	; (1638 <main+0x11ac>)
    154a:	689b      	ldr	r3, [r3, #8]
    154c:	60bb      	str	r3, [r7, #8]
    154e:	68ba      	ldr	r2, [r7, #8]
    1550:	687b      	ldr	r3, [r7, #4]
    1552:	1ad3      	subs	r3, r2, r3
    1554:	4619      	mov	r1, r3
    1556:	483b      	ldr	r0, [pc, #236]	; (1644 <main+0x11b8>)
    1558:	f006 f98c 	bl	7874 <printf>
    155c:	483a      	ldr	r0, [pc, #232]	; (1648 <main+0x11bc>)
    155e:	f006 f989 	bl	7874 <printf>
    1562:	4835      	ldr	r0, [pc, #212]	; (1638 <main+0x11ac>)
    1564:	f005 f804 	bl	6570 <Chip_TIMER_Reset>
    1568:	4b33      	ldr	r3, [pc, #204]	; (1638 <main+0x11ac>)
    156a:	2201      	movs	r2, #1
    156c:	605a      	str	r2, [r3, #4]
    156e:	f44f 5380 	mov.w	r3, #4096	; 0x1000
    1572:	4a32      	ldr	r2, [pc, #200]	; (163c <main+0x11b0>)
    1574:	4932      	ldr	r1, [pc, #200]	; (1640 <main+0x11b4>)
    1576:	482f      	ldr	r0, [pc, #188]	; (1634 <main+0x11a8>)
    1578:	f003 f8c0 	bl	46fc <arm_biquad_cascade_df2T_f32>
    157c:	4b2e      	ldr	r3, [pc, #184]	; (1638 <main+0x11ac>)
    157e:	2200      	movs	r2, #0
    1580:	605a      	str	r2, [r3, #4]
    1582:	4b2d      	ldr	r3, [pc, #180]	; (1638 <main+0x11ac>)
    1584:	689b      	ldr	r3, [r3, #8]
    1586:	60bb      	str	r3, [r7, #8]
    1588:	68ba      	ldr	r2, [r7, #8]
    158a:	687b      	ldr	r3, [r7, #4]
    158c:	1ad3      	subs	r3, r2, r3
    158e:	4619      	mov	r1, r3
    1590:	482c      	ldr	r0, [pc, #176]	; (1644 <main+0x11b8>)
    1592:	f006 f96f 	bl	7874 <printf>
    1596:	482c      	ldr	r0, [pc, #176]	; (1648 <main+0x11bc>)
    1598:	f006 f96c 	bl	7874 <printf>
    159c:	482b      	ldr	r0, [pc, #172]	; (164c <main+0x11c0>)
    159e:	f006 f969 	bl	7874 <printf>
    15a2:	482b      	ldr	r0, [pc, #172]	; (1650 <main+0x11c4>)
    15a4:	f006 f966 	bl	7874 <printf>
    15a8:	f44f 6300 	mov.w	r3, #2048	; 0x800
    15ac:	9300      	str	r3, [sp, #0]
    15ae:	4b29      	ldr	r3, [pc, #164]	; (1654 <main+0x11c8>)
    15b0:	4a29      	ldr	r2, [pc, #164]	; (1658 <main+0x11cc>)
    15b2:	2108      	movs	r1, #8
    15b4:	4829      	ldr	r0, [pc, #164]	; (165c <main+0x11d0>)
    15b6:	f004 f82d 	bl	5614 <arm_fir_init_f32>
    15ba:	481f      	ldr	r0, [pc, #124]	; (1638 <main+0x11ac>)
    15bc:	f004 ffd8 	bl	6570 <Chip_TIMER_Reset>
    15c0:	4b1d      	ldr	r3, [pc, #116]	; (1638 <main+0x11ac>)
    15c2:	2201      	movs	r2, #1
    15c4:	605a      	str	r2, [r3, #4]
    15c6:	2310      	movs	r3, #16
    15c8:	4a1c      	ldr	r2, [pc, #112]	; (163c <main+0x11b0>)
    15ca:	491d      	ldr	r1, [pc, #116]	; (1640 <main+0x11b4>)
    15cc:	4823      	ldr	r0, [pc, #140]	; (165c <main+0x11d0>)
    15ce:	f003 f95f 	bl	4890 <arm_fir_f32>
    15d2:	4b19      	ldr	r3, [pc, #100]	; (1638 <main+0x11ac>)
    15d4:	2200      	movs	r2, #0
    15d6:	605a      	str	r2, [r3, #4]
    15d8:	4b17      	ldr	r3, [pc, #92]	; (1638 <main+0x11ac>)
    15da:	689b      	ldr	r3, [r3, #8]
    15dc:	60bb      	str	r3, [r7, #8]
    15de:	68ba      	ldr	r2, [r7, #8]
    15e0:	687b      	ldr	r3, [r7, #4]
    15e2:	1ad3      	subs	r3, r2, r3
    15e4:	4619      	mov	r1, r3
    15e6:	4817      	ldr	r0, [pc, #92]	; (1644 <main+0x11b8>)
    15e8:	f006 f944 	bl	7874 <printf>
    15ec:	4816      	ldr	r0, [pc, #88]	; (1648 <main+0x11bc>)
    15ee:	f006 f941 	bl	7874 <printf>
    15f2:	4811      	ldr	r0, [pc, #68]	; (1638 <main+0x11ac>)
    15f4:	f004 ffbc 	bl	6570 <Chip_TIMER_Reset>
    15f8:	4b0f      	ldr	r3, [pc, #60]	; (1638 <main+0x11ac>)
    15fa:	2201      	movs	r2, #1
    15fc:	605a      	str	r2, [r3, #4]
    15fe:	2320      	movs	r3, #32
    1600:	4a0e      	ldr	r2, [pc, #56]	; (163c <main+0x11b0>)
    1602:	490f      	ldr	r1, [pc, #60]	; (1640 <main+0x11b4>)
    1604:	4815      	ldr	r0, [pc, #84]	; (165c <main+0x11d0>)
    1606:	f003 f943 	bl	4890 <arm_fir_f32>
    160a:	4b0b      	ldr	r3, [pc, #44]	; (1638 <main+0x11ac>)
    160c:	2200      	movs	r2, #0
    160e:	605a      	str	r2, [r3, #4]
    1610:	4b09      	ldr	r3, [pc, #36]	; (1638 <main+0x11ac>)
    1612:	689b      	ldr	r3, [r3, #8]
    1614:	60bb      	str	r3, [r7, #8]
    1616:	68ba      	ldr	r2, [r7, #8]
    1618:	687b      	ldr	r3, [r7, #4]
    161a:	1ad3      	subs	r3, r2, r3
    161c:	4619      	mov	r1, r3
    161e:	4809      	ldr	r0, [pc, #36]	; (1644 <main+0x11b8>)
    1620:	f006 f928 	bl	7874 <printf>
    1624:	e01c      	b.n	1660 <main+0x11d4>
    1626:	bf00      	nop
    1628:	00009a8c 	.word	0x00009a8c
    162c:	200000f8 	.word	0x200000f8
    1630:	20000000 	.word	0x20000000
    1634:	2000a4b0 	.word	0x2000a4b0
    1638:	40008000 	.word	0x40008000
    163c:	200064b0 	.word	0x200064b0
    1640:	200023a4 	.word	0x200023a4
    1644:	00009a20 	.word	0x00009a20
    1648:	00009a24 	.word	0x00009a24
    164c:	00009a04 	.word	0x00009a04
    1650:	00009aa4 	.word	0x00009aa4
    1654:	200002f0 	.word	0x200002f0
    1658:	200063a4 	.word	0x200063a4
    165c:	20006424 	.word	0x20006424
    1660:	48a7      	ldr	r0, [pc, #668]	; (1900 <main+0x1474>)
    1662:	f006 f907 	bl	7874 <printf>
    1666:	48a7      	ldr	r0, [pc, #668]	; (1904 <main+0x1478>)
    1668:	f004 ff82 	bl	6570 <Chip_TIMER_Reset>
    166c:	4ba5      	ldr	r3, [pc, #660]	; (1904 <main+0x1478>)
    166e:	2201      	movs	r2, #1
    1670:	605a      	str	r2, [r3, #4]
    1672:	2340      	movs	r3, #64	; 0x40
    1674:	4aa4      	ldr	r2, [pc, #656]	; (1908 <main+0x147c>)
    1676:	49a5      	ldr	r1, [pc, #660]	; (190c <main+0x1480>)
    1678:	48a5      	ldr	r0, [pc, #660]	; (1910 <main+0x1484>)
    167a:	f003 f909 	bl	4890 <arm_fir_f32>
    167e:	4ba1      	ldr	r3, [pc, #644]	; (1904 <main+0x1478>)
    1680:	2200      	movs	r2, #0
    1682:	605a      	str	r2, [r3, #4]
    1684:	4b9f      	ldr	r3, [pc, #636]	; (1904 <main+0x1478>)
    1686:	689b      	ldr	r3, [r3, #8]
    1688:	60bb      	str	r3, [r7, #8]
    168a:	68ba      	ldr	r2, [r7, #8]
    168c:	687b      	ldr	r3, [r7, #4]
    168e:	1ad3      	subs	r3, r2, r3
    1690:	4619      	mov	r1, r3
    1692:	48a0      	ldr	r0, [pc, #640]	; (1914 <main+0x1488>)
    1694:	f006 f8ee 	bl	7874 <printf>
    1698:	4899      	ldr	r0, [pc, #612]	; (1900 <main+0x1474>)
    169a:	f006 f8eb 	bl	7874 <printf>
    169e:	4899      	ldr	r0, [pc, #612]	; (1904 <main+0x1478>)
    16a0:	f004 ff66 	bl	6570 <Chip_TIMER_Reset>
    16a4:	4b97      	ldr	r3, [pc, #604]	; (1904 <main+0x1478>)
    16a6:	2201      	movs	r2, #1
    16a8:	605a      	str	r2, [r3, #4]
    16aa:	2380      	movs	r3, #128	; 0x80
    16ac:	4a96      	ldr	r2, [pc, #600]	; (1908 <main+0x147c>)
    16ae:	4997      	ldr	r1, [pc, #604]	; (190c <main+0x1480>)
    16b0:	4897      	ldr	r0, [pc, #604]	; (1910 <main+0x1484>)
    16b2:	f003 f8ed 	bl	4890 <arm_fir_f32>
    16b6:	4b93      	ldr	r3, [pc, #588]	; (1904 <main+0x1478>)
    16b8:	2200      	movs	r2, #0
    16ba:	605a      	str	r2, [r3, #4]
    16bc:	4b91      	ldr	r3, [pc, #580]	; (1904 <main+0x1478>)
    16be:	689b      	ldr	r3, [r3, #8]
    16c0:	60bb      	str	r3, [r7, #8]
    16c2:	68ba      	ldr	r2, [r7, #8]
    16c4:	687b      	ldr	r3, [r7, #4]
    16c6:	1ad3      	subs	r3, r2, r3
    16c8:	4619      	mov	r1, r3
    16ca:	4892      	ldr	r0, [pc, #584]	; (1914 <main+0x1488>)
    16cc:	f006 f8d2 	bl	7874 <printf>
    16d0:	488b      	ldr	r0, [pc, #556]	; (1900 <main+0x1474>)
    16d2:	f006 f8cf 	bl	7874 <printf>
    16d6:	488b      	ldr	r0, [pc, #556]	; (1904 <main+0x1478>)
    16d8:	f004 ff4a 	bl	6570 <Chip_TIMER_Reset>
    16dc:	4b89      	ldr	r3, [pc, #548]	; (1904 <main+0x1478>)
    16de:	2201      	movs	r2, #1
    16e0:	605a      	str	r2, [r3, #4]
    16e2:	f44f 7380 	mov.w	r3, #256	; 0x100
    16e6:	4a88      	ldr	r2, [pc, #544]	; (1908 <main+0x147c>)
    16e8:	4988      	ldr	r1, [pc, #544]	; (190c <main+0x1480>)
    16ea:	4889      	ldr	r0, [pc, #548]	; (1910 <main+0x1484>)
    16ec:	f003 f8d0 	bl	4890 <arm_fir_f32>
    16f0:	4b84      	ldr	r3, [pc, #528]	; (1904 <main+0x1478>)
    16f2:	2200      	movs	r2, #0
    16f4:	605a      	str	r2, [r3, #4]
    16f6:	4b83      	ldr	r3, [pc, #524]	; (1904 <main+0x1478>)
    16f8:	689b      	ldr	r3, [r3, #8]
    16fa:	60bb      	str	r3, [r7, #8]
    16fc:	68ba      	ldr	r2, [r7, #8]
    16fe:	687b      	ldr	r3, [r7, #4]
    1700:	1ad3      	subs	r3, r2, r3
    1702:	4619      	mov	r1, r3
    1704:	4883      	ldr	r0, [pc, #524]	; (1914 <main+0x1488>)
    1706:	f006 f8b5 	bl	7874 <printf>
    170a:	487d      	ldr	r0, [pc, #500]	; (1900 <main+0x1474>)
    170c:	f006 f8b2 	bl	7874 <printf>
    1710:	487c      	ldr	r0, [pc, #496]	; (1904 <main+0x1478>)
    1712:	f004 ff2d 	bl	6570 <Chip_TIMER_Reset>
    1716:	4b7b      	ldr	r3, [pc, #492]	; (1904 <main+0x1478>)
    1718:	2201      	movs	r2, #1
    171a:	605a      	str	r2, [r3, #4]
    171c:	f44f 7300 	mov.w	r3, #512	; 0x200
    1720:	4a79      	ldr	r2, [pc, #484]	; (1908 <main+0x147c>)
    1722:	497a      	ldr	r1, [pc, #488]	; (190c <main+0x1480>)
    1724:	487a      	ldr	r0, [pc, #488]	; (1910 <main+0x1484>)
    1726:	f003 f8b3 	bl	4890 <arm_fir_f32>
    172a:	4b76      	ldr	r3, [pc, #472]	; (1904 <main+0x1478>)
    172c:	2200      	movs	r2, #0
    172e:	605a      	str	r2, [r3, #4]
    1730:	4b74      	ldr	r3, [pc, #464]	; (1904 <main+0x1478>)
    1732:	689b      	ldr	r3, [r3, #8]
    1734:	60bb      	str	r3, [r7, #8]
    1736:	68ba      	ldr	r2, [r7, #8]
    1738:	687b      	ldr	r3, [r7, #4]
    173a:	1ad3      	subs	r3, r2, r3
    173c:	4619      	mov	r1, r3
    173e:	4875      	ldr	r0, [pc, #468]	; (1914 <main+0x1488>)
    1740:	f006 f898 	bl	7874 <printf>
    1744:	486e      	ldr	r0, [pc, #440]	; (1900 <main+0x1474>)
    1746:	f006 f895 	bl	7874 <printf>
    174a:	486e      	ldr	r0, [pc, #440]	; (1904 <main+0x1478>)
    174c:	f004 ff10 	bl	6570 <Chip_TIMER_Reset>
    1750:	4b6c      	ldr	r3, [pc, #432]	; (1904 <main+0x1478>)
    1752:	2201      	movs	r2, #1
    1754:	605a      	str	r2, [r3, #4]
    1756:	f44f 6380 	mov.w	r3, #1024	; 0x400
    175a:	4a6b      	ldr	r2, [pc, #428]	; (1908 <main+0x147c>)
    175c:	496b      	ldr	r1, [pc, #428]	; (190c <main+0x1480>)
    175e:	486c      	ldr	r0, [pc, #432]	; (1910 <main+0x1484>)
    1760:	f003 f896 	bl	4890 <arm_fir_f32>
    1764:	4b67      	ldr	r3, [pc, #412]	; (1904 <main+0x1478>)
    1766:	2200      	movs	r2, #0
    1768:	605a      	str	r2, [r3, #4]
    176a:	4b66      	ldr	r3, [pc, #408]	; (1904 <main+0x1478>)
    176c:	689b      	ldr	r3, [r3, #8]
    176e:	60bb      	str	r3, [r7, #8]
    1770:	68ba      	ldr	r2, [r7, #8]
    1772:	687b      	ldr	r3, [r7, #4]
    1774:	1ad3      	subs	r3, r2, r3
    1776:	4619      	mov	r1, r3
    1778:	4866      	ldr	r0, [pc, #408]	; (1914 <main+0x1488>)
    177a:	f006 f87b 	bl	7874 <printf>
    177e:	4860      	ldr	r0, [pc, #384]	; (1900 <main+0x1474>)
    1780:	f006 f878 	bl	7874 <printf>
    1784:	485f      	ldr	r0, [pc, #380]	; (1904 <main+0x1478>)
    1786:	f004 fef3 	bl	6570 <Chip_TIMER_Reset>
    178a:	4b5e      	ldr	r3, [pc, #376]	; (1904 <main+0x1478>)
    178c:	2201      	movs	r2, #1
    178e:	605a      	str	r2, [r3, #4]
    1790:	f44f 6300 	mov.w	r3, #2048	; 0x800
    1794:	4a5c      	ldr	r2, [pc, #368]	; (1908 <main+0x147c>)
    1796:	495d      	ldr	r1, [pc, #372]	; (190c <main+0x1480>)
    1798:	485d      	ldr	r0, [pc, #372]	; (1910 <main+0x1484>)
    179a:	f003 f879 	bl	4890 <arm_fir_f32>
    179e:	4b59      	ldr	r3, [pc, #356]	; (1904 <main+0x1478>)
    17a0:	2200      	movs	r2, #0
    17a2:	605a      	str	r2, [r3, #4]
    17a4:	4b57      	ldr	r3, [pc, #348]	; (1904 <main+0x1478>)
    17a6:	689b      	ldr	r3, [r3, #8]
    17a8:	60bb      	str	r3, [r7, #8]
    17aa:	68ba      	ldr	r2, [r7, #8]
    17ac:	687b      	ldr	r3, [r7, #4]
    17ae:	1ad3      	subs	r3, r2, r3
    17b0:	4619      	mov	r1, r3
    17b2:	4858      	ldr	r0, [pc, #352]	; (1914 <main+0x1488>)
    17b4:	f006 f85e 	bl	7874 <printf>
    17b8:	4851      	ldr	r0, [pc, #324]	; (1900 <main+0x1474>)
    17ba:	f006 f85b 	bl	7874 <printf>
    17be:	4856      	ldr	r0, [pc, #344]	; (1918 <main+0x148c>)
    17c0:	f006 f858 	bl	7874 <printf>
    17c4:	4855      	ldr	r0, [pc, #340]	; (191c <main+0x1490>)
    17c6:	f006 f855 	bl	7874 <printf>
    17ca:	4855      	ldr	r0, [pc, #340]	; (1920 <main+0x1494>)
    17cc:	f006 f852 	bl	7874 <printf>
    17d0:	f44f 6300 	mov.w	r3, #2048	; 0x800
    17d4:	9300      	str	r3, [sp, #0]
    17d6:	4b53      	ldr	r3, [pc, #332]	; (1924 <main+0x1498>)
    17d8:	4a53      	ldr	r2, [pc, #332]	; (1928 <main+0x149c>)
    17da:	2110      	movs	r1, #16
    17dc:	484c      	ldr	r0, [pc, #304]	; (1910 <main+0x1484>)
    17de:	f003 ff19 	bl	5614 <arm_fir_init_f32>
    17e2:	4848      	ldr	r0, [pc, #288]	; (1904 <main+0x1478>)
    17e4:	f004 fec4 	bl	6570 <Chip_TIMER_Reset>
    17e8:	4b46      	ldr	r3, [pc, #280]	; (1904 <main+0x1478>)
    17ea:	2201      	movs	r2, #1
    17ec:	605a      	str	r2, [r3, #4]
    17ee:	2310      	movs	r3, #16
    17f0:	4a45      	ldr	r2, [pc, #276]	; (1908 <main+0x147c>)
    17f2:	4946      	ldr	r1, [pc, #280]	; (190c <main+0x1480>)
    17f4:	4846      	ldr	r0, [pc, #280]	; (1910 <main+0x1484>)
    17f6:	f003 f84b 	bl	4890 <arm_fir_f32>
    17fa:	4b42      	ldr	r3, [pc, #264]	; (1904 <main+0x1478>)
    17fc:	2200      	movs	r2, #0
    17fe:	605a      	str	r2, [r3, #4]
    1800:	4b40      	ldr	r3, [pc, #256]	; (1904 <main+0x1478>)
    1802:	689b      	ldr	r3, [r3, #8]
    1804:	60bb      	str	r3, [r7, #8]
    1806:	68ba      	ldr	r2, [r7, #8]
    1808:	687b      	ldr	r3, [r7, #4]
    180a:	1ad3      	subs	r3, r2, r3
    180c:	4619      	mov	r1, r3
    180e:	4841      	ldr	r0, [pc, #260]	; (1914 <main+0x1488>)
    1810:	f006 f830 	bl	7874 <printf>
    1814:	483a      	ldr	r0, [pc, #232]	; (1900 <main+0x1474>)
    1816:	f006 f82d 	bl	7874 <printf>
    181a:	483a      	ldr	r0, [pc, #232]	; (1904 <main+0x1478>)
    181c:	f004 fea8 	bl	6570 <Chip_TIMER_Reset>
    1820:	4b38      	ldr	r3, [pc, #224]	; (1904 <main+0x1478>)
    1822:	2201      	movs	r2, #1
    1824:	605a      	str	r2, [r3, #4]
    1826:	2320      	movs	r3, #32
    1828:	4a37      	ldr	r2, [pc, #220]	; (1908 <main+0x147c>)
    182a:	4938      	ldr	r1, [pc, #224]	; (190c <main+0x1480>)
    182c:	4838      	ldr	r0, [pc, #224]	; (1910 <main+0x1484>)
    182e:	f003 f82f 	bl	4890 <arm_fir_f32>
    1832:	4b34      	ldr	r3, [pc, #208]	; (1904 <main+0x1478>)
    1834:	2200      	movs	r2, #0
    1836:	605a      	str	r2, [r3, #4]
    1838:	4b32      	ldr	r3, [pc, #200]	; (1904 <main+0x1478>)
    183a:	689b      	ldr	r3, [r3, #8]
    183c:	60bb      	str	r3, [r7, #8]
    183e:	68ba      	ldr	r2, [r7, #8]
    1840:	687b      	ldr	r3, [r7, #4]
    1842:	1ad3      	subs	r3, r2, r3
    1844:	4619      	mov	r1, r3
    1846:	4833      	ldr	r0, [pc, #204]	; (1914 <main+0x1488>)
    1848:	f006 f814 	bl	7874 <printf>
    184c:	482c      	ldr	r0, [pc, #176]	; (1900 <main+0x1474>)
    184e:	f006 f811 	bl	7874 <printf>
    1852:	482c      	ldr	r0, [pc, #176]	; (1904 <main+0x1478>)
    1854:	f004 fe8c 	bl	6570 <Chip_TIMER_Reset>
    1858:	4b2a      	ldr	r3, [pc, #168]	; (1904 <main+0x1478>)
    185a:	2201      	movs	r2, #1
    185c:	605a      	str	r2, [r3, #4]
    185e:	2340      	movs	r3, #64	; 0x40
    1860:	4a29      	ldr	r2, [pc, #164]	; (1908 <main+0x147c>)
    1862:	492a      	ldr	r1, [pc, #168]	; (190c <main+0x1480>)
    1864:	482a      	ldr	r0, [pc, #168]	; (1910 <main+0x1484>)
    1866:	f003 f813 	bl	4890 <arm_fir_f32>
    186a:	4b26      	ldr	r3, [pc, #152]	; (1904 <main+0x1478>)
    186c:	2200      	movs	r2, #0
    186e:	605a      	str	r2, [r3, #4]
    1870:	4b24      	ldr	r3, [pc, #144]	; (1904 <main+0x1478>)
    1872:	689b      	ldr	r3, [r3, #8]
    1874:	60bb      	str	r3, [r7, #8]
    1876:	68ba      	ldr	r2, [r7, #8]
    1878:	687b      	ldr	r3, [r7, #4]
    187a:	1ad3      	subs	r3, r2, r3
    187c:	4619      	mov	r1, r3
    187e:	4825      	ldr	r0, [pc, #148]	; (1914 <main+0x1488>)
    1880:	f005 fff8 	bl	7874 <printf>
    1884:	481e      	ldr	r0, [pc, #120]	; (1900 <main+0x1474>)
    1886:	f005 fff5 	bl	7874 <printf>
    188a:	481e      	ldr	r0, [pc, #120]	; (1904 <main+0x1478>)
    188c:	f004 fe70 	bl	6570 <Chip_TIMER_Reset>
    1890:	4b1c      	ldr	r3, [pc, #112]	; (1904 <main+0x1478>)
    1892:	2201      	movs	r2, #1
    1894:	605a      	str	r2, [r3, #4]
    1896:	2380      	movs	r3, #128	; 0x80
    1898:	4a1b      	ldr	r2, [pc, #108]	; (1908 <main+0x147c>)
    189a:	491c      	ldr	r1, [pc, #112]	; (190c <main+0x1480>)
    189c:	481c      	ldr	r0, [pc, #112]	; (1910 <main+0x1484>)
    189e:	f002 fff7 	bl	4890 <arm_fir_f32>
    18a2:	4b18      	ldr	r3, [pc, #96]	; (1904 <main+0x1478>)
    18a4:	2200      	movs	r2, #0
    18a6:	605a      	str	r2, [r3, #4]
    18a8:	4b16      	ldr	r3, [pc, #88]	; (1904 <main+0x1478>)
    18aa:	689b      	ldr	r3, [r3, #8]
    18ac:	60bb      	str	r3, [r7, #8]
    18ae:	68ba      	ldr	r2, [r7, #8]
    18b0:	687b      	ldr	r3, [r7, #4]
    18b2:	1ad3      	subs	r3, r2, r3
    18b4:	4619      	mov	r1, r3
    18b6:	4817      	ldr	r0, [pc, #92]	; (1914 <main+0x1488>)
    18b8:	f005 ffdc 	bl	7874 <printf>
    18bc:	4810      	ldr	r0, [pc, #64]	; (1900 <main+0x1474>)
    18be:	f005 ffd9 	bl	7874 <printf>
    18c2:	4810      	ldr	r0, [pc, #64]	; (1904 <main+0x1478>)
    18c4:	f004 fe54 	bl	6570 <Chip_TIMER_Reset>
    18c8:	4b0e      	ldr	r3, [pc, #56]	; (1904 <main+0x1478>)
    18ca:	2201      	movs	r2, #1
    18cc:	605a      	str	r2, [r3, #4]
    18ce:	f44f 7380 	mov.w	r3, #256	; 0x100
    18d2:	4a0d      	ldr	r2, [pc, #52]	; (1908 <main+0x147c>)
    18d4:	490d      	ldr	r1, [pc, #52]	; (190c <main+0x1480>)
    18d6:	480e      	ldr	r0, [pc, #56]	; (1910 <main+0x1484>)
    18d8:	f002 ffda 	bl	4890 <arm_fir_f32>
    18dc:	4b09      	ldr	r3, [pc, #36]	; (1904 <main+0x1478>)
    18de:	2200      	movs	r2, #0
    18e0:	605a      	str	r2, [r3, #4]
    18e2:	4b08      	ldr	r3, [pc, #32]	; (1904 <main+0x1478>)
    18e4:	689b      	ldr	r3, [r3, #8]
    18e6:	60bb      	str	r3, [r7, #8]
    18e8:	68ba      	ldr	r2, [r7, #8]
    18ea:	687b      	ldr	r3, [r7, #4]
    18ec:	1ad3      	subs	r3, r2, r3
    18ee:	4619      	mov	r1, r3
    18f0:	4808      	ldr	r0, [pc, #32]	; (1914 <main+0x1488>)
    18f2:	f005 ffbf 	bl	7874 <printf>
    18f6:	4802      	ldr	r0, [pc, #8]	; (1900 <main+0x1474>)
    18f8:	f005 ffbc 	bl	7874 <printf>
    18fc:	e016      	b.n	192c <main+0x14a0>
    18fe:	bf00      	nop
    1900:	00009a24 	.word	0x00009a24
    1904:	40008000 	.word	0x40008000
    1908:	200064b0 	.word	0x200064b0
    190c:	200023a4 	.word	0x200023a4
    1910:	20006424 	.word	0x20006424
    1914:	00009a20 	.word	0x00009a20
    1918:	00009ab4 	.word	0x00009ab4
    191c:	00009a04 	.word	0x00009a04
    1920:	00009ab8 	.word	0x00009ab8
    1924:	200002f0 	.word	0x200002f0
    1928:	200063a4 	.word	0x200063a4
    192c:	48a6      	ldr	r0, [pc, #664]	; (1bc8 <main+0x173c>)
    192e:	f004 fe1f 	bl	6570 <Chip_TIMER_Reset>
    1932:	4ba5      	ldr	r3, [pc, #660]	; (1bc8 <main+0x173c>)
    1934:	2201      	movs	r2, #1
    1936:	605a      	str	r2, [r3, #4]
    1938:	f44f 7300 	mov.w	r3, #512	; 0x200
    193c:	4aa3      	ldr	r2, [pc, #652]	; (1bcc <main+0x1740>)
    193e:	49a4      	ldr	r1, [pc, #656]	; (1bd0 <main+0x1744>)
    1940:	48a4      	ldr	r0, [pc, #656]	; (1bd4 <main+0x1748>)
    1942:	f002 ffa5 	bl	4890 <arm_fir_f32>
    1946:	4ba0      	ldr	r3, [pc, #640]	; (1bc8 <main+0x173c>)
    1948:	2200      	movs	r2, #0
    194a:	605a      	str	r2, [r3, #4]
    194c:	4b9e      	ldr	r3, [pc, #632]	; (1bc8 <main+0x173c>)
    194e:	689b      	ldr	r3, [r3, #8]
    1950:	60bb      	str	r3, [r7, #8]
    1952:	68ba      	ldr	r2, [r7, #8]
    1954:	687b      	ldr	r3, [r7, #4]
    1956:	1ad3      	subs	r3, r2, r3
    1958:	4619      	mov	r1, r3
    195a:	489f      	ldr	r0, [pc, #636]	; (1bd8 <main+0x174c>)
    195c:	f005 ff8a 	bl	7874 <printf>
    1960:	489e      	ldr	r0, [pc, #632]	; (1bdc <main+0x1750>)
    1962:	f005 ff87 	bl	7874 <printf>
    1966:	4898      	ldr	r0, [pc, #608]	; (1bc8 <main+0x173c>)
    1968:	f004 fe02 	bl	6570 <Chip_TIMER_Reset>
    196c:	4b96      	ldr	r3, [pc, #600]	; (1bc8 <main+0x173c>)
    196e:	2201      	movs	r2, #1
    1970:	605a      	str	r2, [r3, #4]
    1972:	f44f 6380 	mov.w	r3, #1024	; 0x400
    1976:	4a95      	ldr	r2, [pc, #596]	; (1bcc <main+0x1740>)
    1978:	4995      	ldr	r1, [pc, #596]	; (1bd0 <main+0x1744>)
    197a:	4896      	ldr	r0, [pc, #600]	; (1bd4 <main+0x1748>)
    197c:	f002 ff88 	bl	4890 <arm_fir_f32>
    1980:	4b91      	ldr	r3, [pc, #580]	; (1bc8 <main+0x173c>)
    1982:	2200      	movs	r2, #0
    1984:	605a      	str	r2, [r3, #4]
    1986:	4b90      	ldr	r3, [pc, #576]	; (1bc8 <main+0x173c>)
    1988:	689b      	ldr	r3, [r3, #8]
    198a:	60bb      	str	r3, [r7, #8]
    198c:	68ba      	ldr	r2, [r7, #8]
    198e:	687b      	ldr	r3, [r7, #4]
    1990:	1ad3      	subs	r3, r2, r3
    1992:	4619      	mov	r1, r3
    1994:	4890      	ldr	r0, [pc, #576]	; (1bd8 <main+0x174c>)
    1996:	f005 ff6d 	bl	7874 <printf>
    199a:	4890      	ldr	r0, [pc, #576]	; (1bdc <main+0x1750>)
    199c:	f005 ff6a 	bl	7874 <printf>
    19a0:	4889      	ldr	r0, [pc, #548]	; (1bc8 <main+0x173c>)
    19a2:	f004 fde5 	bl	6570 <Chip_TIMER_Reset>
    19a6:	4b88      	ldr	r3, [pc, #544]	; (1bc8 <main+0x173c>)
    19a8:	2201      	movs	r2, #1
    19aa:	605a      	str	r2, [r3, #4]
    19ac:	f44f 6300 	mov.w	r3, #2048	; 0x800
    19b0:	4a86      	ldr	r2, [pc, #536]	; (1bcc <main+0x1740>)
    19b2:	4987      	ldr	r1, [pc, #540]	; (1bd0 <main+0x1744>)
    19b4:	4887      	ldr	r0, [pc, #540]	; (1bd4 <main+0x1748>)
    19b6:	f002 ff6b 	bl	4890 <arm_fir_f32>
    19ba:	4b83      	ldr	r3, [pc, #524]	; (1bc8 <main+0x173c>)
    19bc:	2200      	movs	r2, #0
    19be:	605a      	str	r2, [r3, #4]
    19c0:	4b81      	ldr	r3, [pc, #516]	; (1bc8 <main+0x173c>)
    19c2:	689b      	ldr	r3, [r3, #8]
    19c4:	60bb      	str	r3, [r7, #8]
    19c6:	68ba      	ldr	r2, [r7, #8]
    19c8:	687b      	ldr	r3, [r7, #4]
    19ca:	1ad3      	subs	r3, r2, r3
    19cc:	4619      	mov	r1, r3
    19ce:	4882      	ldr	r0, [pc, #520]	; (1bd8 <main+0x174c>)
    19d0:	f005 ff50 	bl	7874 <printf>
    19d4:	4881      	ldr	r0, [pc, #516]	; (1bdc <main+0x1750>)
    19d6:	f005 ff4d 	bl	7874 <printf>
    19da:	4881      	ldr	r0, [pc, #516]	; (1be0 <main+0x1754>)
    19dc:	f005 ff4a 	bl	7874 <printf>
    19e0:	4880      	ldr	r0, [pc, #512]	; (1be4 <main+0x1758>)
    19e2:	f005 ff47 	bl	7874 <printf>
    19e6:	4880      	ldr	r0, [pc, #512]	; (1be8 <main+0x175c>)
    19e8:	f005 ff44 	bl	7874 <printf>
    19ec:	f44f 6300 	mov.w	r3, #2048	; 0x800
    19f0:	9300      	str	r3, [sp, #0]
    19f2:	4b7e      	ldr	r3, [pc, #504]	; (1bec <main+0x1760>)
    19f4:	4a7e      	ldr	r2, [pc, #504]	; (1bf0 <main+0x1764>)
    19f6:	2120      	movs	r1, #32
    19f8:	4876      	ldr	r0, [pc, #472]	; (1bd4 <main+0x1748>)
    19fa:	f003 fe0b 	bl	5614 <arm_fir_init_f32>
    19fe:	4872      	ldr	r0, [pc, #456]	; (1bc8 <main+0x173c>)
    1a00:	f004 fdb6 	bl	6570 <Chip_TIMER_Reset>
    1a04:	4b70      	ldr	r3, [pc, #448]	; (1bc8 <main+0x173c>)
    1a06:	2201      	movs	r2, #1
    1a08:	605a      	str	r2, [r3, #4]
    1a0a:	2310      	movs	r3, #16
    1a0c:	4a6f      	ldr	r2, [pc, #444]	; (1bcc <main+0x1740>)
    1a0e:	4970      	ldr	r1, [pc, #448]	; (1bd0 <main+0x1744>)
    1a10:	4870      	ldr	r0, [pc, #448]	; (1bd4 <main+0x1748>)
    1a12:	f002 ff3d 	bl	4890 <arm_fir_f32>
    1a16:	4b6c      	ldr	r3, [pc, #432]	; (1bc8 <main+0x173c>)
    1a18:	2200      	movs	r2, #0
    1a1a:	605a      	str	r2, [r3, #4]
    1a1c:	4b6a      	ldr	r3, [pc, #424]	; (1bc8 <main+0x173c>)
    1a1e:	689b      	ldr	r3, [r3, #8]
    1a20:	60bb      	str	r3, [r7, #8]
    1a22:	68ba      	ldr	r2, [r7, #8]
    1a24:	687b      	ldr	r3, [r7, #4]
    1a26:	1ad3      	subs	r3, r2, r3
    1a28:	4619      	mov	r1, r3
    1a2a:	486b      	ldr	r0, [pc, #428]	; (1bd8 <main+0x174c>)
    1a2c:	f005 ff22 	bl	7874 <printf>
    1a30:	486a      	ldr	r0, [pc, #424]	; (1bdc <main+0x1750>)
    1a32:	f005 ff1f 	bl	7874 <printf>
    1a36:	4864      	ldr	r0, [pc, #400]	; (1bc8 <main+0x173c>)
    1a38:	f004 fd9a 	bl	6570 <Chip_TIMER_Reset>
    1a3c:	4b62      	ldr	r3, [pc, #392]	; (1bc8 <main+0x173c>)
    1a3e:	2201      	movs	r2, #1
    1a40:	605a      	str	r2, [r3, #4]
    1a42:	2320      	movs	r3, #32
    1a44:	4a61      	ldr	r2, [pc, #388]	; (1bcc <main+0x1740>)
    1a46:	4962      	ldr	r1, [pc, #392]	; (1bd0 <main+0x1744>)
    1a48:	4862      	ldr	r0, [pc, #392]	; (1bd4 <main+0x1748>)
    1a4a:	f002 ff21 	bl	4890 <arm_fir_f32>
    1a4e:	4b5e      	ldr	r3, [pc, #376]	; (1bc8 <main+0x173c>)
    1a50:	2200      	movs	r2, #0
    1a52:	605a      	str	r2, [r3, #4]
    1a54:	4b5c      	ldr	r3, [pc, #368]	; (1bc8 <main+0x173c>)
    1a56:	689b      	ldr	r3, [r3, #8]
    1a58:	60bb      	str	r3, [r7, #8]
    1a5a:	68ba      	ldr	r2, [r7, #8]
    1a5c:	687b      	ldr	r3, [r7, #4]
    1a5e:	1ad3      	subs	r3, r2, r3
    1a60:	4619      	mov	r1, r3
    1a62:	485d      	ldr	r0, [pc, #372]	; (1bd8 <main+0x174c>)
    1a64:	f005 ff06 	bl	7874 <printf>
    1a68:	485c      	ldr	r0, [pc, #368]	; (1bdc <main+0x1750>)
    1a6a:	f005 ff03 	bl	7874 <printf>
    1a6e:	4856      	ldr	r0, [pc, #344]	; (1bc8 <main+0x173c>)
    1a70:	f004 fd7e 	bl	6570 <Chip_TIMER_Reset>
    1a74:	4b54      	ldr	r3, [pc, #336]	; (1bc8 <main+0x173c>)
    1a76:	2201      	movs	r2, #1
    1a78:	605a      	str	r2, [r3, #4]
    1a7a:	2340      	movs	r3, #64	; 0x40
    1a7c:	4a53      	ldr	r2, [pc, #332]	; (1bcc <main+0x1740>)
    1a7e:	4954      	ldr	r1, [pc, #336]	; (1bd0 <main+0x1744>)
    1a80:	4854      	ldr	r0, [pc, #336]	; (1bd4 <main+0x1748>)
    1a82:	f002 ff05 	bl	4890 <arm_fir_f32>
    1a86:	4b50      	ldr	r3, [pc, #320]	; (1bc8 <main+0x173c>)
    1a88:	2200      	movs	r2, #0
    1a8a:	605a      	str	r2, [r3, #4]
    1a8c:	4b4e      	ldr	r3, [pc, #312]	; (1bc8 <main+0x173c>)
    1a8e:	689b      	ldr	r3, [r3, #8]
    1a90:	60bb      	str	r3, [r7, #8]
    1a92:	68ba      	ldr	r2, [r7, #8]
    1a94:	687b      	ldr	r3, [r7, #4]
    1a96:	1ad3      	subs	r3, r2, r3
    1a98:	4619      	mov	r1, r3
    1a9a:	484f      	ldr	r0, [pc, #316]	; (1bd8 <main+0x174c>)
    1a9c:	f005 feea 	bl	7874 <printf>
    1aa0:	484e      	ldr	r0, [pc, #312]	; (1bdc <main+0x1750>)
    1aa2:	f005 fee7 	bl	7874 <printf>
    1aa6:	4848      	ldr	r0, [pc, #288]	; (1bc8 <main+0x173c>)
    1aa8:	f004 fd62 	bl	6570 <Chip_TIMER_Reset>
    1aac:	4b46      	ldr	r3, [pc, #280]	; (1bc8 <main+0x173c>)
    1aae:	2201      	movs	r2, #1
    1ab0:	605a      	str	r2, [r3, #4]
    1ab2:	2380      	movs	r3, #128	; 0x80
    1ab4:	4a45      	ldr	r2, [pc, #276]	; (1bcc <main+0x1740>)
    1ab6:	4946      	ldr	r1, [pc, #280]	; (1bd0 <main+0x1744>)
    1ab8:	4846      	ldr	r0, [pc, #280]	; (1bd4 <main+0x1748>)
    1aba:	f002 fee9 	bl	4890 <arm_fir_f32>
    1abe:	4b42      	ldr	r3, [pc, #264]	; (1bc8 <main+0x173c>)
    1ac0:	2200      	movs	r2, #0
    1ac2:	605a      	str	r2, [r3, #4]
    1ac4:	4b40      	ldr	r3, [pc, #256]	; (1bc8 <main+0x173c>)
    1ac6:	689b      	ldr	r3, [r3, #8]
    1ac8:	60bb      	str	r3, [r7, #8]
    1aca:	68ba      	ldr	r2, [r7, #8]
    1acc:	687b      	ldr	r3, [r7, #4]
    1ace:	1ad3      	subs	r3, r2, r3
    1ad0:	4619      	mov	r1, r3
    1ad2:	4841      	ldr	r0, [pc, #260]	; (1bd8 <main+0x174c>)
    1ad4:	f005 fece 	bl	7874 <printf>
    1ad8:	4840      	ldr	r0, [pc, #256]	; (1bdc <main+0x1750>)
    1ada:	f005 fecb 	bl	7874 <printf>
    1ade:	483a      	ldr	r0, [pc, #232]	; (1bc8 <main+0x173c>)
    1ae0:	f004 fd46 	bl	6570 <Chip_TIMER_Reset>
    1ae4:	4b38      	ldr	r3, [pc, #224]	; (1bc8 <main+0x173c>)
    1ae6:	2201      	movs	r2, #1
    1ae8:	605a      	str	r2, [r3, #4]
    1aea:	f44f 7380 	mov.w	r3, #256	; 0x100
    1aee:	4a37      	ldr	r2, [pc, #220]	; (1bcc <main+0x1740>)
    1af0:	4937      	ldr	r1, [pc, #220]	; (1bd0 <main+0x1744>)
    1af2:	4838      	ldr	r0, [pc, #224]	; (1bd4 <main+0x1748>)
    1af4:	f002 fecc 	bl	4890 <arm_fir_f32>
    1af8:	4b33      	ldr	r3, [pc, #204]	; (1bc8 <main+0x173c>)
    1afa:	2200      	movs	r2, #0
    1afc:	605a      	str	r2, [r3, #4]
    1afe:	4b32      	ldr	r3, [pc, #200]	; (1bc8 <main+0x173c>)
    1b00:	689b      	ldr	r3, [r3, #8]
    1b02:	60bb      	str	r3, [r7, #8]
    1b04:	68ba      	ldr	r2, [r7, #8]
    1b06:	687b      	ldr	r3, [r7, #4]
    1b08:	1ad3      	subs	r3, r2, r3
    1b0a:	4619      	mov	r1, r3
    1b0c:	4832      	ldr	r0, [pc, #200]	; (1bd8 <main+0x174c>)
    1b0e:	f005 feb1 	bl	7874 <printf>
    1b12:	4832      	ldr	r0, [pc, #200]	; (1bdc <main+0x1750>)
    1b14:	f005 feae 	bl	7874 <printf>
    1b18:	482b      	ldr	r0, [pc, #172]	; (1bc8 <main+0x173c>)
    1b1a:	f004 fd29 	bl	6570 <Chip_TIMER_Reset>
    1b1e:	4b2a      	ldr	r3, [pc, #168]	; (1bc8 <main+0x173c>)
    1b20:	2201      	movs	r2, #1
    1b22:	605a      	str	r2, [r3, #4]
    1b24:	f44f 7300 	mov.w	r3, #512	; 0x200
    1b28:	4a28      	ldr	r2, [pc, #160]	; (1bcc <main+0x1740>)
    1b2a:	4929      	ldr	r1, [pc, #164]	; (1bd0 <main+0x1744>)
    1b2c:	4829      	ldr	r0, [pc, #164]	; (1bd4 <main+0x1748>)
    1b2e:	f002 feaf 	bl	4890 <arm_fir_f32>
    1b32:	4b25      	ldr	r3, [pc, #148]	; (1bc8 <main+0x173c>)
    1b34:	2200      	movs	r2, #0
    1b36:	605a      	str	r2, [r3, #4]
    1b38:	4b23      	ldr	r3, [pc, #140]	; (1bc8 <main+0x173c>)
    1b3a:	689b      	ldr	r3, [r3, #8]
    1b3c:	60bb      	str	r3, [r7, #8]
    1b3e:	68ba      	ldr	r2, [r7, #8]
    1b40:	687b      	ldr	r3, [r7, #4]
    1b42:	1ad3      	subs	r3, r2, r3
    1b44:	4619      	mov	r1, r3
    1b46:	4824      	ldr	r0, [pc, #144]	; (1bd8 <main+0x174c>)
    1b48:	f005 fe94 	bl	7874 <printf>
    1b4c:	4823      	ldr	r0, [pc, #140]	; (1bdc <main+0x1750>)
    1b4e:	f005 fe91 	bl	7874 <printf>
    1b52:	481d      	ldr	r0, [pc, #116]	; (1bc8 <main+0x173c>)
    1b54:	f004 fd0c 	bl	6570 <Chip_TIMER_Reset>
    1b58:	4b1b      	ldr	r3, [pc, #108]	; (1bc8 <main+0x173c>)
    1b5a:	2201      	movs	r2, #1
    1b5c:	605a      	str	r2, [r3, #4]
    1b5e:	f44f 6380 	mov.w	r3, #1024	; 0x400
    1b62:	4a1a      	ldr	r2, [pc, #104]	; (1bcc <main+0x1740>)
    1b64:	491a      	ldr	r1, [pc, #104]	; (1bd0 <main+0x1744>)
    1b66:	481b      	ldr	r0, [pc, #108]	; (1bd4 <main+0x1748>)
    1b68:	f002 fe92 	bl	4890 <arm_fir_f32>
    1b6c:	4b16      	ldr	r3, [pc, #88]	; (1bc8 <main+0x173c>)
    1b6e:	2200      	movs	r2, #0
    1b70:	605a      	str	r2, [r3, #4]
    1b72:	4b15      	ldr	r3, [pc, #84]	; (1bc8 <main+0x173c>)
    1b74:	689b      	ldr	r3, [r3, #8]
    1b76:	60bb      	str	r3, [r7, #8]
    1b78:	68ba      	ldr	r2, [r7, #8]
    1b7a:	687b      	ldr	r3, [r7, #4]
    1b7c:	1ad3      	subs	r3, r2, r3
    1b7e:	4619      	mov	r1, r3
    1b80:	4815      	ldr	r0, [pc, #84]	; (1bd8 <main+0x174c>)
    1b82:	f005 fe77 	bl	7874 <printf>
    1b86:	4815      	ldr	r0, [pc, #84]	; (1bdc <main+0x1750>)
    1b88:	f005 fe74 	bl	7874 <printf>
    1b8c:	480e      	ldr	r0, [pc, #56]	; (1bc8 <main+0x173c>)
    1b8e:	f004 fcef 	bl	6570 <Chip_TIMER_Reset>
    1b92:	4b0d      	ldr	r3, [pc, #52]	; (1bc8 <main+0x173c>)
    1b94:	2201      	movs	r2, #1
    1b96:	605a      	str	r2, [r3, #4]
    1b98:	f44f 6300 	mov.w	r3, #2048	; 0x800
    1b9c:	4a0b      	ldr	r2, [pc, #44]	; (1bcc <main+0x1740>)
    1b9e:	490c      	ldr	r1, [pc, #48]	; (1bd0 <main+0x1744>)
    1ba0:	480c      	ldr	r0, [pc, #48]	; (1bd4 <main+0x1748>)
    1ba2:	f002 fe75 	bl	4890 <arm_fir_f32>
    1ba6:	4b08      	ldr	r3, [pc, #32]	; (1bc8 <main+0x173c>)
    1ba8:	2200      	movs	r2, #0
    1baa:	605a      	str	r2, [r3, #4]
    1bac:	4b06      	ldr	r3, [pc, #24]	; (1bc8 <main+0x173c>)
    1bae:	689b      	ldr	r3, [r3, #8]
    1bb0:	60bb      	str	r3, [r7, #8]
    1bb2:	68ba      	ldr	r2, [r7, #8]
    1bb4:	687b      	ldr	r3, [r7, #4]
    1bb6:	1ad3      	subs	r3, r2, r3
    1bb8:	4619      	mov	r1, r3
    1bba:	4807      	ldr	r0, [pc, #28]	; (1bd8 <main+0x174c>)
    1bbc:	f005 fe5a 	bl	7874 <printf>
    1bc0:	4806      	ldr	r0, [pc, #24]	; (1bdc <main+0x1750>)
    1bc2:	f005 fe57 	bl	7874 <printf>
    1bc6:	e015      	b.n	1bf4 <main+0x1768>
    1bc8:	40008000 	.word	0x40008000
    1bcc:	200064b0 	.word	0x200064b0
    1bd0:	200023a4 	.word	0x200023a4
    1bd4:	20006424 	.word	0x20006424
    1bd8:	00009a20 	.word	0x00009a20
    1bdc:	00009a24 	.word	0x00009a24
    1be0:	00009ab4 	.word	0x00009ab4
    1be4:	00009a04 	.word	0x00009a04
    1be8:	00009ac8 	.word	0x00009ac8
    1bec:	200002f0 	.word	0x200002f0
    1bf0:	200063a4 	.word	0x200063a4
    1bf4:	482b      	ldr	r0, [pc, #172]	; (1ca4 <main+0x1818>)
    1bf6:	f005 fe3d 	bl	7874 <printf>
    1bfa:	482b      	ldr	r0, [pc, #172]	; (1ca8 <main+0x181c>)
    1bfc:	f005 fe3a 	bl	7874 <printf>
    1c00:	482a      	ldr	r0, [pc, #168]	; (1cac <main+0x1820>)
    1c02:	f005 fe37 	bl	7874 <printf>
    1c06:	482a      	ldr	r0, [pc, #168]	; (1cb0 <main+0x1824>)
    1c08:	f005 fe34 	bl	7874 <printf>
    1c0c:	4829      	ldr	r0, [pc, #164]	; (1cb4 <main+0x1828>)
    1c0e:	f005 fe31 	bl	7874 <printf>
    1c12:	4b29      	ldr	r3, [pc, #164]	; (1cb8 <main+0x182c>)
    1c14:	f04f 527c 	mov.w	r2, #1056964608	; 0x3f000000
    1c18:	619a      	str	r2, [r3, #24]
    1c1a:	4b27      	ldr	r3, [pc, #156]	; (1cb8 <main+0x182c>)
    1c1c:	4a27      	ldr	r2, [pc, #156]	; (1cbc <main+0x1830>)
    1c1e:	61da      	str	r2, [r3, #28]
    1c20:	4b25      	ldr	r3, [pc, #148]	; (1cb8 <main+0x182c>)
    1c22:	4a27      	ldr	r2, [pc, #156]	; (1cc0 <main+0x1834>)
    1c24:	621a      	str	r2, [r3, #32]
    1c26:	2101      	movs	r1, #1
    1c28:	4823      	ldr	r0, [pc, #140]	; (1cb8 <main+0x182c>)
    1c2a:	f003 fd15 	bl	5658 <arm_pid_init_f32>
    1c2e:	2300      	movs	r3, #0
    1c30:	60fb      	str	r3, [r7, #12]
    1c32:	e02d      	b.n	1c90 <main+0x1804>
    1c34:	4823      	ldr	r0, [pc, #140]	; (1cc4 <main+0x1838>)
    1c36:	f004 fc9b 	bl	6570 <Chip_TIMER_Reset>
    1c3a:	4b22      	ldr	r3, [pc, #136]	; (1cc4 <main+0x1838>)
    1c3c:	2201      	movs	r2, #1
    1c3e:	605a      	str	r2, [r3, #4]
    1c40:	4a21      	ldr	r2, [pc, #132]	; (1cc8 <main+0x183c>)
    1c42:	68fb      	ldr	r3, [r7, #12]
    1c44:	009b      	lsls	r3, r3, #2
    1c46:	4413      	add	r3, r2
    1c48:	edd3 7a00 	vldr	s15, [r3]
    1c4c:	eeb0 0a67 	vmov.f32	s0, s15
    1c50:	4819      	ldr	r0, [pc, #100]	; (1cb8 <main+0x182c>)
    1c52:	f7fe fbdf 	bl	414 <arm_pid_f32>
    1c56:	eef0 7a40 	vmov.f32	s15, s0
    1c5a:	edc7 7a00 	vstr	s15, [r7]
    1c5e:	4b19      	ldr	r3, [pc, #100]	; (1cc4 <main+0x1838>)
    1c60:	2200      	movs	r2, #0
    1c62:	605a      	str	r2, [r3, #4]
    1c64:	4b17      	ldr	r3, [pc, #92]	; (1cc4 <main+0x1838>)
    1c66:	689b      	ldr	r3, [r3, #8]
    1c68:	60bb      	str	r3, [r7, #8]
    1c6a:	68ba      	ldr	r2, [r7, #8]
    1c6c:	687b      	ldr	r3, [r7, #4]
    1c6e:	1ad3      	subs	r3, r2, r3
    1c70:	4619      	mov	r1, r3
    1c72:	4816      	ldr	r0, [pc, #88]	; (1ccc <main+0x1840>)
    1c74:	f005 fdfe 	bl	7874 <printf>
    1c78:	4815      	ldr	r0, [pc, #84]	; (1cd0 <main+0x1844>)
    1c7a:	f005 fdfb 	bl	7874 <printf>
    1c7e:	edd7 7a00 	vldr	s15, [r7]
    1c82:	ee77 7aa7 	vadd.f32	s15, s15, s15
    1c86:	edc7 7a00 	vstr	s15, [r7]
    1c8a:	68fb      	ldr	r3, [r7, #12]
    1c8c:	3301      	adds	r3, #1
    1c8e:	60fb      	str	r3, [r7, #12]
    1c90:	68fb      	ldr	r3, [r7, #12]
    1c92:	2b07      	cmp	r3, #7
    1c94:	ddce      	ble.n	1c34 <main+0x17a8>
    1c96:	4806      	ldr	r0, [pc, #24]	; (1cb0 <main+0x1824>)
    1c98:	f005 fdec 	bl	7874 <printf>
    1c9c:	4804      	ldr	r0, [pc, #16]	; (1cb0 <main+0x1824>)
    1c9e:	f005 fde9 	bl	7874 <printf>
    1ca2:	e7fe      	b.n	1ca2 <main+0x1816>
    1ca4:	00009ab4 	.word	0x00009ab4
    1ca8:	00009ad8 	.word	0x00009ad8
    1cac:	00009af4 	.word	0x00009af4
    1cb0:	00009a04 	.word	0x00009a04
    1cb4:	00009b10 	.word	0x00009b10
    1cb8:	20002370 	.word	0x20002370
    1cbc:	3dcccccd 	.word	0x3dcccccd
    1cc0:	3d4ccccd 	.word	0x3d4ccccd
    1cc4:	40008000 	.word	0x40008000
    1cc8:	200023a4 	.word	0x200023a4
    1ccc:	00009a20 	.word	0x00009a20
    1cd0:	00009a24 	.word	0x00009a24

00001cd4 <InitGoertzel_f32>:
    1cd4:	b580      	push	{r7, lr}
    1cd6:	b086      	sub	sp, #24
    1cd8:	af00      	add	r7, sp, #0
    1cda:	60f8      	str	r0, [r7, #12]
    1cdc:	60b9      	str	r1, [r7, #8]
    1cde:	607a      	str	r2, [r7, #4]
    1ce0:	603b      	str	r3, [r7, #0]
    1ce2:	edd7 6a02 	vldr	s13, [r7, #8]
    1ce6:	ed97 7a01 	vldr	s14, [r7, #4]
    1cea:	eec6 7a87 	vdiv.f32	s15, s13, s14
    1cee:	ee77 7aa7 	vadd.f32	s15, s15, s15
    1cf2:	edc7 7a05 	vstr	s15, [r7, #20]
    1cf6:	6978      	ldr	r0, [r7, #20]
    1cf8:	f005 f862 	bl	6dc0 <cosf>
    1cfc:	4602      	mov	r2, r0
    1cfe:	68fb      	ldr	r3, [r7, #12]
    1d00:	601a      	str	r2, [r3, #0]
    1d02:	6978      	ldr	r0, [r7, #20]
    1d04:	f005 f87a 	bl	6dfc <sinf>
    1d08:	4603      	mov	r3, r0
    1d0a:	ee07 3a90 	vmov	s15, r3
    1d0e:	eef1 7a67 	vneg.f32	s15, s15
    1d12:	68fb      	ldr	r3, [r7, #12]
    1d14:	edc3 7a01 	vstr	s15, [r3, #4]
    1d18:	68fb      	ldr	r3, [r7, #12]
    1d1a:	687a      	ldr	r2, [r7, #4]
    1d1c:	60da      	str	r2, [r3, #12]
    1d1e:	68fb      	ldr	r3, [r7, #12]
    1d20:	683a      	ldr	r2, [r7, #0]
    1d22:	609a      	str	r2, [r3, #8]
    1d24:	bf00      	nop
    1d26:	3718      	adds	r7, #24
    1d28:	46bd      	mov	sp, r7
    1d2a:	bd80      	pop	{r7, pc}

00001d2c <ProcessGoertzel_f32_Power>:
    1d2c:	b480      	push	{r7}
    1d2e:	b089      	sub	sp, #36	; 0x24
    1d30:	af00      	add	r7, sp, #0
    1d32:	6078      	str	r0, [r7, #4]
    1d34:	6039      	str	r1, [r7, #0]
    1d36:	f04f 0300 	mov.w	r3, #0
    1d3a:	613b      	str	r3, [r7, #16]
    1d3c:	f04f 0300 	mov.w	r3, #0
    1d40:	61fb      	str	r3, [r7, #28]
    1d42:	f04f 0300 	mov.w	r3, #0
    1d46:	61bb      	str	r3, [r7, #24]
    1d48:	2300      	movs	r3, #0
    1d4a:	617b      	str	r3, [r7, #20]
    1d4c:	e01d      	b.n	1d8a <ProcessGoertzel_f32_Power+0x5e>
    1d4e:	697b      	ldr	r3, [r7, #20]
    1d50:	009b      	lsls	r3, r3, #2
    1d52:	683a      	ldr	r2, [r7, #0]
    1d54:	4413      	add	r3, r2
    1d56:	ed93 7a00 	vldr	s14, [r3]
    1d5a:	687b      	ldr	r3, [r7, #4]
    1d5c:	edd3 7a00 	vldr	s15, [r3]
    1d60:	ee77 6aa7 	vadd.f32	s13, s15, s15
    1d64:	edd7 7a07 	vldr	s15, [r7, #28]
    1d68:	ee66 7aa7 	vmul.f32	s15, s13, s15
    1d6c:	ee37 7a27 	vadd.f32	s14, s14, s15
    1d70:	edd7 7a06 	vldr	s15, [r7, #24]
    1d74:	ee77 7a67 	vsub.f32	s15, s14, s15
    1d78:	edc7 7a04 	vstr	s15, [r7, #16]
    1d7c:	69fb      	ldr	r3, [r7, #28]
    1d7e:	61bb      	str	r3, [r7, #24]
    1d80:	693b      	ldr	r3, [r7, #16]
    1d82:	61fb      	str	r3, [r7, #28]
    1d84:	697b      	ldr	r3, [r7, #20]
    1d86:	3301      	adds	r3, #1
    1d88:	617b      	str	r3, [r7, #20]
    1d8a:	687b      	ldr	r3, [r7, #4]
    1d8c:	689a      	ldr	r2, [r3, #8]
    1d8e:	697b      	ldr	r3, [r7, #20]
    1d90:	429a      	cmp	r2, r3
    1d92:	d8dc      	bhi.n	1d4e <ProcessGoertzel_f32_Power+0x22>
    1d94:	687b      	ldr	r3, [r7, #4]
    1d96:	ed93 7a00 	vldr	s14, [r3]
    1d9a:	edd7 7a07 	vldr	s15, [r7, #28]
    1d9e:	ee27 7a27 	vmul.f32	s14, s14, s15
    1da2:	edd7 7a06 	vldr	s15, [r7, #24]
    1da6:	ee77 7a67 	vsub.f32	s15, s14, s15
    1daa:	edc7 7a03 	vstr	s15, [r7, #12]
    1dae:	687b      	ldr	r3, [r7, #4]
    1db0:	ed93 7a01 	vldr	s14, [r3, #4]
    1db4:	edd7 7a07 	vldr	s15, [r7, #28]
    1db8:	ee67 7a27 	vmul.f32	s15, s14, s15
    1dbc:	edc7 7a02 	vstr	s15, [r7, #8]
    1dc0:	ed97 7a03 	vldr	s14, [r7, #12]
    1dc4:	edd7 7a03 	vldr	s15, [r7, #12]
    1dc8:	ee27 7a27 	vmul.f32	s14, s14, s15
    1dcc:	edd7 6a02 	vldr	s13, [r7, #8]
    1dd0:	edd7 7a02 	vldr	s15, [r7, #8]
    1dd4:	ee66 7aa7 	vmul.f32	s15, s13, s15
    1dd8:	ee77 7a27 	vadd.f32	s15, s14, s15
    1ddc:	ee17 3a90 	vmov	r3, s15
    1de0:	4618      	mov	r0, r3
    1de2:	3724      	adds	r7, #36	; 0x24
    1de4:	46bd      	mov	sp, r7
    1de6:	f85d 7b04 	ldr.w	r7, [sp], #4
    1dea:	4770      	bx	lr

00001dec <SystemInit>:
    1dec:	b580      	push	{r7, lr}
    1dee:	af00      	add	r7, sp, #0
    1df0:	4b04      	ldr	r3, [pc, #16]	; (1e04 <SystemInit+0x18>)
    1df2:	4a05      	ldr	r2, [pc, #20]	; (1e08 <SystemInit+0x1c>)
    1df4:	609a      	str	r2, [r3, #8]
    1df6:	f003 ffe1 	bl	5dbc <fpuInit>
    1dfa:	f000 f95d 	bl	20b8 <Board_SystemInit>
    1dfe:	bf00      	nop
    1e00:	bd80      	pop	{r7, pc}
    1e02:	bf00      	nop
    1e04:	e000ed00 	.word	0xe000ed00
    1e08:	00000000 	.word	0x00000000

00001e0c <Board_LED_Init>:
    1e0c:	b4f0      	push	{r4, r5, r6, r7}
    1e0e:	2200      	movs	r2, #0
    1e10:	e014      	b.n	1e3c <Board_LED_Init+0x30>
    1e12:	490c      	ldr	r1, [pc, #48]	; (1e44 <Board_LED_Init+0x38>)
    1e14:	f811 5012 	ldrb.w	r5, [r1, r2, lsl #1]
    1e18:	eb01 0142 	add.w	r1, r1, r2, lsl #1
    1e1c:	7848      	ldrb	r0, [r1, #1]
    1e1e:	4b0a      	ldr	r3, [pc, #40]	; (1e48 <Board_LED_Init+0x3c>)
    1e20:	f505 6600 	add.w	r6, r5, #2048	; 0x800
    1e24:	f853 7026 	ldr.w	r7, [r3, r6, lsl #2]
    1e28:	2401      	movs	r4, #1
    1e2a:	fa04 f100 	lsl.w	r1, r4, r0
    1e2e:	4339      	orrs	r1, r7
    1e30:	f843 1026 	str.w	r1, [r3, r6, lsl #2]
    1e34:	eb03 1345 	add.w	r3, r3, r5, lsl #5
    1e38:	541c      	strb	r4, [r3, r0]
    1e3a:	4422      	add	r2, r4
    1e3c:	2a02      	cmp	r2, #2
    1e3e:	d9e8      	bls.n	1e12 <Board_LED_Init+0x6>
    1e40:	bcf0      	pop	{r4, r5, r6, r7}
    1e42:	4770      	bx	lr
    1e44:	00009b2c 	.word	0x00009b2c
    1e48:	4008c000 	.word	0x4008c000

00001e4c <Board_TestIO_Init>:
    1e4c:	b470      	push	{r4, r5, r6}
    1e4e:	2300      	movs	r3, #0
    1e50:	e014      	b.n	1e7c <Board_TestIO_Init+0x30>
    1e52:	490c      	ldr	r1, [pc, #48]	; (1e84 <Board_TestIO_Init+0x38>)
    1e54:	f811 4013 	ldrb.w	r4, [r1, r3, lsl #1]
    1e58:	eb01 0143 	add.w	r1, r1, r3, lsl #1
    1e5c:	7848      	ldrb	r0, [r1, #1]
    1e5e:	4a0a      	ldr	r2, [pc, #40]	; (1e88 <Board_TestIO_Init+0x3c>)
    1e60:	f504 6500 	add.w	r5, r4, #2048	; 0x800
    1e64:	f852 6025 	ldr.w	r6, [r2, r5, lsl #2]
    1e68:	2101      	movs	r1, #1
    1e6a:	4081      	lsls	r1, r0
    1e6c:	4331      	orrs	r1, r6
    1e6e:	f842 1025 	str.w	r1, [r2, r5, lsl #2]
    1e72:	eb02 1244 	add.w	r2, r2, r4, lsl #5
    1e76:	2100      	movs	r1, #0
    1e78:	5411      	strb	r1, [r2, r0]
    1e7a:	3301      	adds	r3, #1
    1e7c:	2b01      	cmp	r3, #1
    1e7e:	d9e8      	bls.n	1e52 <Board_TestIO_Init+0x6>
    1e80:	bc70      	pop	{r4, r5, r6}
    1e82:	4770      	bx	lr
    1e84:	00009b20 	.word	0x00009b20
    1e88:	4008c000 	.word	0x4008c000

00001e8c <Board_Button_Init>:
    1e8c:	b430      	push	{r4, r5}
    1e8e:	2300      	movs	r3, #0
    1e90:	e011      	b.n	1eb6 <Board_Button_Init+0x2a>
    1e92:	490b      	ldr	r1, [pc, #44]	; (1ec0 <Board_Button_Init+0x34>)
    1e94:	f811 2013 	ldrb.w	r2, [r1, r3, lsl #1]
    1e98:	eb01 0143 	add.w	r1, r1, r3, lsl #1
    1e9c:	784d      	ldrb	r5, [r1, #1]
    1e9e:	4c09      	ldr	r4, [pc, #36]	; (1ec4 <Board_Button_Init+0x38>)
    1ea0:	f502 6200 	add.w	r2, r2, #2048	; 0x800
    1ea4:	f854 0022 	ldr.w	r0, [r4, r2, lsl #2]
    1ea8:	2101      	movs	r1, #1
    1eaa:	40a9      	lsls	r1, r5
    1eac:	ea20 0101 	bic.w	r1, r0, r1
    1eb0:	f844 1022 	str.w	r1, [r4, r2, lsl #2]
    1eb4:	3301      	adds	r3, #1
    1eb6:	2b02      	cmp	r3, #2
    1eb8:	d9eb      	bls.n	1e92 <Board_Button_Init+0x6>
    1eba:	bc30      	pop	{r4, r5}
    1ebc:	4770      	bx	lr
    1ebe:	bf00      	nop
    1ec0:	00009b24 	.word	0x00009b24
    1ec4:	4008c000 	.word	0x4008c000

00001ec8 <Board_UART_Init>:
    1ec8:	b510      	push	{r4, lr}
    1eca:	4c0c      	ldr	r4, [pc, #48]	; (1efc <Board_UART_Init+0x34>)
    1ecc:	4620      	mov	r0, r4
    1ece:	f004 fd65 	bl	699c <Chip_UART_Init>
    1ed2:	f44f 31e1 	mov.w	r1, #115200	; 0x1c200
    1ed6:	4620      	mov	r0, r4
    1ed8:	f004 fddc 	bl	6a94 <Chip_UART_SetBaud>
    1edc:	6822      	ldr	r2, [r4, #0]
    1ede:	4b08      	ldr	r3, [pc, #32]	; (1f00 <Board_UART_Init+0x38>)
    1ee0:	4013      	ands	r3, r2
    1ee2:	f043 0304 	orr.w	r3, r3, #4
    1ee6:	6023      	str	r3, [r4, #0]
    1ee8:	6823      	ldr	r3, [r4, #0]
    1eea:	f043 0301 	orr.w	r3, r3, #1
    1eee:	6023      	str	r3, [r4, #0]
    1ef0:	6863      	ldr	r3, [r4, #4]
    1ef2:	f023 0340 	bic.w	r3, r3, #64	; 0x40
    1ef6:	6063      	str	r3, [r4, #4]
    1ef8:	bd10      	pop	{r4, pc}
    1efa:	bf00      	nop
    1efc:	40086000 	.word	0x40086000
    1f00:	00fddbfd 	.word	0x00fddbfd

00001f04 <Board_LED_Set>:
    1f04:	2802      	cmp	r0, #2
    1f06:	d80d      	bhi.n	1f24 <Board_LED_Set+0x20>
    1f08:	4a07      	ldr	r2, [pc, #28]	; (1f28 <Board_LED_Set+0x24>)
    1f0a:	f812 3010 	ldrb.w	r3, [r2, r0, lsl #1]
    1f0e:	eb02 0040 	add.w	r0, r2, r0, lsl #1
    1f12:	7842      	ldrb	r2, [r0, #1]
    1f14:	f081 0101 	eor.w	r1, r1, #1
    1f18:	015b      	lsls	r3, r3, #5
    1f1a:	f103 4380 	add.w	r3, r3, #1073741824	; 0x40000000
    1f1e:	f503 230c 	add.w	r3, r3, #573440	; 0x8c000
    1f22:	5499      	strb	r1, [r3, r2]
    1f24:	4770      	bx	lr
    1f26:	bf00      	nop
    1f28:	00009b2c 	.word	0x00009b2c

00001f2c <Board_UARTPutChar>:
    1f2c:	b500      	push	{lr}
    1f2e:	b083      	sub	sp, #12
    1f30:	a902      	add	r1, sp, #8
    1f32:	f801 0d01 	strb.w	r0, [r1, #-1]!
    1f36:	2201      	movs	r2, #1
    1f38:	4802      	ldr	r0, [pc, #8]	; (1f44 <Board_UARTPutChar+0x18>)
    1f3a:	f004 fd71 	bl	6a20 <Chip_UART_SendBlocking>
    1f3e:	b003      	add	sp, #12
    1f40:	f85d fb04 	ldr.w	pc, [sp], #4
    1f44:	40086000 	.word	0x40086000

00001f48 <__sys_write>:
    1f48:	b570      	push	{r4, r5, r6, lr}
    1f4a:	460e      	mov	r6, r1
    1f4c:	4615      	mov	r5, r2
    1f4e:	2400      	movs	r4, #0
    1f50:	e003      	b.n	1f5a <__sys_write+0x12>
    1f52:	5d30      	ldrb	r0, [r6, r4]
    1f54:	f7ff ffea 	bl	1f2c <Board_UARTPutChar>
    1f58:	3401      	adds	r4, #1
    1f5a:	42ac      	cmp	r4, r5
    1f5c:	d3f9      	bcc.n	1f52 <__sys_write+0xa>
    1f5e:	4628      	mov	r0, r5
    1f60:	bd70      	pop	{r4, r5, r6, pc}
    1f62:	bf00      	nop

00001f64 <Board_Debug_Init>:
    1f64:	b508      	push	{r3, lr}
    1f66:	f7ff ffaf 	bl	1ec8 <Board_UART_Init>
    1f6a:	bd08      	pop	{r3, pc}

00001f6c <Board_Init>:
    1f6c:	b508      	push	{r3, lr}
    1f6e:	200b      	movs	r0, #11
    1f70:	f003 fe68 	bl	5c44 <Chip_Clock_EnablePeriphClock>
    1f74:	200d      	movs	r0, #13
    1f76:	f003 fe65 	bl	5c44 <Chip_Clock_EnablePeriphClock>
    1f7a:	f7ff fff3 	bl	1f64 <Board_Debug_Init>
    1f7e:	200e      	movs	r0, #14
    1f80:	f003 fe60 	bl	5c44 <Chip_Clock_EnablePeriphClock>
    1f84:	200f      	movs	r0, #15
    1f86:	f003 fe5d 	bl	5c44 <Chip_Clock_EnablePeriphClock>
    1f8a:	f04f 4380 	mov.w	r3, #1073741824	; 0x40000000
    1f8e:	f44f 4280 	mov.w	r2, #16384	; 0x4000
    1f92:	f8c3 2120 	str.w	r2, [r3, #288]	; 0x120
    1f96:	bf00      	nop
    1f98:	bf00      	nop
    1f9a:	bf00      	nop
    1f9c:	bf00      	nop
    1f9e:	f8c3 2140 	str.w	r2, [r3, #320]	; 0x140
    1fa2:	f44f 4200 	mov.w	r2, #32768	; 0x8000
    1fa6:	f8c3 2120 	str.w	r2, [r3, #288]	; 0x120
    1faa:	bf00      	nop
    1fac:	bf00      	nop
    1fae:	bf00      	nop
    1fb0:	bf00      	nop
    1fb2:	f8c3 2140 	str.w	r2, [r3, #320]	; 0x140
    1fb6:	f7ff ff29 	bl	1e0c <Board_LED_Init>
    1fba:	f7ff ff47 	bl	1e4c <Board_TestIO_Init>
    1fbe:	f7ff ff65 	bl	1e8c <Board_Button_Init>
    1fc2:	bd08      	pop	{r3, pc}

00001fc4 <ConfigureBridgeSSEL>:
    1fc4:	b410      	push	{r4}
    1fc6:	b083      	sub	sp, #12
    1fc8:	2300      	movs	r3, #0
    1fca:	f88d 3004 	strb.w	r3, [sp, #4]
    1fce:	220e      	movs	r2, #14
    1fd0:	f88d 2005 	strb.w	r2, [sp, #5]
    1fd4:	2280      	movs	r2, #128	; 0x80
    1fd6:	f8ad 2006 	strh.w	r2, [sp, #6]
    1fda:	e00c      	b.n	1ff6 <ConfigureBridgeSSEL+0x32>
    1fdc:	aa01      	add	r2, sp, #4
    1fde:	eb02 0183 	add.w	r1, r2, r3, lsl #2
    1fe2:	f812 4023 	ldrb.w	r4, [r2, r3, lsl #2]
    1fe6:	784a      	ldrb	r2, [r1, #1]
    1fe8:	8848      	ldrh	r0, [r1, #2]
    1fea:	eb02 1244 	add.w	r2, r2, r4, lsl #5
    1fee:	4918      	ldr	r1, [pc, #96]	; (2050 <ConfigureBridgeSSEL+0x8c>)
    1ff0:	f841 0022 	str.w	r0, [r1, r2, lsl #2]
    1ff4:	3301      	adds	r3, #1
    1ff6:	2b00      	cmp	r3, #0
    1ff8:	d0f0      	beq.n	1fdc <ConfigureBridgeSSEL+0x18>
    1ffa:	4a16      	ldr	r2, [pc, #88]	; (2054 <ConfigureBridgeSSEL+0x90>)
    1ffc:	f502 5300 	add.w	r3, r2, #8192	; 0x2000
    2000:	6819      	ldr	r1, [r3, #0]
    2002:	f441 4180 	orr.w	r1, r1, #16384	; 0x4000
    2006:	6019      	str	r1, [r3, #0]
    2008:	2100      	movs	r1, #0
    200a:	7391      	strb	r1, [r2, #14]
    200c:	6819      	ldr	r1, [r3, #0]
    200e:	f421 4180 	bic.w	r1, r1, #16384	; 0x4000
    2012:	6019      	str	r1, [r3, #0]
    2014:	7b93      	ldrb	r3, [r2, #14]
    2016:	f013 0fff 	tst.w	r3, #255	; 0xff
    201a:	d101      	bne.n	2020 <ConfigureBridgeSSEL+0x5c>
    201c:	2389      	movs	r3, #137	; 0x89
    201e:	e000      	b.n	2022 <ConfigureBridgeSSEL+0x5e>
    2020:	2381      	movs	r3, #129	; 0x81
    2022:	f8ad 3006 	strh.w	r3, [sp, #6]
    2026:	2300      	movs	r3, #0
    2028:	e00c      	b.n	2044 <ConfigureBridgeSSEL+0x80>
    202a:	aa01      	add	r2, sp, #4
    202c:	eb02 0183 	add.w	r1, r2, r3, lsl #2
    2030:	f812 4023 	ldrb.w	r4, [r2, r3, lsl #2]
    2034:	784a      	ldrb	r2, [r1, #1]
    2036:	8848      	ldrh	r0, [r1, #2]
    2038:	eb02 1244 	add.w	r2, r2, r4, lsl #5
    203c:	4904      	ldr	r1, [pc, #16]	; (2050 <ConfigureBridgeSSEL+0x8c>)
    203e:	f841 0022 	str.w	r0, [r1, r2, lsl #2]
    2042:	3301      	adds	r3, #1
    2044:	2b00      	cmp	r3, #0
    2046:	d0f0      	beq.n	202a <ConfigureBridgeSSEL+0x66>
    2048:	b003      	add	sp, #12
    204a:	f85d 4b04 	ldr.w	r4, [sp], #4
    204e:	4770      	bx	lr
    2050:	40001000 	.word	0x40001000
    2054:	4008c000 	.word	0x4008c000

00002058 <Board_SetupMuxing>:
    2058:	b510      	push	{r4, lr}
    205a:	200d      	movs	r0, #13
    205c:	f003 fdf2 	bl	5c44 <Chip_Clock_EnablePeriphClock>
    2060:	2300      	movs	r3, #0
    2062:	e00c      	b.n	207e <Board_SetupMuxing+0x26>
    2064:	4a08      	ldr	r2, [pc, #32]	; (2088 <Board_SetupMuxing+0x30>)
    2066:	eb02 0183 	add.w	r1, r2, r3, lsl #2
    206a:	f812 4023 	ldrb.w	r4, [r2, r3, lsl #2]
    206e:	784a      	ldrb	r2, [r1, #1]
    2070:	8848      	ldrh	r0, [r1, #2]
    2072:	eb02 1244 	add.w	r2, r2, r4, lsl #5
    2076:	4905      	ldr	r1, [pc, #20]	; (208c <Board_SetupMuxing+0x34>)
    2078:	f841 0022 	str.w	r0, [r1, r2, lsl #2]
    207c:	3301      	adds	r3, #1
    207e:	2b0b      	cmp	r3, #11
    2080:	d9f0      	bls.n	2064 <Board_SetupMuxing+0xc>
    2082:	f7ff ff9f 	bl	1fc4 <ConfigureBridgeSSEL>
    2086:	bd10      	pop	{r4, pc}
    2088:	00009b34 	.word	0x00009b34
    208c:	40001000 	.word	0x40001000

00002090 <Board_SetupClocking>:
    2090:	b510      	push	{r4, lr}
    2092:	4c08      	ldr	r4, [pc, #32]	; (20b4 <Board_SetupClocking+0x24>)
    2094:	4620      	mov	r0, r4
    2096:	f000 f845 	bl	2124 <Chip_POWER_SetVoltage>
    209a:	4620      	mov	r0, r4
    209c:	f004 fa32 	bl	6504 <Chip_SetupFROClocking>
    20a0:	f04f 4380 	mov.w	r3, #1073741824	; 0x40000000
    20a4:	2200      	movs	r2, #0
    20a6:	f8c3 2380 	str.w	r2, [r3, #896]	; 0x380
    20aa:	f8c3 2288 	str.w	r2, [r3, #648]	; 0x288
    20ae:	f8c3 2384 	str.w	r2, [r3, #900]	; 0x384
    20b2:	bd10      	pop	{r4, pc}
    20b4:	02dc6c00 	.word	0x02dc6c00

000020b8 <Board_SystemInit>:
    20b8:	b508      	push	{r3, lr}
    20ba:	f44f 4060 	mov.w	r0, #57344	; 0xe000
    20be:	f004 f93f 	bl	6340 <Chip_SYSCON_PowerUp>
    20c2:	2003      	movs	r0, #3
    20c4:	f003 fdbe 	bl	5c44 <Chip_Clock_EnablePeriphClock>
    20c8:	2004      	movs	r0, #4
    20ca:	f003 fdbb 	bl	5c44 <Chip_Clock_EnablePeriphClock>
    20ce:	f7ff ffc3 	bl	2058 <Board_SetupMuxing>
    20d2:	f7ff ffdd 	bl	2090 <Board_SetupClocking>
    20d6:	bd08      	pop	{r3, pc}

000020d8 <Chip_POWER_SetFROHFRate>:
    20d8:	42984b0e 	.word	0x42984b0e
    20dc:	4b0ed108 	.word	0x4b0ed108
    20e0:	f023681b 	.word	0xf023681b
    20e4:	f423437c 	.word	0xf423437c
    20e8:	f0434340 	.word	0xf0434340
    20ec:	e00c4340 	.word	0xe00c4340
    20f0:	42984b0a 	.word	0x42984b0a
    20f4:	4b0ad10d 	.word	0x4b0ad10d
    20f8:	f023681b 	.word	0xf023681b
    20fc:	f423437c 	.word	0xf423437c
    2100:	f0434340 	.word	0xf0434340
    2104:	f4434340 	.word	0xf4434340
    2108:	f04f4380 	.word	0xf04f4380
    210c:	f8c24280 	.word	0xf8c24280
    2110:	47703500 	.word	0x47703500
    2114:	02dc6c00 	.word	0x02dc6c00
    2118:	01000444 	.word	0x01000444
    211c:	05b8d800 	.word	0x05b8d800
    2120:	01000430 	.word	0x01000430

00002124 <Chip_POWER_SetVoltage>:
    2124:	42984b33 	.word	0x42984b33
    2128:	d860b570 	.word	0xd860b570
    212c:	4380f04f 	.word	0x4380f04f
    2130:	f8c34a31 	.word	0xf8c34a31
    2134:	f8d32630 	.word	0xf8d32630
    2138:	4b305400 	.word	0x4b305400
    213c:	f4254298 	.word	0xf4254298
    2140:	d9224570 	.word	0xd9224570
    2144:	42984b2e 	.word	0x42984b2e
    2148:	f503d921 	.word	0xf503d921
    214c:	f5030337 	.word	0xf5030337
    2150:	429853d8 	.word	0x429853d8
    2154:	4b2bd91d 	.word	0x4b2bd91d
    2158:	d91c4298 	.word	0xd91c4298
    215c:	42984b2a 	.word	0x42984b2a
    2160:	f503d91b 	.word	0xf503d91b
    2164:	f5030337 	.word	0xf5030337
    2168:	429853d8 	.word	0x429853d8
    216c:	f503d917 	.word	0xf503d917
    2170:	f5030337 	.word	0xf5030337
    2174:	429853d8 	.word	0x429853d8
    2178:	4b24d913 	.word	0x4b24d913
    217c:	4c254a24 	.word	0x4c254a24
    2180:	bf9442a0 	.word	0xbf9442a0
    2184:	461c4614 	.word	0x461c4614
    2188:	4c23e00c 	.word	0x4c23e00c
    218c:	4c23e00a 	.word	0x4c23e00a
    2190:	4c23e008 	.word	0x4c23e008
    2194:	4c23e006 	.word	0x4c23e006
    2198:	4c23e004 	.word	0x4c23e004
    219c:	4c23e002 	.word	0x4c23e002
    21a0:	4c23e000 	.word	0x4c23e000
    21a4:	68334e23 	.word	0x68334e23
    21a8:	f004689b 	.word	0xf004689b
    21ac:	691b010f 	.word	0x691b010f
    21b0:	47982000 	.word	0x47982000
    21b4:	689b6833 	.word	0x689b6833
    21b8:	691b2001 	.word	0x691b2001
    21bc:	4798210b 	.word	0x4798210b
    21c0:	689b6833 	.word	0x689b6833
    21c4:	3103f3c4 	.word	0x3103f3c4
    21c8:	2002691b 	.word	0x2002691b
    21cc:	68334798 	.word	0x68334798
    21d0:	f3c4689b 	.word	0xf3c4689b
    21d4:	691b4183 	.word	0x691b4183
    21d8:	47982003 	.word	0x47982003
    21dc:	f04f0e24 	.word	0xf04f0e24
    21e0:	ea454380 	.word	0xea454380
    21e4:	f8c33404 	.word	0xf8c33404
    21e8:	20004400 	.word	0x20004400
    21ec:	4812bd70 	.word	0x4812bd70
    21f0:	bf00bd70 	.word	0xbf00bd70
    21f4:	05f5e4e7 	.word	0x05f5e4e7
    21f8:	38000004 	.word	0x38000004
    21fc:	00b71b00 	.word	0x00b71b00
    2200:	016e3600 	.word	0x016e3600
    2204:	02dc6c00 	.word	0x02dc6c00
    2208:	03938700 	.word	0x03938700
    220c:	0534d2cd 	.word	0x0534d2cd
    2210:	0530c2cc 	.word	0x0530c2cc
    2214:	05b8d800 	.word	0x05b8d800
    2218:	0018b2c6 	.word	0x0018b2c6
    221c:	011cb2c7 	.word	0x011cb2c7
    2220:	0220b2c8 	.word	0x0220b2c8
    2224:	0224b2c9 	.word	0x0224b2c9
    2228:	0328b2ca 	.word	0x0328b2ca
    222c:	032cb2cb 	.word	0x032cb2cb
    2230:	042cb2cb 	.word	0x042cb2cb
    2234:	03000200 	.word	0x03000200
    2238:	000b0002 	.word	0x000b0002

0000223c <arm_cfft_radix8by2_f32>:
    223c:	b580      	push	{r7, lr}
    223e:	b0a0      	sub	sp, #128	; 0x80
    2240:	af00      	add	r7, sp, #0
    2242:	6078      	str	r0, [r7, #4]
    2244:	6039      	str	r1, [r7, #0]
    2246:	687b      	ldr	r3, [r7, #4]
    2248:	881b      	ldrh	r3, [r3, #0]
    224a:	66bb      	str	r3, [r7, #104]	; 0x68
    224c:	6ebb      	ldr	r3, [r7, #104]	; 0x68
    224e:	009b      	lsls	r3, r3, #2
    2250:	683a      	ldr	r2, [r7, #0]
    2252:	4413      	add	r3, r2
    2254:	677b      	str	r3, [r7, #116]	; 0x74
    2256:	687b      	ldr	r3, [r7, #4]
    2258:	685b      	ldr	r3, [r3, #4]
    225a:	673b      	str	r3, [r7, #112]	; 0x70
    225c:	683b      	ldr	r3, [r7, #0]
    225e:	667b      	str	r3, [r7, #100]	; 0x64
    2260:	6f7b      	ldr	r3, [r7, #116]	; 0x74
    2262:	663b      	str	r3, [r7, #96]	; 0x60
    2264:	6ebb      	ldr	r3, [r7, #104]	; 0x68
    2266:	085b      	lsrs	r3, r3, #1
    2268:	66bb      	str	r3, [r7, #104]	; 0x68
    226a:	6ebb      	ldr	r3, [r7, #104]	; 0x68
    226c:	009b      	lsls	r3, r3, #2
    226e:	683a      	ldr	r2, [r7, #0]
    2270:	4413      	add	r3, r2
    2272:	67fb      	str	r3, [r7, #124]	; 0x7c
    2274:	6ebb      	ldr	r3, [r7, #104]	; 0x68
    2276:	009b      	lsls	r3, r3, #2
    2278:	6f7a      	ldr	r2, [r7, #116]	; 0x74
    227a:	4413      	add	r3, r2
    227c:	67bb      	str	r3, [r7, #120]	; 0x78
    227e:	6ebb      	ldr	r3, [r7, #104]	; 0x68
    2280:	089b      	lsrs	r3, r3, #2
    2282:	66fb      	str	r3, [r7, #108]	; 0x6c
    2284:	e1b6      	b.n	25f4 <arm_cfft_radix8by2_f32+0x3b8>
    2286:	683b      	ldr	r3, [r7, #0]
    2288:	681b      	ldr	r3, [r3, #0]
    228a:	63bb      	str	r3, [r7, #56]	; 0x38
    228c:	683b      	ldr	r3, [r7, #0]
    228e:	685b      	ldr	r3, [r3, #4]
    2290:	63fb      	str	r3, [r7, #60]	; 0x3c
    2292:	683b      	ldr	r3, [r7, #0]
    2294:	689b      	ldr	r3, [r3, #8]
    2296:	643b      	str	r3, [r7, #64]	; 0x40
    2298:	683b      	ldr	r3, [r7, #0]
    229a:	68db      	ldr	r3, [r3, #12]
    229c:	647b      	str	r3, [r7, #68]	; 0x44
    229e:	6f7b      	ldr	r3, [r7, #116]	; 0x74
    22a0:	681b      	ldr	r3, [r3, #0]
    22a2:	62bb      	str	r3, [r7, #40]	; 0x28
    22a4:	6f7b      	ldr	r3, [r7, #116]	; 0x74
    22a6:	685b      	ldr	r3, [r3, #4]
    22a8:	62fb      	str	r3, [r7, #44]	; 0x2c
    22aa:	6f7b      	ldr	r3, [r7, #116]	; 0x74
    22ac:	689b      	ldr	r3, [r3, #8]
    22ae:	633b      	str	r3, [r7, #48]	; 0x30
    22b0:	6f7b      	ldr	r3, [r7, #116]	; 0x74
    22b2:	68db      	ldr	r3, [r3, #12]
    22b4:	637b      	str	r3, [r7, #52]	; 0x34
    22b6:	6ffb      	ldr	r3, [r7, #124]	; 0x7c
    22b8:	681b      	ldr	r3, [r3, #0]
    22ba:	61bb      	str	r3, [r7, #24]
    22bc:	6ffb      	ldr	r3, [r7, #124]	; 0x7c
    22be:	685b      	ldr	r3, [r3, #4]
    22c0:	61fb      	str	r3, [r7, #28]
    22c2:	6ffb      	ldr	r3, [r7, #124]	; 0x7c
    22c4:	689b      	ldr	r3, [r3, #8]
    22c6:	623b      	str	r3, [r7, #32]
    22c8:	6ffb      	ldr	r3, [r7, #124]	; 0x7c
    22ca:	68db      	ldr	r3, [r3, #12]
    22cc:	627b      	str	r3, [r7, #36]	; 0x24
    22ce:	6fbb      	ldr	r3, [r7, #120]	; 0x78
    22d0:	681b      	ldr	r3, [r3, #0]
    22d2:	60bb      	str	r3, [r7, #8]
    22d4:	6fbb      	ldr	r3, [r7, #120]	; 0x78
    22d6:	685b      	ldr	r3, [r3, #4]
    22d8:	60fb      	str	r3, [r7, #12]
    22da:	6fbb      	ldr	r3, [r7, #120]	; 0x78
    22dc:	689b      	ldr	r3, [r3, #8]
    22de:	613b      	str	r3, [r7, #16]
    22e0:	6fbb      	ldr	r3, [r7, #120]	; 0x78
    22e2:	68db      	ldr	r3, [r3, #12]
    22e4:	617b      	str	r3, [r7, #20]
    22e6:	683b      	ldr	r3, [r7, #0]
    22e8:	1d1a      	adds	r2, r3, #4
    22ea:	603a      	str	r2, [r7, #0]
    22ec:	ed97 7a0e 	vldr	s14, [r7, #56]	; 0x38
    22f0:	edd7 7a0a 	vldr	s15, [r7, #40]	; 0x28
    22f4:	ee77 7a27 	vadd.f32	s15, s14, s15
    22f8:	edc3 7a00 	vstr	s15, [r3]
    22fc:	683b      	ldr	r3, [r7, #0]
    22fe:	1d1a      	adds	r2, r3, #4
    2300:	603a      	str	r2, [r7, #0]
    2302:	ed97 7a0f 	vldr	s14, [r7, #60]	; 0x3c
    2306:	edd7 7a0b 	vldr	s15, [r7, #44]	; 0x2c
    230a:	ee77 7a27 	vadd.f32	s15, s14, s15
    230e:	edc3 7a00 	vstr	s15, [r3]
    2312:	683b      	ldr	r3, [r7, #0]
    2314:	1d1a      	adds	r2, r3, #4
    2316:	603a      	str	r2, [r7, #0]
    2318:	ed97 7a10 	vldr	s14, [r7, #64]	; 0x40
    231c:	edd7 7a0c 	vldr	s15, [r7, #48]	; 0x30
    2320:	ee77 7a27 	vadd.f32	s15, s14, s15
    2324:	edc3 7a00 	vstr	s15, [r3]
    2328:	683b      	ldr	r3, [r7, #0]
    232a:	1d1a      	adds	r2, r3, #4
    232c:	603a      	str	r2, [r7, #0]
    232e:	ed97 7a11 	vldr	s14, [r7, #68]	; 0x44
    2332:	edd7 7a0d 	vldr	s15, [r7, #52]	; 0x34
    2336:	ee77 7a27 	vadd.f32	s15, s14, s15
    233a:	edc3 7a00 	vstr	s15, [r3]
    233e:	ed97 7a0e 	vldr	s14, [r7, #56]	; 0x38
    2342:	edd7 7a0a 	vldr	s15, [r7, #40]	; 0x28
    2346:	ee77 7a67 	vsub.f32	s15, s14, s15
    234a:	edc7 7a0a 	vstr	s15, [r7, #40]	; 0x28
    234e:	ed97 7a0f 	vldr	s14, [r7, #60]	; 0x3c
    2352:	edd7 7a0b 	vldr	s15, [r7, #44]	; 0x2c
    2356:	ee77 7a67 	vsub.f32	s15, s14, s15
    235a:	edc7 7a0b 	vstr	s15, [r7, #44]	; 0x2c
    235e:	ed97 7a10 	vldr	s14, [r7, #64]	; 0x40
    2362:	edd7 7a0c 	vldr	s15, [r7, #48]	; 0x30
    2366:	ee77 7a67 	vsub.f32	s15, s14, s15
    236a:	edc7 7a0c 	vstr	s15, [r7, #48]	; 0x30
    236e:	ed97 7a11 	vldr	s14, [r7, #68]	; 0x44
    2372:	edd7 7a0d 	vldr	s15, [r7, #52]	; 0x34
    2376:	ee77 7a67 	vsub.f32	s15, s14, s15
    237a:	edc7 7a0d 	vstr	s15, [r7, #52]	; 0x34
    237e:	6ffb      	ldr	r3, [r7, #124]	; 0x7c
    2380:	1d1a      	adds	r2, r3, #4
    2382:	67fa      	str	r2, [r7, #124]	; 0x7c
    2384:	ed97 7a06 	vldr	s14, [r7, #24]
    2388:	edd7 7a02 	vldr	s15, [r7, #8]
    238c:	ee77 7a27 	vadd.f32	s15, s14, s15
    2390:	edc3 7a00 	vstr	s15, [r3]
    2394:	6ffb      	ldr	r3, [r7, #124]	; 0x7c
    2396:	1d1a      	adds	r2, r3, #4
    2398:	67fa      	str	r2, [r7, #124]	; 0x7c
    239a:	ed97 7a07 	vldr	s14, [r7, #28]
    239e:	edd7 7a03 	vldr	s15, [r7, #12]
    23a2:	ee77 7a27 	vadd.f32	s15, s14, s15
    23a6:	edc3 7a00 	vstr	s15, [r3]
    23aa:	6ffb      	ldr	r3, [r7, #124]	; 0x7c
    23ac:	1d1a      	adds	r2, r3, #4
    23ae:	67fa      	str	r2, [r7, #124]	; 0x7c
    23b0:	ed97 7a08 	vldr	s14, [r7, #32]
    23b4:	edd7 7a04 	vldr	s15, [r7, #16]
    23b8:	ee77 7a27 	vadd.f32	s15, s14, s15
    23bc:	edc3 7a00 	vstr	s15, [r3]
    23c0:	6ffb      	ldr	r3, [r7, #124]	; 0x7c
    23c2:	1d1a      	adds	r2, r3, #4
    23c4:	67fa      	str	r2, [r7, #124]	; 0x7c
    23c6:	ed97 7a09 	vldr	s14, [r7, #36]	; 0x24
    23ca:	edd7 7a05 	vldr	s15, [r7, #20]
    23ce:	ee77 7a27 	vadd.f32	s15, s14, s15
    23d2:	edc3 7a00 	vstr	s15, [r3]
    23d6:	ed97 7a02 	vldr	s14, [r7, #8]
    23da:	edd7 7a06 	vldr	s15, [r7, #24]
    23de:	ee77 7a67 	vsub.f32	s15, s14, s15
    23e2:	edc7 7a02 	vstr	s15, [r7, #8]
    23e6:	ed97 7a03 	vldr	s14, [r7, #12]
    23ea:	edd7 7a07 	vldr	s15, [r7, #28]
    23ee:	ee77 7a67 	vsub.f32	s15, s14, s15
    23f2:	edc7 7a03 	vstr	s15, [r7, #12]
    23f6:	ed97 7a04 	vldr	s14, [r7, #16]
    23fa:	edd7 7a08 	vldr	s15, [r7, #32]
    23fe:	ee77 7a67 	vsub.f32	s15, s14, s15
    2402:	edc7 7a04 	vstr	s15, [r7, #16]
    2406:	ed97 7a05 	vldr	s14, [r7, #20]
    240a:	edd7 7a09 	vldr	s15, [r7, #36]	; 0x24
    240e:	ee77 7a67 	vsub.f32	s15, s14, s15
    2412:	edc7 7a05 	vstr	s15, [r7, #20]
    2416:	6f3b      	ldr	r3, [r7, #112]	; 0x70
    2418:	1d1a      	adds	r2, r3, #4
    241a:	673a      	str	r2, [r7, #112]	; 0x70
    241c:	681b      	ldr	r3, [r3, #0]
    241e:	65fb      	str	r3, [r7, #92]	; 0x5c
    2420:	6f3b      	ldr	r3, [r7, #112]	; 0x70
    2422:	1d1a      	adds	r2, r3, #4
    2424:	673a      	str	r2, [r7, #112]	; 0x70
    2426:	681b      	ldr	r3, [r3, #0]
    2428:	65bb      	str	r3, [r7, #88]	; 0x58
    242a:	ed97 7a0a 	vldr	s14, [r7, #40]	; 0x28
    242e:	edd7 7a17 	vldr	s15, [r7, #92]	; 0x5c
    2432:	ee67 7a27 	vmul.f32	s15, s14, s15
    2436:	edc7 7a15 	vstr	s15, [r7, #84]	; 0x54
    243a:	ed97 7a0b 	vldr	s14, [r7, #44]	; 0x2c
    243e:	edd7 7a16 	vldr	s15, [r7, #88]	; 0x58
    2442:	ee67 7a27 	vmul.f32	s15, s14, s15
    2446:	edc7 7a14 	vstr	s15, [r7, #80]	; 0x50
    244a:	ed97 7a0b 	vldr	s14, [r7, #44]	; 0x2c
    244e:	edd7 7a17 	vldr	s15, [r7, #92]	; 0x5c
    2452:	ee67 7a27 	vmul.f32	s15, s14, s15
    2456:	edc7 7a13 	vstr	s15, [r7, #76]	; 0x4c
    245a:	ed97 7a0a 	vldr	s14, [r7, #40]	; 0x28
    245e:	edd7 7a16 	vldr	s15, [r7, #88]	; 0x58
    2462:	ee67 7a27 	vmul.f32	s15, s14, s15
    2466:	edc7 7a12 	vstr	s15, [r7, #72]	; 0x48
    246a:	6f7b      	ldr	r3, [r7, #116]	; 0x74
    246c:	1d1a      	adds	r2, r3, #4
    246e:	677a      	str	r2, [r7, #116]	; 0x74
    2470:	ed97 7a15 	vldr	s14, [r7, #84]	; 0x54
    2474:	edd7 7a14 	vldr	s15, [r7, #80]	; 0x50
    2478:	ee77 7a27 	vadd.f32	s15, s14, s15
    247c:	edc3 7a00 	vstr	s15, [r3]
    2480:	6f7b      	ldr	r3, [r7, #116]	; 0x74
    2482:	1d1a      	adds	r2, r3, #4
    2484:	677a      	str	r2, [r7, #116]	; 0x74
    2486:	ed97 7a13 	vldr	s14, [r7, #76]	; 0x4c
    248a:	edd7 7a12 	vldr	s15, [r7, #72]	; 0x48
    248e:	ee77 7a67 	vsub.f32	s15, s14, s15
    2492:	edc3 7a00 	vstr	s15, [r3]
    2496:	ed97 7a02 	vldr	s14, [r7, #8]
    249a:	edd7 7a16 	vldr	s15, [r7, #88]	; 0x58
    249e:	ee67 7a27 	vmul.f32	s15, s14, s15
    24a2:	edc7 7a15 	vstr	s15, [r7, #84]	; 0x54
    24a6:	ed97 7a03 	vldr	s14, [r7, #12]
    24aa:	edd7 7a17 	vldr	s15, [r7, #92]	; 0x5c
    24ae:	ee67 7a27 	vmul.f32	s15, s14, s15
    24b2:	edc7 7a14 	vstr	s15, [r7, #80]	; 0x50
    24b6:	ed97 7a03 	vldr	s14, [r7, #12]
    24ba:	edd7 7a16 	vldr	s15, [r7, #88]	; 0x58
    24be:	ee67 7a27 	vmul.f32	s15, s14, s15
    24c2:	edc7 7a13 	vstr	s15, [r7, #76]	; 0x4c
    24c6:	ed97 7a02 	vldr	s14, [r7, #8]
    24ca:	edd7 7a17 	vldr	s15, [r7, #92]	; 0x5c
    24ce:	ee67 7a27 	vmul.f32	s15, s14, s15
    24d2:	edc7 7a12 	vstr	s15, [r7, #72]	; 0x48
    24d6:	6fbb      	ldr	r3, [r7, #120]	; 0x78
    24d8:	1d1a      	adds	r2, r3, #4
    24da:	67ba      	str	r2, [r7, #120]	; 0x78
    24dc:	ed97 7a15 	vldr	s14, [r7, #84]	; 0x54
    24e0:	edd7 7a14 	vldr	s15, [r7, #80]	; 0x50
    24e4:	ee77 7a67 	vsub.f32	s15, s14, s15
    24e8:	edc3 7a00 	vstr	s15, [r3]
    24ec:	6fbb      	ldr	r3, [r7, #120]	; 0x78
    24ee:	1d1a      	adds	r2, r3, #4
    24f0:	67ba      	str	r2, [r7, #120]	; 0x78
    24f2:	ed97 7a13 	vldr	s14, [r7, #76]	; 0x4c
    24f6:	edd7 7a12 	vldr	s15, [r7, #72]	; 0x48
    24fa:	ee77 7a27 	vadd.f32	s15, s14, s15
    24fe:	edc3 7a00 	vstr	s15, [r3]
    2502:	6f3b      	ldr	r3, [r7, #112]	; 0x70
    2504:	1d1a      	adds	r2, r3, #4
    2506:	673a      	str	r2, [r7, #112]	; 0x70
    2508:	681b      	ldr	r3, [r3, #0]
    250a:	65fb      	str	r3, [r7, #92]	; 0x5c
    250c:	6f3b      	ldr	r3, [r7, #112]	; 0x70
    250e:	1d1a      	adds	r2, r3, #4
    2510:	673a      	str	r2, [r7, #112]	; 0x70
    2512:	681b      	ldr	r3, [r3, #0]
    2514:	65bb      	str	r3, [r7, #88]	; 0x58
    2516:	ed97 7a0c 	vldr	s14, [r7, #48]	; 0x30
    251a:	edd7 7a17 	vldr	s15, [r7, #92]	; 0x5c
    251e:	ee67 7a27 	vmul.f32	s15, s14, s15
    2522:	edc7 7a15 	vstr	s15, [r7, #84]	; 0x54
    2526:	ed97 7a0d 	vldr	s14, [r7, #52]	; 0x34
    252a:	edd7 7a16 	vldr	s15, [r7, #88]	; 0x58
    252e:	ee67 7a27 	vmul.f32	s15, s14, s15
    2532:	edc7 7a14 	vstr	s15, [r7, #80]	; 0x50
    2536:	ed97 7a0d 	vldr	s14, [r7, #52]	; 0x34
    253a:	edd7 7a17 	vldr	s15, [r7, #92]	; 0x5c
    253e:	ee67 7a27 	vmul.f32	s15, s14, s15
    2542:	edc7 7a13 	vstr	s15, [r7, #76]	; 0x4c
    2546:	ed97 7a0c 	vldr	s14, [r7, #48]	; 0x30
    254a:	edd7 7a16 	vldr	s15, [r7, #88]	; 0x58
    254e:	ee67 7a27 	vmul.f32	s15, s14, s15
    2552:	edc7 7a12 	vstr	s15, [r7, #72]	; 0x48
    2556:	6f7b      	ldr	r3, [r7, #116]	; 0x74
    2558:	1d1a      	adds	r2, r3, #4
    255a:	677a      	str	r2, [r7, #116]	; 0x74
    255c:	ed97 7a15 	vldr	s14, [r7, #84]	; 0x54
    2560:	edd7 7a14 	vldr	s15, [r7, #80]	; 0x50
    2564:	ee77 7a27 	vadd.f32	s15, s14, s15
    2568:	edc3 7a00 	vstr	s15, [r3]
    256c:	6f7b      	ldr	r3, [r7, #116]	; 0x74
    256e:	1d1a      	adds	r2, r3, #4
    2570:	677a      	str	r2, [r7, #116]	; 0x74
    2572:	ed97 7a13 	vldr	s14, [r7, #76]	; 0x4c
    2576:	edd7 7a12 	vldr	s15, [r7, #72]	; 0x48
    257a:	ee77 7a67 	vsub.f32	s15, s14, s15
    257e:	edc3 7a00 	vstr	s15, [r3]
    2582:	ed97 7a04 	vldr	s14, [r7, #16]
    2586:	edd7 7a16 	vldr	s15, [r7, #88]	; 0x58
    258a:	ee67 7a27 	vmul.f32	s15, s14, s15
    258e:	edc7 7a15 	vstr	s15, [r7, #84]	; 0x54
    2592:	ed97 7a05 	vldr	s14, [r7, #20]
    2596:	edd7 7a17 	vldr	s15, [r7, #92]	; 0x5c
    259a:	ee67 7a27 	vmul.f32	s15, s14, s15
    259e:	edc7 7a14 	vstr	s15, [r7, #80]	; 0x50
    25a2:	ed97 7a05 	vldr	s14, [r7, #20]
    25a6:	edd7 7a16 	vldr	s15, [r7, #88]	; 0x58
    25aa:	ee67 7a27 	vmul.f32	s15, s14, s15
    25ae:	edc7 7a13 	vstr	s15, [r7, #76]	; 0x4c
    25b2:	ed97 7a04 	vldr	s14, [r7, #16]
    25b6:	edd7 7a17 	vldr	s15, [r7, #92]	; 0x5c
    25ba:	ee67 7a27 	vmul.f32	s15, s14, s15
    25be:	edc7 7a12 	vstr	s15, [r7, #72]	; 0x48
    25c2:	6fbb      	ldr	r3, [r7, #120]	; 0x78
    25c4:	1d1a      	adds	r2, r3, #4
    25c6:	67ba      	str	r2, [r7, #120]	; 0x78
    25c8:	ed97 7a15 	vldr	s14, [r7, #84]	; 0x54
    25cc:	edd7 7a14 	vldr	s15, [r7, #80]	; 0x50
    25d0:	ee77 7a67 	vsub.f32	s15, s14, s15
    25d4:	edc3 7a00 	vstr	s15, [r3]
    25d8:	6fbb      	ldr	r3, [r7, #120]	; 0x78
    25da:	1d1a      	adds	r2, r3, #4
    25dc:	67ba      	str	r2, [r7, #120]	; 0x78
    25de:	ed97 7a13 	vldr	s14, [r7, #76]	; 0x4c
    25e2:	edd7 7a12 	vldr	s15, [r7, #72]	; 0x48
    25e6:	ee77 7a27 	vadd.f32	s15, s14, s15
    25ea:	edc3 7a00 	vstr	s15, [r3]
    25ee:	6efb      	ldr	r3, [r7, #108]	; 0x6c
    25f0:	3b01      	subs	r3, #1
    25f2:	66fb      	str	r3, [r7, #108]	; 0x6c
    25f4:	6efb      	ldr	r3, [r7, #108]	; 0x6c
    25f6:	2b00      	cmp	r3, #0
    25f8:	f47f ae45 	bne.w	2286 <arm_cfft_radix8by2_f32+0x4a>
    25fc:	6ebb      	ldr	r3, [r7, #104]	; 0x68
    25fe:	b299      	uxth	r1, r3
    2600:	687b      	ldr	r3, [r7, #4]
    2602:	685a      	ldr	r2, [r3, #4]
    2604:	2302      	movs	r3, #2
    2606:	6e78      	ldr	r0, [r7, #100]	; 0x64
    2608:	f000 fedc 	bl	33c4 <arm_radix8_butterfly_f32>
    260c:	6ebb      	ldr	r3, [r7, #104]	; 0x68
    260e:	b299      	uxth	r1, r3
    2610:	687b      	ldr	r3, [r7, #4]
    2612:	685a      	ldr	r2, [r3, #4]
    2614:	2302      	movs	r3, #2
    2616:	6e38      	ldr	r0, [r7, #96]	; 0x60
    2618:	f000 fed4 	bl	33c4 <arm_radix8_butterfly_f32>
    261c:	bf00      	nop
    261e:	3780      	adds	r7, #128	; 0x80
    2620:	46bd      	mov	sp, r7
    2622:	bd80      	pop	{r7, pc}

00002624 <arm_cfft_radix8by4_f32>:
    2624:	b580      	push	{r7, lr}
    2626:	b0ac      	sub	sp, #176	; 0xb0
    2628:	af00      	add	r7, sp, #0
    262a:	6078      	str	r0, [r7, #4]
    262c:	6039      	str	r1, [r7, #0]
    262e:	687b      	ldr	r3, [r7, #4]
    2630:	881b      	ldrh	r3, [r3, #0]
    2632:	085b      	lsrs	r3, r3, #1
    2634:	b29b      	uxth	r3, r3
    2636:	f8c7 3080 	str.w	r3, [r7, #128]	; 0x80
    263a:	f8d7 3080 	ldr.w	r3, [r7, #128]	; 0x80
    263e:	009b      	lsls	r3, r3, #2
    2640:	683a      	ldr	r2, [r7, #0]
    2642:	4413      	add	r3, r2
    2644:	f8c7 3090 	str.w	r3, [r7, #144]	; 0x90
    2648:	f8d7 3080 	ldr.w	r3, [r7, #128]	; 0x80
    264c:	009b      	lsls	r3, r3, #2
    264e:	f8d7 2090 	ldr.w	r2, [r7, #144]	; 0x90
    2652:	4413      	add	r3, r2
    2654:	f8c7 308c 	str.w	r3, [r7, #140]	; 0x8c
    2658:	f8d7 3080 	ldr.w	r3, [r7, #128]	; 0x80
    265c:	009b      	lsls	r3, r3, #2
    265e:	f8d7 208c 	ldr.w	r2, [r7, #140]	; 0x8c
    2662:	4413      	add	r3, r2
    2664:	f8c7 3088 	str.w	r3, [r7, #136]	; 0x88
    2668:	683b      	ldr	r3, [r7, #0]
    266a:	67fb      	str	r3, [r7, #124]	; 0x7c
    266c:	f8d7 3090 	ldr.w	r3, [r7, #144]	; 0x90
    2670:	67bb      	str	r3, [r7, #120]	; 0x78
    2672:	f8d7 308c 	ldr.w	r3, [r7, #140]	; 0x8c
    2676:	677b      	str	r3, [r7, #116]	; 0x74
    2678:	f8d7 3088 	ldr.w	r3, [r7, #136]	; 0x88
    267c:	673b      	str	r3, [r7, #112]	; 0x70
    267e:	f8d7 3090 	ldr.w	r3, [r7, #144]	; 0x90
    2682:	3b04      	subs	r3, #4
    2684:	f8c7 30ac 	str.w	r3, [r7, #172]	; 0xac
    2688:	f8d7 308c 	ldr.w	r3, [r7, #140]	; 0x8c
    268c:	3b04      	subs	r3, #4
    268e:	f8c7 30a8 	str.w	r3, [r7, #168]	; 0xa8
    2692:	f8d7 3088 	ldr.w	r3, [r7, #136]	; 0x88
    2696:	3b04      	subs	r3, #4
    2698:	f8c7 30a4 	str.w	r3, [r7, #164]	; 0xa4
    269c:	f8d7 3080 	ldr.w	r3, [r7, #128]	; 0x80
    26a0:	009b      	lsls	r3, r3, #2
    26a2:	f8d7 20a4 	ldr.w	r2, [r7, #164]	; 0xa4
    26a6:	4413      	add	r3, r2
    26a8:	f8c7 30a0 	str.w	r3, [r7, #160]	; 0xa0
    26ac:	687b      	ldr	r3, [r7, #4]
    26ae:	685b      	ldr	r3, [r3, #4]
    26b0:	f8c7 3094 	str.w	r3, [r7, #148]	; 0x94
    26b4:	f8d7 3094 	ldr.w	r3, [r7, #148]	; 0x94
    26b8:	f8c7 3098 	str.w	r3, [r7, #152]	; 0x98
    26bc:	f8d7 3098 	ldr.w	r3, [r7, #152]	; 0x98
    26c0:	f8c7 309c 	str.w	r3, [r7, #156]	; 0x9c
    26c4:	f8d7 3080 	ldr.w	r3, [r7, #128]	; 0x80
    26c8:	085b      	lsrs	r3, r3, #1
    26ca:	f8c7 3080 	str.w	r3, [r7, #128]	; 0x80
    26ce:	2302      	movs	r3, #2
    26d0:	66fb      	str	r3, [r7, #108]	; 0x6c
    26d2:	2304      	movs	r3, #4
    26d4:	66bb      	str	r3, [r7, #104]	; 0x68
    26d6:	2306      	movs	r3, #6
    26d8:	667b      	str	r3, [r7, #100]	; 0x64
    26da:	683b      	ldr	r3, [r7, #0]
    26dc:	ed93 7a00 	vldr	s14, [r3]
    26e0:	f8d7 308c 	ldr.w	r3, [r7, #140]	; 0x8c
    26e4:	edd3 7a00 	vldr	s15, [r3]
    26e8:	ee77 7a27 	vadd.f32	s15, s14, s15
    26ec:	edc7 7a18 	vstr	s15, [r7, #96]	; 0x60
    26f0:	683b      	ldr	r3, [r7, #0]
    26f2:	ed93 7a00 	vldr	s14, [r3]
    26f6:	f8d7 308c 	ldr.w	r3, [r7, #140]	; 0x8c
    26fa:	edd3 7a00 	vldr	s15, [r3]
    26fe:	ee77 7a67 	vsub.f32	s15, s14, s15
    2702:	edc7 7a17 	vstr	s15, [r7, #92]	; 0x5c
    2706:	683b      	ldr	r3, [r7, #0]
    2708:	3304      	adds	r3, #4
    270a:	ed93 7a00 	vldr	s14, [r3]
    270e:	f8d7 308c 	ldr.w	r3, [r7, #140]	; 0x8c
    2712:	3304      	adds	r3, #4
    2714:	edd3 7a00 	vldr	s15, [r3]
    2718:	ee77 7a27 	vadd.f32	s15, s14, s15
    271c:	edc7 7a16 	vstr	s15, [r7, #88]	; 0x58
    2720:	683b      	ldr	r3, [r7, #0]
    2722:	3304      	adds	r3, #4
    2724:	ed93 7a00 	vldr	s14, [r3]
    2728:	f8d7 308c 	ldr.w	r3, [r7, #140]	; 0x8c
    272c:	3304      	adds	r3, #4
    272e:	edd3 7a00 	vldr	s15, [r3]
    2732:	ee77 7a67 	vsub.f32	s15, s14, s15
    2736:	edc7 7a15 	vstr	s15, [r7, #84]	; 0x54
    273a:	f8d7 3090 	ldr.w	r3, [r7, #144]	; 0x90
    273e:	3304      	adds	r3, #4
    2740:	ed93 7a00 	vldr	s14, [r3]
    2744:	edd7 7a17 	vldr	s15, [r7, #92]	; 0x5c
    2748:	ee37 7a27 	vadd.f32	s14, s14, s15
    274c:	f8d7 3088 	ldr.w	r3, [r7, #136]	; 0x88
    2750:	3304      	adds	r3, #4
    2752:	edd3 7a00 	vldr	s15, [r3]
    2756:	ee77 7a67 	vsub.f32	s15, s14, s15
    275a:	edc7 7a0b 	vstr	s15, [r7, #44]	; 0x2c
    275e:	f8d7 3090 	ldr.w	r3, [r7, #144]	; 0x90
    2762:	edd3 7a00 	vldr	s15, [r3]
    2766:	ed97 7a15 	vldr	s14, [r7, #84]	; 0x54
    276a:	ee37 7a67 	vsub.f32	s14, s14, s15
    276e:	f8d7 3088 	ldr.w	r3, [r7, #136]	; 0x88
    2772:	edd3 7a00 	vldr	s15, [r3]
    2776:	ee77 7a27 	vadd.f32	s15, s14, s15
    277a:	edc7 7a0c 	vstr	s15, [r7, #48]	; 0x30
    277e:	f8d7 3090 	ldr.w	r3, [r7, #144]	; 0x90
    2782:	edd3 7a00 	vldr	s15, [r3]
    2786:	ed97 7a18 	vldr	s14, [r7, #96]	; 0x60
    278a:	ee37 7a67 	vsub.f32	s14, s14, s15
    278e:	f8d7 3088 	ldr.w	r3, [r7, #136]	; 0x88
    2792:	edd3 7a00 	vldr	s15, [r3]
    2796:	ee77 7a67 	vsub.f32	s15, s14, s15
    279a:	edc7 7a07 	vstr	s15, [r7, #28]
    279e:	f8d7 3090 	ldr.w	r3, [r7, #144]	; 0x90
    27a2:	3304      	adds	r3, #4
    27a4:	edd3 7a00 	vldr	s15, [r3]
    27a8:	ed97 7a16 	vldr	s14, [r7, #88]	; 0x58
    27ac:	ee37 7a67 	vsub.f32	s14, s14, s15
    27b0:	f8d7 3088 	ldr.w	r3, [r7, #136]	; 0x88
    27b4:	3304      	adds	r3, #4
    27b6:	edd3 7a00 	vldr	s15, [r3]
    27ba:	ee77 7a67 	vsub.f32	s15, s14, s15
    27be:	edc7 7a08 	vstr	s15, [r7, #32]
    27c2:	f8d7 3090 	ldr.w	r3, [r7, #144]	; 0x90
    27c6:	3304      	adds	r3, #4
    27c8:	edd3 7a00 	vldr	s15, [r3]
    27cc:	ed97 7a17 	vldr	s14, [r7, #92]	; 0x5c
    27d0:	ee37 7a67 	vsub.f32	s14, s14, s15
    27d4:	f8d7 3088 	ldr.w	r3, [r7, #136]	; 0x88
    27d8:	3304      	adds	r3, #4
    27da:	edd3 7a00 	vldr	s15, [r3]
    27de:	ee77 7a27 	vadd.f32	s15, s14, s15
    27e2:	edc7 7a03 	vstr	s15, [r7, #12]
    27e6:	f8d7 3090 	ldr.w	r3, [r7, #144]	; 0x90
    27ea:	ed93 7a00 	vldr	s14, [r3]
    27ee:	edd7 7a15 	vldr	s15, [r7, #84]	; 0x54
    27f2:	ee37 7a27 	vadd.f32	s14, s14, s15
    27f6:	f8d7 3088 	ldr.w	r3, [r7, #136]	; 0x88
    27fa:	edd3 7a00 	vldr	s15, [r3]
    27fe:	ee77 7a67 	vsub.f32	s15, s14, s15
    2802:	edc7 7a04 	vstr	s15, [r7, #16]
    2806:	683b      	ldr	r3, [r7, #0]
    2808:	1d1a      	adds	r2, r3, #4
    280a:	603a      	str	r2, [r7, #0]
    280c:	f8d7 2090 	ldr.w	r2, [r7, #144]	; 0x90
    2810:	ed92 7a00 	vldr	s14, [r2]
    2814:	edd7 7a18 	vldr	s15, [r7, #96]	; 0x60
    2818:	ee37 7a27 	vadd.f32	s14, s14, s15
    281c:	f8d7 2088 	ldr.w	r2, [r7, #136]	; 0x88
    2820:	edd2 7a00 	vldr	s15, [r2]
    2824:	ee77 7a27 	vadd.f32	s15, s14, s15
    2828:	edc3 7a00 	vstr	s15, [r3]
    282c:	683b      	ldr	r3, [r7, #0]
    282e:	1d1a      	adds	r2, r3, #4
    2830:	603a      	str	r2, [r7, #0]
    2832:	f8d7 2090 	ldr.w	r2, [r7, #144]	; 0x90
    2836:	3204      	adds	r2, #4
    2838:	ed92 7a00 	vldr	s14, [r2]
    283c:	edd7 7a16 	vldr	s15, [r7, #88]	; 0x58
    2840:	ee37 7a27 	vadd.f32	s14, s14, s15
    2844:	f8d7 2088 	ldr.w	r2, [r7, #136]	; 0x88
    2848:	3204      	adds	r2, #4
    284a:	edd2 7a00 	vldr	s15, [r2]
    284e:	ee77 7a27 	vadd.f32	s15, s14, s15
    2852:	edc3 7a00 	vstr	s15, [r3]
    2856:	f8d7 3090 	ldr.w	r3, [r7, #144]	; 0x90
    285a:	1d1a      	adds	r2, r3, #4
    285c:	f8c7 2090 	str.w	r2, [r7, #144]	; 0x90
    2860:	6afa      	ldr	r2, [r7, #44]	; 0x2c
    2862:	601a      	str	r2, [r3, #0]
    2864:	f8d7 3090 	ldr.w	r3, [r7, #144]	; 0x90
    2868:	1d1a      	adds	r2, r3, #4
    286a:	f8c7 2090 	str.w	r2, [r7, #144]	; 0x90
    286e:	6b3a      	ldr	r2, [r7, #48]	; 0x30
    2870:	601a      	str	r2, [r3, #0]
    2872:	f8d7 308c 	ldr.w	r3, [r7, #140]	; 0x8c
    2876:	1d1a      	adds	r2, r3, #4
    2878:	f8c7 208c 	str.w	r2, [r7, #140]	; 0x8c
    287c:	69fa      	ldr	r2, [r7, #28]
    287e:	601a      	str	r2, [r3, #0]
    2880:	f8d7 308c 	ldr.w	r3, [r7, #140]	; 0x8c
    2884:	1d1a      	adds	r2, r3, #4
    2886:	f8c7 208c 	str.w	r2, [r7, #140]	; 0x8c
    288a:	6a3a      	ldr	r2, [r7, #32]
    288c:	601a      	str	r2, [r3, #0]
    288e:	f8d7 3088 	ldr.w	r3, [r7, #136]	; 0x88
    2892:	1d1a      	adds	r2, r3, #4
    2894:	f8c7 2088 	str.w	r2, [r7, #136]	; 0x88
    2898:	68fa      	ldr	r2, [r7, #12]
    289a:	601a      	str	r2, [r3, #0]
    289c:	f8d7 3088 	ldr.w	r3, [r7, #136]	; 0x88
    28a0:	1d1a      	adds	r2, r3, #4
    28a2:	f8c7 2088 	str.w	r2, [r7, #136]	; 0x88
    28a6:	693a      	ldr	r2, [r7, #16]
    28a8:	601a      	str	r2, [r3, #0]
    28aa:	6efb      	ldr	r3, [r7, #108]	; 0x6c
    28ac:	009b      	lsls	r3, r3, #2
    28ae:	f8d7 209c 	ldr.w	r2, [r7, #156]	; 0x9c
    28b2:	4413      	add	r3, r2
    28b4:	f8c7 309c 	str.w	r3, [r7, #156]	; 0x9c
    28b8:	6ebb      	ldr	r3, [r7, #104]	; 0x68
    28ba:	009b      	lsls	r3, r3, #2
    28bc:	f8d7 2098 	ldr.w	r2, [r7, #152]	; 0x98
    28c0:	4413      	add	r3, r2
    28c2:	f8c7 3098 	str.w	r3, [r7, #152]	; 0x98
    28c6:	6e7b      	ldr	r3, [r7, #100]	; 0x64
    28c8:	009b      	lsls	r3, r3, #2
    28ca:	f8d7 2094 	ldr.w	r2, [r7, #148]	; 0x94
    28ce:	4413      	add	r3, r2
    28d0:	f8c7 3094 	str.w	r3, [r7, #148]	; 0x94
    28d4:	f8d7 3080 	ldr.w	r3, [r7, #128]	; 0x80
    28d8:	3b02      	subs	r3, #2
    28da:	085b      	lsrs	r3, r3, #1
    28dc:	f8c7 3084 	str.w	r3, [r7, #132]	; 0x84
    28e0:	e31a      	b.n	2f18 <arm_cfft_radix8by4_f32+0x8f4>
    28e2:	683b      	ldr	r3, [r7, #0]
    28e4:	ed93 7a00 	vldr	s14, [r3]
    28e8:	f8d7 308c 	ldr.w	r3, [r7, #140]	; 0x8c
    28ec:	edd3 7a00 	vldr	s15, [r3]
    28f0:	ee77 7a27 	vadd.f32	s15, s14, s15
    28f4:	edc7 7a18 	vstr	s15, [r7, #96]	; 0x60
    28f8:	683b      	ldr	r3, [r7, #0]
    28fa:	ed93 7a00 	vldr	s14, [r3]
    28fe:	f8d7 308c 	ldr.w	r3, [r7, #140]	; 0x8c
    2902:	edd3 7a00 	vldr	s15, [r3]
    2906:	ee77 7a67 	vsub.f32	s15, s14, s15
    290a:	edc7 7a17 	vstr	s15, [r7, #92]	; 0x5c
    290e:	683b      	ldr	r3, [r7, #0]
    2910:	3304      	adds	r3, #4
    2912:	ed93 7a00 	vldr	s14, [r3]
    2916:	f8d7 308c 	ldr.w	r3, [r7, #140]	; 0x8c
    291a:	3304      	adds	r3, #4
    291c:	edd3 7a00 	vldr	s15, [r3]
    2920:	ee77 7a27 	vadd.f32	s15, s14, s15
    2924:	edc7 7a16 	vstr	s15, [r7, #88]	; 0x58
    2928:	683b      	ldr	r3, [r7, #0]
    292a:	3304      	adds	r3, #4
    292c:	ed93 7a00 	vldr	s14, [r3]
    2930:	f8d7 308c 	ldr.w	r3, [r7, #140]	; 0x8c
    2934:	3304      	adds	r3, #4
    2936:	edd3 7a00 	vldr	s15, [r3]
    293a:	ee77 7a67 	vsub.f32	s15, s14, s15
    293e:	edc7 7a15 	vstr	s15, [r7, #84]	; 0x54
    2942:	f8d7 3090 	ldr.w	r3, [r7, #144]	; 0x90
    2946:	3304      	adds	r3, #4
    2948:	ed93 7a00 	vldr	s14, [r3]
    294c:	edd7 7a17 	vldr	s15, [r7, #92]	; 0x5c
    2950:	ee37 7a27 	vadd.f32	s14, s14, s15
    2954:	f8d7 3088 	ldr.w	r3, [r7, #136]	; 0x88
    2958:	3304      	adds	r3, #4
    295a:	edd3 7a00 	vldr	s15, [r3]
    295e:	ee77 7a67 	vsub.f32	s15, s14, s15
    2962:	edc7 7a0b 	vstr	s15, [r7, #44]	; 0x2c
    2966:	f8d7 3090 	ldr.w	r3, [r7, #144]	; 0x90
    296a:	edd3 7a00 	vldr	s15, [r3]
    296e:	ed97 7a15 	vldr	s14, [r7, #84]	; 0x54
    2972:	ee37 7a67 	vsub.f32	s14, s14, s15
    2976:	f8d7 3088 	ldr.w	r3, [r7, #136]	; 0x88
    297a:	edd3 7a00 	vldr	s15, [r3]
    297e:	ee77 7a27 	vadd.f32	s15, s14, s15
    2982:	edc7 7a0c 	vstr	s15, [r7, #48]	; 0x30
    2986:	f8d7 3090 	ldr.w	r3, [r7, #144]	; 0x90
    298a:	edd3 7a00 	vldr	s15, [r3]
    298e:	ed97 7a18 	vldr	s14, [r7, #96]	; 0x60
    2992:	ee37 7a67 	vsub.f32	s14, s14, s15
    2996:	f8d7 3088 	ldr.w	r3, [r7, #136]	; 0x88
    299a:	edd3 7a00 	vldr	s15, [r3]
    299e:	ee77 7a67 	vsub.f32	s15, s14, s15
    29a2:	edc7 7a07 	vstr	s15, [r7, #28]
    29a6:	f8d7 3090 	ldr.w	r3, [r7, #144]	; 0x90
    29aa:	3304      	adds	r3, #4
    29ac:	edd3 7a00 	vldr	s15, [r3]
    29b0:	ed97 7a16 	vldr	s14, [r7, #88]	; 0x58
    29b4:	ee37 7a67 	vsub.f32	s14, s14, s15
    29b8:	f8d7 3088 	ldr.w	r3, [r7, #136]	; 0x88
    29bc:	3304      	adds	r3, #4
    29be:	edd3 7a00 	vldr	s15, [r3]
    29c2:	ee77 7a67 	vsub.f32	s15, s14, s15
    29c6:	edc7 7a08 	vstr	s15, [r7, #32]
    29ca:	f8d7 3090 	ldr.w	r3, [r7, #144]	; 0x90
    29ce:	3304      	adds	r3, #4
    29d0:	edd3 7a00 	vldr	s15, [r3]
    29d4:	ed97 7a17 	vldr	s14, [r7, #92]	; 0x5c
    29d8:	ee37 7a67 	vsub.f32	s14, s14, s15
    29dc:	f8d7 3088 	ldr.w	r3, [r7, #136]	; 0x88
    29e0:	3304      	adds	r3, #4
    29e2:	edd3 7a00 	vldr	s15, [r3]
    29e6:	ee77 7a27 	vadd.f32	s15, s14, s15
    29ea:	edc7 7a03 	vstr	s15, [r7, #12]
    29ee:	f8d7 3090 	ldr.w	r3, [r7, #144]	; 0x90
    29f2:	ed93 7a00 	vldr	s14, [r3]
    29f6:	edd7 7a15 	vldr	s15, [r7, #84]	; 0x54
    29fa:	ee37 7a27 	vadd.f32	s14, s14, s15
    29fe:	f8d7 3088 	ldr.w	r3, [r7, #136]	; 0x88
    2a02:	edd3 7a00 	vldr	s15, [r3]
    2a06:	ee77 7a67 	vsub.f32	s15, s14, s15
    2a0a:	edc7 7a04 	vstr	s15, [r7, #16]
    2a0e:	683b      	ldr	r3, [r7, #0]
    2a10:	1d1a      	adds	r2, r3, #4
    2a12:	603a      	str	r2, [r7, #0]
    2a14:	f8d7 2090 	ldr.w	r2, [r7, #144]	; 0x90
    2a18:	ed92 7a00 	vldr	s14, [r2]
    2a1c:	edd7 7a18 	vldr	s15, [r7, #96]	; 0x60
    2a20:	ee37 7a27 	vadd.f32	s14, s14, s15
    2a24:	f8d7 2088 	ldr.w	r2, [r7, #136]	; 0x88
    2a28:	edd2 7a00 	vldr	s15, [r2]
    2a2c:	ee77 7a27 	vadd.f32	s15, s14, s15
    2a30:	edc3 7a00 	vstr	s15, [r3]
    2a34:	683b      	ldr	r3, [r7, #0]
    2a36:	1d1a      	adds	r2, r3, #4
    2a38:	603a      	str	r2, [r7, #0]
    2a3a:	f8d7 2090 	ldr.w	r2, [r7, #144]	; 0x90
    2a3e:	3204      	adds	r2, #4
    2a40:	ed92 7a00 	vldr	s14, [r2]
    2a44:	edd7 7a16 	vldr	s15, [r7, #88]	; 0x58
    2a48:	ee37 7a27 	vadd.f32	s14, s14, s15
    2a4c:	f8d7 2088 	ldr.w	r2, [r7, #136]	; 0x88
    2a50:	3204      	adds	r2, #4
    2a52:	edd2 7a00 	vldr	s15, [r2]
    2a56:	ee77 7a27 	vadd.f32	s15, s14, s15
    2a5a:	edc3 7a00 	vstr	s15, [r3]
    2a5e:	f8d7 30ac 	ldr.w	r3, [r7, #172]	; 0xac
    2a62:	3b04      	subs	r3, #4
    2a64:	ed93 7a00 	vldr	s14, [r3]
    2a68:	f8d7 30a4 	ldr.w	r3, [r7, #164]	; 0xa4
    2a6c:	3b04      	subs	r3, #4
    2a6e:	edd3 7a00 	vldr	s15, [r3]
    2a72:	ee77 7a27 	vadd.f32	s15, s14, s15
    2a76:	edc7 7a16 	vstr	s15, [r7, #88]	; 0x58
    2a7a:	f8d7 30ac 	ldr.w	r3, [r7, #172]	; 0xac
    2a7e:	3b04      	subs	r3, #4
    2a80:	ed93 7a00 	vldr	s14, [r3]
    2a84:	f8d7 30a4 	ldr.w	r3, [r7, #164]	; 0xa4
    2a88:	3b04      	subs	r3, #4
    2a8a:	edd3 7a00 	vldr	s15, [r3]
    2a8e:	ee77 7a67 	vsub.f32	s15, s14, s15
    2a92:	edc7 7a15 	vstr	s15, [r7, #84]	; 0x54
    2a96:	f8d7 30ac 	ldr.w	r3, [r7, #172]	; 0xac
    2a9a:	ed93 7a00 	vldr	s14, [r3]
    2a9e:	f8d7 30a4 	ldr.w	r3, [r7, #164]	; 0xa4
    2aa2:	edd3 7a00 	vldr	s15, [r3]
    2aa6:	ee77 7a27 	vadd.f32	s15, s14, s15
    2aaa:	edc7 7a18 	vstr	s15, [r7, #96]	; 0x60
    2aae:	f8d7 30ac 	ldr.w	r3, [r7, #172]	; 0xac
    2ab2:	ed93 7a00 	vldr	s14, [r3]
    2ab6:	f8d7 30a4 	ldr.w	r3, [r7, #164]	; 0xa4
    2aba:	edd3 7a00 	vldr	s15, [r3]
    2abe:	ee77 7a67 	vsub.f32	s15, s14, s15
    2ac2:	edc7 7a17 	vstr	s15, [r7, #92]	; 0x5c
    2ac6:	f8d7 30a8 	ldr.w	r3, [r7, #168]	; 0xa8
    2aca:	ed93 7a00 	vldr	s14, [r3]
    2ace:	f8d7 30a0 	ldr.w	r3, [r7, #160]	; 0xa0
    2ad2:	edd3 7a00 	vldr	s15, [r3]
    2ad6:	ee37 7a67 	vsub.f32	s14, s14, s15
    2ada:	edd7 7a15 	vldr	s15, [r7, #84]	; 0x54
    2ade:	ee77 7a27 	vadd.f32	s15, s14, s15
    2ae2:	edc7 7a0d 	vstr	s15, [r7, #52]	; 0x34
    2ae6:	f8d7 30ac 	ldr.w	r3, [r7, #172]	; 0xac
    2aea:	ed93 7a00 	vldr	s14, [r3]
    2aee:	f8d7 30a4 	ldr.w	r3, [r7, #164]	; 0xa4
    2af2:	edd3 7a00 	vldr	s15, [r3]
    2af6:	ee37 7a67 	vsub.f32	s14, s14, s15
    2afa:	f8d7 30a8 	ldr.w	r3, [r7, #168]	; 0xa8
    2afe:	3b04      	subs	r3, #4
    2b00:	edd3 7a00 	vldr	s15, [r3]
    2b04:	ee37 7a67 	vsub.f32	s14, s14, s15
    2b08:	f8d7 30a0 	ldr.w	r3, [r7, #160]	; 0xa0
    2b0c:	3b04      	subs	r3, #4
    2b0e:	edd3 7a00 	vldr	s15, [r3]
    2b12:	ee77 7a27 	vadd.f32	s15, s14, s15
    2b16:	edc7 7a0e 	vstr	s15, [r7, #56]	; 0x38
    2b1a:	f8d7 30a8 	ldr.w	r3, [r7, #168]	; 0xa8
    2b1e:	3b04      	subs	r3, #4
    2b20:	edd3 7a00 	vldr	s15, [r3]
    2b24:	ed97 7a16 	vldr	s14, [r7, #88]	; 0x58
    2b28:	ee37 7a67 	vsub.f32	s14, s14, s15
    2b2c:	f8d7 30a0 	ldr.w	r3, [r7, #160]	; 0xa0
    2b30:	3b04      	subs	r3, #4
    2b32:	edd3 7a00 	vldr	s15, [r3]
    2b36:	ee77 7a67 	vsub.f32	s15, s14, s15
    2b3a:	edc7 7a09 	vstr	s15, [r7, #36]	; 0x24
    2b3e:	f8d7 30a8 	ldr.w	r3, [r7, #168]	; 0xa8
    2b42:	edd3 7a00 	vldr	s15, [r3]
    2b46:	ed97 7a18 	vldr	s14, [r7, #96]	; 0x60
    2b4a:	ee37 7a67 	vsub.f32	s14, s14, s15
    2b4e:	f8d7 30a0 	ldr.w	r3, [r7, #160]	; 0xa0
    2b52:	edd3 7a00 	vldr	s15, [r3]
    2b56:	ee77 7a67 	vsub.f32	s15, s14, s15
    2b5a:	edc7 7a0a 	vstr	s15, [r7, #40]	; 0x28
    2b5e:	f8d7 30a8 	ldr.w	r3, [r7, #168]	; 0xa8
    2b62:	ed93 7a00 	vldr	s14, [r3]
    2b66:	f8d7 30a0 	ldr.w	r3, [r7, #160]	; 0xa0
    2b6a:	edd3 7a00 	vldr	s15, [r3]
    2b6e:	ee37 7a67 	vsub.f32	s14, s14, s15
    2b72:	edd7 7a15 	vldr	s15, [r7, #84]	; 0x54
    2b76:	ee77 7a67 	vsub.f32	s15, s14, s15
    2b7a:	edc7 7a05 	vstr	s15, [r7, #20]
    2b7e:	f8d7 30a0 	ldr.w	r3, [r7, #160]	; 0xa0
    2b82:	3b04      	subs	r3, #4
    2b84:	ed93 7a00 	vldr	s14, [r3]
    2b88:	f8d7 30a8 	ldr.w	r3, [r7, #168]	; 0xa8
    2b8c:	3b04      	subs	r3, #4
    2b8e:	edd3 7a00 	vldr	s15, [r3]
    2b92:	ee37 7a67 	vsub.f32	s14, s14, s15
    2b96:	edd7 7a17 	vldr	s15, [r7, #92]	; 0x5c
    2b9a:	ee77 7a67 	vsub.f32	s15, s14, s15
    2b9e:	edc7 7a06 	vstr	s15, [r7, #24]
    2ba2:	f8d7 30ac 	ldr.w	r3, [r7, #172]	; 0xac
    2ba6:	1f1a      	subs	r2, r3, #4
    2ba8:	f8c7 20ac 	str.w	r2, [r7, #172]	; 0xac
    2bac:	f8d7 20a8 	ldr.w	r2, [r7, #168]	; 0xa8
    2bb0:	ed92 7a00 	vldr	s14, [r2]
    2bb4:	edd7 7a18 	vldr	s15, [r7, #96]	; 0x60
    2bb8:	ee37 7a27 	vadd.f32	s14, s14, s15
    2bbc:	f8d7 20a0 	ldr.w	r2, [r7, #160]	; 0xa0
    2bc0:	edd2 7a00 	vldr	s15, [r2]
    2bc4:	ee77 7a27 	vadd.f32	s15, s14, s15
    2bc8:	edc3 7a00 	vstr	s15, [r3]
    2bcc:	f8d7 30ac 	ldr.w	r3, [r7, #172]	; 0xac
    2bd0:	1f1a      	subs	r2, r3, #4
    2bd2:	f8c7 20ac 	str.w	r2, [r7, #172]	; 0xac
    2bd6:	f8d7 20a8 	ldr.w	r2, [r7, #168]	; 0xa8
    2bda:	3a04      	subs	r2, #4
    2bdc:	ed92 7a00 	vldr	s14, [r2]
    2be0:	edd7 7a16 	vldr	s15, [r7, #88]	; 0x58
    2be4:	ee37 7a27 	vadd.f32	s14, s14, s15
    2be8:	f8d7 20a0 	ldr.w	r2, [r7, #160]	; 0xa0
    2bec:	3a04      	subs	r2, #4
    2bee:	edd2 7a00 	vldr	s15, [r2]
    2bf2:	ee77 7a27 	vadd.f32	s15, s14, s15
    2bf6:	edc3 7a00 	vstr	s15, [r3]
    2bfa:	f8d7 309c 	ldr.w	r3, [r7, #156]	; 0x9c
    2bfe:	1d1a      	adds	r2, r3, #4
    2c00:	f8c7 209c 	str.w	r2, [r7, #156]	; 0x9c
    2c04:	681b      	ldr	r3, [r3, #0]
    2c06:	653b      	str	r3, [r7, #80]	; 0x50
    2c08:	f8d7 309c 	ldr.w	r3, [r7, #156]	; 0x9c
    2c0c:	1d1a      	adds	r2, r3, #4
    2c0e:	f8c7 209c 	str.w	r2, [r7, #156]	; 0x9c
    2c12:	681b      	ldr	r3, [r3, #0]
    2c14:	64fb      	str	r3, [r7, #76]	; 0x4c
    2c16:	ed97 7a0b 	vldr	s14, [r7, #44]	; 0x2c
    2c1a:	edd7 7a14 	vldr	s15, [r7, #80]	; 0x50
    2c1e:	ee67 7a27 	vmul.f32	s15, s14, s15
    2c22:	edc7 7a12 	vstr	s15, [r7, #72]	; 0x48
    2c26:	ed97 7a0c 	vldr	s14, [r7, #48]	; 0x30
    2c2a:	edd7 7a13 	vldr	s15, [r7, #76]	; 0x4c
    2c2e:	ee67 7a27 	vmul.f32	s15, s14, s15
    2c32:	edc7 7a11 	vstr	s15, [r7, #68]	; 0x44
    2c36:	ed97 7a0c 	vldr	s14, [r7, #48]	; 0x30
    2c3a:	edd7 7a14 	vldr	s15, [r7, #80]	; 0x50
    2c3e:	ee67 7a27 	vmul.f32	s15, s14, s15
    2c42:	edc7 7a10 	vstr	s15, [r7, #64]	; 0x40
    2c46:	ed97 7a0b 	vldr	s14, [r7, #44]	; 0x2c
    2c4a:	edd7 7a13 	vldr	s15, [r7, #76]	; 0x4c
    2c4e:	ee67 7a27 	vmul.f32	s15, s14, s15
    2c52:	edc7 7a0f 	vstr	s15, [r7, #60]	; 0x3c
    2c56:	f8d7 3090 	ldr.w	r3, [r7, #144]	; 0x90
    2c5a:	1d1a      	adds	r2, r3, #4
    2c5c:	f8c7 2090 	str.w	r2, [r7, #144]	; 0x90
    2c60:	ed97 7a12 	vldr	s14, [r7, #72]	; 0x48
    2c64:	edd7 7a11 	vldr	s15, [r7, #68]	; 0x44
    2c68:	ee77 7a27 	vadd.f32	s15, s14, s15
    2c6c:	edc3 7a00 	vstr	s15, [r3]
    2c70:	f8d7 3090 	ldr.w	r3, [r7, #144]	; 0x90
    2c74:	1d1a      	adds	r2, r3, #4
    2c76:	f8c7 2090 	str.w	r2, [r7, #144]	; 0x90
    2c7a:	ed97 7a10 	vldr	s14, [r7, #64]	; 0x40
    2c7e:	edd7 7a0f 	vldr	s15, [r7, #60]	; 0x3c
    2c82:	ee77 7a67 	vsub.f32	s15, s14, s15
    2c86:	edc3 7a00 	vstr	s15, [r3]
    2c8a:	ed97 7a0e 	vldr	s14, [r7, #56]	; 0x38
    2c8e:	edd7 7a13 	vldr	s15, [r7, #76]	; 0x4c
    2c92:	ee67 7a27 	vmul.f32	s15, s14, s15
    2c96:	edc7 7a12 	vstr	s15, [r7, #72]	; 0x48
    2c9a:	ed97 7a0d 	vldr	s14, [r7, #52]	; 0x34
    2c9e:	edd7 7a14 	vldr	s15, [r7, #80]	; 0x50
    2ca2:	ee67 7a27 	vmul.f32	s15, s14, s15
    2ca6:	edc7 7a11 	vstr	s15, [r7, #68]	; 0x44
    2caa:	ed97 7a0d 	vldr	s14, [r7, #52]	; 0x34
    2cae:	edd7 7a13 	vldr	s15, [r7, #76]	; 0x4c
    2cb2:	ee67 7a27 	vmul.f32	s15, s14, s15
    2cb6:	edc7 7a10 	vstr	s15, [r7, #64]	; 0x40
    2cba:	ed97 7a0e 	vldr	s14, [r7, #56]	; 0x38
    2cbe:	edd7 7a14 	vldr	s15, [r7, #80]	; 0x50
    2cc2:	ee67 7a27 	vmul.f32	s15, s14, s15
    2cc6:	edc7 7a0f 	vstr	s15, [r7, #60]	; 0x3c
    2cca:	f8d7 30a8 	ldr.w	r3, [r7, #168]	; 0xa8
    2cce:	1f1a      	subs	r2, r3, #4
    2cd0:	f8c7 20a8 	str.w	r2, [r7, #168]	; 0xa8
    2cd4:	ed97 7a12 	vldr	s14, [r7, #72]	; 0x48
    2cd8:	edd7 7a11 	vldr	s15, [r7, #68]	; 0x44
    2cdc:	ee77 7a67 	vsub.f32	s15, s14, s15
    2ce0:	edc3 7a00 	vstr	s15, [r3]
    2ce4:	f8d7 30a8 	ldr.w	r3, [r7, #168]	; 0xa8
    2ce8:	1f1a      	subs	r2, r3, #4
    2cea:	f8c7 20a8 	str.w	r2, [r7, #168]	; 0xa8
    2cee:	ed97 7a10 	vldr	s14, [r7, #64]	; 0x40
    2cf2:	edd7 7a0f 	vldr	s15, [r7, #60]	; 0x3c
    2cf6:	ee77 7a27 	vadd.f32	s15, s14, s15
    2cfa:	edc3 7a00 	vstr	s15, [r3]
    2cfe:	f8d7 3098 	ldr.w	r3, [r7, #152]	; 0x98
    2d02:	681b      	ldr	r3, [r3, #0]
    2d04:	653b      	str	r3, [r7, #80]	; 0x50
    2d06:	f8d7 3098 	ldr.w	r3, [r7, #152]	; 0x98
    2d0a:	685b      	ldr	r3, [r3, #4]
    2d0c:	64fb      	str	r3, [r7, #76]	; 0x4c
    2d0e:	6ebb      	ldr	r3, [r7, #104]	; 0x68
    2d10:	009b      	lsls	r3, r3, #2
    2d12:	f8d7 2098 	ldr.w	r2, [r7, #152]	; 0x98
    2d16:	4413      	add	r3, r2
    2d18:	f8c7 3098 	str.w	r3, [r7, #152]	; 0x98
    2d1c:	ed97 7a07 	vldr	s14, [r7, #28]
    2d20:	edd7 7a14 	vldr	s15, [r7, #80]	; 0x50
    2d24:	ee67 7a27 	vmul.f32	s15, s14, s15
    2d28:	edc7 7a12 	vstr	s15, [r7, #72]	; 0x48
    2d2c:	ed97 7a08 	vldr	s14, [r7, #32]
    2d30:	edd7 7a13 	vldr	s15, [r7, #76]	; 0x4c
    2d34:	ee67 7a27 	vmul.f32	s15, s14, s15
    2d38:	edc7 7a11 	vstr	s15, [r7, #68]	; 0x44
    2d3c:	ed97 7a08 	vldr	s14, [r7, #32]
    2d40:	edd7 7a14 	vldr	s15, [r7, #80]	; 0x50
    2d44:	ee67 7a27 	vmul.f32	s15, s14, s15
    2d48:	edc7 7a10 	vstr	s15, [r7, #64]	; 0x40
    2d4c:	ed97 7a07 	vldr	s14, [r7, #28]
    2d50:	edd7 7a13 	vldr	s15, [r7, #76]	; 0x4c
    2d54:	ee67 7a27 	vmul.f32	s15, s14, s15
    2d58:	edc7 7a0f 	vstr	s15, [r7, #60]	; 0x3c
    2d5c:	f8d7 308c 	ldr.w	r3, [r7, #140]	; 0x8c
    2d60:	1d1a      	adds	r2, r3, #4
    2d62:	f8c7 208c 	str.w	r2, [r7, #140]	; 0x8c
    2d66:	ed97 7a12 	vldr	s14, [r7, #72]	; 0x48
    2d6a:	edd7 7a11 	vldr	s15, [r7, #68]	; 0x44
    2d6e:	ee77 7a27 	vadd.f32	s15, s14, s15
    2d72:	edc3 7a00 	vstr	s15, [r3]
    2d76:	f8d7 308c 	ldr.w	r3, [r7, #140]	; 0x8c
    2d7a:	1d1a      	adds	r2, r3, #4
    2d7c:	f8c7 208c 	str.w	r2, [r7, #140]	; 0x8c
    2d80:	ed97 7a10 	vldr	s14, [r7, #64]	; 0x40
    2d84:	edd7 7a0f 	vldr	s15, [r7, #60]	; 0x3c
    2d88:	ee77 7a67 	vsub.f32	s15, s14, s15
    2d8c:	edc3 7a00 	vstr	s15, [r3]
    2d90:	edd7 7a0a 	vldr	s15, [r7, #40]	; 0x28
    2d94:	eeb1 7a67 	vneg.f32	s14, s15
    2d98:	edd7 7a14 	vldr	s15, [r7, #80]	; 0x50
    2d9c:	ee67 7a27 	vmul.f32	s15, s14, s15
    2da0:	edc7 7a12 	vstr	s15, [r7, #72]	; 0x48
    2da4:	ed97 7a09 	vldr	s14, [r7, #36]	; 0x24
    2da8:	edd7 7a13 	vldr	s15, [r7, #76]	; 0x4c
    2dac:	ee67 7a27 	vmul.f32	s15, s14, s15
    2db0:	edc7 7a11 	vstr	s15, [r7, #68]	; 0x44
    2db4:	ed97 7a09 	vldr	s14, [r7, #36]	; 0x24
    2db8:	edd7 7a14 	vldr	s15, [r7, #80]	; 0x50
    2dbc:	ee67 7a27 	vmul.f32	s15, s14, s15
    2dc0:	edc7 7a10 	vstr	s15, [r7, #64]	; 0x40
    2dc4:	ed97 7a0a 	vldr	s14, [r7, #40]	; 0x28
    2dc8:	edd7 7a13 	vldr	s15, [r7, #76]	; 0x4c
    2dcc:	ee67 7a27 	vmul.f32	s15, s14, s15
    2dd0:	edc7 7a0f 	vstr	s15, [r7, #60]	; 0x3c
    2dd4:	f8d7 30a4 	ldr.w	r3, [r7, #164]	; 0xa4
    2dd8:	1f1a      	subs	r2, r3, #4
    2dda:	f8c7 20a4 	str.w	r2, [r7, #164]	; 0xa4
    2dde:	ed97 7a12 	vldr	s14, [r7, #72]	; 0x48
    2de2:	edd7 7a11 	vldr	s15, [r7, #68]	; 0x44
    2de6:	ee77 7a67 	vsub.f32	s15, s14, s15
    2dea:	edc3 7a00 	vstr	s15, [r3]
    2dee:	f8d7 30a4 	ldr.w	r3, [r7, #164]	; 0xa4
    2df2:	1f1a      	subs	r2, r3, #4
    2df4:	f8c7 20a4 	str.w	r2, [r7, #164]	; 0xa4
    2df8:	ed97 7a0f 	vldr	s14, [r7, #60]	; 0x3c
    2dfc:	edd7 7a10 	vldr	s15, [r7, #64]	; 0x40
    2e00:	ee77 7a67 	vsub.f32	s15, s14, s15
    2e04:	edc3 7a00 	vstr	s15, [r3]
    2e08:	f8d7 3094 	ldr.w	r3, [r7, #148]	; 0x94
    2e0c:	681b      	ldr	r3, [r3, #0]
    2e0e:	653b      	str	r3, [r7, #80]	; 0x50
    2e10:	f8d7 3094 	ldr.w	r3, [r7, #148]	; 0x94
    2e14:	685b      	ldr	r3, [r3, #4]
    2e16:	64fb      	str	r3, [r7, #76]	; 0x4c
    2e18:	6e7b      	ldr	r3, [r7, #100]	; 0x64
    2e1a:	009b      	lsls	r3, r3, #2
    2e1c:	f8d7 2094 	ldr.w	r2, [r7, #148]	; 0x94
    2e20:	4413      	add	r3, r2
    2e22:	f8c7 3094 	str.w	r3, [r7, #148]	; 0x94
    2e26:	ed97 7a03 	vldr	s14, [r7, #12]
    2e2a:	edd7 7a14 	vldr	s15, [r7, #80]	; 0x50
    2e2e:	ee67 7a27 	vmul.f32	s15, s14, s15
    2e32:	edc7 7a12 	vstr	s15, [r7, #72]	; 0x48
    2e36:	ed97 7a04 	vldr	s14, [r7, #16]
    2e3a:	edd7 7a13 	vldr	s15, [r7, #76]	; 0x4c
    2e3e:	ee67 7a27 	vmul.f32	s15, s14, s15
    2e42:	edc7 7a11 	vstr	s15, [r7, #68]	; 0x44
    2e46:	ed97 7a04 	vldr	s14, [r7, #16]
    2e4a:	edd7 7a14 	vldr	s15, [r7, #80]	; 0x50
    2e4e:	ee67 7a27 	vmul.f32	s15, s14, s15
    2e52:	edc7 7a10 	vstr	s15, [r7, #64]	; 0x40
    2e56:	ed97 7a03 	vldr	s14, [r7, #12]
    2e5a:	edd7 7a13 	vldr	s15, [r7, #76]	; 0x4c
    2e5e:	ee67 7a27 	vmul.f32	s15, s14, s15
    2e62:	edc7 7a0f 	vstr	s15, [r7, #60]	; 0x3c
    2e66:	f8d7 3088 	ldr.w	r3, [r7, #136]	; 0x88
    2e6a:	1d1a      	adds	r2, r3, #4
    2e6c:	f8c7 2088 	str.w	r2, [r7, #136]	; 0x88
    2e70:	ed97 7a12 	vldr	s14, [r7, #72]	; 0x48
    2e74:	edd7 7a11 	vldr	s15, [r7, #68]	; 0x44
    2e78:	ee77 7a27 	vadd.f32	s15, s14, s15
    2e7c:	edc3 7a00 	vstr	s15, [r3]
    2e80:	f8d7 3088 	ldr.w	r3, [r7, #136]	; 0x88
    2e84:	1d1a      	adds	r2, r3, #4
    2e86:	f8c7 2088 	str.w	r2, [r7, #136]	; 0x88
    2e8a:	ed97 7a10 	vldr	s14, [r7, #64]	; 0x40
    2e8e:	edd7 7a0f 	vldr	s15, [r7, #60]	; 0x3c
    2e92:	ee77 7a67 	vsub.f32	s15, s14, s15
    2e96:	edc3 7a00 	vstr	s15, [r3]
    2e9a:	ed97 7a06 	vldr	s14, [r7, #24]
    2e9e:	edd7 7a13 	vldr	s15, [r7, #76]	; 0x4c
    2ea2:	ee67 7a27 	vmul.f32	s15, s14, s15
    2ea6:	edc7 7a12 	vstr	s15, [r7, #72]	; 0x48
    2eaa:	ed97 7a05 	vldr	s14, [r7, #20]
    2eae:	edd7 7a14 	vldr	s15, [r7, #80]	; 0x50
    2eb2:	ee67 7a27 	vmul.f32	s15, s14, s15
    2eb6:	edc7 7a11 	vstr	s15, [r7, #68]	; 0x44
    2eba:	ed97 7a05 	vldr	s14, [r7, #20]
    2ebe:	edd7 7a13 	vldr	s15, [r7, #76]	; 0x4c
    2ec2:	ee67 7a27 	vmul.f32	s15, s14, s15
    2ec6:	edc7 7a10 	vstr	s15, [r7, #64]	; 0x40
    2eca:	ed97 7a06 	vldr	s14, [r7, #24]
    2ece:	edd7 7a14 	vldr	s15, [r7, #80]	; 0x50
    2ed2:	ee67 7a27 	vmul.f32	s15, s14, s15
    2ed6:	edc7 7a0f 	vstr	s15, [r7, #60]	; 0x3c
    2eda:	f8d7 30a0 	ldr.w	r3, [r7, #160]	; 0xa0
    2ede:	1f1a      	subs	r2, r3, #4
    2ee0:	f8c7 20a0 	str.w	r2, [r7, #160]	; 0xa0
    2ee4:	ed97 7a12 	vldr	s14, [r7, #72]	; 0x48
    2ee8:	edd7 7a11 	vldr	s15, [r7, #68]	; 0x44
    2eec:	ee77 7a67 	vsub.f32	s15, s14, s15
    2ef0:	edc3 7a00 	vstr	s15, [r3]
    2ef4:	f8d7 30a0 	ldr.w	r3, [r7, #160]	; 0xa0
    2ef8:	1f1a      	subs	r2, r3, #4
    2efa:	f8c7 20a0 	str.w	r2, [r7, #160]	; 0xa0
    2efe:	ed97 7a10 	vldr	s14, [r7, #64]	; 0x40
    2f02:	edd7 7a0f 	vldr	s15, [r7, #60]	; 0x3c
    2f06:	ee77 7a27 	vadd.f32	s15, s14, s15
    2f0a:	edc3 7a00 	vstr	s15, [r3]
    2f0e:	f8d7 3084 	ldr.w	r3, [r7, #132]	; 0x84
    2f12:	3b01      	subs	r3, #1
    2f14:	f8c7 3084 	str.w	r3, [r7, #132]	; 0x84
    2f18:	f8d7 3084 	ldr.w	r3, [r7, #132]	; 0x84
    2f1c:	2b00      	cmp	r3, #0
    2f1e:	f47f ace0 	bne.w	28e2 <arm_cfft_radix8by4_f32+0x2be>
    2f22:	683b      	ldr	r3, [r7, #0]
    2f24:	ed93 7a00 	vldr	s14, [r3]
    2f28:	f8d7 308c 	ldr.w	r3, [r7, #140]	; 0x8c
    2f2c:	edd3 7a00 	vldr	s15, [r3]
    2f30:	ee77 7a27 	vadd.f32	s15, s14, s15
    2f34:	edc7 7a18 	vstr	s15, [r7, #96]	; 0x60
    2f38:	683b      	ldr	r3, [r7, #0]
    2f3a:	ed93 7a00 	vldr	s14, [r3]
    2f3e:	f8d7 308c 	ldr.w	r3, [r7, #140]	; 0x8c
    2f42:	edd3 7a00 	vldr	s15, [r3]
    2f46:	ee77 7a67 	vsub.f32	s15, s14, s15
    2f4a:	edc7 7a17 	vstr	s15, [r7, #92]	; 0x5c
    2f4e:	683b      	ldr	r3, [r7, #0]
    2f50:	3304      	adds	r3, #4
    2f52:	ed93 7a00 	vldr	s14, [r3]
    2f56:	f8d7 308c 	ldr.w	r3, [r7, #140]	; 0x8c
    2f5a:	3304      	adds	r3, #4
    2f5c:	edd3 7a00 	vldr	s15, [r3]
    2f60:	ee77 7a27 	vadd.f32	s15, s14, s15
    2f64:	edc7 7a16 	vstr	s15, [r7, #88]	; 0x58
    2f68:	683b      	ldr	r3, [r7, #0]
    2f6a:	3304      	adds	r3, #4
    2f6c:	ed93 7a00 	vldr	s14, [r3]
    2f70:	f8d7 308c 	ldr.w	r3, [r7, #140]	; 0x8c
    2f74:	3304      	adds	r3, #4
    2f76:	edd3 7a00 	vldr	s15, [r3]
    2f7a:	ee77 7a67 	vsub.f32	s15, s14, s15
    2f7e:	edc7 7a15 	vstr	s15, [r7, #84]	; 0x54
    2f82:	f8d7 3090 	ldr.w	r3, [r7, #144]	; 0x90
    2f86:	3304      	adds	r3, #4
    2f88:	ed93 7a00 	vldr	s14, [r3]
    2f8c:	edd7 7a17 	vldr	s15, [r7, #92]	; 0x5c
    2f90:	ee37 7a27 	vadd.f32	s14, s14, s15
    2f94:	f8d7 3088 	ldr.w	r3, [r7, #136]	; 0x88
    2f98:	3304      	adds	r3, #4
    2f9a:	edd3 7a00 	vldr	s15, [r3]
    2f9e:	ee77 7a67 	vsub.f32	s15, s14, s15
    2fa2:	edc7 7a0b 	vstr	s15, [r7, #44]	; 0x2c
    2fa6:	f8d7 3090 	ldr.w	r3, [r7, #144]	; 0x90
    2faa:	edd3 7a00 	vldr	s15, [r3]
    2fae:	ed97 7a15 	vldr	s14, [r7, #84]	; 0x54
    2fb2:	ee37 7a67 	vsub.f32	s14, s14, s15
    2fb6:	f8d7 3088 	ldr.w	r3, [r7, #136]	; 0x88
    2fba:	edd3 7a00 	vldr	s15, [r3]
    2fbe:	ee77 7a27 	vadd.f32	s15, s14, s15
    2fc2:	edc7 7a0c 	vstr	s15, [r7, #48]	; 0x30
    2fc6:	f8d7 3090 	ldr.w	r3, [r7, #144]	; 0x90
    2fca:	edd3 7a00 	vldr	s15, [r3]
    2fce:	ed97 7a18 	vldr	s14, [r7, #96]	; 0x60
    2fd2:	ee37 7a67 	vsub.f32	s14, s14, s15
    2fd6:	f8d7 3088 	ldr.w	r3, [r7, #136]	; 0x88
    2fda:	edd3 7a00 	vldr	s15, [r3]
    2fde:	ee77 7a67 	vsub.f32	s15, s14, s15
    2fe2:	edc7 7a07 	vstr	s15, [r7, #28]
    2fe6:	f8d7 3090 	ldr.w	r3, [r7, #144]	; 0x90
    2fea:	3304      	adds	r3, #4
    2fec:	edd3 7a00 	vldr	s15, [r3]
    2ff0:	ed97 7a16 	vldr	s14, [r7, #88]	; 0x58
    2ff4:	ee37 7a67 	vsub.f32	s14, s14, s15
    2ff8:	f8d7 3088 	ldr.w	r3, [r7, #136]	; 0x88
    2ffc:	3304      	adds	r3, #4
    2ffe:	edd3 7a00 	vldr	s15, [r3]
    3002:	ee77 7a67 	vsub.f32	s15, s14, s15
    3006:	edc7 7a08 	vstr	s15, [r7, #32]
    300a:	f8d7 3090 	ldr.w	r3, [r7, #144]	; 0x90
    300e:	3304      	adds	r3, #4
    3010:	edd3 7a00 	vldr	s15, [r3]
    3014:	ed97 7a17 	vldr	s14, [r7, #92]	; 0x5c
    3018:	ee37 7a67 	vsub.f32	s14, s14, s15
    301c:	f8d7 3088 	ldr.w	r3, [r7, #136]	; 0x88
    3020:	3304      	adds	r3, #4
    3022:	edd3 7a00 	vldr	s15, [r3]
    3026:	ee77 7a27 	vadd.f32	s15, s14, s15
    302a:	edc7 7a03 	vstr	s15, [r7, #12]
    302e:	f8d7 3090 	ldr.w	r3, [r7, #144]	; 0x90
    3032:	ed93 7a00 	vldr	s14, [r3]
    3036:	edd7 7a15 	vldr	s15, [r7, #84]	; 0x54
    303a:	ee37 7a27 	vadd.f32	s14, s14, s15
    303e:	f8d7 3088 	ldr.w	r3, [r7, #136]	; 0x88
    3042:	edd3 7a00 	vldr	s15, [r3]
    3046:	ee77 7a67 	vsub.f32	s15, s14, s15
    304a:	edc7 7a04 	vstr	s15, [r7, #16]
    304e:	683b      	ldr	r3, [r7, #0]
    3050:	1d1a      	adds	r2, r3, #4
    3052:	603a      	str	r2, [r7, #0]
    3054:	f8d7 2090 	ldr.w	r2, [r7, #144]	; 0x90
    3058:	ed92 7a00 	vldr	s14, [r2]
    305c:	edd7 7a18 	vldr	s15, [r7, #96]	; 0x60
    3060:	ee37 7a27 	vadd.f32	s14, s14, s15
    3064:	f8d7 2088 	ldr.w	r2, [r7, #136]	; 0x88
    3068:	edd2 7a00 	vldr	s15, [r2]
    306c:	ee77 7a27 	vadd.f32	s15, s14, s15
    3070:	edc3 7a00 	vstr	s15, [r3]
    3074:	683b      	ldr	r3, [r7, #0]
    3076:	1d1a      	adds	r2, r3, #4
    3078:	603a      	str	r2, [r7, #0]
    307a:	f8d7 2090 	ldr.w	r2, [r7, #144]	; 0x90
    307e:	3204      	adds	r2, #4
    3080:	ed92 7a00 	vldr	s14, [r2]
    3084:	edd7 7a16 	vldr	s15, [r7, #88]	; 0x58
    3088:	ee37 7a27 	vadd.f32	s14, s14, s15
    308c:	f8d7 2088 	ldr.w	r2, [r7, #136]	; 0x88
    3090:	3204      	adds	r2, #4
    3092:	edd2 7a00 	vldr	s15, [r2]
    3096:	ee77 7a27 	vadd.f32	s15, s14, s15
    309a:	edc3 7a00 	vstr	s15, [r3]
    309e:	f8d7 309c 	ldr.w	r3, [r7, #156]	; 0x9c
    30a2:	681b      	ldr	r3, [r3, #0]
    30a4:	653b      	str	r3, [r7, #80]	; 0x50
    30a6:	f8d7 309c 	ldr.w	r3, [r7, #156]	; 0x9c
    30aa:	685b      	ldr	r3, [r3, #4]
    30ac:	64fb      	str	r3, [r7, #76]	; 0x4c
    30ae:	ed97 7a0b 	vldr	s14, [r7, #44]	; 0x2c
    30b2:	edd7 7a14 	vldr	s15, [r7, #80]	; 0x50
    30b6:	ee67 7a27 	vmul.f32	s15, s14, s15
    30ba:	edc7 7a12 	vstr	s15, [r7, #72]	; 0x48
    30be:	ed97 7a0c 	vldr	s14, [r7, #48]	; 0x30
    30c2:	edd7 7a13 	vldr	s15, [r7, #76]	; 0x4c
    30c6:	ee67 7a27 	vmul.f32	s15, s14, s15
    30ca:	edc7 7a11 	vstr	s15, [r7, #68]	; 0x44
    30ce:	ed97 7a0c 	vldr	s14, [r7, #48]	; 0x30
    30d2:	edd7 7a14 	vldr	s15, [r7, #80]	; 0x50
    30d6:	ee67 7a27 	vmul.f32	s15, s14, s15
    30da:	edc7 7a10 	vstr	s15, [r7, #64]	; 0x40
    30de:	ed97 7a0b 	vldr	s14, [r7, #44]	; 0x2c
    30e2:	edd7 7a13 	vldr	s15, [r7, #76]	; 0x4c
    30e6:	ee67 7a27 	vmul.f32	s15, s14, s15
    30ea:	edc7 7a0f 	vstr	s15, [r7, #60]	; 0x3c
    30ee:	f8d7 3090 	ldr.w	r3, [r7, #144]	; 0x90
    30f2:	1d1a      	adds	r2, r3, #4
    30f4:	f8c7 2090 	str.w	r2, [r7, #144]	; 0x90
    30f8:	ed97 7a12 	vldr	s14, [r7, #72]	; 0x48
    30fc:	edd7 7a11 	vldr	s15, [r7, #68]	; 0x44
    3100:	ee77 7a27 	vadd.f32	s15, s14, s15
    3104:	edc3 7a00 	vstr	s15, [r3]
    3108:	f8d7 3090 	ldr.w	r3, [r7, #144]	; 0x90
    310c:	1d1a      	adds	r2, r3, #4
    310e:	f8c7 2090 	str.w	r2, [r7, #144]	; 0x90
    3112:	ed97 7a10 	vldr	s14, [r7, #64]	; 0x40
    3116:	edd7 7a0f 	vldr	s15, [r7, #60]	; 0x3c
    311a:	ee77 7a67 	vsub.f32	s15, s14, s15
    311e:	edc3 7a00 	vstr	s15, [r3]
    3122:	f8d7 3098 	ldr.w	r3, [r7, #152]	; 0x98
    3126:	681b      	ldr	r3, [r3, #0]
    3128:	653b      	str	r3, [r7, #80]	; 0x50
    312a:	f8d7 3098 	ldr.w	r3, [r7, #152]	; 0x98
    312e:	685b      	ldr	r3, [r3, #4]
    3130:	64fb      	str	r3, [r7, #76]	; 0x4c
    3132:	ed97 7a07 	vldr	s14, [r7, #28]
    3136:	edd7 7a14 	vldr	s15, [r7, #80]	; 0x50
    313a:	ee67 7a27 	vmul.f32	s15, s14, s15
    313e:	edc7 7a12 	vstr	s15, [r7, #72]	; 0x48
    3142:	ed97 7a08 	vldr	s14, [r7, #32]
    3146:	edd7 7a13 	vldr	s15, [r7, #76]	; 0x4c
    314a:	ee67 7a27 	vmul.f32	s15, s14, s15
    314e:	edc7 7a11 	vstr	s15, [r7, #68]	; 0x44
    3152:	ed97 7a08 	vldr	s14, [r7, #32]
    3156:	edd7 7a14 	vldr	s15, [r7, #80]	; 0x50
    315a:	ee67 7a27 	vmul.f32	s15, s14, s15
    315e:	edc7 7a10 	vstr	s15, [r7, #64]	; 0x40
    3162:	ed97 7a07 	vldr	s14, [r7, #28]
    3166:	edd7 7a13 	vldr	s15, [r7, #76]	; 0x4c
    316a:	ee67 7a27 	vmul.f32	s15, s14, s15
    316e:	edc7 7a0f 	vstr	s15, [r7, #60]	; 0x3c
    3172:	f8d7 308c 	ldr.w	r3, [r7, #140]	; 0x8c
    3176:	1d1a      	adds	r2, r3, #4
    3178:	f8c7 208c 	str.w	r2, [r7, #140]	; 0x8c
    317c:	ed97 7a12 	vldr	s14, [r7, #72]	; 0x48
    3180:	edd7 7a11 	vldr	s15, [r7, #68]	; 0x44
    3184:	ee77 7a27 	vadd.f32	s15, s14, s15
    3188:	edc3 7a00 	vstr	s15, [r3]
    318c:	f8d7 308c 	ldr.w	r3, [r7, #140]	; 0x8c
    3190:	1d1a      	adds	r2, r3, #4
    3192:	f8c7 208c 	str.w	r2, [r7, #140]	; 0x8c
    3196:	ed97 7a10 	vldr	s14, [r7, #64]	; 0x40
    319a:	edd7 7a0f 	vldr	s15, [r7, #60]	; 0x3c
    319e:	ee77 7a67 	vsub.f32	s15, s14, s15
    31a2:	edc3 7a00 	vstr	s15, [r3]
    31a6:	f8d7 3094 	ldr.w	r3, [r7, #148]	; 0x94
    31aa:	681b      	ldr	r3, [r3, #0]
    31ac:	653b      	str	r3, [r7, #80]	; 0x50
    31ae:	f8d7 3094 	ldr.w	r3, [r7, #148]	; 0x94
    31b2:	685b      	ldr	r3, [r3, #4]
    31b4:	64fb      	str	r3, [r7, #76]	; 0x4c
    31b6:	ed97 7a03 	vldr	s14, [r7, #12]
    31ba:	edd7 7a14 	vldr	s15, [r7, #80]	; 0x50
    31be:	ee67 7a27 	vmul.f32	s15, s14, s15
    31c2:	edc7 7a12 	vstr	s15, [r7, #72]	; 0x48
    31c6:	ed97 7a04 	vldr	s14, [r7, #16]
    31ca:	edd7 7a13 	vldr	s15, [r7, #76]	; 0x4c
    31ce:	ee67 7a27 	vmul.f32	s15, s14, s15
    31d2:	edc7 7a11 	vstr	s15, [r7, #68]	; 0x44
    31d6:	ed97 7a04 	vldr	s14, [r7, #16]
    31da:	edd7 7a14 	vldr	s15, [r7, #80]	; 0x50
    31de:	ee67 7a27 	vmul.f32	s15, s14, s15
    31e2:	edc7 7a10 	vstr	s15, [r7, #64]	; 0x40
    31e6:	ed97 7a03 	vldr	s14, [r7, #12]
    31ea:	edd7 7a13 	vldr	s15, [r7, #76]	; 0x4c
    31ee:	ee67 7a27 	vmul.f32	s15, s14, s15
    31f2:	edc7 7a0f 	vstr	s15, [r7, #60]	; 0x3c
    31f6:	f8d7 3088 	ldr.w	r3, [r7, #136]	; 0x88
    31fa:	1d1a      	adds	r2, r3, #4
    31fc:	f8c7 2088 	str.w	r2, [r7, #136]	; 0x88
    3200:	ed97 7a12 	vldr	s14, [r7, #72]	; 0x48
    3204:	edd7 7a11 	vldr	s15, [r7, #68]	; 0x44
    3208:	ee77 7a27 	vadd.f32	s15, s14, s15
    320c:	edc3 7a00 	vstr	s15, [r3]
    3210:	f8d7 3088 	ldr.w	r3, [r7, #136]	; 0x88
    3214:	1d1a      	adds	r2, r3, #4
    3216:	f8c7 2088 	str.w	r2, [r7, #136]	; 0x88
    321a:	ed97 7a10 	vldr	s14, [r7, #64]	; 0x40
    321e:	edd7 7a0f 	vldr	s15, [r7, #60]	; 0x3c
    3222:	ee77 7a67 	vsub.f32	s15, s14, s15
    3226:	edc3 7a00 	vstr	s15, [r3]
    322a:	f8d7 3080 	ldr.w	r3, [r7, #128]	; 0x80
    322e:	b299      	uxth	r1, r3
    3230:	687b      	ldr	r3, [r7, #4]
    3232:	685a      	ldr	r2, [r3, #4]
    3234:	2304      	movs	r3, #4
    3236:	6ff8      	ldr	r0, [r7, #124]	; 0x7c
    3238:	f000 f8c4 	bl	33c4 <arm_radix8_butterfly_f32>
    323c:	f8d7 3080 	ldr.w	r3, [r7, #128]	; 0x80
    3240:	b299      	uxth	r1, r3
    3242:	687b      	ldr	r3, [r7, #4]
    3244:	685a      	ldr	r2, [r3, #4]
    3246:	2304      	movs	r3, #4
    3248:	6fb8      	ldr	r0, [r7, #120]	; 0x78
    324a:	f000 f8bb 	bl	33c4 <arm_radix8_butterfly_f32>
    324e:	f8d7 3080 	ldr.w	r3, [r7, #128]	; 0x80
    3252:	b299      	uxth	r1, r3
    3254:	687b      	ldr	r3, [r7, #4]
    3256:	685a      	ldr	r2, [r3, #4]
    3258:	2304      	movs	r3, #4
    325a:	6f78      	ldr	r0, [r7, #116]	; 0x74
    325c:	f000 f8b2 	bl	33c4 <arm_radix8_butterfly_f32>
    3260:	f8d7 3080 	ldr.w	r3, [r7, #128]	; 0x80
    3264:	b299      	uxth	r1, r3
    3266:	687b      	ldr	r3, [r7, #4]
    3268:	685a      	ldr	r2, [r3, #4]
    326a:	2304      	movs	r3, #4
    326c:	6f38      	ldr	r0, [r7, #112]	; 0x70
    326e:	f000 f8a9 	bl	33c4 <arm_radix8_butterfly_f32>
    3272:	bf00      	nop
    3274:	37b0      	adds	r7, #176	; 0xb0
    3276:	46bd      	mov	sp, r7
    3278:	bd80      	pop	{r7, pc}
    327a:	bf00      	nop

0000327c <arm_cfft_f32>:
    327c:	b580      	push	{r7, lr}
    327e:	b088      	sub	sp, #32
    3280:	af00      	add	r7, sp, #0
    3282:	60f8      	str	r0, [r7, #12]
    3284:	60b9      	str	r1, [r7, #8]
    3286:	4611      	mov	r1, r2
    3288:	461a      	mov	r2, r3
    328a:	460b      	mov	r3, r1
    328c:	71fb      	strb	r3, [r7, #7]
    328e:	4613      	mov	r3, r2
    3290:	71bb      	strb	r3, [r7, #6]
    3292:	68fb      	ldr	r3, [r7, #12]
    3294:	881b      	ldrh	r3, [r3, #0]
    3296:	617b      	str	r3, [r7, #20]
    3298:	79fb      	ldrb	r3, [r7, #7]
    329a:	2b01      	cmp	r3, #1
    329c:	d117      	bne.n	32ce <arm_cfft_f32+0x52>
    329e:	68bb      	ldr	r3, [r7, #8]
    32a0:	3304      	adds	r3, #4
    32a2:	61bb      	str	r3, [r7, #24]
    32a4:	2300      	movs	r3, #0
    32a6:	61fb      	str	r3, [r7, #28]
    32a8:	e00d      	b.n	32c6 <arm_cfft_f32+0x4a>
    32aa:	69bb      	ldr	r3, [r7, #24]
    32ac:	edd3 7a00 	vldr	s15, [r3]
    32b0:	eef1 7a67 	vneg.f32	s15, s15
    32b4:	69bb      	ldr	r3, [r7, #24]
    32b6:	edc3 7a00 	vstr	s15, [r3]
    32ba:	69bb      	ldr	r3, [r7, #24]
    32bc:	3308      	adds	r3, #8
    32be:	61bb      	str	r3, [r7, #24]
    32c0:	69fb      	ldr	r3, [r7, #28]
    32c2:	3301      	adds	r3, #1
    32c4:	61fb      	str	r3, [r7, #28]
    32c6:	69fa      	ldr	r2, [r7, #28]
    32c8:	697b      	ldr	r3, [r7, #20]
    32ca:	429a      	cmp	r2, r3
    32cc:	d3ed      	bcc.n	32aa <arm_cfft_f32+0x2e>
    32ce:	697b      	ldr	r3, [r7, #20]
    32d0:	f5b3 7f80 	cmp.w	r3, #256	; 0x100
    32d4:	d024      	beq.n	3320 <arm_cfft_f32+0xa4>
    32d6:	f5b3 7f80 	cmp.w	r3, #256	; 0x100
    32da:	d80b      	bhi.n	32f4 <arm_cfft_f32+0x78>
    32dc:	2b20      	cmp	r3, #32
    32de:	d01f      	beq.n	3320 <arm_cfft_f32+0xa4>
    32e0:	2b20      	cmp	r3, #32
    32e2:	d802      	bhi.n	32ea <arm_cfft_f32+0x6e>
    32e4:	2b10      	cmp	r3, #16
    32e6:	d016      	beq.n	3316 <arm_cfft_f32+0x9a>
    32e8:	e028      	b.n	333c <arm_cfft_f32+0xc0>
    32ea:	2b40      	cmp	r3, #64	; 0x40
    32ec:	d01d      	beq.n	332a <arm_cfft_f32+0xae>
    32ee:	2b80      	cmp	r3, #128	; 0x80
    32f0:	d011      	beq.n	3316 <arm_cfft_f32+0x9a>
    32f2:	e023      	b.n	333c <arm_cfft_f32+0xc0>
    32f4:	f5b3 6f80 	cmp.w	r3, #1024	; 0x400
    32f8:	d00d      	beq.n	3316 <arm_cfft_f32+0x9a>
    32fa:	f5b3 6f80 	cmp.w	r3, #1024	; 0x400
    32fe:	d803      	bhi.n	3308 <arm_cfft_f32+0x8c>
    3300:	f5b3 7f00 	cmp.w	r3, #512	; 0x200
    3304:	d011      	beq.n	332a <arm_cfft_f32+0xae>
    3306:	e019      	b.n	333c <arm_cfft_f32+0xc0>
    3308:	f5b3 6f00 	cmp.w	r3, #2048	; 0x800
    330c:	d008      	beq.n	3320 <arm_cfft_f32+0xa4>
    330e:	f5b3 5f80 	cmp.w	r3, #4096	; 0x1000
    3312:	d00a      	beq.n	332a <arm_cfft_f32+0xae>
    3314:	e012      	b.n	333c <arm_cfft_f32+0xc0>
    3316:	68b9      	ldr	r1, [r7, #8]
    3318:	68f8      	ldr	r0, [r7, #12]
    331a:	f7fe ff8f 	bl	223c <arm_cfft_radix8by2_f32>
    331e:	e00d      	b.n	333c <arm_cfft_f32+0xc0>
    3320:	68b9      	ldr	r1, [r7, #8]
    3322:	68f8      	ldr	r0, [r7, #12]
    3324:	f7ff f97e 	bl	2624 <arm_cfft_radix8by4_f32>
    3328:	e008      	b.n	333c <arm_cfft_f32+0xc0>
    332a:	697b      	ldr	r3, [r7, #20]
    332c:	b299      	uxth	r1, r3
    332e:	68fb      	ldr	r3, [r7, #12]
    3330:	685a      	ldr	r2, [r3, #4]
    3332:	2301      	movs	r3, #1
    3334:	68b8      	ldr	r0, [r7, #8]
    3336:	f000 f845 	bl	33c4 <arm_radix8_butterfly_f32>
    333a:	bf00      	nop
    333c:	79bb      	ldrb	r3, [r7, #6]
    333e:	2b00      	cmp	r3, #0
    3340:	d007      	beq.n	3352 <arm_cfft_f32+0xd6>
    3342:	68fb      	ldr	r3, [r7, #12]
    3344:	8999      	ldrh	r1, [r3, #12]
    3346:	68fb      	ldr	r3, [r7, #12]
    3348:	689b      	ldr	r3, [r3, #8]
    334a:	461a      	mov	r2, r3
    334c:	68b8      	ldr	r0, [r7, #8]
    334e:	f002 fb65 	bl	5a1c <arm_bitreversal_32>
    3352:	79fb      	ldrb	r3, [r7, #7]
    3354:	2b01      	cmp	r3, #1
    3356:	d130      	bne.n	33ba <arm_cfft_f32+0x13e>
    3358:	697b      	ldr	r3, [r7, #20]
    335a:	ee07 3a90 	vmov	s15, r3
    335e:	eeb8 7a67 	vcvt.f32.u32	s14, s15
    3362:	eef7 6a00 	vmov.f32	s13, #112	; 0x3f800000  1.0
    3366:	eec6 7a87 	vdiv.f32	s15, s13, s14
    336a:	edc7 7a04 	vstr	s15, [r7, #16]
    336e:	68bb      	ldr	r3, [r7, #8]
    3370:	61bb      	str	r3, [r7, #24]
    3372:	2300      	movs	r3, #0
    3374:	61fb      	str	r3, [r7, #28]
    3376:	e01c      	b.n	33b2 <arm_cfft_f32+0x136>
    3378:	69bb      	ldr	r3, [r7, #24]
    337a:	1d1a      	adds	r2, r3, #4
    337c:	61ba      	str	r2, [r7, #24]
    337e:	ed93 7a00 	vldr	s14, [r3]
    3382:	edd7 7a04 	vldr	s15, [r7, #16]
    3386:	ee67 7a27 	vmul.f32	s15, s14, s15
    338a:	edc3 7a00 	vstr	s15, [r3]
    338e:	69bb      	ldr	r3, [r7, #24]
    3390:	edd3 7a00 	vldr	s15, [r3]
    3394:	eeb1 7a67 	vneg.f32	s14, s15
    3398:	edd7 7a04 	vldr	s15, [r7, #16]
    339c:	ee67 7a27 	vmul.f32	s15, s14, s15
    33a0:	69bb      	ldr	r3, [r7, #24]
    33a2:	edc3 7a00 	vstr	s15, [r3]
    33a6:	69bb      	ldr	r3, [r7, #24]
    33a8:	3304      	adds	r3, #4
    33aa:	61bb      	str	r3, [r7, #24]
    33ac:	69fb      	ldr	r3, [r7, #28]
    33ae:	3301      	adds	r3, #1
    33b0:	61fb      	str	r3, [r7, #28]
    33b2:	69fa      	ldr	r2, [r7, #28]
    33b4:	697b      	ldr	r3, [r7, #20]
    33b6:	429a      	cmp	r2, r3
    33b8:	d3de      	bcc.n	3378 <arm_cfft_f32+0xfc>
    33ba:	bf00      	nop
    33bc:	3720      	adds	r7, #32
    33be:	46bd      	mov	sp, r7
    33c0:	bd80      	pop	{r7, pc}
    33c2:	bf00      	nop

000033c4 <arm_radix8_butterfly_f32>:
    33c4:	b480      	push	{r7}
    33c6:	b0bd      	sub	sp, #244	; 0xf4
    33c8:	af00      	add	r7, sp, #0
    33ca:	60f8      	str	r0, [r7, #12]
    33cc:	607a      	str	r2, [r7, #4]
    33ce:	461a      	mov	r2, r3
    33d0:	460b      	mov	r3, r1
    33d2:	817b      	strh	r3, [r7, #10]
    33d4:	4613      	mov	r3, r2
    33d6:	813b      	strh	r3, [r7, #8]
    33d8:	4b09      	ldr	r3, [pc, #36]	; (3400 <arm_radix8_butterfly_f32+0x3c>)
    33da:	f8c7 30dc 	str.w	r3, [r7, #220]	; 0xdc
    33de:	897b      	ldrh	r3, [r7, #10]
    33e0:	f8c7 30e4 	str.w	r3, [r7, #228]	; 0xe4
    33e4:	f8d7 30e4 	ldr.w	r3, [r7, #228]	; 0xe4
    33e8:	f8c7 30d8 	str.w	r3, [r7, #216]	; 0xd8
    33ec:	f8d7 30e4 	ldr.w	r3, [r7, #228]	; 0xe4
    33f0:	08db      	lsrs	r3, r3, #3
    33f2:	f8c7 30e4 	str.w	r3, [r7, #228]	; 0xe4
    33f6:	2300      	movs	r3, #0
    33f8:	f8c7 30e8 	str.w	r3, [r7, #232]	; 0xe8
    33fc:	e002      	b.n	3404 <arm_radix8_butterfly_f32+0x40>
    33fe:	bf00      	nop
    3400:	3f3504f3 	.word	0x3f3504f3
    3404:	f8d7 20e8 	ldr.w	r2, [r7, #232]	; 0xe8
    3408:	f8d7 30e4 	ldr.w	r3, [r7, #228]	; 0xe4
    340c:	4413      	add	r3, r2
    340e:	f8c7 30d4 	str.w	r3, [r7, #212]	; 0xd4
    3412:	f8d7 20d4 	ldr.w	r2, [r7, #212]	; 0xd4
    3416:	f8d7 30e4 	ldr.w	r3, [r7, #228]	; 0xe4
    341a:	4413      	add	r3, r2
    341c:	f8c7 30d0 	str.w	r3, [r7, #208]	; 0xd0
    3420:	f8d7 20d0 	ldr.w	r2, [r7, #208]	; 0xd0
    3424:	f8d7 30e4 	ldr.w	r3, [r7, #228]	; 0xe4
    3428:	4413      	add	r3, r2
    342a:	f8c7 30cc 	str.w	r3, [r7, #204]	; 0xcc
    342e:	f8d7 20cc 	ldr.w	r2, [r7, #204]	; 0xcc
    3432:	f8d7 30e4 	ldr.w	r3, [r7, #228]	; 0xe4
    3436:	4413      	add	r3, r2
    3438:	f8c7 30c8 	str.w	r3, [r7, #200]	; 0xc8
    343c:	f8d7 20c8 	ldr.w	r2, [r7, #200]	; 0xc8
    3440:	f8d7 30e4 	ldr.w	r3, [r7, #228]	; 0xe4
    3444:	4413      	add	r3, r2
    3446:	f8c7 30c4 	str.w	r3, [r7, #196]	; 0xc4
    344a:	f8d7 20c4 	ldr.w	r2, [r7, #196]	; 0xc4
    344e:	f8d7 30e4 	ldr.w	r3, [r7, #228]	; 0xe4
    3452:	4413      	add	r3, r2
    3454:	f8c7 30c0 	str.w	r3, [r7, #192]	; 0xc0
    3458:	f8d7 20c0 	ldr.w	r2, [r7, #192]	; 0xc0
    345c:	f8d7 30e4 	ldr.w	r3, [r7, #228]	; 0xe4
    3460:	4413      	add	r3, r2
    3462:	f8c7 30bc 	str.w	r3, [r7, #188]	; 0xbc
    3466:	f8d7 30e8 	ldr.w	r3, [r7, #232]	; 0xe8
    346a:	00db      	lsls	r3, r3, #3
    346c:	68fa      	ldr	r2, [r7, #12]
    346e:	4413      	add	r3, r2
    3470:	ed93 7a00 	vldr	s14, [r3]
    3474:	f8d7 30c8 	ldr.w	r3, [r7, #200]	; 0xc8
    3478:	00db      	lsls	r3, r3, #3
    347a:	68fa      	ldr	r2, [r7, #12]
    347c:	4413      	add	r3, r2
    347e:	edd3 7a00 	vldr	s15, [r3]
    3482:	ee77 7a27 	vadd.f32	s15, s14, s15
    3486:	edc7 7a2e 	vstr	s15, [r7, #184]	; 0xb8
    348a:	f8d7 30e8 	ldr.w	r3, [r7, #232]	; 0xe8
    348e:	00db      	lsls	r3, r3, #3
    3490:	68fa      	ldr	r2, [r7, #12]
    3492:	4413      	add	r3, r2
    3494:	ed93 7a00 	vldr	s14, [r3]
    3498:	f8d7 30c8 	ldr.w	r3, [r7, #200]	; 0xc8
    349c:	00db      	lsls	r3, r3, #3
    349e:	68fa      	ldr	r2, [r7, #12]
    34a0:	4413      	add	r3, r2
    34a2:	edd3 7a00 	vldr	s15, [r3]
    34a6:	ee77 7a67 	vsub.f32	s15, s14, s15
    34aa:	edc7 7a2d 	vstr	s15, [r7, #180]	; 0xb4
    34ae:	f8d7 30d4 	ldr.w	r3, [r7, #212]	; 0xd4
    34b2:	00db      	lsls	r3, r3, #3
    34b4:	68fa      	ldr	r2, [r7, #12]
    34b6:	4413      	add	r3, r2
    34b8:	ed93 7a00 	vldr	s14, [r3]
    34bc:	f8d7 30c4 	ldr.w	r3, [r7, #196]	; 0xc4
    34c0:	00db      	lsls	r3, r3, #3
    34c2:	68fa      	ldr	r2, [r7, #12]
    34c4:	4413      	add	r3, r2
    34c6:	edd3 7a00 	vldr	s15, [r3]
    34ca:	ee77 7a27 	vadd.f32	s15, s14, s15
    34ce:	edc7 7a2c 	vstr	s15, [r7, #176]	; 0xb0
    34d2:	f8d7 30d4 	ldr.w	r3, [r7, #212]	; 0xd4
    34d6:	00db      	lsls	r3, r3, #3
    34d8:	68fa      	ldr	r2, [r7, #12]
    34da:	4413      	add	r3, r2
    34dc:	ed93 7a00 	vldr	s14, [r3]
    34e0:	f8d7 30c4 	ldr.w	r3, [r7, #196]	; 0xc4
    34e4:	00db      	lsls	r3, r3, #3
    34e6:	68fa      	ldr	r2, [r7, #12]
    34e8:	4413      	add	r3, r2
    34ea:	edd3 7a00 	vldr	s15, [r3]
    34ee:	ee77 7a67 	vsub.f32	s15, s14, s15
    34f2:	edc7 7a2b 	vstr	s15, [r7, #172]	; 0xac
    34f6:	f8d7 30d0 	ldr.w	r3, [r7, #208]	; 0xd0
    34fa:	00db      	lsls	r3, r3, #3
    34fc:	68fa      	ldr	r2, [r7, #12]
    34fe:	4413      	add	r3, r2
    3500:	ed93 7a00 	vldr	s14, [r3]
    3504:	f8d7 30c0 	ldr.w	r3, [r7, #192]	; 0xc0
    3508:	00db      	lsls	r3, r3, #3
    350a:	68fa      	ldr	r2, [r7, #12]
    350c:	4413      	add	r3, r2
    350e:	edd3 7a00 	vldr	s15, [r3]
    3512:	ee77 7a27 	vadd.f32	s15, s14, s15
    3516:	edc7 7a2a 	vstr	s15, [r7, #168]	; 0xa8
    351a:	f8d7 30d0 	ldr.w	r3, [r7, #208]	; 0xd0
    351e:	00db      	lsls	r3, r3, #3
    3520:	68fa      	ldr	r2, [r7, #12]
    3522:	4413      	add	r3, r2
    3524:	ed93 7a00 	vldr	s14, [r3]
    3528:	f8d7 30c0 	ldr.w	r3, [r7, #192]	; 0xc0
    352c:	00db      	lsls	r3, r3, #3
    352e:	68fa      	ldr	r2, [r7, #12]
    3530:	4413      	add	r3, r2
    3532:	edd3 7a00 	vldr	s15, [r3]
    3536:	ee77 7a67 	vsub.f32	s15, s14, s15
    353a:	edc7 7a29 	vstr	s15, [r7, #164]	; 0xa4
    353e:	f8d7 30cc 	ldr.w	r3, [r7, #204]	; 0xcc
    3542:	00db      	lsls	r3, r3, #3
    3544:	68fa      	ldr	r2, [r7, #12]
    3546:	4413      	add	r3, r2
    3548:	ed93 7a00 	vldr	s14, [r3]
    354c:	f8d7 30bc 	ldr.w	r3, [r7, #188]	; 0xbc
    3550:	00db      	lsls	r3, r3, #3
    3552:	68fa      	ldr	r2, [r7, #12]
    3554:	4413      	add	r3, r2
    3556:	edd3 7a00 	vldr	s15, [r3]
    355a:	ee77 7a27 	vadd.f32	s15, s14, s15
    355e:	edc7 7a28 	vstr	s15, [r7, #160]	; 0xa0
    3562:	f8d7 30cc 	ldr.w	r3, [r7, #204]	; 0xcc
    3566:	00db      	lsls	r3, r3, #3
    3568:	68fa      	ldr	r2, [r7, #12]
    356a:	4413      	add	r3, r2
    356c:	ed93 7a00 	vldr	s14, [r3]
    3570:	f8d7 30bc 	ldr.w	r3, [r7, #188]	; 0xbc
    3574:	00db      	lsls	r3, r3, #3
    3576:	68fa      	ldr	r2, [r7, #12]
    3578:	4413      	add	r3, r2
    357a:	edd3 7a00 	vldr	s15, [r3]
    357e:	ee77 7a67 	vsub.f32	s15, s14, s15
    3582:	edc7 7a27 	vstr	s15, [r7, #156]	; 0x9c
    3586:	ed97 7a2e 	vldr	s14, [r7, #184]	; 0xb8
    358a:	edd7 7a2a 	vldr	s15, [r7, #168]	; 0xa8
    358e:	ee77 7a67 	vsub.f32	s15, s14, s15
    3592:	edc7 7a26 	vstr	s15, [r7, #152]	; 0x98
    3596:	ed97 7a2e 	vldr	s14, [r7, #184]	; 0xb8
    359a:	edd7 7a2a 	vldr	s15, [r7, #168]	; 0xa8
    359e:	ee77 7a27 	vadd.f32	s15, s14, s15
    35a2:	edc7 7a2e 	vstr	s15, [r7, #184]	; 0xb8
    35a6:	ed97 7a2c 	vldr	s14, [r7, #176]	; 0xb0
    35aa:	edd7 7a28 	vldr	s15, [r7, #160]	; 0xa0
    35ae:	ee77 7a67 	vsub.f32	s15, s14, s15
    35b2:	edc7 7a2a 	vstr	s15, [r7, #168]	; 0xa8
    35b6:	ed97 7a2c 	vldr	s14, [r7, #176]	; 0xb0
    35ba:	edd7 7a28 	vldr	s15, [r7, #160]	; 0xa0
    35be:	ee77 7a27 	vadd.f32	s15, s14, s15
    35c2:	edc7 7a2c 	vstr	s15, [r7, #176]	; 0xb0
    35c6:	f8d7 30e8 	ldr.w	r3, [r7, #232]	; 0xe8
    35ca:	00db      	lsls	r3, r3, #3
    35cc:	68fa      	ldr	r2, [r7, #12]
    35ce:	4413      	add	r3, r2
    35d0:	ed97 7a2e 	vldr	s14, [r7, #184]	; 0xb8
    35d4:	edd7 7a2c 	vldr	s15, [r7, #176]	; 0xb0
    35d8:	ee77 7a27 	vadd.f32	s15, s14, s15
    35dc:	edc3 7a00 	vstr	s15, [r3]
    35e0:	f8d7 30c8 	ldr.w	r3, [r7, #200]	; 0xc8
    35e4:	00db      	lsls	r3, r3, #3
    35e6:	68fa      	ldr	r2, [r7, #12]
    35e8:	4413      	add	r3, r2
    35ea:	ed97 7a2e 	vldr	s14, [r7, #184]	; 0xb8
    35ee:	edd7 7a2c 	vldr	s15, [r7, #176]	; 0xb0
    35f2:	ee77 7a67 	vsub.f32	s15, s14, s15
    35f6:	edc3 7a00 	vstr	s15, [r3]
    35fa:	f8d7 30e8 	ldr.w	r3, [r7, #232]	; 0xe8
    35fe:	00db      	lsls	r3, r3, #3
    3600:	3304      	adds	r3, #4
    3602:	68fa      	ldr	r2, [r7, #12]
    3604:	4413      	add	r3, r2
    3606:	ed93 7a00 	vldr	s14, [r3]
    360a:	f8d7 30c8 	ldr.w	r3, [r7, #200]	; 0xc8
    360e:	00db      	lsls	r3, r3, #3
    3610:	3304      	adds	r3, #4
    3612:	68fa      	ldr	r2, [r7, #12]
    3614:	4413      	add	r3, r2
    3616:	edd3 7a00 	vldr	s15, [r3]
    361a:	ee77 7a27 	vadd.f32	s15, s14, s15
    361e:	edc7 7a2e 	vstr	s15, [r7, #184]	; 0xb8
    3622:	f8d7 30e8 	ldr.w	r3, [r7, #232]	; 0xe8
    3626:	00db      	lsls	r3, r3, #3
    3628:	3304      	adds	r3, #4
    362a:	68fa      	ldr	r2, [r7, #12]
    362c:	4413      	add	r3, r2
    362e:	ed93 7a00 	vldr	s14, [r3]
    3632:	f8d7 30c8 	ldr.w	r3, [r7, #200]	; 0xc8
    3636:	00db      	lsls	r3, r3, #3
    3638:	3304      	adds	r3, #4
    363a:	68fa      	ldr	r2, [r7, #12]
    363c:	4413      	add	r3, r2
    363e:	edd3 7a00 	vldr	s15, [r3]
    3642:	ee77 7a67 	vsub.f32	s15, s14, s15
    3646:	edc7 7a25 	vstr	s15, [r7, #148]	; 0x94
    364a:	f8d7 30d4 	ldr.w	r3, [r7, #212]	; 0xd4
    364e:	00db      	lsls	r3, r3, #3
    3650:	3304      	adds	r3, #4
    3652:	68fa      	ldr	r2, [r7, #12]
    3654:	4413      	add	r3, r2
    3656:	ed93 7a00 	vldr	s14, [r3]
    365a:	f8d7 30c4 	ldr.w	r3, [r7, #196]	; 0xc4
    365e:	00db      	lsls	r3, r3, #3
    3660:	3304      	adds	r3, #4
    3662:	68fa      	ldr	r2, [r7, #12]
    3664:	4413      	add	r3, r2
    3666:	edd3 7a00 	vldr	s15, [r3]
    366a:	ee77 7a27 	vadd.f32	s15, s14, s15
    366e:	edc7 7a2c 	vstr	s15, [r7, #176]	; 0xb0
    3672:	f8d7 30d4 	ldr.w	r3, [r7, #212]	; 0xd4
    3676:	00db      	lsls	r3, r3, #3
    3678:	3304      	adds	r3, #4
    367a:	68fa      	ldr	r2, [r7, #12]
    367c:	4413      	add	r3, r2
    367e:	ed93 7a00 	vldr	s14, [r3]
    3682:	f8d7 30c4 	ldr.w	r3, [r7, #196]	; 0xc4
    3686:	00db      	lsls	r3, r3, #3
    3688:	3304      	adds	r3, #4
    368a:	68fa      	ldr	r2, [r7, #12]
    368c:	4413      	add	r3, r2
    368e:	edd3 7a00 	vldr	s15, [r3]
    3692:	ee77 7a67 	vsub.f32	s15, s14, s15
    3696:	edc7 7a24 	vstr	s15, [r7, #144]	; 0x90
    369a:	f8d7 30d0 	ldr.w	r3, [r7, #208]	; 0xd0
    369e:	00db      	lsls	r3, r3, #3
    36a0:	3304      	adds	r3, #4
    36a2:	68fa      	ldr	r2, [r7, #12]
    36a4:	4413      	add	r3, r2
    36a6:	ed93 7a00 	vldr	s14, [r3]
    36aa:	f8d7 30c0 	ldr.w	r3, [r7, #192]	; 0xc0
    36ae:	00db      	lsls	r3, r3, #3
    36b0:	3304      	adds	r3, #4
    36b2:	68fa      	ldr	r2, [r7, #12]
    36b4:	4413      	add	r3, r2
    36b6:	edd3 7a00 	vldr	s15, [r3]
    36ba:	ee77 7a27 	vadd.f32	s15, s14, s15
    36be:	edc7 7a23 	vstr	s15, [r7, #140]	; 0x8c
    36c2:	f8d7 30d0 	ldr.w	r3, [r7, #208]	; 0xd0
    36c6:	00db      	lsls	r3, r3, #3
    36c8:	3304      	adds	r3, #4
    36ca:	68fa      	ldr	r2, [r7, #12]
    36cc:	4413      	add	r3, r2
    36ce:	ed93 7a00 	vldr	s14, [r3]
    36d2:	f8d7 30c0 	ldr.w	r3, [r7, #192]	; 0xc0
    36d6:	00db      	lsls	r3, r3, #3
    36d8:	3304      	adds	r3, #4
    36da:	68fa      	ldr	r2, [r7, #12]
    36dc:	4413      	add	r3, r2
    36de:	edd3 7a00 	vldr	s15, [r3]
    36e2:	ee77 7a67 	vsub.f32	s15, s14, s15
    36e6:	edc7 7a22 	vstr	s15, [r7, #136]	; 0x88
    36ea:	f8d7 30cc 	ldr.w	r3, [r7, #204]	; 0xcc
    36ee:	00db      	lsls	r3, r3, #3
    36f0:	3304      	adds	r3, #4
    36f2:	68fa      	ldr	r2, [r7, #12]
    36f4:	4413      	add	r3, r2
    36f6:	ed93 7a00 	vldr	s14, [r3]
    36fa:	f8d7 30bc 	ldr.w	r3, [r7, #188]	; 0xbc
    36fe:	00db      	lsls	r3, r3, #3
    3700:	3304      	adds	r3, #4
    3702:	68fa      	ldr	r2, [r7, #12]
    3704:	4413      	add	r3, r2
    3706:	edd3 7a00 	vldr	s15, [r3]
    370a:	ee77 7a27 	vadd.f32	s15, s14, s15
    370e:	edc7 7a28 	vstr	s15, [r7, #160]	; 0xa0
    3712:	f8d7 30cc 	ldr.w	r3, [r7, #204]	; 0xcc
    3716:	00db      	lsls	r3, r3, #3
    3718:	3304      	adds	r3, #4
    371a:	68fa      	ldr	r2, [r7, #12]
    371c:	4413      	add	r3, r2
    371e:	ed93 7a00 	vldr	s14, [r3]
    3722:	f8d7 30bc 	ldr.w	r3, [r7, #188]	; 0xbc
    3726:	00db      	lsls	r3, r3, #3
    3728:	3304      	adds	r3, #4
    372a:	68fa      	ldr	r2, [r7, #12]
    372c:	4413      	add	r3, r2
    372e:	edd3 7a00 	vldr	s15, [r3]
    3732:	ee77 7a67 	vsub.f32	s15, s14, s15
    3736:	edc7 7a21 	vstr	s15, [r7, #132]	; 0x84
    373a:	ed97 7a2e 	vldr	s14, [r7, #184]	; 0xb8
    373e:	edd7 7a23 	vldr	s15, [r7, #140]	; 0x8c
    3742:	ee77 7a67 	vsub.f32	s15, s14, s15
    3746:	edc7 7a20 	vstr	s15, [r7, #128]	; 0x80
    374a:	ed97 7a2e 	vldr	s14, [r7, #184]	; 0xb8
    374e:	edd7 7a23 	vldr	s15, [r7, #140]	; 0x8c
    3752:	ee77 7a27 	vadd.f32	s15, s14, s15
    3756:	edc7 7a2e 	vstr	s15, [r7, #184]	; 0xb8
    375a:	ed97 7a2c 	vldr	s14, [r7, #176]	; 0xb0
    375e:	edd7 7a28 	vldr	s15, [r7, #160]	; 0xa0
    3762:	ee77 7a67 	vsub.f32	s15, s14, s15
    3766:	edc7 7a23 	vstr	s15, [r7, #140]	; 0x8c
    376a:	ed97 7a2c 	vldr	s14, [r7, #176]	; 0xb0
    376e:	edd7 7a28 	vldr	s15, [r7, #160]	; 0xa0
    3772:	ee77 7a27 	vadd.f32	s15, s14, s15
    3776:	edc7 7a2c 	vstr	s15, [r7, #176]	; 0xb0
    377a:	f8d7 30e8 	ldr.w	r3, [r7, #232]	; 0xe8
    377e:	00db      	lsls	r3, r3, #3
    3780:	3304      	adds	r3, #4
    3782:	68fa      	ldr	r2, [r7, #12]
    3784:	4413      	add	r3, r2
    3786:	ed97 7a2e 	vldr	s14, [r7, #184]	; 0xb8
    378a:	edd7 7a2c 	vldr	s15, [r7, #176]	; 0xb0
    378e:	ee77 7a27 	vadd.f32	s15, s14, s15
    3792:	edc3 7a00 	vstr	s15, [r3]
    3796:	f8d7 30c8 	ldr.w	r3, [r7, #200]	; 0xc8
    379a:	00db      	lsls	r3, r3, #3
    379c:	3304      	adds	r3, #4
    379e:	68fa      	ldr	r2, [r7, #12]
    37a0:	4413      	add	r3, r2
    37a2:	ed97 7a2e 	vldr	s14, [r7, #184]	; 0xb8
    37a6:	edd7 7a2c 	vldr	s15, [r7, #176]	; 0xb0
    37aa:	ee77 7a67 	vsub.f32	s15, s14, s15
    37ae:	edc3 7a00 	vstr	s15, [r3]
    37b2:	f8d7 30d0 	ldr.w	r3, [r7, #208]	; 0xd0
    37b6:	00db      	lsls	r3, r3, #3
    37b8:	68fa      	ldr	r2, [r7, #12]
    37ba:	4413      	add	r3, r2
    37bc:	ed97 7a26 	vldr	s14, [r7, #152]	; 0x98
    37c0:	edd7 7a23 	vldr	s15, [r7, #140]	; 0x8c
    37c4:	ee77 7a27 	vadd.f32	s15, s14, s15
    37c8:	edc3 7a00 	vstr	s15, [r3]
    37cc:	f8d7 30c0 	ldr.w	r3, [r7, #192]	; 0xc0
    37d0:	00db      	lsls	r3, r3, #3
    37d2:	68fa      	ldr	r2, [r7, #12]
    37d4:	4413      	add	r3, r2
    37d6:	ed97 7a26 	vldr	s14, [r7, #152]	; 0x98
    37da:	edd7 7a23 	vldr	s15, [r7, #140]	; 0x8c
    37de:	ee77 7a67 	vsub.f32	s15, s14, s15
    37e2:	edc3 7a00 	vstr	s15, [r3]
    37e6:	f8d7 30d0 	ldr.w	r3, [r7, #208]	; 0xd0
    37ea:	00db      	lsls	r3, r3, #3
    37ec:	3304      	adds	r3, #4
    37ee:	68fa      	ldr	r2, [r7, #12]
    37f0:	4413      	add	r3, r2
    37f2:	ed97 7a20 	vldr	s14, [r7, #128]	; 0x80
    37f6:	edd7 7a2a 	vldr	s15, [r7, #168]	; 0xa8
    37fa:	ee77 7a67 	vsub.f32	s15, s14, s15
    37fe:	edc3 7a00 	vstr	s15, [r3]
    3802:	f8d7 30c0 	ldr.w	r3, [r7, #192]	; 0xc0
    3806:	00db      	lsls	r3, r3, #3
    3808:	3304      	adds	r3, #4
    380a:	68fa      	ldr	r2, [r7, #12]
    380c:	4413      	add	r3, r2
    380e:	ed97 7a20 	vldr	s14, [r7, #128]	; 0x80
    3812:	edd7 7a2a 	vldr	s15, [r7, #168]	; 0xa8
    3816:	ee77 7a27 	vadd.f32	s15, s14, s15
    381a:	edc3 7a00 	vstr	s15, [r3]
    381e:	ed97 7a2b 	vldr	s14, [r7, #172]	; 0xac
    3822:	edd7 7a27 	vldr	s15, [r7, #156]	; 0x9c
    3826:	ee37 7a67 	vsub.f32	s14, s14, s15
    382a:	edd7 7a37 	vldr	s15, [r7, #220]	; 0xdc
    382e:	ee67 7a27 	vmul.f32	s15, s14, s15
    3832:	edc7 7a2e 	vstr	s15, [r7, #184]	; 0xb8
    3836:	ed97 7a2b 	vldr	s14, [r7, #172]	; 0xac
    383a:	edd7 7a27 	vldr	s15, [r7, #156]	; 0x9c
    383e:	ee37 7a27 	vadd.f32	s14, s14, s15
    3842:	edd7 7a37 	vldr	s15, [r7, #220]	; 0xdc
    3846:	ee67 7a27 	vmul.f32	s15, s14, s15
    384a:	edc7 7a2b 	vstr	s15, [r7, #172]	; 0xac
    384e:	ed97 7a24 	vldr	s14, [r7, #144]	; 0x90
    3852:	edd7 7a21 	vldr	s15, [r7, #132]	; 0x84
    3856:	ee37 7a67 	vsub.f32	s14, s14, s15
    385a:	edd7 7a37 	vldr	s15, [r7, #220]	; 0xdc
    385e:	ee67 7a27 	vmul.f32	s15, s14, s15
    3862:	edc7 7a2c 	vstr	s15, [r7, #176]	; 0xb0
    3866:	ed97 7a24 	vldr	s14, [r7, #144]	; 0x90
    386a:	edd7 7a21 	vldr	s15, [r7, #132]	; 0x84
    386e:	ee37 7a27 	vadd.f32	s14, s14, s15
    3872:	edd7 7a37 	vldr	s15, [r7, #220]	; 0xdc
    3876:	ee67 7a27 	vmul.f32	s15, s14, s15
    387a:	edc7 7a24 	vstr	s15, [r7, #144]	; 0x90
    387e:	ed97 7a2d 	vldr	s14, [r7, #180]	; 0xb4
    3882:	edd7 7a2e 	vldr	s15, [r7, #184]	; 0xb8
    3886:	ee77 7a67 	vsub.f32	s15, s14, s15
    388a:	edc7 7a26 	vstr	s15, [r7, #152]	; 0x98
    388e:	ed97 7a2d 	vldr	s14, [r7, #180]	; 0xb4
    3892:	edd7 7a2e 	vldr	s15, [r7, #184]	; 0xb8
    3896:	ee77 7a27 	vadd.f32	s15, s14, s15
    389a:	edc7 7a2d 	vstr	s15, [r7, #180]	; 0xb4
    389e:	ed97 7a29 	vldr	s14, [r7, #164]	; 0xa4
    38a2:	edd7 7a2b 	vldr	s15, [r7, #172]	; 0xac
    38a6:	ee77 7a67 	vsub.f32	s15, s14, s15
    38aa:	edc7 7a27 	vstr	s15, [r7, #156]	; 0x9c
    38ae:	ed97 7a29 	vldr	s14, [r7, #164]	; 0xa4
    38b2:	edd7 7a2b 	vldr	s15, [r7, #172]	; 0xac
    38b6:	ee77 7a27 	vadd.f32	s15, s14, s15
    38ba:	edc7 7a29 	vstr	s15, [r7, #164]	; 0xa4
    38be:	ed97 7a25 	vldr	s14, [r7, #148]	; 0x94
    38c2:	edd7 7a2c 	vldr	s15, [r7, #176]	; 0xb0
    38c6:	ee77 7a67 	vsub.f32	s15, s14, s15
    38ca:	edc7 7a20 	vstr	s15, [r7, #128]	; 0x80
    38ce:	ed97 7a25 	vldr	s14, [r7, #148]	; 0x94
    38d2:	edd7 7a2c 	vldr	s15, [r7, #176]	; 0xb0
    38d6:	ee77 7a27 	vadd.f32	s15, s14, s15
    38da:	edc7 7a25 	vstr	s15, [r7, #148]	; 0x94
    38de:	ed97 7a22 	vldr	s14, [r7, #136]	; 0x88
    38e2:	edd7 7a24 	vldr	s15, [r7, #144]	; 0x90
    38e6:	ee77 7a67 	vsub.f32	s15, s14, s15
    38ea:	edc7 7a21 	vstr	s15, [r7, #132]	; 0x84
    38ee:	ed97 7a22 	vldr	s14, [r7, #136]	; 0x88
    38f2:	edd7 7a24 	vldr	s15, [r7, #144]	; 0x90
    38f6:	ee77 7a27 	vadd.f32	s15, s14, s15
    38fa:	edc7 7a22 	vstr	s15, [r7, #136]	; 0x88
    38fe:	f8d7 30d4 	ldr.w	r3, [r7, #212]	; 0xd4
    3902:	00db      	lsls	r3, r3, #3
    3904:	68fa      	ldr	r2, [r7, #12]
    3906:	4413      	add	r3, r2
    3908:	ed97 7a2d 	vldr	s14, [r7, #180]	; 0xb4
    390c:	edd7 7a22 	vldr	s15, [r7, #136]	; 0x88
    3910:	ee77 7a27 	vadd.f32	s15, s14, s15
    3914:	edc3 7a00 	vstr	s15, [r3]
