
C:\Users\emh203\Documents\GitHub\ESC-M4\CM4_TEST\CM4_TEST_XPRESSO54114\-O0 SOFT\CM4_TEST_LPC54110_O0_SOFT.axf:     file format elf32-littlearm
C:\Users\emh203\Documents\GitHub\ESC-M4\CM4_TEST\CM4_TEST_XPRESSO54114\-O0 SOFT\CM4_TEST_LPC54110_O0_SOFT.axf
architecture: arm, flags 0x00000112:
EXEC_P, HAS_SYMS, D_PAGED
start address 0x000001c1

Program Header:
    LOAD off    0x00010000 vaddr 0x00000000 paddr 0x00000000 align 2**16
         filesz 0x0001f0f8 memsz 0x0001f0f8 flags r-x
    LOAD off    0x00030000 vaddr 0x20000000 paddr 0x0001f0f8 align 2**16
         filesz 0x000000f8 memsz 0x0000a4c8 flags rw-
private flags = 5000200: [Version5 EABI] [soft-float ABI]

Sections:
Idx Name          Size      VMA       LMA       File off  Algn
  0 .text         0001f0f8  00000000  00000000  00010000  2**3
                  CONTENTS, ALLOC, LOAD, READONLY, CODE
  1 .data         000000f8  20000000  0001f0f8  00030000  2**2
                  CONTENTS, ALLOC, LOAD, DATA
  2 .bss          0000a3d0  200000f8  0001f1f0  000300f8  2**3
                  ALLOC
  3 .uninit_RESERVED 00000000  20000000  20000000  000300f8  2**2
                  CONTENTS
  4 .noinit       00000000  2000a4c8  2000a4c8  000300f8  2**2
                  CONTENTS
  5 .debug_info   0000edec  00000000  00000000  000300f8  2**0
                  CONTENTS, READONLY, DEBUGGING
  6 .debug_abbrev 00002659  00000000  00000000  0003eee4  2**0
                  CONTENTS, READONLY, DEBUGGING
  7 .debug_aranges 000008b0  00000000  00000000  00041540  2**3
                  CONTENTS, READONLY, DEBUGGING
  8 .debug_ranges 000006c0  00000000  00000000  00041df0  2**0
                  CONTENTS, READONLY, DEBUGGING
  9 .debug_macro  00008588  00000000  00000000  000424b0  2**0
                  CONTENTS, READONLY, DEBUGGING
 10 .debug_line   000073ac  00000000  00000000  0004aa38  2**0
                  CONTENTS, READONLY, DEBUGGING
 11 .debug_str    0001a162  00000000  00000000  00051de4  2**0
                  CONTENTS, READONLY, DEBUGGING
 12 .comment      0000014c  00000000  00000000  0006bf46  2**0
                  CONTENTS, READONLY
 13 .ARM.attributes 00000035  00000000  00000000  0006c092  2**0
                  CONTENTS, READONLY
 14 .debug_frame  00001b24  00000000  00000000  0006c0c8  2**2
                  CONTENTS, READONLY, DEBUGGING
 15 .debug_loc    00000aeb  00000000  00000000  0006dbec  2**0
                  CONTENTS, READONLY, DEBUGGING
SYMBOL TABLE:
00000000 l    d  .text	00000000 .text
20000000 l    d  .data	00000000 .data
200000f8 l    d  .bss	00000000 .bss
20000000 l    d  .uninit_RESERVED	00000000 .uninit_RESERVED
2000a4c8 l    d  .noinit	00000000 .noinit
00000000 l    d  .debug_info	00000000 .debug_info
00000000 l    d  .debug_abbrev	00000000 .debug_abbrev
00000000 l    d  .debug_aranges	00000000 .debug_aranges
00000000 l    d  .debug_ranges	00000000 .debug_ranges
00000000 l    d  .debug_macro	00000000 .debug_macro
00000000 l    d  .debug_line	00000000 .debug_line
00000000 l    d  .debug_str	00000000 .debug_str
00000000 l    d  .comment	00000000 .comment
00000000 l    d  .ARM.attributes	00000000 .ARM.attributes
00000000 l    d  .debug_frame	00000000 .debug_frame
00000000 l    d  .debug_loc	00000000 .debug_loc
00000000 l    df *ABS*	00000000 cr_startup_lpc5411x.c
00000000 l    df *ABS*	00000000 crp.c
00000000 l    df *ABS*	00000000 CM4_TEST.c
00000300 l     F .text	00000088 Chip_SYSCON_PeriphReset
00000388 l     F .text	0000008c Chip_TIMER_Init
00000414 l     F .text	00000078 arm_pid_f32
00000000 l    df *ABS*	00000000 Goertzel.c
00000000 l    df *ABS*	00000000 sysinit.c
00000000 l    df *ABS*	00000000 board.c
00001e0c l     F .text	00000040 Board_LED_Init
00001e4c l     F .text	00000040 Board_TestIO_Init
00001e8c l     F .text	0000003c Board_Button_Init
00001ec8 l     F .text	0000003c Board_UART_Init
00009b20 l     O .text	00000004 tstBits
00009b24 l     O .text	00000006 btnBits
00009b2c l     O .text	00000006 ledBits
00000000 l    df *ABS*	00000000 board_sysinit.c
00001fc4 l     F .text	00000094 ConfigureBridgeSSEL
00009b34 l     O .text	00000030 pinmuxing
00000000 l    df *ABS*	00000000 arm_cfft_f32.c
00000000 l    df *ABS*	00000000 arm_cfft_radix8_f32.c
00000000 l    df *ABS*	00000000 arm_biquad_cascade_df1_f32.c
00000000 l    df *ABS*	00000000 arm_biquad_cascade_df1_init_f32.c
00000000 l    df *ABS*	00000000 arm_biquad_cascade_df2T_f32.c
00000000 l    df *ABS*	00000000 arm_biquad_cascade_df2T_init_f32.c
00000000 l    df *ABS*	00000000 arm_fir_f32.c
00000000 l    df *ABS*	00000000 arm_fir_init_f32.c
00000000 l    df *ABS*	00000000 arm_pid_init_f32.c
00000000 l    df *ABS*	00000000 arm_cmplx_mag_f32.c
000056c4 l     F .text	0000003e arm_sqrt_f32
00000000 l    df *ABS*	00000000 arm_cmplx_mag_squared_f32.c
00000000 l    df *ABS*	00000000 arm_bitreversal2.o
00005a2c l       .text	00000000 arm_bitreversal_32_0
00005a96 l       .text	00000000 arm_bitreversal_16_0
00000000 l    df *ABS*	00000000 chip_5411x.c
00000000 l    df *ABS*	00000000 clock_5411x.c
00005af4 l     F .text	00000018 Chip_Clock_GetExtClockInRate
00005b0c l     F .text	00000012 Chip_Clock_GetRTCOscRate
00005b20 l     F .text	0000002c Chip_Clock_GetFROHFRate
00005b4c l     F .text	0000001e Chip_Clock_GetMain_A_ClockSource
00005b6c l     F .text	00000018 Chip_Clock_GetMain_B_ClockSource
00005b84 l     F .text	0000001e Chip_Clock_GetFRGClockSource
00000000 l    df *ABS*	00000000 fpu_init.c
00000000 l    df *ABS*	00000000 pll_5411x.c
00005e30 l     F .text	00000018 Chip_Clock_GetExtClockInRate
00005e48 l     F .text	00000012 Chip_Clock_GetRTCOscRate
20000108 l     O .bss	00000004 curPllRate
00005e5c l     F .text	000000a0 pllDecodeN
00005efc l     F .text	00000088 pllDecodeP
00005f84 l     F .text	000000a0 pllDecodeM
000060e0 l     F .text	00000020 Chip_Clock_GetSystemPLLOutFromSetupUpdate
00000000 l    df *ABS*	00000000 syscon_5411x.c
00000000 l    df *ABS*	00000000 sysinit_5411x.c
000063cc l     F .text	00000034 Chip_SYSCON_SetFLASHAccess
00006400 l     F .text	00000020 Chip_Clock_SetMain_A_ClockSource
00006420 l     F .text	00000020 Chip_Clock_SetMain_B_ClockSource
00006440 l     F .text	00000020 Chip_Clock_SetAsyncSysconClockSource
00006460 l     F .text	0000003c Chip_Clock_SetMainClockSource
0000649c l     F .text	00000068 setupFlashClocks
00000000 l    df *ABS*	00000000 timer_5411x.c
00000000 l    df *ABS*	00000000 uart_5411x.c
000065ac l     F .text	0000002c Chip_SYSCON_SetUSARTFRGCtrl
000065d8 l     F .text	00000026 Chip_Clock_SetFLEXCOMMClockSource
00006600 l     F .text	00000020 Chip_Clock_SetFRGClockSource
00006620 l     F .text	0000001e Chip_Clock_GetFRGClockSource
00006640 l     F .text	00000020 Chip_UART_SendByte
00006660 l     F .text	0000001a Chip_UART_GetFIFOStatus
0000667c l     F .text	00000030 Chip_UART_SetFIFOCfg
000066ac l     F .text	0000001a Chip_UART_FlushFIFOs
000066c8 l     F .text	00000064 _UART_DivClk
0000672c l     F .text	00000052 _UART_GetHighDiv
00006780 l     F .text	00000070 _CalcErr
000067f0 l     F .text	000000e4 _UART_CalcDiv
000068d4 l     F .text	000000c8 _UART_CalcMul
00000000 l    df *ABS*	00000000 flexcomm_5411x.c
00006b24 l     F .text	00000088 Chip_SYSCON_PeriphReset
00006bac l     F .text	00000038 Chip_SYSCON_EnableWakeup
00006be4 l     F .text	00000026 Chip_Clock_SetFLEXCOMMClockSource
00000000 l    df *ABS*	00000000 _cr__main.c
00000000 l    df *ABS*	00000000 cosf.c
00000000 l    df *ABS*	00000000 sinf.c
00000000 l    df *ABS*	00000000 sqrtf_m4_softfp.o
00000000 l    df *ABS*	00000000 memset.c
00000000 l    df *ABS*	00000000 fpprintf.c
00006e3a l     F .text	0000004e fp_round
00006e88 l     F .text	00000026 pr_dec.constprop.1
00006f20 l     F .text	000008f6 fp_display
00000000 l    df *ABS*	00000000 initio.c
00000000 l    df *ABS*	00000000 printf.c
00000000 l    df *ABS*	00000000 setvbuf.c
00000000 l    df *ABS*	00000000 stdlib.c
20000014 l     O .data	000000dc _random_number_seed
200000f0 l     O .data	00000004 _random_j
200000f4 l     O .data	00000004 _random_k
00000000 l    df *ABS*	00000000 strlen.c
00000000 l    df *ABS*	00000000 _sincosf.c
00000000 l    df *ABS*	00000000 fabsf.c
00000000 l    df *ABS*	00000000 _deferredlazyseek.c
00000000 l    df *ABS*	00000000 _fdopen.c
00000000 l    df *ABS*	00000000 _fflush.c
00000000 l    df *ABS*	00000000 _frexpl.c
00000000 l    df *ABS*	00000000 _ldexpl.c
00000000 l    df *ABS*	00000000 _writebuf.c
00000000 l    df *ABS*	00000000 alloc.c
00000000 l    df *ABS*	00000000 fclose.c
00000000 l    df *ABS*	00000000 fflush.c
00000000 l    df *ABS*	00000000 fseek.c
00000000 l    df *ABS*	00000000 ftell.c
00000000 l    df *ABS*	00000000 remove.c
00000000 l    df *ABS*	00000000 _cr_sbrk.c
00000000 l    df *ABS*	00000000 _do_fflush.c
00000000 l    df *ABS*	00000000 _cr_check_heap.c
00000000 l    df *ABS*	00000000 division_64.o
0000902c l       .text	00000000 ldiv64
000090ca l       .text	00000000 ldiv_divzero
00008ffc l       .text	00000000 ldiv32
000090d6 l       .text	00000000 udiv6432
00009004 l       .text	00000000 ldiv_return
0000901a l       .text	00000000 ldiv_sign
000090b4 l       .text	00000000 ldiv_res01
000090f2 l       .text	00000000 udiv6432_entry
000090de l       .text	00000000 udiv6432_loop1
000090f4 l       .text	00000000 udiv6432_loop
00000000 l    df *ABS*	00000000 division_idiv0.o
00000000 l    df *ABS*	00000000 double.c
00000000 l    df *ABS*	00000000 float.c
00000000 l    df *ABS*	00000000 memcpy.o
000098e6 l       .text	00000000 memset1a
000098d4 l       .text	00000000 __bhs_memset4
000098d6 l       .text	00000000 memset4
000098e2 l       .text	00000000 memset1
00000000 l    df *ABS*	00000000 __sys_appexit.o
00000000 l    df *ABS*	00000000 __sys_close.o
00000000 l    df *ABS*	00000000 __sys_flen.o
00000000 l    df *ABS*	00000000 __sys_istty.o
00000000 l    df *ABS*	00000000 __sys_remove.o
00000000 l    df *ABS*	00000000 __sys_seek.o
00000000 l    df *ABS*	00000000 __sys_tmpnam.o
00000000 l    df *ABS*	00000000 arm_const_structs.c
00000000 l    df *ABS*	00000000 arm_common_tables.c
00000000 l    df *ABS*	00000000 _hugeval.c
20000260 g     O .bss	00000040 FIR_Coef_q15
000097de g     F .text	00000054 __aeabi_dcmple
00011b74 g     O .text	00008000 twiddleCoef_4096
000001b8  w    F .text	00000006 SCT0_IRQHandler
00006dac g     F .text	00000014 __main
000001a0  w    F .text	00000006 DebugMon_Handler
000088c8 g     F .text	00000044 _deferredlazyseek
00000000 g       *ABS*	00000000 __base_MFlash256
0000327c g     F .text	00000146 arm_cfft_f32
000000e0 g       .text	00000000 __section_table_start
000098f4 g     F .text	00000000 __exit
00006310 g     F .text	0000002e Chip_SYSCON_Enable_ASYNC_Syscon
0000993c g     F .text	00000000 __sys_tmpnam
00007874 g     F .text	00000054 printf
00009b84 g     O .text	00000010 arm_cfft_sR_f32_len64
00000178  w    F .text	00000006 HardFault_Handler
000001b8  w    F .text	00000006 WDT_BOD_IRQHandler
000001b8  w    F .text	00000006 FLEXCOMM5_IRQHandler
00000000 g       *ABS*	00000000 __vectors_start__
000001b8  w    F .text	00000006 FLEXCOMM7_IRQHandler
000001b0  w    F .text	00000006 SysTick_Handler
00006a94 g     F .text	0000008e Chip_UART_SetBaud
00006504 g     F .text	0000006c Chip_SetupFROClocking
000001a8  w    F .text	00000006 PendSV_Handler
000060a0 g     F .text	00000040 findPllMMult
00000170  w    F .text	00000006 NMI_Handler
00005ccc g     F .text	0000001e Chip_Clock_GetSystemClockRate
0001f0f8 g       .text	00000000 __exidx_end
000000ec g       .text	00000000 __data_section_table_end
000001b8  w    F .text	00000006 MRT_IRQHandler
0000890c g     F .text	00000140 __flsbuf
00009c74 g     O .text	00000100 twiddleCoef_32
dffd76ba g       *ABS*	00000000 __valid_user_code_checksum
2000a4c0 g     O .bss	00000004 __SWVtrace_Enabled
20000250 g     O .bss	00000004 errno
0001f0f8 g       .text	00000000 _etext
00008b68 g     F .text	0000004c _ldexpl
2000010c g     O .bss	00000004 _extra
00006e28 g     F .text	00000000 sqrtf
00006dac  w    F .text	00000014 __CR_SEMIHOST
00008b0e g     F .text	0000005a _frexpl
000001b8  w    F .text	00000006 ADC_SEQB_IRQHandler
00001d2c g     F .text	000000c0 ProcessGoertzel_f32_Power
00000138 g     F .text	00000038 bss_init
00006570 g     F .text	0000003c Chip_TIMER_Reset
00004890 g     F .text	00000d84 arm_fir_f32
00004858 g     F .text	00000038 arm_biquad_cascade_df2T_init_f32
000086b4 g     F .text	00000040 setvbuf
00005a86 g       .text	00000000 arm_bitreversal_16
00009d74 g     O .text	00000200 twiddleCoef_64
00008fdc g     F .text	00000174 __aeabi_uldivmod
2000a4c8 g       .noinit	00000000 _noinit
2000a4c4 g     O .bss	00000004 SystemCoreClock
00006060 g     F .text	0000003e findPllPostDiv
0000699c g     F .text	00000032 Chip_UART_Init
000001b8  w    F .text	00000006 HWVAD_IRQHandler
00008c1c g     F .text	000000c8 malloc
00008f2c g     F .text	00000014 remove
00006a6c g     F .text	00000026 Chip_UART_CalculateBaud
00009bf4 g     O .text	00000080 twiddleCoef_16
20000000 g     O .data	00000014 IIR_Coef_f32
00009b64 g     O .text	00000010 arm_cfft_sR_f32_len16
00000190  w    F .text	00000006 UsageFault_Handler
20028000 g       *ABS*	00000000 __top_RAM
000001b8  w    F .text	00000006 FLEXCOMM3_IRQHandler
00007818 g     F .text	0000005c vsnprintf
000046c4 g     F .text	00000038 arm_biquad_cascade_df1_init_f32
00002090 g     F .text	00000028 Board_SetupClocking
0000990c g     F .text	00000000 __sys_flen
00005704 g     F .text	00000180 arm_cmplx_mag_f32
00006100 g     F .text	00000064 Chip_Clock_GetSystemPLLInClockRate
000001b8  w    F .text	00000006 CT32B2_IRQHandler
000001b8  w    F .text	00000006 PIN_INT6_IRQHandler
000001b8  w    F .text	00000006 IntDefaultHandler
00000300 g       .text	00000000 __CRP_WORD_END__
000088b0 g     F .text	00000018 fabsf
000001b8  w    F .text	00000006 PIN_INT4_IRQHandler
00000000  w      *UND*	00000000 _pvHeapLimit
00009786 g     F .text	00000058 __aeabi_dcmplt
00008da0 g     F .text	00000030 fflush
00009264 g     F .text	0000013c __aeabi_ddiv
000001b8  w    F .text	00000006 FLEXCOMM6_IRQHandler
0001f0f8 g       .text	00000000 __exidx_start
00009154 g     F .text	00000110 __aeabi_dmul
000002fc g     O .text	00000004 CRP_WORD
00019b9c g     O .text	00000060 armBitRevIndexTable32
00009b1c g     O .text	00000004 ExtClockIn
00008a4c g     F .text	0000006a _fdopen
00006024 g     F .text	0000003a findPllPreDiv
000098c0 g     F .text	00000032 __aeabi_lowlevel_memset
000043d0 g     F .text	000002f4 arm_biquad_cascade_df1_f32
00019e0c g     O .text	00000370 armBitRevIndexTable256
00008f40 g     F .text	00000040 _sbrk
200002a0 g     O .bss	00000050 E_IIR
200002f0 g     O .bss	00002080 FIR_State
00001f6c g     F .text	00000058 Board_Init
200000f8 g     O .bss	00000010 IIR_State_f32
000000e0 g       .text	00000000 __data_section_table
00006dc0 g     F .text	0000003c cosf
00009668 g     F .text	00000058 __aeabi_d2f
000001b8  w    F .text	00000006 RTC_IRQHandler
2000a4c8 g       .bss	00000000 _ebss
000001b8  w    F .text	00000006 FLEXCOMM0_IRQHandler
0000796c g     F .text	00000d46 __vfprintf
00005ca4 g     F .text	00000028 Chip_Clock_GetMainClockRate
000001b8  w    F .text	00000006 USB_NEEDCLK_IRQHandler
0001a17c g     O .text	00000380 armBitRevIndexTable512
000001b8  w    F .text	00000006 CT32B3_IRQHandler
0001b30c g     O .text	00001dc0 armBitRevIndexTable2048
00009554 g     F .text	00000114 __aeabi_dadd
000000f4 g     F .text	00000044 data_init
00006164 g     F .text	00000144 Chip_Clock_GetSystemPLLOutFromSetup
000033c4 g     F .text	0000100a arm_radix8_butterfly_f32
00009ba4 g     O .text	00000010 arm_cfft_sR_f32_len256
0001d0cc g     O .text	00001f80 armBitRevIndexTable4096
000020d8 g     F .text	0000004c Chip_POWER_SetFROHFRate
00008dd0 g     F .text	00000110 fseek
00000000 g       *ABS*	00000000 __base_Flash
000001b8  w    F .text	00000006 CT32B1_IRQHandler
00019c6c g     O .text	000001a0 armBitRevIndexTable128
00008ab6 g     F .text	00000058 _fflush
000001b8  w    F .text	00000006 PIN_INT5_IRQHandler
00009700 g     F .text	00000046 __bhs_ui2d
00040000 g       *ABS*	00000000 __top_MFlash256
00009832 g     F .text	00000054 __aeabi_dcmpge
000001b8  w    F .text	00000006 PIN_INT2_IRQHandler
00008780 g     F .text	00000130 _sincosf
000001b8  w    F .text	00000006 FLEXCOMM2_IRQHandler
200000f8 g       .bss	00000000 _bss
000093a0 g     F .text	000001b4 __aeabi_dsub
20002370 g     O .bss	00000024 PID_Inst
00005c44 g     F .text	00000060 Chip_Clock_EnablePeriphClock
000086f4 g     F .text	0000003c rand
00009bc4 g     O .text	00000010 arm_cfft_sR_f32_len1024
00040000 g       *ABS*	00000000 __top_Flash
2000a4c8 g       .noinit	00000000 _end_noinit
20028000 g       *ABS*	00000000 _vStackTop
00009f74 g     O .text	00000400 twiddleCoef_128
20002394 g     O .bss	00000010 G
0000a374 g     O .text	00000800 twiddleCoef_256
0000db74 g     O .text	00004000 twiddleCoef_2048
000001b8  w    F .text	00000006 PIN_INT7_IRQHandler
000000f4 g       .text	00000000 __bss_section_table_end
20000000 g       *ABS*	00000000 __base_Ram0_160
00008fc4 g     F .text	00000018 __check_heap_overflow
00009746 g     F .text	00000010 __aeabi_i2d
000001b8  w    F .text	00000006 ADC_THCMP_IRQHandler
000001b8  w    F .text	00000006 PIN_INT1_IRQHandler
000001b8  w    F .text	00000006 USB_IRQHandler
200023a4 g     O .bss	00004000 InputData
00002124 g     F .text	00000118 Chip_POWER_SetVoltage
00001f2c g     F .text	0000001c Board_UARTPutChar
00009bd4 g     O .text	00000010 arm_cfft_sR_f32_len2048
000069d0 g     F .text	00000050 Chip_UART_Send
000001b8  w    F .text	00000006 CT32B4_IRQHandler
000062a8 g     F .text	00000068 Chip_Clock_GetSystemPLLOutClockRate
000001b8  w    F .text	00000006 IOH_IRQHandler
000002fc g       .text	00000000 __CRP_WORD_START__
00001f48 g     F .text	0000001a __sys_write
00005658 g     F .text	0000006c arm_pid_init_f32
00006e36 g     F .text	00000004 memset
00000180  w    F .text	00000006 MemManage_Handler
0000048c g     F .text	00001848 main
00008f80 g     F .text	00000044 _do_fflush
00008ee0 g     F .text	0000004c ftell
000001b8  w    F .text	00000006 MAILBOX_IRQHandler
00000198  w    F .text	00000006 SVC_Handler
00008d34 g     F .text	0000006c fclose
00005cec g     F .text	00000060 Chip_Clock_GetFRGInClockRate
0000ab74 g     O .text	00001000 twiddleCoef_512
0001a4fc g     O .text	00000e10 armBitRevIndexTable1024
000001b8  w    F .text	00000006 ADC_SEQA_IRQHandler
00009930 g     F .text	00000000 __sys_seek
00008fe0 g     F .text	00000000 __bhs_ldivmod1
00005dbc g     F .text	00000074 fpuInit
000001b8  w    F .text	00000006 PIN_INT0_IRQHandler
00005a1c g       .text	00000000 arm_bitreversal_32
00005c04 g     F .text	00000040 Chip_Clock_GetMain_B_ClockRate
00001dec g     F .text	00000020 SystemInit
000001b8  w    F .text	00000006 SPIFI_IRQHandler
000000ec g       .text	00000000 __bss_section_table
00005d4c g     F .text	00000070 Chip_Clock_GetWDTOSCRate
0001f0d8 g     O .text	00000008 __huge_vall
00009900 g     F .text	00000000 __sys_close
00006a20 g     F .text	0000004a Chip_UART_SendBlocking
00006eb0 g     F .text	0000006c sprintf
000046fc g     F .text	0000015a arm_biquad_cascade_df2T_f32
00002058 g     F .text	00000038 Board_SetupMuxing
00005ba4 g     F .text	00000060 Chip_Clock_GetMain_A_ClockRate
000001b8  w    F .text	00000006 UTICK_IRQHandler
000001b8  w    F .text	00000006 CT32B0_IRQHandler
00006340 g     F .text	0000008c Chip_SYSCON_PowerUp
200063a4 g     O .bss	00000080 FIR_Coef_f32
20000000 g       .uninit_RESERVED	00000000 _end_uninit_RESERVED
00008bb4 g     F .text	00000068 _Cwritebuf
00001cd4 g     F .text	00000058 InitGoertzel_f32
20000000 g       .data	00000000 _data
2000a4c8 g       .bss	00000000 _pvHeapStart
000000f4 g       .text	00000000 __section_table_end
00005614 g     F .text	00000042 arm_fir_init_f32
00006dfc g     F .text	0000002c sinf
00009bb4 g     O .text	00000010 arm_cfft_sR_f32_len512
000001b8  w    F .text	00000006 GINT0_IRQHandler
000001b8  w    F .text	00000006 FLEXCOMM4_IRQHandler
20006424 g     O .bss	0000000c FIR_Inst
00001f64 g     F .text	00000008 Board_Debug_Init
00009924 g     F .text	00000000 __sys_remove
00009756 g     F .text	00000030 __aeabi_dcmpeq
200000f8 g       .data	00000000 _edata
00006d1c g     F .text	0000008e Chip_FLEXCOMM_SetPeriph
00009b94 g     O .text	00000010 arm_cfft_sR_f32_len128
00002624 g     F .text	00000c56 arm_cfft_radix8by4_f32
000001b8  w    F .text	00000006 FLEXCOMM1_IRQHandler
00019bfc g     O .text	00000070 armBitRevIndexTable64
20000254 g     O .bss	00000004 __heaps
000098f4 g     F .text	00000000 __sys_appexit
00009be4 g     O .text	00000010 arm_cfft_sR_f32_len4096
20000000 g       *ABS*	00000000 __base_RAM
00000000 g     O .text	000000e0 g_pfnVectors
000001c0 g     F .text	000000c4 ResetISR
00005adc g     F .text	00000018 SystemCoreClockUpdate
00006ca8 g     F .text	00000074 Chip_FLEXCOMM_Init
000096c0 g     F .text	00000040 __aeabi_d2iz
00006c0c g     F .text	0000009c Chip_FLEXCOMM_GetIndex
20000258 g     O .bss	00000004 __end_of_heap
0000bb74 g     O .text	00002000 twiddleCoef_1024
000001b8  w    F .text	00000006 DMA_IRQHandler
00008d14 g     F .text	00000020 _Csys_alloc
00009150 g     F .text	00000002 __aeabi_idiv0
000001b8  w    F .text	00000006 Reserved38_IRQHandler
000001b8  w    F .text	00000006 PIN_INT3_IRQHandler
00000188  w    F .text	00000006 BusFault_Handler
00008730 g     F .text	0000004a strlen
00009b74 g     O .text	00000010 arm_cfft_sR_f32_len32
20006430 g     O .bss	00000080 FIR_Coef_q31
00001f04 g     F .text	00000028 Board_LED_Set
00009888 g     F .text	00000038 __aeabi_f2d
000078c8 g     F .text	000000a4 _initio
200064b0 g     O .bss	00004000 OutputData
000001b8  w    F .text	00000006 GINT1_IRQHandler
20000110 g     O .bss	00000140 __Ciob
20028000 g       *ABS*	00000000 __top_Ram0_160
00009918 g     F .text	00000000 __sys_istty
00019b74 g     O .text	00000028 armBitRevIndexTable16
0000223c g     F .text	000003e8 arm_cfft_radix8by2_f32
000001b8  w    F .text	00000006 DMIC_IRQHandler
00005884 g     F .text	00000198 arm_cmplx_mag_squared_f32
00008ce4 g     F .text	00000030 free
000020b8 g     F .text	00000020 Board_SystemInit
2000a4b0 g     O .bss	00000010 IIR_Inst



Disassembly of section .text:

00000000 <g_pfnVectors>:
       0:	00 80 02 20 c1 01 00 00 71 01 00 00 79 01 00 00     ... ....q...y...
      10:	81 01 00 00 89 01 00 00 91 01 00 00 ba 76 fd df     .............v..
	...
      2c:	99 01 00 00 a1 01 00 00 00 00 00 00 a9 01 00 00     ................
      3c:	b1 01 00 00 b9 01 00 00 b9 01 00 00 b9 01 00 00     ................
      4c:	b9 01 00 00 b9 01 00 00 b9 01 00 00 b9 01 00 00     ................
      5c:	b9 01 00 00 b9 01 00 00 b9 01 00 00 b9 01 00 00     ................
      6c:	b9 01 00 00 b9 01 00 00 b9 01 00 00 b9 01 00 00     ................
      7c:	b9 01 00 00 b9 01 00 00 b9 01 00 00 b9 01 00 00     ................
      8c:	b9 01 00 00 b9 01 00 00 b9 01 00 00 b9 01 00 00     ................
      9c:	b9 01 00 00 b9 01 00 00 b9 01 00 00 b9 01 00 00     ................
      ac:	b9 01 00 00 b9 01 00 00 b9 01 00 00 b9 01 00 00     ................
      bc:	b9 01 00 00 b9 01 00 00 b9 01 00 00 b9 01 00 00     ................
      cc:	b9 01 00 00 b9 01 00 00 b9 01 00 00 b9 01 00 00     ................
      dc:	b9 01 00 00                                         ....

000000e0 <__data_section_table>:
      e0:	0001f0f8 	.word	0x0001f0f8
      e4:	20000000 	.word	0x20000000
      e8:	000000f8 	.word	0x000000f8

000000ec <__bss_section_table>:
      ec:	200000f8 	.word	0x200000f8
      f0:	0000a3d0 	.word	0x0000a3d0

000000f4 <data_init>:
      f4:	b480      	push	{r7}
      f6:	b089      	sub	sp, #36	; 0x24
      f8:	af00      	add	r7, sp, #0
      fa:	60f8      	str	r0, [r7, #12]
      fc:	60b9      	str	r1, [r7, #8]
      fe:	607a      	str	r2, [r7, #4]
     100:	68bb      	ldr	r3, [r7, #8]
     102:	61fb      	str	r3, [r7, #28]
     104:	68fb      	ldr	r3, [r7, #12]
     106:	61bb      	str	r3, [r7, #24]
     108:	2300      	movs	r3, #0
     10a:	617b      	str	r3, [r7, #20]
     10c:	e00a      	b.n	124 <data_init+0x30>
     10e:	69fb      	ldr	r3, [r7, #28]
     110:	1d1a      	adds	r2, r3, #4
     112:	61fa      	str	r2, [r7, #28]
     114:	69ba      	ldr	r2, [r7, #24]
     116:	1d11      	adds	r1, r2, #4
     118:	61b9      	str	r1, [r7, #24]
     11a:	6812      	ldr	r2, [r2, #0]
     11c:	601a      	str	r2, [r3, #0]
     11e:	697b      	ldr	r3, [r7, #20]
     120:	3304      	adds	r3, #4
     122:	617b      	str	r3, [r7, #20]
     124:	697a      	ldr	r2, [r7, #20]
     126:	687b      	ldr	r3, [r7, #4]
     128:	429a      	cmp	r2, r3
     12a:	d3f0      	bcc.n	10e <data_init+0x1a>
     12c:	bf00      	nop
     12e:	3724      	adds	r7, #36	; 0x24
     130:	46bd      	mov	sp, r7
     132:	f85d 7b04 	ldr.w	r7, [sp], #4
     136:	4770      	bx	lr

00000138 <bss_init>:
     138:	b480      	push	{r7}
     13a:	b085      	sub	sp, #20
     13c:	af00      	add	r7, sp, #0
     13e:	6078      	str	r0, [r7, #4]
     140:	6039      	str	r1, [r7, #0]
     142:	687b      	ldr	r3, [r7, #4]
     144:	60fb      	str	r3, [r7, #12]
     146:	2300      	movs	r3, #0
     148:	60bb      	str	r3, [r7, #8]
     14a:	e007      	b.n	15c <bss_init+0x24>
     14c:	68fb      	ldr	r3, [r7, #12]
     14e:	1d1a      	adds	r2, r3, #4
     150:	60fa      	str	r2, [r7, #12]
     152:	2200      	movs	r2, #0
     154:	601a      	str	r2, [r3, #0]
     156:	68bb      	ldr	r3, [r7, #8]
     158:	3304      	adds	r3, #4
     15a:	60bb      	str	r3, [r7, #8]
     15c:	68ba      	ldr	r2, [r7, #8]
     15e:	683b      	ldr	r3, [r7, #0]
     160:	429a      	cmp	r2, r3
     162:	d3f3      	bcc.n	14c <bss_init+0x14>
     164:	bf00      	nop
     166:	3714      	adds	r7, #20
     168:	46bd      	mov	sp, r7
     16a:	f85d 7b04 	ldr.w	r7, [sp], #4
     16e:	4770      	bx	lr

00000170 <NMI_Handler>:
     170:	b480      	push	{r7}
     172:	af00      	add	r7, sp, #0
     174:	e7fe      	b.n	174 <NMI_Handler+0x4>
     176:	bf00      	nop

00000178 <HardFault_Handler>:
     178:	b480      	push	{r7}
     17a:	af00      	add	r7, sp, #0
     17c:	e7fe      	b.n	17c <HardFault_Handler+0x4>
     17e:	bf00      	nop

00000180 <MemManage_Handler>:
     180:	b480      	push	{r7}
     182:	af00      	add	r7, sp, #0
     184:	e7fe      	b.n	184 <MemManage_Handler+0x4>
     186:	bf00      	nop

00000188 <BusFault_Handler>:
     188:	b480      	push	{r7}
     18a:	af00      	add	r7, sp, #0
     18c:	e7fe      	b.n	18c <BusFault_Handler+0x4>
     18e:	bf00      	nop

00000190 <UsageFault_Handler>:
     190:	b480      	push	{r7}
     192:	af00      	add	r7, sp, #0
     194:	e7fe      	b.n	194 <UsageFault_Handler+0x4>
     196:	bf00      	nop

00000198 <SVC_Handler>:
     198:	b480      	push	{r7}
     19a:	af00      	add	r7, sp, #0
     19c:	e7fe      	b.n	19c <SVC_Handler+0x4>
     19e:	bf00      	nop

000001a0 <DebugMon_Handler>:
     1a0:	b480      	push	{r7}
     1a2:	af00      	add	r7, sp, #0
     1a4:	e7fe      	b.n	1a4 <DebugMon_Handler+0x4>
     1a6:	bf00      	nop

000001a8 <PendSV_Handler>:
     1a8:	b480      	push	{r7}
     1aa:	af00      	add	r7, sp, #0
     1ac:	e7fe      	b.n	1ac <PendSV_Handler+0x4>
     1ae:	bf00      	nop

000001b0 <SysTick_Handler>:
     1b0:	b480      	push	{r7}
     1b2:	af00      	add	r7, sp, #0
     1b4:	e7fe      	b.n	1b4 <SysTick_Handler+0x4>
     1b6:	bf00      	nop

000001b8 <ADC_SEQA_IRQHandler>:
     1b8:	b480      	push	{r7}
     1ba:	af00      	add	r7, sp, #0
     1bc:	e7fe      	b.n	1bc <ADC_SEQA_IRQHandler+0x4>
     1be:	bf00      	nop

000001c0 <ResetISR>:
     1c0:	b580      	push	{r7, lr}
     1c2:	b088      	sub	sp, #32
     1c4:	af00      	add	r7, sp, #0
     1c6:	4b28      	ldr	r3, [pc, #160]	; (268 <ResetISR+0xa8>)
     1c8:	61bb      	str	r3, [r7, #24]
     1ca:	69bb      	ldr	r3, [r7, #24]
     1cc:	2210      	movs	r2, #16
     1ce:	601a      	str	r2, [r3, #0]
     1d0:	4b26      	ldr	r3, [pc, #152]	; (26c <ResetISR+0xac>)
     1d2:	61fb      	str	r3, [r7, #28]
     1d4:	e013      	b.n	1fe <ResetISR+0x3e>
     1d6:	69fb      	ldr	r3, [r7, #28]
     1d8:	1d1a      	adds	r2, r3, #4
     1da:	61fa      	str	r2, [r7, #28]
     1dc:	681b      	ldr	r3, [r3, #0]
     1de:	617b      	str	r3, [r7, #20]
     1e0:	69fb      	ldr	r3, [r7, #28]
     1e2:	1d1a      	adds	r2, r3, #4
     1e4:	61fa      	str	r2, [r7, #28]
     1e6:	681b      	ldr	r3, [r3, #0]
     1e8:	613b      	str	r3, [r7, #16]
     1ea:	69fb      	ldr	r3, [r7, #28]
     1ec:	1d1a      	adds	r2, r3, #4
     1ee:	61fa      	str	r2, [r7, #28]
     1f0:	681b      	ldr	r3, [r3, #0]
     1f2:	60fb      	str	r3, [r7, #12]
     1f4:	68fa      	ldr	r2, [r7, #12]
     1f6:	6939      	ldr	r1, [r7, #16]
     1f8:	6978      	ldr	r0, [r7, #20]
     1fa:	f7ff ff7b 	bl	f4 <data_init>
     1fe:	69fb      	ldr	r3, [r7, #28]
     200:	4a1b      	ldr	r2, [pc, #108]	; (270 <ResetISR+0xb0>)
     202:	4293      	cmp	r3, r2
     204:	d3e7      	bcc.n	1d6 <ResetISR+0x16>
     206:	e00d      	b.n	224 <ResetISR+0x64>
     208:	69fb      	ldr	r3, [r7, #28]
     20a:	1d1a      	adds	r2, r3, #4
     20c:	61fa      	str	r2, [r7, #28]
     20e:	681b      	ldr	r3, [r3, #0]
     210:	613b      	str	r3, [r7, #16]
     212:	69fb      	ldr	r3, [r7, #28]
     214:	1d1a      	adds	r2, r3, #4
     216:	61fa      	str	r2, [r7, #28]
     218:	681b      	ldr	r3, [r3, #0]
     21a:	60fb      	str	r3, [r7, #12]
     21c:	68f9      	ldr	r1, [r7, #12]
     21e:	6938      	ldr	r0, [r7, #16]
     220:	f7ff ff8a 	bl	138 <bss_init>
     224:	69fb      	ldr	r3, [r7, #28]
     226:	4a13      	ldr	r2, [pc, #76]	; (274 <ResetISR+0xb4>)
     228:	4293      	cmp	r3, r2
     22a:	d3ed      	bcc.n	208 <ResetISR+0x48>
     22c:	4b12      	ldr	r3, [pc, #72]	; (278 <ResetISR+0xb8>)
     22e:	60bb      	str	r3, [r7, #8]
     230:	4b0d      	ldr	r3, [pc, #52]	; (268 <ResetISR+0xa8>)
     232:	607b      	str	r3, [r7, #4]
     234:	4b11      	ldr	r3, [pc, #68]	; (27c <ResetISR+0xbc>)
     236:	603b      	str	r3, [r7, #0]
     238:	68bb      	ldr	r3, [r7, #8]
     23a:	2200      	movs	r2, #0
     23c:	601a      	str	r2, [r3, #0]
     23e:	687b      	ldr	r3, [r7, #4]
     240:	f44f 5200 	mov.w	r2, #8192	; 0x2000
     244:	601a      	str	r2, [r3, #0]
     246:	683b      	ldr	r3, [r7, #0]
     248:	681b      	ldr	r3, [r3, #0]
     24a:	f403 5300 	and.w	r3, r3, #8192	; 0x2000
     24e:	2b00      	cmp	r3, #0
     250:	bf14      	ite	ne
     252:	2301      	movne	r3, #1
     254:	2300      	moveq	r3, #0
     256:	b2db      	uxtb	r3, r3
     258:	461a      	mov	r2, r3
     25a:	4b09      	ldr	r3, [pc, #36]	; (280 <ResetISR+0xc0>)
     25c:	601a      	str	r2, [r3, #0]
     25e:	f001 fdc5 	bl	1dec <SystemInit>
     262:	f006 fda3 	bl	6dac <__main>
     266:	e7fe      	b.n	266 <ResetISR+0xa6>
     268:	40000220 	.word	0x40000220
     26c:	000000e0 	.word	0x000000e0
     270:	000000ec 	.word	0x000000ec
     274:	000000f4 	.word	0x000000f4
     278:	40000304 	.word	0x40000304
     27c:	40000200 	.word	0x40000200
     280:	2000a4c0 	.word	0x2000a4c0
     284:	ffffffff 	.word	0xffffffff
     288:	ffffffff 	.word	0xffffffff
     28c:	ffffffff 	.word	0xffffffff
     290:	ffffffff 	.word	0xffffffff
     294:	ffffffff 	.word	0xffffffff
     298:	ffffffff 	.word	0xffffffff
     29c:	ffffffff 	.word	0xffffffff
     2a0:	ffffffff 	.word	0xffffffff
     2a4:	ffffffff 	.word	0xffffffff
     2a8:	ffffffff 	.word	0xffffffff
     2ac:	ffffffff 	.word	0xffffffff
     2b0:	ffffffff 	.word	0xffffffff
     2b4:	ffffffff 	.word	0xffffffff
     2b8:	ffffffff 	.word	0xffffffff
     2bc:	ffffffff 	.word	0xffffffff
     2c0:	ffffffff 	.word	0xffffffff
     2c4:	ffffffff 	.word	0xffffffff
     2c8:	ffffffff 	.word	0xffffffff
     2cc:	ffffffff 	.word	0xffffffff
     2d0:	ffffffff 	.word	0xffffffff
     2d4:	ffffffff 	.word	0xffffffff
     2d8:	ffffffff 	.word	0xffffffff
     2dc:	ffffffff 	.word	0xffffffff
     2e0:	ffffffff 	.word	0xffffffff
     2e4:	ffffffff 	.word	0xffffffff
     2e8:	ffffffff 	.word	0xffffffff
     2ec:	ffffffff 	.word	0xffffffff
     2f0:	ffffffff 	.word	0xffffffff
     2f4:	ffffffff 	.word	0xffffffff
     2f8:	ffffffff 	.word	0xffffffff

000002fc <CRP_WORD>:
     2fc:	ffffffff                                ....

00000300 <Chip_SYSCON_PeriphReset>:
     300:	b480      	push	{r7}
     302:	b085      	sub	sp, #20
     304:	af00      	add	r7, sp, #0
     306:	4603      	mov	r3, r0
     308:	71fb      	strb	r3, [r7, #7]
     30a:	79fb      	ldrb	r3, [r7, #7]
     30c:	60fb      	str	r3, [r7, #12]
     30e:	68fb      	ldr	r3, [r7, #12]
     310:	2b7f      	cmp	r3, #127	; 0x7f
     312:	d80d      	bhi.n	330 <Chip_SYSCON_PeriphReset+0x30>
     314:	f04f 4180 	mov.w	r1, #1073741824	; 0x40000000
     318:	68fb      	ldr	r3, [r7, #12]
     31a:	095b      	lsrs	r3, r3, #5
     31c:	68fa      	ldr	r2, [r7, #12]
     31e:	f002 021f 	and.w	r2, r2, #31
     322:	2001      	movs	r0, #1
     324:	fa00 f202 	lsl.w	r2, r0, r2
     328:	3348      	adds	r3, #72	; 0x48
     32a:	f841 2023 	str.w	r2, [r1, r3, lsl #2]
     32e:	e006      	b.n	33e <Chip_SYSCON_PeriphReset+0x3e>
     330:	4a14      	ldr	r2, [pc, #80]	; (384 <Chip_SYSCON_PeriphReset+0x84>)
     332:	68fb      	ldr	r3, [r7, #12]
     334:	3b80      	subs	r3, #128	; 0x80
     336:	2101      	movs	r1, #1
     338:	fa01 f303 	lsl.w	r3, r1, r3
     33c:	6053      	str	r3, [r2, #4]
     33e:	bf00      	nop
     340:	bf00      	nop
     342:	bf00      	nop
     344:	bf00      	nop
     346:	68fb      	ldr	r3, [r7, #12]
     348:	2b7f      	cmp	r3, #127	; 0x7f
     34a:	d80d      	bhi.n	368 <Chip_SYSCON_PeriphReset+0x68>
     34c:	f04f 4180 	mov.w	r1, #1073741824	; 0x40000000
     350:	68fb      	ldr	r3, [r7, #12]
     352:	095b      	lsrs	r3, r3, #5
     354:	68fa      	ldr	r2, [r7, #12]
     356:	f002 021f 	and.w	r2, r2, #31
     35a:	2001      	movs	r0, #1
     35c:	fa00 f202 	lsl.w	r2, r0, r2
     360:	3350      	adds	r3, #80	; 0x50
     362:	f841 2023 	str.w	r2, [r1, r3, lsl #2]
     366:	e006      	b.n	376 <Chip_SYSCON_PeriphReset+0x76>
     368:	4a06      	ldr	r2, [pc, #24]	; (384 <Chip_SYSCON_PeriphReset+0x84>)
     36a:	68fb      	ldr	r3, [r7, #12]
     36c:	3b80      	subs	r3, #128	; 0x80
     36e:	2101      	movs	r1, #1
     370:	fa01 f303 	lsl.w	r3, r1, r3
     374:	6093      	str	r3, [r2, #8]
     376:	bf00      	nop
     378:	3714      	adds	r7, #20
     37a:	46bd      	mov	sp, r7
     37c:	f85d 7b04 	ldr.w	r7, [sp], #4
     380:	4770      	bx	lr
     382:	bf00      	nop
     384:	40040000 	.word	0x40040000

00000388 <Chip_TIMER_Init>:
     388:	b580      	push	{r7, lr}
     38a:	b082      	sub	sp, #8
     38c:	af00      	add	r7, sp, #0
     38e:	6078      	str	r0, [r7, #4]
     390:	687b      	ldr	r3, [r7, #4]
     392:	4a1b      	ldr	r2, [pc, #108]	; (400 <Chip_TIMER_Init+0x78>)
     394:	4293      	cmp	r3, r2
     396:	d01c      	beq.n	3d2 <Chip_TIMER_Init+0x4a>
     398:	4a19      	ldr	r2, [pc, #100]	; (400 <Chip_TIMER_Init+0x78>)
     39a:	4293      	cmp	r3, r2
     39c:	d806      	bhi.n	3ac <Chip_TIMER_Init+0x24>
     39e:	4a19      	ldr	r2, [pc, #100]	; (404 <Chip_TIMER_Init+0x7c>)
     3a0:	4293      	cmp	r3, r2
     3a2:	d022      	beq.n	3ea <Chip_TIMER_Init+0x62>
     3a4:	4a18      	ldr	r2, [pc, #96]	; (408 <Chip_TIMER_Init+0x80>)
     3a6:	4293      	cmp	r3, r2
     3a8:	d019      	beq.n	3de <Chip_TIMER_Init+0x56>
     3aa:	e025      	b.n	3f8 <Chip_TIMER_Init+0x70>
     3ac:	4a17      	ldr	r2, [pc, #92]	; (40c <Chip_TIMER_Init+0x84>)
     3ae:	4293      	cmp	r3, r2
     3b0:	d009      	beq.n	3c6 <Chip_TIMER_Init+0x3e>
     3b2:	4a17      	ldr	r2, [pc, #92]	; (410 <Chip_TIMER_Init+0x88>)
     3b4:	4293      	cmp	r3, r2
     3b6:	d000      	beq.n	3ba <Chip_TIMER_Init+0x32>
     3b8:	e01e      	b.n	3f8 <Chip_TIMER_Init+0x70>
     3ba:	208e      	movs	r0, #142	; 0x8e
     3bc:	f005 fc42 	bl	5c44 <Chip_Clock_EnablePeriphClock>
     3c0:	208e      	movs	r0, #142	; 0x8e
     3c2:	f7ff ff9d 	bl	300 <Chip_SYSCON_PeriphReset>
     3c6:	208d      	movs	r0, #141	; 0x8d
     3c8:	f005 fc3c 	bl	5c44 <Chip_Clock_EnablePeriphClock>
     3cc:	208d      	movs	r0, #141	; 0x8d
     3ce:	f7ff ff97 	bl	300 <Chip_SYSCON_PeriphReset>
     3d2:	2036      	movs	r0, #54	; 0x36
     3d4:	f005 fc36 	bl	5c44 <Chip_Clock_EnablePeriphClock>
     3d8:	2036      	movs	r0, #54	; 0x36
     3da:	f7ff ff91 	bl	300 <Chip_SYSCON_PeriphReset>
     3de:	203b      	movs	r0, #59	; 0x3b
     3e0:	f005 fc30 	bl	5c44 <Chip_Clock_EnablePeriphClock>
     3e4:	2039      	movs	r0, #57	; 0x39
     3e6:	f7ff ff8b 	bl	300 <Chip_SYSCON_PeriphReset>
     3ea:	203a      	movs	r0, #58	; 0x3a
     3ec:	f005 fc2a 	bl	5c44 <Chip_Clock_EnablePeriphClock>
     3f0:	2038      	movs	r0, #56	; 0x38
     3f2:	f7ff ff85 	bl	300 <Chip_SYSCON_PeriphReset>
     3f6:	bf00      	nop
     3f8:	3708      	adds	r7, #8
     3fa:	46bd      	mov	sp, r7
     3fc:	bd80      	pop	{r7, pc}
     3fe:	bf00      	nop
     400:	40028000 	.word	0x40028000
     404:	40008000 	.word	0x40008000
     408:	40009000 	.word	0x40009000
     40c:	40048000 	.word	0x40048000
     410:	40049000 	.word	0x40049000

00000414 <arm_pid_f32>:
     414:	b480      	push	{r7}
     416:	b085      	sub	sp, #20
     418:	af00      	add	r7, sp, #0
     41a:	6078      	str	r0, [r7, #4]
     41c:	ed87 0a00 	vstr	s0, [r7]
     420:	687b      	ldr	r3, [r7, #4]
     422:	ed93 7a00 	vldr	s14, [r3]
     426:	edd7 7a00 	vldr	s15, [r7]
     42a:	ee27 7a27 	vmul.f32	s14, s14, s15
     42e:	687b      	ldr	r3, [r7, #4]
     430:	edd3 6a01 	vldr	s13, [r3, #4]
     434:	687b      	ldr	r3, [r7, #4]
     436:	edd3 7a03 	vldr	s15, [r3, #12]
     43a:	ee66 7aa7 	vmul.f32	s15, s13, s15
     43e:	ee37 7a27 	vadd.f32	s14, s14, s15
     442:	687b      	ldr	r3, [r7, #4]
     444:	edd3 6a02 	vldr	s13, [r3, #8]
     448:	687b      	ldr	r3, [r7, #4]
     44a:	edd3 7a04 	vldr	s15, [r3, #16]
     44e:	ee66 7aa7 	vmul.f32	s15, s13, s15
     452:	ee37 7a27 	vadd.f32	s14, s14, s15
     456:	687b      	ldr	r3, [r7, #4]
     458:	edd3 7a05 	vldr	s15, [r3, #20]
     45c:	ee77 7a27 	vadd.f32	s15, s14, s15
     460:	edc7 7a03 	vstr	s15, [r7, #12]
     464:	687b      	ldr	r3, [r7, #4]
     466:	68da      	ldr	r2, [r3, #12]
     468:	687b      	ldr	r3, [r7, #4]
     46a:	611a      	str	r2, [r3, #16]
     46c:	687b      	ldr	r3, [r7, #4]
     46e:	683a      	ldr	r2, [r7, #0]
     470:	60da      	str	r2, [r3, #12]
     472:	687b      	ldr	r3, [r7, #4]
     474:	68fa      	ldr	r2, [r7, #12]
     476:	615a      	str	r2, [r3, #20]
     478:	68fb      	ldr	r3, [r7, #12]
     47a:	ee07 3a90 	vmov	s15, r3
     47e:	eeb0 0a67 	vmov.f32	s0, s15
     482:	3714      	adds	r7, #20
     484:	46bd      	mov	sp, r7
     486:	f85d 7b04 	ldr.w	r7, [sp], #4
     48a:	4770      	bx	lr

0000048c <main>:
     48c:	b580      	push	{r7, lr}
     48e:	b086      	sub	sp, #24
     490:	af02      	add	r7, sp, #8
     492:	2300      	movs	r3, #0
     494:	60fb      	str	r3, [r7, #12]
     496:	f04f 537e 	mov.w	r3, #1065353216	; 0x3f800000
     49a:	603b      	str	r3, [r7, #0]
     49c:	2300      	movs	r3, #0
     49e:	60bb      	str	r3, [r7, #8]
     4a0:	2300      	movs	r3, #0
     4a2:	607b      	str	r3, [r7, #4]
     4a4:	f005 fb1a 	bl	5adc <SystemCoreClockUpdate>
     4a8:	f001 fd60 	bl	1f6c <Board_Init>
     4ac:	2101      	movs	r1, #1
     4ae:	2000      	movs	r0, #0
     4b0:	f001 fd28 	bl	1f04 <Board_LED_Set>
     4b4:	f005 fc82 	bl	5dbc <fpuInit>
     4b8:	2300      	movs	r3, #0
     4ba:	60fb      	str	r3, [r7, #12]
     4bc:	e01e      	b.n	4fc <main+0x70>
     4be:	68fb      	ldr	r3, [r7, #12]
     4c0:	ee07 3a90 	vmov	s15, r3
     4c4:	eeb8 7ae7 	vcvt.f32.s32	s14, s15
     4c8:	eddf 6a14 	vldr	s13, [pc, #80]	; 51c <main+0x90>
     4cc:	eec7 7a26 	vdiv.f32	s15, s14, s13
     4d0:	4a13      	ldr	r2, [pc, #76]	; (520 <main+0x94>)
     4d2:	68fb      	ldr	r3, [r7, #12]
     4d4:	009b      	lsls	r3, r3, #2
     4d6:	4413      	add	r3, r2
     4d8:	edc3 7a00 	vstr	s15, [r3]
     4dc:	68fb      	ldr	r3, [r7, #12]
     4de:	069a      	lsls	r2, r3, #26
     4e0:	4910      	ldr	r1, [pc, #64]	; (524 <main+0x98>)
     4e2:	68fb      	ldr	r3, [r7, #12]
     4e4:	f841 2023 	str.w	r2, [r1, r3, lsl #2]
     4e8:	68fb      	ldr	r3, [r7, #12]
     4ea:	029b      	lsls	r3, r3, #10
     4ec:	b219      	sxth	r1, r3
     4ee:	4a0e      	ldr	r2, [pc, #56]	; (528 <main+0x9c>)
     4f0:	68fb      	ldr	r3, [r7, #12]
     4f2:	f822 1013 	strh.w	r1, [r2, r3, lsl #1]
     4f6:	68fb      	ldr	r3, [r7, #12]
     4f8:	3301      	adds	r3, #1
     4fa:	60fb      	str	r3, [r7, #12]
     4fc:	68fb      	ldr	r3, [r7, #12]
     4fe:	2b1f      	cmp	r3, #31
     500:	dddd      	ble.n	4be <main+0x32>
     502:	480a      	ldr	r0, [pc, #40]	; (52c <main+0xa0>)
     504:	f7ff ff40 	bl	388 <Chip_TIMER_Init>
     508:	4808      	ldr	r0, [pc, #32]	; (52c <main+0xa0>)
     50a:	f006 f831 	bl	6570 <Chip_TIMER_Reset>
     50e:	4b07      	ldr	r3, [pc, #28]	; (52c <main+0xa0>)
     510:	2200      	movs	r2, #0
     512:	605a      	str	r2, [r3, #4]
     514:	2300      	movs	r3, #0
     516:	60fb      	str	r3, [r7, #12]
     518:	e014      	b.n	544 <main+0xb8>
     51a:	bf00      	nop
     51c:	42000000 	.word	0x42000000
     520:	200063a4 	.word	0x200063a4
     524:	20006430 	.word	0x20006430
     528:	20000260 	.word	0x20000260
     52c:	40008000 	.word	0x40008000
     530:	f008 f8e0 	bl	86f4 <rand>
     534:	4601      	mov	r1, r0
     536:	4aa9      	ldr	r2, [pc, #676]	; (7dc <main+0x350>)
     538:	68fb      	ldr	r3, [r7, #12]
     53a:	f842 1023 	str.w	r1, [r2, r3, lsl #2]
     53e:	68fb      	ldr	r3, [r7, #12]
     540:	3301      	adds	r3, #1
     542:	60fb      	str	r3, [r7, #12]
     544:	68fb      	ldr	r3, [r7, #12]
     546:	f5b3 5f80 	cmp.w	r3, #4096	; 0x1000
     54a:	dbf1      	blt.n	530 <main+0xa4>
     54c:	48a4      	ldr	r0, [pc, #656]	; (7e0 <main+0x354>)
     54e:	f007 f991 	bl	7874 <printf>
     552:	2301      	movs	r3, #1
     554:	2204      	movs	r2, #4
     556:	2105      	movs	r1, #5
     558:	48a2      	ldr	r0, [pc, #648]	; (7e4 <main+0x358>)
     55a:	f007 f98b 	bl	7874 <printf>
     55e:	4ba2      	ldr	r3, [pc, #648]	; (7e8 <main+0x35c>)
     560:	4aa2      	ldr	r2, [pc, #648]	; (7ec <main+0x360>)
     562:	49a3      	ldr	r1, [pc, #652]	; (7f0 <main+0x364>)
     564:	48a3      	ldr	r0, [pc, #652]	; (7f4 <main+0x368>)
     566:	f007 f985 	bl	7874 <printf>
     56a:	48a3      	ldr	r0, [pc, #652]	; (7f8 <main+0x36c>)
     56c:	f006 f800 	bl	6570 <Chip_TIMER_Reset>
     570:	4ba1      	ldr	r3, [pc, #644]	; (7f8 <main+0x36c>)
     572:	2201      	movs	r2, #1
     574:	605a      	str	r2, [r3, #4]
     576:	4ba0      	ldr	r3, [pc, #640]	; (7f8 <main+0x36c>)
     578:	2200      	movs	r2, #0
     57a:	605a      	str	r2, [r3, #4]
     57c:	4b9e      	ldr	r3, [pc, #632]	; (7f8 <main+0x36c>)
     57e:	689b      	ldr	r3, [r3, #8]
     580:	607b      	str	r3, [r7, #4]
     582:	6879      	ldr	r1, [r7, #4]
     584:	489d      	ldr	r0, [pc, #628]	; (7fc <main+0x370>)
     586:	f007 f975 	bl	7874 <printf>
     58a:	6879      	ldr	r1, [r7, #4]
     58c:	489c      	ldr	r0, [pc, #624]	; (800 <main+0x374>)
     58e:	f007 f971 	bl	7874 <printf>
     592:	489c      	ldr	r0, [pc, #624]	; (804 <main+0x378>)
     594:	f007 f96e 	bl	7874 <printf>
     598:	489b      	ldr	r0, [pc, #620]	; (808 <main+0x37c>)
     59a:	f007 f96b 	bl	7874 <printf>
     59e:	489b      	ldr	r0, [pc, #620]	; (80c <main+0x380>)
     5a0:	f007 f968 	bl	7874 <printf>
     5a4:	4894      	ldr	r0, [pc, #592]	; (7f8 <main+0x36c>)
     5a6:	f005 ffe3 	bl	6570 <Chip_TIMER_Reset>
     5aa:	4b93      	ldr	r3, [pc, #588]	; (7f8 <main+0x36c>)
     5ac:	2201      	movs	r2, #1
     5ae:	605a      	str	r2, [r3, #4]
     5b0:	2301      	movs	r3, #1
     5b2:	2200      	movs	r2, #0
     5b4:	4989      	ldr	r1, [pc, #548]	; (7dc <main+0x350>)
     5b6:	4896      	ldr	r0, [pc, #600]	; (810 <main+0x384>)
     5b8:	f002 fe60 	bl	327c <arm_cfft_f32>
     5bc:	4b8e      	ldr	r3, [pc, #568]	; (7f8 <main+0x36c>)
     5be:	2200      	movs	r2, #0
     5c0:	605a      	str	r2, [r3, #4]
     5c2:	4b8d      	ldr	r3, [pc, #564]	; (7f8 <main+0x36c>)
     5c4:	689b      	ldr	r3, [r3, #8]
     5c6:	60bb      	str	r3, [r7, #8]
     5c8:	68ba      	ldr	r2, [r7, #8]
     5ca:	687b      	ldr	r3, [r7, #4]
     5cc:	1ad3      	subs	r3, r2, r3
     5ce:	4619      	mov	r1, r3
     5d0:	4890      	ldr	r0, [pc, #576]	; (814 <main+0x388>)
     5d2:	f007 f94f 	bl	7874 <printf>
     5d6:	4890      	ldr	r0, [pc, #576]	; (818 <main+0x38c>)
     5d8:	f007 f94c 	bl	7874 <printf>
     5dc:	4886      	ldr	r0, [pc, #536]	; (7f8 <main+0x36c>)
     5de:	f005 ffc7 	bl	6570 <Chip_TIMER_Reset>
     5e2:	4b85      	ldr	r3, [pc, #532]	; (7f8 <main+0x36c>)
     5e4:	2201      	movs	r2, #1
     5e6:	605a      	str	r2, [r3, #4]
     5e8:	2301      	movs	r3, #1
     5ea:	2200      	movs	r2, #0
     5ec:	497b      	ldr	r1, [pc, #492]	; (7dc <main+0x350>)
     5ee:	488b      	ldr	r0, [pc, #556]	; (81c <main+0x390>)
     5f0:	f002 fe44 	bl	327c <arm_cfft_f32>
     5f4:	4b80      	ldr	r3, [pc, #512]	; (7f8 <main+0x36c>)
     5f6:	2200      	movs	r2, #0
     5f8:	605a      	str	r2, [r3, #4]
     5fa:	4b7f      	ldr	r3, [pc, #508]	; (7f8 <main+0x36c>)
     5fc:	689b      	ldr	r3, [r3, #8]
     5fe:	60bb      	str	r3, [r7, #8]
     600:	68ba      	ldr	r2, [r7, #8]
     602:	687b      	ldr	r3, [r7, #4]
     604:	1ad3      	subs	r3, r2, r3
     606:	4619      	mov	r1, r3
     608:	4882      	ldr	r0, [pc, #520]	; (814 <main+0x388>)
     60a:	f007 f933 	bl	7874 <printf>
     60e:	4882      	ldr	r0, [pc, #520]	; (818 <main+0x38c>)
     610:	f007 f930 	bl	7874 <printf>
     614:	4878      	ldr	r0, [pc, #480]	; (7f8 <main+0x36c>)
     616:	f005 ffab 	bl	6570 <Chip_TIMER_Reset>
     61a:	4b77      	ldr	r3, [pc, #476]	; (7f8 <main+0x36c>)
     61c:	2201      	movs	r2, #1
     61e:	605a      	str	r2, [r3, #4]
     620:	2301      	movs	r3, #1
     622:	2200      	movs	r2, #0
     624:	496d      	ldr	r1, [pc, #436]	; (7dc <main+0x350>)
     626:	487e      	ldr	r0, [pc, #504]	; (820 <main+0x394>)
     628:	f002 fe28 	bl	327c <arm_cfft_f32>
     62c:	4b72      	ldr	r3, [pc, #456]	; (7f8 <main+0x36c>)
     62e:	2200      	movs	r2, #0
     630:	605a      	str	r2, [r3, #4]
     632:	4b71      	ldr	r3, [pc, #452]	; (7f8 <main+0x36c>)
     634:	689b      	ldr	r3, [r3, #8]
     636:	60bb      	str	r3, [r7, #8]
     638:	68ba      	ldr	r2, [r7, #8]
     63a:	687b      	ldr	r3, [r7, #4]
     63c:	1ad3      	subs	r3, r2, r3
     63e:	4619      	mov	r1, r3
     640:	4874      	ldr	r0, [pc, #464]	; (814 <main+0x388>)
     642:	f007 f917 	bl	7874 <printf>
     646:	4874      	ldr	r0, [pc, #464]	; (818 <main+0x38c>)
     648:	f007 f914 	bl	7874 <printf>
     64c:	486a      	ldr	r0, [pc, #424]	; (7f8 <main+0x36c>)
     64e:	f005 ff8f 	bl	6570 <Chip_TIMER_Reset>
     652:	4b69      	ldr	r3, [pc, #420]	; (7f8 <main+0x36c>)
     654:	2201      	movs	r2, #1
     656:	605a      	str	r2, [r3, #4]
     658:	2301      	movs	r3, #1
     65a:	2200      	movs	r2, #0
     65c:	495f      	ldr	r1, [pc, #380]	; (7dc <main+0x350>)
     65e:	4871      	ldr	r0, [pc, #452]	; (824 <main+0x398>)
     660:	f002 fe0c 	bl	327c <arm_cfft_f32>
     664:	4b64      	ldr	r3, [pc, #400]	; (7f8 <main+0x36c>)
     666:	2200      	movs	r2, #0
     668:	605a      	str	r2, [r3, #4]
     66a:	4b63      	ldr	r3, [pc, #396]	; (7f8 <main+0x36c>)
     66c:	689b      	ldr	r3, [r3, #8]
     66e:	60bb      	str	r3, [r7, #8]
     670:	68ba      	ldr	r2, [r7, #8]
     672:	687b      	ldr	r3, [r7, #4]
     674:	1ad3      	subs	r3, r2, r3
     676:	4619      	mov	r1, r3
     678:	4866      	ldr	r0, [pc, #408]	; (814 <main+0x388>)
     67a:	f007 f8fb 	bl	7874 <printf>
     67e:	4866      	ldr	r0, [pc, #408]	; (818 <main+0x38c>)
     680:	f007 f8f8 	bl	7874 <printf>
     684:	485c      	ldr	r0, [pc, #368]	; (7f8 <main+0x36c>)
     686:	f005 ff73 	bl	6570 <Chip_TIMER_Reset>
     68a:	4b5b      	ldr	r3, [pc, #364]	; (7f8 <main+0x36c>)
     68c:	2201      	movs	r2, #1
     68e:	605a      	str	r2, [r3, #4]
     690:	2301      	movs	r3, #1
     692:	2200      	movs	r2, #0
     694:	4951      	ldr	r1, [pc, #324]	; (7dc <main+0x350>)
     696:	4864      	ldr	r0, [pc, #400]	; (828 <main+0x39c>)
     698:	f002 fdf0 	bl	327c <arm_cfft_f32>
     69c:	4b56      	ldr	r3, [pc, #344]	; (7f8 <main+0x36c>)
     69e:	2200      	movs	r2, #0
     6a0:	605a      	str	r2, [r3, #4]
     6a2:	4b55      	ldr	r3, [pc, #340]	; (7f8 <main+0x36c>)
     6a4:	689b      	ldr	r3, [r3, #8]
     6a6:	60bb      	str	r3, [r7, #8]
     6a8:	68ba      	ldr	r2, [r7, #8]
     6aa:	687b      	ldr	r3, [r7, #4]
     6ac:	1ad3      	subs	r3, r2, r3
     6ae:	4619      	mov	r1, r3
     6b0:	4858      	ldr	r0, [pc, #352]	; (814 <main+0x388>)
     6b2:	f007 f8df 	bl	7874 <printf>
     6b6:	4858      	ldr	r0, [pc, #352]	; (818 <main+0x38c>)
     6b8:	f007 f8dc 	bl	7874 <printf>
     6bc:	484e      	ldr	r0, [pc, #312]	; (7f8 <main+0x36c>)
     6be:	f005 ff57 	bl	6570 <Chip_TIMER_Reset>
     6c2:	4b4d      	ldr	r3, [pc, #308]	; (7f8 <main+0x36c>)
     6c4:	2201      	movs	r2, #1
     6c6:	605a      	str	r2, [r3, #4]
     6c8:	2301      	movs	r3, #1
     6ca:	2200      	movs	r2, #0
     6cc:	4943      	ldr	r1, [pc, #268]	; (7dc <main+0x350>)
     6ce:	4857      	ldr	r0, [pc, #348]	; (82c <main+0x3a0>)
     6d0:	f002 fdd4 	bl	327c <arm_cfft_f32>
     6d4:	4b48      	ldr	r3, [pc, #288]	; (7f8 <main+0x36c>)
     6d6:	2200      	movs	r2, #0
     6d8:	605a      	str	r2, [r3, #4]
     6da:	4b47      	ldr	r3, [pc, #284]	; (7f8 <main+0x36c>)
     6dc:	689b      	ldr	r3, [r3, #8]
     6de:	60bb      	str	r3, [r7, #8]
     6e0:	68ba      	ldr	r2, [r7, #8]
     6e2:	687b      	ldr	r3, [r7, #4]
     6e4:	1ad3      	subs	r3, r2, r3
     6e6:	4619      	mov	r1, r3
     6e8:	484a      	ldr	r0, [pc, #296]	; (814 <main+0x388>)
     6ea:	f007 f8c3 	bl	7874 <printf>
     6ee:	484a      	ldr	r0, [pc, #296]	; (818 <main+0x38c>)
     6f0:	f007 f8c0 	bl	7874 <printf>
     6f4:	4840      	ldr	r0, [pc, #256]	; (7f8 <main+0x36c>)
     6f6:	f005 ff3b 	bl	6570 <Chip_TIMER_Reset>
     6fa:	4b3f      	ldr	r3, [pc, #252]	; (7f8 <main+0x36c>)
     6fc:	2201      	movs	r2, #1
     6fe:	605a      	str	r2, [r3, #4]
     700:	2301      	movs	r3, #1
     702:	2200      	movs	r2, #0
     704:	4935      	ldr	r1, [pc, #212]	; (7dc <main+0x350>)
     706:	484a      	ldr	r0, [pc, #296]	; (830 <main+0x3a4>)
     708:	f002 fdb8 	bl	327c <arm_cfft_f32>
     70c:	4b3a      	ldr	r3, [pc, #232]	; (7f8 <main+0x36c>)
     70e:	2200      	movs	r2, #0
     710:	605a      	str	r2, [r3, #4]
     712:	4b39      	ldr	r3, [pc, #228]	; (7f8 <main+0x36c>)
     714:	689b      	ldr	r3, [r3, #8]
     716:	60bb      	str	r3, [r7, #8]
     718:	68ba      	ldr	r2, [r7, #8]
     71a:	687b      	ldr	r3, [r7, #4]
     71c:	1ad3      	subs	r3, r2, r3
     71e:	4619      	mov	r1, r3
     720:	483c      	ldr	r0, [pc, #240]	; (814 <main+0x388>)
     722:	f007 f8a7 	bl	7874 <printf>
     726:	483c      	ldr	r0, [pc, #240]	; (818 <main+0x38c>)
     728:	f007 f8a4 	bl	7874 <printf>
     72c:	4832      	ldr	r0, [pc, #200]	; (7f8 <main+0x36c>)
     72e:	f005 ff1f 	bl	6570 <Chip_TIMER_Reset>
     732:	4b31      	ldr	r3, [pc, #196]	; (7f8 <main+0x36c>)
     734:	2201      	movs	r2, #1
     736:	605a      	str	r2, [r3, #4]
     738:	2301      	movs	r3, #1
     73a:	2200      	movs	r2, #0
     73c:	4927      	ldr	r1, [pc, #156]	; (7dc <main+0x350>)
     73e:	483d      	ldr	r0, [pc, #244]	; (834 <main+0x3a8>)
     740:	f002 fd9c 	bl	327c <arm_cfft_f32>
     744:	4b2c      	ldr	r3, [pc, #176]	; (7f8 <main+0x36c>)
     746:	2200      	movs	r2, #0
     748:	605a      	str	r2, [r3, #4]
     74a:	4b2b      	ldr	r3, [pc, #172]	; (7f8 <main+0x36c>)
     74c:	689b      	ldr	r3, [r3, #8]
     74e:	60bb      	str	r3, [r7, #8]
     750:	68ba      	ldr	r2, [r7, #8]
     752:	687b      	ldr	r3, [r7, #4]
     754:	1ad3      	subs	r3, r2, r3
     756:	4619      	mov	r1, r3
     758:	482e      	ldr	r0, [pc, #184]	; (814 <main+0x388>)
     75a:	f007 f88b 	bl	7874 <printf>
     75e:	482e      	ldr	r0, [pc, #184]	; (818 <main+0x38c>)
     760:	f007 f888 	bl	7874 <printf>
     764:	4824      	ldr	r0, [pc, #144]	; (7f8 <main+0x36c>)
     766:	f005 ff03 	bl	6570 <Chip_TIMER_Reset>
     76a:	4b23      	ldr	r3, [pc, #140]	; (7f8 <main+0x36c>)
     76c:	2201      	movs	r2, #1
     76e:	605a      	str	r2, [r3, #4]
     770:	2301      	movs	r3, #1
     772:	2200      	movs	r2, #0
     774:	4919      	ldr	r1, [pc, #100]	; (7dc <main+0x350>)
     776:	4830      	ldr	r0, [pc, #192]	; (838 <main+0x3ac>)
     778:	f002 fd80 	bl	327c <arm_cfft_f32>
     77c:	4b1e      	ldr	r3, [pc, #120]	; (7f8 <main+0x36c>)
     77e:	2200      	movs	r2, #0
     780:	605a      	str	r2, [r3, #4]
     782:	4b1d      	ldr	r3, [pc, #116]	; (7f8 <main+0x36c>)
     784:	689b      	ldr	r3, [r3, #8]
     786:	60bb      	str	r3, [r7, #8]
     788:	68ba      	ldr	r2, [r7, #8]
     78a:	687b      	ldr	r3, [r7, #4]
     78c:	1ad3      	subs	r3, r2, r3
     78e:	4619      	mov	r1, r3
     790:	4820      	ldr	r0, [pc, #128]	; (814 <main+0x388>)
     792:	f007 f86f 	bl	7874 <printf>
     796:	4820      	ldr	r0, [pc, #128]	; (818 <main+0x38c>)
     798:	f007 f86c 	bl	7874 <printf>
     79c:	481a      	ldr	r0, [pc, #104]	; (808 <main+0x37c>)
     79e:	f007 f869 	bl	7874 <printf>
     7a2:	4826      	ldr	r0, [pc, #152]	; (83c <main+0x3b0>)
     7a4:	f007 f866 	bl	7874 <printf>
     7a8:	4813      	ldr	r0, [pc, #76]	; (7f8 <main+0x36c>)
     7aa:	f005 fee1 	bl	6570 <Chip_TIMER_Reset>
     7ae:	4b12      	ldr	r3, [pc, #72]	; (7f8 <main+0x36c>)
     7b0:	2201      	movs	r2, #1
     7b2:	605a      	str	r2, [r3, #4]
     7b4:	2300      	movs	r3, #0
     7b6:	2200      	movs	r2, #0
     7b8:	4908      	ldr	r1, [pc, #32]	; (7dc <main+0x350>)
     7ba:	4815      	ldr	r0, [pc, #84]	; (810 <main+0x384>)
     7bc:	f002 fd5e 	bl	327c <arm_cfft_f32>
     7c0:	4b0d      	ldr	r3, [pc, #52]	; (7f8 <main+0x36c>)
     7c2:	2200      	movs	r2, #0
     7c4:	605a      	str	r2, [r3, #4]
     7c6:	4b0c      	ldr	r3, [pc, #48]	; (7f8 <main+0x36c>)
     7c8:	689b      	ldr	r3, [r3, #8]
     7ca:	60bb      	str	r3, [r7, #8]
     7cc:	68ba      	ldr	r2, [r7, #8]
     7ce:	687b      	ldr	r3, [r7, #4]
     7d0:	1ad3      	subs	r3, r2, r3
     7d2:	4619      	mov	r1, r3
     7d4:	480f      	ldr	r0, [pc, #60]	; (814 <main+0x388>)
     7d6:	f007 f84d 	bl	7874 <printf>
     7da:	e031      	b.n	840 <main+0x3b4>
     7dc:	200023a4 	.word	0x200023a4
     7e0:	00009948 	.word	0x00009948
     7e4:	00009968 	.word	0x00009968
     7e8:	00009980 	.word	0x00009980
     7ec:	00009988 	.word	0x00009988
     7f0:	0000998c 	.word	0x0000998c
     7f4:	00009998 	.word	0x00009998
     7f8:	40008000 	.word	0x40008000
     7fc:	000099a4 	.word	0x000099a4
     800:	000099b8 	.word	0x000099b8
     804:	000099d8 	.word	0x000099d8
     808:	00009a04 	.word	0x00009a04
     80c:	00009a08 	.word	0x00009a08
     810:	00009b64 	.word	0x00009b64
     814:	00009a20 	.word	0x00009a20
     818:	00009a24 	.word	0x00009a24
     81c:	00009b74 	.word	0x00009b74
     820:	00009b84 	.word	0x00009b84
     824:	00009b94 	.word	0x00009b94
     828:	00009ba4 	.word	0x00009ba4
     82c:	00009bb4 	.word	0x00009bb4
     830:	00009bc4 	.word	0x00009bc4
     834:	00009bd4 	.word	0x00009bd4
     838:	00009be4 	.word	0x00009be4
     83c:	00009a28 	.word	0x00009a28
     840:	48a9      	ldr	r0, [pc, #676]	; (ae8 <main+0x65c>)
     842:	f007 f817 	bl	7874 <printf>
     846:	48a9      	ldr	r0, [pc, #676]	; (aec <main+0x660>)
     848:	f005 fe92 	bl	6570 <Chip_TIMER_Reset>
     84c:	4ba7      	ldr	r3, [pc, #668]	; (aec <main+0x660>)
     84e:	2201      	movs	r2, #1
     850:	605a      	str	r2, [r3, #4]
     852:	2300      	movs	r3, #0
     854:	2200      	movs	r2, #0
     856:	49a6      	ldr	r1, [pc, #664]	; (af0 <main+0x664>)
     858:	48a6      	ldr	r0, [pc, #664]	; (af4 <main+0x668>)
     85a:	f002 fd0f 	bl	327c <arm_cfft_f32>
     85e:	4ba3      	ldr	r3, [pc, #652]	; (aec <main+0x660>)
     860:	2200      	movs	r2, #0
     862:	605a      	str	r2, [r3, #4]
     864:	4ba1      	ldr	r3, [pc, #644]	; (aec <main+0x660>)
     866:	689b      	ldr	r3, [r3, #8]
     868:	60bb      	str	r3, [r7, #8]
     86a:	68ba      	ldr	r2, [r7, #8]
     86c:	687b      	ldr	r3, [r7, #4]
     86e:	1ad3      	subs	r3, r2, r3
     870:	4619      	mov	r1, r3
     872:	48a1      	ldr	r0, [pc, #644]	; (af8 <main+0x66c>)
     874:	f006 fffe 	bl	7874 <printf>
     878:	489b      	ldr	r0, [pc, #620]	; (ae8 <main+0x65c>)
     87a:	f006 fffb 	bl	7874 <printf>
     87e:	489b      	ldr	r0, [pc, #620]	; (aec <main+0x660>)
     880:	f005 fe76 	bl	6570 <Chip_TIMER_Reset>
     884:	4b99      	ldr	r3, [pc, #612]	; (aec <main+0x660>)
     886:	2201      	movs	r2, #1
     888:	605a      	str	r2, [r3, #4]
     88a:	2300      	movs	r3, #0
     88c:	2200      	movs	r2, #0
     88e:	4998      	ldr	r1, [pc, #608]	; (af0 <main+0x664>)
     890:	489a      	ldr	r0, [pc, #616]	; (afc <main+0x670>)
     892:	f002 fcf3 	bl	327c <arm_cfft_f32>
     896:	4b95      	ldr	r3, [pc, #596]	; (aec <main+0x660>)
     898:	2200      	movs	r2, #0
     89a:	605a      	str	r2, [r3, #4]
     89c:	4b93      	ldr	r3, [pc, #588]	; (aec <main+0x660>)
     89e:	689b      	ldr	r3, [r3, #8]
     8a0:	60bb      	str	r3, [r7, #8]
     8a2:	68ba      	ldr	r2, [r7, #8]
     8a4:	687b      	ldr	r3, [r7, #4]
     8a6:	1ad3      	subs	r3, r2, r3
     8a8:	4619      	mov	r1, r3
     8aa:	4893      	ldr	r0, [pc, #588]	; (af8 <main+0x66c>)
     8ac:	f006 ffe2 	bl	7874 <printf>
     8b0:	488d      	ldr	r0, [pc, #564]	; (ae8 <main+0x65c>)
     8b2:	f006 ffdf 	bl	7874 <printf>
     8b6:	488d      	ldr	r0, [pc, #564]	; (aec <main+0x660>)
     8b8:	f005 fe5a 	bl	6570 <Chip_TIMER_Reset>
     8bc:	4b8b      	ldr	r3, [pc, #556]	; (aec <main+0x660>)
     8be:	2201      	movs	r2, #1
     8c0:	605a      	str	r2, [r3, #4]
     8c2:	2300      	movs	r3, #0
     8c4:	2200      	movs	r2, #0
     8c6:	498a      	ldr	r1, [pc, #552]	; (af0 <main+0x664>)
     8c8:	488d      	ldr	r0, [pc, #564]	; (b00 <main+0x674>)
     8ca:	f002 fcd7 	bl	327c <arm_cfft_f32>
     8ce:	4b87      	ldr	r3, [pc, #540]	; (aec <main+0x660>)
     8d0:	2200      	movs	r2, #0
     8d2:	605a      	str	r2, [r3, #4]
     8d4:	4b85      	ldr	r3, [pc, #532]	; (aec <main+0x660>)
     8d6:	689b      	ldr	r3, [r3, #8]
     8d8:	60bb      	str	r3, [r7, #8]
     8da:	68ba      	ldr	r2, [r7, #8]
     8dc:	687b      	ldr	r3, [r7, #4]
     8de:	1ad3      	subs	r3, r2, r3
     8e0:	4619      	mov	r1, r3
     8e2:	4885      	ldr	r0, [pc, #532]	; (af8 <main+0x66c>)
     8e4:	f006 ffc6 	bl	7874 <printf>
     8e8:	487f      	ldr	r0, [pc, #508]	; (ae8 <main+0x65c>)
     8ea:	f006 ffc3 	bl	7874 <printf>
     8ee:	487f      	ldr	r0, [pc, #508]	; (aec <main+0x660>)
     8f0:	f005 fe3e 	bl	6570 <Chip_TIMER_Reset>
     8f4:	4b7d      	ldr	r3, [pc, #500]	; (aec <main+0x660>)
     8f6:	2201      	movs	r2, #1
     8f8:	605a      	str	r2, [r3, #4]
     8fa:	2300      	movs	r3, #0
     8fc:	2200      	movs	r2, #0
     8fe:	497c      	ldr	r1, [pc, #496]	; (af0 <main+0x664>)
     900:	4880      	ldr	r0, [pc, #512]	; (b04 <main+0x678>)
     902:	f002 fcbb 	bl	327c <arm_cfft_f32>
     906:	4b79      	ldr	r3, [pc, #484]	; (aec <main+0x660>)
     908:	2200      	movs	r2, #0
     90a:	605a      	str	r2, [r3, #4]
     90c:	4b77      	ldr	r3, [pc, #476]	; (aec <main+0x660>)
     90e:	689b      	ldr	r3, [r3, #8]
     910:	60bb      	str	r3, [r7, #8]
     912:	68ba      	ldr	r2, [r7, #8]
     914:	687b      	ldr	r3, [r7, #4]
     916:	1ad3      	subs	r3, r2, r3
     918:	4619      	mov	r1, r3
     91a:	4877      	ldr	r0, [pc, #476]	; (af8 <main+0x66c>)
     91c:	f006 ffaa 	bl	7874 <printf>
     920:	4871      	ldr	r0, [pc, #452]	; (ae8 <main+0x65c>)
     922:	f006 ffa7 	bl	7874 <printf>
     926:	4871      	ldr	r0, [pc, #452]	; (aec <main+0x660>)
     928:	f005 fe22 	bl	6570 <Chip_TIMER_Reset>
     92c:	4b6f      	ldr	r3, [pc, #444]	; (aec <main+0x660>)
     92e:	2201      	movs	r2, #1
     930:	605a      	str	r2, [r3, #4]
     932:	2300      	movs	r3, #0
     934:	2200      	movs	r2, #0
     936:	496e      	ldr	r1, [pc, #440]	; (af0 <main+0x664>)
     938:	4873      	ldr	r0, [pc, #460]	; (b08 <main+0x67c>)
     93a:	f002 fc9f 	bl	327c <arm_cfft_f32>
     93e:	4b6b      	ldr	r3, [pc, #428]	; (aec <main+0x660>)
     940:	2200      	movs	r2, #0
     942:	605a      	str	r2, [r3, #4]
     944:	4b69      	ldr	r3, [pc, #420]	; (aec <main+0x660>)
     946:	689b      	ldr	r3, [r3, #8]
     948:	60bb      	str	r3, [r7, #8]
     94a:	68ba      	ldr	r2, [r7, #8]
     94c:	687b      	ldr	r3, [r7, #4]
     94e:	1ad3      	subs	r3, r2, r3
     950:	4619      	mov	r1, r3
     952:	4869      	ldr	r0, [pc, #420]	; (af8 <main+0x66c>)
     954:	f006 ff8e 	bl	7874 <printf>
     958:	4863      	ldr	r0, [pc, #396]	; (ae8 <main+0x65c>)
     95a:	f006 ff8b 	bl	7874 <printf>
     95e:	4863      	ldr	r0, [pc, #396]	; (aec <main+0x660>)
     960:	f005 fe06 	bl	6570 <Chip_TIMER_Reset>
     964:	4b61      	ldr	r3, [pc, #388]	; (aec <main+0x660>)
     966:	2201      	movs	r2, #1
     968:	605a      	str	r2, [r3, #4]
     96a:	2300      	movs	r3, #0
     96c:	2200      	movs	r2, #0
     96e:	4960      	ldr	r1, [pc, #384]	; (af0 <main+0x664>)
     970:	4866      	ldr	r0, [pc, #408]	; (b0c <main+0x680>)
     972:	f002 fc83 	bl	327c <arm_cfft_f32>
     976:	4b5d      	ldr	r3, [pc, #372]	; (aec <main+0x660>)
     978:	2200      	movs	r2, #0
     97a:	605a      	str	r2, [r3, #4]
     97c:	4b5b      	ldr	r3, [pc, #364]	; (aec <main+0x660>)
     97e:	689b      	ldr	r3, [r3, #8]
     980:	60bb      	str	r3, [r7, #8]
     982:	68ba      	ldr	r2, [r7, #8]
     984:	687b      	ldr	r3, [r7, #4]
     986:	1ad3      	subs	r3, r2, r3
     988:	4619      	mov	r1, r3
     98a:	485b      	ldr	r0, [pc, #364]	; (af8 <main+0x66c>)
     98c:	f006 ff72 	bl	7874 <printf>
     990:	4855      	ldr	r0, [pc, #340]	; (ae8 <main+0x65c>)
     992:	f006 ff6f 	bl	7874 <printf>
     996:	4855      	ldr	r0, [pc, #340]	; (aec <main+0x660>)
     998:	f005 fdea 	bl	6570 <Chip_TIMER_Reset>
     99c:	4b53      	ldr	r3, [pc, #332]	; (aec <main+0x660>)
     99e:	2201      	movs	r2, #1
     9a0:	605a      	str	r2, [r3, #4]
     9a2:	2300      	movs	r3, #0
     9a4:	2200      	movs	r2, #0
     9a6:	4952      	ldr	r1, [pc, #328]	; (af0 <main+0x664>)
     9a8:	4859      	ldr	r0, [pc, #356]	; (b10 <main+0x684>)
     9aa:	f002 fc67 	bl	327c <arm_cfft_f32>
     9ae:	4b4f      	ldr	r3, [pc, #316]	; (aec <main+0x660>)
     9b0:	2200      	movs	r2, #0
     9b2:	605a      	str	r2, [r3, #4]
     9b4:	4b4d      	ldr	r3, [pc, #308]	; (aec <main+0x660>)
     9b6:	689b      	ldr	r3, [r3, #8]
     9b8:	60bb      	str	r3, [r7, #8]
     9ba:	68ba      	ldr	r2, [r7, #8]
     9bc:	687b      	ldr	r3, [r7, #4]
     9be:	1ad3      	subs	r3, r2, r3
     9c0:	4619      	mov	r1, r3
     9c2:	484d      	ldr	r0, [pc, #308]	; (af8 <main+0x66c>)
     9c4:	f006 ff56 	bl	7874 <printf>
     9c8:	4847      	ldr	r0, [pc, #284]	; (ae8 <main+0x65c>)
     9ca:	f006 ff53 	bl	7874 <printf>
     9ce:	4847      	ldr	r0, [pc, #284]	; (aec <main+0x660>)
     9d0:	f005 fdce 	bl	6570 <Chip_TIMER_Reset>
     9d4:	4b45      	ldr	r3, [pc, #276]	; (aec <main+0x660>)
     9d6:	2201      	movs	r2, #1
     9d8:	605a      	str	r2, [r3, #4]
     9da:	2300      	movs	r3, #0
     9dc:	2200      	movs	r2, #0
     9de:	4944      	ldr	r1, [pc, #272]	; (af0 <main+0x664>)
     9e0:	484c      	ldr	r0, [pc, #304]	; (b14 <main+0x688>)
     9e2:	f002 fc4b 	bl	327c <arm_cfft_f32>
     9e6:	4b41      	ldr	r3, [pc, #260]	; (aec <main+0x660>)
     9e8:	2200      	movs	r2, #0
     9ea:	605a      	str	r2, [r3, #4]
     9ec:	4b3f      	ldr	r3, [pc, #252]	; (aec <main+0x660>)
     9ee:	689b      	ldr	r3, [r3, #8]
     9f0:	60bb      	str	r3, [r7, #8]
     9f2:	68ba      	ldr	r2, [r7, #8]
     9f4:	687b      	ldr	r3, [r7, #4]
     9f6:	1ad3      	subs	r3, r2, r3
     9f8:	4619      	mov	r1, r3
     9fa:	483f      	ldr	r0, [pc, #252]	; (af8 <main+0x66c>)
     9fc:	f006 ff3a 	bl	7874 <printf>
     a00:	4839      	ldr	r0, [pc, #228]	; (ae8 <main+0x65c>)
     a02:	f006 ff37 	bl	7874 <printf>
     a06:	4844      	ldr	r0, [pc, #272]	; (b18 <main+0x68c>)
     a08:	f006 ff34 	bl	7874 <printf>
     a0c:	4843      	ldr	r0, [pc, #268]	; (b1c <main+0x690>)
     a0e:	f006 ff31 	bl	7874 <printf>
     a12:	4836      	ldr	r0, [pc, #216]	; (aec <main+0x660>)
     a14:	f005 fdac 	bl	6570 <Chip_TIMER_Reset>
     a18:	4b34      	ldr	r3, [pc, #208]	; (aec <main+0x660>)
     a1a:	2201      	movs	r2, #1
     a1c:	605a      	str	r2, [r3, #4]
     a1e:	2210      	movs	r2, #16
     a20:	493f      	ldr	r1, [pc, #252]	; (b20 <main+0x694>)
     a22:	4833      	ldr	r0, [pc, #204]	; (af0 <main+0x664>)
     a24:	f004 fe6e 	bl	5704 <arm_cmplx_mag_f32>
     a28:	4b30      	ldr	r3, [pc, #192]	; (aec <main+0x660>)
     a2a:	2200      	movs	r2, #0
     a2c:	605a      	str	r2, [r3, #4]
     a2e:	4b2f      	ldr	r3, [pc, #188]	; (aec <main+0x660>)
     a30:	689b      	ldr	r3, [r3, #8]
     a32:	60bb      	str	r3, [r7, #8]
     a34:	68ba      	ldr	r2, [r7, #8]
     a36:	687b      	ldr	r3, [r7, #4]
     a38:	1ad3      	subs	r3, r2, r3
     a3a:	4619      	mov	r1, r3
     a3c:	482e      	ldr	r0, [pc, #184]	; (af8 <main+0x66c>)
     a3e:	f006 ff19 	bl	7874 <printf>
     a42:	4829      	ldr	r0, [pc, #164]	; (ae8 <main+0x65c>)
     a44:	f006 ff16 	bl	7874 <printf>
     a48:	4828      	ldr	r0, [pc, #160]	; (aec <main+0x660>)
     a4a:	f005 fd91 	bl	6570 <Chip_TIMER_Reset>
     a4e:	4b27      	ldr	r3, [pc, #156]	; (aec <main+0x660>)
     a50:	2201      	movs	r2, #1
     a52:	605a      	str	r2, [r3, #4]
     a54:	2220      	movs	r2, #32
     a56:	4932      	ldr	r1, [pc, #200]	; (b20 <main+0x694>)
     a58:	4825      	ldr	r0, [pc, #148]	; (af0 <main+0x664>)
     a5a:	f004 fe53 	bl	5704 <arm_cmplx_mag_f32>
     a5e:	4b23      	ldr	r3, [pc, #140]	; (aec <main+0x660>)
     a60:	2200      	movs	r2, #0
     a62:	605a      	str	r2, [r3, #4]
     a64:	4b21      	ldr	r3, [pc, #132]	; (aec <main+0x660>)
     a66:	689b      	ldr	r3, [r3, #8]
     a68:	60bb      	str	r3, [r7, #8]
     a6a:	68ba      	ldr	r2, [r7, #8]
     a6c:	687b      	ldr	r3, [r7, #4]
     a6e:	1ad3      	subs	r3, r2, r3
     a70:	4619      	mov	r1, r3
     a72:	4821      	ldr	r0, [pc, #132]	; (af8 <main+0x66c>)
     a74:	f006 fefe 	bl	7874 <printf>
     a78:	481b      	ldr	r0, [pc, #108]	; (ae8 <main+0x65c>)
     a7a:	f006 fefb 	bl	7874 <printf>
     a7e:	481b      	ldr	r0, [pc, #108]	; (aec <main+0x660>)
     a80:	f005 fd76 	bl	6570 <Chip_TIMER_Reset>
     a84:	4b19      	ldr	r3, [pc, #100]	; (aec <main+0x660>)
     a86:	2201      	movs	r2, #1
     a88:	605a      	str	r2, [r3, #4]
     a8a:	2240      	movs	r2, #64	; 0x40
     a8c:	4924      	ldr	r1, [pc, #144]	; (b20 <main+0x694>)
     a8e:	4818      	ldr	r0, [pc, #96]	; (af0 <main+0x664>)
     a90:	f004 fe38 	bl	5704 <arm_cmplx_mag_f32>
     a94:	4b15      	ldr	r3, [pc, #84]	; (aec <main+0x660>)
     a96:	2200      	movs	r2, #0
     a98:	605a      	str	r2, [r3, #4]
     a9a:	4b14      	ldr	r3, [pc, #80]	; (aec <main+0x660>)
     a9c:	689b      	ldr	r3, [r3, #8]
     a9e:	60bb      	str	r3, [r7, #8]
     aa0:	68ba      	ldr	r2, [r7, #8]
     aa2:	687b      	ldr	r3, [r7, #4]
     aa4:	1ad3      	subs	r3, r2, r3
     aa6:	4619      	mov	r1, r3
     aa8:	4813      	ldr	r0, [pc, #76]	; (af8 <main+0x66c>)
     aaa:	f006 fee3 	bl	7874 <printf>
     aae:	480e      	ldr	r0, [pc, #56]	; (ae8 <main+0x65c>)
     ab0:	f006 fee0 	bl	7874 <printf>
     ab4:	480d      	ldr	r0, [pc, #52]	; (aec <main+0x660>)
     ab6:	f005 fd5b 	bl	6570 <Chip_TIMER_Reset>
     aba:	4b0c      	ldr	r3, [pc, #48]	; (aec <main+0x660>)
     abc:	2201      	movs	r2, #1
     abe:	605a      	str	r2, [r3, #4]
     ac0:	2280      	movs	r2, #128	; 0x80
     ac2:	4917      	ldr	r1, [pc, #92]	; (b20 <main+0x694>)
     ac4:	480a      	ldr	r0, [pc, #40]	; (af0 <main+0x664>)
     ac6:	f004 fe1d 	bl	5704 <arm_cmplx_mag_f32>
     aca:	4b08      	ldr	r3, [pc, #32]	; (aec <main+0x660>)
     acc:	2200      	movs	r2, #0
     ace:	605a      	str	r2, [r3, #4]
     ad0:	4b06      	ldr	r3, [pc, #24]	; (aec <main+0x660>)
     ad2:	689b      	ldr	r3, [r3, #8]
     ad4:	60bb      	str	r3, [r7, #8]
     ad6:	68ba      	ldr	r2, [r7, #8]
     ad8:	687b      	ldr	r3, [r7, #4]
     ada:	1ad3      	subs	r3, r2, r3
     adc:	4619      	mov	r1, r3
     ade:	4806      	ldr	r0, [pc, #24]	; (af8 <main+0x66c>)
     ae0:	f006 fec8 	bl	7874 <printf>
     ae4:	e01e      	b.n	b24 <main+0x698>
     ae6:	bf00      	nop
     ae8:	00009a24 	.word	0x00009a24
     aec:	40008000 	.word	0x40008000
     af0:	200023a4 	.word	0x200023a4
     af4:	00009b74 	.word	0x00009b74
     af8:	00009a20 	.word	0x00009a20
     afc:	00009b84 	.word	0x00009b84
     b00:	00009b94 	.word	0x00009b94
     b04:	00009ba4 	.word	0x00009ba4
     b08:	00009bb4 	.word	0x00009bb4
     b0c:	00009bc4 	.word	0x00009bc4
     b10:	00009bd4 	.word	0x00009bd4
     b14:	00009be4 	.word	0x00009be4
     b18:	00009a04 	.word	0x00009a04
     b1c:	00009a40 	.word	0x00009a40
     b20:	200064b0 	.word	0x200064b0
     b24:	48a9      	ldr	r0, [pc, #676]	; (dcc <main+0x940>)
     b26:	f006 fea5 	bl	7874 <printf>
     b2a:	48a9      	ldr	r0, [pc, #676]	; (dd0 <main+0x944>)
     b2c:	f005 fd20 	bl	6570 <Chip_TIMER_Reset>
     b30:	4ba7      	ldr	r3, [pc, #668]	; (dd0 <main+0x944>)
     b32:	2201      	movs	r2, #1
     b34:	605a      	str	r2, [r3, #4]
     b36:	f44f 7280 	mov.w	r2, #256	; 0x100
     b3a:	49a6      	ldr	r1, [pc, #664]	; (dd4 <main+0x948>)
     b3c:	48a6      	ldr	r0, [pc, #664]	; (dd8 <main+0x94c>)
     b3e:	f004 fde1 	bl	5704 <arm_cmplx_mag_f32>
     b42:	4ba3      	ldr	r3, [pc, #652]	; (dd0 <main+0x944>)
     b44:	2200      	movs	r2, #0
     b46:	605a      	str	r2, [r3, #4]
     b48:	4ba1      	ldr	r3, [pc, #644]	; (dd0 <main+0x944>)
     b4a:	689b      	ldr	r3, [r3, #8]
     b4c:	60bb      	str	r3, [r7, #8]
     b4e:	68ba      	ldr	r2, [r7, #8]
     b50:	687b      	ldr	r3, [r7, #4]
     b52:	1ad3      	subs	r3, r2, r3
     b54:	4619      	mov	r1, r3
     b56:	48a1      	ldr	r0, [pc, #644]	; (ddc <main+0x950>)
     b58:	f006 fe8c 	bl	7874 <printf>
     b5c:	489b      	ldr	r0, [pc, #620]	; (dcc <main+0x940>)
     b5e:	f006 fe89 	bl	7874 <printf>
     b62:	489b      	ldr	r0, [pc, #620]	; (dd0 <main+0x944>)
     b64:	f005 fd04 	bl	6570 <Chip_TIMER_Reset>
     b68:	4b99      	ldr	r3, [pc, #612]	; (dd0 <main+0x944>)
     b6a:	2201      	movs	r2, #1
     b6c:	605a      	str	r2, [r3, #4]
     b6e:	f44f 7200 	mov.w	r2, #512	; 0x200
     b72:	4998      	ldr	r1, [pc, #608]	; (dd4 <main+0x948>)
     b74:	4898      	ldr	r0, [pc, #608]	; (dd8 <main+0x94c>)
     b76:	f004 fdc5 	bl	5704 <arm_cmplx_mag_f32>
     b7a:	4b95      	ldr	r3, [pc, #596]	; (dd0 <main+0x944>)
     b7c:	2200      	movs	r2, #0
     b7e:	605a      	str	r2, [r3, #4]
     b80:	4b93      	ldr	r3, [pc, #588]	; (dd0 <main+0x944>)
     b82:	689b      	ldr	r3, [r3, #8]
     b84:	60bb      	str	r3, [r7, #8]
     b86:	68ba      	ldr	r2, [r7, #8]
     b88:	687b      	ldr	r3, [r7, #4]
     b8a:	1ad3      	subs	r3, r2, r3
     b8c:	4619      	mov	r1, r3
     b8e:	4893      	ldr	r0, [pc, #588]	; (ddc <main+0x950>)
     b90:	f006 fe70 	bl	7874 <printf>
     b94:	488d      	ldr	r0, [pc, #564]	; (dcc <main+0x940>)
     b96:	f006 fe6d 	bl	7874 <printf>
     b9a:	488d      	ldr	r0, [pc, #564]	; (dd0 <main+0x944>)
     b9c:	f005 fce8 	bl	6570 <Chip_TIMER_Reset>
     ba0:	4b8b      	ldr	r3, [pc, #556]	; (dd0 <main+0x944>)
     ba2:	2201      	movs	r2, #1
     ba4:	605a      	str	r2, [r3, #4]
     ba6:	f44f 6280 	mov.w	r2, #1024	; 0x400
     baa:	498a      	ldr	r1, [pc, #552]	; (dd4 <main+0x948>)
     bac:	488a      	ldr	r0, [pc, #552]	; (dd8 <main+0x94c>)
     bae:	f004 fda9 	bl	5704 <arm_cmplx_mag_f32>
     bb2:	4b87      	ldr	r3, [pc, #540]	; (dd0 <main+0x944>)
     bb4:	2200      	movs	r2, #0
     bb6:	605a      	str	r2, [r3, #4]
     bb8:	4b85      	ldr	r3, [pc, #532]	; (dd0 <main+0x944>)
     bba:	689b      	ldr	r3, [r3, #8]
     bbc:	60bb      	str	r3, [r7, #8]
     bbe:	68ba      	ldr	r2, [r7, #8]
     bc0:	687b      	ldr	r3, [r7, #4]
     bc2:	1ad3      	subs	r3, r2, r3
     bc4:	4619      	mov	r1, r3
     bc6:	4885      	ldr	r0, [pc, #532]	; (ddc <main+0x950>)
     bc8:	f006 fe54 	bl	7874 <printf>
     bcc:	487f      	ldr	r0, [pc, #508]	; (dcc <main+0x940>)
     bce:	f006 fe51 	bl	7874 <printf>
     bd2:	487f      	ldr	r0, [pc, #508]	; (dd0 <main+0x944>)
     bd4:	f005 fccc 	bl	6570 <Chip_TIMER_Reset>
     bd8:	4b7d      	ldr	r3, [pc, #500]	; (dd0 <main+0x944>)
     bda:	2201      	movs	r2, #1
     bdc:	605a      	str	r2, [r3, #4]
     bde:	f44f 6200 	mov.w	r2, #2048	; 0x800
     be2:	497c      	ldr	r1, [pc, #496]	; (dd4 <main+0x948>)
     be4:	487c      	ldr	r0, [pc, #496]	; (dd8 <main+0x94c>)
     be6:	f004 fd8d 	bl	5704 <arm_cmplx_mag_f32>
     bea:	4b79      	ldr	r3, [pc, #484]	; (dd0 <main+0x944>)
     bec:	2200      	movs	r2, #0
     bee:	605a      	str	r2, [r3, #4]
     bf0:	4b77      	ldr	r3, [pc, #476]	; (dd0 <main+0x944>)
     bf2:	689b      	ldr	r3, [r3, #8]
     bf4:	60bb      	str	r3, [r7, #8]
     bf6:	68ba      	ldr	r2, [r7, #8]
     bf8:	687b      	ldr	r3, [r7, #4]
     bfa:	1ad3      	subs	r3, r2, r3
     bfc:	4619      	mov	r1, r3
     bfe:	4877      	ldr	r0, [pc, #476]	; (ddc <main+0x950>)
     c00:	f006 fe38 	bl	7874 <printf>
     c04:	4871      	ldr	r0, [pc, #452]	; (dcc <main+0x940>)
     c06:	f006 fe35 	bl	7874 <printf>
     c0a:	4871      	ldr	r0, [pc, #452]	; (dd0 <main+0x944>)
     c0c:	f005 fcb0 	bl	6570 <Chip_TIMER_Reset>
     c10:	4b6f      	ldr	r3, [pc, #444]	; (dd0 <main+0x944>)
     c12:	2201      	movs	r2, #1
     c14:	605a      	str	r2, [r3, #4]
     c16:	f44f 5280 	mov.w	r2, #4096	; 0x1000
     c1a:	496e      	ldr	r1, [pc, #440]	; (dd4 <main+0x948>)
     c1c:	486e      	ldr	r0, [pc, #440]	; (dd8 <main+0x94c>)
     c1e:	f004 fd71 	bl	5704 <arm_cmplx_mag_f32>
     c22:	4b6b      	ldr	r3, [pc, #428]	; (dd0 <main+0x944>)
     c24:	2200      	movs	r2, #0
     c26:	605a      	str	r2, [r3, #4]
     c28:	4b69      	ldr	r3, [pc, #420]	; (dd0 <main+0x944>)
     c2a:	689b      	ldr	r3, [r3, #8]
     c2c:	60bb      	str	r3, [r7, #8]
     c2e:	68ba      	ldr	r2, [r7, #8]
     c30:	687b      	ldr	r3, [r7, #4]
     c32:	1ad3      	subs	r3, r2, r3
     c34:	4619      	mov	r1, r3
     c36:	4869      	ldr	r0, [pc, #420]	; (ddc <main+0x950>)
     c38:	f006 fe1c 	bl	7874 <printf>
     c3c:	4863      	ldr	r0, [pc, #396]	; (dcc <main+0x940>)
     c3e:	f006 fe19 	bl	7874 <printf>
     c42:	4867      	ldr	r0, [pc, #412]	; (de0 <main+0x954>)
     c44:	f006 fe16 	bl	7874 <printf>
     c48:	4866      	ldr	r0, [pc, #408]	; (de4 <main+0x958>)
     c4a:	f006 fe13 	bl	7874 <printf>
     c4e:	4860      	ldr	r0, [pc, #384]	; (dd0 <main+0x944>)
     c50:	f005 fc8e 	bl	6570 <Chip_TIMER_Reset>
     c54:	4b5e      	ldr	r3, [pc, #376]	; (dd0 <main+0x944>)
     c56:	2201      	movs	r2, #1
     c58:	605a      	str	r2, [r3, #4]
     c5a:	2210      	movs	r2, #16
     c5c:	495d      	ldr	r1, [pc, #372]	; (dd4 <main+0x948>)
     c5e:	485e      	ldr	r0, [pc, #376]	; (dd8 <main+0x94c>)
     c60:	f004 fe10 	bl	5884 <arm_cmplx_mag_squared_f32>
     c64:	4b5a      	ldr	r3, [pc, #360]	; (dd0 <main+0x944>)
     c66:	2200      	movs	r2, #0
     c68:	605a      	str	r2, [r3, #4]
     c6a:	4b59      	ldr	r3, [pc, #356]	; (dd0 <main+0x944>)
     c6c:	689b      	ldr	r3, [r3, #8]
     c6e:	60bb      	str	r3, [r7, #8]
     c70:	68ba      	ldr	r2, [r7, #8]
     c72:	687b      	ldr	r3, [r7, #4]
     c74:	1ad3      	subs	r3, r2, r3
     c76:	4619      	mov	r1, r3
     c78:	4858      	ldr	r0, [pc, #352]	; (ddc <main+0x950>)
     c7a:	f006 fdfb 	bl	7874 <printf>
     c7e:	4853      	ldr	r0, [pc, #332]	; (dcc <main+0x940>)
     c80:	f006 fdf8 	bl	7874 <printf>
     c84:	4852      	ldr	r0, [pc, #328]	; (dd0 <main+0x944>)
     c86:	f005 fc73 	bl	6570 <Chip_TIMER_Reset>
     c8a:	4b51      	ldr	r3, [pc, #324]	; (dd0 <main+0x944>)
     c8c:	2201      	movs	r2, #1
     c8e:	605a      	str	r2, [r3, #4]
     c90:	2220      	movs	r2, #32
     c92:	4950      	ldr	r1, [pc, #320]	; (dd4 <main+0x948>)
     c94:	4850      	ldr	r0, [pc, #320]	; (dd8 <main+0x94c>)
     c96:	f004 fdf5 	bl	5884 <arm_cmplx_mag_squared_f32>
     c9a:	4b4d      	ldr	r3, [pc, #308]	; (dd0 <main+0x944>)
     c9c:	2200      	movs	r2, #0
     c9e:	605a      	str	r2, [r3, #4]
     ca0:	4b4b      	ldr	r3, [pc, #300]	; (dd0 <main+0x944>)
     ca2:	689b      	ldr	r3, [r3, #8]
     ca4:	60bb      	str	r3, [r7, #8]
     ca6:	68ba      	ldr	r2, [r7, #8]
     ca8:	687b      	ldr	r3, [r7, #4]
     caa:	1ad3      	subs	r3, r2, r3
     cac:	4619      	mov	r1, r3
     cae:	484b      	ldr	r0, [pc, #300]	; (ddc <main+0x950>)
     cb0:	f006 fde0 	bl	7874 <printf>
     cb4:	4845      	ldr	r0, [pc, #276]	; (dcc <main+0x940>)
     cb6:	f006 fddd 	bl	7874 <printf>
     cba:	4845      	ldr	r0, [pc, #276]	; (dd0 <main+0x944>)
     cbc:	f005 fc58 	bl	6570 <Chip_TIMER_Reset>
     cc0:	4b43      	ldr	r3, [pc, #268]	; (dd0 <main+0x944>)
     cc2:	2201      	movs	r2, #1
     cc4:	605a      	str	r2, [r3, #4]
     cc6:	2240      	movs	r2, #64	; 0x40
     cc8:	4942      	ldr	r1, [pc, #264]	; (dd4 <main+0x948>)
     cca:	4843      	ldr	r0, [pc, #268]	; (dd8 <main+0x94c>)
     ccc:	f004 fdda 	bl	5884 <arm_cmplx_mag_squared_f32>
     cd0:	4b3f      	ldr	r3, [pc, #252]	; (dd0 <main+0x944>)
     cd2:	2200      	movs	r2, #0
     cd4:	605a      	str	r2, [r3, #4]
     cd6:	4b3e      	ldr	r3, [pc, #248]	; (dd0 <main+0x944>)
     cd8:	689b      	ldr	r3, [r3, #8]
     cda:	60bb      	str	r3, [r7, #8]
     cdc:	68ba      	ldr	r2, [r7, #8]
     cde:	687b      	ldr	r3, [r7, #4]
     ce0:	1ad3      	subs	r3, r2, r3
     ce2:	4619      	mov	r1, r3
     ce4:	483d      	ldr	r0, [pc, #244]	; (ddc <main+0x950>)
     ce6:	f006 fdc5 	bl	7874 <printf>
     cea:	4838      	ldr	r0, [pc, #224]	; (dcc <main+0x940>)
     cec:	f006 fdc2 	bl	7874 <printf>
     cf0:	4837      	ldr	r0, [pc, #220]	; (dd0 <main+0x944>)
     cf2:	f005 fc3d 	bl	6570 <Chip_TIMER_Reset>
     cf6:	4b36      	ldr	r3, [pc, #216]	; (dd0 <main+0x944>)
     cf8:	2201      	movs	r2, #1
     cfa:	605a      	str	r2, [r3, #4]
     cfc:	2280      	movs	r2, #128	; 0x80
     cfe:	4935      	ldr	r1, [pc, #212]	; (dd4 <main+0x948>)
     d00:	4835      	ldr	r0, [pc, #212]	; (dd8 <main+0x94c>)
     d02:	f004 fdbf 	bl	5884 <arm_cmplx_mag_squared_f32>
     d06:	4b32      	ldr	r3, [pc, #200]	; (dd0 <main+0x944>)
     d08:	2200      	movs	r2, #0
     d0a:	605a      	str	r2, [r3, #4]
     d0c:	4b30      	ldr	r3, [pc, #192]	; (dd0 <main+0x944>)
     d0e:	689b      	ldr	r3, [r3, #8]
     d10:	60bb      	str	r3, [r7, #8]
     d12:	68ba      	ldr	r2, [r7, #8]
     d14:	687b      	ldr	r3, [r7, #4]
     d16:	1ad3      	subs	r3, r2, r3
     d18:	4619      	mov	r1, r3
     d1a:	4830      	ldr	r0, [pc, #192]	; (ddc <main+0x950>)
     d1c:	f006 fdaa 	bl	7874 <printf>
     d20:	482a      	ldr	r0, [pc, #168]	; (dcc <main+0x940>)
     d22:	f006 fda7 	bl	7874 <printf>
     d26:	482a      	ldr	r0, [pc, #168]	; (dd0 <main+0x944>)
     d28:	f005 fc22 	bl	6570 <Chip_TIMER_Reset>
     d2c:	4b28      	ldr	r3, [pc, #160]	; (dd0 <main+0x944>)
     d2e:	2201      	movs	r2, #1
     d30:	605a      	str	r2, [r3, #4]
     d32:	f44f 7280 	mov.w	r2, #256	; 0x100
     d36:	4927      	ldr	r1, [pc, #156]	; (dd4 <main+0x948>)
     d38:	4827      	ldr	r0, [pc, #156]	; (dd8 <main+0x94c>)
     d3a:	f004 fda3 	bl	5884 <arm_cmplx_mag_squared_f32>
     d3e:	4b24      	ldr	r3, [pc, #144]	; (dd0 <main+0x944>)
     d40:	2200      	movs	r2, #0
     d42:	605a      	str	r2, [r3, #4]
     d44:	4b22      	ldr	r3, [pc, #136]	; (dd0 <main+0x944>)
     d46:	689b      	ldr	r3, [r3, #8]
     d48:	60bb      	str	r3, [r7, #8]
     d4a:	68ba      	ldr	r2, [r7, #8]
     d4c:	687b      	ldr	r3, [r7, #4]
     d4e:	1ad3      	subs	r3, r2, r3
     d50:	4619      	mov	r1, r3
     d52:	4822      	ldr	r0, [pc, #136]	; (ddc <main+0x950>)
     d54:	f006 fd8e 	bl	7874 <printf>
     d58:	481c      	ldr	r0, [pc, #112]	; (dcc <main+0x940>)
     d5a:	f006 fd8b 	bl	7874 <printf>
     d5e:	481c      	ldr	r0, [pc, #112]	; (dd0 <main+0x944>)
     d60:	f005 fc06 	bl	6570 <Chip_TIMER_Reset>
     d64:	4b1a      	ldr	r3, [pc, #104]	; (dd0 <main+0x944>)
     d66:	2201      	movs	r2, #1
     d68:	605a      	str	r2, [r3, #4]
     d6a:	f44f 7200 	mov.w	r2, #512	; 0x200
     d6e:	4919      	ldr	r1, [pc, #100]	; (dd4 <main+0x948>)
     d70:	4819      	ldr	r0, [pc, #100]	; (dd8 <main+0x94c>)
     d72:	f004 fd87 	bl	5884 <arm_cmplx_mag_squared_f32>
     d76:	4b16      	ldr	r3, [pc, #88]	; (dd0 <main+0x944>)
     d78:	2200      	movs	r2, #0
     d7a:	605a      	str	r2, [r3, #4]
     d7c:	4b14      	ldr	r3, [pc, #80]	; (dd0 <main+0x944>)
     d7e:	689b      	ldr	r3, [r3, #8]
     d80:	60bb      	str	r3, [r7, #8]
     d82:	68ba      	ldr	r2, [r7, #8]
     d84:	687b      	ldr	r3, [r7, #4]
     d86:	1ad3      	subs	r3, r2, r3
     d88:	4619      	mov	r1, r3
     d8a:	4814      	ldr	r0, [pc, #80]	; (ddc <main+0x950>)
     d8c:	f006 fd72 	bl	7874 <printf>
     d90:	480e      	ldr	r0, [pc, #56]	; (dcc <main+0x940>)
     d92:	f006 fd6f 	bl	7874 <printf>
     d96:	480e      	ldr	r0, [pc, #56]	; (dd0 <main+0x944>)
     d98:	f005 fbea 	bl	6570 <Chip_TIMER_Reset>
     d9c:	4b0c      	ldr	r3, [pc, #48]	; (dd0 <main+0x944>)
     d9e:	2201      	movs	r2, #1
     da0:	605a      	str	r2, [r3, #4]
     da2:	f44f 6280 	mov.w	r2, #1024	; 0x400
     da6:	490b      	ldr	r1, [pc, #44]	; (dd4 <main+0x948>)
     da8:	480b      	ldr	r0, [pc, #44]	; (dd8 <main+0x94c>)
     daa:	f004 fd6b 	bl	5884 <arm_cmplx_mag_squared_f32>
     dae:	4b08      	ldr	r3, [pc, #32]	; (dd0 <main+0x944>)
     db0:	2200      	movs	r2, #0
     db2:	605a      	str	r2, [r3, #4]
     db4:	4b06      	ldr	r3, [pc, #24]	; (dd0 <main+0x944>)
     db6:	689b      	ldr	r3, [r3, #8]
     db8:	60bb      	str	r3, [r7, #8]
     dba:	68ba      	ldr	r2, [r7, #8]
     dbc:	687b      	ldr	r3, [r7, #4]
     dbe:	1ad3      	subs	r3, r2, r3
     dc0:	4619      	mov	r1, r3
     dc2:	4806      	ldr	r0, [pc, #24]	; (ddc <main+0x950>)
     dc4:	f006 fd56 	bl	7874 <printf>
     dc8:	e00e      	b.n	de8 <main+0x95c>
     dca:	bf00      	nop
     dcc:	00009a24 	.word	0x00009a24
     dd0:	40008000 	.word	0x40008000
     dd4:	200064b0 	.word	0x200064b0
     dd8:	200023a4 	.word	0x200023a4
     ddc:	00009a20 	.word	0x00009a20
     de0:	00009a04 	.word	0x00009a04
     de4:	00009a50 	.word	0x00009a50
     de8:	48aa      	ldr	r0, [pc, #680]	; (1094 <main+0xc08>)
     dea:	f006 fd43 	bl	7874 <printf>
     dee:	48aa      	ldr	r0, [pc, #680]	; (1098 <main+0xc0c>)
     df0:	f005 fbbe 	bl	6570 <Chip_TIMER_Reset>
     df4:	4ba8      	ldr	r3, [pc, #672]	; (1098 <main+0xc0c>)
     df6:	2201      	movs	r2, #1
     df8:	605a      	str	r2, [r3, #4]
     dfa:	f44f 6200 	mov.w	r2, #2048	; 0x800
     dfe:	49a7      	ldr	r1, [pc, #668]	; (109c <main+0xc10>)
     e00:	48a7      	ldr	r0, [pc, #668]	; (10a0 <main+0xc14>)
     e02:	f004 fd3f 	bl	5884 <arm_cmplx_mag_squared_f32>
     e06:	4ba4      	ldr	r3, [pc, #656]	; (1098 <main+0xc0c>)
     e08:	2200      	movs	r2, #0
     e0a:	605a      	str	r2, [r3, #4]
     e0c:	4ba2      	ldr	r3, [pc, #648]	; (1098 <main+0xc0c>)
     e0e:	689b      	ldr	r3, [r3, #8]
     e10:	60bb      	str	r3, [r7, #8]
     e12:	68ba      	ldr	r2, [r7, #8]
     e14:	687b      	ldr	r3, [r7, #4]
     e16:	1ad3      	subs	r3, r2, r3
     e18:	4619      	mov	r1, r3
     e1a:	48a2      	ldr	r0, [pc, #648]	; (10a4 <main+0xc18>)
     e1c:	f006 fd2a 	bl	7874 <printf>
     e20:	489c      	ldr	r0, [pc, #624]	; (1094 <main+0xc08>)
     e22:	f006 fd27 	bl	7874 <printf>
     e26:	489c      	ldr	r0, [pc, #624]	; (1098 <main+0xc0c>)
     e28:	f005 fba2 	bl	6570 <Chip_TIMER_Reset>
     e2c:	4b9a      	ldr	r3, [pc, #616]	; (1098 <main+0xc0c>)
     e2e:	2201      	movs	r2, #1
     e30:	605a      	str	r2, [r3, #4]
     e32:	f44f 5280 	mov.w	r2, #4096	; 0x1000
     e36:	4999      	ldr	r1, [pc, #612]	; (109c <main+0xc10>)
     e38:	4899      	ldr	r0, [pc, #612]	; (10a0 <main+0xc14>)
     e3a:	f004 fd23 	bl	5884 <arm_cmplx_mag_squared_f32>
     e3e:	4b96      	ldr	r3, [pc, #600]	; (1098 <main+0xc0c>)
     e40:	2200      	movs	r2, #0
     e42:	605a      	str	r2, [r3, #4]
     e44:	4b94      	ldr	r3, [pc, #592]	; (1098 <main+0xc0c>)
     e46:	689b      	ldr	r3, [r3, #8]
     e48:	60bb      	str	r3, [r7, #8]
     e4a:	68ba      	ldr	r2, [r7, #8]
     e4c:	687b      	ldr	r3, [r7, #4]
     e4e:	1ad3      	subs	r3, r2, r3
     e50:	4619      	mov	r1, r3
     e52:	4894      	ldr	r0, [pc, #592]	; (10a4 <main+0xc18>)
     e54:	f006 fd0e 	bl	7874 <printf>
     e58:	488e      	ldr	r0, [pc, #568]	; (1094 <main+0xc08>)
     e5a:	f006 fd0b 	bl	7874 <printf>
     e5e:	2320      	movs	r3, #32
     e60:	4a91      	ldr	r2, [pc, #580]	; (10a8 <main+0xc1c>)
     e62:	4992      	ldr	r1, [pc, #584]	; (10ac <main+0xc20>)
     e64:	4892      	ldr	r0, [pc, #584]	; (10b0 <main+0xc24>)
     e66:	f000 ff35 	bl	1cd4 <InitGoertzel_f32>
     e6a:	4892      	ldr	r0, [pc, #584]	; (10b4 <main+0xc28>)
     e6c:	f006 fd02 	bl	7874 <printf>
     e70:	4b8f      	ldr	r3, [pc, #572]	; (10b0 <main+0xc24>)
     e72:	2220      	movs	r2, #32
     e74:	609a      	str	r2, [r3, #8]
     e76:	4888      	ldr	r0, [pc, #544]	; (1098 <main+0xc0c>)
     e78:	f005 fb7a 	bl	6570 <Chip_TIMER_Reset>
     e7c:	4b86      	ldr	r3, [pc, #536]	; (1098 <main+0xc0c>)
     e7e:	2201      	movs	r2, #1
     e80:	605a      	str	r2, [r3, #4]
     e82:	4987      	ldr	r1, [pc, #540]	; (10a0 <main+0xc14>)
     e84:	488a      	ldr	r0, [pc, #552]	; (10b0 <main+0xc24>)
     e86:	f000 ff51 	bl	1d2c <ProcessGoertzel_f32_Power>
     e8a:	4603      	mov	r3, r0
     e8c:	603b      	str	r3, [r7, #0]
     e8e:	4b82      	ldr	r3, [pc, #520]	; (1098 <main+0xc0c>)
     e90:	2200      	movs	r2, #0
     e92:	605a      	str	r2, [r3, #4]
     e94:	4b80      	ldr	r3, [pc, #512]	; (1098 <main+0xc0c>)
     e96:	689b      	ldr	r3, [r3, #8]
     e98:	60bb      	str	r3, [r7, #8]
     e9a:	68ba      	ldr	r2, [r7, #8]
     e9c:	687b      	ldr	r3, [r7, #4]
     e9e:	1ad3      	subs	r3, r2, r3
     ea0:	4619      	mov	r1, r3
     ea2:	4880      	ldr	r0, [pc, #512]	; (10a4 <main+0xc18>)
     ea4:	f006 fce6 	bl	7874 <printf>
     ea8:	487a      	ldr	r0, [pc, #488]	; (1094 <main+0xc08>)
     eaa:	f006 fce3 	bl	7874 <printf>
     eae:	edd7 7a00 	vldr	s15, [r7]
     eb2:	ee77 7aa7 	vadd.f32	s15, s15, s15
     eb6:	edc7 7a00 	vstr	s15, [r7]
     eba:	4b7d      	ldr	r3, [pc, #500]	; (10b0 <main+0xc24>)
     ebc:	2220      	movs	r2, #32
     ebe:	609a      	str	r2, [r3, #8]
     ec0:	4875      	ldr	r0, [pc, #468]	; (1098 <main+0xc0c>)
     ec2:	f005 fb55 	bl	6570 <Chip_TIMER_Reset>
     ec6:	4b74      	ldr	r3, [pc, #464]	; (1098 <main+0xc0c>)
     ec8:	2201      	movs	r2, #1
     eca:	605a      	str	r2, [r3, #4]
     ecc:	4974      	ldr	r1, [pc, #464]	; (10a0 <main+0xc14>)
     ece:	4878      	ldr	r0, [pc, #480]	; (10b0 <main+0xc24>)
     ed0:	f000 ff2c 	bl	1d2c <ProcessGoertzel_f32_Power>
     ed4:	4603      	mov	r3, r0
     ed6:	603b      	str	r3, [r7, #0]
     ed8:	4b6f      	ldr	r3, [pc, #444]	; (1098 <main+0xc0c>)
     eda:	2200      	movs	r2, #0
     edc:	605a      	str	r2, [r3, #4]
     ede:	4b6e      	ldr	r3, [pc, #440]	; (1098 <main+0xc0c>)
     ee0:	689b      	ldr	r3, [r3, #8]
     ee2:	60bb      	str	r3, [r7, #8]
     ee4:	68ba      	ldr	r2, [r7, #8]
     ee6:	687b      	ldr	r3, [r7, #4]
     ee8:	1ad3      	subs	r3, r2, r3
     eea:	4619      	mov	r1, r3
     eec:	486d      	ldr	r0, [pc, #436]	; (10a4 <main+0xc18>)
     eee:	f006 fcc1 	bl	7874 <printf>
     ef2:	4868      	ldr	r0, [pc, #416]	; (1094 <main+0xc08>)
     ef4:	f006 fcbe 	bl	7874 <printf>
     ef8:	edd7 7a00 	vldr	s15, [r7]
     efc:	ee77 7aa7 	vadd.f32	s15, s15, s15
     f00:	edc7 7a00 	vstr	s15, [r7]
     f04:	4b6a      	ldr	r3, [pc, #424]	; (10b0 <main+0xc24>)
     f06:	2240      	movs	r2, #64	; 0x40
     f08:	609a      	str	r2, [r3, #8]
     f0a:	4863      	ldr	r0, [pc, #396]	; (1098 <main+0xc0c>)
     f0c:	f005 fb30 	bl	6570 <Chip_TIMER_Reset>
     f10:	4b61      	ldr	r3, [pc, #388]	; (1098 <main+0xc0c>)
     f12:	2201      	movs	r2, #1
     f14:	605a      	str	r2, [r3, #4]
     f16:	4962      	ldr	r1, [pc, #392]	; (10a0 <main+0xc14>)
     f18:	4865      	ldr	r0, [pc, #404]	; (10b0 <main+0xc24>)
     f1a:	f000 ff07 	bl	1d2c <ProcessGoertzel_f32_Power>
     f1e:	4603      	mov	r3, r0
     f20:	603b      	str	r3, [r7, #0]
     f22:	4b5d      	ldr	r3, [pc, #372]	; (1098 <main+0xc0c>)
     f24:	2200      	movs	r2, #0
     f26:	605a      	str	r2, [r3, #4]
     f28:	4b5b      	ldr	r3, [pc, #364]	; (1098 <main+0xc0c>)
     f2a:	689b      	ldr	r3, [r3, #8]
     f2c:	60bb      	str	r3, [r7, #8]
     f2e:	68ba      	ldr	r2, [r7, #8]
     f30:	687b      	ldr	r3, [r7, #4]
     f32:	1ad3      	subs	r3, r2, r3
     f34:	4619      	mov	r1, r3
     f36:	485b      	ldr	r0, [pc, #364]	; (10a4 <main+0xc18>)
     f38:	f006 fc9c 	bl	7874 <printf>
     f3c:	4855      	ldr	r0, [pc, #340]	; (1094 <main+0xc08>)
     f3e:	f006 fc99 	bl	7874 <printf>
     f42:	edd7 7a00 	vldr	s15, [r7]
     f46:	ee77 7aa7 	vadd.f32	s15, s15, s15
     f4a:	edc7 7a00 	vstr	s15, [r7]
     f4e:	4b58      	ldr	r3, [pc, #352]	; (10b0 <main+0xc24>)
     f50:	2280      	movs	r2, #128	; 0x80
     f52:	609a      	str	r2, [r3, #8]
     f54:	4850      	ldr	r0, [pc, #320]	; (1098 <main+0xc0c>)
     f56:	f005 fb0b 	bl	6570 <Chip_TIMER_Reset>
     f5a:	4b4f      	ldr	r3, [pc, #316]	; (1098 <main+0xc0c>)
     f5c:	2201      	movs	r2, #1
     f5e:	605a      	str	r2, [r3, #4]
     f60:	494f      	ldr	r1, [pc, #316]	; (10a0 <main+0xc14>)
     f62:	4853      	ldr	r0, [pc, #332]	; (10b0 <main+0xc24>)
     f64:	f000 fee2 	bl	1d2c <ProcessGoertzel_f32_Power>
     f68:	4603      	mov	r3, r0
     f6a:	603b      	str	r3, [r7, #0]
     f6c:	4b4a      	ldr	r3, [pc, #296]	; (1098 <main+0xc0c>)
     f6e:	2200      	movs	r2, #0
     f70:	605a      	str	r2, [r3, #4]
     f72:	4b49      	ldr	r3, [pc, #292]	; (1098 <main+0xc0c>)
     f74:	689b      	ldr	r3, [r3, #8]
     f76:	60bb      	str	r3, [r7, #8]
     f78:	68ba      	ldr	r2, [r7, #8]
     f7a:	687b      	ldr	r3, [r7, #4]
     f7c:	1ad3      	subs	r3, r2, r3
     f7e:	4619      	mov	r1, r3
     f80:	4848      	ldr	r0, [pc, #288]	; (10a4 <main+0xc18>)
     f82:	f006 fc77 	bl	7874 <printf>
     f86:	4843      	ldr	r0, [pc, #268]	; (1094 <main+0xc08>)
     f88:	f006 fc74 	bl	7874 <printf>
     f8c:	edd7 7a00 	vldr	s15, [r7]
     f90:	ee77 7aa7 	vadd.f32	s15, s15, s15
     f94:	edc7 7a00 	vstr	s15, [r7]
     f98:	4b45      	ldr	r3, [pc, #276]	; (10b0 <main+0xc24>)
     f9a:	f44f 7280 	mov.w	r2, #256	; 0x100
     f9e:	609a      	str	r2, [r3, #8]
     fa0:	483d      	ldr	r0, [pc, #244]	; (1098 <main+0xc0c>)
     fa2:	f005 fae5 	bl	6570 <Chip_TIMER_Reset>
     fa6:	4b3c      	ldr	r3, [pc, #240]	; (1098 <main+0xc0c>)
     fa8:	2201      	movs	r2, #1
     faa:	605a      	str	r2, [r3, #4]
     fac:	493c      	ldr	r1, [pc, #240]	; (10a0 <main+0xc14>)
     fae:	4840      	ldr	r0, [pc, #256]	; (10b0 <main+0xc24>)
     fb0:	f000 febc 	bl	1d2c <ProcessGoertzel_f32_Power>
     fb4:	4603      	mov	r3, r0
     fb6:	603b      	str	r3, [r7, #0]
     fb8:	4b37      	ldr	r3, [pc, #220]	; (1098 <main+0xc0c>)
     fba:	2200      	movs	r2, #0
     fbc:	605a      	str	r2, [r3, #4]
     fbe:	4b36      	ldr	r3, [pc, #216]	; (1098 <main+0xc0c>)
     fc0:	689b      	ldr	r3, [r3, #8]
     fc2:	60bb      	str	r3, [r7, #8]
     fc4:	68ba      	ldr	r2, [r7, #8]
     fc6:	687b      	ldr	r3, [r7, #4]
     fc8:	1ad3      	subs	r3, r2, r3
     fca:	4619      	mov	r1, r3
     fcc:	4835      	ldr	r0, [pc, #212]	; (10a4 <main+0xc18>)
     fce:	f006 fc51 	bl	7874 <printf>
     fd2:	4830      	ldr	r0, [pc, #192]	; (1094 <main+0xc08>)
     fd4:	f006 fc4e 	bl	7874 <printf>
     fd8:	edd7 7a00 	vldr	s15, [r7]
     fdc:	ee77 7aa7 	vadd.f32	s15, s15, s15
     fe0:	edc7 7a00 	vstr	s15, [r7]
     fe4:	4b32      	ldr	r3, [pc, #200]	; (10b0 <main+0xc24>)
     fe6:	f44f 7200 	mov.w	r2, #512	; 0x200
     fea:	609a      	str	r2, [r3, #8]
     fec:	482a      	ldr	r0, [pc, #168]	; (1098 <main+0xc0c>)
     fee:	f005 fabf 	bl	6570 <Chip_TIMER_Reset>
     ff2:	4b29      	ldr	r3, [pc, #164]	; (1098 <main+0xc0c>)
     ff4:	2201      	movs	r2, #1
     ff6:	605a      	str	r2, [r3, #4]
     ff8:	4929      	ldr	r1, [pc, #164]	; (10a0 <main+0xc14>)
     ffa:	482d      	ldr	r0, [pc, #180]	; (10b0 <main+0xc24>)
     ffc:	f000 fe96 	bl	1d2c <ProcessGoertzel_f32_Power>
    1000:	4603      	mov	r3, r0
    1002:	603b      	str	r3, [r7, #0]
    1004:	4b24      	ldr	r3, [pc, #144]	; (1098 <main+0xc0c>)
    1006:	2200      	movs	r2, #0
    1008:	605a      	str	r2, [r3, #4]
    100a:	4b23      	ldr	r3, [pc, #140]	; (1098 <main+0xc0c>)
    100c:	689b      	ldr	r3, [r3, #8]
    100e:	60bb      	str	r3, [r7, #8]
    1010:	68ba      	ldr	r2, [r7, #8]
    1012:	687b      	ldr	r3, [r7, #4]
    1014:	1ad3      	subs	r3, r2, r3
    1016:	4619      	mov	r1, r3
    1018:	4822      	ldr	r0, [pc, #136]	; (10a4 <main+0xc18>)
    101a:	f006 fc2b 	bl	7874 <printf>
    101e:	481d      	ldr	r0, [pc, #116]	; (1094 <main+0xc08>)
    1020:	f006 fc28 	bl	7874 <printf>
    1024:	edd7 7a00 	vldr	s15, [r7]
    1028:	ee77 7aa7 	vadd.f32	s15, s15, s15
    102c:	edc7 7a00 	vstr	s15, [r7]
    1030:	4b1f      	ldr	r3, [pc, #124]	; (10b0 <main+0xc24>)
    1032:	f44f 6280 	mov.w	r2, #1024	; 0x400
    1036:	609a      	str	r2, [r3, #8]
    1038:	4817      	ldr	r0, [pc, #92]	; (1098 <main+0xc0c>)
    103a:	f005 fa99 	bl	6570 <Chip_TIMER_Reset>
    103e:	4b16      	ldr	r3, [pc, #88]	; (1098 <main+0xc0c>)
    1040:	2201      	movs	r2, #1
    1042:	605a      	str	r2, [r3, #4]
    1044:	4916      	ldr	r1, [pc, #88]	; (10a0 <main+0xc14>)
    1046:	481a      	ldr	r0, [pc, #104]	; (10b0 <main+0xc24>)
    1048:	f000 fe70 	bl	1d2c <ProcessGoertzel_f32_Power>
    104c:	4603      	mov	r3, r0
    104e:	603b      	str	r3, [r7, #0]
    1050:	4b11      	ldr	r3, [pc, #68]	; (1098 <main+0xc0c>)
    1052:	2200      	movs	r2, #0
    1054:	605a      	str	r2, [r3, #4]
    1056:	4b10      	ldr	r3, [pc, #64]	; (1098 <main+0xc0c>)
    1058:	689b      	ldr	r3, [r3, #8]
    105a:	60bb      	str	r3, [r7, #8]
    105c:	68ba      	ldr	r2, [r7, #8]
    105e:	687b      	ldr	r3, [r7, #4]
    1060:	1ad3      	subs	r3, r2, r3
    1062:	4619      	mov	r1, r3
    1064:	480f      	ldr	r0, [pc, #60]	; (10a4 <main+0xc18>)
    1066:	f006 fc05 	bl	7874 <printf>
    106a:	480a      	ldr	r0, [pc, #40]	; (1094 <main+0xc08>)
    106c:	f006 fc02 	bl	7874 <printf>
    1070:	edd7 7a00 	vldr	s15, [r7]
    1074:	ee77 7aa7 	vadd.f32	s15, s15, s15
    1078:	edc7 7a00 	vstr	s15, [r7]
    107c:	4b0c      	ldr	r3, [pc, #48]	; (10b0 <main+0xc24>)
    107e:	f44f 6200 	mov.w	r2, #2048	; 0x800
    1082:	609a      	str	r2, [r3, #8]
    1084:	4804      	ldr	r0, [pc, #16]	; (1098 <main+0xc0c>)
    1086:	f005 fa73 	bl	6570 <Chip_TIMER_Reset>
    108a:	4b03      	ldr	r3, [pc, #12]	; (1098 <main+0xc0c>)
    108c:	2201      	movs	r2, #1
    108e:	605a      	str	r2, [r3, #4]
    1090:	4903      	ldr	r1, [pc, #12]	; (10a0 <main+0xc14>)
    1092:	e011      	b.n	10b8 <main+0xc2c>
    1094:	00009a24 	.word	0x00009a24
    1098:	40008000 	.word	0x40008000
    109c:	200064b0 	.word	0x200064b0
    10a0:	200023a4 	.word	0x200023a4
    10a4:	00009a20 	.word	0x00009a20
    10a8:	49742400 	.word	0x49742400
    10ac:	482fc800 	.word	0x482fc800
    10b0:	20002394 	.word	0x20002394
    10b4:	00009a68 	.word	0x00009a68
    10b8:	48a8      	ldr	r0, [pc, #672]	; (135c <main+0xed0>)
    10ba:	f000 fe37 	bl	1d2c <ProcessGoertzel_f32_Power>
    10be:	4603      	mov	r3, r0
    10c0:	603b      	str	r3, [r7, #0]
    10c2:	4ba7      	ldr	r3, [pc, #668]	; (1360 <main+0xed4>)
    10c4:	2200      	movs	r2, #0
    10c6:	605a      	str	r2, [r3, #4]
    10c8:	4ba5      	ldr	r3, [pc, #660]	; (1360 <main+0xed4>)
    10ca:	689b      	ldr	r3, [r3, #8]
    10cc:	60bb      	str	r3, [r7, #8]
    10ce:	68ba      	ldr	r2, [r7, #8]
    10d0:	687b      	ldr	r3, [r7, #4]
    10d2:	1ad3      	subs	r3, r2, r3
    10d4:	4619      	mov	r1, r3
    10d6:	48a3      	ldr	r0, [pc, #652]	; (1364 <main+0xed8>)
    10d8:	f006 fbcc 	bl	7874 <printf>
    10dc:	48a2      	ldr	r0, [pc, #648]	; (1368 <main+0xedc>)
    10de:	f006 fbc9 	bl	7874 <printf>
    10e2:	edd7 7a00 	vldr	s15, [r7]
    10e6:	ee77 7aa7 	vadd.f32	s15, s15, s15
    10ea:	edc7 7a00 	vstr	s15, [r7]
    10ee:	4b9b      	ldr	r3, [pc, #620]	; (135c <main+0xed0>)
    10f0:	f44f 5280 	mov.w	r2, #4096	; 0x1000
    10f4:	609a      	str	r2, [r3, #8]
    10f6:	489a      	ldr	r0, [pc, #616]	; (1360 <main+0xed4>)
    10f8:	f005 fa3a 	bl	6570 <Chip_TIMER_Reset>
    10fc:	4b98      	ldr	r3, [pc, #608]	; (1360 <main+0xed4>)
    10fe:	2201      	movs	r2, #1
    1100:	605a      	str	r2, [r3, #4]
    1102:	499a      	ldr	r1, [pc, #616]	; (136c <main+0xee0>)
    1104:	4895      	ldr	r0, [pc, #596]	; (135c <main+0xed0>)
    1106:	f000 fe11 	bl	1d2c <ProcessGoertzel_f32_Power>
    110a:	4603      	mov	r3, r0
    110c:	603b      	str	r3, [r7, #0]
    110e:	4b94      	ldr	r3, [pc, #592]	; (1360 <main+0xed4>)
    1110:	2200      	movs	r2, #0
    1112:	605a      	str	r2, [r3, #4]
    1114:	4b92      	ldr	r3, [pc, #584]	; (1360 <main+0xed4>)
    1116:	689b      	ldr	r3, [r3, #8]
    1118:	60bb      	str	r3, [r7, #8]
    111a:	68ba      	ldr	r2, [r7, #8]
    111c:	687b      	ldr	r3, [r7, #4]
    111e:	1ad3      	subs	r3, r2, r3
    1120:	4619      	mov	r1, r3
    1122:	4890      	ldr	r0, [pc, #576]	; (1364 <main+0xed8>)
    1124:	f006 fba6 	bl	7874 <printf>
    1128:	488f      	ldr	r0, [pc, #572]	; (1368 <main+0xedc>)
    112a:	f006 fba3 	bl	7874 <printf>
    112e:	edd7 7a00 	vldr	s15, [r7]
    1132:	ee77 7aa7 	vadd.f32	s15, s15, s15
    1136:	edc7 7a00 	vstr	s15, [r7]
    113a:	488d      	ldr	r0, [pc, #564]	; (1370 <main+0xee4>)
    113c:	f006 fb9a 	bl	7874 <printf>
    1140:	488c      	ldr	r0, [pc, #560]	; (1374 <main+0xee8>)
    1142:	f006 fb97 	bl	7874 <printf>
    1146:	4b8c      	ldr	r3, [pc, #560]	; (1378 <main+0xeec>)
    1148:	4a8c      	ldr	r2, [pc, #560]	; (137c <main+0xef0>)
    114a:	2101      	movs	r1, #1
    114c:	488c      	ldr	r0, [pc, #560]	; (1380 <main+0xef4>)
    114e:	f003 fab9 	bl	46c4 <arm_biquad_cascade_df1_init_f32>
    1152:	4883      	ldr	r0, [pc, #524]	; (1360 <main+0xed4>)
    1154:	f005 fa0c 	bl	6570 <Chip_TIMER_Reset>
    1158:	4b81      	ldr	r3, [pc, #516]	; (1360 <main+0xed4>)
    115a:	2201      	movs	r2, #1
    115c:	605a      	str	r2, [r3, #4]
    115e:	2310      	movs	r3, #16
    1160:	4a88      	ldr	r2, [pc, #544]	; (1384 <main+0xef8>)
    1162:	4982      	ldr	r1, [pc, #520]	; (136c <main+0xee0>)
    1164:	4886      	ldr	r0, [pc, #536]	; (1380 <main+0xef4>)
    1166:	f003 f933 	bl	43d0 <arm_biquad_cascade_df1_f32>
    116a:	4b7d      	ldr	r3, [pc, #500]	; (1360 <main+0xed4>)
    116c:	2200      	movs	r2, #0
    116e:	605a      	str	r2, [r3, #4]
    1170:	4b7b      	ldr	r3, [pc, #492]	; (1360 <main+0xed4>)
    1172:	689b      	ldr	r3, [r3, #8]
    1174:	60bb      	str	r3, [r7, #8]
    1176:	68ba      	ldr	r2, [r7, #8]
    1178:	687b      	ldr	r3, [r7, #4]
    117a:	1ad3      	subs	r3, r2, r3
    117c:	4619      	mov	r1, r3
    117e:	4879      	ldr	r0, [pc, #484]	; (1364 <main+0xed8>)
    1180:	f006 fb78 	bl	7874 <printf>
    1184:	4878      	ldr	r0, [pc, #480]	; (1368 <main+0xedc>)
    1186:	f006 fb75 	bl	7874 <printf>
    118a:	4875      	ldr	r0, [pc, #468]	; (1360 <main+0xed4>)
    118c:	f005 f9f0 	bl	6570 <Chip_TIMER_Reset>
    1190:	4b73      	ldr	r3, [pc, #460]	; (1360 <main+0xed4>)
    1192:	2201      	movs	r2, #1
    1194:	605a      	str	r2, [r3, #4]
    1196:	2320      	movs	r3, #32
    1198:	4a7a      	ldr	r2, [pc, #488]	; (1384 <main+0xef8>)
    119a:	4974      	ldr	r1, [pc, #464]	; (136c <main+0xee0>)
    119c:	4878      	ldr	r0, [pc, #480]	; (1380 <main+0xef4>)
    119e:	f003 f917 	bl	43d0 <arm_biquad_cascade_df1_f32>
    11a2:	4b6f      	ldr	r3, [pc, #444]	; (1360 <main+0xed4>)
    11a4:	2200      	movs	r2, #0
    11a6:	605a      	str	r2, [r3, #4]
    11a8:	4b6d      	ldr	r3, [pc, #436]	; (1360 <main+0xed4>)
    11aa:	689b      	ldr	r3, [r3, #8]
    11ac:	60bb      	str	r3, [r7, #8]
    11ae:	68ba      	ldr	r2, [r7, #8]
    11b0:	687b      	ldr	r3, [r7, #4]
    11b2:	1ad3      	subs	r3, r2, r3
    11b4:	4619      	mov	r1, r3
    11b6:	486b      	ldr	r0, [pc, #428]	; (1364 <main+0xed8>)
    11b8:	f006 fb5c 	bl	7874 <printf>
    11bc:	486a      	ldr	r0, [pc, #424]	; (1368 <main+0xedc>)
    11be:	f006 fb59 	bl	7874 <printf>
    11c2:	4867      	ldr	r0, [pc, #412]	; (1360 <main+0xed4>)
    11c4:	f005 f9d4 	bl	6570 <Chip_TIMER_Reset>
    11c8:	4b65      	ldr	r3, [pc, #404]	; (1360 <main+0xed4>)
    11ca:	2201      	movs	r2, #1
    11cc:	605a      	str	r2, [r3, #4]
    11ce:	2340      	movs	r3, #64	; 0x40
    11d0:	4a6c      	ldr	r2, [pc, #432]	; (1384 <main+0xef8>)
    11d2:	4966      	ldr	r1, [pc, #408]	; (136c <main+0xee0>)
    11d4:	486a      	ldr	r0, [pc, #424]	; (1380 <main+0xef4>)
    11d6:	f003 f8fb 	bl	43d0 <arm_biquad_cascade_df1_f32>
    11da:	4b61      	ldr	r3, [pc, #388]	; (1360 <main+0xed4>)
    11dc:	2200      	movs	r2, #0
    11de:	605a      	str	r2, [r3, #4]
    11e0:	4b5f      	ldr	r3, [pc, #380]	; (1360 <main+0xed4>)
    11e2:	689b      	ldr	r3, [r3, #8]
    11e4:	60bb      	str	r3, [r7, #8]
    11e6:	68ba      	ldr	r2, [r7, #8]
    11e8:	687b      	ldr	r3, [r7, #4]
    11ea:	1ad3      	subs	r3, r2, r3
    11ec:	4619      	mov	r1, r3
    11ee:	485d      	ldr	r0, [pc, #372]	; (1364 <main+0xed8>)
    11f0:	f006 fb40 	bl	7874 <printf>
    11f4:	485c      	ldr	r0, [pc, #368]	; (1368 <main+0xedc>)
    11f6:	f006 fb3d 	bl	7874 <printf>
    11fa:	4859      	ldr	r0, [pc, #356]	; (1360 <main+0xed4>)
    11fc:	f005 f9b8 	bl	6570 <Chip_TIMER_Reset>
    1200:	4b57      	ldr	r3, [pc, #348]	; (1360 <main+0xed4>)
    1202:	2201      	movs	r2, #1
    1204:	605a      	str	r2, [r3, #4]
    1206:	2380      	movs	r3, #128	; 0x80
    1208:	4a5e      	ldr	r2, [pc, #376]	; (1384 <main+0xef8>)
    120a:	4958      	ldr	r1, [pc, #352]	; (136c <main+0xee0>)
    120c:	485c      	ldr	r0, [pc, #368]	; (1380 <main+0xef4>)
    120e:	f003 f8df 	bl	43d0 <arm_biquad_cascade_df1_f32>
    1212:	4b53      	ldr	r3, [pc, #332]	; (1360 <main+0xed4>)
    1214:	2200      	movs	r2, #0
    1216:	605a      	str	r2, [r3, #4]
    1218:	4b51      	ldr	r3, [pc, #324]	; (1360 <main+0xed4>)
    121a:	689b      	ldr	r3, [r3, #8]
    121c:	60bb      	str	r3, [r7, #8]
    121e:	68ba      	ldr	r2, [r7, #8]
    1220:	687b      	ldr	r3, [r7, #4]
    1222:	1ad3      	subs	r3, r2, r3
    1224:	4619      	mov	r1, r3
    1226:	484f      	ldr	r0, [pc, #316]	; (1364 <main+0xed8>)
    1228:	f006 fb24 	bl	7874 <printf>
    122c:	484e      	ldr	r0, [pc, #312]	; (1368 <main+0xedc>)
    122e:	f006 fb21 	bl	7874 <printf>
    1232:	484b      	ldr	r0, [pc, #300]	; (1360 <main+0xed4>)
    1234:	f005 f99c 	bl	6570 <Chip_TIMER_Reset>
    1238:	4b49      	ldr	r3, [pc, #292]	; (1360 <main+0xed4>)
    123a:	2201      	movs	r2, #1
    123c:	605a      	str	r2, [r3, #4]
    123e:	f44f 7380 	mov.w	r3, #256	; 0x100
    1242:	4a50      	ldr	r2, [pc, #320]	; (1384 <main+0xef8>)
    1244:	4949      	ldr	r1, [pc, #292]	; (136c <main+0xee0>)
    1246:	484e      	ldr	r0, [pc, #312]	; (1380 <main+0xef4>)
    1248:	f003 f8c2 	bl	43d0 <arm_biquad_cascade_df1_f32>
    124c:	4b44      	ldr	r3, [pc, #272]	; (1360 <main+0xed4>)
    124e:	2200      	movs	r2, #0
    1250:	605a      	str	r2, [r3, #4]
    1252:	4b43      	ldr	r3, [pc, #268]	; (1360 <main+0xed4>)
    1254:	689b      	ldr	r3, [r3, #8]
    1256:	60bb      	str	r3, [r7, #8]
    1258:	68ba      	ldr	r2, [r7, #8]
    125a:	687b      	ldr	r3, [r7, #4]
    125c:	1ad3      	subs	r3, r2, r3
    125e:	4619      	mov	r1, r3
    1260:	4840      	ldr	r0, [pc, #256]	; (1364 <main+0xed8>)
    1262:	f006 fb07 	bl	7874 <printf>
    1266:	4840      	ldr	r0, [pc, #256]	; (1368 <main+0xedc>)
    1268:	f006 fb04 	bl	7874 <printf>
    126c:	483c      	ldr	r0, [pc, #240]	; (1360 <main+0xed4>)
    126e:	f005 f97f 	bl	6570 <Chip_TIMER_Reset>
    1272:	4b3b      	ldr	r3, [pc, #236]	; (1360 <main+0xed4>)
    1274:	2201      	movs	r2, #1
    1276:	605a      	str	r2, [r3, #4]
    1278:	f44f 7300 	mov.w	r3, #512	; 0x200
    127c:	4a41      	ldr	r2, [pc, #260]	; (1384 <main+0xef8>)
    127e:	493b      	ldr	r1, [pc, #236]	; (136c <main+0xee0>)
    1280:	483f      	ldr	r0, [pc, #252]	; (1380 <main+0xef4>)
    1282:	f003 f8a5 	bl	43d0 <arm_biquad_cascade_df1_f32>
    1286:	4b36      	ldr	r3, [pc, #216]	; (1360 <main+0xed4>)
    1288:	2200      	movs	r2, #0
    128a:	605a      	str	r2, [r3, #4]
    128c:	4b34      	ldr	r3, [pc, #208]	; (1360 <main+0xed4>)
    128e:	689b      	ldr	r3, [r3, #8]
    1290:	60bb      	str	r3, [r7, #8]
    1292:	68ba      	ldr	r2, [r7, #8]
    1294:	687b      	ldr	r3, [r7, #4]
    1296:	1ad3      	subs	r3, r2, r3
    1298:	4619      	mov	r1, r3
    129a:	4832      	ldr	r0, [pc, #200]	; (1364 <main+0xed8>)
    129c:	f006 faea 	bl	7874 <printf>
    12a0:	4831      	ldr	r0, [pc, #196]	; (1368 <main+0xedc>)
    12a2:	f006 fae7 	bl	7874 <printf>
    12a6:	482e      	ldr	r0, [pc, #184]	; (1360 <main+0xed4>)
    12a8:	f005 f962 	bl	6570 <Chip_TIMER_Reset>
    12ac:	4b2c      	ldr	r3, [pc, #176]	; (1360 <main+0xed4>)
    12ae:	2201      	movs	r2, #1
    12b0:	605a      	str	r2, [r3, #4]
    12b2:	f44f 6380 	mov.w	r3, #1024	; 0x400
    12b6:	4a33      	ldr	r2, [pc, #204]	; (1384 <main+0xef8>)
    12b8:	492c      	ldr	r1, [pc, #176]	; (136c <main+0xee0>)
    12ba:	4831      	ldr	r0, [pc, #196]	; (1380 <main+0xef4>)
    12bc:	f003 f888 	bl	43d0 <arm_biquad_cascade_df1_f32>
    12c0:	4b27      	ldr	r3, [pc, #156]	; (1360 <main+0xed4>)
    12c2:	2200      	movs	r2, #0
    12c4:	605a      	str	r2, [r3, #4]
    12c6:	4b26      	ldr	r3, [pc, #152]	; (1360 <main+0xed4>)
    12c8:	689b      	ldr	r3, [r3, #8]
    12ca:	60bb      	str	r3, [r7, #8]
    12cc:	68ba      	ldr	r2, [r7, #8]
    12ce:	687b      	ldr	r3, [r7, #4]
    12d0:	1ad3      	subs	r3, r2, r3
    12d2:	4619      	mov	r1, r3
    12d4:	4823      	ldr	r0, [pc, #140]	; (1364 <main+0xed8>)
    12d6:	f006 facd 	bl	7874 <printf>
    12da:	4823      	ldr	r0, [pc, #140]	; (1368 <main+0xedc>)
    12dc:	f006 faca 	bl	7874 <printf>
    12e0:	481f      	ldr	r0, [pc, #124]	; (1360 <main+0xed4>)
    12e2:	f005 f945 	bl	6570 <Chip_TIMER_Reset>
    12e6:	4b1e      	ldr	r3, [pc, #120]	; (1360 <main+0xed4>)
    12e8:	2201      	movs	r2, #1
    12ea:	605a      	str	r2, [r3, #4]
    12ec:	f44f 6300 	mov.w	r3, #2048	; 0x800
    12f0:	4a24      	ldr	r2, [pc, #144]	; (1384 <main+0xef8>)
    12f2:	491e      	ldr	r1, [pc, #120]	; (136c <main+0xee0>)
    12f4:	4822      	ldr	r0, [pc, #136]	; (1380 <main+0xef4>)
    12f6:	f003 f86b 	bl	43d0 <arm_biquad_cascade_df1_f32>
    12fa:	4b19      	ldr	r3, [pc, #100]	; (1360 <main+0xed4>)
    12fc:	2200      	movs	r2, #0
    12fe:	605a      	str	r2, [r3, #4]
    1300:	4b17      	ldr	r3, [pc, #92]	; (1360 <main+0xed4>)
    1302:	689b      	ldr	r3, [r3, #8]
    1304:	60bb      	str	r3, [r7, #8]
    1306:	68ba      	ldr	r2, [r7, #8]
    1308:	687b      	ldr	r3, [r7, #4]
    130a:	1ad3      	subs	r3, r2, r3
    130c:	4619      	mov	r1, r3
    130e:	4815      	ldr	r0, [pc, #84]	; (1364 <main+0xed8>)
    1310:	f006 fab0 	bl	7874 <printf>
    1314:	4814      	ldr	r0, [pc, #80]	; (1368 <main+0xedc>)
    1316:	f006 faad 	bl	7874 <printf>
    131a:	4811      	ldr	r0, [pc, #68]	; (1360 <main+0xed4>)
    131c:	f005 f928 	bl	6570 <Chip_TIMER_Reset>
    1320:	4b0f      	ldr	r3, [pc, #60]	; (1360 <main+0xed4>)
    1322:	2201      	movs	r2, #1
    1324:	605a      	str	r2, [r3, #4]
    1326:	f44f 5380 	mov.w	r3, #4096	; 0x1000
    132a:	4a16      	ldr	r2, [pc, #88]	; (1384 <main+0xef8>)
    132c:	490f      	ldr	r1, [pc, #60]	; (136c <main+0xee0>)
    132e:	4814      	ldr	r0, [pc, #80]	; (1380 <main+0xef4>)
    1330:	f003 f84e 	bl	43d0 <arm_biquad_cascade_df1_f32>
    1334:	4b0a      	ldr	r3, [pc, #40]	; (1360 <main+0xed4>)
    1336:	2200      	movs	r2, #0
    1338:	605a      	str	r2, [r3, #4]
    133a:	4b09      	ldr	r3, [pc, #36]	; (1360 <main+0xed4>)
    133c:	689b      	ldr	r3, [r3, #8]
    133e:	60bb      	str	r3, [r7, #8]
    1340:	68ba      	ldr	r2, [r7, #8]
    1342:	687b      	ldr	r3, [r7, #4]
    1344:	1ad3      	subs	r3, r2, r3
    1346:	4619      	mov	r1, r3
    1348:	4806      	ldr	r0, [pc, #24]	; (1364 <main+0xed8>)
    134a:	f006 fa93 	bl	7874 <printf>
    134e:	4806      	ldr	r0, [pc, #24]	; (1368 <main+0xedc>)
    1350:	f006 fa90 	bl	7874 <printf>
    1354:	4806      	ldr	r0, [pc, #24]	; (1370 <main+0xee4>)
    1356:	f006 fa8d 	bl	7874 <printf>
    135a:	e015      	b.n	1388 <main+0xefc>
    135c:	20002394 	.word	0x20002394
    1360:	40008000 	.word	0x40008000
    1364:	00009a20 	.word	0x00009a20
    1368:	00009a24 	.word	0x00009a24
    136c:	200023a4 	.word	0x200023a4
    1370:	00009a04 	.word	0x00009a04
    1374:	00009a78 	.word	0x00009a78
    1378:	200000f8 	.word	0x200000f8
    137c:	20000000 	.word	0x20000000
    1380:	2000a4b0 	.word	0x2000a4b0
    1384:	200064b0 	.word	0x200064b0
    1388:	48a7      	ldr	r0, [pc, #668]	; (1628 <main+0x119c>)
    138a:	f006 fa73 	bl	7874 <printf>
    138e:	4ba7      	ldr	r3, [pc, #668]	; (162c <main+0x11a0>)
    1390:	4aa7      	ldr	r2, [pc, #668]	; (1630 <main+0x11a4>)
    1392:	2101      	movs	r1, #1
    1394:	48a7      	ldr	r0, [pc, #668]	; (1634 <main+0x11a8>)
    1396:	f003 fa5f 	bl	4858 <arm_biquad_cascade_df2T_init_f32>
    139a:	48a7      	ldr	r0, [pc, #668]	; (1638 <main+0x11ac>)
    139c:	f005 f8e8 	bl	6570 <Chip_TIMER_Reset>
    13a0:	4ba5      	ldr	r3, [pc, #660]	; (1638 <main+0x11ac>)
    13a2:	2201      	movs	r2, #1
    13a4:	605a      	str	r2, [r3, #4]
    13a6:	2310      	movs	r3, #16
    13a8:	4aa4      	ldr	r2, [pc, #656]	; (163c <main+0x11b0>)
    13aa:	49a5      	ldr	r1, [pc, #660]	; (1640 <main+0x11b4>)
    13ac:	48a1      	ldr	r0, [pc, #644]	; (1634 <main+0x11a8>)
    13ae:	f003 f9a5 	bl	46fc <arm_biquad_cascade_df2T_f32>
    13b2:	4ba1      	ldr	r3, [pc, #644]	; (1638 <main+0x11ac>)
    13b4:	2200      	movs	r2, #0
    13b6:	605a      	str	r2, [r3, #4]
    13b8:	4b9f      	ldr	r3, [pc, #636]	; (1638 <main+0x11ac>)
    13ba:	689b      	ldr	r3, [r3, #8]
    13bc:	60bb      	str	r3, [r7, #8]
    13be:	68ba      	ldr	r2, [r7, #8]
    13c0:	687b      	ldr	r3, [r7, #4]
    13c2:	1ad3      	subs	r3, r2, r3
    13c4:	4619      	mov	r1, r3
    13c6:	489f      	ldr	r0, [pc, #636]	; (1644 <main+0x11b8>)
    13c8:	f006 fa54 	bl	7874 <printf>
    13cc:	489e      	ldr	r0, [pc, #632]	; (1648 <main+0x11bc>)
    13ce:	f006 fa51 	bl	7874 <printf>
    13d2:	4899      	ldr	r0, [pc, #612]	; (1638 <main+0x11ac>)
    13d4:	f005 f8cc 	bl	6570 <Chip_TIMER_Reset>
    13d8:	4b97      	ldr	r3, [pc, #604]	; (1638 <main+0x11ac>)
    13da:	2201      	movs	r2, #1
    13dc:	605a      	str	r2, [r3, #4]
    13de:	2320      	movs	r3, #32
    13e0:	4a96      	ldr	r2, [pc, #600]	; (163c <main+0x11b0>)
    13e2:	4997      	ldr	r1, [pc, #604]	; (1640 <main+0x11b4>)
    13e4:	4893      	ldr	r0, [pc, #588]	; (1634 <main+0x11a8>)
    13e6:	f003 f989 	bl	46fc <arm_biquad_cascade_df2T_f32>
    13ea:	4b93      	ldr	r3, [pc, #588]	; (1638 <main+0x11ac>)
    13ec:	2200      	movs	r2, #0
    13ee:	605a      	str	r2, [r3, #4]
    13f0:	4b91      	ldr	r3, [pc, #580]	; (1638 <main+0x11ac>)
    13f2:	689b      	ldr	r3, [r3, #8]
    13f4:	60bb      	str	r3, [r7, #8]
    13f6:	68ba      	ldr	r2, [r7, #8]
    13f8:	687b      	ldr	r3, [r7, #4]
    13fa:	1ad3      	subs	r3, r2, r3
    13fc:	4619      	mov	r1, r3
    13fe:	4891      	ldr	r0, [pc, #580]	; (1644 <main+0x11b8>)
    1400:	f006 fa38 	bl	7874 <printf>
    1404:	4890      	ldr	r0, [pc, #576]	; (1648 <main+0x11bc>)
    1406:	f006 fa35 	bl	7874 <printf>
    140a:	488b      	ldr	r0, [pc, #556]	; (1638 <main+0x11ac>)
    140c:	f005 f8b0 	bl	6570 <Chip_TIMER_Reset>
    1410:	4b89      	ldr	r3, [pc, #548]	; (1638 <main+0x11ac>)
    1412:	2201      	movs	r2, #1
    1414:	605a      	str	r2, [r3, #4]
    1416:	2340      	movs	r3, #64	; 0x40
    1418:	4a88      	ldr	r2, [pc, #544]	; (163c <main+0x11b0>)
    141a:	4989      	ldr	r1, [pc, #548]	; (1640 <main+0x11b4>)
    141c:	4885      	ldr	r0, [pc, #532]	; (1634 <main+0x11a8>)
    141e:	f003 f96d 	bl	46fc <arm_biquad_cascade_df2T_f32>
    1422:	4b85      	ldr	r3, [pc, #532]	; (1638 <main+0x11ac>)
    1424:	2200      	movs	r2, #0
    1426:	605a      	str	r2, [r3, #4]
    1428:	4b83      	ldr	r3, [pc, #524]	; (1638 <main+0x11ac>)
    142a:	689b      	ldr	r3, [r3, #8]
    142c:	60bb      	str	r3, [r7, #8]
    142e:	68ba      	ldr	r2, [r7, #8]
    1430:	687b      	ldr	r3, [r7, #4]
    1432:	1ad3      	subs	r3, r2, r3
    1434:	4619      	mov	r1, r3
    1436:	4883      	ldr	r0, [pc, #524]	; (1644 <main+0x11b8>)
    1438:	f006 fa1c 	bl	7874 <printf>
    143c:	4882      	ldr	r0, [pc, #520]	; (1648 <main+0x11bc>)
    143e:	f006 fa19 	bl	7874 <printf>
    1442:	487d      	ldr	r0, [pc, #500]	; (1638 <main+0x11ac>)
    1444:	f005 f894 	bl	6570 <Chip_TIMER_Reset>
    1448:	4b7b      	ldr	r3, [pc, #492]	; (1638 <main+0x11ac>)
    144a:	2201      	movs	r2, #1
    144c:	605a      	str	r2, [r3, #4]
    144e:	2380      	movs	r3, #128	; 0x80
    1450:	4a7a      	ldr	r2, [pc, #488]	; (163c <main+0x11b0>)
    1452:	497b      	ldr	r1, [pc, #492]	; (1640 <main+0x11b4>)
    1454:	4877      	ldr	r0, [pc, #476]	; (1634 <main+0x11a8>)
    1456:	f003 f951 	bl	46fc <arm_biquad_cascade_df2T_f32>
    145a:	4b77      	ldr	r3, [pc, #476]	; (1638 <main+0x11ac>)
    145c:	2200      	movs	r2, #0
    145e:	605a      	str	r2, [r3, #4]
    1460:	4b75      	ldr	r3, [pc, #468]	; (1638 <main+0x11ac>)
    1462:	689b      	ldr	r3, [r3, #8]
    1464:	60bb      	str	r3, [r7, #8]
    1466:	68ba      	ldr	r2, [r7, #8]
    1468:	687b      	ldr	r3, [r7, #4]
    146a:	1ad3      	subs	r3, r2, r3
    146c:	4619      	mov	r1, r3
    146e:	4875      	ldr	r0, [pc, #468]	; (1644 <main+0x11b8>)
    1470:	f006 fa00 	bl	7874 <printf>
    1474:	4874      	ldr	r0, [pc, #464]	; (1648 <main+0x11bc>)
    1476:	f006 f9fd 	bl	7874 <printf>
    147a:	486f      	ldr	r0, [pc, #444]	; (1638 <main+0x11ac>)
    147c:	f005 f878 	bl	6570 <Chip_TIMER_Reset>
    1480:	4b6d      	ldr	r3, [pc, #436]	; (1638 <main+0x11ac>)
    1482:	2201      	movs	r2, #1
    1484:	605a      	str	r2, [r3, #4]
    1486:	f44f 7380 	mov.w	r3, #256	; 0x100
    148a:	4a6c      	ldr	r2, [pc, #432]	; (163c <main+0x11b0>)
    148c:	496c      	ldr	r1, [pc, #432]	; (1640 <main+0x11b4>)
    148e:	4869      	ldr	r0, [pc, #420]	; (1634 <main+0x11a8>)
    1490:	f003 f934 	bl	46fc <arm_biquad_cascade_df2T_f32>
    1494:	4b68      	ldr	r3, [pc, #416]	; (1638 <main+0x11ac>)
    1496:	2200      	movs	r2, #0
    1498:	605a      	str	r2, [r3, #4]
    149a:	4b67      	ldr	r3, [pc, #412]	; (1638 <main+0x11ac>)
    149c:	689b      	ldr	r3, [r3, #8]
    149e:	60bb      	str	r3, [r7, #8]
    14a0:	68ba      	ldr	r2, [r7, #8]
    14a2:	687b      	ldr	r3, [r7, #4]
    14a4:	1ad3      	subs	r3, r2, r3
    14a6:	4619      	mov	r1, r3
    14a8:	4866      	ldr	r0, [pc, #408]	; (1644 <main+0x11b8>)
    14aa:	f006 f9e3 	bl	7874 <printf>
    14ae:	4866      	ldr	r0, [pc, #408]	; (1648 <main+0x11bc>)
    14b0:	f006 f9e0 	bl	7874 <printf>
    14b4:	4860      	ldr	r0, [pc, #384]	; (1638 <main+0x11ac>)
    14b6:	f005 f85b 	bl	6570 <Chip_TIMER_Reset>
    14ba:	4b5f      	ldr	r3, [pc, #380]	; (1638 <main+0x11ac>)
    14bc:	2201      	movs	r2, #1
    14be:	605a      	str	r2, [r3, #4]
    14c0:	f44f 7300 	mov.w	r3, #512	; 0x200
    14c4:	4a5d      	ldr	r2, [pc, #372]	; (163c <main+0x11b0>)
    14c6:	495e      	ldr	r1, [pc, #376]	; (1640 <main+0x11b4>)
    14c8:	485a      	ldr	r0, [pc, #360]	; (1634 <main+0x11a8>)
    14ca:	f003 f917 	bl	46fc <arm_biquad_cascade_df2T_f32>
    14ce:	4b5a      	ldr	r3, [pc, #360]	; (1638 <main+0x11ac>)
    14d0:	2200      	movs	r2, #0
    14d2:	605a      	str	r2, [r3, #4]
    14d4:	4b58      	ldr	r3, [pc, #352]	; (1638 <main+0x11ac>)
    14d6:	689b      	ldr	r3, [r3, #8]
    14d8:	60bb      	str	r3, [r7, #8]
    14da:	68ba      	ldr	r2, [r7, #8]
    14dc:	687b      	ldr	r3, [r7, #4]
    14de:	1ad3      	subs	r3, r2, r3
    14e0:	4619      	mov	r1, r3
    14e2:	4858      	ldr	r0, [pc, #352]	; (1644 <main+0x11b8>)
    14e4:	f006 f9c6 	bl	7874 <printf>
    14e8:	4857      	ldr	r0, [pc, #348]	; (1648 <main+0x11bc>)
    14ea:	f006 f9c3 	bl	7874 <printf>
    14ee:	4852      	ldr	r0, [pc, #328]	; (1638 <main+0x11ac>)
    14f0:	f005 f83e 	bl	6570 <Chip_TIMER_Reset>
    14f4:	4b50      	ldr	r3, [pc, #320]	; (1638 <main+0x11ac>)
    14f6:	2201      	movs	r2, #1
    14f8:	605a      	str	r2, [r3, #4]
    14fa:	f44f 6380 	mov.w	r3, #1024	; 0x400
    14fe:	4a4f      	ldr	r2, [pc, #316]	; (163c <main+0x11b0>)
    1500:	494f      	ldr	r1, [pc, #316]	; (1640 <main+0x11b4>)
    1502:	484c      	ldr	r0, [pc, #304]	; (1634 <main+0x11a8>)
    1504:	f003 f8fa 	bl	46fc <arm_biquad_cascade_df2T_f32>
    1508:	4b4b      	ldr	r3, [pc, #300]	; (1638 <main+0x11ac>)
    150a:	2200      	movs	r2, #0
    150c:	605a      	str	r2, [r3, #4]
    150e:	4b4a      	ldr	r3, [pc, #296]	; (1638 <main+0x11ac>)
    1510:	689b      	ldr	r3, [r3, #8]
    1512:	60bb      	str	r3, [r7, #8]
    1514:	68ba      	ldr	r2, [r7, #8]
    1516:	687b      	ldr	r3, [r7, #4]
    1518:	1ad3      	subs	r3, r2, r3
    151a:	4619      	mov	r1, r3
    151c:	4849      	ldr	r0, [pc, #292]	; (1644 <main+0x11b8>)
    151e:	f006 f9a9 	bl	7874 <printf>
    1522:	4849      	ldr	r0, [pc, #292]	; (1648 <main+0x11bc>)
    1524:	f006 f9a6 	bl	7874 <printf>
    1528:	4843      	ldr	r0, [pc, #268]	; (1638 <main+0x11ac>)
    152a:	f005 f821 	bl	6570 <Chip_TIMER_Reset>
    152e:	4b42      	ldr	r3, [pc, #264]	; (1638 <main+0x11ac>)
    1530:	2201      	movs	r2, #1
    1532:	605a      	str	r2, [r3, #4]
    1534:	f44f 6300 	mov.w	r3, #2048	; 0x800
    1538:	4a40      	ldr	r2, [pc, #256]	; (163c <main+0x11b0>)
    153a:	4941      	ldr	r1, [pc, #260]	; (1640 <main+0x11b4>)
    153c:	483d      	ldr	r0, [pc, #244]	; (1634 <main+0x11a8>)
    153e:	f003 f8dd 	bl	46fc <arm_biquad_cascade_df2T_f32>
    1542:	4b3d      	ldr	r3, [pc, #244]	; (1638 <main+0x11ac>)
    1544:	2200      	movs	r2, #0
    1546:	605a      	str	r2, [r3, #4]
    1548:	4b3b      	ldr	r3, [pc, #236]	; (1638 <main+0x11ac>)
    154a:	689b      	ldr	r3, [r3, #8]
    154c:	60bb      	str	r3, [r7, #8]
    154e:	68ba      	ldr	r2, [r7, #8]
    1550:	687b      	ldr	r3, [r7, #4]
    1552:	1ad3      	subs	r3, r2, r3
    1554:	4619      	mov	r1, r3
    1556:	483b      	ldr	r0, [pc, #236]	; (1644 <main+0x11b8>)
    1558:	f006 f98c 	bl	7874 <printf>
    155c:	483a      	ldr	r0, [pc, #232]	; (1648 <main+0x11bc>)
    155e:	f006 f989 	bl	7874 <printf>
    1562:	4835      	ldr	r0, [pc, #212]	; (1638 <main+0x11ac>)
    1564:	f005 f804 	bl	6570 <Chip_TIMER_Reset>
    1568:	4b33      	ldr	r3, [pc, #204]	; (1638 <main+0x11ac>)
    156a:	2201      	movs	r2, #1
    156c:	605a      	str	r2, [r3, #4]
    156e:	f44f 5380 	mov.w	r3, #4096	; 0x1000
    1572:	4a32      	ldr	r2, [pc, #200]	; (163c <main+0x11b0>)
    1574:	4932      	ldr	r1, [pc, #200]	; (1640 <main+0x11b4>)
    1576:	482f      	ldr	r0, [pc, #188]	; (1634 <main+0x11a8>)
    1578:	f003 f8c0 	bl	46fc <arm_biquad_cascade_df2T_f32>
    157c:	4b2e      	ldr	r3, [pc, #184]	; (1638 <main+0x11ac>)
    157e:	2200      	movs	r2, #0
    1580:	605a      	str	r2, [r3, #4]
    1582:	4b2d      	ldr	r3, [pc, #180]	; (1638 <main+0x11ac>)
    1584:	689b      	ldr	r3, [r3, #8]
    1586:	60bb      	str	r3, [r7, #8]
    1588:	68ba      	ldr	r2, [r7, #8]
    158a:	687b      	ldr	r3, [r7, #4]
    158c:	1ad3      	subs	r3, r2, r3
    158e:	4619      	mov	r1, r3
    1590:	482c      	ldr	r0, [pc, #176]	; (1644 <main+0x11b8>)
    1592:	f006 f96f 	bl	7874 <printf>
    1596:	482c      	ldr	r0, [pc, #176]	; (1648 <main+0x11bc>)
    1598:	f006 f96c 	bl	7874 <printf>
    159c:	482b      	ldr	r0, [pc, #172]	; (164c <main+0x11c0>)
    159e:	f006 f969 	bl	7874 <printf>
    15a2:	482b      	ldr	r0, [pc, #172]	; (1650 <main+0x11c4>)
    15a4:	f006 f966 	bl	7874 <printf>
    15a8:	f44f 6300 	mov.w	r3, #2048	; 0x800
    15ac:	9300      	str	r3, [sp, #0]
    15ae:	4b29      	ldr	r3, [pc, #164]	; (1654 <main+0x11c8>)
    15b0:	4a29      	ldr	r2, [pc, #164]	; (1658 <main+0x11cc>)
    15b2:	2108      	movs	r1, #8
    15b4:	4829      	ldr	r0, [pc, #164]	; (165c <main+0x11d0>)
    15b6:	f004 f82d 	bl	5614 <arm_fir_init_f32>
    15ba:	481f      	ldr	r0, [pc, #124]	; (1638 <main+0x11ac>)
    15bc:	f004 ffd8 	bl	6570 <Chip_TIMER_Reset>
    15c0:	4b1d      	ldr	r3, [pc, #116]	; (1638 <main+0x11ac>)
    15c2:	2201      	movs	r2, #1
    15c4:	605a      	str	r2, [r3, #4]
    15c6:	2310      	movs	r3, #16
    15c8:	4a1c      	ldr	r2, [pc, #112]	; (163c <main+0x11b0>)
    15ca:	491d      	ldr	r1, [pc, #116]	; (1640 <main+0x11b4>)
    15cc:	4823      	ldr	r0, [pc, #140]	; (165c <main+0x11d0>)
    15ce:	f003 f95f 	bl	4890 <arm_fir_f32>
    15d2:	4b19      	ldr	r3, [pc, #100]	; (1638 <main+0x11ac>)
    15d4:	2200      	movs	r2, #0
    15d6:	605a      	str	r2, [r3, #4]
    15d8:	4b17      	ldr	r3, [pc, #92]	; (1638 <main+0x11ac>)
    15da:	689b      	ldr	r3, [r3, #8]
    15dc:	60bb      	str	r3, [r7, #8]
    15de:	68ba      	ldr	r2, [r7, #8]
    15e0:	687b      	ldr	r3, [r7, #4]
    15e2:	1ad3      	subs	r3, r2, r3
    15e4:	4619      	mov	r1, r3
    15e6:	4817      	ldr	r0, [pc, #92]	; (1644 <main+0x11b8>)
    15e8:	f006 f944 	bl	7874 <printf>
    15ec:	4816      	ldr	r0, [pc, #88]	; (1648 <main+0x11bc>)
    15ee:	f006 f941 	bl	7874 <printf>
    15f2:	4811      	ldr	r0, [pc, #68]	; (1638 <main+0x11ac>)
    15f4:	f004 ffbc 	bl	6570 <Chip_TIMER_Reset>
    15f8:	4b0f      	ldr	r3, [pc, #60]	; (1638 <main+0x11ac>)
    15fa:	2201      	movs	r2, #1
    15fc:	605a      	str	r2, [r3, #4]
    15fe:	2320      	movs	r3, #32
    1600:	4a0e      	ldr	r2, [pc, #56]	; (163c <main+0x11b0>)
    1602:	490f      	ldr	r1, [pc, #60]	; (1640 <main+0x11b4>)
    1604:	4815      	ldr	r0, [pc, #84]	; (165c <main+0x11d0>)
    1606:	f003 f943 	bl	4890 <arm_fir_f32>
    160a:	4b0b      	ldr	r3, [pc, #44]	; (1638 <main+0x11ac>)
    160c:	2200      	movs	r2, #0
    160e:	605a      	str	r2, [r3, #4]
    1610:	4b09      	ldr	r3, [pc, #36]	; (1638 <main+0x11ac>)
    1612:	689b      	ldr	r3, [r3, #8]
    1614:	60bb      	str	r3, [r7, #8]
    1616:	68ba      	ldr	r2, [r7, #8]
    1618:	687b      	ldr	r3, [r7, #4]
    161a:	1ad3      	subs	r3, r2, r3
    161c:	4619      	mov	r1, r3
    161e:	4809      	ldr	r0, [pc, #36]	; (1644 <main+0x11b8>)
    1620:	f006 f928 	bl	7874 <printf>
    1624:	e01c      	b.n	1660 <main+0x11d4>
    1626:	bf00      	nop
    1628:	00009a8c 	.word	0x00009a8c
    162c:	200000f8 	.word	0x200000f8
    1630:	20000000 	.word	0x20000000
    1634:	2000a4b0 	.word	0x2000a4b0
    1638:	40008000 	.word	0x40008000
    163c:	200064b0 	.word	0x200064b0
    1640:	200023a4 	.word	0x200023a4
    1644:	00009a20 	.word	0x00009a20
    1648:	00009a24 	.word	0x00009a24
    164c:	00009a04 	.word	0x00009a04
    1650:	00009aa4 	.word	0x00009aa4
    1654:	200002f0 	.word	0x200002f0
    1658:	200063a4 	.word	0x200063a4
    165c:	20006424 	.word	0x20006424
    1660:	48a7      	ldr	r0, [pc, #668]	; (1900 <main+0x1474>)
    1662:	f006 f907 	bl	7874 <printf>
    1666:	48a7      	ldr	r0, [pc, #668]	; (1904 <main+0x1478>)
    1668:	f004 ff82 	bl	6570 <Chip_TIMER_Reset>
    166c:	4ba5      	ldr	r3, [pc, #660]	; (1904 <main+0x1478>)
    166e:	2201      	movs	r2, #1
    1670:	605a      	str	r2, [r3, #4]
    1672:	2340      	movs	r3, #64	; 0x40
    1674:	4aa4      	ldr	r2, [pc, #656]	; (1908 <main+0x147c>)
    1676:	49a5      	ldr	r1, [pc, #660]	; (190c <main+0x1480>)
    1678:	48a5      	ldr	r0, [pc, #660]	; (1910 <main+0x1484>)
    167a:	f003 f909 	bl	4890 <arm_fir_f32>
    167e:	4ba1      	ldr	r3, [pc, #644]	; (1904 <main+0x1478>)
    1680:	2200      	movs	r2, #0
    1682:	605a      	str	r2, [r3, #4]
    1684:	4b9f      	ldr	r3, [pc, #636]	; (1904 <main+0x1478>)
    1686:	689b      	ldr	r3, [r3, #8]
    1688:	60bb      	str	r3, [r7, #8]
    168a:	68ba      	ldr	r2, [r7, #8]
    168c:	687b      	ldr	r3, [r7, #4]
    168e:	1ad3      	subs	r3, r2, r3
    1690:	4619      	mov	r1, r3
    1692:	48a0      	ldr	r0, [pc, #640]	; (1914 <main+0x1488>)
    1694:	f006 f8ee 	bl	7874 <printf>
    1698:	4899      	ldr	r0, [pc, #612]	; (1900 <main+0x1474>)
    169a:	f006 f8eb 	bl	7874 <printf>
    169e:	4899      	ldr	r0, [pc, #612]	; (1904 <main+0x1478>)
    16a0:	f004 ff66 	bl	6570 <Chip_TIMER_Reset>
    16a4:	4b97      	ldr	r3, [pc, #604]	; (1904 <main+0x1478>)
    16a6:	2201      	movs	r2, #1
    16a8:	605a      	str	r2, [r3, #4]
    16aa:	2380      	movs	r3, #128	; 0x80
    16ac:	4a96      	ldr	r2, [pc, #600]	; (1908 <main+0x147c>)
    16ae:	4997      	ldr	r1, [pc, #604]	; (190c <main+0x1480>)
    16b0:	4897      	ldr	r0, [pc, #604]	; (1910 <main+0x1484>)
    16b2:	f003 f8ed 	bl	4890 <arm_fir_f32>
    16b6:	4b93      	ldr	r3, [pc, #588]	; (1904 <main+0x1478>)
    16b8:	2200      	movs	r2, #0
    16ba:	605a      	str	r2, [r3, #4]
    16bc:	4b91      	ldr	r3, [pc, #580]	; (1904 <main+0x1478>)
    16be:	689b      	ldr	r3, [r3, #8]
    16c0:	60bb      	str	r3, [r7, #8]
    16c2:	68ba      	ldr	r2, [r7, #8]
    16c4:	687b      	ldr	r3, [r7, #4]
    16c6:	1ad3      	subs	r3, r2, r3
    16c8:	4619      	mov	r1, r3
    16ca:	4892      	ldr	r0, [pc, #584]	; (1914 <main+0x1488>)
    16cc:	f006 f8d2 	bl	7874 <printf>
    16d0:	488b      	ldr	r0, [pc, #556]	; (1900 <main+0x1474>)
    16d2:	f006 f8cf 	bl	7874 <printf>
    16d6:	488b      	ldr	r0, [pc, #556]	; (1904 <main+0x1478>)
    16d8:	f004 ff4a 	bl	6570 <Chip_TIMER_Reset>
    16dc:	4b89      	ldr	r3, [pc, #548]	; (1904 <main+0x1478>)
    16de:	2201      	movs	r2, #1
    16e0:	605a      	str	r2, [r3, #4]
    16e2:	f44f 7380 	mov.w	r3, #256	; 0x100
    16e6:	4a88      	ldr	r2, [pc, #544]	; (1908 <main+0x147c>)
    16e8:	4988      	ldr	r1, [pc, #544]	; (190c <main+0x1480>)
    16ea:	4889      	ldr	r0, [pc, #548]	; (1910 <main+0x1484>)
    16ec:	f003 f8d0 	bl	4890 <arm_fir_f32>
    16f0:	4b84      	ldr	r3, [pc, #528]	; (1904 <main+0x1478>)
    16f2:	2200      	movs	r2, #0
    16f4:	605a      	str	r2, [r3, #4]
    16f6:	4b83      	ldr	r3, [pc, #524]	; (1904 <main+0x1478>)
    16f8:	689b      	ldr	r3, [r3, #8]
    16fa:	60bb      	str	r3, [r7, #8]
    16fc:	68ba      	ldr	r2, [r7, #8]
    16fe:	687b      	ldr	r3, [r7, #4]
    1700:	1ad3      	subs	r3, r2, r3
    1702:	4619      	mov	r1, r3
    1704:	4883      	ldr	r0, [pc, #524]	; (1914 <main+0x1488>)
    1706:	f006 f8b5 	bl	7874 <printf>
    170a:	487d      	ldr	r0, [pc, #500]	; (1900 <main+0x1474>)
    170c:	f006 f8b2 	bl	7874 <printf>
    1710:	487c      	ldr	r0, [pc, #496]	; (1904 <main+0x1478>)
    1712:	f004 ff2d 	bl	6570 <Chip_TIMER_Reset>
    1716:	4b7b      	ldr	r3, [pc, #492]	; (1904 <main+0x1478>)
    1718:	2201      	movs	r2, #1
    171a:	605a      	str	r2, [r3, #4]
    171c:	f44f 7300 	mov.w	r3, #512	; 0x200
    1720:	4a79      	ldr	r2, [pc, #484]	; (1908 <main+0x147c>)
    1722:	497a      	ldr	r1, [pc, #488]	; (190c <main+0x1480>)
    1724:	487a      	ldr	r0, [pc, #488]	; (1910 <main+0x1484>)
    1726:	f003 f8b3 	bl	4890 <arm_fir_f32>
    172a:	4b76      	ldr	r3, [pc, #472]	; (1904 <main+0x1478>)
    172c:	2200      	movs	r2, #0
    172e:	605a      	str	r2, [r3, #4]
    1730:	4b74      	ldr	r3, [pc, #464]	; (1904 <main+0x1478>)
    1732:	689b      	ldr	r3, [r3, #8]
    1734:	60bb      	str	r3, [r7, #8]
    1736:	68ba      	ldr	r2, [r7, #8]
    1738:	687b      	ldr	r3, [r7, #4]
    173a:	1ad3      	subs	r3, r2, r3
    173c:	4619      	mov	r1, r3
    173e:	4875      	ldr	r0, [pc, #468]	; (1914 <main+0x1488>)
    1740:	f006 f898 	bl	7874 <printf>
    1744:	486e      	ldr	r0, [pc, #440]	; (1900 <main+0x1474>)
    1746:	f006 f895 	bl	7874 <printf>
    174a:	486e      	ldr	r0, [pc, #440]	; (1904 <main+0x1478>)
    174c:	f004 ff10 	bl	6570 <Chip_TIMER_Reset>
    1750:	4b6c      	ldr	r3, [pc, #432]	; (1904 <main+0x1478>)
    1752:	2201      	movs	r2, #1
    1754:	605a      	str	r2, [r3, #4]
    1756:	f44f 6380 	mov.w	r3, #1024	; 0x400
    175a:	4a6b      	ldr	r2, [pc, #428]	; (1908 <main+0x147c>)
    175c:	496b      	ldr	r1, [pc, #428]	; (190c <main+0x1480>)
    175e:	486c      	ldr	r0, [pc, #432]	; (1910 <main+0x1484>)
    1760:	f003 f896 	bl	4890 <arm_fir_f32>
    1764:	4b67      	ldr	r3, [pc, #412]	; (1904 <main+0x1478>)
    1766:	2200      	movs	r2, #0
    1768:	605a      	str	r2, [r3, #4]
    176a:	4b66      	ldr	r3, [pc, #408]	; (1904 <main+0x1478>)
    176c:	689b      	ldr	r3, [r3, #8]
    176e:	60bb      	str	r3, [r7, #8]
    1770:	68ba      	ldr	r2, [r7, #8]
    1772:	687b      	ldr	r3, [r7, #4]
    1774:	1ad3      	subs	r3, r2, r3
    1776:	4619      	mov	r1, r3
    1778:	4866      	ldr	r0, [pc, #408]	; (1914 <main+0x1488>)
    177a:	f006 f87b 	bl	7874 <printf>
    177e:	4860      	ldr	r0, [pc, #384]	; (1900 <main+0x1474>)
    1780:	f006 f878 	bl	7874 <printf>
    1784:	485f      	ldr	r0, [pc, #380]	; (1904 <main+0x1478>)
    1786:	f004 fef3 	bl	6570 <Chip_TIMER_Reset>
    178a:	4b5e      	ldr	r3, [pc, #376]	; (1904 <main+0x1478>)
    178c:	2201      	movs	r2, #1
    178e:	605a      	str	r2, [r3, #4]
    1790:	f44f 6300 	mov.w	r3, #2048	; 0x800
    1794:	4a5c      	ldr	r2, [pc, #368]	; (1908 <main+0x147c>)
    1796:	495d      	ldr	r1, [pc, #372]	; (190c <main+0x1480>)
    1798:	485d      	ldr	r0, [pc, #372]	; (1910 <main+0x1484>)
    179a:	f003 f879 	bl	4890 <arm_fir_f32>
    179e:	4b59      	ldr	r3, [pc, #356]	; (1904 <main+0x1478>)
    17a0:	2200      	movs	r2, #0
    17a2:	605a      	str	r2, [r3, #4]
    17a4:	4b57      	ldr	r3, [pc, #348]	; (1904 <main+0x1478>)
    17a6:	689b      	ldr	r3, [r3, #8]
    17a8:	60bb      	str	r3, [r7, #8]
    17aa:	68ba      	ldr	r2, [r7, #8]
    17ac:	687b      	ldr	r3, [r7, #4]
    17ae:	1ad3      	subs	r3, r2, r3
    17b0:	4619      	mov	r1, r3
    17b2:	4858      	ldr	r0, [pc, #352]	; (1914 <main+0x1488>)
    17b4:	f006 f85e 	bl	7874 <printf>
    17b8:	4851      	ldr	r0, [pc, #324]	; (1900 <main+0x1474>)
    17ba:	f006 f85b 	bl	7874 <printf>
    17be:	4856      	ldr	r0, [pc, #344]	; (1918 <main+0x148c>)
    17c0:	f006 f858 	bl	7874 <printf>
    17c4:	4855      	ldr	r0, [pc, #340]	; (191c <main+0x1490>)
    17c6:	f006 f855 	bl	7874 <printf>
    17ca:	4855      	ldr	r0, [pc, #340]	; (1920 <main+0x1494>)
    17cc:	f006 f852 	bl	7874 <printf>
    17d0:	f44f 6300 	mov.w	r3, #2048	; 0x800
    17d4:	9300      	str	r3, [sp, #0]
    17d6:	4b53      	ldr	r3, [pc, #332]	; (1924 <main+0x1498>)
    17d8:	4a53      	ldr	r2, [pc, #332]	; (1928 <main+0x149c>)
    17da:	2110      	movs	r1, #16
    17dc:	484c      	ldr	r0, [pc, #304]	; (1910 <main+0x1484>)
    17de:	f003 ff19 	bl	5614 <arm_fir_init_f32>
    17e2:	4848      	ldr	r0, [pc, #288]	; (1904 <main+0x1478>)
    17e4:	f004 fec4 	bl	6570 <Chip_TIMER_Reset>
    17e8:	4b46      	ldr	r3, [pc, #280]	; (1904 <main+0x1478>)
    17ea:	2201      	movs	r2, #1
    17ec:	605a      	str	r2, [r3, #4]
    17ee:	2310      	movs	r3, #16
    17f0:	4a45      	ldr	r2, [pc, #276]	; (1908 <main+0x147c>)
    17f2:	4946      	ldr	r1, [pc, #280]	; (190c <main+0x1480>)
    17f4:	4846      	ldr	r0, [pc, #280]	; (1910 <main+0x1484>)
    17f6:	f003 f84b 	bl	4890 <arm_fir_f32>
    17fa:	4b42      	ldr	r3, [pc, #264]	; (1904 <main+0x1478>)
    17fc:	2200      	movs	r2, #0
    17fe:	605a      	str	r2, [r3, #4]
    1800:	4b40      	ldr	r3, [pc, #256]	; (1904 <main+0x1478>)
    1802:	689b      	ldr	r3, [r3, #8]
    1804:	60bb      	str	r3, [r7, #8]
    1806:	68ba      	ldr	r2, [r7, #8]
    1808:	687b      	ldr	r3, [r7, #4]
    180a:	1ad3      	subs	r3, r2, r3
    180c:	4619      	mov	r1, r3
    180e:	4841      	ldr	r0, [pc, #260]	; (1914 <main+0x1488>)
    1810:	f006 f830 	bl	7874 <printf>
    1814:	483a      	ldr	r0, [pc, #232]	; (1900 <main+0x1474>)
    1816:	f006 f82d 	bl	7874 <printf>
    181a:	483a      	ldr	r0, [pc, #232]	; (1904 <main+0x1478>)
    181c:	f004 fea8 	bl	6570 <Chip_TIMER_Reset>
    1820:	4b38      	ldr	r3, [pc, #224]	; (1904 <main+0x1478>)
    1822:	2201      	movs	r2, #1
    1824:	605a      	str	r2, [r3, #4]
    1826:	2320      	movs	r3, #32
    1828:	4a37      	ldr	r2, [pc, #220]	; (1908 <main+0x147c>)
    182a:	4938      	ldr	r1, [pc, #224]	; (190c <main+0x1480>)
    182c:	4838      	ldr	r0, [pc, #224]	; (1910 <main+0x1484>)
    182e:	f003 f82f 	bl	4890 <arm_fir_f32>
    1832:	4b34      	ldr	r3, [pc, #208]	; (1904 <main+0x1478>)
    1834:	2200      	movs	r2, #0
    1836:	605a      	str	r2, [r3, #4]
    1838:	4b32      	ldr	r3, [pc, #200]	; (1904 <main+0x1478>)
    183a:	689b      	ldr	r3, [r3, #8]
    183c:	60bb      	str	r3, [r7, #8]
    183e:	68ba      	ldr	r2, [r7, #8]
    1840:	687b      	ldr	r3, [r7, #4]
    1842:	1ad3      	subs	r3, r2, r3
    1844:	4619      	mov	r1, r3
    1846:	4833      	ldr	r0, [pc, #204]	; (1914 <main+0x1488>)
    1848:	f006 f814 	bl	7874 <printf>
    184c:	482c      	ldr	r0, [pc, #176]	; (1900 <main+0x1474>)
    184e:	f006 f811 	bl	7874 <printf>
    1852:	482c      	ldr	r0, [pc, #176]	; (1904 <main+0x1478>)
    1854:	f004 fe8c 	bl	6570 <Chip_TIMER_Reset>
    1858:	4b2a      	ldr	r3, [pc, #168]	; (1904 <main+0x1478>)
    185a:	2201      	movs	r2, #1
    185c:	605a      	str	r2, [r3, #4]
    185e:	2340      	movs	r3, #64	; 0x40
    1860:	4a29      	ldr	r2, [pc, #164]	; (1908 <main+0x147c>)
    1862:	492a      	ldr	r1, [pc, #168]	; (190c <main+0x1480>)
    1864:	482a      	ldr	r0, [pc, #168]	; (1910 <main+0x1484>)
    1866:	f003 f813 	bl	4890 <arm_fir_f32>
    186a:	4b26      	ldr	r3, [pc, #152]	; (1904 <main+0x1478>)
    186c:	2200      	movs	r2, #0
    186e:	605a      	str	r2, [r3, #4]
    1870:	4b24      	ldr	r3, [pc, #144]	; (1904 <main+0x1478>)
    1872:	689b      	ldr	r3, [r3, #8]
    1874:	60bb      	str	r3, [r7, #8]
    1876:	68ba      	ldr	r2, [r7, #8]
    1878:	687b      	ldr	r3, [r7, #4]
    187a:	1ad3      	subs	r3, r2, r3
    187c:	4619      	mov	r1, r3
    187e:	4825      	ldr	r0, [pc, #148]	; (1914 <main+0x1488>)
    1880:	f005 fff8 	bl	7874 <printf>
    1884:	481e      	ldr	r0, [pc, #120]	; (1900 <main+0x1474>)
    1886:	f005 fff5 	bl	7874 <printf>
    188a:	481e      	ldr	r0, [pc, #120]	; (1904 <main+0x1478>)
    188c:	f004 fe70 	bl	6570 <Chip_TIMER_Reset>
    1890:	4b1c      	ldr	r3, [pc, #112]	; (1904 <main+0x1478>)
    1892:	2201      	movs	r2, #1
    1894:	605a      	str	r2, [r3, #4]
    1896:	2380      	movs	r3, #128	; 0x80
    1898:	4a1b      	ldr	r2, [pc, #108]	; (1908 <main+0x147c>)
    189a:	491c      	ldr	r1, [pc, #112]	; (190c <main+0x1480>)
    189c:	481c      	ldr	r0, [pc, #112]	; (1910 <main+0x1484>)
    189e:	f002 fff7 	bl	4890 <arm_fir_f32>
    18a2:	4b18      	ldr	r3, [pc, #96]	; (1904 <main+0x1478>)
    18a4:	2200      	movs	r2, #0
    18a6:	605a      	str	r2, [r3, #4]
    18a8:	4b16      	ldr	r3, [pc, #88]	; (1904 <main+0x1478>)
    18aa:	689b      	ldr	r3, [r3, #8]
    18ac:	60bb      	str	r3, [r7, #8]
    18ae:	68ba      	ldr	r2, [r7, #8]
    18b0:	687b      	ldr	r3, [r7, #4]
    18b2:	1ad3      	subs	r3, r2, r3
    18b4:	4619      	mov	r1, r3
    18b6:	4817      	ldr	r0, [pc, #92]	; (1914 <main+0x1488>)
    18b8:	f005 ffdc 	bl	7874 <printf>
    18bc:	4810      	ldr	r0, [pc, #64]	; (1900 <main+0x1474>)
    18be:	f005 ffd9 	bl	7874 <printf>
    18c2:	4810      	ldr	r0, [pc, #64]	; (1904 <main+0x1478>)
    18c4:	f004 fe54 	bl	6570 <Chip_TIMER_Reset>
    18c8:	4b0e      	ldr	r3, [pc, #56]	; (1904 <main+0x1478>)
    18ca:	2201      	movs	r2, #1
    18cc:	605a      	str	r2, [r3, #4]
    18ce:	f44f 7380 	mov.w	r3, #256	; 0x100
    18d2:	4a0d      	ldr	r2, [pc, #52]	; (1908 <main+0x147c>)
    18d4:	490d      	ldr	r1, [pc, #52]	; (190c <main+0x1480>)
    18d6:	480e      	ldr	r0, [pc, #56]	; (1910 <main+0x1484>)
    18d8:	f002 ffda 	bl	4890 <arm_fir_f32>
    18dc:	4b09      	ldr	r3, [pc, #36]	; (1904 <main+0x1478>)
    18de:	2200      	movs	r2, #0
    18e0:	605a      	str	r2, [r3, #4]
    18e2:	4b08      	ldr	r3, [pc, #32]	; (1904 <main+0x1478>)
    18e4:	689b      	ldr	r3, [r3, #8]
    18e6:	60bb      	str	r3, [r7, #8]
    18e8:	68ba      	ldr	r2, [r7, #8]
    18ea:	687b      	ldr	r3, [r7, #4]
    18ec:	1ad3      	subs	r3, r2, r3
    18ee:	4619      	mov	r1, r3
    18f0:	4808      	ldr	r0, [pc, #32]	; (1914 <main+0x1488>)
    18f2:	f005 ffbf 	bl	7874 <printf>
    18f6:	4802      	ldr	r0, [pc, #8]	; (1900 <main+0x1474>)
    18f8:	f005 ffbc 	bl	7874 <printf>
    18fc:	e016      	b.n	192c <main+0x14a0>
    18fe:	bf00      	nop
    1900:	00009a24 	.word	0x00009a24
    1904:	40008000 	.word	0x40008000
    1908:	200064b0 	.word	0x200064b0
    190c:	200023a4 	.word	0x200023a4
    1910:	20006424 	.word	0x20006424
    1914:	00009a20 	.word	0x00009a20
    1918:	00009ab4 	.word	0x00009ab4
    191c:	00009a04 	.word	0x00009a04
    1920:	00009ab8 	.word	0x00009ab8
    1924:	200002f0 	.word	0x200002f0
    1928:	200063a4 	.word	0x200063a4
    192c:	48a6      	ldr	r0, [pc, #664]	; (1bc8 <main+0x173c>)
    192e:	f004 fe1f 	bl	6570 <Chip_TIMER_Reset>
    1932:	4ba5      	ldr	r3, [pc, #660]	; (1bc8 <main+0x173c>)
    1934:	2201      	movs	r2, #1
    1936:	605a      	str	r2, [r3, #4]
    1938:	f44f 7300 	mov.w	r3, #512	; 0x200
    193c:	4aa3      	ldr	r2, [pc, #652]	; (1bcc <main+0x1740>)
    193e:	49a4      	ldr	r1, [pc, #656]	; (1bd0 <main+0x1744>)
    1940:	48a4      	ldr	r0, [pc, #656]	; (1bd4 <main+0x1748>)
    1942:	f002 ffa5 	bl	4890 <arm_fir_f32>
    1946:	4ba0      	ldr	r3, [pc, #640]	; (1bc8 <main+0x173c>)
    1948:	2200      	movs	r2, #0
    194a:	605a      	str	r2, [r3, #4]
    194c:	4b9e      	ldr	r3, [pc, #632]	; (1bc8 <main+0x173c>)
    194e:	689b      	ldr	r3, [r3, #8]
    1950:	60bb      	str	r3, [r7, #8]
    1952:	68ba      	ldr	r2, [r7, #8]
    1954:	687b      	ldr	r3, [r7, #4]
    1956:	1ad3      	subs	r3, r2, r3
    1958:	4619      	mov	r1, r3
    195a:	489f      	ldr	r0, [pc, #636]	; (1bd8 <main+0x174c>)
    195c:	f005 ff8a 	bl	7874 <printf>
    1960:	489e      	ldr	r0, [pc, #632]	; (1bdc <main+0x1750>)
    1962:	f005 ff87 	bl	7874 <printf>
    1966:	4898      	ldr	r0, [pc, #608]	; (1bc8 <main+0x173c>)
    1968:	f004 fe02 	bl	6570 <Chip_TIMER_Reset>
    196c:	4b96      	ldr	r3, [pc, #600]	; (1bc8 <main+0x173c>)
    196e:	2201      	movs	r2, #1
    1970:	605a      	str	r2, [r3, #4]
    1972:	f44f 6380 	mov.w	r3, #1024	; 0x400
    1976:	4a95      	ldr	r2, [pc, #596]	; (1bcc <main+0x1740>)
    1978:	4995      	ldr	r1, [pc, #596]	; (1bd0 <main+0x1744>)
    197a:	4896      	ldr	r0, [pc, #600]	; (1bd4 <main+0x1748>)
    197c:	f002 ff88 	bl	4890 <arm_fir_f32>
    1980:	4b91      	ldr	r3, [pc, #580]	; (1bc8 <main+0x173c>)
    1982:	2200      	movs	r2, #0
    1984:	605a      	str	r2, [r3, #4]
    1986:	4b90      	ldr	r3, [pc, #576]	; (1bc8 <main+0x173c>)
    1988:	689b      	ldr	r3, [r3, #8]
    198a:	60bb      	str	r3, [r7, #8]
    198c:	68ba      	ldr	r2, [r7, #8]
    198e:	687b      	ldr	r3, [r7, #4]
    1990:	1ad3      	subs	r3, r2, r3
    1992:	4619      	mov	r1, r3
    1994:	4890      	ldr	r0, [pc, #576]	; (1bd8 <main+0x174c>)
    1996:	f005 ff6d 	bl	7874 <printf>
    199a:	4890      	ldr	r0, [pc, #576]	; (1bdc <main+0x1750>)
    199c:	f005 ff6a 	bl	7874 <printf>
    19a0:	4889      	ldr	r0, [pc, #548]	; (1bc8 <main+0x173c>)
    19a2:	f004 fde5 	bl	6570 <Chip_TIMER_Reset>
    19a6:	4b88      	ldr	r3, [pc, #544]	; (1bc8 <main+0x173c>)
    19a8:	2201      	movs	r2, #1
    19aa:	605a      	str	r2, [r3, #4]
    19ac:	f44f 6300 	mov.w	r3, #2048	; 0x800
    19b0:	4a86      	ldr	r2, [pc, #536]	; (1bcc <main+0x1740>)
    19b2:	4987      	ldr	r1, [pc, #540]	; (1bd0 <main+0x1744>)
    19b4:	4887      	ldr	r0, [pc, #540]	; (1bd4 <main+0x1748>)
    19b6:	f002 ff6b 	bl	4890 <arm_fir_f32>
    19ba:	4b83      	ldr	r3, [pc, #524]	; (1bc8 <main+0x173c>)
    19bc:	2200      	movs	r2, #0
    19be:	605a      	str	r2, [r3, #4]
    19c0:	4b81      	ldr	r3, [pc, #516]	; (1bc8 <main+0x173c>)
    19c2:	689b      	ldr	r3, [r3, #8]
    19c4:	60bb      	str	r3, [r7, #8]
    19c6:	68ba      	ldr	r2, [r7, #8]
    19c8:	687b      	ldr	r3, [r7, #4]
    19ca:	1ad3      	subs	r3, r2, r3
    19cc:	4619      	mov	r1, r3
    19ce:	4882      	ldr	r0, [pc, #520]	; (1bd8 <main+0x174c>)
    19d0:	f005 ff50 	bl	7874 <printf>
    19d4:	4881      	ldr	r0, [pc, #516]	; (1bdc <main+0x1750>)
    19d6:	f005 ff4d 	bl	7874 <printf>
    19da:	4881      	ldr	r0, [pc, #516]	; (1be0 <main+0x1754>)
    19dc:	f005 ff4a 	bl	7874 <printf>
    19e0:	4880      	ldr	r0, [pc, #512]	; (1be4 <main+0x1758>)
    19e2:	f005 ff47 	bl	7874 <printf>
    19e6:	4880      	ldr	r0, [pc, #512]	; (1be8 <main+0x175c>)
    19e8:	f005 ff44 	bl	7874 <printf>
    19ec:	f44f 6300 	mov.w	r3, #2048	; 0x800
    19f0:	9300      	str	r3, [sp, #0]
    19f2:	4b7e      	ldr	r3, [pc, #504]	; (1bec <main+0x1760>)
    19f4:	4a7e      	ldr	r2, [pc, #504]	; (1bf0 <main+0x1764>)
    19f6:	2120      	movs	r1, #32
    19f8:	4876      	ldr	r0, [pc, #472]	; (1bd4 <main+0x1748>)
    19fa:	f003 fe0b 	bl	5614 <arm_fir_init_f32>
    19fe:	4872      	ldr	r0, [pc, #456]	; (1bc8 <main+0x173c>)
    1a00:	f004 fdb6 	bl	6570 <Chip_TIMER_Reset>
    1a04:	4b70      	ldr	r3, [pc, #448]	; (1bc8 <main+0x173c>)
    1a06:	2201      	movs	r2, #1
    1a08:	605a      	str	r2, [r3, #4]
    1a0a:	2310      	movs	r3, #16
    1a0c:	4a6f      	ldr	r2, [pc, #444]	; (1bcc <main+0x1740>)
    1a0e:	4970      	ldr	r1, [pc, #448]	; (1bd0 <main+0x1744>)
    1a10:	4870      	ldr	r0, [pc, #448]	; (1bd4 <main+0x1748>)
    1a12:	f002 ff3d 	bl	4890 <arm_fir_f32>
    1a16:	4b6c      	ldr	r3, [pc, #432]	; (1bc8 <main+0x173c>)
    1a18:	2200      	movs	r2, #0
    1a1a:	605a      	str	r2, [r3, #4]
    1a1c:	4b6a      	ldr	r3, [pc, #424]	; (1bc8 <main+0x173c>)
    1a1e:	689b      	ldr	r3, [r3, #8]
    1a20:	60bb      	str	r3, [r7, #8]
    1a22:	68ba      	ldr	r2, [r7, #8]
    1a24:	687b      	ldr	r3, [r7, #4]
    1a26:	1ad3      	subs	r3, r2, r3
    1a28:	4619      	mov	r1, r3
    1a2a:	486b      	ldr	r0, [pc, #428]	; (1bd8 <main+0x174c>)
    1a2c:	f005 ff22 	bl	7874 <printf>
    1a30:	486a      	ldr	r0, [pc, #424]	; (1bdc <main+0x1750>)
    1a32:	f005 ff1f 	bl	7874 <printf>
    1a36:	4864      	ldr	r0, [pc, #400]	; (1bc8 <main+0x173c>)
    1a38:	f004 fd9a 	bl	6570 <Chip_TIMER_Reset>
    1a3c:	4b62      	ldr	r3, [pc, #392]	; (1bc8 <main+0x173c>)
    1a3e:	2201      	movs	r2, #1
    1a40:	605a      	str	r2, [r3, #4]
    1a42:	2320      	movs	r3, #32
    1a44:	4a61      	ldr	r2, [pc, #388]	; (1bcc <main+0x1740>)
    1a46:	4962      	ldr	r1, [pc, #392]	; (1bd0 <main+0x1744>)
    1a48:	4862      	ldr	r0, [pc, #392]	; (1bd4 <main+0x1748>)
    1a4a:	f002 ff21 	bl	4890 <arm_fir_f32>
    1a4e:	4b5e      	ldr	r3, [pc, #376]	; (1bc8 <main+0x173c>)
    1a50:	2200      	movs	r2, #0
    1a52:	605a      	str	r2, [r3, #4]
    1a54:	4b5c      	ldr	r3, [pc, #368]	; (1bc8 <main+0x173c>)
    1a56:	689b      	ldr	r3, [r3, #8]
    1a58:	60bb      	str	r3, [r7, #8]
    1a5a:	68ba      	ldr	r2, [r7, #8]
    1a5c:	687b      	ldr	r3, [r7, #4]
    1a5e:	1ad3      	subs	r3, r2, r3
    1a60:	4619      	mov	r1, r3
    1a62:	485d      	ldr	r0, [pc, #372]	; (1bd8 <main+0x174c>)
    1a64:	f005 ff06 	bl	7874 <printf>
    1a68:	485c      	ldr	r0, [pc, #368]	; (1bdc <main+0x1750>)
    1a6a:	f005 ff03 	bl	7874 <printf>
    1a6e:	4856      	ldr	r0, [pc, #344]	; (1bc8 <main+0x173c>)
    1a70:	f004 fd7e 	bl	6570 <Chip_TIMER_Reset>
    1a74:	4b54      	ldr	r3, [pc, #336]	; (1bc8 <main+0x173c>)
    1a76:	2201      	movs	r2, #1
    1a78:	605a      	str	r2, [r3, #4]
    1a7a:	2340      	movs	r3, #64	; 0x40
    1a7c:	4a53      	ldr	r2, [pc, #332]	; (1bcc <main+0x1740>)
    1a7e:	4954      	ldr	r1, [pc, #336]	; (1bd0 <main+0x1744>)
    1a80:	4854      	ldr	r0, [pc, #336]	; (1bd4 <main+0x1748>)
    1a82:	f002 ff05 	bl	4890 <arm_fir_f32>
    1a86:	4b50      	ldr	r3, [pc, #320]	; (1bc8 <main+0x173c>)
    1a88:	2200      	movs	r2, #0
    1a8a:	605a      	str	r2, [r3, #4]
    1a8c:	4b4e      	ldr	r3, [pc, #312]	; (1bc8 <main+0x173c>)
    1a8e:	689b      	ldr	r3, [r3, #8]
    1a90:	60bb      	str	r3, [r7, #8]
    1a92:	68ba      	ldr	r2, [r7, #8]
    1a94:	687b      	ldr	r3, [r7, #4]
    1a96:	1ad3      	subs	r3, r2, r3
    1a98:	4619      	mov	r1, r3
    1a9a:	484f      	ldr	r0, [pc, #316]	; (1bd8 <main+0x174c>)
    1a9c:	f005 feea 	bl	7874 <printf>
    1aa0:	484e      	ldr	r0, [pc, #312]	; (1bdc <main+0x1750>)
    1aa2:	f005 fee7 	bl	7874 <printf>
    1aa6:	4848      	ldr	r0, [pc, #288]	; (1bc8 <main+0x173c>)
    1aa8:	f004 fd62 	bl	6570 <Chip_TIMER_Reset>
    1aac:	4b46      	ldr	r3, [pc, #280]	; (1bc8 <main+0x173c>)
    1aae:	2201      	movs	r2, #1
    1ab0:	605a      	str	r2, [r3, #4]
    1ab2:	2380      	movs	r3, #128	; 0x80
    1ab4:	4a45      	ldr	r2, [pc, #276]	; (1bcc <main+0x1740>)
    1ab6:	4946      	ldr	r1, [pc, #280]	; (1bd0 <main+0x1744>)
    1ab8:	4846      	ldr	r0, [pc, #280]	; (1bd4 <main+0x1748>)
    1aba:	f002 fee9 	bl	4890 <arm_fir_f32>
    1abe:	4b42      	ldr	r3, [pc, #264]	; (1bc8 <main+0x173c>)
    1ac0:	2200      	movs	r2, #0
    1ac2:	605a      	str	r2, [r3, #4]
    1ac4:	4b40      	ldr	r3, [pc, #256]	; (1bc8 <main+0x173c>)
    1ac6:	689b      	ldr	r3, [r3, #8]
    1ac8:	60bb      	str	r3, [r7, #8]
    1aca:	68ba      	ldr	r2, [r7, #8]
    1acc:	687b      	ldr	r3, [r7, #4]
    1ace:	1ad3      	subs	r3, r2, r3
    1ad0:	4619      	mov	r1, r3
    1ad2:	4841      	ldr	r0, [pc, #260]	; (1bd8 <main+0x174c>)
    1ad4:	f005 fece 	bl	7874 <printf>
    1ad8:	4840      	ldr	r0, [pc, #256]	; (1bdc <main+0x1750>)
    1ada:	f005 fecb 	bl	7874 <printf>
    1ade:	483a      	ldr	r0, [pc, #232]	; (1bc8 <main+0x173c>)
    1ae0:	f004 fd46 	bl	6570 <Chip_TIMER_Reset>
    1ae4:	4b38      	ldr	r3, [pc, #224]	; (1bc8 <main+0x173c>)
    1ae6:	2201      	movs	r2, #1
    1ae8:	605a      	str	r2, [r3, #4]
    1aea:	f44f 7380 	mov.w	r3, #256	; 0x100
    1aee:	4a37      	ldr	r2, [pc, #220]	; (1bcc <main+0x1740>)
    1af0:	4937      	ldr	r1, [pc, #220]	; (1bd0 <main+0x1744>)
    1af2:	4838      	ldr	r0, [pc, #224]	; (1bd4 <main+0x1748>)
    1af4:	f002 fecc 	bl	4890 <arm_fir_f32>
    1af8:	4b33      	ldr	r3, [pc, #204]	; (1bc8 <main+0x173c>)
    1afa:	2200      	movs	r2, #0
    1afc:	605a      	str	r2, [r3, #4]
    1afe:	4b32      	ldr	r3, [pc, #200]	; (1bc8 <main+0x173c>)
    1b00:	689b      	ldr	r3, [r3, #8]
    1b02:	60bb      	str	r3, [r7, #8]
    1b04:	68ba      	ldr	r2, [r7, #8]
    1b06:	687b      	ldr	r3, [r7, #4]
    1b08:	1ad3      	subs	r3, r2, r3
    1b0a:	4619      	mov	r1, r3
    1b0c:	4832      	ldr	r0, [pc, #200]	; (1bd8 <main+0x174c>)
    1b0e:	f005 feb1 	bl	7874 <printf>
    1b12:	4832      	ldr	r0, [pc, #200]	; (1bdc <main+0x1750>)
    1b14:	f005 feae 	bl	7874 <printf>
    1b18:	482b      	ldr	r0, [pc, #172]	; (1bc8 <main+0x173c>)
    1b1a:	f004 fd29 	bl	6570 <Chip_TIMER_Reset>
    1b1e:	4b2a      	ldr	r3, [pc, #168]	; (1bc8 <main+0x173c>)
    1b20:	2201      	movs	r2, #1
    1b22:	605a      	str	r2, [r3, #4]
    1b24:	f44f 7300 	mov.w	r3, #512	; 0x200
    1b28:	4a28      	ldr	r2, [pc, #160]	; (1bcc <main+0x1740>)
    1b2a:	4929      	ldr	r1, [pc, #164]	; (1bd0 <main+0x1744>)
    1b2c:	4829      	ldr	r0, [pc, #164]	; (1bd4 <main+0x1748>)
    1b2e:	f002 feaf 	bl	4890 <arm_fir_f32>
    1b32:	4b25      	ldr	r3, [pc, #148]	; (1bc8 <main+0x173c>)
    1b34:	2200      	movs	r2, #0
    1b36:	605a      	str	r2, [r3, #4]
    1b38:	4b23      	ldr	r3, [pc, #140]	; (1bc8 <main+0x173c>)
    1b3a:	689b      	ldr	r3, [r3, #8]
    1b3c:	60bb      	str	r3, [r7, #8]
    1b3e:	68ba      	ldr	r2, [r7, #8]
    1b40:	687b      	ldr	r3, [r7, #4]
    1b42:	1ad3      	subs	r3, r2, r3
    1b44:	4619      	mov	r1, r3
    1b46:	4824      	ldr	r0, [pc, #144]	; (1bd8 <main+0x174c>)
    1b48:	f005 fe94 	bl	7874 <printf>
    1b4c:	4823      	ldr	r0, [pc, #140]	; (1bdc <main+0x1750>)
    1b4e:	f005 fe91 	bl	7874 <printf>
    1b52:	481d      	ldr	r0, [pc, #116]	; (1bc8 <main+0x173c>)
    1b54:	f004 fd0c 	bl	6570 <Chip_TIMER_Reset>
    1b58:	4b1b      	ldr	r3, [pc, #108]	; (1bc8 <main+0x173c>)
    1b5a:	2201      	movs	r2, #1
    1b5c:	605a      	str	r2, [r3, #4]
    1b5e:	f44f 6380 	mov.w	r3, #1024	; 0x400
    1b62:	4a1a      	ldr	r2, [pc, #104]	; (1bcc <main+0x1740>)
    1b64:	491a      	ldr	r1, [pc, #104]	; (1bd0 <main+0x1744>)
    1b66:	481b      	ldr	r0, [pc, #108]	; (1bd4 <main+0x1748>)
    1b68:	f002 fe92 	bl	4890 <arm_fir_f32>
    1b6c:	4b16      	ldr	r3, [pc, #88]	; (1bc8 <main+0x173c>)
    1b6e:	2200      	movs	r2, #0
    1b70:	605a      	str	r2, [r3, #4]
    1b72:	4b15      	ldr	r3, [pc, #84]	; (1bc8 <main+0x173c>)
    1b74:	689b      	ldr	r3, [r3, #8]
    1b76:	60bb      	str	r3, [r7, #8]
    1b78:	68ba      	ldr	r2, [r7, #8]
    1b7a:	687b      	ldr	r3, [r7, #4]
    1b7c:	1ad3      	subs	r3, r2, r3
    1b7e:	4619      	mov	r1, r3
    1b80:	4815      	ldr	r0, [pc, #84]	; (1bd8 <main+0x174c>)
    1b82:	f005 fe77 	bl	7874 <printf>
    1b86:	4815      	ldr	r0, [pc, #84]	; (1bdc <main+0x1750>)
    1b88:	f005 fe74 	bl	7874 <printf>
    1b8c:	480e      	ldr	r0, [pc, #56]	; (1bc8 <main+0x173c>)
    1b8e:	f004 fcef 	bl	6570 <Chip_TIMER_Reset>
    1b92:	4b0d      	ldr	r3, [pc, #52]	; (1bc8 <main+0x173c>)
    1b94:	2201      	movs	r2, #1
    1b96:	605a      	str	r2, [r3, #4]
    1b98:	f44f 6300 	mov.w	r3, #2048	; 0x800
    1b9c:	4a0b      	ldr	r2, [pc, #44]	; (1bcc <main+0x1740>)
    1b9e:	490c      	ldr	r1, [pc, #48]	; (1bd0 <main+0x1744>)
    1ba0:	480c      	ldr	r0, [pc, #48]	; (1bd4 <main+0x1748>)
    1ba2:	f002 fe75 	bl	4890 <arm_fir_f32>
    1ba6:	4b08      	ldr	r3, [pc, #32]	; (1bc8 <main+0x173c>)
    1ba8:	2200      	movs	r2, #0
    1baa:	605a      	str	r2, [r3, #4]
    1bac:	4b06      	ldr	r3, [pc, #24]	; (1bc8 <main+0x173c>)
    1bae:	689b      	ldr	r3, [r3, #8]
    1bb0:	60bb      	str	r3, [r7, #8]
    1bb2:	68ba      	ldr	r2, [r7, #8]
    1bb4:	687b      	ldr	r3, [r7, #4]
    1bb6:	1ad3      	subs	r3, r2, r3
    1bb8:	4619      	mov	r1, r3
    1bba:	4807      	ldr	r0, [pc, #28]	; (1bd8 <main+0x174c>)
    1bbc:	f005 fe5a 	bl	7874 <printf>
    1bc0:	4806      	ldr	r0, [pc, #24]	; (1bdc <main+0x1750>)
    1bc2:	f005 fe57 	bl	7874 <printf>
    1bc6:	e015      	b.n	1bf4 <main+0x1768>
    1bc8:	40008000 	.word	0x40008000
    1bcc:	200064b0 	.word	0x200064b0
    1bd0:	200023a4 	.word	0x200023a4
    1bd4:	20006424 	.word	0x20006424
    1bd8:	00009a20 	.word	0x00009a20
    1bdc:	00009a24 	.word	0x00009a24
    1be0:	00009ab4 	.word	0x00009ab4
    1be4:	00009a04 	.word	0x00009a04
    1be8:	00009ac8 	.word	0x00009ac8
    1bec:	200002f0 	.word	0x200002f0
    1bf0:	200063a4 	.word	0x200063a4
    1bf4:	482b      	ldr	r0, [pc, #172]	; (1ca4 <main+0x1818>)
    1bf6:	f005 fe3d 	bl	7874 <printf>
    1bfa:	482b      	ldr	r0, [pc, #172]	; (1ca8 <main+0x181c>)
    1bfc:	f005 fe3a 	bl	7874 <printf>
    1c00:	482a      	ldr	r0, [pc, #168]	; (1cac <main+0x1820>)
    1c02:	f005 fe37 	bl	7874 <printf>
    1c06:	482a      	ldr	r0, [pc, #168]	; (1cb0 <main+0x1824>)
    1c08:	f005 fe34 	bl	7874 <printf>
    1c0c:	4829      	ldr	r0, [pc, #164]	; (1cb4 <main+0x1828>)
    1c0e:	f005 fe31 	bl	7874 <printf>
    1c12:	4b29      	ldr	r3, [pc, #164]	; (1cb8 <main+0x182c>)
    1c14:	f04f 527c 	mov.w	r2, #1056964608	; 0x3f000000
    1c18:	619a      	str	r2, [r3, #24]
    1c1a:	4b27      	ldr	r3, [pc, #156]	; (1cb8 <main+0x182c>)
    1c1c:	4a27      	ldr	r2, [pc, #156]	; (1cbc <main+0x1830>)
    1c1e:	61da      	str	r2, [r3, #28]
    1c20:	4b25      	ldr	r3, [pc, #148]	; (1cb8 <main+0x182c>)
    1c22:	4a27      	ldr	r2, [pc, #156]	; (1cc0 <main+0x1834>)
    1c24:	621a      	str	r2, [r3, #32]
    1c26:	2101      	movs	r1, #1
    1c28:	4823      	ldr	r0, [pc, #140]	; (1cb8 <main+0x182c>)
    1c2a:	f003 fd15 	bl	5658 <arm_pid_init_f32>
    1c2e:	2300      	movs	r3, #0
    1c30:	60fb      	str	r3, [r7, #12]
    1c32:	e02d      	b.n	1c90 <main+0x1804>
    1c34:	4823      	ldr	r0, [pc, #140]	; (1cc4 <main+0x1838>)
    1c36:	f004 fc9b 	bl	6570 <Chip_TIMER_Reset>
    1c3a:	4b22      	ldr	r3, [pc, #136]	; (1cc4 <main+0x1838>)
    1c3c:	2201      	movs	r2, #1
    1c3e:	605a      	str	r2, [r3, #4]
    1c40:	4a21      	ldr	r2, [pc, #132]	; (1cc8 <main+0x183c>)
    1c42:	68fb      	ldr	r3, [r7, #12]
    1c44:	009b      	lsls	r3, r3, #2
    1c46:	4413      	add	r3, r2
    1c48:	edd3 7a00 	vldr	s15, [r3]
    1c4c:	eeb0 0a67 	vmov.f32	s0, s15
    1c50:	4819      	ldr	r0, [pc, #100]	; (1cb8 <main+0x182c>)
    1c52:	f7fe fbdf 	bl	414 <arm_pid_f32>
    1c56:	eef0 7a40 	vmov.f32	s15, s0
    1c5a:	edc7 7a00 	vstr	s15, [r7]
    1c5e:	4b19      	ldr	r3, [pc, #100]	; (1cc4 <main+0x1838>)
    1c60:	2200      	movs	r2, #0
    1c62:	605a      	str	r2, [r3, #4]
    1c64:	4b17      	ldr	r3, [pc, #92]	; (1cc4 <main+0x1838>)
    1c66:	689b      	ldr	r3, [r3, #8]
    1c68:	60bb      	str	r3, [r7, #8]
    1c6a:	68ba      	ldr	r2, [r7, #8]
    1c6c:	687b      	ldr	r3, [r7, #4]
    1c6e:	1ad3      	subs	r3, r2, r3
    1c70:	4619      	mov	r1, r3
    1c72:	4816      	ldr	r0, [pc, #88]	; (1ccc <main+0x1840>)
    1c74:	f005 fdfe 	bl	7874 <printf>
    1c78:	4815      	ldr	r0, [pc, #84]	; (1cd0 <main+0x1844>)
    1c7a:	f005 fdfb 	bl	7874 <printf>
    1c7e:	edd7 7a00 	vldr	s15, [r7]
    1c82:	ee77 7aa7 	vadd.f32	s15, s15, s15
    1c86:	edc7 7a00 	vstr	s15, [r7]
    1c8a:	68fb      	ldr	r3, [r7, #12]
    1c8c:	3301      	adds	r3, #1
    1c8e:	60fb      	str	r3, [r7, #12]
    1c90:	68fb      	ldr	r3, [r7, #12]
    1c92:	2b07      	cmp	r3, #7
    1c94:	ddce      	ble.n	1c34 <main+0x17a8>
    1c96:	4806      	ldr	r0, [pc, #24]	; (1cb0 <main+0x1824>)
    1c98:	f005 fdec 	bl	7874 <printf>
    1c9c:	4804      	ldr	r0, [pc, #16]	; (1cb0 <main+0x1824>)
    1c9e:	f005 fde9 	bl	7874 <printf>
    1ca2:	e7fe      	b.n	1ca2 <main+0x1816>
    1ca4:	00009ab4 	.word	0x00009ab4
    1ca8:	00009ad8 	.word	0x00009ad8
    1cac:	00009af4 	.word	0x00009af4
    1cb0:	00009a04 	.word	0x00009a04
    1cb4:	00009b10 	.word	0x00009b10
    1cb8:	20002370 	.word	0x20002370
    1cbc:	3dcccccd 	.word	0x3dcccccd
    1cc0:	3d4ccccd 	.word	0x3d4ccccd
    1cc4:	40008000 	.word	0x40008000
    1cc8:	200023a4 	.word	0x200023a4
    1ccc:	00009a20 	.word	0x00009a20
    1cd0:	00009a24 	.word	0x00009a24

00001cd4 <InitGoertzel_f32>:
    1cd4:	b580      	push	{r7, lr}
    1cd6:	b086      	sub	sp, #24
    1cd8:	af00      	add	r7, sp, #0
    1cda:	60f8      	str	r0, [r7, #12]
    1cdc:	60b9      	str	r1, [r7, #8]
    1cde:	607a      	str	r2, [r7, #4]
    1ce0:	603b      	str	r3, [r7, #0]
    1ce2:	edd7 6a02 	vldr	s13, [r7, #8]
    1ce6:	ed97 7a01 	vldr	s14, [r7, #4]
    1cea:	eec6 7a87 	vdiv.f32	s15, s13, s14
    1cee:	ee77 7aa7 	vadd.f32	s15, s15, s15
    1cf2:	edc7 7a05 	vstr	s15, [r7, #20]
    1cf6:	6978      	ldr	r0, [r7, #20]
    1cf8:	f005 f862 	bl	6dc0 <cosf>
    1cfc:	4602      	mov	r2, r0
    1cfe:	68fb      	ldr	r3, [r7, #12]
    1d00:	601a      	str	r2, [r3, #0]
    1d02:	6978      	ldr	r0, [r7, #20]
    1d04:	f005 f87a 	bl	6dfc <sinf>
    1d08:	4603      	mov	r3, r0
    1d0a:	ee07 3a90 	vmov	s15, r3
    1d0e:	eef1 7a67 	vneg.f32	s15, s15
    1d12:	68fb      	ldr	r3, [r7, #12]
    1d14:	edc3 7a01 	vstr	s15, [r3, #4]
    1d18:	68fb      	ldr	r3, [r7, #12]
    1d1a:	687a      	ldr	r2, [r7, #4]
    1d1c:	60da      	str	r2, [r3, #12]
    1d1e:	68fb      	ldr	r3, [r7, #12]
    1d20:	683a      	ldr	r2, [r7, #0]
    1d22:	609a      	str	r2, [r3, #8]
    1d24:	bf00      	nop
    1d26:	3718      	adds	r7, #24
    1d28:	46bd      	mov	sp, r7
    1d2a:	bd80      	pop	{r7, pc}

00001d2c <ProcessGoertzel_f32_Power>:
    1d2c:	b480      	push	{r7}
    1d2e:	b089      	sub	sp, #36	; 0x24
    1d30:	af00      	add	r7, sp, #0
    1d32:	6078      	str	r0, [r7, #4]
    1d34:	6039      	str	r1, [r7, #0]
    1d36:	f04f 0300 	mov.w	r3, #0
    1d3a:	613b      	str	r3, [r7, #16]
    1d3c:	f04f 0300 	mov.w	r3, #0
    1d40:	61fb      	str	r3, [r7, #28]
    1d42:	f04f 0300 	mov.w	r3, #0
    1d46:	61bb      	str	r3, [r7, #24]
    1d48:	2300      	movs	r3, #0
    1d4a:	617b      	str	r3, [r7, #20]
    1d4c:	e01d      	b.n	1d8a <ProcessGoertzel_f32_Power+0x5e>
    1d4e:	697b      	ldr	r3, [r7, #20]
    1d50:	009b      	lsls	r3, r3, #2
    1d52:	683a      	ldr	r2, [r7, #0]
    1d54:	4413      	add	r3, r2
    1d56:	ed93 7a00 	vldr	s14, [r3]
    1d5a:	687b      	ldr	r3, [r7, #4]
    1d5c:	edd3 7a00 	vldr	s15, [r3]
    1d60:	ee77 6aa7 	vadd.f32	s13, s15, s15
    1d64:	edd7 7a07 	vldr	s15, [r7, #28]
    1d68:	ee66 7aa7 	vmul.f32	s15, s13, s15
    1d6c:	ee37 7a27 	vadd.f32	s14, s14, s15
    1d70:	edd7 7a06 	vldr	s15, [r7, #24]
    1d74:	ee77 7a67 	vsub.f32	s15, s14, s15
    1d78:	edc7 7a04 	vstr	s15, [r7, #16]
    1d7c:	69fb      	ldr	r3, [r7, #28]
    1d7e:	61bb      	str	r3, [r7, #24]
    1d80:	693b      	ldr	r3, [r7, #16]
    1d82:	61fb      	str	r3, [r7, #28]
    1d84:	697b      	ldr	r3, [r7, #20]
    1d86:	3301      	adds	r3, #1
    1d88:	617b      	str	r3, [r7, #20]
    1d8a:	687b      	ldr	r3, [r7, #4]
    1d8c:	689a      	ldr	r2, [r3, #8]
    1d8e:	697b      	ldr	r3, [r7, #20]
    1d90:	429a      	cmp	r2, r3
    1d92:	d8dc      	bhi.n	1d4e <ProcessGoertzel_f32_Power+0x22>
    1d94:	687b      	ldr	r3, [r7, #4]
    1d96:	ed93 7a00 	vldr	s14, [r3]
    1d9a:	edd7 7a07 	vldr	s15, [r7, #28]
    1d9e:	ee27 7a27 	vmul.f32	s14, s14, s15
    1da2:	edd7 7a06 	vldr	s15, [r7, #24]
    1da6:	ee77 7a67 	vsub.f32	s15, s14, s15
    1daa:	edc7 7a03 	vstr	s15, [r7, #12]
    1dae:	687b      	ldr	r3, [r7, #4]
    1db0:	ed93 7a01 	vldr	s14, [r3, #4]
    1db4:	edd7 7a07 	vldr	s15, [r7, #28]
    1db8:	ee67 7a27 	vmul.f32	s15, s14, s15
    1dbc:	edc7 7a02 	vstr	s15, [r7, #8]
    1dc0:	ed97 7a03 	vldr	s14, [r7, #12]
    1dc4:	edd7 7a03 	vldr	s15, [r7, #12]
    1dc8:	ee27 7a27 	vmul.f32	s14, s14, s15
    1dcc:	edd7 6a02 	vldr	s13, [r7, #8]
    1dd0:	edd7 7a02 	vldr	s15, [r7, #8]
    1dd4:	ee66 7aa7 	vmul.f32	s15, s13, s15
    1dd8:	ee77 7a27 	vadd.f32	s15, s14, s15
    1ddc:	ee17 3a90 	vmov	r3, s15
    1de0:	4618      	mov	r0, r3
    1de2:	3724      	adds	r7, #36	; 0x24
    1de4:	46bd      	mov	sp, r7
    1de6:	f85d 7b04 	ldr.w	r7, [sp], #4
    1dea:	4770      	bx	lr

00001dec <SystemInit>:
    1dec:	b580      	push	{r7, lr}
    1dee:	af00      	add	r7, sp, #0
    1df0:	4b04      	ldr	r3, [pc, #16]	; (1e04 <SystemInit+0x18>)
    1df2:	4a05      	ldr	r2, [pc, #20]	; (1e08 <SystemInit+0x1c>)
    1df4:	609a      	str	r2, [r3, #8]
    1df6:	f003 ffe1 	bl	5dbc <fpuInit>
    1dfa:	f000 f95d 	bl	20b8 <Board_SystemInit>
    1dfe:	bf00      	nop
    1e00:	bd80      	pop	{r7, pc}
    1e02:	bf00      	nop
    1e04:	e000ed00 	.word	0xe000ed00
    1e08:	00000000 	.word	0x00000000

00001e0c <Board_LED_Init>:
    1e0c:	b4f0      	push	{r4, r5, r6, r7}
    1e0e:	2200      	movs	r2, #0
    1e10:	e014      	b.n	1e3c <Board_LED_Init+0x30>
    1e12:	490c      	ldr	r1, [pc, #48]	; (1e44 <Board_LED_Init+0x38>)
    1e14:	f811 5012 	ldrb.w	r5, [r1, r2, lsl #1]
    1e18:	eb01 0142 	add.w	r1, r1, r2, lsl #1
    1e1c:	7848      	ldrb	r0, [r1, #1]
    1e1e:	4b0a      	ldr	r3, [pc, #40]	; (1e48 <Board_LED_Init+0x3c>)
    1e20:	f505 6600 	add.w	r6, r5, #2048	; 0x800
    1e24:	f853 7026 	ldr.w	r7, [r3, r6, lsl #2]
    1e28:	2401      	movs	r4, #1
    1e2a:	fa04 f100 	lsl.w	r1, r4, r0
    1e2e:	4339      	orrs	r1, r7
    1e30:	f843 1026 	str.w	r1, [r3, r6, lsl #2]
    1e34:	eb03 1345 	add.w	r3, r3, r5, lsl #5
    1e38:	541c      	strb	r4, [r3, r0]
    1e3a:	4422      	add	r2, r4
    1e3c:	2a02      	cmp	r2, #2
    1e3e:	d9e8      	bls.n	1e12 <Board_LED_Init+0x6>
    1e40:	bcf0      	pop	{r4, r5, r6, r7}
    1e42:	4770      	bx	lr
    1e44:	00009b2c 	.word	0x00009b2c
    1e48:	4008c000 	.word	0x4008c000

00001e4c <Board_TestIO_Init>:
    1e4c:	b470      	push	{r4, r5, r6}
    1e4e:	2300      	movs	r3, #0
    1e50:	e014      	b.n	1e7c <Board_TestIO_Init+0x30>
    1e52:	490c      	ldr	r1, [pc, #48]	; (1e84 <Board_TestIO_Init+0x38>)
    1e54:	f811 4013 	ldrb.w	r4, [r1, r3, lsl #1]
    1e58:	eb01 0143 	add.w	r1, r1, r3, lsl #1
    1e5c:	7848      	ldrb	r0, [r1, #1]
    1e5e:	4a0a      	ldr	r2, [pc, #40]	; (1e88 <Board_TestIO_Init+0x3c>)
    1e60:	f504 6500 	add.w	r5, r4, #2048	; 0x800
    1e64:	f852 6025 	ldr.w	r6, [r2, r5, lsl #2]
    1e68:	2101      	movs	r1, #1
    1e6a:	4081      	lsls	r1, r0
    1e6c:	4331      	orrs	r1, r6
    1e6e:	f842 1025 	str.w	r1, [r2, r5, lsl #2]
    1e72:	eb02 1244 	add.w	r2, r2, r4, lsl #5
    1e76:	2100      	movs	r1, #0
    1e78:	5411      	strb	r1, [r2, r0]
    1e7a:	3301      	adds	r3, #1
    1e7c:	2b01      	cmp	r3, #1
    1e7e:	d9e8      	bls.n	1e52 <Board_TestIO_Init+0x6>
    1e80:	bc70      	pop	{r4, r5, r6}
    1e82:	4770      	bx	lr
    1e84:	00009b20 	.word	0x00009b20
    1e88:	4008c000 	.word	0x4008c000

00001e8c <Board_Button_Init>:
    1e8c:	b430      	push	{r4, r5}
    1e8e:	2300      	movs	r3, #0
    1e90:	e011      	b.n	1eb6 <Board_Button_Init+0x2a>
    1e92:	490b      	ldr	r1, [pc, #44]	; (1ec0 <Board_Button_Init+0x34>)
    1e94:	f811 2013 	ldrb.w	r2, [r1, r3, lsl #1]
    1e98:	eb01 0143 	add.w	r1, r1, r3, lsl #1
    1e9c:	784d      	ldrb	r5, [r1, #1]
    1e9e:	4c09      	ldr	r4, [pc, #36]	; (1ec4 <Board_Button_Init+0x38>)
    1ea0:	f502 6200 	add.w	r2, r2, #2048	; 0x800
    1ea4:	f854 0022 	ldr.w	r0, [r4, r2, lsl #2]
    1ea8:	2101      	movs	r1, #1
    1eaa:	40a9      	lsls	r1, r5
    1eac:	ea20 0101 	bic.w	r1, r0, r1
    1eb0:	f844 1022 	str.w	r1, [r4, r2, lsl #2]
    1eb4:	3301      	adds	r3, #1
    1eb6:	2b02      	cmp	r3, #2
    1eb8:	d9eb      	bls.n	1e92 <Board_Button_Init+0x6>
    1eba:	bc30      	pop	{r4, r5}
    1ebc:	4770      	bx	lr
    1ebe:	bf00      	nop
    1ec0:	00009b24 	.word	0x00009b24
    1ec4:	4008c000 	.word	0x4008c000

00001ec8 <Board_UART_Init>:
    1ec8:	b510      	push	{r4, lr}
    1eca:	4c0c      	ldr	r4, [pc, #48]	; (1efc <Board_UART_Init+0x34>)
    1ecc:	4620      	mov	r0, r4
    1ece:	f004 fd65 	bl	699c <Chip_UART_Init>
    1ed2:	f44f 31e1 	mov.w	r1, #115200	; 0x1c200
    1ed6:	4620      	mov	r0, r4
    1ed8:	f004 fddc 	bl	6a94 <Chip_UART_SetBaud>
    1edc:	6822      	ldr	r2, [r4, #0]
    1ede:	4b08      	ldr	r3, [pc, #32]	; (1f00 <Board_UART_Init+0x38>)
    1ee0:	4013      	ands	r3, r2
    1ee2:	f043 0304 	orr.w	r3, r3, #4
    1ee6:	6023      	str	r3, [r4, #0]
    1ee8:	6823      	ldr	r3, [r4, #0]
    1eea:	f043 0301 	orr.w	r3, r3, #1
    1eee:	6023      	str	r3, [r4, #0]
    1ef0:	6863      	ldr	r3, [r4, #4]
    1ef2:	f023 0340 	bic.w	r3, r3, #64	; 0x40
    1ef6:	6063      	str	r3, [r4, #4]
    1ef8:	bd10      	pop	{r4, pc}
    1efa:	bf00      	nop
    1efc:	40086000 	.word	0x40086000
    1f00:	00fddbfd 	.word	0x00fddbfd

00001f04 <Board_LED_Set>:
    1f04:	2802      	cmp	r0, #2
    1f06:	d80d      	bhi.n	1f24 <Board_LED_Set+0x20>
    1f08:	4a07      	ldr	r2, [pc, #28]	; (1f28 <Board_LED_Set+0x24>)
    1f0a:	f812 3010 	ldrb.w	r3, [r2, r0, lsl #1]
    1f0e:	eb02 0040 	add.w	r0, r2, r0, lsl #1
    1f12:	7842      	ldrb	r2, [r0, #1]
    1f14:	f081 0101 	eor.w	r1, r1, #1
    1f18:	015b      	lsls	r3, r3, #5
    1f1a:	f103 4380 	add.w	r3, r3, #1073741824	; 0x40000000
    1f1e:	f503 230c 	add.w	r3, r3, #573440	; 0x8c000
    1f22:	5499      	strb	r1, [r3, r2]
    1f24:	4770      	bx	lr
    1f26:	bf00      	nop
    1f28:	00009b2c 	.word	0x00009b2c

00001f2c <Board_UARTPutChar>:
    1f2c:	b500      	push	{lr}
    1f2e:	b083      	sub	sp, #12
    1f30:	a902      	add	r1, sp, #8
    1f32:	f801 0d01 	strb.w	r0, [r1, #-1]!
    1f36:	2201      	movs	r2, #1
    1f38:	4802      	ldr	r0, [pc, #8]	; (1f44 <Board_UARTPutChar+0x18>)
    1f3a:	f004 fd71 	bl	6a20 <Chip_UART_SendBlocking>
    1f3e:	b003      	add	sp, #12
    1f40:	f85d fb04 	ldr.w	pc, [sp], #4
    1f44:	40086000 	.word	0x40086000

00001f48 <__sys_write>:
    1f48:	b570      	push	{r4, r5, r6, lr}
    1f4a:	460e      	mov	r6, r1
    1f4c:	4615      	mov	r5, r2
    1f4e:	2400      	movs	r4, #0
    1f50:	e003      	b.n	1f5a <__sys_write+0x12>
    1f52:	5d30      	ldrb	r0, [r6, r4]
    1f54:	f7ff ffea 	bl	1f2c <Board_UARTPutChar>
    1f58:	3401      	adds	r4, #1
    1f5a:	42ac      	cmp	r4, r5
    1f5c:	d3f9      	bcc.n	1f52 <__sys_write+0xa>
    1f5e:	4628      	mov	r0, r5
    1f60:	bd70      	pop	{r4, r5, r6, pc}
    1f62:	bf00      	nop

00001f64 <Board_Debug_Init>:
    1f64:	b508      	push	{r3, lr}
    1f66:	f7ff ffaf 	bl	1ec8 <Board_UART_Init>
    1f6a:	bd08      	pop	{r3, pc}

00001f6c <Board_Init>:
    1f6c:	b508      	push	{r3, lr}
    1f6e:	200b      	movs	r0, #11
    1f70:	f003 fe68 	bl	5c44 <Chip_Clock_EnablePeriphClock>
    1f74:	200d      	movs	r0, #13
    1f76:	f003 fe65 	bl	5c44 <Chip_Clock_EnablePeriphClock>
    1f7a:	f7ff fff3 	bl	1f64 <Board_Debug_Init>
    1f7e:	200e      	movs	r0, #14
    1f80:	f003 fe60 	bl	5c44 <Chip_Clock_EnablePeriphClock>
    1f84:	200f      	movs	r0, #15
    1f86:	f003 fe5d 	bl	5c44 <Chip_Clock_EnablePeriphClock>
    1f8a:	f04f 4380 	mov.w	r3, #1073741824	; 0x40000000
    1f8e:	f44f 4280 	mov.w	r2, #16384	; 0x4000
    1f92:	f8c3 2120 	str.w	r2, [r3, #288]	; 0x120
    1f96:	bf00      	nop
    1f98:	bf00      	nop
    1f9a:	bf00      	nop
    1f9c:	bf00      	nop
    1f9e:	f8c3 2140 	str.w	r2, [r3, #320]	; 0x140
    1fa2:	f44f 4200 	mov.w	r2, #32768	; 0x8000
    1fa6:	f8c3 2120 	str.w	r2, [r3, #288]	; 0x120
    1faa:	bf00      	nop
    1fac:	bf00      	nop
    1fae:	bf00      	nop
    1fb0:	bf00      	nop
    1fb2:	f8c3 2140 	str.w	r2, [r3, #320]	; 0x140
    1fb6:	f7ff ff29 	bl	1e0c <Board_LED_Init>
    1fba:	f7ff ff47 	bl	1e4c <Board_TestIO_Init>
    1fbe:	f7ff ff65 	bl	1e8c <Board_Button_Init>
    1fc2:	bd08      	pop	{r3, pc}

00001fc4 <ConfigureBridgeSSEL>:
    1fc4:	b410      	push	{r4}
    1fc6:	b083      	sub	sp, #12
    1fc8:	2300      	movs	r3, #0
    1fca:	f88d 3004 	strb.w	r3, [sp, #4]
    1fce:	220e      	movs	r2, #14
    1fd0:	f88d 2005 	strb.w	r2, [sp, #5]
    1fd4:	2280      	movs	r2, #128	; 0x80
    1fd6:	f8ad 2006 	strh.w	r2, [sp, #6]
    1fda:	e00c      	b.n	1ff6 <ConfigureBridgeSSEL+0x32>
    1fdc:	aa01      	add	r2, sp, #4
    1fde:	eb02 0183 	add.w	r1, r2, r3, lsl #2
    1fe2:	f812 4023 	ldrb.w	r4, [r2, r3, lsl #2]
    1fe6:	784a      	ldrb	r2, [r1, #1]
    1fe8:	8848      	ldrh	r0, [r1, #2]
    1fea:	eb02 1244 	add.w	r2, r2, r4, lsl #5
    1fee:	4918      	ldr	r1, [pc, #96]	; (2050 <ConfigureBridgeSSEL+0x8c>)
    1ff0:	f841 0022 	str.w	r0, [r1, r2, lsl #2]
    1ff4:	3301      	adds	r3, #1
    1ff6:	2b00      	cmp	r3, #0
    1ff8:	d0f0      	beq.n	1fdc <ConfigureBridgeSSEL+0x18>
    1ffa:	4a16      	ldr	r2, [pc, #88]	; (2054 <ConfigureBridgeSSEL+0x90>)
    1ffc:	f502 5300 	add.w	r3, r2, #8192	; 0x2000
    2000:	6819      	ldr	r1, [r3, #0]
    2002:	f441 4180 	orr.w	r1, r1, #16384	; 0x4000
    2006:	6019      	str	r1, [r3, #0]
    2008:	2100      	movs	r1, #0
    200a:	7391      	strb	r1, [r2, #14]
    200c:	6819      	ldr	r1, [r3, #0]
    200e:	f421 4180 	bic.w	r1, r1, #16384	; 0x4000
    2012:	6019      	str	r1, [r3, #0]
    2014:	7b93      	ldrb	r3, [r2, #14]
    2016:	f013 0fff 	tst.w	r3, #255	; 0xff
    201a:	d101      	bne.n	2020 <ConfigureBridgeSSEL+0x5c>
    201c:	2389      	movs	r3, #137	; 0x89
    201e:	e000      	b.n	2022 <ConfigureBridgeSSEL+0x5e>
    2020:	2381      	movs	r3, #129	; 0x81
    2022:	f8ad 3006 	strh.w	r3, [sp, #6]
    2026:	2300      	movs	r3, #0
    2028:	e00c      	b.n	2044 <ConfigureBridgeSSEL+0x80>
    202a:	aa01      	add	r2, sp, #4
    202c:	eb02 0183 	add.w	r1, r2, r3, lsl #2
    2030:	f812 4023 	ldrb.w	r4, [r2, r3, lsl #2]
    2034:	784a      	ldrb	r2, [r1, #1]
    2036:	8848      	ldrh	r0, [r1, #2]
    2038:	eb02 1244 	add.w	r2, r2, r4, lsl #5
    203c:	4904      	ldr	r1, [pc, #16]	; (2050 <ConfigureBridgeSSEL+0x8c>)
    203e:	f841 0022 	str.w	r0, [r1, r2, lsl #2]
    2042:	3301      	adds	r3, #1
    2044:	2b00      	cmp	r3, #0
    2046:	d0f0      	beq.n	202a <ConfigureBridgeSSEL+0x66>
    2048:	b003      	add	sp, #12
    204a:	f85d 4b04 	ldr.w	r4, [sp], #4
    204e:	4770      	bx	lr
    2050:	40001000 	.word	0x40001000
    2054:	4008c000 	.word	0x4008c000

00002058 <Board_SetupMuxing>:
    2058:	b510      	push	{r4, lr}
    205a:	200d      	movs	r0, #13
    205c:	f003 fdf2 	bl	5c44 <Chip_Clock_EnablePeriphClock>
    2060:	2300      	movs	r3, #0
    2062:	e00c      	b.n	207e <Board_SetupMuxing+0x26>
    2064:	4a08      	ldr	r2, [pc, #32]	; (2088 <Board_SetupMuxing+0x30>)
    2066:	eb02 0183 	add.w	r1, r2, r3, lsl #2
    206a:	f812 4023 	ldrb.w	r4, [r2, r3, lsl #2]
    206e:	784a      	ldrb	r2, [r1, #1]
    2070:	8848      	ldrh	r0, [r1, #2]
    2072:	eb02 1244 	add.w	r2, r2, r4, lsl #5
    2076:	4905      	ldr	r1, [pc, #20]	; (208c <Board_SetupMuxing+0x34>)
    2078:	f841 0022 	str.w	r0, [r1, r2, lsl #2]
    207c:	3301      	adds	r3, #1
    207e:	2b0b      	cmp	r3, #11
    2080:	d9f0      	bls.n	2064 <Board_SetupMuxing+0xc>
    2082:	f7ff ff9f 	bl	1fc4 <ConfigureBridgeSSEL>
    2086:	bd10      	pop	{r4, pc}
    2088:	00009b34 	.word	0x00009b34
    208c:	40001000 	.word	0x40001000

00002090 <Board_SetupClocking>:
    2090:	b510      	push	{r4, lr}
    2092:	4c08      	ldr	r4, [pc, #32]	; (20b4 <Board_SetupClocking+0x24>)
    2094:	4620      	mov	r0, r4
    2096:	f000 f845 	bl	2124 <Chip_POWER_SetVoltage>
    209a:	4620      	mov	r0, r4
    209c:	f004 fa32 	bl	6504 <Chip_SetupFROClocking>
    20a0:	f04f 4380 	mov.w	r3, #1073741824	; 0x40000000
    20a4:	2200      	movs	r2, #0
    20a6:	f8c3 2380 	str.w	r2, [r3, #896]	; 0x380
    20aa:	f8c3 2288 	str.w	r2, [r3, #648]	; 0x288
    20ae:	f8c3 2384 	str.w	r2, [r3, #900]	; 0x384
    20b2:	bd10      	pop	{r4, pc}
    20b4:	02dc6c00 	.word	0x02dc6c00

000020b8 <Board_SystemInit>:
    20b8:	b508      	push	{r3, lr}
    20ba:	f44f 4060 	mov.w	r0, #57344	; 0xe000
    20be:	f004 f93f 	bl	6340 <Chip_SYSCON_PowerUp>
    20c2:	2003      	movs	r0, #3
    20c4:	f003 fdbe 	bl	5c44 <Chip_Clock_EnablePeriphClock>
    20c8:	2004      	movs	r0, #4
    20ca:	f003 fdbb 	bl	5c44 <Chip_Clock_EnablePeriphClock>
    20ce:	f7ff ffc3 	bl	2058 <Board_SetupMuxing>
    20d2:	f7ff ffdd 	bl	2090 <Board_SetupClocking>
    20d6:	bd08      	pop	{r3, pc}

000020d8 <Chip_POWER_SetFROHFRate>:
    20d8:	42984b0e 	.word	0x42984b0e
    20dc:	4b0ed108 	.word	0x4b0ed108
    20e0:	f023681b 	.word	0xf023681b
    20e4:	f423437c 	.word	0xf423437c
    20e8:	f0434340 	.word	0xf0434340
    20ec:	e00c4340 	.word	0xe00c4340
    20f0:	42984b0a 	.word	0x42984b0a
    20f4:	4b0ad10d 	.word	0x4b0ad10d
    20f8:	f023681b 	.word	0xf023681b
    20fc:	f423437c 	.word	0xf423437c
    2100:	f0434340 	.word	0xf0434340
    2104:	f4434340 	.word	0xf4434340
    2108:	f04f4380 	.word	0xf04f4380
    210c:	f8c24280 	.word	0xf8c24280
    2110:	47703500 	.word	0x47703500
    2114:	02dc6c00 	.word	0x02dc6c00
    2118:	01000444 	.word	0x01000444
    211c:	05b8d800 	.word	0x05b8d800
    2120:	01000430 	.word	0x01000430

00002124 <Chip_POWER_SetVoltage>:
    2124:	42984b33 	.word	0x42984b33
    2128:	d860b570 	.word	0xd860b570
    212c:	4380f04f 	.word	0x4380f04f
    2130:	f8c34a31 	.word	0xf8c34a31
    2134:	f8d32630 	.word	0xf8d32630
    2138:	4b305400 	.word	0x4b305400
    213c:	f4254298 	.word	0xf4254298
    2140:	d9224570 	.word	0xd9224570
    2144:	42984b2e 	.word	0x42984b2e
    2148:	f503d921 	.word	0xf503d921
    214c:	f5030337 	.word	0xf5030337
    2150:	429853d8 	.word	0x429853d8
    2154:	4b2bd91d 	.word	0x4b2bd91d
    2158:	d91c4298 	.word	0xd91c4298
    215c:	42984b2a 	.word	0x42984b2a
    2160:	f503d91b 	.word	0xf503d91b
    2164:	f5030337 	.word	0xf5030337
    2168:	429853d8 	.word	0x429853d8
    216c:	f503d917 	.word	0xf503d917
    2170:	f5030337 	.word	0xf5030337
    2174:	429853d8 	.word	0x429853d8
    2178:	4b24d913 	.word	0x4b24d913
    217c:	4c254a24 	.word	0x4c254a24
    2180:	bf9442a0 	.word	0xbf9442a0
    2184:	461c4614 	.word	0x461c4614
    2188:	4c23e00c 	.word	0x4c23e00c
    218c:	4c23e00a 	.word	0x4c23e00a
    2190:	4c23e008 	.word	0x4c23e008
    2194:	4c23e006 	.word	0x4c23e006
    2198:	4c23e004 	.word	0x4c23e004
    219c:	4c23e002 	.word	0x4c23e002
    21a0:	4c23e000 	.word	0x4c23e000
    21a4:	68334e23 	.word	0x68334e23
    21a8:	f004689b 	.word	0xf004689b
    21ac:	691b010f 	.word	0x691b010f
    21b0:	47982000 	.word	0x47982000
    21b4:	689b6833 	.word	0x689b6833
    21b8:	691b2001 	.word	0x691b2001
    21bc:	4798210b 	.word	0x4798210b
    21c0:	689b6833 	.word	0x689b6833
    21c4:	3103f3c4 	.word	0x3103f3c4
    21c8:	2002691b 	.word	0x2002691b
    21cc:	68334798 	.word	0x68334798
    21d0:	f3c4689b 	.word	0xf3c4689b
    21d4:	691b4183 	.word	0x691b4183
    21d8:	47982003 	.word	0x47982003
    21dc:	f04f0e24 	.word	0xf04f0e24
    21e0:	ea454380 	.word	0xea454380
    21e4:	f8c33404 	.word	0xf8c33404
    21e8:	20004400 	.word	0x20004400
    21ec:	4812bd70 	.word	0x4812bd70
    21f0:	bf00bd70 	.word	0xbf00bd70
    21f4:	05f5e4e7 	.word	0x05f5e4e7
    21f8:	38000004 	.word	0x38000004
    21fc:	00b71b00 	.word	0x00b71b00
    2200:	016e3600 	.word	0x016e3600
    2204:	02dc6c00 	.word	0x02dc6c00
    2208:	03938700 	.word	0x03938700
    220c:	0534d2cd 	.word	0x0534d2cd
    2210:	0530c2cc 	.word	0x0530c2cc
    2214:	05b8d800 	.word	0x05b8d800
    2218:	0018b2c6 	.word	0x0018b2c6
    221c:	011cb2c7 	.word	0x011cb2c7
    2220:	0220b2c8 	.word	0x0220b2c8
    2224:	0224b2c9 	.word	0x0224b2c9
    2228:	0328b2ca 	.word	0x0328b2ca
    222c:	032cb2cb 	.word	0x032cb2cb
    2230:	042cb2cb 	.word	0x042cb2cb
    2234:	03000200 	.word	0x03000200
    2238:	000b0002 	.word	0x000b0002

0000223c <arm_cfft_radix8by2_f32>:
    223c:	b580      	push	{r7, lr}
    223e:	b0a0      	sub	sp, #128	; 0x80
    2240:	af00      	add	r7, sp, #0
    2242:	6078      	str	r0, [r7, #4]
    2244:	6039      	str	r1, [r7, #0]
    2246:	687b      	ldr	r3, [r7, #4]
    2248:	881b      	ldrh	r3, [r3, #0]
    224a:	66bb      	str	r3, [r7, #104]	; 0x68
    224c:	6ebb      	ldr	r3, [r7, #104]	; 0x68
    224e:	009b      	lsls	r3, r3, #2
    2250:	683a      	ldr	r2, [r7, #0]
    2252:	4413      	add	r3, r2
    2254:	677b      	str	r3, [r7, #116]	; 0x74
    2256:	687b      	ldr	r3, [r7, #4]
    2258:	685b      	ldr	r3, [r3, #4]
    225a:	673b      	str	r3, [r7, #112]	; 0x70
    225c:	683b      	ldr	r3, [r7, #0]
    225e:	667b      	str	r3, [r7, #100]	; 0x64
    2260:	6f7b      	ldr	r3, [r7, #116]	; 0x74
    2262:	663b      	str	r3, [r7, #96]	; 0x60
    2264:	6ebb      	ldr	r3, [r7, #104]	; 0x68
    2266:	085b      	lsrs	r3, r3, #1
    2268:	66bb      	str	r3, [r7, #104]	; 0x68
    226a:	6ebb      	ldr	r3, [r7, #104]	; 0x68
    226c:	009b      	lsls	r3, r3, #2
    226e:	683a      	ldr	r2, [r7, #0]
    2270:	4413      	add	r3, r2
    2272:	67fb      	str	r3, [r7, #124]	; 0x7c
    2274:	6ebb      	ldr	r3, [r7, #104]	; 0x68
    2276:	009b      	lsls	r3, r3, #2
    2278:	6f7a      	ldr	r2, [r7, #116]	; 0x74
    227a:	4413      	add	r3, r2
    227c:	67bb      	str	r3, [r7, #120]	; 0x78
    227e:	6ebb      	ldr	r3, [r7, #104]	; 0x68
    2280:	089b      	lsrs	r3, r3, #2
    2282:	66fb      	str	r3, [r7, #108]	; 0x6c
    2284:	e1b6      	b.n	25f4 <arm_cfft_radix8by2_f32+0x3b8>
    2286:	683b      	ldr	r3, [r7, #0]
    2288:	681b      	ldr	r3, [r3, #0]
    228a:	63bb      	str	r3, [r7, #56]	; 0x38
    228c:	683b      	ldr	r3, [r7, #0]
    228e:	685b      	ldr	r3, [r3, #4]
    2290:	63fb      	str	r3, [r7, #60]	; 0x3c
    2292:	683b      	ldr	r3, [r7, #0]
    2294:	689b      	ldr	r3, [r3, #8]
    2296:	643b      	str	r3, [r7, #64]	; 0x40
    2298:	683b      	ldr	r3, [r7, #0]
    229a:	68db      	ldr	r3, [r3, #12]
    229c:	647b      	str	r3, [r7, #68]	; 0x44
    229e:	6f7b      	ldr	r3, [r7, #116]	; 0x74
    22a0:	681b      	ldr	r3, [r3, #0]
    22a2:	62bb      	str	r3, [r7, #40]	; 0x28
    22a4:	6f7b      	ldr	r3, [r7, #116]	; 0x74
    22a6:	685b      	ldr	r3, [r3, #4]
    22a8:	62fb      	str	r3, [r7, #44]	; 0x2c
    22aa:	6f7b      	ldr	r3, [r7, #116]	; 0x74
    22ac:	689b      	ldr	r3, [r3, #8]
    22ae:	633b      	str	r3, [r7, #48]	; 0x30
    22b0:	6f7b      	ldr	r3, [r7, #116]	; 0x74
    22b2:	68db      	ldr	r3, [r3, #12]
    22b4:	637b      	str	r3, [r7, #52]	; 0x34
    22b6:	6ffb      	ldr	r3, [r7, #124]	; 0x7c
    22b8:	681b      	ldr	r3, [r3, #0]
    22ba:	61bb      	str	r3, [r7, #24]
    22bc:	6ffb      	ldr	r3, [r7, #124]	; 0x7c
    22be:	685b      	ldr	r3, [r3, #4]
    22c0:	61fb      	str	r3, [r7, #28]
    22c2:	6ffb      	ldr	r3, [r7, #124]	; 0x7c
    22c4:	689b      	ldr	r3, [r3, #8]
    22c6:	623b      	str	r3, [r7, #32]
    22c8:	6ffb      	ldr	r3, [r7, #124]	; 0x7c
    22ca:	68db      	ldr	r3, [r3, #12]
    22cc:	627b      	str	r3, [r7, #36]	; 0x24
    22ce:	6fbb      	ldr	r3, [r7, #120]	; 0x78
    22d0:	681b      	ldr	r3, [r3, #0]
    22d2:	60bb      	str	r3, [r7, #8]
    22d4:	6fbb      	ldr	r3, [r7, #120]	; 0x78
    22d6:	685b      	ldr	r3, [r3, #4]
    22d8:	60fb      	str	r3, [r7, #12]
    22da:	6fbb      	ldr	r3, [r7, #120]	; 0x78
    22dc:	689b      	ldr	r3, [r3, #8]
    22de:	613b      	str	r3, [r7, #16]
    22e0:	6fbb      	ldr	r3, [r7, #120]	; 0x78
    22e2:	68db      	ldr	r3, [r3, #12]
    22e4:	617b      	str	r3, [r7, #20]
    22e6:	683b      	ldr	r3, [r7, #0]
    22e8:	1d1a      	adds	r2, r3, #4
    22ea:	603a      	str	r2, [r7, #0]
    22ec:	ed97 7a0e 	vldr	s14, [r7, #56]	; 0x38
    22f0:	edd7 7a0a 	vldr	s15, [r7, #40]	; 0x28
    22f4:	ee77 7a27 	vadd.f32	s15, s14, s15
    22f8:	edc3 7a00 	vstr	s15, [r3]
    22fc:	683b      	ldr	r3, [r7, #0]
    22fe:	1d1a      	adds	r2, r3, #4
    2300:	603a      	str	r2, [r7, #0]
    2302:	ed97 7a0f 	vldr	s14, [r7, #60]	; 0x3c
    2306:	edd7 7a0b 	vldr	s15, [r7, #44]	; 0x2c
    230a:	ee77 7a27 	vadd.f32	s15, s14, s15
    230e:	edc3 7a00 	vstr	s15, [r3]
    2312:	683b      	ldr	r3, [r7, #0]
    2314:	1d1a      	adds	r2, r3, #4
    2316:	603a      	str	r2, [r7, #0]
    2318:	ed97 7a10 	vldr	s14, [r7, #64]	; 0x40
    231c:	edd7 7a0c 	vldr	s15, [r7, #48]	; 0x30
    2320:	ee77 7a27 	vadd.f32	s15, s14, s15
    2324:	edc3 7a00 	vstr	s15, [r3]
    2328:	683b      	ldr	r3, [r7, #0]
    232a:	1d1a      	adds	r2, r3, #4
    232c:	603a      	str	r2, [r7, #0]
    232e:	ed97 7a11 	vldr	s14, [r7, #68]	; 0x44
    2332:	edd7 7a0d 	vldr	s15, [r7, #52]	; 0x34
    2336:	ee77 7a27 	vadd.f32	s15, s14, s15
    233a:	edc3 7a00 	vstr	s15, [r3]
    233e:	ed97 7a0e 	vldr	s14, [r7, #56]	; 0x38
    2342:	edd7 7a0a 	vldr	s15, [r7, #40]	; 0x28
    2346:	ee77 7a67 	vsub.f32	s15, s14, s15
    234a:	edc7 7a0a 	vstr	s15, [r7, #40]	; 0x28
    234e:	ed97 7a0f 	vldr	s14, [r7, #60]	; 0x3c
    2352:	edd7 7a0b 	vldr	s15, [r7, #44]	; 0x2c
    2356:	ee77 7a67 	vsub.f32	s15, s14, s15
    235a:	edc7 7a0b 	vstr	s15, [r7, #44]	; 0x2c
    235e:	ed97 7a10 	vldr	s14, [r7, #64]	; 0x40
    2362:	edd7 7a0c 	vldr	s15, [r7, #48]	; 0x30
    2366:	ee77 7a67 	vsub.f32	s15, s14, s15
    236a:	edc7 7a0c 	vstr	s15, [r7, #48]	; 0x30
    236e:	ed97 7a11 	vldr	s14, [r7, #68]	; 0x44
    2372:	edd7 7a0d 	vldr	s15, [r7, #52]	; 0x34
    2376:	ee77 7a67 	vsub.f32	s15, s14, s15
    237a:	edc7 7a0d 	vstr	s15, [r7, #52]	; 0x34
    237e:	6ffb      	ldr	r3, [r7, #124]	; 0x7c
    2380:	1d1a      	adds	r2, r3, #4
    2382:	67fa      	str	r2, [r7, #124]	; 0x7c
    2384:	ed97 7a06 	vldr	s14, [r7, #24]
    2388:	edd7 7a02 	vldr	s15, [r7, #8]
    238c:	ee77 7a27 	vadd.f32	s15, s14, s15
    2390:	edc3 7a00 	vstr	s15, [r3]
    2394:	6ffb      	ldr	r3, [r7, #124]	; 0x7c
    2396:	1d1a      	adds	r2, r3, #4
    2398:	67fa      	str	r2, [r7, #124]	; 0x7c
    239a:	ed97 7a07 	vldr	s14, [r7, #28]
    239e:	edd7 7a03 	vldr	s15, [r7, #12]
    23a2:	ee77 7a27 	vadd.f32	s15, s14, s15
    23a6:	edc3 7a00 	vstr	s15, [r3]
    23aa:	6ffb      	ldr	r3, [r7, #124]	; 0x7c
    23ac:	1d1a      	adds	r2, r3, #4
    23ae:	67fa      	str	r2, [r7, #124]	; 0x7c
    23b0:	ed97 7a08 	vldr	s14, [r7, #32]
    23b4:	edd7 7a04 	vldr	s15, [r7, #16]
    23b8:	ee77 7a27 	vadd.f32	s15, s14, s15
    23bc:	edc3 7a00 	vstr	s15, [r3]
    23c0:	6ffb      	ldr	r3, [r7, #124]	; 0x7c
    23c2:	1d1a      	adds	r2, r3, #4
    23c4:	67fa      	str	r2, [r7, #124]	; 0x7c
    23c6:	ed97 7a09 	vldr	s14, [r7, #36]	; 0x24
    23ca:	edd7 7a05 	vldr	s15, [r7, #20]
    23ce:	ee77 7a27 	vadd.f32	s15, s14, s15
    23d2:	edc3 7a00 	vstr	s15, [r3]
    23d6:	ed97 7a02 	vldr	s14, [r7, #8]
    23da:	edd7 7a06 	vldr	s15, [r7, #24]
    23de:	ee77 7a67 	vsub.f32	s15, s14, s15
    23e2:	edc7 7a02 	vstr	s15, [r7, #8]
    23e6:	ed97 7a03 	vldr	s14, [r7, #12]
    23ea:	edd7 7a07 	vldr	s15, [r7, #28]
    23ee:	ee77 7a67 	vsub.f32	s15, s14, s15
    23f2:	edc7 7a03 	vstr	s15, [r7, #12]
    23f6:	ed97 7a04 	vldr	s14, [r7, #16]
    23fa:	edd7 7a08 	vldr	s15, [r7, #32]
    23fe:	ee77 7a67 	vsub.f32	s15, s14, s15
    2402:	edc7 7a04 	vstr	s15, [r7, #16]
    2406:	ed97 7a05 	vldr	s14, [r7, #20]
    240a:	edd7 7a09 	vldr	s15, [r7, #36]	; 0x24
    240e:	ee77 7a67 	vsub.f32	s15, s14, s15
    2412:	edc7 7a05 	vstr	s15, [r7, #20]
    2416:	6f3b      	ldr	r3, [r7, #112]	; 0x70
    2418:	1d1a      	adds	r2, r3, #4
    241a:	673a      	str	r2, [r7, #112]	; 0x70
    241c:	681b      	ldr	r3, [r3, #0]
    241e:	65fb      	str	r3, [r7, #92]	; 0x5c
    2420:	6f3b      	ldr	r3, [r7, #112]	; 0x70
    2422:	1d1a      	adds	r2, r3, #4
    2424:	673a      	str	r2, [r7, #112]	; 0x70
    2426:	681b      	ldr	r3, [r3, #0]
    2428:	65bb      	str	r3, [r7, #88]	; 0x58
    242a:	ed97 7a0a 	vldr	s14, [r7, #40]	; 0x28
    242e:	edd7 7a17 	vldr	s15, [r7, #92]	; 0x5c
    2432:	ee67 7a27 	vmul.f32	s15, s14, s15
    2436:	edc7 7a15 	vstr	s15, [r7, #84]	; 0x54
    243a:	ed97 7a0b 	vldr	s14, [r7, #44]	; 0x2c
    243e:	edd7 7a16 	vldr	s15, [r7, #88]	; 0x58
    2442:	ee67 7a27 	vmul.f32	s15, s14, s15
    2446:	edc7 7a14 	vstr	s15, [r7, #80]	; 0x50
    244a:	ed97 7a0b 	vldr	s14, [r7, #44]	; 0x2c
    244e:	edd7 7a17 	vldr	s15, [r7, #92]	; 0x5c
    2452:	ee67 7a27 	vmul.f32	s15, s14, s15
    2456:	edc7 7a13 	vstr	s15, [r7, #76]	; 0x4c
    245a:	ed97 7a0a 	vldr	s14, [r7, #40]	; 0x28
    245e:	edd7 7a16 	vldr	s15, [r7, #88]	; 0x58
    2462:	ee67 7a27 	vmul.f32	s15, s14, s15
    2466:	edc7 7a12 	vstr	s15, [r7, #72]	; 0x48
    246a:	6f7b      	ldr	r3, [r7, #116]	; 0x74
    246c:	1d1a      	adds	r2, r3, #4
    246e:	677a      	str	r2, [r7, #116]	; 0x74
    2470:	ed97 7a15 	vldr	s14, [r7, #84]	; 0x54
    2474:	edd7 7a14 	vldr	s15, [r7, #80]	; 0x50
    2478:	ee77 7a27 	vadd.f32	s15, s14, s15
    247c:	edc3 7a00 	vstr	s15, [r3]
    2480:	6f7b      	ldr	r3, [r7, #116]	; 0x74
    2482:	1d1a      	adds	r2, r3, #4
    2484:	677a      	str	r2, [r7, #116]	; 0x74
    2486:	ed97 7a13 	vldr	s14, [r7, #76]	; 0x4c
    248a:	edd7 7a12 	vldr	s15, [r7, #72]	; 0x48
    248e:	ee77 7a67 	vsub.f32	s15, s14, s15
    2492:	edc3 7a00 	vstr	s15, [r3]
    2496:	ed97 7a02 	vldr	s14, [r7, #8]
    249a:	edd7 7a16 	vldr	s15, [r7, #88]	; 0x58
    249e:	ee67 7a27 	vmul.f32	s15, s14, s15
    24a2:	edc7 7a15 	vstr	s15, [r7, #84]	; 0x54
    24a6:	ed97 7a03 	vldr	s14, [r7, #12]
    24aa:	edd7 7a17 	vldr	s15, [r7, #92]	; 0x5c
    24ae:	ee67 7a27 	vmul.f32	s15, s14, s15
    24b2:	edc7 7a14 	vstr	s15, [r7, #80]	; 0x50
    24b6:	ed97 7a03 	vldr	s14, [r7, #12]
    24ba:	edd7 7a16 	vldr	s15, [r7, #88]	; 0x58
    24be:	ee67 7a27 	vmul.f32	s15, s14, s15
    24c2:	edc7 7a13 	vstr	s15, [r7, #76]	; 0x4c
    24c6:	ed97 7a02 	vldr	s14, [r7, #8]
    24ca:	edd7 7a17 	vldr	s15, [r7, #92]	; 0x5c
    24ce:	ee67 7a27 	vmul.f32	s15, s14, s15
    24d2:	edc7 7a12 	vstr	s15, [r7, #72]	; 0x48
    24d6:	6fbb      	ldr	r3, [r7, #120]	; 0x78
    24d8:	1d1a      	adds	r2, r3, #4
    24da:	67ba      	str	r2, [r7, #120]	; 0x78
    24dc:	ed97 7a15 	vldr	s14, [r7, #84]	; 0x54
    24e0:	edd7 7a14 	vldr	s15, [r7, #80]	; 0x50
    24e4:	ee77 7a67 	vsub.f32	s15, s14, s15
    24e8:	edc3 7a00 	vstr	s15, [r3]
    24ec:	6fbb      	ldr	r3, [r7, #120]	; 0x78
    24ee:	1d1a      	adds	r2, r3, #4
    24f0:	67ba      	str	r2, [r7, #120]	; 0x78
    24f2:	ed97 7a13 	vldr	s14, [r7, #76]	; 0x4c
    24f6:	edd7 7a12 	vldr	s15, [r7, #72]	; 0x48
    24fa:	ee77 7a27 	vadd.f32	s15, s14, s15
    24fe:	edc3 7a00 	vstr	s15, [r3]
    2502:	6f3b      	ldr	r3, [r7, #112]	; 0x70
    2504:	1d1a      	adds	r2, r3, #4
    2506:	673a      	str	r2, [r7, #112]	; 0x70
    2508:	681b      	ldr	r3, [r3, #0]
    250a:	65fb      	str	r3, [r7, #92]	; 0x5c
    250c:	6f3b      	ldr	r3, [r7, #112]	; 0x70
    250e:	1d1a      	adds	r2, r3, #4
    2510:	673a      	str	r2, [r7, #112]	; 0x70
    2512:	681b      	ldr	r3, [r3, #0]
    2514:	65bb      	str	r3, [r7, #88]	; 0x58
    2516:	ed97 7a0c 	vldr	s14, [r7, #48]	; 0x30
    251a:	edd7 7a17 	vldr	s15, [r7, #92]	; 0x5c
    251e:	ee67 7a27 	vmul.f32	s15, s14, s15
    2522:	edc7 7a15 	vstr	s15, [r7, #84]	; 0x54
    2526:	ed97 7a0d 	vldr	s14, [r7, #52]	; 0x34
    252a:	edd7 7a16 	vldr	s15, [r7, #88]	; 0x58
    252e:	ee67 7a27 	vmul.f32	s15, s14, s15
    2532:	edc7 7a14 	vstr	s15, [r7, #80]	; 0x50
    2536:	ed97 7a0d 	vldr	s14, [r7, #52]	; 0x34
    253a:	edd7 7a17 	vldr	s15, [r7, #92]	; 0x5c
    253e:	ee67 7a27 	vmul.f32	s15, s14, s15
    2542:	edc7 7a13 	vstr	s15, [r7, #76]	; 0x4c
    2546:	ed97 7a0c 	vldr	s14, [r7, #48]	; 0x30
    254a:	edd7 7a16 	vldr	s15, [r7, #88]	; 0x58
    254e:	ee67 7a27 	vmul.f32	s15, s14, s15
    2552:	edc7 7a12 	vstr	s15, [r7, #72]	; 0x48
    2556:	6f7b      	ldr	r3, [r7, #116]	; 0x74
    2558:	1d1a      	adds	r2, r3, #4
    255a:	677a      	str	r2, [r7, #116]	; 0x74
    255c:	ed97 7a15 	vldr	s14, [r7, #84]	; 0x54
    2560:	edd7 7a14 	vldr	s15, [r7, #80]	; 0x50
    2564:	ee77 7a27 	vadd.f32	s15, s14, s15
    2568:	edc3 7a00 	vstr	s15, [r3]
    256c:	6f7b      	ldr	r3, [r7, #116]	; 0x74
    256e:	1d1a      	adds	r2, r3, #4
    2570:	677a      	str	r2, [r7, #116]	; 0x74
    2572:	ed97 7a13 	vldr	s14, [r7, #76]	; 0x4c
    2576:	edd7 7a12 	vldr	s15, [r7, #72]	; 0x48
    257a:	ee77 7a67 	vsub.f32	s15, s14, s15
    257e:	edc3 7a00 	vstr	s15, [r3]
    2582:	ed97 7a04 	vldr	s14, [r7, #16]
    2586:	edd7 7a16 	vldr	s15, [r7, #88]	; 0x58
    258a:	ee67 7a27 	vmul.f32	s15, s14, s15
    258e:	edc7 7a15 	vstr	s15, [r7, #84]	; 0x54
    2592:	ed97 7a05 	vldr	s14, [r7, #20]
    2596:	edd7 7a17 	vldr	s15, [r7, #92]	; 0x5c
    259a:	ee67 7a27 	vmul.f32	s15, s14, s15
    259e:	edc7 7a14 	vstr	s15, [r7, #80]	; 0x50
    25a2:	ed97 7a05 	vldr	s14, [r7, #20]
    25a6:	edd7 7a16 	vldr	s15, [r7, #88]	; 0x58
    25aa:	ee67 7a27 	vmul.f32	s15, s14, s15
    25ae:	edc7 7a13 	vstr	s15, [r7, #76]	; 0x4c
    25b2:	ed97 7a04 	vldr	s14, [r7, #16]
    25b6:	edd7 7a17 	vldr	s15, [r7, #92]	; 0x5c
    25ba:	ee67 7a27 	vmul.f32	s15, s14, s15
    25be:	edc7 7a12 	vstr	s15, [r7, #72]	; 0x48
    25c2:	6fbb      	ldr	r3, [r7, #120]	; 0x78
    25c4:	1d1a      	adds	r2, r3, #4
    25c6:	67ba      	str	r2, [r7, #120]	; 0x78
    25c8:	ed97 7a15 	vldr	s14, [r7, #84]	; 0x54
    25cc:	edd7 7a14 	vldr	s15, [r7, #80]	; 0x50
    25d0:	ee77 7a67 	vsub.f32	s15, s14, s15
    25d4:	edc3 7a00 	vstr	s15, [r3]
    25d8:	6fbb      	ldr	r3, [r7, #120]	; 0x78
    25da:	1d1a      	adds	r2, r3, #4
    25dc:	67ba      	str	r2, [r7, #120]	; 0x78
    25de:	ed97 7a13 	vldr	s14, [r7, #76]	; 0x4c
    25e2:	edd7 7a12 	vldr	s15, [r7, #72]	; 0x48
    25e6:	ee77 7a27 	vadd.f32	s15, s14, s15
    25ea:	edc3 7a00 	vstr	s15, [r3]
    25ee:	6efb      	ldr	r3, [r7, #108]	; 0x6c
    25f0:	3b01      	subs	r3, #1
    25f2:	66fb      	str	r3, [r7, #108]	; 0x6c
    25f4:	6efb      	ldr	r3, [r7, #108]	; 0x6c
    25f6:	2b00      	cmp	r3, #0
    25f8:	f47f ae45 	bne.w	2286 <arm_cfft_radix8by2_f32+0x4a>
    25fc:	6ebb      	ldr	r3, [r7, #104]	; 0x68
    25fe:	b299      	uxth	r1, r3
    2600:	687b      	ldr	r3, [r7, #4]
    2602:	685a      	ldr	r2, [r3, #4]
    2604:	2302      	movs	r3, #2
    2606:	6e78      	ldr	r0, [r7, #100]	; 0x64
    2608:	f000 fedc 	bl	33c4 <arm_radix8_butterfly_f32>
    260c:	6ebb      	ldr	r3, [r7, #104]	; 0x68
    260e:	b299      	uxth	r1, r3
    2610:	687b      	ldr	r3, [r7, #4]
    2612:	685a      	ldr	r2, [r3, #4]
    2614:	2302      	movs	r3, #2
    2616:	6e38      	ldr	r0, [r7, #96]	; 0x60
    2618:	f000 fed4 	bl	33c4 <arm_radix8_butterfly_f32>
    261c:	bf00      	nop
    261e:	3780      	adds	r7, #128	; 0x80
    2620:	46bd      	mov	sp, r7
    2622:	bd80      	pop	{r7, pc}

00002624 <arm_cfft_radix8by4_f32>:
    2624:	b580      	push	{r7, lr}
    2626:	b0ac      	sub	sp, #176	; 0xb0
    2628:	af00      	add	r7, sp, #0
    262a:	6078      	str	r0, [r7, #4]
    262c:	6039      	str	r1, [r7, #0]
    262e:	687b      	ldr	r3, [r7, #4]
    2630:	881b      	ldrh	r3, [r3, #0]
    2632:	085b      	lsrs	r3, r3, #1
    2634:	b29b      	uxth	r3, r3
    2636:	f8c7 3080 	str.w	r3, [r7, #128]	; 0x80
    263a:	f8d7 3080 	ldr.w	r3, [r7, #128]	; 0x80
    263e:	009b      	lsls	r3, r3, #2
    2640:	683a      	ldr	r2, [r7, #0]
    2642:	4413      	add	r3, r2
    2644:	f8c7 3090 	str.w	r3, [r7, #144]	; 0x90
    2648:	f8d7 3080 	ldr.w	r3, [r7, #128]	; 0x80
    264c:	009b      	lsls	r3, r3, #2
    264e:	f8d7 2090 	ldr.w	r2, [r7, #144]	; 0x90
    2652:	4413      	add	r3, r2
    2654:	f8c7 308c 	str.w	r3, [r7, #140]	; 0x8c
    2658:	f8d7 3080 	ldr.w	r3, [r7, #128]	; 0x80
    265c:	009b      	lsls	r3, r3, #2
    265e:	f8d7 208c 	ldr.w	r2, [r7, #140]	; 0x8c
    2662:	4413      	add	r3, r2
    2664:	f8c7 3088 	str.w	r3, [r7, #136]	; 0x88
    2668:	683b      	ldr	r3, [r7, #0]
    266a:	67fb      	str	r3, [r7, #124]	; 0x7c
    266c:	f8d7 3090 	ldr.w	r3, [r7, #144]	; 0x90
    2670:	67bb      	str	r3, [r7, #120]	; 0x78
    2672:	f8d7 308c 	ldr.w	r3, [r7, #140]	; 0x8c
    2676:	677b      	str	r3, [r7, #116]	; 0x74
    2678:	f8d7 3088 	ldr.w	r3, [r7, #136]	; 0x88
    267c:	673b      	str	r3, [r7, #112]	; 0x70
    267e:	f8d7 3090 	ldr.w	r3, [r7, #144]	; 0x90
    2682:	3b04      	subs	r3, #4
    2684:	f8c7 30ac 	str.w	r3, [r7, #172]	; 0xac
    2688:	f8d7 308c 	ldr.w	r3, [r7, #140]	; 0x8c
    268c:	3b04      	subs	r3, #4
    268e:	f8c7 30a8 	str.w	r3, [r7, #168]	; 0xa8
    2692:	f8d7 3088 	ldr.w	r3, [r7, #136]	; 0x88
    2696:	3b04      	subs	r3, #4
    2698:	f8c7 30a4 	str.w	r3, [r7, #164]	; 0xa4
    269c:	f8d7 3080 	ldr.w	r3, [r7, #128]	; 0x80
    26a0:	009b      	lsls	r3, r3, #2
    26a2:	f8d7 20a4 	ldr.w	r2, [r7, #164]	; 0xa4
    26a6:	4413      	add	r3, r2
    26a8:	f8c7 30a0 	str.w	r3, [r7, #160]	; 0xa0
    26ac:	687b      	ldr	r3, [r7, #4]
    26ae:	685b      	ldr	r3, [r3, #4]
    26b0:	f8c7 3094 	str.w	r3, [r7, #148]	; 0x94
    26b4:	f8d7 3094 	ldr.w	r3, [r7, #148]	; 0x94
    26b8:	f8c7 3098 	str.w	r3, [r7, #152]	; 0x98
    26bc:	f8d7 3098 	ldr.w	r3, [r7, #152]	; 0x98
    26c0:	f8c7 309c 	str.w	r3, [r7, #156]	; 0x9c
    26c4:	f8d7 3080 	ldr.w	r3, [r7, #128]	; 0x80
    26c8:	085b      	lsrs	r3, r3, #1
    26ca:	f8c7 3080 	str.w	r3, [r7, #128]	; 0x80
    26ce:	2302      	movs	r3, #2
    26d0:	66fb      	str	r3, [r7, #108]	; 0x6c
    26d2:	2304      	movs	r3, #4
    26d4:	66bb      	str	r3, [r7, #104]	; 0x68
    26d6:	2306      	movs	r3, #6
    26d8:	667b      	str	r3, [r7, #100]	; 0x64
    26da:	683b      	ldr	r3, [r7, #0]
    26dc:	ed93 7a00 	vldr	s14, [r3]
    26e0:	f8d7 308c 	ldr.w	r3, [r7, #140]	; 0x8c
    26e4:	edd3 7a00 	vldr	s15, [r3]
    26e8:	ee77 7a27 	vadd.f32	s15, s14, s15
    26ec:	edc7 7a18 	vstr	s15, [r7, #96]	; 0x60
    26f0:	683b      	ldr	r3, [r7, #0]
    26f2:	ed93 7a00 	vldr	s14, [r3]
    26f6:	f8d7 308c 	ldr.w	r3, [r7, #140]	; 0x8c
    26fa:	edd3 7a00 	vldr	s15, [r3]
    26fe:	ee77 7a67 	vsub.f32	s15, s14, s15
    2702:	edc7 7a17 	vstr	s15, [r7, #92]	; 0x5c
    2706:	683b      	ldr	r3, [r7, #0]
    2708:	3304      	adds	r3, #4
    270a:	ed93 7a00 	vldr	s14, [r3]
    270e:	f8d7 308c 	ldr.w	r3, [r7, #140]	; 0x8c
    2712:	3304      	adds	r3, #4
    2714:	edd3 7a00 	vldr	s15, [r3]
    2718:	ee77 7a27 	vadd.f32	s15, s14, s15
    271c:	edc7 7a16 	vstr	s15, [r7, #88]	; 0x58
    2720:	683b      	ldr	r3, [r7, #0]
    2722:	3304      	adds	r3, #4
    2724:	ed93 7a00 	vldr	s14, [r3]
    2728:	f8d7 308c 	ldr.w	r3, [r7, #140]	; 0x8c
    272c:	3304      	adds	r3, #4
    272e:	edd3 7a00 	vldr	s15, [r3]
    2732:	ee77 7a67 	vsub.f32	s15, s14, s15
    2736:	edc7 7a15 	vstr	s15, [r7, #84]	; 0x54
    273a:	f8d7 3090 	ldr.w	r3, [r7, #144]	; 0x90
    273e:	3304      	adds	r3, #4
    2740:	ed93 7a00 	vldr	s14, [r3]
    2744:	edd7 7a17 	vldr	s15, [r7, #92]	; 0x5c
    2748:	ee37 7a27 	vadd.f32	s14, s14, s15
    274c:	f8d7 3088 	ldr.w	r3, [r7, #136]	; 0x88
    2750:	3304      	adds	r3, #4
    2752:	edd3 7a00 	vldr	s15, [r3]
    2756:	ee77 7a67 	vsub.f32	s15, s14, s15
    275a:	edc7 7a0b 	vstr	s15, [r7, #44]	; 0x2c
    275e:	f8d7 3090 	ldr.w	r3, [r7, #144]	; 0x90
    2762:	edd3 7a00 	vldr	s15, [r3]
    2766:	ed97 7a15 	vldr	s14, [r7, #84]	; 0x54
    276a:	ee37 7a67 	vsub.f32	s14, s14, s15
    276e:	f8d7 3088 	ldr.w	r3, [r7, #136]	; 0x88
    2772:	edd3 7a00 	vldr	s15, [r3]
    2776:	ee77 7a27 	vadd.f32	s15, s14, s15
    277a:	edc7 7a0c 	vstr	s15, [r7, #48]	; 0x30
    277e:	f8d7 3090 	ldr.w	r3, [r7, #144]	; 0x90
    2782:	edd3 7a00 	vldr	s15, [r3]
    2786:	ed97 7a18 	vldr	s14, [r7, #96]	; 0x60
    278a:	ee37 7a67 	vsub.f32	s14, s14, s15
    278e:	f8d7 3088 	ldr.w	r3, [r7, #136]	; 0x88
    2792:	edd3 7a00 	vldr	s15, [r3]
    2796:	ee77 7a67 	vsub.f32	s15, s14, s15
    279a:	edc7 7a07 	vstr	s15, [r7, #28]
    279e:	f8d7 3090 	ldr.w	r3, [r7, #144]	; 0x90
    27a2:	3304      	adds	r3, #4
    27a4:	edd3 7a00 	vldr	s15, [r3]
    27a8:	ed97 7a16 	vldr	s14, [r7, #88]	; 0x58
    27ac:	ee37 7a67 	vsub.f32	s14, s14, s15
    27b0:	f8d7 3088 	ldr.w	r3, [r7, #136]	; 0x88
    27b4:	3304      	adds	r3, #4
    27b6:	edd3 7a00 	vldr	s15, [r3]
    27ba:	ee77 7a67 	vsub.f32	s15, s14, s15
    27be:	edc7 7a08 	vstr	s15, [r7, #32]
    27c2:	f8d7 3090 	ldr.w	r3, [r7, #144]	; 0x90
    27c6:	3304      	adds	r3, #4
    27c8:	edd3 7a00 	vldr	s15, [r3]
    27cc:	ed97 7a17 	vldr	s14, [r7, #92]	; 0x5c
    27d0:	ee37 7a67 	vsub.f32	s14, s14, s15
    27d4:	f8d7 3088 	ldr.w	r3, [r7, #136]	; 0x88
    27d8:	3304      	adds	r3, #4
    27da:	edd3 7a00 	vldr	s15, [r3]
    27de:	ee77 7a27 	vadd.f32	s15, s14, s15
    27e2:	edc7 7a03 	vstr	s15, [r7, #12]
    27e6:	f8d7 3090 	ldr.w	r3, [r7, #144]	; 0x90
    27ea:	ed93 7a00 	vldr	s14, [r3]
    27ee:	edd7 7a15 	vldr	s15, [r7, #84]	; 0x54
    27f2:	ee37 7a27 	vadd.f32	s14, s14, s15
    27f6:	f8d7 3088 	ldr.w	r3, [r7, #136]	; 0x88
    27fa:	edd3 7a00 	vldr	s15, [r3]
    27fe:	ee77 7a67 	vsub.f32	s15, s14, s15
    2802:	edc7 7a04 	vstr	s15, [r7, #16]
    2806:	683b      	ldr	r3, [r7, #0]
    2808:	1d1a      	adds	r2, r3, #4
    280a:	603a      	str	r2, [r7, #0]
    280c:	f8d7 2090 	ldr.w	r2, [r7, #144]	; 0x90
    2810:	ed92 7a00 	vldr	s14, [r2]
    2814:	edd7 7a18 	vldr	s15, [r7, #96]	; 0x60
    2818:	ee37 7a27 	vadd.f32	s14, s14, s15
    281c:	f8d7 2088 	ldr.w	r2, [r7, #136]	; 0x88
    2820:	edd2 7a00 	vldr	s15, [r2]
    2824:	ee77 7a27 	vadd.f32	s15, s14, s15
    2828:	edc3 7a00 	vstr	s15, [r3]
    282c:	683b      	ldr	r3, [r7, #0]
    282e:	1d1a      	adds	r2, r3, #4
    2830:	603a      	str	r2, [r7, #0]
    2832:	f8d7 2090 	ldr.w	r2, [r7, #144]	; 0x90
    2836:	3204      	adds	r2, #4
    2838:	ed92 7a00 	vldr	s14, [r2]
    283c:	edd7 7a16 	vldr	s15, [r7, #88]	; 0x58
    2840:	ee37 7a27 	vadd.f32	s14, s14, s15
    2844:	f8d7 2088 	ldr.w	r2, [r7, #136]	; 0x88
    2848:	3204      	adds	r2, #4
    284a:	edd2 7a00 	vldr	s15, [r2]
    284e:	ee77 7a27 	vadd.f32	s15, s14, s15
    2852:	edc3 7a00 	vstr	s15, [r3]
    2856:	f8d7 3090 	ldr.w	r3, [r7, #144]	; 0x90
    285a:	1d1a      	adds	r2, r3, #4
    285c:	f8c7 2090 	str.w	r2, [r7, #144]	; 0x90
    2860:	6afa      	ldr	r2, [r7, #44]	; 0x2c
    2862:	601a      	str	r2, [r3, #0]
    2864:	f8d7 3090 	ldr.w	r3, [r7, #144]	; 0x90
    2868:	1d1a      	adds	r2, r3, #4
    286a:	f8c7 2090 	str.w	r2, [r7, #144]	; 0x90
    286e:	6b3a      	ldr	r2, [r7, #48]	; 0x30
    2870:	601a      	str	r2, [r3, #0]
    2872:	f8d7 308c 	ldr.w	r3, [r7, #140]	; 0x8c
    2876:	1d1a      	adds	r2, r3, #4
    2878:	f8c7 208c 	str.w	r2, [r7, #140]	; 0x8c
    287c:	69fa      	ldr	r2, [r7, #28]
    287e:	601a      	str	r2, [r3, #0]
    2880:	f8d7 308c 	ldr.w	r3, [r7, #140]	; 0x8c
    2884:	1d1a      	adds	r2, r3, #4
    2886:	f8c7 208c 	str.w	r2, [r7, #140]	; 0x8c
    288a:	6a3a      	ldr	r2, [r7, #32]
    288c:	601a      	str	r2, [r3, #0]
    288e:	f8d7 3088 	ldr.w	r3, [r7, #136]	; 0x88
    2892:	1d1a      	adds	r2, r3, #4
    2894:	f8c7 2088 	str.w	r2, [r7, #136]	; 0x88
    2898:	68fa      	ldr	r2, [r7, #12]
    289a:	601a      	str	r2, [r3, #0]
    289c:	f8d7 3088 	ldr.w	r3, [r7, #136]	; 0x88
    28a0:	1d1a      	adds	r2, r3, #4
    28a2:	f8c7 2088 	str.w	r2, [r7, #136]	; 0x88
    28a6:	693a      	ldr	r2, [r7, #16]
    28a8:	601a      	str	r2, [r3, #0]
    28aa:	6efb      	ldr	r3, [r7, #108]	; 0x6c
    28ac:	009b      	lsls	r3, r3, #2
    28ae:	f8d7 209c 	ldr.w	r2, [r7, #156]	; 0x9c
    28b2:	4413      	add	r3, r2
    28b4:	f8c7 309c 	str.w	r3, [r7, #156]	; 0x9c
    28b8:	6ebb      	ldr	r3, [r7, #104]	; 0x68
    28ba:	009b      	lsls	r3, r3, #2
    28bc:	f8d7 2098 	ldr.w	r2, [r7, #152]	; 0x98
    28c0:	4413      	add	r3, r2
    28c2:	f8c7 3098 	str.w	r3, [r7, #152]	; 0x98
    28c6:	6e7b      	ldr	r3, [r7, #100]	; 0x64
    28c8:	009b      	lsls	r3, r3, #2
    28ca:	f8d7 2094 	ldr.w	r2, [r7, #148]	; 0x94
    28ce:	4413      	add	r3, r2
    28d0:	f8c7 3094 	str.w	r3, [r7, #148]	; 0x94
    28d4:	f8d7 3080 	ldr.w	r3, [r7, #128]	; 0x80
    28d8:	3b02      	subs	r3, #2
    28da:	085b      	lsrs	r3, r3, #1
    28dc:	f8c7 3084 	str.w	r3, [r7, #132]	; 0x84
    28e0:	e31a      	b.n	2f18 <arm_cfft_radix8by4_f32+0x8f4>
    28e2:	683b      	ldr	r3, [r7, #0]
    28e4:	ed93 7a00 	vldr	s14, [r3]
    28e8:	f8d7 308c 	ldr.w	r3, [r7, #140]	; 0x8c
    28ec:	edd3 7a00 	vldr	s15, [r3]
    28f0:	ee77 7a27 	vadd.f32	s15, s14, s15
    28f4:	edc7 7a18 	vstr	s15, [r7, #96]	; 0x60
    28f8:	683b      	ldr	r3, [r7, #0]
    28fa:	ed93 7a00 	vldr	s14, [r3]
    28fe:	f8d7 308c 	ldr.w	r3, [r7, #140]	; 0x8c
    2902:	edd3 7a00 	vldr	s15, [r3]
    2906:	ee77 7a67 	vsub.f32	s15, s14, s15
    290a:	edc7 7a17 	vstr	s15, [r7, #92]	; 0x5c
    290e:	683b      	ldr	r3, [r7, #0]
    2910:	3304      	adds	r3, #4
    2912:	ed93 7a00 	vldr	s14, [r3]
    2916:	f8d7 308c 	ldr.w	r3, [r7, #140]	; 0x8c
    291a:	3304      	adds	r3, #4
    291c:	edd3 7a00 	vldr	s15, [r3]
    2920:	ee77 7a27 	vadd.f32	s15, s14, s15
    2924:	edc7 7a16 	vstr	s15, [r7, #88]	; 0x58
    2928:	683b      	ldr	r3, [r7, #0]
    292a:	3304      	adds	r3, #4
    292c:	ed93 7a00 	vldr	s14, [r3]
    2930:	f8d7 308c 	ldr.w	r3, [r7, #140]	; 0x8c
    2934:	3304      	adds	r3, #4
    2936:	edd3 7a00 	vldr	s15, [r3]
    293a:	ee77 7a67 	vsub.f32	s15, s14, s15
    293e:	edc7 7a15 	vstr	s15, [r7, #84]	; 0x54
    2942:	f8d7 3090 	ldr.w	r3, [r7, #144]	; 0x90
    2946:	3304      	adds	r3, #4
    2948:	ed93 7a00 	vldr	s14, [r3]
    294c:	edd7 7a17 	vldr	s15, [r7, #92]	; 0x5c
    2950:	ee37 7a27 	vadd.f32	s14, s14, s15
    2954:	f8d7 3088 	ldr.w	r3, [r7, #136]	; 0x88
    2958:	3304      	adds	r3, #4
    295a:	edd3 7a00 	vldr	s15, [r3]
    295e:	ee77 7a67 	vsub.f32	s15, s14, s15
    2962:	edc7 7a0b 	vstr	s15, [r7, #44]	; 0x2c
    2966:	f8d7 3090 	ldr.w	r3, [r7, #144]	; 0x90
    296a:	edd3 7a00 	vldr	s15, [r3]
    296e:	ed97 7a15 	vldr	s14, [r7, #84]	; 0x54
    2972:	ee37 7a67 	vsub.f32	s14, s14, s15
    2976:	f8d7 3088 	ldr.w	r3, [r7, #136]	; 0x88
    297a:	edd3 7a00 	vldr	s15, [r3]
    297e:	ee77 7a27 	vadd.f32	s15, s14, s15
    2982:	edc7 7a0c 	vstr	s15, [r7, #48]	; 0x30
    2986:	f8d7 3090 	ldr.w	r3, [r7, #144]	; 0x90
    298a:	edd3 7a00 	vldr	s15, [r3]
    298e:	ed97 7a18 	vldr	s14, [r7, #96]	; 0x60
    2992:	ee37 7a67 	vsub.f32	s14, s14, s15
    2996:	f8d7 3088 	ldr.w	r3, [r7, #136]	; 0x88
    299a:	edd3 7a00 	vldr	s15, [r3]
    299e:	ee77 7a67 	vsub.f32	s15, s14, s15
    29a2:	edc7 7a07 	vstr	s15, [r7, #28]
    29a6:	f8d7 3090 	ldr.w	r3, [r7, #144]	; 0x90
    29aa:	3304      	adds	r3, #4
    29ac:	edd3 7a00 	vldr	s15, [r3]
    29b0:	ed97 7a16 	vldr	s14, [r7, #88]	; 0x58
    29b4:	ee37 7a67 	vsub.f32	s14, s14, s15
    29b8:	f8d7 3088 	ldr.w	r3, [r7, #136]	; 0x88
    29bc:	3304      	adds	r3, #4
    29be:	edd3 7a00 	vldr	s15, [r3]
    29c2:	ee77 7a67 	vsub.f32	s15, s14, s15
    29c6:	edc7 7a08 	vstr	s15, [r7, #32]
    29ca:	f8d7 3090 	ldr.w	r3, [r7, #144]	; 0x90
    29ce:	3304      	adds	r3, #4
    29d0:	edd3 7a00 	vldr	s15, [r3]
    29d4:	ed97 7a17 	vldr	s14, [r7, #92]	; 0x5c
    29d8:	ee37 7a67 	vsub.f32	s14, s14, s15
    29dc:	f8d7 3088 	ldr.w	r3, [r7, #136]	; 0x88
    29e0:	3304      	adds	r3, #4
    29e2:	edd3 7a00 	vldr	s15, [r3]
    29e6:	ee77 7a27 	vadd.f32	s15, s14, s15
    29ea:	edc7 7a03 	vstr	s15, [r7, #12]
    29ee:	f8d7 3090 	ldr.w	r3, [r7, #144]	; 0x90
    29f2:	ed93 7a00 	vldr	s14, [r3]
    29f6:	edd7 7a15 	vldr	s15, [r7, #84]	; 0x54
    29fa:	ee37 7a27 	vadd.f32	s14, s14, s15
    29fe:	f8d7 3088 	ldr.w	r3, [r7, #136]	; 0x88
    2a02:	edd3 7a00 	vldr	s15, [r3]
    2a06:	ee77 7a67 	vsub.f32	s15, s14, s15
    2a0a:	edc7 7a04 	vstr	s15, [r7, #16]
    2a0e:	683b      	ldr	r3, [r7, #0]
    2a10:	1d1a      	adds	r2, r3, #4
    2a12:	603a      	str	r2, [r7, #0]
    2a14:	f8d7 2090 	ldr.w	r2, [r7, #144]	; 0x90
    2a18:	ed92 7a00 	vldr	s14, [r2]
    2a1c:	edd7 7a18 	vldr	s15, [r7, #96]	; 0x60
    2a20:	ee37 7a27 	vadd.f32	s14, s14, s15
    2a24:	f8d7 2088 	ldr.w	r2, [r7, #136]	; 0x88
    2a28:	edd2 7a00 	vldr	s15, [r2]
    2a2c:	ee77 7a27 	vadd.f32	s15, s14, s15
    2a30:	edc3 7a00 	vstr	s15, [r3]
    2a34:	683b      	ldr	r3, [r7, #0]
    2a36:	1d1a      	adds	r2, r3, #4
    2a38:	603a      	str	r2, [r7, #0]
    2a3a:	f8d7 2090 	ldr.w	r2, [r7, #144]	; 0x90
    2a3e:	3204      	adds	r2, #4
    2a40:	ed92 7a00 	vldr	s14, [r2]
    2a44:	edd7 7a16 	vldr	s15, [r7, #88]	; 0x58
    2a48:	ee37 7a27 	vadd.f32	s14, s14, s15
    2a4c:	f8d7 2088 	ldr.w	r2, [r7, #136]	; 0x88
    2a50:	3204      	adds	r2, #4
    2a52:	edd2 7a00 	vldr	s15, [r2]
    2a56:	ee77 7a27 	vadd.f32	s15, s14, s15
    2a5a:	edc3 7a00 	vstr	s15, [r3]
    2a5e:	f8d7 30ac 	ldr.w	r3, [r7, #172]	; 0xac
    2a62:	3b04      	subs	r3, #4
    2a64:	ed93 7a00 	vldr	s14, [r3]
    2a68:	f8d7 30a4 	ldr.w	r3, [r7, #164]	; 0xa4
    2a6c:	3b04      	subs	r3, #4
    2a6e:	edd3 7a00 	vldr	s15, [r3]
    2a72:	ee77 7a27 	vadd.f32	s15, s14, s15
    2a76:	edc7 7a16 	vstr	s15, [r7, #88]	; 0x58
    2a7a:	f8d7 30ac 	ldr.w	r3, [r7, #172]	; 0xac
    2a7e:	3b04      	subs	r3, #4
    2a80:	ed93 7a00 	vldr	s14, [r3]
    2a84:	f8d7 30a4 	ldr.w	r3, [r7, #164]	; 0xa4
    2a88:	3b04      	subs	r3, #4
    2a8a:	edd3 7a00 	vldr	s15, [r3]
    2a8e:	ee77 7a67 	vsub.f32	s15, s14, s15
    2a92:	edc7 7a15 	vstr	s15, [r7, #84]	; 0x54
    2a96:	f8d7 30ac 	ldr.w	r3, [r7, #172]	; 0xac
    2a9a:	ed93 7a00 	vldr	s14, [r3]
    2a9e:	f8d7 30a4 	ldr.w	r3, [r7, #164]	; 0xa4
    2aa2:	edd3 7a00 	vldr	s15, [r3]
    2aa6:	ee77 7a27 	vadd.f32	s15, s14, s15
    2aaa:	edc7 7a18 	vstr	s15, [r7, #96]	; 0x60
    2aae:	f8d7 30ac 	ldr.w	r3, [r7, #172]	; 0xac
    2ab2:	ed93 7a00 	vldr	s14, [r3]
    2ab6:	f8d7 30a4 	ldr.w	r3, [r7, #164]	; 0xa4
    2aba:	edd3 7a00 	vldr	s15, [r3]
    2abe:	ee77 7a67 	vsub.f32	s15, s14, s15
    2ac2:	edc7 7a17 	vstr	s15, [r7, #92]	; 0x5c
    2ac6:	f8d7 30a8 	ldr.w	r3, [r7, #168]	; 0xa8
    2aca:	ed93 7a00 	vldr	s14, [r3]
    2ace:	f8d7 30a0 	ldr.w	r3, [r7, #160]	; 0xa0
    2ad2:	edd3 7a00 	vldr	s15, [r3]
    2ad6:	ee37 7a67 	vsub.f32	s14, s14, s15
    2ada:	edd7 7a15 	vldr	s15, [r7, #84]	; 0x54
    2ade:	ee77 7a27 	vadd.f32	s15, s14, s15
    2ae2:	edc7 7a0d 	vstr	s15, [r7, #52]	; 0x34
    2ae6:	f8d7 30ac 	ldr.w	r3, [r7, #172]	; 0xac
    2aea:	ed93 7a00 	vldr	s14, [r3]
    2aee:	f8d7 30a4 	ldr.w	r3, [r7, #164]	; 0xa4
    2af2:	edd3 7a00 	vldr	s15, [r3]
    2af6:	ee37 7a67 	vsub.f32	s14, s14, s15
    2afa:	f8d7 30a8 	ldr.w	r3, [r7, #168]	; 0xa8
    2afe:	3b04      	subs	r3, #4
    2b00:	edd3 7a00 	vldr	s15, [r3]
    2b04:	ee37 7a67 	vsub.f32	s14, s14, s15
    2b08:	f8d7 30a0 	ldr.w	r3, [r7, #160]	; 0xa0
    2b0c:	3b04      	subs	r3, #4
    2b0e:	edd3 7a00 	vldr	s15, [r3]
    2b12:	ee77 7a27 	vadd.f32	s15, s14, s15
    2b16:	edc7 7a0e 	vstr	s15, [r7, #56]	; 0x38
    2b1a:	f8d7 30a8 	ldr.w	r3, [r7, #168]	; 0xa8
    2b1e:	3b04      	subs	r3, #4
    2b20:	edd3 7a00 	vldr	s15, [r3]
    2b24:	ed97 7a16 	vldr	s14, [r7, #88]	; 0x58
    2b28:	ee37 7a67 	vsub.f32	s14, s14, s15
    2b2c:	f8d7 30a0 	ldr.w	r3, [r7, #160]	; 0xa0
    2b30:	3b04      	subs	r3, #4
    2b32:	edd3 7a00 	vldr	s15, [r3]
    2b36:	ee77 7a67 	vsub.f32	s15, s14, s15
    2b3a:	edc7 7a09 	vstr	s15, [r7, #36]	; 0x24
    2b3e:	f8d7 30a8 	ldr.w	r3, [r7, #168]	; 0xa8
    2b42:	edd3 7a00 	vldr	s15, [r3]
    2b46:	ed97 7a18 	vldr	s14, [r7, #96]	; 0x60
    2b4a:	ee37 7a67 	vsub.f32	s14, s14, s15
    2b4e:	f8d7 30a0 	ldr.w	r3, [r7, #160]	; 0xa0
    2b52:	edd3 7a00 	vldr	s15, [r3]
    2b56:	ee77 7a67 	vsub.f32	s15, s14, s15
    2b5a:	edc7 7a0a 	vstr	s15, [r7, #40]	; 0x28
    2b5e:	f8d7 30a8 	ldr.w	r3, [r7, #168]	; 0xa8
    2b62:	ed93 7a00 	vldr	s14, [r3]
    2b66:	f8d7 30a0 	ldr.w	r3, [r7, #160]	; 0xa0
    2b6a:	edd3 7a00 	vldr	s15, [r3]
    2b6e:	ee37 7a67 	vsub.f32	s14, s14, s15
    2b72:	edd7 7a15 	vldr	s15, [r7, #84]	; 0x54
    2b76:	ee77 7a67 	vsub.f32	s15, s14, s15
    2b7a:	edc7 7a05 	vstr	s15, [r7, #20]
    2b7e:	f8d7 30a0 	ldr.w	r3, [r7, #160]	; 0xa0
    2b82:	3b04      	subs	r3, #4
    2b84:	ed93 7a00 	vldr	s14, [r3]
    2b88:	f8d7 30a8 	ldr.w	r3, [r7, #168]	; 0xa8
    2b8c:	3b04      	subs	r3, #4
    2b8e:	edd3 7a00 	vldr	s15, [r3]
    2b92:	ee37 7a67 	vsub.f32	s14, s14, s15
    2b96:	edd7 7a17 	vldr	s15, [r7, #92]	; 0x5c
    2b9a:	ee77 7a67 	vsub.f32	s15, s14, s15
    2b9e:	edc7 7a06 	vstr	s15, [r7, #24]
    2ba2:	f8d7 30ac 	ldr.w	r3, [r7, #172]	; 0xac
    2ba6:	1f1a      	subs	r2, r3, #4
    2ba8:	f8c7 20ac 	str.w	r2, [r7, #172]	; 0xac
    2bac:	f8d7 20a8 	ldr.w	r2, [r7, #168]	; 0xa8
    2bb0:	ed92 7a00 	vldr	s14, [r2]
    2bb4:	edd7 7a18 	vldr	s15, [r7, #96]	; 0x60
    2bb8:	ee37 7a27 	vadd.f32	s14, s14, s15
    2bbc:	f8d7 20a0 	ldr.w	r2, [r7, #160]	; 0xa0
    2bc0:	edd2 7a00 	vldr	s15, [r2]
    2bc4:	ee77 7a27 	vadd.f32	s15, s14, s15
    2bc8:	edc3 7a00 	vstr	s15, [r3]
    2bcc:	f8d7 30ac 	ldr.w	r3, [r7, #172]	; 0xac
    2bd0:	1f1a      	subs	r2, r3, #4
    2bd2:	f8c7 20ac 	str.w	r2, [r7, #172]	; 0xac
    2bd6:	f8d7 20a8 	ldr.w	r2, [r7, #168]	; 0xa8
    2bda:	3a04      	subs	r2, #4
    2bdc:	ed92 7a00 	vldr	s14, [r2]
    2be0:	edd7 7a16 	vldr	s15, [r7, #88]	; 0x58
    2be4:	ee37 7a27 	vadd.f32	s14, s14, s15
    2be8:	f8d7 20a0 	ldr.w	r2, [r7, #160]	; 0xa0
    2bec:	3a04      	subs	r2, #4
    2bee:	edd2 7a00 	vldr	s15, [r2]
    2bf2:	ee77 7a27 	vadd.f32	s15, s14, s15
    2bf6:	edc3 7a00 	vstr	s15, [r3]
    2bfa:	f8d7 309c 	ldr.w	r3, [r7, #156]	; 0x9c
    2bfe:	1d1a      	adds	r2, r3, #4
    2c00:	f8c7 209c 	str.w	r2, [r7, #156]	; 0x9c
    2c04:	681b      	ldr	r3, [r3, #0]
    2c06:	653b      	str	r3, [r7, #80]	; 0x50
    2c08:	f8d7 309c 	ldr.w	r3, [r7, #156]	; 0x9c
    2c0c:	1d1a      	adds	r2, r3, #4
    2c0e:	f8c7 209c 	str.w	r2, [r7, #156]	; 0x9c
    2c12:	681b      	ldr	r3, [r3, #0]
    2c14:	64fb      	str	r3, [r7, #76]	; 0x4c
    2c16:	ed97 7a0b 	vldr	s14, [r7, #44]	; 0x2c
    2c1a:	edd7 7a14 	vldr	s15, [r7, #80]	; 0x50
    2c1e:	ee67 7a27 	vmul.f32	s15, s14, s15
    2c22:	edc7 7a12 	vstr	s15, [r7, #72]	; 0x48
    2c26:	ed97 7a0c 	vldr	s14, [r7, #48]	; 0x30
    2c2a:	edd7 7a13 	vldr	s15, [r7, #76]	; 0x4c
    2c2e:	ee67 7a27 	vmul.f32	s15, s14, s15
    2c32:	edc7 7a11 	vstr	s15, [r7, #68]	; 0x44
    2c36:	ed97 7a0c 	vldr	s14, [r7, #48]	; 0x30
    2c3a:	edd7 7a14 	vldr	s15, [r7, #80]	; 0x50
    2c3e:	ee67 7a27 	vmul.f32	s15, s14, s15
    2c42:	edc7 7a10 	vstr	s15, [r7, #64]	; 0x40
    2c46:	ed97 7a0b 	vldr	s14, [r7, #44]	; 0x2c
    2c4a:	edd7 7a13 	vldr	s15, [r7, #76]	; 0x4c
    2c4e:	ee67 7a27 	vmul.f32	s15, s14, s15
    2c52:	edc7 7a0f 	vstr	s15, [r7, #60]	; 0x3c
    2c56:	f8d7 3090 	ldr.w	r3, [r7, #144]	; 0x90
    2c5a:	1d1a      	adds	r2, r3, #4
    2c5c:	f8c7 2090 	str.w	r2, [r7, #144]	; 0x90
    2c60:	ed97 7a12 	vldr	s14, [r7, #72]	; 0x48
    2c64:	edd7 7a11 	vldr	s15, [r7, #68]	; 0x44
    2c68:	ee77 7a27 	vadd.f32	s15, s14, s15
    2c6c:	edc3 7a00 	vstr	s15, [r3]
    2c70:	f8d7 3090 	ldr.w	r3, [r7, #144]	; 0x90
    2c74:	1d1a      	adds	r2, r3, #4
    2c76:	f8c7 2090 	str.w	r2, [r7, #144]	; 0x90
    2c7a:	ed97 7a10 	vldr	s14, [r7, #64]	; 0x40
    2c7e:	edd7 7a0f 	vldr	s15, [r7, #60]	; 0x3c
    2c82:	ee77 7a67 	vsub.f32	s15, s14, s15
    2c86:	edc3 7a00 	vstr	s15, [r3]
    2c8a:	ed97 7a0e 	vldr	s14, [r7, #56]	; 0x38
    2c8e:	edd7 7a13 	vldr	s15, [r7, #76]	; 0x4c
    2c92:	ee67 7a27 	vmul.f32	s15, s14, s15
    2c96:	edc7 7a12 	vstr	s15, [r7, #72]	; 0x48
    2c9a:	ed97 7a0d 	vldr	s14, [r7, #52]	; 0x34
    2c9e:	edd7 7a14 	vldr	s15, [r7, #80]	; 0x50
    2ca2:	ee67 7a27 	vmul.f32	s15, s14, s15
    2ca6:	edc7 7a11 	vstr	s15, [r7, #68]	; 0x44
    2caa:	ed97 7a0d 	vldr	s14, [r7, #52]	; 0x34
    2cae:	edd7 7a13 	vldr	s15, [r7, #76]	; 0x4c
    2cb2:	ee67 7a27 	vmul.f32	s15, s14, s15
    2cb6:	edc7 7a10 	vstr	s15, [r7, #64]	; 0x40
    2cba:	ed97 7a0e 	vldr	s14, [r7, #56]	; 0x38
    2cbe:	edd7 7a14 	vldr	s15, [r7, #80]	; 0x50
    2cc2:	ee67 7a27 	vmul.f32	s15, s14, s15
    2cc6:	edc7 7a0f 	vstr	s15, [r7, #60]	; 0x3c
    2cca:	f8d7 30a8 	ldr.w	r3, [r7, #168]	; 0xa8
    2cce:	1f1a      	subs	r2, r3, #4
    2cd0:	f8c7 20a8 	str.w	r2, [r7, #168]	; 0xa8
    2cd4:	ed97 7a12 	vldr	s14, [r7, #72]	; 0x48
    2cd8:	edd7 7a11 	vldr	s15, [r7, #68]	; 0x44
    2cdc:	ee77 7a67 	vsub.f32	s15, s14, s15
    2ce0:	edc3 7a00 	vstr	s15, [r3]
    2ce4:	f8d7 30a8 	ldr.w	r3, [r7, #168]	; 0xa8
    2ce8:	1f1a      	subs	r2, r3, #4
    2cea:	f8c7 20a8 	str.w	r2, [r7, #168]	; 0xa8
    2cee:	ed97 7a10 	vldr	s14, [r7, #64]	; 0x40
    2cf2:	edd7 7a0f 	vldr	s15, [r7, #60]	; 0x3c
    2cf6:	ee77 7a27 	vadd.f32	s15, s14, s15
    2cfa:	edc3 7a00 	vstr	s15, [r3]
    2cfe:	f8d7 3098 	ldr.w	r3, [r7, #152]	; 0x98
    2d02:	681b      	ldr	r3, [r3, #0]
    2d04:	653b      	str	r3, [r7, #80]	; 0x50
    2d06:	f8d7 3098 	ldr.w	r3, [r7, #152]	; 0x98
    2d0a:	685b      	ldr	r3, [r3, #4]
    2d0c:	64fb      	str	r3, [r7, #76]	; 0x4c
    2d0e:	6ebb      	ldr	r3, [r7, #104]	; 0x68
    2d10:	009b      	lsls	r3, r3, #2
    2d12:	f8d7 2098 	ldr.w	r2, [r7, #152]	; 0x98
    2d16:	4413      	add	r3, r2
    2d18:	f8c7 3098 	str.w	r3, [r7, #152]	; 0x98
    2d1c:	ed97 7a07 	vldr	s14, [r7, #28]
    2d20:	edd7 7a14 	vldr	s15, [r7, #80]	; 0x50
    2d24:	ee67 7a27 	vmul.f32	s15, s14, s15
    2d28:	edc7 7a12 	vstr	s15, [r7, #72]	; 0x48
    2d2c:	ed97 7a08 	vldr	s14, [r7, #32]
    2d30:	edd7 7a13 	vldr	s15, [r7, #76]	; 0x4c
    2d34:	ee67 7a27 	vmul.f32	s15, s14, s15
    2d38:	edc7 7a11 	vstr	s15, [r7, #68]	; 0x44
    2d3c:	ed97 7a08 	vldr	s14, [r7, #32]
    2d40:	edd7 7a14 	vldr	s15, [r7, #80]	; 0x50
    2d44:	ee67 7a27 	vmul.f32	s15, s14, s15
    2d48:	edc7 7a10 	vstr	s15, [r7, #64]	; 0x40
    2d4c:	ed97 7a07 	vldr	s14, [r7, #28]
    2d50:	edd7 7a13 	vldr	s15, [r7, #76]	; 0x4c
    2d54:	ee67 7a27 	vmul.f32	s15, s14, s15
    2d58:	edc7 7a0f 	vstr	s15, [r7, #60]	; 0x3c
    2d5c:	f8d7 308c 	ldr.w	r3, [r7, #140]	; 0x8c
    2d60:	1d1a      	adds	r2, r3, #4
    2d62:	f8c7 208c 	str.w	r2, [r7, #140]	; 0x8c
    2d66:	ed97 7a12 	vldr	s14, [r7, #72]	; 0x48
    2d6a:	edd7 7a11 	vldr	s15, [r7, #68]	; 0x44
    2d6e:	ee77 7a27 	vadd.f32	s15, s14, s15
    2d72:	edc3 7a00 	vstr	s15, [r3]
    2d76:	f8d7 308c 	ldr.w	r3, [r7, #140]	; 0x8c
    2d7a:	1d1a      	adds	r2, r3, #4
    2d7c:	f8c7 208c 	str.w	r2, [r7, #140]	; 0x8c
    2d80:	ed97 7a10 	vldr	s14, [r7, #64]	; 0x40
    2d84:	edd7 7a0f 	vldr	s15, [r7, #60]	; 0x3c
    2d88:	ee77 7a67 	vsub.f32	s15, s14, s15
    2d8c:	edc3 7a00 	vstr	s15, [r3]
    2d90:	edd7 7a0a 	vldr	s15, [r7, #40]	; 0x28
    2d94:	eeb1 7a67 	vneg.f32	s14, s15
    2d98:	edd7 7a14 	vldr	s15, [r7, #80]	; 0x50
    2d9c:	ee67 7a27 	vmul.f32	s15, s14, s15
    2da0:	edc7 7a12 	vstr	s15, [r7, #72]	; 0x48
    2da4:	ed97 7a09 	vldr	s14, [r7, #36]	; 0x24
    2da8:	edd7 7a13 	vldr	s15, [r7, #76]	; 0x4c
    2dac:	ee67 7a27 	vmul.f32	s15, s14, s15
    2db0:	edc7 7a11 	vstr	s15, [r7, #68]	; 0x44
    2db4:	ed97 7a09 	vldr	s14, [r7, #36]	; 0x24
    2db8:	edd7 7a14 	vldr	s15, [r7, #80]	; 0x50
    2dbc:	ee67 7a27 	vmul.f32	s15, s14, s15
    2dc0:	edc7 7a10 	vstr	s15, [r7, #64]	; 0x40
    2dc4:	ed97 7a0a 	vldr	s14, [r7, #40]	; 0x28
    2dc8:	edd7 7a13 	vldr	s15, [r7, #76]	; 0x4c
    2dcc:	ee67 7a27 	vmul.f32	s15, s14, s15
    2dd0:	edc7 7a0f 	vstr	s15, [r7, #60]	; 0x3c
    2dd4:	f8d7 30a4 	ldr.w	r3, [r7, #164]	; 0xa4
    2dd8:	1f1a      	subs	r2, r3, #4
    2dda:	f8c7 20a4 	str.w	r2, [r7, #164]	; 0xa4
    2dde:	ed97 7a12 	vldr	s14, [r7, #72]	; 0x48
    2de2:	edd7 7a11 	vldr	s15, [r7, #68]	; 0x44
    2de6:	ee77 7a67 	vsub.f32	s15, s14, s15
    2dea:	edc3 7a00 	vstr	s15, [r3]
    2dee:	f8d7 30a4 	ldr.w	r3, [r7, #164]	; 0xa4
    2df2:	1f1a      	subs	r2, r3, #4
    2df4:	f8c7 20a4 	str.w	r2, [r7, #164]	; 0xa4
    2df8:	ed97 7a0f 	vldr	s14, [r7, #60]	; 0x3c
    2dfc:	edd7 7a10 	vldr	s15, [r7, #64]	; 0x40
    2e00:	ee77 7a67 	vsub.f32	s15, s14, s15
    2e04:	edc3 7a00 	vstr	s15, [r3]
    2e08:	f8d7 3094 	ldr.w	r3, [r7, #148]	; 0x94
    2e0c:	681b      	ldr	r3, [r3, #0]
    2e0e:	653b      	str	r3, [r7, #80]	; 0x50
    2e10:	f8d7 3094 	ldr.w	r3, [r7, #148]	; 0x94
    2e14:	685b      	ldr	r3, [r3, #4]
    2e16:	64fb      	str	r3, [r7, #76]	; 0x4c
    2e18:	6e7b      	ldr	r3, [r7, #100]	; 0x64
    2e1a:	009b      	lsls	r3, r3, #2
    2e1c:	f8d7 2094 	ldr.w	r2, [r7, #148]	; 0x94
    2e20:	4413      	add	r3, r2
    2e22:	f8c7 3094 	str.w	r3, [r7, #148]	; 0x94
    2e26:	ed97 7a03 	vldr	s14, [r7, #12]
    2e2a:	edd7 7a14 	vldr	s15, [r7, #80]	; 0x50
    2e2e:	ee67 7a27 	vmul.f32	s15, s14, s15
    2e32:	edc7 7a12 	vstr	s15, [r7, #72]	; 0x48
    2e36:	ed97 7a04 	vldr	s14, [r7, #16]
    2e3a:	edd7 7a13 	vldr	s15, [r7, #76]	; 0x4c
    2e3e:	ee67 7a27 	vmul.f32	s15, s14, s15
    2e42:	edc7 7a11 	vstr	s15, [r7, #68]	; 0x44
    2e46:	ed97 7a04 	vldr	s14, [r7, #16]
    2e4a:	edd7 7a14 	vldr	s15, [r7, #80]	; 0x50
    2e4e:	ee67 7a27 	vmul.f32	s15, s14, s15
    2e52:	edc7 7a10 	vstr	s15, [r7, #64]	; 0x40
    2e56:	ed97 7a03 	vldr	s14, [r7, #12]
    2e5a:	edd7 7a13 	vldr	s15, [r7, #76]	; 0x4c
    2e5e:	ee67 7a27 	vmul.f32	s15, s14, s15
    2e62:	edc7 7a0f 	vstr	s15, [r7, #60]	; 0x3c
    2e66:	f8d7 3088 	ldr.w	r3, [r7, #136]	; 0x88
    2e6a:	1d1a      	adds	r2, r3, #4
    2e6c:	f8c7 2088 	str.w	r2, [r7, #136]	; 0x88
    2e70:	ed97 7a12 	vldr	s14, [r7, #72]	; 0x48
    2e74:	edd7 7a11 	vldr	s15, [r7, #68]	; 0x44
    2e78:	ee77 7a27 	vadd.f32	s15, s14, s15
    2e7c:	edc3 7a00 	vstr	s15, [r3]
    2e80:	f8d7 3088 	ldr.w	r3, [r7, #136]	; 0x88
    2e84:	1d1a      	adds	r2, r3, #4
    2e86:	f8c7 2088 	str.w	r2, [r7, #136]	; 0x88
    2e8a:	ed97 7a10 	vldr	s14, [r7, #64]	; 0x40
    2e8e:	edd7 7a0f 	vldr	s15, [r7, #60]	; 0x3c
    2e92:	ee77 7a67 	vsub.f32	s15, s14, s15
    2e96:	edc3 7a00 	vstr	s15, [r3]
    2e9a:	ed97 7a06 	vldr	s14, [r7, #24]
    2e9e:	edd7 7a13 	vldr	s15, [r7, #76]	; 0x4c
    2ea2:	ee67 7a27 	vmul.f32	s15, s14, s15
    2ea6:	edc7 7a12 	vstr	s15, [r7, #72]	; 0x48
    2eaa:	ed97 7a05 	vldr	s14, [r7, #20]
    2eae:	edd7 7a14 	vldr	s15, [r7, #80]	; 0x50
    2eb2:	ee67 7a27 	vmul.f32	s15, s14, s15
    2eb6:	edc7 7a11 	vstr	s15, [r7, #68]	; 0x44
    2eba:	ed97 7a05 	vldr	s14, [r7, #20]
    2ebe:	edd7 7a13 	vldr	s15, [r7, #76]	; 0x4c
    2ec2:	ee67 7a27 	vmul.f32	s15, s14, s15
    2ec6:	edc7 7a10 	vstr	s15, [r7, #64]	; 0x40
    2eca:	ed97 7a06 	vldr	s14, [r7, #24]
    2ece:	edd7 7a14 	vldr	s15, [r7, #80]	; 0x50
    2ed2:	ee67 7a27 	vmul.f32	s15, s14, s15
    2ed6:	edc7 7a0f 	vstr	s15, [r7, #60]	; 0x3c
    2eda:	f8d7 30a0 	ldr.w	r3, [r7, #160]	; 0xa0
    2ede:	1f1a      	subs	r2, r3, #4
    2ee0:	f8c7 20a0 	str.w	r2, [r7, #160]	; 0xa0
    2ee4:	ed97 7a12 	vldr	s14, [r7, #72]	; 0x48
    2ee8:	edd7 7a11 	vldr	s15, [r7, #68]	; 0x44
    2eec:	ee77 7a67 	vsub.f32	s15, s14, s15
    2ef0:	edc3 7a00 	vstr	s15, [r3]
    2ef4:	f8d7 30a0 	ldr.w	r3, [r7, #160]	; 0xa0
    2ef8:	1f1a      	subs	r2, r3, #4
    2efa:	f8c7 20a0 	str.w	r2, [r7, #160]	; 0xa0
    2efe:	ed97 7a10 	vldr	s14, [r7, #64]	; 0x40
    2f02:	edd7 7a0f 	vldr	s15, [r7, #60]	; 0x3c
    2f06:	ee77 7a27 	vadd.f32	s15, s14, s15
    2f0a:	edc3 7a00 	vstr	s15, [r3]
    2f0e:	f8d7 3084 	ldr.w	r3, [r7, #132]	; 0x84
    2f12:	3b01      	subs	r3, #1
    2f14:	f8c7 3084 	str.w	r3, [r7, #132]	; 0x84
    2f18:	f8d7 3084 	ldr.w	r3, [r7, #132]	; 0x84
    2f1c:	2b00      	cmp	r3, #0
    2f1e:	f47f ace0 	bne.w	28e2 <arm_cfft_radix8by4_f32+0x2be>
    2f22:	683b      	ldr	r3, [r7, #0]
    2f24:	ed93 7a00 	vldr	s14, [r3]
    2f28:	f8d7 308c 	ldr.w	r3, [r7, #140]	; 0x8c
    2f2c:	edd3 7a00 	vldr	s15, [r3]
    2f30:	ee77 7a27 	vadd.f32	s15, s14, s15
    2f34:	edc7 7a18 	vstr	s15, [r7, #96]	; 0x60
    2f38:	683b      	ldr	r3, [r7, #0]
    2f3a:	ed93 7a00 	vldr	s14, [r3]
    2f3e:	f8d7 308c 	ldr.w	r3, [r7, #140]	; 0x8c
    2f42:	edd3 7a00 	vldr	s15, [r3]
    2f46:	ee77 7a67 	vsub.f32	s15, s14, s15
    2f4a:	edc7 7a17 	vstr	s15, [r7, #92]	; 0x5c
    2f4e:	683b      	ldr	r3, [r7, #0]
    2f50:	3304      	adds	r3, #4
    2f52:	ed93 7a00 	vldr	s14, [r3]
    2f56:	f8d7 308c 	ldr.w	r3, [r7, #140]	; 0x8c
    2f5a:	3304      	adds	r3, #4
    2f5c:	edd3 7a00 	vldr	s15, [r3]
    2f60:	ee77 7a27 	vadd.f32	s15, s14, s15
    2f64:	edc7 7a16 	vstr	s15, [r7, #88]	; 0x58
    2f68:	683b      	ldr	r3, [r7, #0]
    2f6a:	3304      	adds	r3, #4
    2f6c:	ed93 7a00 	vldr	s14, [r3]
    2f70:	f8d7 308c 	ldr.w	r3, [r7, #140]	; 0x8c
    2f74:	3304      	adds	r3, #4
    2f76:	edd3 7a00 	vldr	s15, [r3]
    2f7a:	ee77 7a67 	vsub.f32	s15, s14, s15
    2f7e:	edc7 7a15 	vstr	s15, [r7, #84]	; 0x54
    2f82:	f8d7 3090 	ldr.w	r3, [r7, #144]	; 0x90
    2f86:	3304      	adds	r3, #4
    2f88:	ed93 7a00 	vldr	s14, [r3]
    2f8c:	edd7 7a17 	vldr	s15, [r7, #92]	; 0x5c
    2f90:	ee37 7a27 	vadd.f32	s14, s14, s15
    2f94:	f8d7 3088 	ldr.w	r3, [r7, #136]	; 0x88
    2f98:	3304      	adds	r3, #4
    2f9a:	edd3 7a00 	vldr	s15, [r3]
    2f9e:	ee77 7a67 	vsub.f32	s15, s14, s15
    2fa2:	edc7 7a0b 	vstr	s15, [r7, #44]	; 0x2c
    2fa6:	f8d7 3090 	ldr.w	r3, [r7, #144]	; 0x90
    2faa:	edd3 7a00 	vldr	s15, [r3]
    2fae:	ed97 7a15 	vldr	s14, [r7, #84]	; 0x54
    2fb2:	ee37 7a67 	vsub.f32	s14, s14, s15
    2fb6:	f8d7 3088 	ldr.w	r3, [r7, #136]	; 0x88
    2fba:	edd3 7a00 	vldr	s15, [r3]
    2fbe:	ee77 7a27 	vadd.f32	s15, s14, s15
    2fc2:	edc7 7a0c 	vstr	s15, [r7, #48]	; 0x30
    2fc6:	f8d7 3090 	ldr.w	r3, [r7, #144]	; 0x90
    2fca:	edd3 7a00 	vldr	s15, [r3]
    2fce:	ed97 7a18 	vldr	s14, [r7, #96]	; 0x60
    2fd2:	ee37 7a67 	vsub.f32	s14, s14, s15
    2fd6:	f8d7 3088 	ldr.w	r3, [r7, #136]	; 0x88
    2fda:	edd3 7a00 	vldr	s15, [r3]
    2fde:	ee77 7a67 	vsub.f32	s15, s14, s15
    2fe2:	edc7 7a07 	vstr	s15, [r7, #28]
    2fe6:	f8d7 3090 	ldr.w	r3, [r7, #144]	; 0x90
    2fea:	3304      	adds	r3, #4
    2fec:	edd3 7a00 	vldr	s15, [r3]
    2ff0:	ed97 7a16 	vldr	s14, [r7, #88]	; 0x58
    2ff4:	ee37 7a67 	vsub.f32	s14, s14, s15
    2ff8:	f8d7 3088 	ldr.w	r3, [r7, #136]	; 0x88
    2ffc:	3304      	adds	r3, #4
    2ffe:	edd3 7a00 	vldr	s15, [r3]
    3002:	ee77 7a67 	vsub.f32	s15, s14, s15
    3006:	edc7 7a08 	vstr	s15, [r7, #32]
    300a:	f8d7 3090 	ldr.w	r3, [r7, #144]	; 0x90
    300e:	3304      	adds	r3, #4
    3010:	edd3 7a00 	vldr	s15, [r3]
    3014:	ed97 7a17 	vldr	s14, [r7, #92]	; 0x5c
    3018:	ee37 7a67 	vsub.f32	s14, s14, s15
    301c:	f8d7 3088 	ldr.w	r3, [r7, #136]	; 0x88
    3020:	3304      	adds	r3, #4
    3022:	edd3 7a00 	vldr	s15, [r3]
    3026:	ee77 7a27 	vadd.f32	s15, s14, s15
    302a:	edc7 7a03 	vstr	s15, [r7, #12]
    302e:	f8d7 3090 	ldr.w	r3, [r7, #144]	; 0x90
    3032:	ed93 7a00 	vldr	s14, [r3]
    3036:	edd7 7a15 	vldr	s15, [r7, #84]	; 0x54
    303a:	ee37 7a27 	vadd.f32	s14, s14, s15
    303e:	f8d7 3088 	ldr.w	r3, [r7, #136]	; 0x88
    3042:	edd3 7a00 	vldr	s15, [r3]
    3046:	ee77 7a67 	vsub.f32	s15, s14, s15
    304a:	edc7 7a04 	vstr	s15, [r7, #16]
    304e:	683b      	ldr	r3, [r7, #0]
    3050:	1d1a      	adds	r2, r3, #4
    3052:	603a      	str	r2, [r7, #0]
    3054:	f8d7 2090 	ldr.w	r2, [r7, #144]	; 0x90
    3058:	ed92 7a00 	vldr	s14, [r2]
    305c:	edd7 7a18 	vldr	s15, [r7, #96]	; 0x60
    3060:	ee37 7a27 	vadd.f32	s14, s14, s15
    3064:	f8d7 2088 	ldr.w	r2, [r7, #136]	; 0x88
    3068:	edd2 7a00 	vldr	s15, [r2]
    306c:	ee77 7a27 	vadd.f32	s15, s14, s15
    3070:	edc3 7a00 	vstr	s15, [r3]
    3074:	683b      	ldr	r3, [r7, #0]
    3076:	1d1a      	adds	r2, r3, #4
    3078:	603a      	str	r2, [r7, #0]
    307a:	f8d7 2090 	ldr.w	r2, [r7, #144]	; 0x90
    307e:	3204      	adds	r2, #4
    3080:	ed92 7a00 	vldr	s14, [r2]
    3084:	edd7 7a16 	vldr	s15, [r7, #88]	; 0x58
    3088:	ee37 7a27 	vadd.f32	s14, s14, s15
    308c:	f8d7 2088 	ldr.w	r2, [r7, #136]	; 0x88
    3090:	3204      	adds	r2, #4
    3092:	edd2 7a00 	vldr	s15, [r2]
    3096:	ee77 7a27 	vadd.f32	s15, s14, s15
    309a:	edc3 7a00 	vstr	s15, [r3]
    309e:	f8d7 309c 	ldr.w	r3, [r7, #156]	; 0x9c
    30a2:	681b      	ldr	r3, [r3, #0]
    30a4:	653b      	str	r3, [r7, #80]	; 0x50
    30a6:	f8d7 309c 	ldr.w	r3, [r7, #156]	; 0x9c
    30aa:	685b      	ldr	r3, [r3, #4]
    30ac:	64fb      	str	r3, [r7, #76]	; 0x4c
    30ae:	ed97 7a0b 	vldr	s14, [r7, #44]	; 0x2c
    30b2:	edd7 7a14 	vldr	s15, [r7, #80]	; 0x50
    30b6:	ee67 7a27 	vmul.f32	s15, s14, s15
    30ba:	edc7 7a12 	vstr	s15, [r7, #72]	; 0x48
    30be:	ed97 7a0c 	vldr	s14, [r7, #48]	; 0x30
    30c2:	edd7 7a13 	vldr	s15, [r7, #76]	; 0x4c
    30c6:	ee67 7a27 	vmul.f32	s15, s14, s15
    30ca:	edc7 7a11 	vstr	s15, [r7, #68]	; 0x44
    30ce:	ed97 7a0c 	vldr	s14, [r7, #48]	; 0x30
    30d2:	edd7 7a14 	vldr	s15, [r7, #80]	; 0x50
    30d6:	ee67 7a27 	vmul.f32	s15, s14, s15
    30da:	edc7 7a10 	vstr	s15, [r7, #64]	; 0x40
    30de:	ed97 7a0b 	vldr	s14, [r7, #44]	; 0x2c
    30e2:	edd7 7a13 	vldr	s15, [r7, #76]	; 0x4c
    30e6:	ee67 7a27 	vmul.f32	s15, s14, s15
    30ea:	edc7 7a0f 	vstr	s15, [r7, #60]	; 0x3c
    30ee:	f8d7 3090 	ldr.w	r3, [r7, #144]	; 0x90
    30f2:	1d1a      	adds	r2, r3, #4
    30f4:	f8c7 2090 	str.w	r2, [r7, #144]	; 0x90
    30f8:	ed97 7a12 	vldr	s14, [r7, #72]	; 0x48
    30fc:	edd7 7a11 	vldr	s15, [r7, #68]	; 0x44
    3100:	ee77 7a27 	vadd.f32	s15, s14, s15
    3104:	edc3 7a00 	vstr	s15, [r3]
    3108:	f8d7 3090 	ldr.w	r3, [r7, #144]	; 0x90
    310c:	1d1a      	adds	r2, r3, #4
    310e:	f8c7 2090 	str.w	r2, [r7, #144]	; 0x90
    3112:	ed97 7a10 	vldr	s14, [r7, #64]	; 0x40
    3116:	edd7 7a0f 	vldr	s15, [r7, #60]	; 0x3c
    311a:	ee77 7a67 	vsub.f32	s15, s14, s15
    311e:	edc3 7a00 	vstr	s15, [r3]
    3122:	f8d7 3098 	ldr.w	r3, [r7, #152]	; 0x98
    3126:	681b      	ldr	r3, [r3, #0]
    3128:	653b      	str	r3, [r7, #80]	; 0x50
    312a:	f8d7 3098 	ldr.w	r3, [r7, #152]	; 0x98
    312e:	685b      	ldr	r3, [r3, #4]
    3130:	64fb      	str	r3, [r7, #76]	; 0x4c
    3132:	ed97 7a07 	vldr	s14, [r7, #28]
    3136:	edd7 7a14 	vldr	s15, [r7, #80]	; 0x50
    313a:	ee67 7a27 	vmul.f32	s15, s14, s15
    313e:	edc7 7a12 	vstr	s15, [r7, #72]	; 0x48
    3142:	ed97 7a08 	vldr	s14, [r7, #32]
    3146:	edd7 7a13 	vldr	s15, [r7, #76]	; 0x4c
    314a:	ee67 7a27 	vmul.f32	s15, s14, s15
    314e:	edc7 7a11 	vstr	s15, [r7, #68]	; 0x44
    3152:	ed97 7a08 	vldr	s14, [r7, #32]
    3156:	edd7 7a14 	vldr	s15, [r7, #80]	; 0x50
    315a:	ee67 7a27 	vmul.f32	s15, s14, s15
    315e:	edc7 7a10 	vstr	s15, [r7, #64]	; 0x40
    3162:	ed97 7a07 	vldr	s14, [r7, #28]
    3166:	edd7 7a13 	vldr	s15, [r7, #76]	; 0x4c
    316a:	ee67 7a27 	vmul.f32	s15, s14, s15
    316e:	edc7 7a0f 	vstr	s15, [r7, #60]	; 0x3c
    3172:	f8d7 308c 	ldr.w	r3, [r7, #140]	; 0x8c
    3176:	1d1a      	adds	r2, r3, #4
    3178:	f8c7 208c 	str.w	r2, [r7, #140]	; 0x8c
    317c:	ed97 7a12 	vldr	s14, [r7, #72]	; 0x48
    3180:	edd7 7a11 	vldr	s15, [r7, #68]	; 0x44
    3184:	ee77 7a27 	vadd.f32	s15, s14, s15
    3188:	edc3 7a00 	vstr	s15, [r3]
    318c:	f8d7 308c 	ldr.w	r3, [r7, #140]	; 0x8c
    3190:	1d1a      	adds	r2, r3, #4
    3192:	f8c7 208c 	str.w	r2, [r7, #140]	; 0x8c
    3196:	ed97 7a10 	vldr	s14, [r7, #64]	; 0x40
    319a:	edd7 7a0f 	vldr	s15, [r7, #60]	; 0x3c
    319e:	ee77 7a67 	vsub.f32	s15, s14, s15
    31a2:	edc3 7a00 	vstr	s15, [r3]
    31a6:	f8d7 3094 	ldr.w	r3, [r7, #148]	; 0x94
    31aa:	681b      	ldr	r3, [r3, #0]
    31ac:	653b      	str	r3, [r7, #80]	; 0x50
    31ae:	f8d7 3094 	ldr.w	r3, [r7, #148]	; 0x94
    31b2:	685b      	ldr	r3, [r3, #4]
    31b4:	64fb      	str	r3, [r7, #76]	; 0x4c
    31b6:	ed97 7a03 	vldr	s14, [r7, #12]
    31ba:	edd7 7a14 	vldr	s15, [r7, #80]	; 0x50
    31be:	ee67 7a27 	vmul.f32	s15, s14, s15
    31c2:	edc7 7a12 	vstr	s15, [r7, #72]	; 0x48
    31c6:	ed97 7a04 	vldr	s14, [r7, #16]
    31ca:	edd7 7a13 	vldr	s15, [r7, #76]	; 0x4c
    31ce:	ee67 7a27 	vmul.f32	s15, s14, s15
    31d2:	edc7 7a11 	vstr	s15, [r7, #68]	; 0x44
    31d6:	ed97 7a04 	vldr	s14, [r7, #16]
    31da:	edd7 7a14 	vldr	s15, [r7, #80]	; 0x50
    31de:	ee67 7a27 	vmul.f32	s15, s14, s15
    31e2:	edc7 7a10 	vstr	s15, [r7, #64]	; 0x40
    31e6:	ed97 7a03 	vldr	s14, [r7, #12]
    31ea:	edd7 7a13 	vldr	s15, [r7, #76]	; 0x4c
    31ee:	ee67 7a27 	vmul.f32	s15, s14, s15
    31f2:	edc7 7a0f 	vstr	s15, [r7, #60]	; 0x3c
    31f6:	f8d7 3088 	ldr.w	r3, [r7, #136]	; 0x88
    31fa:	1d1a      	adds	r2, r3, #4
    31fc:	f8c7 2088 	str.w	r2, [r7, #136]	; 0x88
    3200:	ed97 7a12 	vldr	s14, [r7, #72]	; 0x48
    3204:	edd7 7a11 	vldr	s15, [r7, #68]	; 0x44
    3208:	ee77 7a27 	vadd.f32	s15, s14, s15
    320c:	edc3 7a00 	vstr	s15, [r3]
    3210:	f8d7 3088 	ldr.w	r3, [r7, #136]	; 0x88
    3214:	1d1a      	adds	r2, r3, #4
    3216:	f8c7 2088 	str.w	r2, [r7, #136]	; 0x88
    321a:	ed97 7a10 	vldr	s14, [r7, #64]	; 0x40
    321e:	edd7 7a0f 	vldr	s15, [r7, #60]	; 0x3c
    3222:	ee77 7a67 	vsub.f32	s15, s14, s15
    3226:	edc3 7a00 	vstr	s15, [r3]
    322a:	f8d7 3080 	ldr.w	r3, [r7, #128]	; 0x80
    322e:	b299      	uxth	r1, r3
    3230:	687b      	ldr	r3, [r7, #4]
    3232:	685a      	ldr	r2, [r3, #4]
    3234:	2304      	movs	r3, #4
    3236:	6ff8      	ldr	r0, [r7, #124]	; 0x7c
    3238:	f000 f8c4 	bl	33c4 <arm_radix8_butterfly_f32>
    323c:	f8d7 3080 	ldr.w	r3, [r7, #128]	; 0x80
    3240:	b299      	uxth	r1, r3
    3242:	687b      	ldr	r3, [r7, #4]
    3244:	685a      	ldr	r2, [r3, #4]
    3246:	2304      	movs	r3, #4
    3248:	6fb8      	ldr	r0, [r7, #120]	; 0x78
    324a:	f000 f8bb 	bl	33c4 <arm_radix8_butterfly_f32>
    324e:	f8d7 3080 	ldr.w	r3, [r7, #128]	; 0x80
    3252:	b299      	uxth	r1, r3
    3254:	687b      	ldr	r3, [r7, #4]
    3256:	685a      	ldr	r2, [r3, #4]
    3258:	2304      	movs	r3, #4
    325a:	6f78      	ldr	r0, [r7, #116]	; 0x74
    325c:	f000 f8b2 	bl	33c4 <arm_radix8_butterfly_f32>
    3260:	f8d7 3080 	ldr.w	r3, [r7, #128]	; 0x80
    3264:	b299      	uxth	r1, r3
    3266:	687b      	ldr	r3, [r7, #4]
    3268:	685a      	ldr	r2, [r3, #4]
    326a:	2304      	movs	r3, #4
    326c:	6f38      	ldr	r0, [r7, #112]	; 0x70
    326e:	f000 f8a9 	bl	33c4 <arm_radix8_butterfly_f32>
    3272:	bf00      	nop
    3274:	37b0      	adds	r7, #176	; 0xb0
    3276:	46bd      	mov	sp, r7
    3278:	bd80      	pop	{r7, pc}
    327a:	bf00      	nop

0000327c <arm_cfft_f32>:
    327c:	b580      	push	{r7, lr}
    327e:	b088      	sub	sp, #32
    3280:	af00      	add	r7, sp, #0
    3282:	60f8      	str	r0, [r7, #12]
    3284:	60b9      	str	r1, [r7, #8]
    3286:	4611      	mov	r1, r2
    3288:	461a      	mov	r2, r3
    328a:	460b      	mov	r3, r1
    328c:	71fb      	strb	r3, [r7, #7]
    328e:	4613      	mov	r3, r2
    3290:	71bb      	strb	r3, [r7, #6]
    3292:	68fb      	ldr	r3, [r7, #12]
    3294:	881b      	ldrh	r3, [r3, #0]
    3296:	617b      	str	r3, [r7, #20]
    3298:	79fb      	ldrb	r3, [r7, #7]
    329a:	2b01      	cmp	r3, #1
    329c:	d117      	bne.n	32ce <arm_cfft_f32+0x52>
    329e:	68bb      	ldr	r3, [r7, #8]
    32a0:	3304      	adds	r3, #4
    32a2:	61bb      	str	r3, [r7, #24]
    32a4:	2300      	movs	r3, #0
    32a6:	61fb      	str	r3, [r7, #28]
    32a8:	e00d      	b.n	32c6 <arm_cfft_f32+0x4a>
    32aa:	69bb      	ldr	r3, [r7, #24]
    32ac:	edd3 7a00 	vldr	s15, [r3]
    32b0:	eef1 7a67 	vneg.f32	s15, s15
    32b4:	69bb      	ldr	r3, [r7, #24]
    32b6:	edc3 7a00 	vstr	s15, [r3]
    32ba:	69bb      	ldr	r3, [r7, #24]
    32bc:	3308      	adds	r3, #8
    32be:	61bb      	str	r3, [r7, #24]
    32c0:	69fb      	ldr	r3, [r7, #28]
    32c2:	3301      	adds	r3, #1
    32c4:	61fb      	str	r3, [r7, #28]
    32c6:	69fa      	ldr	r2, [r7, #28]
    32c8:	697b      	ldr	r3, [r7, #20]
    32ca:	429a      	cmp	r2, r3
    32cc:	d3ed      	bcc.n	32aa <arm_cfft_f32+0x2e>
    32ce:	697b      	ldr	r3, [r7, #20]
    32d0:	f5b3 7f80 	cmp.w	r3, #256	; 0x100
    32d4:	d024      	beq.n	3320 <arm_cfft_f32+0xa4>
    32d6:	f5b3 7f80 	cmp.w	r3, #256	; 0x100
    32da:	d80b      	bhi.n	32f4 <arm_cfft_f32+0x78>
    32dc:	2b20      	cmp	r3, #32
    32de:	d01f      	beq.n	3320 <arm_cfft_f32+0xa4>
    32e0:	2b20      	cmp	r3, #32
    32e2:	d802      	bhi.n	32ea <arm_cfft_f32+0x6e>
    32e4:	2b10      	cmp	r3, #16
    32e6:	d016      	beq.n	3316 <arm_cfft_f32+0x9a>
    32e8:	e028      	b.n	333c <arm_cfft_f32+0xc0>
    32ea:	2b40      	cmp	r3, #64	; 0x40
    32ec:	d01d      	beq.n	332a <arm_cfft_f32+0xae>
    32ee:	2b80      	cmp	r3, #128	; 0x80
    32f0:	d011      	beq.n	3316 <arm_cfft_f32+0x9a>
    32f2:	e023      	b.n	333c <arm_cfft_f32+0xc0>
    32f4:	f5b3 6f80 	cmp.w	r3, #1024	; 0x400
    32f8:	d00d      	beq.n	3316 <arm_cfft_f32+0x9a>
    32fa:	f5b3 6f80 	cmp.w	r3, #1024	; 0x400
    32fe:	d803      	bhi.n	3308 <arm_cfft_f32+0x8c>
    3300:	f5b3 7f00 	cmp.w	r3, #512	; 0x200
    3304:	d011      	beq.n	332a <arm_cfft_f32+0xae>
    3306:	e019      	b.n	333c <arm_cfft_f32+0xc0>
    3308:	f5b3 6f00 	cmp.w	r3, #2048	; 0x800
    330c:	d008      	beq.n	3320 <arm_cfft_f32+0xa4>
    330e:	f5b3 5f80 	cmp.w	r3, #4096	; 0x1000
    3312:	d00a      	beq.n	332a <arm_cfft_f32+0xae>
    3314:	e012      	b.n	333c <arm_cfft_f32+0xc0>
    3316:	68b9      	ldr	r1, [r7, #8]
    3318:	68f8      	ldr	r0, [r7, #12]
    331a:	f7fe ff8f 	bl	223c <arm_cfft_radix8by2_f32>
    331e:	e00d      	b.n	333c <arm_cfft_f32+0xc0>
    3320:	68b9      	ldr	r1, [r7, #8]
    3322:	68f8      	ldr	r0, [r7, #12]
    3324:	f7ff f97e 	bl	2624 <arm_cfft_radix8by4_f32>
    3328:	e008      	b.n	333c <arm_cfft_f32+0xc0>
    332a:	697b      	ldr	r3, [r7, #20]
    332c:	b299      	uxth	r1, r3
    332e:	68fb      	ldr	r3, [r7, #12]
    3330:	685a      	ldr	r2, [r3, #4]
    3332:	2301      	movs	r3, #1
    3334:	68b8      	ldr	r0, [r7, #8]
    3336:	f000 f845 	bl	33c4 <arm_radix8_butterfly_f32>
    333a:	bf00      	nop
    333c:	79bb      	ldrb	r3, [r7, #6]
    333e:	2b00      	cmp	r3, #0
    3340:	d007      	beq.n	3352 <arm_cfft_f32+0xd6>
    3342:	68fb      	ldr	r3, [r7, #12]
    3344:	8999      	ldrh	r1, [r3, #12]
    3346:	68fb      	ldr	r3, [r7, #12]
    3348:	689b      	ldr	r3, [r3, #8]
    334a:	461a      	mov	r2, r3
    334c:	68b8      	ldr	r0, [r7, #8]
    334e:	f002 fb65 	bl	5a1c <arm_bitreversal_32>
    3352:	79fb      	ldrb	r3, [r7, #7]
    3354:	2b01      	cmp	r3, #1
    3356:	d130      	bne.n	33ba <arm_cfft_f32+0x13e>
    3358:	697b      	ldr	r3, [r7, #20]
    335a:	ee07 3a90 	vmov	s15, r3
    335e:	eeb8 7a67 	vcvt.f32.u32	s14, s15
    3362:	eef7 6a00 	vmov.f32	s13, #112	; 0x3f800000  1.0
    3366:	eec6 7a87 	vdiv.f32	s15, s13, s14
    336a:	edc7 7a04 	vstr	s15, [r7, #16]
    336e:	68bb      	ldr	r3, [r7, #8]
    3370:	61bb      	str	r3, [r7, #24]
    3372:	2300      	movs	r3, #0
    3374:	61fb      	str	r3, [r7, #28]
    3376:	e01c      	b.n	33b2 <arm_cfft_f32+0x136>
    3378:	69bb      	ldr	r3, [r7, #24]
    337a:	1d1a      	adds	r2, r3, #4
    337c:	61ba      	str	r2, [r7, #24]
    337e:	ed93 7a00 	vldr	s14, [r3]
    3382:	edd7 7a04 	vldr	s15, [r7, #16]
    3386:	ee67 7a27 	vmul.f32	s15, s14, s15
    338a:	edc3 7a00 	vstr	s15, [r3]
    338e:	69bb      	ldr	r3, [r7, #24]
    3390:	edd3 7a00 	vldr	s15, [r3]
    3394:	eeb1 7a67 	vneg.f32	s14, s15
    3398:	edd7 7a04 	vldr	s15, [r7, #16]
    339c:	ee67 7a27 	vmul.f32	s15, s14, s15
    33a0:	69bb      	ldr	r3, [r7, #24]
    33a2:	edc3 7a00 	vstr	s15, [r3]
    33a6:	69bb      	ldr	r3, [r7, #24]
    33a8:	3304      	adds	r3, #4
    33aa:	61bb      	str	r3, [r7, #24]
    33ac:	69fb      	ldr	r3, [r7, #28]
    33ae:	3301      	adds	r3, #1
    33b0:	61fb      	str	r3, [r7, #28]
    33b2:	69fa      	ldr	r2, [r7, #28]
    33b4:	697b      	ldr	r3, [r7, #20]
    33b6:	429a      	cmp	r2, r3
    33b8:	d3de      	bcc.n	3378 <arm_cfft_f32+0xfc>
    33ba:	bf00      	nop
    33bc:	3720      	adds	r7, #32
    33be:	46bd      	mov	sp, r7
    33c0:	bd80      	pop	{r7, pc}
    33c2:	bf00      	nop

000033c4 <arm_radix8_butterfly_f32>:
    33c4:	b480      	push	{r7}
    33c6:	b0bd      	sub	sp, #244	; 0xf4
    33c8:	af00      	add	r7, sp, #0
    33ca:	60f8      	str	r0, [r7, #12]
    33cc:	607a      	str	r2, [r7, #4]
    33ce:	461a      	mov	r2, r3
    33d0:	460b      	mov	r3, r1
    33d2:	817b      	strh	r3, [r7, #10]
    33d4:	4613      	mov	r3, r2
    33d6:	813b      	strh	r3, [r7, #8]
    33d8:	4b09      	ldr	r3, [pc, #36]	; (3400 <arm_radix8_butterfly_f32+0x3c>)
    33da:	f8c7 30dc 	str.w	r3, [r7, #220]	; 0xdc
    33de:	897b      	ldrh	r3, [r7, #10]
    33e0:	f8c7 30e4 	str.w	r3, [r7, #228]	; 0xe4
    33e4:	f8d7 30e4 	ldr.w	r3, [r7, #228]	; 0xe4
    33e8:	f8c7 30d8 	str.w	r3, [r7, #216]	; 0xd8
    33ec:	f8d7 30e4 	ldr.w	r3, [r7, #228]	; 0xe4
    33f0:	08db      	lsrs	r3, r3, #3
    33f2:	f8c7 30e4 	str.w	r3, [r7, #228]	; 0xe4
    33f6:	2300      	movs	r3, #0
    33f8:	f8c7 30e8 	str.w	r3, [r7, #232]	; 0xe8
    33fc:	e002      	b.n	3404 <arm_radix8_butterfly_f32+0x40>
    33fe:	bf00      	nop
    3400:	3f3504f3 	.word	0x3f3504f3
    3404:	f8d7 20e8 	ldr.w	r2, [r7, #232]	; 0xe8
    3408:	f8d7 30e4 	ldr.w	r3, [r7, #228]	; 0xe4
    340c:	4413      	add	r3, r2
    340e:	f8c7 30d4 	str.w	r3, [r7, #212]	; 0xd4
    3412:	f8d7 20d4 	ldr.w	r2, [r7, #212]	; 0xd4
    3416:	f8d7 30e4 	ldr.w	r3, [r7, #228]	; 0xe4
    341a:	4413      	add	r3, r2
    341c:	f8c7 30d0 	str.w	r3, [r7, #208]	; 0xd0
    3420:	f8d7 20d0 	ldr.w	r2, [r7, #208]	; 0xd0
    3424:	f8d7 30e4 	ldr.w	r3, [r7, #228]	; 0xe4
    3428:	4413      	add	r3, r2
    342a:	f8c7 30cc 	str.w	r3, [r7, #204]	; 0xcc
    342e:	f8d7 20cc 	ldr.w	r2, [r7, #204]	; 0xcc
    3432:	f8d7 30e4 	ldr.w	r3, [r7, #228]	; 0xe4
    3436:	4413      	add	r3, r2
    3438:	f8c7 30c8 	str.w	r3, [r7, #200]	; 0xc8
    343c:	f8d7 20c8 	ldr.w	r2, [r7, #200]	; 0xc8
    3440:	f8d7 30e4 	ldr.w	r3, [r7, #228]	; 0xe4
    3444:	4413      	add	r3, r2
    3446:	f8c7 30c4 	str.w	r3, [r7, #196]	; 0xc4
    344a:	f8d7 20c4 	ldr.w	r2, [r7, #196]	; 0xc4
    344e:	f8d7 30e4 	ldr.w	r3, [r7, #228]	; 0xe4
    3452:	4413      	add	r3, r2
    3454:	f8c7 30c0 	str.w	r3, [r7, #192]	; 0xc0
    3458:	f8d7 20c0 	ldr.w	r2, [r7, #192]	; 0xc0
    345c:	f8d7 30e4 	ldr.w	r3, [r7, #228]	; 0xe4
    3460:	4413      	add	r3, r2
    3462:	f8c7 30bc 	str.w	r3, [r7, #188]	; 0xbc
    3466:	f8d7 30e8 	ldr.w	r3, [r7, #232]	; 0xe8
    346a:	00db      	lsls	r3, r3, #3
    346c:	68fa      	ldr	r2, [r7, #12]
    346e:	4413      	add	r3, r2
    3470:	ed93 7a00 	vldr	s14, [r3]
    3474:	f8d7 30c8 	ldr.w	r3, [r7, #200]	; 0xc8
    3478:	00db      	lsls	r3, r3, #3
    347a:	68fa      	ldr	r2, [r7, #12]
    347c:	4413      	add	r3, r2
    347e:	edd3 7a00 	vldr	s15, [r3]
    3482:	ee77 7a27 	vadd.f32	s15, s14, s15
    3486:	edc7 7a2e 	vstr	s15, [r7, #184]	; 0xb8
    348a:	f8d7 30e8 	ldr.w	r3, [r7, #232]	; 0xe8
    348e:	00db      	lsls	r3, r3, #3
    3490:	68fa      	ldr	r2, [r7, #12]
    3492:	4413      	add	r3, r2
    3494:	ed93 7a00 	vldr	s14, [r3]
    3498:	f8d7 30c8 	ldr.w	r3, [r7, #200]	; 0xc8
    349c:	00db      	lsls	r3, r3, #3
    349e:	68fa      	ldr	r2, [r7, #12]
    34a0:	4413      	add	r3, r2
    34a2:	edd3 7a00 	vldr	s15, [r3]
    34a6:	ee77 7a67 	vsub.f32	s15, s14, s15
    34aa:	edc7 7a2d 	vstr	s15, [r7, #180]	; 0xb4
    34ae:	f8d7 30d4 	ldr.w	r3, [r7, #212]	; 0xd4
    34b2:	00db      	lsls	r3, r3, #3
    34b4:	68fa      	ldr	r2, [r7, #12]
    34b6:	4413      	add	r3, r2
    34b8:	ed93 7a00 	vldr	s14, [r3]
    34bc:	f8d7 30c4 	ldr.w	r3, [r7, #196]	; 0xc4
    34c0:	00db      	lsls	r3, r3, #3
    34c2:	68fa      	ldr	r2, [r7, #12]
    34c4:	4413      	add	r3, r2
    34c6:	edd3 7a00 	vldr	s15, [r3]
    34ca:	ee77 7a27 	vadd.f32	s15, s14, s15
    34ce:	edc7 7a2c 	vstr	s15, [r7, #176]	; 0xb0
    34d2:	f8d7 30d4 	ldr.w	r3, [r7, #212]	; 0xd4
    34d6:	00db      	lsls	r3, r3, #3
    34d8:	68fa      	ldr	r2, [r7, #12]
    34da:	4413      	add	r3, r2
    34dc:	ed93 7a00 	vldr	s14, [r3]
    34e0:	f8d7 30c4 	ldr.w	r3, [r7, #196]	; 0xc4
    34e4:	00db      	lsls	r3, r3, #3
    34e6:	68fa      	ldr	r2, [r7, #12]
    34e8:	4413      	add	r3, r2
    34ea:	edd3 7a00 	vldr	s15, [r3]
    34ee:	ee77 7a67 	vsub.f32	s15, s14, s15
    34f2:	edc7 7a2b 	vstr	s15, [r7, #172]	; 0xac
    34f6:	f8d7 30d0 	ldr.w	r3, [r7, #208]	; 0xd0
    34fa:	00db      	lsls	r3, r3, #3
    34fc:	68fa      	ldr	r2, [r7, #12]
    34fe:	4413      	add	r3, r2
    3500:	ed93 7a00 	vldr	s14, [r3]
    3504:	f8d7 30c0 	ldr.w	r3, [r7, #192]	; 0xc0
    3508:	00db      	lsls	r3, r3, #3
    350a:	68fa      	ldr	r2, [r7, #12]
    350c:	4413      	add	r3, r2
    350e:	edd3 7a00 	vldr	s15, [r3]
    3512:	ee77 7a27 	vadd.f32	s15, s14, s15
    3516:	edc7 7a2a 	vstr	s15, [r7, #168]	; 0xa8
    351a:	f8d7 30d0 	ldr.w	r3, [r7, #208]	; 0xd0
    351e:	00db      	lsls	r3, r3, #3
    3520:	68fa      	ldr	r2, [r7, #12]
    3522:	4413      	add	r3, r2
    3524:	ed93 7a00 	vldr	s14, [r3]
    3528:	f8d7 30c0 	ldr.w	r3, [r7, #192]	; 0xc0
    352c:	00db      	lsls	r3, r3, #3
    352e:	68fa      	ldr	r2, [r7, #12]
    3530:	4413      	add	r3, r2
    3532:	edd3 7a00 	vldr	s15, [r3]
    3536:	ee77 7a67 	vsub.f32	s15, s14, s15
    353a:	edc7 7a29 	vstr	s15, [r7, #164]	; 0xa4
    353e:	f8d7 30cc 	ldr.w	r3, [r7, #204]	; 0xcc
    3542:	00db      	lsls	r3, r3, #3
    3544:	68fa      	ldr	r2, [r7, #12]
    3546:	4413      	add	r3, r2
    3548:	ed93 7a00 	vldr	s14, [r3]
    354c:	f8d7 30bc 	ldr.w	r3, [r7, #188]	; 0xbc
    3550:	00db      	lsls	r3, r3, #3
    3552:	68fa      	ldr	r2, [r7, #12]
    3554:	4413      	add	r3, r2
    3556:	edd3 7a00 	vldr	s15, [r3]
    355a:	ee77 7a27 	vadd.f32	s15, s14, s15
    355e:	edc7 7a28 	vstr	s15, [r7, #160]	; 0xa0
    3562:	f8d7 30cc 	ldr.w	r3, [r7, #204]	; 0xcc
    3566:	00db      	lsls	r3, r3, #3
    3568:	68fa      	ldr	r2, [r7, #12]
    356a:	4413      	add	r3, r2
    356c:	ed93 7a00 	vldr	s14, [r3]
    3570:	f8d7 30bc 	ldr.w	r3, [r7, #188]	; 0xbc
    3574:	00db      	lsls	r3, r3, #3
    3576:	68fa      	ldr	r2, [r7, #12]
    3578:	4413      	add	r3, r2
    357a:	edd3 7a00 	vldr	s15, [r3]
    357e:	ee77 7a67 	vsub.f32	s15, s14, s15
    3582:	edc7 7a27 	vstr	s15, [r7, #156]	; 0x9c
    3586:	ed97 7a2e 	vldr	s14, [r7, #184]	; 0xb8
    358a:	edd7 7a2a 	vldr	s15, [r7, #168]	; 0xa8
    358e:	ee77 7a67 	vsub.f32	s15, s14, s15
    3592:	edc7 7a26 	vstr	s15, [r7, #152]	; 0x98
    3596:	ed97 7a2e 	vldr	s14, [r7, #184]	; 0xb8
    359a:	edd7 7a2a 	vldr	s15, [r7, #168]	; 0xa8
    359e:	ee77 7a27 	vadd.f32	s15, s14, s15
    35a2:	edc7 7a2e 	vstr	s15, [r7, #184]	; 0xb8
    35a6:	ed97 7a2c 	vldr	s14, [r7, #176]	; 0xb0
    35aa:	edd7 7a28 	vldr	s15, [r7, #160]	; 0xa0
    35ae:	ee77 7a67 	vsub.f32	s15, s14, s15
    35b2:	edc7 7a2a 	vstr	s15, [r7, #168]	; 0xa8
    35b6:	ed97 7a2c 	vldr	s14, [r7, #176]	; 0xb0
    35ba:	edd7 7a28 	vldr	s15, [r7, #160]	; 0xa0
    35be:	ee77 7a27 	vadd.f32	s15, s14, s15
    35c2:	edc7 7a2c 	vstr	s15, [r7, #176]	; 0xb0
    35c6:	f8d7 30e8 	ldr.w	r3, [r7, #232]	; 0xe8
    35ca:	00db      	lsls	r3, r3, #3
    35cc:	68fa      	ldr	r2, [r7, #12]
    35ce:	4413      	add	r3, r2
    35d0:	ed97 7a2e 	vldr	s14, [r7, #184]	; 0xb8
    35d4:	edd7 7a2c 	vldr	s15, [r7, #176]	; 0xb0
    35d8:	ee77 7a27 	vadd.f32	s15, s14, s15
    35dc:	edc3 7a00 	vstr	s15, [r3]
    35e0:	f8d7 30c8 	ldr.w	r3, [r7, #200]	; 0xc8
    35e4:	00db      	lsls	r3, r3, #3
    35e6:	68fa      	ldr	r2, [r7, #12]
    35e8:	4413      	add	r3, r2
    35ea:	ed97 7a2e 	vldr	s14, [r7, #184]	; 0xb8
    35ee:	edd7 7a2c 	vldr	s15, [r7, #176]	; 0xb0
    35f2:	ee77 7a67 	vsub.f32	s15, s14, s15
    35f6:	edc3 7a00 	vstr	s15, [r3]
    35fa:	f8d7 30e8 	ldr.w	r3, [r7, #232]	; 0xe8
    35fe:	00db      	lsls	r3, r3, #3
    3600:	3304      	adds	r3, #4
    3602:	68fa      	ldr	r2, [r7, #12]
    3604:	4413      	add	r3, r2
    3606:	ed93 7a00 	vldr	s14, [r3]
    360a:	f8d7 30c8 	ldr.w	r3, [r7, #200]	; 0xc8
    360e:	00db      	lsls	r3, r3, #3
    3610:	3304      	adds	r3, #4
    3612:	68fa      	ldr	r2, [r7, #12]
    3614:	4413      	add	r3, r2
    3616:	edd3 7a00 	vldr	s15, [r3]
    361a:	ee77 7a27 	vadd.f32	s15, s14, s15
    361e:	edc7 7a2e 	vstr	s15, [r7, #184]	; 0xb8
    3622:	f8d7 30e8 	ldr.w	r3, [r7, #232]	; 0xe8
    3626:	00db      	lsls	r3, r3, #3
    3628:	3304      	adds	r3, #4
    362a:	68fa      	ldr	r2, [r7, #12]
    362c:	4413      	add	r3, r2
    362e:	ed93 7a00 	vldr	s14, [r3]
    3632:	f8d7 30c8 	ldr.w	r3, [r7, #200]	; 0xc8
    3636:	00db      	lsls	r3, r3, #3
    3638:	3304      	adds	r3, #4
    363a:	68fa      	ldr	r2, [r7, #12]
    363c:	4413      	add	r3, r2
    363e:	edd3 7a00 	vldr	s15, [r3]
    3642:	ee77 7a67 	vsub.f32	s15, s14, s15
    3646:	edc7 7a25 	vstr	s15, [r7, #148]	; 0x94
    364a:	f8d7 30d4 	ldr.w	r3, [r7, #212]	; 0xd4
    364e:	00db      	lsls	r3, r3, #3
    3650:	3304      	adds	r3, #4
    3652:	68fa      	ldr	r2, [r7, #12]
    3654:	4413      	add	r3, r2
    3656:	ed93 7a00 	vldr	s14, [r3]
    365a:	f8d7 30c4 	ldr.w	r3, [r7, #196]	; 0xc4
    365e:	00db      	lsls	r3, r3, #3
    3660:	3304      	adds	r3, #4
    3662:	68fa      	ldr	r2, [r7, #12]
    3664:	4413      	add	r3, r2
    3666:	edd3 7a00 	vldr	s15, [r3]
    366a:	ee77 7a27 	vadd.f32	s15, s14, s15
    366e:	edc7 7a2c 	vstr	s15, [r7, #176]	; 0xb0
    3672:	f8d7 30d4 	ldr.w	r3, [r7, #212]	; 0xd4
    3676:	00db      	lsls	r3, r3, #3
    3678:	3304      	adds	r3, #4
    367a:	68fa      	ldr	r2, [r7, #12]
    367c:	4413      	add	r3, r2
    367e:	ed93 7a00 	vldr	s14, [r3]
    3682:	f8d7 30c4 	ldr.w	r3, [r7, #196]	; 0xc4
    3686:	00db      	lsls	r3, r3, #3
    3688:	3304      	adds	r3, #4
    368a:	68fa      	ldr	r2, [r7, #12]
    368c:	4413      	add	r3, r2
    368e:	edd3 7a00 	vldr	s15, [r3]
    3692:	ee77 7a67 	vsub.f32	s15, s14, s15
    3696:	edc7 7a24 	vstr	s15, [r7, #144]	; 0x90
    369a:	f8d7 30d0 	ldr.w	r3, [r7, #208]	; 0xd0
    369e:	00db      	lsls	r3, r3, #3
    36a0:	3304      	adds	r3, #4
    36a2:	68fa      	ldr	r2, [r7, #12]
    36a4:	4413      	add	r3, r2
    36a6:	ed93 7a00 	vldr	s14, [r3]
    36aa:	f8d7 30c0 	ldr.w	r3, [r7, #192]	; 0xc0
    36ae:	00db      	lsls	r3, r3, #3
    36b0:	3304      	adds	r3, #4
    36b2:	68fa      	ldr	r2, [r7, #12]
    36b4:	4413      	add	r3, r2
    36b6:	edd3 7a00 	vldr	s15, [r3]
    36ba:	ee77 7a27 	vadd.f32	s15, s14, s15
    36be:	edc7 7a23 	vstr	s15, [r7, #140]	; 0x8c
    36c2:	f8d7 30d0 	ldr.w	r3, [r7, #208]	; 0xd0
    36c6:	00db      	lsls	r3, r3, #3
    36c8:	3304      	adds	r3, #4
    36ca:	68fa      	ldr	r2, [r7, #12]
    36cc:	4413      	add	r3, r2
    36ce:	ed93 7a00 	vldr	s14, [r3]
    36d2:	f8d7 30c0 	ldr.w	r3, [r7, #192]	; 0xc0
    36d6:	00db      	lsls	r3, r3, #3
    36d8:	3304      	adds	r3, #4
    36da:	68fa      	ldr	r2, [r7, #12]
    36dc:	4413      	add	r3, r2
    36de:	edd3 7a00 	vldr	s15, [r3]
    36e2:	ee77 7a67 	vsub.f32	s15, s14, s15
    36e6:	edc7 7a22 	vstr	s15, [r7, #136]	; 0x88
    36ea:	f8d7 30cc 	ldr.w	r3, [r7, #204]	; 0xcc
    36ee:	00db      	lsls	r3, r3, #3
    36f0:	3304      	adds	r3, #4
    36f2:	68fa      	ldr	r2, [r7, #12]
    36f4:	4413      	add	r3, r2
    36f6:	ed93 7a00 	vldr	s14, [r3]
    36fa:	f8d7 30bc 	ldr.w	r3, [r7, #188]	; 0xbc
    36fe:	00db      	lsls	r3, r3, #3
    3700:	3304      	adds	r3, #4
    3702:	68fa      	ldr	r2, [r7, #12]
    3704:	4413      	add	r3, r2
    3706:	edd3 7a00 	vldr	s15, [r3]
    370a:	ee77 7a27 	vadd.f32	s15, s14, s15
    370e:	edc7 7a28 	vstr	s15, [r7, #160]	; 0xa0
    3712:	f8d7 30cc 	ldr.w	r3, [r7, #204]	; 0xcc
    3716:	00db      	lsls	r3, r3, #3
    3718:	3304      	adds	r3, #4
    371a:	68fa      	ldr	r2, [r7, #12]
    371c:	4413      	add	r3, r2
    371e:	ed93 7a00 	vldr	s14, [r3]
    3722:	f8d7 30bc 	ldr.w	r3, [r7, #188]	; 0xbc
    3726:	00db      	lsls	r3, r3, #3
    3728:	3304      	adds	r3, #4
    372a:	68fa      	ldr	r2, [r7, #12]
    372c:	4413      	add	r3, r2
    372e:	edd3 7a00 	vldr	s15, [r3]
    3732:	ee77 7a67 	vsub.f32	s15, s14, s15
    3736:	edc7 7a21 	vstr	s15, [r7, #132]	; 0x84
    373a:	ed97 7a2e 	vldr	s14, [r7, #184]	; 0xb8
    373e:	edd7 7a23 	vldr	s15, [r7, #140]	; 0x8c
    3742:	ee77 7a67 	vsub.f32	s15, s14, s15
    3746:	edc7 7a20 	vstr	s15, [r7, #128]	; 0x80
    374a:	ed97 7a2e 	vldr	s14, [r7, #184]	; 0xb8
    374e:	edd7 7a23 	vldr	s15, [r7, #140]	; 0x8c
    3752:	ee77 7a27 	vadd.f32	s15, s14, s15
    3756:	edc7 7a2e 	vstr	s15, [r7, #184]	; 0xb8
    375a:	ed97 7a2c 	vldr	s14, [r7, #176]	; 0xb0
    375e:	edd7 7a28 	vldr	s15, [r7, #160]	; 0xa0
    3762:	ee77 7a67 	vsub.f32	s15, s14, s15
    3766:	edc7 7a23 	vstr	s15, [r7, #140]	; 0x8c
    376a:	ed97 7a2c 	vldr	s14, [r7, #176]	; 0xb0
    376e:	edd7 7a28 	vldr	s15, [r7, #160]	; 0xa0
    3772:	ee77 7a27 	vadd.f32	s15, s14, s15
    3776:	edc7 7a2c 	vstr	s15, [r7, #176]	; 0xb0
    377a:	f8d7 30e8 	ldr.w	r3, [r7, #232]	; 0xe8
    377e:	00db      	lsls	r3, r3, #3
    3780:	3304      	adds	r3, #4
    3782:	68fa      	ldr	r2, [r7, #12]
    3784:	4413      	add	r3, r2
    3786:	ed97 7a2e 	vldr	s14, [r7, #184]	; 0xb8
    378a:	edd7 7a2c 	vldr	s15, [r7, #176]	; 0xb0
    378e:	ee77 7a27 	vadd.f32	s15, s14, s15
    3792:	edc3 7a00 	vstr	s15, [r3]
    3796:	f8d7 30c8 	ldr.w	r3, [r7, #200]	; 0xc8
    379a:	00db      	lsls	r3, r3, #3
    379c:	3304      	adds	r3, #4
    379e:	68fa      	ldr	r2, [r7, #12]
    37a0:	4413      	add	r3, r2
    37a2:	ed97 7a2e 	vldr	s14, [r7, #184]	; 0xb8
    37a6:	edd7 7a2c 	vldr	s15, [r7, #176]	; 0xb0
    37aa:	ee77 7a67 	vsub.f32	s15, s14, s15
    37ae:	edc3 7a00 	vstr	s15, [r3]
    37b2:	f8d7 30d0 	ldr.w	r3, [r7, #208]	; 0xd0
    37b6:	00db      	lsls	r3, r3, #3
    37b8:	68fa      	ldr	r2, [r7, #12]
    37ba:	4413      	add	r3, r2
    37bc:	ed97 7a26 	vldr	s14, [r7, #152]	; 0x98
    37c0:	edd7 7a23 	vldr	s15, [r7, #140]	; 0x8c
    37c4:	ee77 7a27 	vadd.f32	s15, s14, s15
    37c8:	edc3 7a00 	vstr	s15, [r3]
    37cc:	f8d7 30c0 	ldr.w	r3, [r7, #192]	; 0xc0
    37d0:	00db      	lsls	r3, r3, #3
    37d2:	68fa      	ldr	r2, [r7, #12]
    37d4:	4413      	add	r3, r2
    37d6:	ed97 7a26 	vldr	s14, [r7, #152]	; 0x98
    37da:	edd7 7a23 	vldr	s15, [r7, #140]	; 0x8c
    37de:	ee77 7a67 	vsub.f32	s15, s14, s15
    37e2:	edc3 7a00 	vstr	s15, [r3]
    37e6:	f8d7 30d0 	ldr.w	r3, [r7, #208]	; 0xd0
    37ea:	00db      	lsls	r3, r3, #3
    37ec:	3304      	adds	r3, #4
    37ee:	68fa      	ldr	r2, [r7, #12]
    37f0:	4413      	add	r3, r2
    37f2:	ed97 7a20 	vldr	s14, [r7, #128]	; 0x80
    37f6:	edd7 7a2a 	vldr	s15, [r7, #168]	; 0xa8
    37fa:	ee77 7a67 	vsub.f32	s15, s14, s15
    37fe:	edc3 7a00 	vstr	s15, [r3]
    3802:	f8d7 30c0 	ldr.w	r3, [r7, #192]	; 0xc0
    3806:	00db      	lsls	r3, r3, #3
    3808:	3304      	adds	r3, #4
    380a:	68fa      	ldr	r2, [r7, #12]
    380c:	4413      	add	r3, r2
    380e:	ed97 7a20 	vldr	s14, [r7, #128]	; 0x80
    3812:	edd7 7a2a 	vldr	s15, [r7, #168]	; 0xa8
    3816:	ee77 7a27 	vadd.f32	s15, s14, s15
    381a:	edc3 7a00 	vstr	s15, [r3]
    381e:	ed97 7a2b 	vldr	s14, [r7, #172]	; 0xac
    3822:	edd7 7a27 	vldr	s15, [r7, #156]	; 0x9c
    3826:	ee37 7a67 	vsub.f32	s14, s14, s15
    382a:	edd7 7a37 	vldr	s15, [r7, #220]	; 0xdc
    382e:	ee67 7a27 	vmul.f32	s15, s14, s15
    3832:	edc7 7a2e 	vstr	s15, [r7, #184]	; 0xb8
    3836:	ed97 7a2b 	vldr	s14, [r7, #172]	; 0xac
    383a:	edd7 7a27 	vldr	s15, [r7, #156]	; 0x9c
    383e:	ee37 7a27 	vadd.f32	s14, s14, s15
    3842:	edd7 7a37 	vldr	s15, [r7, #220]	; 0xdc
    3846:	ee67 7a27 	vmul.f32	s15, s14, s15
    384a:	edc7 7a2b 	vstr	s15, [r7, #172]	; 0xac
    384e:	ed97 7a24 	vldr	s14, [r7, #144]	; 0x90
    3852:	edd7 7a21 	vldr	s15, [r7, #132]	; 0x84
    3856:	ee37 7a67 	vsub.f32	s14, s14, s15
    385a:	edd7 7a37 	vldr	s15, [r7, #220]	; 0xdc
    385e:	ee67 7a27 	vmul.f32	s15, s14, s15
    3862:	edc7 7a2c 	vstr	s15, [r7, #176]	; 0xb0
    3866:	ed97 7a24 	vldr	s14, [r7, #144]	; 0x90
    386a:	edd7 7a21 	vldr	s15, [r7, #132]	; 0x84
    386e:	ee37 7a27 	vadd.f32	s14, s14, s15
    3872:	edd7 7a37 	vldr	s15, [r7, #220]	; 0xdc
    3876:	ee67 7a27 	vmul.f32	s15, s14, s15
    387a:	edc7 7a24 	vstr	s15, [r7, #144]	; 0x90
    387e:	ed97 7a2d 	vldr	s14, [r7, #180]	; 0xb4
    3882:	edd7 7a2e 	vldr	s15, [r7, #184]	; 0xb8
    3886:	ee77 7a67 	vsub.f32	s15, s14, s15
    388a:	edc7 7a26 	vstr	s15, [r7, #152]	; 0x98
    388e:	ed97 7a2d 	vldr	s14, [r7, #180]	; 0xb4
    3892:	edd7 7a2e 	vldr	s15, [r7, #184]	; 0xb8
    3896:	ee77 7a27 	vadd.f32	s15, s14, s15
    389a:	edc7 7a2d 	vstr	s15, [r7, #180]	; 0xb4
    389e:	ed97 7a29 	vldr	s14, [r7, #164]	; 0xa4
    38a2:	edd7 7a2b 	vldr	s15, [r7, #172]	; 0xac
    38a6:	ee77 7a67 	vsub.f32	s15, s14, s15
    38aa:	edc7 7a27 	vstr	s15, [r7, #156]	; 0x9c
    38ae:	ed97 7a29 	vldr	s14, [r7, #164]	; 0xa4
    38b2:	edd7 7a2b 	vldr	s15, [r7, #172]	; 0xac
    38b6:	ee77 7a27 	vadd.f32	s15, s14, s15
    38ba:	edc7 7a29 	vstr	s15, [r7, #164]	; 0xa4
    38be:	ed97 7a25 	vldr	s14, [r7, #148]	; 0x94
    38c2:	edd7 7a2c 	vldr	s15, [r7, #176]	; 0xb0
    38c6:	ee77 7a67 	vsub.f32	s15, s14, s15
    38ca:	edc7 7a20 	vstr	s15, [r7, #128]	; 0x80
    38ce:	ed97 7a25 	vldr	s14, [r7, #148]	; 0x94
    38d2:	edd7 7a2c 	vldr	s15, [r7, #176]	; 0xb0
    38d6:	ee77 7a27 	vadd.f32	s15, s14, s15
    38da:	edc7 7a25 	vstr	s15, [r7, #148]	; 0x94
    38de:	ed97 7a22 	vldr	s14, [r7, #136]	; 0x88
    38e2:	edd7 7a24 	vldr	s15, [r7, #144]	; 0x90
    38e6:	ee77 7a67 	vsub.f32	s15, s14, s15
    38ea:	edc7 7a21 	vstr	s15, [r7, #132]	; 0x84
    38ee:	ed97 7a22 	vldr	s14, [r7, #136]	; 0x88
    38f2:	edd7 7a24 	vldr	s15, [r7, #144]	; 0x90
    38f6:	ee77 7a27 	vadd.f32	s15, s14, s15
    38fa:	edc7 7a22 	vstr	s15, [r7, #136]	; 0x88
    38fe:	f8d7 30d4 	ldr.w	r3, [r7, #212]	; 0xd4
    3902:	00db      	lsls	r3, r3, #3
    3904:	68fa      	ldr	r2, [r7, #12]
    3906:	4413      	add	r3, r2
    3908:	ed97 7a2d 	vldr	s14, [r7, #180]	; 0xb4
    390c:	edd7 7a22 	vldr	s15, [r7, #136]	; 0x88
    3910:	ee77 7a27 	vadd.f32	s15, s14, s15
    3914:	edc3 7a00 	vstr	s15, [r3]
    3918:	f8d7 30bc 	ldr.w	r3, [r7, #188]	; 0xbc
    391c:	00db      	lsls	r3, r3, #3
    391e:	68fa      	ldr	r2, [r7, #12]
    3920:	4413      	add	r3, r2
    3922:	ed97 7a2d 	vldr	s14, [r7, #180]	; 0xb4
    3926:	edd7 7a22 	vldr	s15, [r7, #136]	; 0x88
    392a:	ee77 7a67 	vsub.f32	s15, s14, s15
    392e:	edc3 7a00 	vstr	s15, [r3]
    3932:	f8d7 30c4 	ldr.w	r3, [r7, #196]	; 0xc4
    3936:	00db      	lsls	r3, r3, #3
    3938:	68fa      	ldr	r2, [r7, #12]
    393a:	4413      	add	r3, r2
    393c:	ed97 7a26 	vldr	s14, [r7, #152]	; 0x98
    3940:	edd7 7a21 	vldr	s15, [r7, #132]	; 0x84
    3944:	ee77 7a27 	vadd.f32	s15, s14, s15
    3948:	edc3 7a00 	vstr	s15, [r3]
    394c:	f8d7 30cc 	ldr.w	r3, [r7, #204]	; 0xcc
    3950:	00db      	lsls	r3, r3, #3
    3952:	68fa      	ldr	r2, [r7, #12]
    3954:	4413      	add	r3, r2
    3956:	ed97 7a26 	vldr	s14, [r7, #152]	; 0x98
    395a:	edd7 7a21 	vldr	s15, [r7, #132]	; 0x84
    395e:	ee77 7a67 	vsub.f32	s15, s14, s15
    3962:	edc3 7a00 	vstr	s15, [r3]
    3966:	f8d7 30d4 	ldr.w	r3, [r7, #212]	; 0xd4
    396a:	00db      	lsls	r3, r3, #3
    396c:	3304      	adds	r3, #4
    396e:	68fa      	ldr	r2, [r7, #12]
    3970:	4413      	add	r3, r2
    3972:	ed97 7a25 	vldr	s14, [r7, #148]	; 0x94
    3976:	edd7 7a29 	vldr	s15, [r7, #164]	; 0xa4
    397a:	ee77 7a67 	vsub.f32	s15, s14, s15
    397e:	edc3 7a00 	vstr	s15, [r3]
    3982:	f8d7 30bc 	ldr.w	r3, [r7, #188]	; 0xbc
    3986:	00db      	lsls	r3, r3, #3
    3988:	3304      	adds	r3, #4
    398a:	68fa      	ldr	r2, [r7, #12]
    398c:	4413      	add	r3, r2
    398e:	ed97 7a25 	vldr	s14, [r7, #148]	; 0x94
    3992:	edd7 7a29 	vldr	s15, [r7, #164]	; 0xa4
    3996:	ee77 7a27 	vadd.f32	s15, s14, s15
    399a:	edc3 7a00 	vstr	s15, [r3]
    399e:	f8d7 30c4 	ldr.w	r3, [r7, #196]	; 0xc4
    39a2:	00db      	lsls	r3, r3, #3
    39a4:	3304      	adds	r3, #4
    39a6:	68fa      	ldr	r2, [r7, #12]
    39a8:	4413      	add	r3, r2
    39aa:	ed97 7a20 	vldr	s14, [r7, #128]	; 0x80
    39ae:	edd7 7a27 	vldr	s15, [r7, #156]	; 0x9c
    39b2:	ee77 7a67 	vsub.f32	s15, s14, s15
    39b6:	edc3 7a00 	vstr	s15, [r3]
    39ba:	f8d7 30cc 	ldr.w	r3, [r7, #204]	; 0xcc
    39be:	00db      	lsls	r3, r3, #3
    39c0:	3304      	adds	r3, #4
    39c2:	68fa      	ldr	r2, [r7, #12]
    39c4:	4413      	add	r3, r2
    39c6:	ed97 7a20 	vldr	s14, [r7, #128]	; 0x80
    39ca:	edd7 7a27 	vldr	s15, [r7, #156]	; 0x9c
    39ce:	ee77 7a27 	vadd.f32	s15, s14, s15
    39d2:	edc3 7a00 	vstr	s15, [r3]
    39d6:	f8d7 20e8 	ldr.w	r2, [r7, #232]	; 0xe8
    39da:	f8d7 30d8 	ldr.w	r3, [r7, #216]	; 0xd8
    39de:	4413      	add	r3, r2
    39e0:	f8c7 30e8 	str.w	r3, [r7, #232]	; 0xe8
    39e4:	897a      	ldrh	r2, [r7, #10]
    39e6:	f8d7 30e8 	ldr.w	r3, [r7, #232]	; 0xe8
    39ea:	429a      	cmp	r2, r3
    39ec:	f63f ad0a 	bhi.w	3404 <arm_radix8_butterfly_f32+0x40>
    39f0:	f8d7 30e4 	ldr.w	r3, [r7, #228]	; 0xe4
    39f4:	2b07      	cmp	r3, #7
    39f6:	f240 84e3 	bls.w	43c0 <arm_radix8_butterfly_f32+0xffc>
    39fa:	2300      	movs	r3, #0
    39fc:	f8c7 30ec 	str.w	r3, [r7, #236]	; 0xec
    3a00:	2301      	movs	r3, #1
    3a02:	f8c7 30e0 	str.w	r3, [r7, #224]	; 0xe0
    3a06:	893a      	ldrh	r2, [r7, #8]
    3a08:	f8d7 30ec 	ldr.w	r3, [r7, #236]	; 0xec
    3a0c:	4413      	add	r3, r2
    3a0e:	67fb      	str	r3, [r7, #124]	; 0x7c
    3a10:	6ffb      	ldr	r3, [r7, #124]	; 0x7c
    3a12:	f8c7 30ec 	str.w	r3, [r7, #236]	; 0xec
    3a16:	f8d7 20ec 	ldr.w	r2, [r7, #236]	; 0xec
    3a1a:	6ffb      	ldr	r3, [r7, #124]	; 0x7c
    3a1c:	4413      	add	r3, r2
    3a1e:	67bb      	str	r3, [r7, #120]	; 0x78
    3a20:	6fba      	ldr	r2, [r7, #120]	; 0x78
    3a22:	6ffb      	ldr	r3, [r7, #124]	; 0x7c
    3a24:	4413      	add	r3, r2
    3a26:	677b      	str	r3, [r7, #116]	; 0x74
    3a28:	6f7a      	ldr	r2, [r7, #116]	; 0x74
    3a2a:	6ffb      	ldr	r3, [r7, #124]	; 0x7c
    3a2c:	4413      	add	r3, r2
    3a2e:	673b      	str	r3, [r7, #112]	; 0x70
    3a30:	6f3a      	ldr	r2, [r7, #112]	; 0x70
    3a32:	6ffb      	ldr	r3, [r7, #124]	; 0x7c
    3a34:	4413      	add	r3, r2
    3a36:	66fb      	str	r3, [r7, #108]	; 0x6c
    3a38:	6efa      	ldr	r2, [r7, #108]	; 0x6c
    3a3a:	6ffb      	ldr	r3, [r7, #124]	; 0x7c
    3a3c:	4413      	add	r3, r2
    3a3e:	66bb      	str	r3, [r7, #104]	; 0x68
    3a40:	6eba      	ldr	r2, [r7, #104]	; 0x68
    3a42:	6ffb      	ldr	r3, [r7, #124]	; 0x7c
    3a44:	4413      	add	r3, r2
    3a46:	667b      	str	r3, [r7, #100]	; 0x64
    3a48:	f8d7 30ec 	ldr.w	r3, [r7, #236]	; 0xec
    3a4c:	00db      	lsls	r3, r3, #3
    3a4e:	687a      	ldr	r2, [r7, #4]
    3a50:	4413      	add	r3, r2
    3a52:	681b      	ldr	r3, [r3, #0]
    3a54:	663b      	str	r3, [r7, #96]	; 0x60
    3a56:	6fbb      	ldr	r3, [r7, #120]	; 0x78
    3a58:	00db      	lsls	r3, r3, #3
    3a5a:	687a      	ldr	r2, [r7, #4]
    3a5c:	4413      	add	r3, r2
    3a5e:	681b      	ldr	r3, [r3, #0]
    3a60:	65fb      	str	r3, [r7, #92]	; 0x5c
    3a62:	6f7b      	ldr	r3, [r7, #116]	; 0x74
    3a64:	00db      	lsls	r3, r3, #3
    3a66:	687a      	ldr	r2, [r7, #4]
    3a68:	4413      	add	r3, r2
    3a6a:	681b      	ldr	r3, [r3, #0]
    3a6c:	65bb      	str	r3, [r7, #88]	; 0x58
    3a6e:	6f3b      	ldr	r3, [r7, #112]	; 0x70
    3a70:	00db      	lsls	r3, r3, #3
    3a72:	687a      	ldr	r2, [r7, #4]
    3a74:	4413      	add	r3, r2
    3a76:	681b      	ldr	r3, [r3, #0]
    3a78:	657b      	str	r3, [r7, #84]	; 0x54
    3a7a:	6efb      	ldr	r3, [r7, #108]	; 0x6c
    3a7c:	00db      	lsls	r3, r3, #3
    3a7e:	687a      	ldr	r2, [r7, #4]
    3a80:	4413      	add	r3, r2
    3a82:	681b      	ldr	r3, [r3, #0]
    3a84:	653b      	str	r3, [r7, #80]	; 0x50
    3a86:	6ebb      	ldr	r3, [r7, #104]	; 0x68
    3a88:	00db      	lsls	r3, r3, #3
    3a8a:	687a      	ldr	r2, [r7, #4]
    3a8c:	4413      	add	r3, r2
    3a8e:	681b      	ldr	r3, [r3, #0]
    3a90:	64fb      	str	r3, [r7, #76]	; 0x4c
    3a92:	6e7b      	ldr	r3, [r7, #100]	; 0x64
    3a94:	00db      	lsls	r3, r3, #3
    3a96:	687a      	ldr	r2, [r7, #4]
    3a98:	4413      	add	r3, r2
    3a9a:	681b      	ldr	r3, [r3, #0]
    3a9c:	64bb      	str	r3, [r7, #72]	; 0x48
    3a9e:	f8d7 30ec 	ldr.w	r3, [r7, #236]	; 0xec
    3aa2:	00db      	lsls	r3, r3, #3
    3aa4:	3304      	adds	r3, #4
    3aa6:	687a      	ldr	r2, [r7, #4]
    3aa8:	4413      	add	r3, r2
    3aaa:	681b      	ldr	r3, [r3, #0]
    3aac:	647b      	str	r3, [r7, #68]	; 0x44
    3aae:	6fbb      	ldr	r3, [r7, #120]	; 0x78
    3ab0:	00db      	lsls	r3, r3, #3
    3ab2:	3304      	adds	r3, #4
    3ab4:	687a      	ldr	r2, [r7, #4]
    3ab6:	4413      	add	r3, r2
    3ab8:	681b      	ldr	r3, [r3, #0]
    3aba:	643b      	str	r3, [r7, #64]	; 0x40
    3abc:	6f7b      	ldr	r3, [r7, #116]	; 0x74
    3abe:	00db      	lsls	r3, r3, #3
    3ac0:	3304      	adds	r3, #4
    3ac2:	687a      	ldr	r2, [r7, #4]
    3ac4:	4413      	add	r3, r2
    3ac6:	681b      	ldr	r3, [r3, #0]
    3ac8:	63fb      	str	r3, [r7, #60]	; 0x3c
    3aca:	6f3b      	ldr	r3, [r7, #112]	; 0x70
    3acc:	00db      	lsls	r3, r3, #3
    3ace:	3304      	adds	r3, #4
    3ad0:	687a      	ldr	r2, [r7, #4]
    3ad2:	4413      	add	r3, r2
    3ad4:	681b      	ldr	r3, [r3, #0]
    3ad6:	63bb      	str	r3, [r7, #56]	; 0x38
    3ad8:	6efb      	ldr	r3, [r7, #108]	; 0x6c
    3ada:	00db      	lsls	r3, r3, #3
    3adc:	3304      	adds	r3, #4
    3ade:	687a      	ldr	r2, [r7, #4]
    3ae0:	4413      	add	r3, r2
    3ae2:	681b      	ldr	r3, [r3, #0]
    3ae4:	637b      	str	r3, [r7, #52]	; 0x34
    3ae6:	6ebb      	ldr	r3, [r7, #104]	; 0x68
    3ae8:	00db      	lsls	r3, r3, #3
    3aea:	3304      	adds	r3, #4
    3aec:	687a      	ldr	r2, [r7, #4]
    3aee:	4413      	add	r3, r2
    3af0:	681b      	ldr	r3, [r3, #0]
    3af2:	633b      	str	r3, [r7, #48]	; 0x30
    3af4:	6e7b      	ldr	r3, [r7, #100]	; 0x64
    3af6:	00db      	lsls	r3, r3, #3
    3af8:	3304      	adds	r3, #4
    3afa:	687a      	ldr	r2, [r7, #4]
    3afc:	4413      	add	r3, r2
    3afe:	681b      	ldr	r3, [r3, #0]
    3b00:	62fb      	str	r3, [r7, #44]	; 0x2c
    3b02:	f8d7 30e0 	ldr.w	r3, [r7, #224]	; 0xe0
    3b06:	f8c7 30e8 	str.w	r3, [r7, #232]	; 0xe8
    3b0a:	f8d7 20e8 	ldr.w	r2, [r7, #232]	; 0xe8
    3b0e:	f8d7 30e4 	ldr.w	r3, [r7, #228]	; 0xe4
    3b12:	4413      	add	r3, r2
    3b14:	f8c7 30d4 	str.w	r3, [r7, #212]	; 0xd4
    3b18:	f8d7 20d4 	ldr.w	r2, [r7, #212]	; 0xd4
    3b1c:	f8d7 30e4 	ldr.w	r3, [r7, #228]	; 0xe4
    3b20:	4413      	add	r3, r2
    3b22:	f8c7 30d0 	str.w	r3, [r7, #208]	; 0xd0
    3b26:	f8d7 20d0 	ldr.w	r2, [r7, #208]	; 0xd0
    3b2a:	f8d7 30e4 	ldr.w	r3, [r7, #228]	; 0xe4
    3b2e:	4413      	add	r3, r2
    3b30:	f8c7 30cc 	str.w	r3, [r7, #204]	; 0xcc
    3b34:	f8d7 20cc 	ldr.w	r2, [r7, #204]	; 0xcc
    3b38:	f8d7 30e4 	ldr.w	r3, [r7, #228]	; 0xe4
    3b3c:	4413      	add	r3, r2
    3b3e:	f8c7 30c8 	str.w	r3, [r7, #200]	; 0xc8
    3b42:	f8d7 20c8 	ldr.w	r2, [r7, #200]	; 0xc8
    3b46:	f8d7 30e4 	ldr.w	r3, [r7, #228]	; 0xe4
    3b4a:	4413      	add	r3, r2
    3b4c:	f8c7 30c4 	str.w	r3, [r7, #196]	; 0xc4
    3b50:	f8d7 20c4 	ldr.w	r2, [r7, #196]	; 0xc4
    3b54:	f8d7 30e4 	ldr.w	r3, [r7, #228]	; 0xe4
    3b58:	4413      	add	r3, r2
    3b5a:	f8c7 30c0 	str.w	r3, [r7, #192]	; 0xc0
    3b5e:	f8d7 20c0 	ldr.w	r2, [r7, #192]	; 0xc0
    3b62:	f8d7 30e4 	ldr.w	r3, [r7, #228]	; 0xe4
    3b66:	4413      	add	r3, r2
    3b68:	f8c7 30bc 	str.w	r3, [r7, #188]	; 0xbc
    3b6c:	f8d7 30e8 	ldr.w	r3, [r7, #232]	; 0xe8
    3b70:	00db      	lsls	r3, r3, #3
    3b72:	68fa      	ldr	r2, [r7, #12]
    3b74:	4413      	add	r3, r2
    3b76:	ed93 7a00 	vldr	s14, [r3]
    3b7a:	f8d7 30c8 	ldr.w	r3, [r7, #200]	; 0xc8
    3b7e:	00db      	lsls	r3, r3, #3
    3b80:	68fa      	ldr	r2, [r7, #12]
    3b82:	4413      	add	r3, r2
    3b84:	edd3 7a00 	vldr	s15, [r3]
    3b88:	ee77 7a27 	vadd.f32	s15, s14, s15
    3b8c:	edc7 7a2e 	vstr	s15, [r7, #184]	; 0xb8
    3b90:	f8d7 30e8 	ldr.w	r3, [r7, #232]	; 0xe8
    3b94:	00db      	lsls	r3, r3, #3
    3b96:	68fa      	ldr	r2, [r7, #12]
    3b98:	4413      	add	r3, r2
    3b9a:	ed93 7a00 	vldr	s14, [r3]
    3b9e:	f8d7 30c8 	ldr.w	r3, [r7, #200]	; 0xc8
    3ba2:	00db      	lsls	r3, r3, #3
    3ba4:	68fa      	ldr	r2, [r7, #12]
    3ba6:	4413      	add	r3, r2
    3ba8:	edd3 7a00 	vldr	s15, [r3]
    3bac:	ee77 7a67 	vsub.f32	s15, s14, s15
    3bb0:	edc7 7a2d 	vstr	s15, [r7, #180]	; 0xb4
    3bb4:	f8d7 30d4 	ldr.w	r3, [r7, #212]	; 0xd4
    3bb8:	00db      	lsls	r3, r3, #3
    3bba:	68fa      	ldr	r2, [r7, #12]
    3bbc:	4413      	add	r3, r2
    3bbe:	ed93 7a00 	vldr	s14, [r3]
    3bc2:	f8d7 30c4 	ldr.w	r3, [r7, #196]	; 0xc4
    3bc6:	00db      	lsls	r3, r3, #3
    3bc8:	68fa      	ldr	r2, [r7, #12]
    3bca:	4413      	add	r3, r2
    3bcc:	edd3 7a00 	vldr	s15, [r3]
    3bd0:	ee77 7a27 	vadd.f32	s15, s14, s15
    3bd4:	edc7 7a2c 	vstr	s15, [r7, #176]	; 0xb0
    3bd8:	f8d7 30d4 	ldr.w	r3, [r7, #212]	; 0xd4
    3bdc:	00db      	lsls	r3, r3, #3
    3bde:	68fa      	ldr	r2, [r7, #12]
    3be0:	4413      	add	r3, r2
    3be2:	ed93 7a00 	vldr	s14, [r3]
    3be6:	f8d7 30c4 	ldr.w	r3, [r7, #196]	; 0xc4
    3bea:	00db      	lsls	r3, r3, #3
    3bec:	68fa      	ldr	r2, [r7, #12]
    3bee:	4413      	add	r3, r2
    3bf0:	edd3 7a00 	vldr	s15, [r3]
    3bf4:	ee77 7a67 	vsub.f32	s15, s14, s15
    3bf8:	edc7 7a2b 	vstr	s15, [r7, #172]	; 0xac
    3bfc:	f8d7 30d0 	ldr.w	r3, [r7, #208]	; 0xd0
    3c00:	00db      	lsls	r3, r3, #3
    3c02:	68fa      	ldr	r2, [r7, #12]
    3c04:	4413      	add	r3, r2
    3c06:	ed93 7a00 	vldr	s14, [r3]
    3c0a:	f8d7 30c0 	ldr.w	r3, [r7, #192]	; 0xc0
    3c0e:	00db      	lsls	r3, r3, #3
    3c10:	68fa      	ldr	r2, [r7, #12]
    3c12:	4413      	add	r3, r2
    3c14:	edd3 7a00 	vldr	s15, [r3]
    3c18:	ee77 7a27 	vadd.f32	s15, s14, s15
    3c1c:	edc7 7a2a 	vstr	s15, [r7, #168]	; 0xa8
    3c20:	f8d7 30d0 	ldr.w	r3, [r7, #208]	; 0xd0
    3c24:	00db      	lsls	r3, r3, #3
    3c26:	68fa      	ldr	r2, [r7, #12]
    3c28:	4413      	add	r3, r2
    3c2a:	ed93 7a00 	vldr	s14, [r3]
    3c2e:	f8d7 30c0 	ldr.w	r3, [r7, #192]	; 0xc0
    3c32:	00db      	lsls	r3, r3, #3
    3c34:	68fa      	ldr	r2, [r7, #12]
    3c36:	4413      	add	r3, r2
    3c38:	edd3 7a00 	vldr	s15, [r3]
    3c3c:	ee77 7a67 	vsub.f32	s15, s14, s15
    3c40:	edc7 7a29 	vstr	s15, [r7, #164]	; 0xa4
    3c44:	f8d7 30cc 	ldr.w	r3, [r7, #204]	; 0xcc
    3c48:	00db      	lsls	r3, r3, #3
    3c4a:	68fa      	ldr	r2, [r7, #12]
    3c4c:	4413      	add	r3, r2
    3c4e:	ed93 7a00 	vldr	s14, [r3]
    3c52:	f8d7 30bc 	ldr.w	r3, [r7, #188]	; 0xbc
    3c56:	00db      	lsls	r3, r3, #3
    3c58:	68fa      	ldr	r2, [r7, #12]
    3c5a:	4413      	add	r3, r2
    3c5c:	edd3 7a00 	vldr	s15, [r3]
    3c60:	ee77 7a27 	vadd.f32	s15, s14, s15
    3c64:	edc7 7a28 	vstr	s15, [r7, #160]	; 0xa0
    3c68:	f8d7 30cc 	ldr.w	r3, [r7, #204]	; 0xcc
    3c6c:	00db      	lsls	r3, r3, #3
    3c6e:	68fa      	ldr	r2, [r7, #12]
    3c70:	4413      	add	r3, r2
    3c72:	ed93 7a00 	vldr	s14, [r3]
    3c76:	f8d7 30bc 	ldr.w	r3, [r7, #188]	; 0xbc
    3c7a:	00db      	lsls	r3, r3, #3
    3c7c:	68fa      	ldr	r2, [r7, #12]
    3c7e:	4413      	add	r3, r2
    3c80:	edd3 7a00 	vldr	s15, [r3]
    3c84:	ee77 7a67 	vsub.f32	s15, s14, s15
    3c88:	edc7 7a27 	vstr	s15, [r7, #156]	; 0x9c
    3c8c:	ed97 7a2e 	vldr	s14, [r7, #184]	; 0xb8
    3c90:	edd7 7a2a 	vldr	s15, [r7, #168]	; 0xa8
    3c94:	ee77 7a67 	vsub.f32	s15, s14, s15
    3c98:	edc7 7a26 	vstr	s15, [r7, #152]	; 0x98
    3c9c:	ed97 7a2e 	vldr	s14, [r7, #184]	; 0xb8
    3ca0:	edd7 7a2a 	vldr	s15, [r7, #168]	; 0xa8
    3ca4:	ee77 7a27 	vadd.f32	s15, s14, s15
    3ca8:	edc7 7a2e 	vstr	s15, [r7, #184]	; 0xb8
    3cac:	ed97 7a2c 	vldr	s14, [r7, #176]	; 0xb0
    3cb0:	edd7 7a28 	vldr	s15, [r7, #160]	; 0xa0
    3cb4:	ee77 7a67 	vsub.f32	s15, s14, s15
    3cb8:	edc7 7a2a 	vstr	s15, [r7, #168]	; 0xa8
    3cbc:	ed97 7a2c 	vldr	s14, [r7, #176]	; 0xb0
    3cc0:	edd7 7a28 	vldr	s15, [r7, #160]	; 0xa0
    3cc4:	ee77 7a27 	vadd.f32	s15, s14, s15
    3cc8:	edc7 7a2c 	vstr	s15, [r7, #176]	; 0xb0
    3ccc:	f8d7 30e8 	ldr.w	r3, [r7, #232]	; 0xe8
    3cd0:	00db      	lsls	r3, r3, #3
    3cd2:	68fa      	ldr	r2, [r7, #12]
    3cd4:	4413      	add	r3, r2
    3cd6:	ed97 7a2e 	vldr	s14, [r7, #184]	; 0xb8
    3cda:	edd7 7a2c 	vldr	s15, [r7, #176]	; 0xb0
    3cde:	ee77 7a27 	vadd.f32	s15, s14, s15
    3ce2:	edc3 7a00 	vstr	s15, [r3]
    3ce6:	ed97 7a2e 	vldr	s14, [r7, #184]	; 0xb8
    3cea:	edd7 7a2c 	vldr	s15, [r7, #176]	; 0xb0
    3cee:	ee77 7a67 	vsub.f32	s15, s14, s15
    3cf2:	edc7 7a2c 	vstr	s15, [r7, #176]	; 0xb0
    3cf6:	f8d7 30e8 	ldr.w	r3, [r7, #232]	; 0xe8
    3cfa:	00db      	lsls	r3, r3, #3
    3cfc:	3304      	adds	r3, #4
    3cfe:	68fa      	ldr	r2, [r7, #12]
    3d00:	4413      	add	r3, r2
    3d02:	ed93 7a00 	vldr	s14, [r3]
    3d06:	f8d7 30c8 	ldr.w	r3, [r7, #200]	; 0xc8
    3d0a:	00db      	lsls	r3, r3, #3
    3d0c:	3304      	adds	r3, #4
    3d0e:	68fa      	ldr	r2, [r7, #12]
    3d10:	4413      	add	r3, r2
    3d12:	edd3 7a00 	vldr	s15, [r3]
    3d16:	ee77 7a27 	vadd.f32	s15, s14, s15
    3d1a:	edc7 7a0a 	vstr	s15, [r7, #40]	; 0x28
    3d1e:	f8d7 30e8 	ldr.w	r3, [r7, #232]	; 0xe8
    3d22:	00db      	lsls	r3, r3, #3
    3d24:	3304      	adds	r3, #4
    3d26:	68fa      	ldr	r2, [r7, #12]
    3d28:	4413      	add	r3, r2
    3d2a:	ed93 7a00 	vldr	s14, [r3]
    3d2e:	f8d7 30c8 	ldr.w	r3, [r7, #200]	; 0xc8
    3d32:	00db      	lsls	r3, r3, #3
    3d34:	3304      	adds	r3, #4
    3d36:	68fa      	ldr	r2, [r7, #12]
    3d38:	4413      	add	r3, r2
    3d3a:	edd3 7a00 	vldr	s15, [r3]
    3d3e:	ee77 7a67 	vsub.f32	s15, s14, s15
    3d42:	edc7 7a25 	vstr	s15, [r7, #148]	; 0x94
    3d46:	f8d7 30d4 	ldr.w	r3, [r7, #212]	; 0xd4
    3d4a:	00db      	lsls	r3, r3, #3
    3d4c:	3304      	adds	r3, #4
    3d4e:	68fa      	ldr	r2, [r7, #12]
    3d50:	4413      	add	r3, r2
    3d52:	ed93 7a00 	vldr	s14, [r3]
    3d56:	f8d7 30c4 	ldr.w	r3, [r7, #196]	; 0xc4
    3d5a:	00db      	lsls	r3, r3, #3
    3d5c:	3304      	adds	r3, #4
    3d5e:	68fa      	ldr	r2, [r7, #12]
    3d60:	4413      	add	r3, r2
    3d62:	edd3 7a00 	vldr	s15, [r3]
    3d66:	ee77 7a27 	vadd.f32	s15, s14, s15
    3d6a:	edc7 7a09 	vstr	s15, [r7, #36]	; 0x24
    3d6e:	f8d7 30d4 	ldr.w	r3, [r7, #212]	; 0xd4
    3d72:	00db      	lsls	r3, r3, #3
    3d74:	3304      	adds	r3, #4
    3d76:	68fa      	ldr	r2, [r7, #12]
    3d78:	4413      	add	r3, r2
    3d7a:	ed93 7a00 	vldr	s14, [r3]
    3d7e:	f8d7 30c4 	ldr.w	r3, [r7, #196]	; 0xc4
    3d82:	00db      	lsls	r3, r3, #3
    3d84:	3304      	adds	r3, #4
    3d86:	68fa      	ldr	r2, [r7, #12]
    3d88:	4413      	add	r3, r2
    3d8a:	edd3 7a00 	vldr	s15, [r3]
    3d8e:	ee77 7a67 	vsub.f32	s15, s14, s15
    3d92:	edc7 7a24 	vstr	s15, [r7, #144]	; 0x90
    3d96:	f8d7 30d0 	ldr.w	r3, [r7, #208]	; 0xd0
    3d9a:	00db      	lsls	r3, r3, #3
    3d9c:	3304      	adds	r3, #4
    3d9e:	68fa      	ldr	r2, [r7, #12]
    3da0:	4413      	add	r3, r2
    3da2:	ed93 7a00 	vldr	s14, [r3]
    3da6:	f8d7 30c0 	ldr.w	r3, [r7, #192]	; 0xc0
    3daa:	00db      	lsls	r3, r3, #3
    3dac:	3304      	adds	r3, #4
    3dae:	68fa      	ldr	r2, [r7, #12]
    3db0:	4413      	add	r3, r2
    3db2:	edd3 7a00 	vldr	s15, [r3]
    3db6:	ee77 7a27 	vadd.f32	s15, s14, s15
    3dba:	edc7 7a23 	vstr	s15, [r7, #140]	; 0x8c
    3dbe:	f8d7 30d0 	ldr.w	r3, [r7, #208]	; 0xd0
    3dc2:	00db      	lsls	r3, r3, #3
    3dc4:	3304      	adds	r3, #4
    3dc6:	68fa      	ldr	r2, [r7, #12]
    3dc8:	4413      	add	r3, r2
    3dca:	ed93 7a00 	vldr	s14, [r3]
    3dce:	f8d7 30c0 	ldr.w	r3, [r7, #192]	; 0xc0
    3dd2:	00db      	lsls	r3, r3, #3
    3dd4:	3304      	adds	r3, #4
    3dd6:	68fa      	ldr	r2, [r7, #12]
    3dd8:	4413      	add	r3, r2
    3dda:	edd3 7a00 	vldr	s15, [r3]
    3dde:	ee77 7a67 	vsub.f32	s15, s14, s15
    3de2:	edc7 7a22 	vstr	s15, [r7, #136]	; 0x88
    3de6:	f8d7 30cc 	ldr.w	r3, [r7, #204]	; 0xcc
    3dea:	00db      	lsls	r3, r3, #3
    3dec:	3304      	adds	r3, #4
    3dee:	68fa      	ldr	r2, [r7, #12]
    3df0:	4413      	add	r3, r2
    3df2:	ed93 7a00 	vldr	s14, [r3]
    3df6:	f8d7 30bc 	ldr.w	r3, [r7, #188]	; 0xbc
    3dfa:	00db      	lsls	r3, r3, #3
    3dfc:	3304      	adds	r3, #4
    3dfe:	68fa      	ldr	r2, [r7, #12]
    3e00:	4413      	add	r3, r2
    3e02:	edd3 7a00 	vldr	s15, [r3]
    3e06:	ee77 7a27 	vadd.f32	s15, s14, s15
    3e0a:	edc7 7a08 	vstr	s15, [r7, #32]
    3e0e:	f8d7 30cc 	ldr.w	r3, [r7, #204]	; 0xcc
    3e12:	00db      	lsls	r3, r3, #3
    3e14:	3304      	adds	r3, #4
    3e16:	68fa      	ldr	r2, [r7, #12]
    3e18:	4413      	add	r3, r2
    3e1a:	ed93 7a00 	vldr	s14, [r3]
    3e1e:	f8d7 30bc 	ldr.w	r3, [r7, #188]	; 0xbc
    3e22:	00db      	lsls	r3, r3, #3
    3e24:	3304      	adds	r3, #4
    3e26:	68fa      	ldr	r2, [r7, #12]
    3e28:	4413      	add	r3, r2
    3e2a:	edd3 7a00 	vldr	s15, [r3]
    3e2e:	ee77 7a67 	vsub.f32	s15, s14, s15
    3e32:	edc7 7a21 	vstr	s15, [r7, #132]	; 0x84
    3e36:	ed97 7a0a 	vldr	s14, [r7, #40]	; 0x28
    3e3a:	edd7 7a23 	vldr	s15, [r7, #140]	; 0x8c
    3e3e:	ee77 7a67 	vsub.f32	s15, s14, s15
    3e42:	edc7 7a20 	vstr	s15, [r7, #128]	; 0x80
    3e46:	ed97 7a0a 	vldr	s14, [r7, #40]	; 0x28
    3e4a:	edd7 7a23 	vldr	s15, [r7, #140]	; 0x8c
    3e4e:	ee77 7a27 	vadd.f32	s15, s14, s15
    3e52:	edc7 7a0a 	vstr	s15, [r7, #40]	; 0x28
    3e56:	ed97 7a09 	vldr	s14, [r7, #36]	; 0x24
    3e5a:	edd7 7a08 	vldr	s15, [r7, #32]
    3e5e:	ee77 7a67 	vsub.f32	s15, s14, s15
    3e62:	edc7 7a23 	vstr	s15, [r7, #140]	; 0x8c
    3e66:	ed97 7a09 	vldr	s14, [r7, #36]	; 0x24
    3e6a:	edd7 7a08 	vldr	s15, [r7, #32]
    3e6e:	ee77 7a27 	vadd.f32	s15, s14, s15
    3e72:	edc7 7a09 	vstr	s15, [r7, #36]	; 0x24
    3e76:	ed97 7a26 	vldr	s14, [r7, #152]	; 0x98
    3e7a:	edd7 7a23 	vldr	s15, [r7, #140]	; 0x8c
    3e7e:	ee77 7a27 	vadd.f32	s15, s14, s15
    3e82:	edc7 7a2e 	vstr	s15, [r7, #184]	; 0xb8
    3e86:	ed97 7a26 	vldr	s14, [r7, #152]	; 0x98
    3e8a:	edd7 7a23 	vldr	s15, [r7, #140]	; 0x8c
    3e8e:	ee77 7a67 	vsub.f32	s15, s14, s15
    3e92:	edc7 7a26 	vstr	s15, [r7, #152]	; 0x98
    3e96:	f8d7 30e8 	ldr.w	r3, [r7, #232]	; 0xe8
    3e9a:	00db      	lsls	r3, r3, #3
    3e9c:	3304      	adds	r3, #4
    3e9e:	68fa      	ldr	r2, [r7, #12]
    3ea0:	4413      	add	r3, r2
    3ea2:	ed97 7a0a 	vldr	s14, [r7, #40]	; 0x28
    3ea6:	edd7 7a09 	vldr	s15, [r7, #36]	; 0x24
    3eaa:	ee77 7a27 	vadd.f32	s15, s14, s15
    3eae:	edc3 7a00 	vstr	s15, [r3]
    3eb2:	ed97 7a0a 	vldr	s14, [r7, #40]	; 0x28
    3eb6:	edd7 7a09 	vldr	s15, [r7, #36]	; 0x24
    3eba:	ee77 7a67 	vsub.f32	s15, s14, s15
    3ebe:	edc7 7a09 	vstr	s15, [r7, #36]	; 0x24
    3ec2:	ed97 7a20 	vldr	s14, [r7, #128]	; 0x80
    3ec6:	edd7 7a2a 	vldr	s15, [r7, #168]	; 0xa8
    3eca:	ee77 7a67 	vsub.f32	s15, s14, s15
    3ece:	edc7 7a0a 	vstr	s15, [r7, #40]	; 0x28
    3ed2:	ed97 7a20 	vldr	s14, [r7, #128]	; 0x80
    3ed6:	edd7 7a2a 	vldr	s15, [r7, #168]	; 0xa8
    3eda:	ee77 7a27 	vadd.f32	s15, s14, s15
    3ede:	edc7 7a20 	vstr	s15, [r7, #128]	; 0x80
    3ee2:	ed97 7a15 	vldr	s14, [r7, #84]	; 0x54
    3ee6:	edd7 7a2c 	vldr	s15, [r7, #176]	; 0xb0
    3eea:	ee67 7a27 	vmul.f32	s15, s14, s15
    3eee:	edc7 7a07 	vstr	s15, [r7, #28]
    3ef2:	ed97 7a0e 	vldr	s14, [r7, #56]	; 0x38
    3ef6:	edd7 7a09 	vldr	s15, [r7, #36]	; 0x24
    3efa:	ee67 7a27 	vmul.f32	s15, s14, s15
    3efe:	edc7 7a06 	vstr	s15, [r7, #24]
    3f02:	ed97 7a15 	vldr	s14, [r7, #84]	; 0x54
    3f06:	edd7 7a09 	vldr	s15, [r7, #36]	; 0x24
    3f0a:	ee67 7a27 	vmul.f32	s15, s14, s15
    3f0e:	edc7 7a05 	vstr	s15, [r7, #20]
    3f12:	ed97 7a0e 	vldr	s14, [r7, #56]	; 0x38
    3f16:	edd7 7a2c 	vldr	s15, [r7, #176]	; 0xb0
    3f1a:	ee67 7a27 	vmul.f32	s15, s14, s15
    3f1e:	edc7 7a04 	vstr	s15, [r7, #16]
    3f22:	f8d7 30c8 	ldr.w	r3, [r7, #200]	; 0xc8
    3f26:	00db      	lsls	r3, r3, #3
    3f28:	68fa      	ldr	r2, [r7, #12]
    3f2a:	4413      	add	r3, r2
    3f2c:	ed97 7a07 	vldr	s14, [r7, #28]
    3f30:	edd7 7a06 	vldr	s15, [r7, #24]
    3f34:	ee77 7a27 	vadd.f32	s15, s14, s15
    3f38:	edc3 7a00 	vstr	s15, [r3]
    3f3c:	f8d7 30c8 	ldr.w	r3, [r7, #200]	; 0xc8
    3f40:	00db      	lsls	r3, r3, #3
    3f42:	3304      	adds	r3, #4
    3f44:	68fa      	ldr	r2, [r7, #12]
    3f46:	4413      	add	r3, r2
    3f48:	ed97 7a05 	vldr	s14, [r7, #20]
    3f4c:	edd7 7a04 	vldr	s15, [r7, #16]
    3f50:	ee77 7a67 	vsub.f32	s15, s14, s15
    3f54:	edc3 7a00 	vstr	s15, [r3]
    3f58:	ed97 7a17 	vldr	s14, [r7, #92]	; 0x5c
    3f5c:	edd7 7a2e 	vldr	s15, [r7, #184]	; 0xb8
    3f60:	ee67 7a27 	vmul.f32	s15, s14, s15
    3f64:	edc7 7a07 	vstr	s15, [r7, #28]
    3f68:	ed97 7a10 	vldr	s14, [r7, #64]	; 0x40
    3f6c:	edd7 7a0a 	vldr	s15, [r7, #40]	; 0x28
    3f70:	ee67 7a27 	vmul.f32	s15, s14, s15
    3f74:	edc7 7a06 	vstr	s15, [r7, #24]
    3f78:	ed97 7a17 	vldr	s14, [r7, #92]	; 0x5c
    3f7c:	edd7 7a0a 	vldr	s15, [r7, #40]	; 0x28
    3f80:	ee67 7a27 	vmul.f32	s15, s14, s15
    3f84:	edc7 7a05 	vstr	s15, [r7, #20]
    3f88:	ed97 7a10 	vldr	s14, [r7, #64]	; 0x40
    3f8c:	edd7 7a2e 	vldr	s15, [r7, #184]	; 0xb8
    3f90:	ee67 7a27 	vmul.f32	s15, s14, s15
    3f94:	edc7 7a04 	vstr	s15, [r7, #16]
    3f98:	f8d7 30d0 	ldr.w	r3, [r7, #208]	; 0xd0
    3f9c:	00db      	lsls	r3, r3, #3
    3f9e:	68fa      	ldr	r2, [r7, #12]
    3fa0:	4413      	add	r3, r2
    3fa2:	ed97 7a07 	vldr	s14, [r7, #28]
    3fa6:	edd7 7a06 	vldr	s15, [r7, #24]
    3faa:	ee77 7a27 	vadd.f32	s15, s14, s15
    3fae:	edc3 7a00 	vstr	s15, [r3]
    3fb2:	f8d7 30d0 	ldr.w	r3, [r7, #208]	; 0xd0
    3fb6:	00db      	lsls	r3, r3, #3
    3fb8:	3304      	adds	r3, #4
    3fba:	68fa      	ldr	r2, [r7, #12]
    3fbc:	4413      	add	r3, r2
    3fbe:	ed97 7a05 	vldr	s14, [r7, #20]
    3fc2:	edd7 7a04 	vldr	s15, [r7, #16]
    3fc6:	ee77 7a67 	vsub.f32	s15, s14, s15
    3fca:	edc3 7a00 	vstr	s15, [r3]
    3fce:	ed97 7a13 	vldr	s14, [r7, #76]	; 0x4c
    3fd2:	edd7 7a26 	vldr	s15, [r7, #152]	; 0x98
    3fd6:	ee67 7a27 	vmul.f32	s15, s14, s15
    3fda:	edc7 7a07 	vstr	s15, [r7, #28]
    3fde:	ed97 7a0c 	vldr	s14, [r7, #48]	; 0x30
    3fe2:	edd7 7a20 	vldr	s15, [r7, #128]	; 0x80
    3fe6:	ee67 7a27 	vmul.f32	s15, s14, s15
    3fea:	edc7 7a06 	vstr	s15, [r7, #24]
    3fee:	ed97 7a13 	vldr	s14, [r7, #76]	; 0x4c
    3ff2:	edd7 7a20 	vldr	s15, [r7, #128]	; 0x80
    3ff6:	ee67 7a27 	vmul.f32	s15, s14, s15
    3ffa:	edc7 7a05 	vstr	s15, [r7, #20]
    3ffe:	ed97 7a0c 	vldr	s14, [r7, #48]	; 0x30
    4002:	edd7 7a26 	vldr	s15, [r7, #152]	; 0x98
    4006:	ee67 7a27 	vmul.f32	s15, s14, s15
    400a:	edc7 7a04 	vstr	s15, [r7, #16]
    400e:	f8d7 30c0 	ldr.w	r3, [r7, #192]	; 0xc0
    4012:	00db      	lsls	r3, r3, #3
    4014:	68fa      	ldr	r2, [r7, #12]
    4016:	4413      	add	r3, r2
    4018:	ed97 7a07 	vldr	s14, [r7, #28]
    401c:	edd7 7a06 	vldr	s15, [r7, #24]
    4020:	ee77 7a27 	vadd.f32	s15, s14, s15
    4024:	edc3 7a00 	vstr	s15, [r3]
    4028:	f8d7 30c0 	ldr.w	r3, [r7, #192]	; 0xc0
    402c:	00db      	lsls	r3, r3, #3
    402e:	3304      	adds	r3, #4
    4030:	68fa      	ldr	r2, [r7, #12]
    4032:	4413      	add	r3, r2
    4034:	ed97 7a05 	vldr	s14, [r7, #20]
    4038:	edd7 7a04 	vldr	s15, [r7, #16]
    403c:	ee77 7a67 	vsub.f32	s15, s14, s15
    4040:	edc3 7a00 	vstr	s15, [r3]
    4044:	ed97 7a2b 	vldr	s14, [r7, #172]	; 0xac
    4048:	edd7 7a27 	vldr	s15, [r7, #156]	; 0x9c
    404c:	ee37 7a67 	vsub.f32	s14, s14, s15
    4050:	edd7 7a37 	vldr	s15, [r7, #220]	; 0xdc
    4054:	ee67 7a27 	vmul.f32	s15, s14, s15
    4058:	edc7 7a2e 	vstr	s15, [r7, #184]	; 0xb8
    405c:	ed97 7a2b 	vldr	s14, [r7, #172]	; 0xac
    4060:	edd7 7a27 	vldr	s15, [r7, #156]	; 0x9c
    4064:	ee37 7a27 	vadd.f32	s14, s14, s15
    4068:	edd7 7a37 	vldr	s15, [r7, #220]	; 0xdc
    406c:	ee67 7a27 	vmul.f32	s15, s14, s15
    4070:	edc7 7a2b 	vstr	s15, [r7, #172]	; 0xac
    4074:	ed97 7a24 	vldr	s14, [r7, #144]	; 0x90
    4078:	edd7 7a21 	vldr	s15, [r7, #132]	; 0x84
    407c:	ee37 7a67 	vsub.f32	s14, s14, s15
    4080:	edd7 7a37 	vldr	s15, [r7, #220]	; 0xdc
    4084:	ee67 7a27 	vmul.f32	s15, s14, s15
    4088:	edc7 7a0a 	vstr	s15, [r7, #40]	; 0x28
    408c:	ed97 7a24 	vldr	s14, [r7, #144]	; 0x90
    4090:	edd7 7a21 	vldr	s15, [r7, #132]	; 0x84
    4094:	ee37 7a27 	vadd.f32	s14, s14, s15
    4098:	edd7 7a37 	vldr	s15, [r7, #220]	; 0xdc
    409c:	ee67 7a27 	vmul.f32	s15, s14, s15
    40a0:	edc7 7a24 	vstr	s15, [r7, #144]	; 0x90
    40a4:	ed97 7a2d 	vldr	s14, [r7, #180]	; 0xb4
    40a8:	edd7 7a2e 	vldr	s15, [r7, #184]	; 0xb8
    40ac:	ee77 7a67 	vsub.f32	s15, s14, s15
    40b0:	edc7 7a26 	vstr	s15, [r7, #152]	; 0x98
    40b4:	ed97 7a2d 	vldr	s14, [r7, #180]	; 0xb4
    40b8:	edd7 7a2e 	vldr	s15, [r7, #184]	; 0xb8
    40bc:	ee77 7a27 	vadd.f32	s15, s14, s15
    40c0:	edc7 7a2d 	vstr	s15, [r7, #180]	; 0xb4
    40c4:	ed97 7a29 	vldr	s14, [r7, #164]	; 0xa4
    40c8:	edd7 7a2b 	vldr	s15, [r7, #172]	; 0xac
    40cc:	ee77 7a67 	vsub.f32	s15, s14, s15
    40d0:	edc7 7a27 	vstr	s15, [r7, #156]	; 0x9c
    40d4:	ed97 7a29 	vldr	s14, [r7, #164]	; 0xa4
    40d8:	edd7 7a2b 	vldr	s15, [r7, #172]	; 0xac
    40dc:	ee77 7a27 	vadd.f32	s15, s14, s15
    40e0:	edc7 7a29 	vstr	s15, [r7, #164]	; 0xa4
    40e4:	ed97 7a25 	vldr	s14, [r7, #148]	; 0x94
    40e8:	edd7 7a0a 	vldr	s15, [r7, #40]	; 0x28
    40ec:	ee77 7a67 	vsub.f32	s15, s14, s15
    40f0:	edc7 7a20 	vstr	s15, [r7, #128]	; 0x80
    40f4:	ed97 7a25 	vldr	s14, [r7, #148]	; 0x94
    40f8:	edd7 7a0a 	vldr	s15, [r7, #40]	; 0x28
    40fc:	ee77 7a27 	vadd.f32	s15, s14, s15
    4100:	edc7 7a25 	vstr	s15, [r7, #148]	; 0x94
    4104:	ed97 7a22 	vldr	s14, [r7, #136]	; 0x88
    4108:	edd7 7a24 	vldr	s15, [r7, #144]	; 0x90
    410c:	ee77 7a67 	vsub.f32	s15, s14, s15
    4110:	edc7 7a21 	vstr	s15, [r7, #132]	; 0x84
    4114:	ed97 7a22 	vldr	s14, [r7, #136]	; 0x88
    4118:	edd7 7a24 	vldr	s15, [r7, #144]	; 0x90
    411c:	ee77 7a27 	vadd.f32	s15, s14, s15
    4120:	edc7 7a22 	vstr	s15, [r7, #136]	; 0x88
    4124:	ed97 7a2d 	vldr	s14, [r7, #180]	; 0xb4
    4128:	edd7 7a22 	vldr	s15, [r7, #136]	; 0x88
    412c:	ee77 7a27 	vadd.f32	s15, s14, s15
    4130:	edc7 7a2e 	vstr	s15, [r7, #184]	; 0xb8
    4134:	ed97 7a2d 	vldr	s14, [r7, #180]	; 0xb4
    4138:	edd7 7a22 	vldr	s15, [r7, #136]	; 0x88
    413c:	ee77 7a67 	vsub.f32	s15, s14, s15
    4140:	edc7 7a2d 	vstr	s15, [r7, #180]	; 0xb4
    4144:	ed97 7a26 	vldr	s14, [r7, #152]	; 0x98
    4148:	edd7 7a21 	vldr	s15, [r7, #132]	; 0x84
    414c:	ee77 7a27 	vadd.f32	s15, s14, s15
    4150:	edc7 7a2b 	vstr	s15, [r7, #172]	; 0xac
    4154:	ed97 7a26 	vldr	s14, [r7, #152]	; 0x98
    4158:	edd7 7a21 	vldr	s15, [r7, #132]	; 0x84
    415c:	ee77 7a67 	vsub.f32	s15, s14, s15
    4160:	edc7 7a26 	vstr	s15, [r7, #152]	; 0x98
    4164:	ed97 7a25 	vldr	s14, [r7, #148]	; 0x94
    4168:	edd7 7a29 	vldr	s15, [r7, #164]	; 0xa4
    416c:	ee77 7a67 	vsub.f32	s15, s14, s15
    4170:	edc7 7a0a 	vstr	s15, [r7, #40]	; 0x28
    4174:	ed97 7a25 	vldr	s14, [r7, #148]	; 0x94
    4178:	edd7 7a29 	vldr	s15, [r7, #164]	; 0xa4
    417c:	ee77 7a27 	vadd.f32	s15, s14, s15
    4180:	edc7 7a25 	vstr	s15, [r7, #148]	; 0x94
    4184:	ed97 7a20 	vldr	s14, [r7, #128]	; 0x80
    4188:	edd7 7a27 	vldr	s15, [r7, #156]	; 0x9c
    418c:	ee77 7a67 	vsub.f32	s15, s14, s15
    4190:	edc7 7a24 	vstr	s15, [r7, #144]	; 0x90
    4194:	ed97 7a20 	vldr	s14, [r7, #128]	; 0x80
    4198:	edd7 7a27 	vldr	s15, [r7, #156]	; 0x9c
    419c:	ee77 7a27 	vadd.f32	s15, s14, s15
    41a0:	edc7 7a20 	vstr	s15, [r7, #128]	; 0x80
    41a4:	ed97 7a18 	vldr	s14, [r7, #96]	; 0x60
    41a8:	edd7 7a2e 	vldr	s15, [r7, #184]	; 0xb8
    41ac:	ee67 7a27 	vmul.f32	s15, s14, s15
    41b0:	edc7 7a07 	vstr	s15, [r7, #28]
    41b4:	ed97 7a11 	vldr	s14, [r7, #68]	; 0x44
    41b8:	edd7 7a0a 	vldr	s15, [r7, #40]	; 0x28
    41bc:	ee67 7a27 	vmul.f32	s15, s14, s15
    41c0:	edc7 7a06 	vstr	s15, [r7, #24]
    41c4:	ed97 7a18 	vldr	s14, [r7, #96]	; 0x60
    41c8:	edd7 7a0a 	vldr	s15, [r7, #40]	; 0x28
    41cc:	ee67 7a27 	vmul.f32	s15, s14, s15
    41d0:	edc7 7a05 	vstr	s15, [r7, #20]
    41d4:	ed97 7a11 	vldr	s14, [r7, #68]	; 0x44
    41d8:	edd7 7a2e 	vldr	s15, [r7, #184]	; 0xb8
    41dc:	ee67 7a27 	vmul.f32	s15, s14, s15
    41e0:	edc7 7a04 	vstr	s15, [r7, #16]
    41e4:	f8d7 30d4 	ldr.w	r3, [r7, #212]	; 0xd4
    41e8:	00db      	lsls	r3, r3, #3
    41ea:	68fa      	ldr	r2, [r7, #12]
    41ec:	4413      	add	r3, r2
    41ee:	ed97 7a07 	vldr	s14, [r7, #28]
    41f2:	edd7 7a06 	vldr	s15, [r7, #24]
    41f6:	ee77 7a27 	vadd.f32	s15, s14, s15
    41fa:	edc3 7a00 	vstr	s15, [r3]
    41fe:	f8d7 30d4 	ldr.w	r3, [r7, #212]	; 0xd4
    4202:	00db      	lsls	r3, r3, #3
    4204:	3304      	adds	r3, #4
    4206:	68fa      	ldr	r2, [r7, #12]
    4208:	4413      	add	r3, r2
    420a:	ed97 7a05 	vldr	s14, [r7, #20]
    420e:	edd7 7a04 	vldr	s15, [r7, #16]
    4212:	ee77 7a67 	vsub.f32	s15, s14, s15
    4216:	edc3 7a00 	vstr	s15, [r3]
    421a:	ed97 7a12 	vldr	s14, [r7, #72]	; 0x48
    421e:	edd7 7a2d 	vldr	s15, [r7, #180]	; 0xb4
    4222:	ee67 7a27 	vmul.f32	s15, s14, s15
    4226:	edc7 7a07 	vstr	s15, [r7, #28]
    422a:	ed97 7a0b 	vldr	s14, [r7, #44]	; 0x2c
    422e:	edd7 7a25 	vldr	s15, [r7, #148]	; 0x94
    4232:	ee67 7a27 	vmul.f32	s15, s14, s15
    4236:	edc7 7a06 	vstr	s15, [r7, #24]
    423a:	ed97 7a12 	vldr	s14, [r7, #72]	; 0x48
    423e:	edd7 7a25 	vldr	s15, [r7, #148]	; 0x94
    4242:	ee67 7a27 	vmul.f32	s15, s14, s15
    4246:	edc7 7a05 	vstr	s15, [r7, #20]
    424a:	ed97 7a0b 	vldr	s14, [r7, #44]	; 0x2c
    424e:	edd7 7a2d 	vldr	s15, [r7, #180]	; 0xb4
    4252:	ee67 7a27 	vmul.f32	s15, s14, s15
    4256:	edc7 7a04 	vstr	s15, [r7, #16]
    425a:	f8d7 30bc 	ldr.w	r3, [r7, #188]	; 0xbc
    425e:	00db      	lsls	r3, r3, #3
    4260:	68fa      	ldr	r2, [r7, #12]
    4262:	4413      	add	r3, r2
    4264:	ed97 7a07 	vldr	s14, [r7, #28]
    4268:	edd7 7a06 	vldr	s15, [r7, #24]
    426c:	ee77 7a27 	vadd.f32	s15, s14, s15
    4270:	edc3 7a00 	vstr	s15, [r3]
    4274:	f8d7 30bc 	ldr.w	r3, [r7, #188]	; 0xbc
    4278:	00db      	lsls	r3, r3, #3
    427a:	3304      	adds	r3, #4
    427c:	68fa      	ldr	r2, [r7, #12]
    427e:	4413      	add	r3, r2
    4280:	ed97 7a05 	vldr	s14, [r7, #20]
    4284:	edd7 7a04 	vldr	s15, [r7, #16]
    4288:	ee77 7a67 	vsub.f32	s15, s14, s15
    428c:	edc3 7a00 	vstr	s15, [r3]
    4290:	ed97 7a14 	vldr	s14, [r7, #80]	; 0x50
    4294:	edd7 7a2b 	vldr	s15, [r7, #172]	; 0xac
    4298:	ee67 7a27 	vmul.f32	s15, s14, s15
    429c:	edc7 7a07 	vstr	s15, [r7, #28]
    42a0:	ed97 7a0d 	vldr	s14, [r7, #52]	; 0x34
    42a4:	edd7 7a24 	vldr	s15, [r7, #144]	; 0x90
    42a8:	ee67 7a27 	vmul.f32	s15, s14, s15
    42ac:	edc7 7a06 	vstr	s15, [r7, #24]
    42b0:	ed97 7a14 	vldr	s14, [r7, #80]	; 0x50
    42b4:	edd7 7a24 	vldr	s15, [r7, #144]	; 0x90
    42b8:	ee67 7a27 	vmul.f32	s15, s14, s15
    42bc:	edc7 7a05 	vstr	s15, [r7, #20]
    42c0:	ed97 7a0d 	vldr	s14, [r7, #52]	; 0x34
    42c4:	edd7 7a2b 	vldr	s15, [r7, #172]	; 0xac
    42c8:	ee67 7a27 	vmul.f32	s15, s14, s15
    42cc:	edc7 7a04 	vstr	s15, [r7, #16]
    42d0:	f8d7 30c4 	ldr.w	r3, [r7, #196]	; 0xc4
    42d4:	00db      	lsls	r3, r3, #3
    42d6:	68fa      	ldr	r2, [r7, #12]
    42d8:	4413      	add	r3, r2
    42da:	ed97 7a07 	vldr	s14, [r7, #28]
    42de:	edd7 7a06 	vldr	s15, [r7, #24]
    42e2:	ee77 7a27 	vadd.f32	s15, s14, s15
    42e6:	edc3 7a00 	vstr	s15, [r3]
    42ea:	f8d7 30c4 	ldr.w	r3, [r7, #196]	; 0xc4
    42ee:	00db      	lsls	r3, r3, #3
    42f0:	3304      	adds	r3, #4
    42f2:	68fa      	ldr	r2, [r7, #12]
    42f4:	4413      	add	r3, r2
    42f6:	ed97 7a05 	vldr	s14, [r7, #20]
    42fa:	edd7 7a04 	vldr	s15, [r7, #16]
    42fe:	ee77 7a67 	vsub.f32	s15, s14, s15
    4302:	edc3 7a00 	vstr	s15, [r3]
    4306:	ed97 7a16 	vldr	s14, [r7, #88]	; 0x58
    430a:	edd7 7a26 	vldr	s15, [r7, #152]	; 0x98
    430e:	ee67 7a27 	vmul.f32	s15, s14, s15
    4312:	edc7 7a07 	vstr	s15, [r7, #28]
    4316:	ed97 7a0f 	vldr	s14, [r7, #60]	; 0x3c
    431a:	edd7 7a20 	vldr	s15, [r7, #128]	; 0x80
    431e:	ee67 7a27 	vmul.f32	s15, s14, s15
    4322:	edc7 7a06 	vstr	s15, [r7, #24]
    4326:	ed97 7a16 	vldr	s14, [r7, #88]	; 0x58
    432a:	edd7 7a20 	vldr	s15, [r7, #128]	; 0x80
    432e:	ee67 7a27 	vmul.f32	s15, s14, s15
    4332:	edc7 7a05 	vstr	s15, [r7, #20]
    4336:	ed97 7a0f 	vldr	s14, [r7, #60]	; 0x3c
    433a:	edd7 7a26 	vldr	s15, [r7, #152]	; 0x98
    433e:	ee67 7a27 	vmul.f32	s15, s14, s15
    4342:	edc7 7a04 	vstr	s15, [r7, #16]
    4346:	f8d7 30cc 	ldr.w	r3, [r7, #204]	; 0xcc
    434a:	00db      	lsls	r3, r3, #3
    434c:	68fa      	ldr	r2, [r7, #12]
    434e:	4413      	add	r3, r2
    4350:	ed97 7a07 	vldr	s14, [r7, #28]
    4354:	edd7 7a06 	vldr	s15, [r7, #24]
    4358:	ee77 7a27 	vadd.f32	s15, s14, s15
    435c:	edc3 7a00 	vstr	s15, [r3]
    4360:	f8d7 30cc 	ldr.w	r3, [r7, #204]	; 0xcc
    4364:	00db      	lsls	r3, r3, #3
    4366:	3304      	adds	r3, #4
    4368:	68fa      	ldr	r2, [r7, #12]
    436a:	4413      	add	r3, r2
    436c:	ed97 7a05 	vldr	s14, [r7, #20]
    4370:	edd7 7a04 	vldr	s15, [r7, #16]
    4374:	ee77 7a67 	vsub.f32	s15, s14, s15
    4378:	edc3 7a00 	vstr	s15, [r3]
    437c:	f8d7 20e8 	ldr.w	r2, [r7, #232]	; 0xe8
    4380:	f8d7 30d8 	ldr.w	r3, [r7, #216]	; 0xd8
    4384:	4413      	add	r3, r2
    4386:	f8c7 30e8 	str.w	r3, [r7, #232]	; 0xe8
    438a:	897a      	ldrh	r2, [r7, #10]
    438c:	f8d7 30e8 	ldr.w	r3, [r7, #232]	; 0xe8
    4390:	429a      	cmp	r2, r3
    4392:	f63f abba 	bhi.w	3b0a <arm_radix8_butterfly_f32+0x746>
    4396:	f8d7 30e0 	ldr.w	r3, [r7, #224]	; 0xe0
    439a:	3301      	adds	r3, #1
    439c:	f8c7 30e0 	str.w	r3, [r7, #224]	; 0xe0
    43a0:	f8d7 20e0 	ldr.w	r2, [r7, #224]	; 0xe0
    43a4:	f8d7 30e4 	ldr.w	r3, [r7, #228]	; 0xe4
    43a8:	429a      	cmp	r2, r3
    43aa:	f4ff ab2c 	bcc.w	3a06 <arm_radix8_butterfly_f32+0x642>
    43ae:	893b      	ldrh	r3, [r7, #8]
    43b0:	00db      	lsls	r3, r3, #3
    43b2:	813b      	strh	r3, [r7, #8]
    43b4:	f8d7 30e4 	ldr.w	r3, [r7, #228]	; 0xe4
    43b8:	2b07      	cmp	r3, #7
    43ba:	f63f a813 	bhi.w	33e4 <arm_radix8_butterfly_f32+0x20>
    43be:	e000      	b.n	43c2 <arm_radix8_butterfly_f32+0xffe>
    43c0:	bf00      	nop
    43c2:	bf00      	nop
    43c4:	37f4      	adds	r7, #244	; 0xf4
    43c6:	46bd      	mov	sp, r7
    43c8:	f85d 7b04 	ldr.w	r7, [sp], #4
    43cc:	4770      	bx	lr
    43ce:	bf00      	nop

000043d0 <arm_biquad_cascade_df1_f32>:
    43d0:	b480      	push	{r7}
    43d2:	b097      	sub	sp, #92	; 0x5c
    43d4:	af00      	add	r7, sp, #0
    43d6:	60f8      	str	r0, [r7, #12]
    43d8:	60b9      	str	r1, [r7, #8]
    43da:	607a      	str	r2, [r7, #4]
    43dc:	603b      	str	r3, [r7, #0]
    43de:	68bb      	ldr	r3, [r7, #8]
    43e0:	657b      	str	r3, [r7, #84]	; 0x54
    43e2:	687b      	ldr	r3, [r7, #4]
    43e4:	653b      	str	r3, [r7, #80]	; 0x50
    43e6:	68fb      	ldr	r3, [r7, #12]
    43e8:	685b      	ldr	r3, [r3, #4]
    43ea:	64fb      	str	r3, [r7, #76]	; 0x4c
    43ec:	68fb      	ldr	r3, [r7, #12]
    43ee:	689b      	ldr	r3, [r3, #8]
    43f0:	64bb      	str	r3, [r7, #72]	; 0x48
    43f2:	68fb      	ldr	r3, [r7, #12]
    43f4:	681b      	ldr	r3, [r3, #0]
    43f6:	633b      	str	r3, [r7, #48]	; 0x30
    43f8:	6cbb      	ldr	r3, [r7, #72]	; 0x48
    43fa:	1d1a      	adds	r2, r3, #4
    43fc:	64ba      	str	r2, [r7, #72]	; 0x48
    43fe:	681b      	ldr	r3, [r3, #0]
    4400:	62fb      	str	r3, [r7, #44]	; 0x2c
    4402:	6cbb      	ldr	r3, [r7, #72]	; 0x48
    4404:	1d1a      	adds	r2, r3, #4
    4406:	64ba      	str	r2, [r7, #72]	; 0x48
    4408:	681b      	ldr	r3, [r3, #0]
    440a:	62bb      	str	r3, [r7, #40]	; 0x28
    440c:	6cbb      	ldr	r3, [r7, #72]	; 0x48
    440e:	1d1a      	adds	r2, r3, #4
    4410:	64ba      	str	r2, [r7, #72]	; 0x48
    4412:	681b      	ldr	r3, [r3, #0]
    4414:	627b      	str	r3, [r7, #36]	; 0x24
    4416:	6cbb      	ldr	r3, [r7, #72]	; 0x48
    4418:	1d1a      	adds	r2, r3, #4
    441a:	64ba      	str	r2, [r7, #72]	; 0x48
    441c:	681b      	ldr	r3, [r3, #0]
    441e:	623b      	str	r3, [r7, #32]
    4420:	6cbb      	ldr	r3, [r7, #72]	; 0x48
    4422:	1d1a      	adds	r2, r3, #4
    4424:	64ba      	str	r2, [r7, #72]	; 0x48
    4426:	681b      	ldr	r3, [r3, #0]
    4428:	61fb      	str	r3, [r7, #28]
    442a:	6cfb      	ldr	r3, [r7, #76]	; 0x4c
    442c:	681b      	ldr	r3, [r3, #0]
    442e:	647b      	str	r3, [r7, #68]	; 0x44
    4430:	6cfb      	ldr	r3, [r7, #76]	; 0x4c
    4432:	685b      	ldr	r3, [r3, #4]
    4434:	643b      	str	r3, [r7, #64]	; 0x40
    4436:	6cfb      	ldr	r3, [r7, #76]	; 0x4c
    4438:	689b      	ldr	r3, [r3, #8]
    443a:	63fb      	str	r3, [r7, #60]	; 0x3c
    443c:	6cfb      	ldr	r3, [r7, #76]	; 0x4c
    443e:	68db      	ldr	r3, [r3, #12]
    4440:	63bb      	str	r3, [r7, #56]	; 0x38
    4442:	683b      	ldr	r3, [r7, #0]
    4444:	089b      	lsrs	r3, r3, #2
    4446:	637b      	str	r3, [r7, #52]	; 0x34
    4448:	e0ce      	b.n	45e8 <arm_biquad_cascade_df1_f32+0x218>
    444a:	6d7b      	ldr	r3, [r7, #84]	; 0x54
    444c:	1d1a      	adds	r2, r3, #4
    444e:	657a      	str	r2, [r7, #84]	; 0x54
    4450:	681b      	ldr	r3, [r3, #0]
    4452:	61bb      	str	r3, [r7, #24]
    4454:	ed97 7a0b 	vldr	s14, [r7, #44]	; 0x2c
    4458:	edd7 7a06 	vldr	s15, [r7, #24]
    445c:	ee27 7a27 	vmul.f32	s14, s14, s15
    4460:	edd7 6a0a 	vldr	s13, [r7, #40]	; 0x28
    4464:	edd7 7a11 	vldr	s15, [r7, #68]	; 0x44
    4468:	ee66 7aa7 	vmul.f32	s15, s13, s15
    446c:	ee37 7a27 	vadd.f32	s14, s14, s15
    4470:	edd7 6a09 	vldr	s13, [r7, #36]	; 0x24
    4474:	edd7 7a10 	vldr	s15, [r7, #64]	; 0x40
    4478:	ee66 7aa7 	vmul.f32	s15, s13, s15
    447c:	ee37 7a27 	vadd.f32	s14, s14, s15
    4480:	edd7 6a08 	vldr	s13, [r7, #32]
    4484:	edd7 7a0f 	vldr	s15, [r7, #60]	; 0x3c
    4488:	ee66 7aa7 	vmul.f32	s15, s13, s15
    448c:	ee37 7a27 	vadd.f32	s14, s14, s15
    4490:	edd7 6a07 	vldr	s13, [r7, #28]
    4494:	edd7 7a0e 	vldr	s15, [r7, #56]	; 0x38
    4498:	ee66 7aa7 	vmul.f32	s15, s13, s15
    449c:	ee77 7a27 	vadd.f32	s15, s14, s15
    44a0:	edc7 7a0e 	vstr	s15, [r7, #56]	; 0x38
    44a4:	6d3b      	ldr	r3, [r7, #80]	; 0x50
    44a6:	1d1a      	adds	r2, r3, #4
    44a8:	653a      	str	r2, [r7, #80]	; 0x50
    44aa:	6bba      	ldr	r2, [r7, #56]	; 0x38
    44ac:	601a      	str	r2, [r3, #0]
    44ae:	6d7b      	ldr	r3, [r7, #84]	; 0x54
    44b0:	1d1a      	adds	r2, r3, #4
    44b2:	657a      	str	r2, [r7, #84]	; 0x54
    44b4:	681b      	ldr	r3, [r3, #0]
    44b6:	643b      	str	r3, [r7, #64]	; 0x40
    44b8:	ed97 7a0b 	vldr	s14, [r7, #44]	; 0x2c
    44bc:	edd7 7a10 	vldr	s15, [r7, #64]	; 0x40
    44c0:	ee27 7a27 	vmul.f32	s14, s14, s15
    44c4:	edd7 6a0a 	vldr	s13, [r7, #40]	; 0x28
    44c8:	edd7 7a06 	vldr	s15, [r7, #24]
    44cc:	ee66 7aa7 	vmul.f32	s15, s13, s15
    44d0:	ee37 7a27 	vadd.f32	s14, s14, s15
    44d4:	edd7 6a09 	vldr	s13, [r7, #36]	; 0x24
    44d8:	edd7 7a11 	vldr	s15, [r7, #68]	; 0x44
    44dc:	ee66 7aa7 	vmul.f32	s15, s13, s15
    44e0:	ee37 7a27 	vadd.f32	s14, s14, s15
    44e4:	edd7 6a08 	vldr	s13, [r7, #32]
    44e8:	edd7 7a0e 	vldr	s15, [r7, #56]	; 0x38
    44ec:	ee66 7aa7 	vmul.f32	s15, s13, s15
    44f0:	ee37 7a27 	vadd.f32	s14, s14, s15
    44f4:	edd7 6a07 	vldr	s13, [r7, #28]
    44f8:	edd7 7a0f 	vldr	s15, [r7, #60]	; 0x3c
    44fc:	ee66 7aa7 	vmul.f32	s15, s13, s15
    4500:	ee77 7a27 	vadd.f32	s15, s14, s15
    4504:	edc7 7a0f 	vstr	s15, [r7, #60]	; 0x3c
    4508:	6d3b      	ldr	r3, [r7, #80]	; 0x50
    450a:	1d1a      	adds	r2, r3, #4
    450c:	653a      	str	r2, [r7, #80]	; 0x50
    450e:	6bfa      	ldr	r2, [r7, #60]	; 0x3c
    4510:	601a      	str	r2, [r3, #0]
    4512:	6d7b      	ldr	r3, [r7, #84]	; 0x54
    4514:	1d1a      	adds	r2, r3, #4
    4516:	657a      	str	r2, [r7, #84]	; 0x54
    4518:	681b      	ldr	r3, [r3, #0]
    451a:	647b      	str	r3, [r7, #68]	; 0x44
    451c:	ed97 7a0b 	vldr	s14, [r7, #44]	; 0x2c
    4520:	edd7 7a11 	vldr	s15, [r7, #68]	; 0x44
    4524:	ee27 7a27 	vmul.f32	s14, s14, s15
    4528:	edd7 6a0a 	vldr	s13, [r7, #40]	; 0x28
    452c:	edd7 7a10 	vldr	s15, [r7, #64]	; 0x40
    4530:	ee66 7aa7 	vmul.f32	s15, s13, s15
    4534:	ee37 7a27 	vadd.f32	s14, s14, s15
    4538:	edd7 6a09 	vldr	s13, [r7, #36]	; 0x24
    453c:	edd7 7a06 	vldr	s15, [r7, #24]
    4540:	ee66 7aa7 	vmul.f32	s15, s13, s15
    4544:	ee37 7a27 	vadd.f32	s14, s14, s15
    4548:	edd7 6a08 	vldr	s13, [r7, #32]
    454c:	edd7 7a0f 	vldr	s15, [r7, #60]	; 0x3c
    4550:	ee66 7aa7 	vmul.f32	s15, s13, s15
    4554:	ee37 7a27 	vadd.f32	s14, s14, s15
    4558:	edd7 6a07 	vldr	s13, [r7, #28]
    455c:	edd7 7a0e 	vldr	s15, [r7, #56]	; 0x38
    4560:	ee66 7aa7 	vmul.f32	s15, s13, s15
    4564:	ee77 7a27 	vadd.f32	s15, s14, s15
    4568:	edc7 7a0e 	vstr	s15, [r7, #56]	; 0x38
    456c:	6d3b      	ldr	r3, [r7, #80]	; 0x50
    456e:	1d1a      	adds	r2, r3, #4
    4570:	653a      	str	r2, [r7, #80]	; 0x50
    4572:	6bba      	ldr	r2, [r7, #56]	; 0x38
    4574:	601a      	str	r2, [r3, #0]
    4576:	6d7b      	ldr	r3, [r7, #84]	; 0x54
    4578:	1d1a      	adds	r2, r3, #4
    457a:	657a      	str	r2, [r7, #84]	; 0x54
    457c:	681b      	ldr	r3, [r3, #0]
    457e:	61bb      	str	r3, [r7, #24]
    4580:	ed97 7a0b 	vldr	s14, [r7, #44]	; 0x2c
    4584:	edd7 7a06 	vldr	s15, [r7, #24]
    4588:	ee27 7a27 	vmul.f32	s14, s14, s15
    458c:	edd7 6a0a 	vldr	s13, [r7, #40]	; 0x28
    4590:	edd7 7a11 	vldr	s15, [r7, #68]	; 0x44
    4594:	ee66 7aa7 	vmul.f32	s15, s13, s15
    4598:	ee37 7a27 	vadd.f32	s14, s14, s15
    459c:	edd7 6a09 	vldr	s13, [r7, #36]	; 0x24
    45a0:	edd7 7a10 	vldr	s15, [r7, #64]	; 0x40
    45a4:	ee66 7aa7 	vmul.f32	s15, s13, s15
    45a8:	ee37 7a27 	vadd.f32	s14, s14, s15
    45ac:	edd7 6a08 	vldr	s13, [r7, #32]
    45b0:	edd7 7a0e 	vldr	s15, [r7, #56]	; 0x38
    45b4:	ee66 7aa7 	vmul.f32	s15, s13, s15
    45b8:	ee37 7a27 	vadd.f32	s14, s14, s15
    45bc:	edd7 6a07 	vldr	s13, [r7, #28]
    45c0:	edd7 7a0f 	vldr	s15, [r7, #60]	; 0x3c
    45c4:	ee66 7aa7 	vmul.f32	s15, s13, s15
    45c8:	ee77 7a27 	vadd.f32	s15, s14, s15
    45cc:	edc7 7a0f 	vstr	s15, [r7, #60]	; 0x3c
    45d0:	6d3b      	ldr	r3, [r7, #80]	; 0x50
    45d2:	1d1a      	adds	r2, r3, #4
    45d4:	653a      	str	r2, [r7, #80]	; 0x50
    45d6:	6bfa      	ldr	r2, [r7, #60]	; 0x3c
    45d8:	601a      	str	r2, [r3, #0]
    45da:	6c7b      	ldr	r3, [r7, #68]	; 0x44
    45dc:	643b      	str	r3, [r7, #64]	; 0x40
    45de:	69bb      	ldr	r3, [r7, #24]
    45e0:	647b      	str	r3, [r7, #68]	; 0x44
    45e2:	6b7b      	ldr	r3, [r7, #52]	; 0x34
    45e4:	3b01      	subs	r3, #1
    45e6:	637b      	str	r3, [r7, #52]	; 0x34
    45e8:	6b7b      	ldr	r3, [r7, #52]	; 0x34
    45ea:	2b00      	cmp	r3, #0
    45ec:	f47f af2d 	bne.w	444a <arm_biquad_cascade_df1_f32+0x7a>
    45f0:	683b      	ldr	r3, [r7, #0]
    45f2:	f003 0303 	and.w	r3, r3, #3
    45f6:	637b      	str	r3, [r7, #52]	; 0x34
    45f8:	e03c      	b.n	4674 <arm_biquad_cascade_df1_f32+0x2a4>
    45fa:	6d7b      	ldr	r3, [r7, #84]	; 0x54
    45fc:	1d1a      	adds	r2, r3, #4
    45fe:	657a      	str	r2, [r7, #84]	; 0x54
    4600:	681b      	ldr	r3, [r3, #0]
    4602:	61bb      	str	r3, [r7, #24]
    4604:	ed97 7a0b 	vldr	s14, [r7, #44]	; 0x2c
    4608:	edd7 7a06 	vldr	s15, [r7, #24]
    460c:	ee27 7a27 	vmul.f32	s14, s14, s15
    4610:	edd7 6a0a 	vldr	s13, [r7, #40]	; 0x28
    4614:	edd7 7a11 	vldr	s15, [r7, #68]	; 0x44
    4618:	ee66 7aa7 	vmul.f32	s15, s13, s15
    461c:	ee37 7a27 	vadd.f32	s14, s14, s15
    4620:	edd7 6a09 	vldr	s13, [r7, #36]	; 0x24
    4624:	edd7 7a10 	vldr	s15, [r7, #64]	; 0x40
    4628:	ee66 7aa7 	vmul.f32	s15, s13, s15
    462c:	ee37 7a27 	vadd.f32	s14, s14, s15
    4630:	edd7 6a08 	vldr	s13, [r7, #32]
    4634:	edd7 7a0f 	vldr	s15, [r7, #60]	; 0x3c
    4638:	ee66 7aa7 	vmul.f32	s15, s13, s15
    463c:	ee37 7a27 	vadd.f32	s14, s14, s15
    4640:	edd7 6a07 	vldr	s13, [r7, #28]
    4644:	edd7 7a0e 	vldr	s15, [r7, #56]	; 0x38
    4648:	ee66 7aa7 	vmul.f32	s15, s13, s15
    464c:	ee77 7a27 	vadd.f32	s15, s14, s15
    4650:	edc7 7a05 	vstr	s15, [r7, #20]
    4654:	6d3b      	ldr	r3, [r7, #80]	; 0x50
    4656:	1d1a      	adds	r2, r3, #4
    4658:	653a      	str	r2, [r7, #80]	; 0x50
    465a:	697a      	ldr	r2, [r7, #20]
    465c:	601a      	str	r2, [r3, #0]
    465e:	6c7b      	ldr	r3, [r7, #68]	; 0x44
    4660:	643b      	str	r3, [r7, #64]	; 0x40
    4662:	69bb      	ldr	r3, [r7, #24]
    4664:	647b      	str	r3, [r7, #68]	; 0x44
    4666:	6bfb      	ldr	r3, [r7, #60]	; 0x3c
    4668:	63bb      	str	r3, [r7, #56]	; 0x38
    466a:	697b      	ldr	r3, [r7, #20]
    466c:	63fb      	str	r3, [r7, #60]	; 0x3c
    466e:	6b7b      	ldr	r3, [r7, #52]	; 0x34
    4670:	3b01      	subs	r3, #1
    4672:	637b      	str	r3, [r7, #52]	; 0x34
    4674:	6b7b      	ldr	r3, [r7, #52]	; 0x34
    4676:	2b00      	cmp	r3, #0
    4678:	d1bf      	bne.n	45fa <arm_biquad_cascade_df1_f32+0x22a>
    467a:	6cfb      	ldr	r3, [r7, #76]	; 0x4c
    467c:	1d1a      	adds	r2, r3, #4
    467e:	64fa      	str	r2, [r7, #76]	; 0x4c
    4680:	6c7a      	ldr	r2, [r7, #68]	; 0x44
    4682:	601a      	str	r2, [r3, #0]
    4684:	6cfb      	ldr	r3, [r7, #76]	; 0x4c
    4686:	1d1a      	adds	r2, r3, #4
    4688:	64fa      	str	r2, [r7, #76]	; 0x4c
    468a:	6c3a      	ldr	r2, [r7, #64]	; 0x40
    468c:	601a      	str	r2, [r3, #0]
    468e:	6cfb      	ldr	r3, [r7, #76]	; 0x4c
    4690:	1d1a      	adds	r2, r3, #4
    4692:	64fa      	str	r2, [r7, #76]	; 0x4c
    4694:	6bfa      	ldr	r2, [r7, #60]	; 0x3c
    4696:	601a      	str	r2, [r3, #0]
    4698:	6cfb      	ldr	r3, [r7, #76]	; 0x4c
    469a:	1d1a      	adds	r2, r3, #4
    469c:	64fa      	str	r2, [r7, #76]	; 0x4c
    469e:	6bba      	ldr	r2, [r7, #56]	; 0x38
    46a0:	601a      	str	r2, [r3, #0]
    46a2:	687b      	ldr	r3, [r7, #4]
    46a4:	657b      	str	r3, [r7, #84]	; 0x54
    46a6:	687b      	ldr	r3, [r7, #4]
    46a8:	653b      	str	r3, [r7, #80]	; 0x50
    46aa:	6b3b      	ldr	r3, [r7, #48]	; 0x30
    46ac:	3b01      	subs	r3, #1
    46ae:	633b      	str	r3, [r7, #48]	; 0x30
    46b0:	6b3b      	ldr	r3, [r7, #48]	; 0x30
    46b2:	2b00      	cmp	r3, #0
    46b4:	f47f aea0 	bne.w	43f8 <arm_biquad_cascade_df1_f32+0x28>
    46b8:	bf00      	nop
    46ba:	375c      	adds	r7, #92	; 0x5c
    46bc:	46bd      	mov	sp, r7
    46be:	f85d 7b04 	ldr.w	r7, [sp], #4
    46c2:	4770      	bx	lr

000046c4 <arm_biquad_cascade_df1_init_f32>:
    46c4:	b580      	push	{r7, lr}
    46c6:	b084      	sub	sp, #16
    46c8:	af00      	add	r7, sp, #0
    46ca:	60f8      	str	r0, [r7, #12]
    46cc:	607a      	str	r2, [r7, #4]
    46ce:	603b      	str	r3, [r7, #0]
    46d0:	460b      	mov	r3, r1
    46d2:	72fb      	strb	r3, [r7, #11]
    46d4:	7afa      	ldrb	r2, [r7, #11]
    46d6:	68fb      	ldr	r3, [r7, #12]
    46d8:	601a      	str	r2, [r3, #0]
    46da:	68fb      	ldr	r3, [r7, #12]
    46dc:	687a      	ldr	r2, [r7, #4]
    46de:	609a      	str	r2, [r3, #8]
    46e0:	7afb      	ldrb	r3, [r7, #11]
    46e2:	011b      	lsls	r3, r3, #4
    46e4:	461a      	mov	r2, r3
    46e6:	2100      	movs	r1, #0
    46e8:	6838      	ldr	r0, [r7, #0]
    46ea:	f002 fba4 	bl	6e36 <memset>
    46ee:	68fb      	ldr	r3, [r7, #12]
    46f0:	683a      	ldr	r2, [r7, #0]
    46f2:	605a      	str	r2, [r3, #4]
    46f4:	bf00      	nop
    46f6:	3710      	adds	r7, #16
    46f8:	46bd      	mov	sp, r7
    46fa:	bd80      	pop	{r7, pc}

000046fc <arm_biquad_cascade_df2T_f32>:
    46fc:	e92d 47f0 	stmdb	sp!, {r4, r5, r6, r7, r8, r9, sl, lr}
    4700:	f890 e000 	ldrb.w	lr, [r0]
    4704:	ea4f 0893 	mov.w	r8, r3, lsr #2
    4708:	6886      	ldr	r6, [r0, #8]
    470a:	3614      	adds	r6, #20
    470c:	6847      	ldr	r7, [r0, #4]
    470e:	3708      	adds	r7, #8
    4710:	ea4f 1908 	mov.w	r9, r8, lsl #4
    4714:	eb02 0a09 	add.w	sl, r2, r9
    4718:	ed56 2a05 	vldr	s5, [r6, #-20]	; 0xffffffec
    471c:	ed16 3a04 	vldr	s6, [r6, #-16]
    4720:	ed16 4a03 	vldr	s8, [r6, #-12]
    4724:	ed56 3a02 	vldr	s7, [r6, #-8]
    4728:	ed56 4a01 	vldr	s9, [r6, #-4]
    472c:	46bc      	mov	ip, r7
    472e:	ed17 7a02 	vldr	s14, [r7, #-8]
    4732:	ed17 6a01 	vldr	s12, [r7, #-4]
    4736:	f1b8 0f00 	cmp.w	r8, #0
    473a:	d063      	beq.n	4804 <arm_biquad_cascade_df2T_f32+0x108>
    473c:	f101 0410 	add.w	r4, r1, #16
    4740:	f102 0010 	add.w	r0, r2, #16
    4744:	4645      	mov	r5, r8
    4746:	ed54 6a04 	vldr	s13, [r4, #-16]
    474a:	ed54 7a03 	vldr	s15, [r4, #-12]
    474e:	ed14 5a02 	vldr	s10, [r4, #-8]
    4752:	ed54 1a01 	vldr	s3, [r4, #-4]
    4756:	ee22 2aa6 	vmul.f32	s4, s5, s13
    475a:	ee32 2a07 	vadd.f32	s4, s4, s14
    475e:	ee23 7a26 	vmul.f32	s14, s6, s13
    4762:	ee63 5a82 	vmul.f32	s11, s7, s4
    4766:	ee77 5a25 	vadd.f32	s11, s14, s11
    476a:	ee75 5a86 	vadd.f32	s11, s11, s12
    476e:	ee22 7aa7 	vmul.f32	s14, s5, s15
    4772:	ee75 5a87 	vadd.f32	s11, s11, s14
    4776:	ee64 6a26 	vmul.f32	s13, s8, s13
    477a:	ee24 7a82 	vmul.f32	s14, s9, s4
    477e:	ee36 7a87 	vadd.f32	s14, s13, s14
    4782:	ee63 6a27 	vmul.f32	s13, s6, s15
    4786:	ee23 6aa5 	vmul.f32	s12, s7, s11
    478a:	ee76 6a86 	vadd.f32	s13, s13, s12
    478e:	ee77 6a26 	vadd.f32	s13, s14, s13
    4792:	ee22 7a85 	vmul.f32	s14, s5, s10
    4796:	ee76 6a87 	vadd.f32	s13, s13, s14
    479a:	ee64 7a27 	vmul.f32	s15, s8, s15
    479e:	ee24 7aa5 	vmul.f32	s14, s9, s11
    47a2:	ee37 7a87 	vadd.f32	s14, s15, s14
    47a6:	ee63 7a05 	vmul.f32	s15, s6, s10
    47aa:	ee23 6aa6 	vmul.f32	s12, s7, s13
    47ae:	ee77 7a86 	vadd.f32	s15, s15, s12
    47b2:	ee77 7a27 	vadd.f32	s15, s14, s15
    47b6:	ee22 7aa1 	vmul.f32	s14, s5, s3
    47ba:	ee77 7a87 	vadd.f32	s15, s15, s14
    47be:	ee24 5a05 	vmul.f32	s10, s8, s10
    47c2:	ee24 7aa6 	vmul.f32	s14, s9, s13
    47c6:	ee35 5a07 	vadd.f32	s10, s10, s14
    47ca:	ee23 6a21 	vmul.f32	s12, s6, s3
    47ce:	ee23 7aa7 	vmul.f32	s14, s7, s15
    47d2:	ee36 7a07 	vadd.f32	s14, s12, s14
    47d6:	ee35 7a07 	vadd.f32	s14, s10, s14
    47da:	ee24 5a21 	vmul.f32	s10, s8, s3
    47de:	ee24 6aa7 	vmul.f32	s12, s9, s15
    47e2:	ee35 6a06 	vadd.f32	s12, s10, s12
    47e6:	ed00 2a04 	vstr	s4, [r0, #-16]
    47ea:	ed40 5a03 	vstr	s11, [r0, #-12]
    47ee:	ed40 6a02 	vstr	s13, [r0, #-8]
    47f2:	ed40 7a01 	vstr	s15, [r0, #-4]
    47f6:	3410      	adds	r4, #16
    47f8:	3010      	adds	r0, #16
    47fa:	3d01      	subs	r5, #1
    47fc:	d1a3      	bne.n	4746 <arm_biquad_cascade_df2T_f32+0x4a>
    47fe:	4449      	add	r1, r9
    4800:	4654      	mov	r4, sl
    4802:	e000      	b.n	4806 <arm_biquad_cascade_df2T_f32+0x10a>
    4804:	4614      	mov	r4, r2
    4806:	f013 0003 	ands.w	r0, r3, #3
    480a:	d017      	beq.n	483c <arm_biquad_cascade_df2T_f32+0x140>
    480c:	ecf1 5a01 	vldmia	r1!, {s11}
    4810:	ee62 6aa5 	vmul.f32	s13, s5, s11
    4814:	ee76 6a87 	vadd.f32	s13, s13, s14
    4818:	ee63 7a25 	vmul.f32	s15, s6, s11
    481c:	ee23 7aa6 	vmul.f32	s14, s7, s13
    4820:	ee37 7a87 	vadd.f32	s14, s15, s14
    4824:	ee37 7a06 	vadd.f32	s14, s14, s12
    4828:	ee64 5a25 	vmul.f32	s11, s8, s11
    482c:	ee64 7aa6 	vmul.f32	s15, s9, s13
    4830:	ee35 6aa7 	vadd.f32	s12, s11, s15
    4834:	ece4 6a01 	vstmia	r4!, {s13}
    4838:	3801      	subs	r0, #1
    483a:	d1e7      	bne.n	480c <arm_biquad_cascade_df2T_f32+0x110>
    483c:	ed0c 7a02 	vstr	s14, [ip, #-8]
    4840:	ed0c 6a01 	vstr	s12, [ip, #-4]
    4844:	3614      	adds	r6, #20
    4846:	3708      	adds	r7, #8
    4848:	4611      	mov	r1, r2
    484a:	f1be 0e01 	subs.w	lr, lr, #1
    484e:	f47f af63 	bne.w	4718 <arm_biquad_cascade_df2T_f32+0x1c>
    4852:	e8bd 87f0 	ldmia.w	sp!, {r4, r5, r6, r7, r8, r9, sl, pc}
    4856:	bf00      	nop

00004858 <arm_biquad_cascade_df2T_init_f32>:
    4858:	b580      	push	{r7, lr}
    485a:	b084      	sub	sp, #16
    485c:	af00      	add	r7, sp, #0
    485e:	60f8      	str	r0, [r7, #12]
    4860:	607a      	str	r2, [r7, #4]
    4862:	603b      	str	r3, [r7, #0]
    4864:	460b      	mov	r3, r1
    4866:	72fb      	strb	r3, [r7, #11]
    4868:	68fb      	ldr	r3, [r7, #12]
    486a:	7afa      	ldrb	r2, [r7, #11]
    486c:	701a      	strb	r2, [r3, #0]
    486e:	68fb      	ldr	r3, [r7, #12]
    4870:	687a      	ldr	r2, [r7, #4]
    4872:	609a      	str	r2, [r3, #8]
    4874:	7afb      	ldrb	r3, [r7, #11]
    4876:	00db      	lsls	r3, r3, #3
    4878:	461a      	mov	r2, r3
    487a:	2100      	movs	r1, #0
    487c:	6838      	ldr	r0, [r7, #0]
    487e:	f002 fada 	bl	6e36 <memset>
    4882:	68fb      	ldr	r3, [r7, #12]
    4884:	683a      	ldr	r2, [r7, #0]
    4886:	605a      	str	r2, [r3, #4]
    4888:	bf00      	nop
    488a:	3710      	adds	r7, #16
    488c:	46bd      	mov	sp, r7
    488e:	bd80      	pop	{r7, pc}

00004890 <arm_fir_f32>:
    4890:	b480      	push	{r7}
    4892:	b0a7      	sub	sp, #156	; 0x9c
    4894:	af00      	add	r7, sp, #0
    4896:	60f8      	str	r0, [r7, #12]
    4898:	60b9      	str	r1, [r7, #8]
    489a:	607a      	str	r2, [r7, #4]
    489c:	603b      	str	r3, [r7, #0]
    489e:	68fb      	ldr	r3, [r7, #12]
    48a0:	685b      	ldr	r3, [r3, #4]
    48a2:	f8c7 3094 	str.w	r3, [r7, #148]	; 0x94
    48a6:	68fb      	ldr	r3, [r7, #12]
    48a8:	689b      	ldr	r3, [r3, #8]
    48aa:	63fb      	str	r3, [r7, #60]	; 0x3c
    48ac:	68fb      	ldr	r3, [r7, #12]
    48ae:	881b      	ldrh	r3, [r3, #0]
    48b0:	63bb      	str	r3, [r7, #56]	; 0x38
    48b2:	68fb      	ldr	r3, [r7, #12]
    48b4:	685a      	ldr	r2, [r3, #4]
    48b6:	6bbb      	ldr	r3, [r7, #56]	; 0x38
    48b8:	f103 4380 	add.w	r3, r3, #1073741824	; 0x40000000
    48bc:	3b01      	subs	r3, #1
    48be:	009b      	lsls	r3, r3, #2
    48c0:	4413      	add	r3, r2
    48c2:	f8c7 3090 	str.w	r3, [r7, #144]	; 0x90
    48c6:	683b      	ldr	r3, [r7, #0]
    48c8:	08db      	lsrs	r3, r3, #3
    48ca:	643b      	str	r3, [r7, #64]	; 0x40
    48cc:	f000 bdf8 	b.w	54c0 <arm_fir_f32+0xc30>
    48d0:	f8d7 3090 	ldr.w	r3, [r7, #144]	; 0x90
    48d4:	1d1a      	adds	r2, r3, #4
    48d6:	f8c7 2090 	str.w	r2, [r7, #144]	; 0x90
    48da:	68ba      	ldr	r2, [r7, #8]
    48dc:	1d11      	adds	r1, r2, #4
    48de:	60b9      	str	r1, [r7, #8]
    48e0:	6812      	ldr	r2, [r2, #0]
    48e2:	601a      	str	r2, [r3, #0]
    48e4:	f8d7 3090 	ldr.w	r3, [r7, #144]	; 0x90
    48e8:	1d1a      	adds	r2, r3, #4
    48ea:	f8c7 2090 	str.w	r2, [r7, #144]	; 0x90
    48ee:	68ba      	ldr	r2, [r7, #8]
    48f0:	1d11      	adds	r1, r2, #4
    48f2:	60b9      	str	r1, [r7, #8]
    48f4:	6812      	ldr	r2, [r2, #0]
    48f6:	601a      	str	r2, [r3, #0]
    48f8:	f8d7 3090 	ldr.w	r3, [r7, #144]	; 0x90
    48fc:	1d1a      	adds	r2, r3, #4
    48fe:	f8c7 2090 	str.w	r2, [r7, #144]	; 0x90
    4902:	68ba      	ldr	r2, [r7, #8]
    4904:	1d11      	adds	r1, r2, #4
    4906:	60b9      	str	r1, [r7, #8]
    4908:	6812      	ldr	r2, [r2, #0]
    490a:	601a      	str	r2, [r3, #0]
    490c:	f8d7 3090 	ldr.w	r3, [r7, #144]	; 0x90
    4910:	1d1a      	adds	r2, r3, #4
    4912:	f8c7 2090 	str.w	r2, [r7, #144]	; 0x90
    4916:	68ba      	ldr	r2, [r7, #8]
    4918:	1d11      	adds	r1, r2, #4
    491a:	60b9      	str	r1, [r7, #8]
    491c:	6812      	ldr	r2, [r2, #0]
    491e:	601a      	str	r2, [r3, #0]
    4920:	f04f 0300 	mov.w	r3, #0
    4924:	f8c7 3084 	str.w	r3, [r7, #132]	; 0x84
    4928:	f04f 0300 	mov.w	r3, #0
    492c:	f8c7 3080 	str.w	r3, [r7, #128]	; 0x80
    4930:	f04f 0300 	mov.w	r3, #0
    4934:	67fb      	str	r3, [r7, #124]	; 0x7c
    4936:	f04f 0300 	mov.w	r3, #0
    493a:	67bb      	str	r3, [r7, #120]	; 0x78
    493c:	f04f 0300 	mov.w	r3, #0
    4940:	677b      	str	r3, [r7, #116]	; 0x74
    4942:	f04f 0300 	mov.w	r3, #0
    4946:	673b      	str	r3, [r7, #112]	; 0x70
    4948:	f04f 0300 	mov.w	r3, #0
    494c:	66fb      	str	r3, [r7, #108]	; 0x6c
    494e:	f04f 0300 	mov.w	r3, #0
    4952:	66bb      	str	r3, [r7, #104]	; 0x68
    4954:	f8d7 3094 	ldr.w	r3, [r7, #148]	; 0x94
    4958:	f8c7 308c 	str.w	r3, [r7, #140]	; 0x8c
    495c:	6bfb      	ldr	r3, [r7, #60]	; 0x3c
    495e:	f8c7 3088 	str.w	r3, [r7, #136]	; 0x88
    4962:	f8d7 3090 	ldr.w	r3, [r7, #144]	; 0x90
    4966:	1d1a      	adds	r2, r3, #4
    4968:	f8c7 2090 	str.w	r2, [r7, #144]	; 0x90
    496c:	68ba      	ldr	r2, [r7, #8]
    496e:	1d11      	adds	r1, r2, #4
    4970:	60b9      	str	r1, [r7, #8]
    4972:	6812      	ldr	r2, [r2, #0]
    4974:	601a      	str	r2, [r3, #0]
    4976:	f8d7 3090 	ldr.w	r3, [r7, #144]	; 0x90
    497a:	1d1a      	adds	r2, r3, #4
    497c:	f8c7 2090 	str.w	r2, [r7, #144]	; 0x90
    4980:	68ba      	ldr	r2, [r7, #8]
    4982:	1d11      	adds	r1, r2, #4
    4984:	60b9      	str	r1, [r7, #8]
    4986:	6812      	ldr	r2, [r2, #0]
    4988:	601a      	str	r2, [r3, #0]
    498a:	f8d7 3090 	ldr.w	r3, [r7, #144]	; 0x90
    498e:	1d1a      	adds	r2, r3, #4
    4990:	f8c7 2090 	str.w	r2, [r7, #144]	; 0x90
    4994:	68ba      	ldr	r2, [r7, #8]
    4996:	1d11      	adds	r1, r2, #4
    4998:	60b9      	str	r1, [r7, #8]
    499a:	6812      	ldr	r2, [r2, #0]
    499c:	601a      	str	r2, [r3, #0]
    499e:	f8d7 3090 	ldr.w	r3, [r7, #144]	; 0x90
    49a2:	1d1a      	adds	r2, r3, #4
    49a4:	f8c7 2090 	str.w	r2, [r7, #144]	; 0x90
    49a8:	68ba      	ldr	r2, [r7, #8]
    49aa:	1d11      	adds	r1, r2, #4
    49ac:	60b9      	str	r1, [r7, #8]
    49ae:	6812      	ldr	r2, [r2, #0]
    49b0:	601a      	str	r2, [r3, #0]
    49b2:	f8d7 308c 	ldr.w	r3, [r7, #140]	; 0x8c
    49b6:	1d1a      	adds	r2, r3, #4
    49b8:	f8c7 208c 	str.w	r2, [r7, #140]	; 0x8c
    49bc:	681b      	ldr	r3, [r3, #0]
    49be:	667b      	str	r3, [r7, #100]	; 0x64
    49c0:	f8d7 308c 	ldr.w	r3, [r7, #140]	; 0x8c
    49c4:	1d1a      	adds	r2, r3, #4
    49c6:	f8c7 208c 	str.w	r2, [r7, #140]	; 0x8c
    49ca:	681b      	ldr	r3, [r3, #0]
    49cc:	663b      	str	r3, [r7, #96]	; 0x60
    49ce:	f8d7 308c 	ldr.w	r3, [r7, #140]	; 0x8c
    49d2:	1d1a      	adds	r2, r3, #4
    49d4:	f8c7 208c 	str.w	r2, [r7, #140]	; 0x8c
    49d8:	681b      	ldr	r3, [r3, #0]
    49da:	65fb      	str	r3, [r7, #92]	; 0x5c
    49dc:	f8d7 308c 	ldr.w	r3, [r7, #140]	; 0x8c
    49e0:	1d1a      	adds	r2, r3, #4
    49e2:	f8c7 208c 	str.w	r2, [r7, #140]	; 0x8c
    49e6:	681b      	ldr	r3, [r3, #0]
    49e8:	65bb      	str	r3, [r7, #88]	; 0x58
    49ea:	f8d7 308c 	ldr.w	r3, [r7, #140]	; 0x8c
    49ee:	1d1a      	adds	r2, r3, #4
    49f0:	f8c7 208c 	str.w	r2, [r7, #140]	; 0x8c
    49f4:	681b      	ldr	r3, [r3, #0]
    49f6:	657b      	str	r3, [r7, #84]	; 0x54
    49f8:	f8d7 308c 	ldr.w	r3, [r7, #140]	; 0x8c
    49fc:	1d1a      	adds	r2, r3, #4
    49fe:	f8c7 208c 	str.w	r2, [r7, #140]	; 0x8c
    4a02:	681b      	ldr	r3, [r3, #0]
    4a04:	653b      	str	r3, [r7, #80]	; 0x50
    4a06:	f8d7 308c 	ldr.w	r3, [r7, #140]	; 0x8c
    4a0a:	1d1a      	adds	r2, r3, #4
    4a0c:	f8c7 208c 	str.w	r2, [r7, #140]	; 0x8c
    4a10:	681b      	ldr	r3, [r3, #0]
    4a12:	64fb      	str	r3, [r7, #76]	; 0x4c
    4a14:	6bbb      	ldr	r3, [r7, #56]	; 0x38
    4a16:	08db      	lsrs	r3, r3, #3
    4a18:	647b      	str	r3, [r7, #68]	; 0x44
    4a1a:	f000 bc73 	b.w	5304 <arm_fir_f32+0xa74>
    4a1e:	f8d7 3088 	ldr.w	r3, [r7, #136]	; 0x88
    4a22:	1d1a      	adds	r2, r3, #4
    4a24:	f8c7 2088 	str.w	r2, [r7, #136]	; 0x88
    4a28:	681b      	ldr	r3, [r3, #0]
    4a2a:	637b      	str	r3, [r7, #52]	; 0x34
    4a2c:	f8d7 308c 	ldr.w	r3, [r7, #140]	; 0x8c
    4a30:	1d1a      	adds	r2, r3, #4
    4a32:	f8c7 208c 	str.w	r2, [r7, #140]	; 0x8c
    4a36:	681b      	ldr	r3, [r3, #0]
    4a38:	633b      	str	r3, [r7, #48]	; 0x30
    4a3a:	ed97 7a19 	vldr	s14, [r7, #100]	; 0x64
    4a3e:	edd7 7a0d 	vldr	s15, [r7, #52]	; 0x34
    4a42:	ee67 7a27 	vmul.f32	s15, s14, s15
    4a46:	edc7 7a0b 	vstr	s15, [r7, #44]	; 0x2c
    4a4a:	ed97 7a18 	vldr	s14, [r7, #96]	; 0x60
    4a4e:	edd7 7a0d 	vldr	s15, [r7, #52]	; 0x34
    4a52:	ee67 7a27 	vmul.f32	s15, s14, s15
    4a56:	edc7 7a0a 	vstr	s15, [r7, #40]	; 0x28
    4a5a:	ed97 7a17 	vldr	s14, [r7, #92]	; 0x5c
    4a5e:	edd7 7a0d 	vldr	s15, [r7, #52]	; 0x34
    4a62:	ee67 7a27 	vmul.f32	s15, s14, s15
    4a66:	edc7 7a09 	vstr	s15, [r7, #36]	; 0x24
    4a6a:	ed97 7a16 	vldr	s14, [r7, #88]	; 0x58
    4a6e:	edd7 7a0d 	vldr	s15, [r7, #52]	; 0x34
    4a72:	ee67 7a27 	vmul.f32	s15, s14, s15
    4a76:	edc7 7a08 	vstr	s15, [r7, #32]
    4a7a:	ed97 7a15 	vldr	s14, [r7, #84]	; 0x54
    4a7e:	edd7 7a0d 	vldr	s15, [r7, #52]	; 0x34
    4a82:	ee67 7a27 	vmul.f32	s15, s14, s15
    4a86:	edc7 7a07 	vstr	s15, [r7, #28]
    4a8a:	ed97 7a14 	vldr	s14, [r7, #80]	; 0x50
    4a8e:	edd7 7a0d 	vldr	s15, [r7, #52]	; 0x34
    4a92:	ee67 7a27 	vmul.f32	s15, s14, s15
    4a96:	edc7 7a06 	vstr	s15, [r7, #24]
    4a9a:	ed97 7a13 	vldr	s14, [r7, #76]	; 0x4c
    4a9e:	edd7 7a0d 	vldr	s15, [r7, #52]	; 0x34
    4aa2:	ee67 7a27 	vmul.f32	s15, s14, s15
    4aa6:	edc7 7a05 	vstr	s15, [r7, #20]
    4aaa:	ed97 7a0c 	vldr	s14, [r7, #48]	; 0x30
    4aae:	edd7 7a0d 	vldr	s15, [r7, #52]	; 0x34
    4ab2:	ee67 7a27 	vmul.f32	s15, s14, s15
    4ab6:	edc7 7a04 	vstr	s15, [r7, #16]
    4aba:	f8d7 3088 	ldr.w	r3, [r7, #136]	; 0x88
    4abe:	1d1a      	adds	r2, r3, #4
    4ac0:	f8c7 2088 	str.w	r2, [r7, #136]	; 0x88
    4ac4:	681b      	ldr	r3, [r3, #0]
    4ac6:	637b      	str	r3, [r7, #52]	; 0x34
    4ac8:	f8d7 308c 	ldr.w	r3, [r7, #140]	; 0x8c
    4acc:	1d1a      	adds	r2, r3, #4
    4ace:	f8c7 208c 	str.w	r2, [r7, #140]	; 0x8c
    4ad2:	681b      	ldr	r3, [r3, #0]
    4ad4:	667b      	str	r3, [r7, #100]	; 0x64
    4ad6:	ed97 7a21 	vldr	s14, [r7, #132]	; 0x84
    4ada:	edd7 7a0b 	vldr	s15, [r7, #44]	; 0x2c
    4ade:	ee77 7a27 	vadd.f32	s15, s14, s15
    4ae2:	edc7 7a21 	vstr	s15, [r7, #132]	; 0x84
    4ae6:	ed97 7a20 	vldr	s14, [r7, #128]	; 0x80
    4aea:	edd7 7a0a 	vldr	s15, [r7, #40]	; 0x28
    4aee:	ee77 7a27 	vadd.f32	s15, s14, s15
    4af2:	edc7 7a20 	vstr	s15, [r7, #128]	; 0x80
    4af6:	ed97 7a1f 	vldr	s14, [r7, #124]	; 0x7c
    4afa:	edd7 7a09 	vldr	s15, [r7, #36]	; 0x24
    4afe:	ee77 7a27 	vadd.f32	s15, s14, s15
    4b02:	edc7 7a1f 	vstr	s15, [r7, #124]	; 0x7c
    4b06:	ed97 7a1e 	vldr	s14, [r7, #120]	; 0x78
    4b0a:	edd7 7a08 	vldr	s15, [r7, #32]
    4b0e:	ee77 7a27 	vadd.f32	s15, s14, s15
    4b12:	edc7 7a1e 	vstr	s15, [r7, #120]	; 0x78
    4b16:	ed97 7a1d 	vldr	s14, [r7, #116]	; 0x74
    4b1a:	edd7 7a07 	vldr	s15, [r7, #28]
    4b1e:	ee77 7a27 	vadd.f32	s15, s14, s15
    4b22:	edc7 7a1d 	vstr	s15, [r7, #116]	; 0x74
    4b26:	ed97 7a1c 	vldr	s14, [r7, #112]	; 0x70
    4b2a:	edd7 7a06 	vldr	s15, [r7, #24]
    4b2e:	ee77 7a27 	vadd.f32	s15, s14, s15
    4b32:	edc7 7a1c 	vstr	s15, [r7, #112]	; 0x70
    4b36:	ed97 7a1b 	vldr	s14, [r7, #108]	; 0x6c
    4b3a:	edd7 7a05 	vldr	s15, [r7, #20]
    4b3e:	ee77 7a27 	vadd.f32	s15, s14, s15
    4b42:	edc7 7a1b 	vstr	s15, [r7, #108]	; 0x6c
    4b46:	ed97 7a1a 	vldr	s14, [r7, #104]	; 0x68
    4b4a:	edd7 7a04 	vldr	s15, [r7, #16]
    4b4e:	ee77 7a27 	vadd.f32	s15, s14, s15
    4b52:	edc7 7a1a 	vstr	s15, [r7, #104]	; 0x68
    4b56:	ed97 7a18 	vldr	s14, [r7, #96]	; 0x60
    4b5a:	edd7 7a0d 	vldr	s15, [r7, #52]	; 0x34
    4b5e:	ee67 7a27 	vmul.f32	s15, s14, s15
    4b62:	edc7 7a0b 	vstr	s15, [r7, #44]	; 0x2c
    4b66:	ed97 7a17 	vldr	s14, [r7, #92]	; 0x5c
    4b6a:	edd7 7a0d 	vldr	s15, [r7, #52]	; 0x34
    4b6e:	ee67 7a27 	vmul.f32	s15, s14, s15
    4b72:	edc7 7a0a 	vstr	s15, [r7, #40]	; 0x28
    4b76:	ed97 7a16 	vldr	s14, [r7, #88]	; 0x58
    4b7a:	edd7 7a0d 	vldr	s15, [r7, #52]	; 0x34
    4b7e:	ee67 7a27 	vmul.f32	s15, s14, s15
    4b82:	edc7 7a09 	vstr	s15, [r7, #36]	; 0x24
    4b86:	ed97 7a15 	vldr	s14, [r7, #84]	; 0x54
    4b8a:	edd7 7a0d 	vldr	s15, [r7, #52]	; 0x34
    4b8e:	ee67 7a27 	vmul.f32	s15, s14, s15
    4b92:	edc7 7a08 	vstr	s15, [r7, #32]
    4b96:	ed97 7a14 	vldr	s14, [r7, #80]	; 0x50
    4b9a:	edd7 7a0d 	vldr	s15, [r7, #52]	; 0x34
    4b9e:	ee67 7a27 	vmul.f32	s15, s14, s15
    4ba2:	edc7 7a07 	vstr	s15, [r7, #28]
    4ba6:	ed97 7a13 	vldr	s14, [r7, #76]	; 0x4c
    4baa:	edd7 7a0d 	vldr	s15, [r7, #52]	; 0x34
    4bae:	ee67 7a27 	vmul.f32	s15, s14, s15
    4bb2:	edc7 7a06 	vstr	s15, [r7, #24]
    4bb6:	ed97 7a0c 	vldr	s14, [r7, #48]	; 0x30
    4bba:	edd7 7a0d 	vldr	s15, [r7, #52]	; 0x34
    4bbe:	ee67 7a27 	vmul.f32	s15, s14, s15
    4bc2:	edc7 7a05 	vstr	s15, [r7, #20]
    4bc6:	ed97 7a19 	vldr	s14, [r7, #100]	; 0x64
    4bca:	edd7 7a0d 	vldr	s15, [r7, #52]	; 0x34
    4bce:	ee67 7a27 	vmul.f32	s15, s14, s15
    4bd2:	edc7 7a04 	vstr	s15, [r7, #16]
    4bd6:	f8d7 3088 	ldr.w	r3, [r7, #136]	; 0x88
    4bda:	1d1a      	adds	r2, r3, #4
    4bdc:	f8c7 2088 	str.w	r2, [r7, #136]	; 0x88
    4be0:	681b      	ldr	r3, [r3, #0]
    4be2:	637b      	str	r3, [r7, #52]	; 0x34
    4be4:	f8d7 308c 	ldr.w	r3, [r7, #140]	; 0x8c
    4be8:	1d1a      	adds	r2, r3, #4
    4bea:	f8c7 208c 	str.w	r2, [r7, #140]	; 0x8c
    4bee:	681b      	ldr	r3, [r3, #0]
    4bf0:	663b      	str	r3, [r7, #96]	; 0x60
    4bf2:	ed97 7a21 	vldr	s14, [r7, #132]	; 0x84
    4bf6:	edd7 7a0b 	vldr	s15, [r7, #44]	; 0x2c
    4bfa:	ee77 7a27 	vadd.f32	s15, s14, s15
    4bfe:	edc7 7a21 	vstr	s15, [r7, #132]	; 0x84
    4c02:	ed97 7a20 	vldr	s14, [r7, #128]	; 0x80
    4c06:	edd7 7a0a 	vldr	s15, [r7, #40]	; 0x28
    4c0a:	ee77 7a27 	vadd.f32	s15, s14, s15
    4c0e:	edc7 7a20 	vstr	s15, [r7, #128]	; 0x80
    4c12:	ed97 7a1f 	vldr	s14, [r7, #124]	; 0x7c
    4c16:	edd7 7a09 	vldr	s15, [r7, #36]	; 0x24
    4c1a:	ee77 7a27 	vadd.f32	s15, s14, s15
    4c1e:	edc7 7a1f 	vstr	s15, [r7, #124]	; 0x7c
    4c22:	ed97 7a1e 	vldr	s14, [r7, #120]	; 0x78
    4c26:	edd7 7a08 	vldr	s15, [r7, #32]
    4c2a:	ee77 7a27 	vadd.f32	s15, s14, s15
    4c2e:	edc7 7a1e 	vstr	s15, [r7, #120]	; 0x78
    4c32:	ed97 7a1d 	vldr	s14, [r7, #116]	; 0x74
    4c36:	edd7 7a07 	vldr	s15, [r7, #28]
    4c3a:	ee77 7a27 	vadd.f32	s15, s14, s15
    4c3e:	edc7 7a1d 	vstr	s15, [r7, #116]	; 0x74
    4c42:	ed97 7a1c 	vldr	s14, [r7, #112]	; 0x70
    4c46:	edd7 7a06 	vldr	s15, [r7, #24]
    4c4a:	ee77 7a27 	vadd.f32	s15, s14, s15
    4c4e:	edc7 7a1c 	vstr	s15, [r7, #112]	; 0x70
    4c52:	ed97 7a1b 	vldr	s14, [r7, #108]	; 0x6c
    4c56:	edd7 7a05 	vldr	s15, [r7, #20]
    4c5a:	ee77 7a27 	vadd.f32	s15, s14, s15
    4c5e:	edc7 7a1b 	vstr	s15, [r7, #108]	; 0x6c
    4c62:	ed97 7a1a 	vldr	s14, [r7, #104]	; 0x68
    4c66:	edd7 7a04 	vldr	s15, [r7, #16]
    4c6a:	ee77 7a27 	vadd.f32	s15, s14, s15
    4c6e:	edc7 7a1a 	vstr	s15, [r7, #104]	; 0x68
    4c72:	ed97 7a17 	vldr	s14, [r7, #92]	; 0x5c
    4c76:	edd7 7a0d 	vldr	s15, [r7, #52]	; 0x34
    4c7a:	ee67 7a27 	vmul.f32	s15, s14, s15
    4c7e:	edc7 7a0b 	vstr	s15, [r7, #44]	; 0x2c
    4c82:	ed97 7a16 	vldr	s14, [r7, #88]	; 0x58
    4c86:	edd7 7a0d 	vldr	s15, [r7, #52]	; 0x34
    4c8a:	ee67 7a27 	vmul.f32	s15, s14, s15
    4c8e:	edc7 7a0a 	vstr	s15, [r7, #40]	; 0x28
    4c92:	ed97 7a15 	vldr	s14, [r7, #84]	; 0x54
    4c96:	edd7 7a0d 	vldr	s15, [r7, #52]	; 0x34
    4c9a:	ee67 7a27 	vmul.f32	s15, s14, s15
    4c9e:	edc7 7a09 	vstr	s15, [r7, #36]	; 0x24
    4ca2:	ed97 7a14 	vldr	s14, [r7, #80]	; 0x50
    4ca6:	edd7 7a0d 	vldr	s15, [r7, #52]	; 0x34
    4caa:	ee67 7a27 	vmul.f32	s15, s14, s15
    4cae:	edc7 7a08 	vstr	s15, [r7, #32]
    4cb2:	ed97 7a13 	vldr	s14, [r7, #76]	; 0x4c
    4cb6:	edd7 7a0d 	vldr	s15, [r7, #52]	; 0x34
    4cba:	ee67 7a27 	vmul.f32	s15, s14, s15
    4cbe:	edc7 7a07 	vstr	s15, [r7, #28]
    4cc2:	ed97 7a0c 	vldr	s14, [r7, #48]	; 0x30
    4cc6:	edd7 7a0d 	vldr	s15, [r7, #52]	; 0x34
    4cca:	ee67 7a27 	vmul.f32	s15, s14, s15
    4cce:	edc7 7a06 	vstr	s15, [r7, #24]
    4cd2:	ed97 7a19 	vldr	s14, [r7, #100]	; 0x64
    4cd6:	edd7 7a0d 	vldr	s15, [r7, #52]	; 0x34
    4cda:	ee67 7a27 	vmul.f32	s15, s14, s15
    4cde:	edc7 7a05 	vstr	s15, [r7, #20]
    4ce2:	ed97 7a18 	vldr	s14, [r7, #96]	; 0x60
    4ce6:	edd7 7a0d 	vldr	s15, [r7, #52]	; 0x34
    4cea:	ee67 7a27 	vmul.f32	s15, s14, s15
    4cee:	edc7 7a04 	vstr	s15, [r7, #16]
    4cf2:	f8d7 3088 	ldr.w	r3, [r7, #136]	; 0x88
    4cf6:	1d1a      	adds	r2, r3, #4
    4cf8:	f8c7 2088 	str.w	r2, [r7, #136]	; 0x88
    4cfc:	681b      	ldr	r3, [r3, #0]
    4cfe:	637b      	str	r3, [r7, #52]	; 0x34
    4d00:	f8d7 308c 	ldr.w	r3, [r7, #140]	; 0x8c
    4d04:	1d1a      	adds	r2, r3, #4
    4d06:	f8c7 208c 	str.w	r2, [r7, #140]	; 0x8c
    4d0a:	681b      	ldr	r3, [r3, #0]
    4d0c:	65fb      	str	r3, [r7, #92]	; 0x5c
    4d0e:	ed97 7a21 	vldr	s14, [r7, #132]	; 0x84
    4d12:	edd7 7a0b 	vldr	s15, [r7, #44]	; 0x2c
    4d16:	ee77 7a27 	vadd.f32	s15, s14, s15
    4d1a:	edc7 7a21 	vstr	s15, [r7, #132]	; 0x84
    4d1e:	ed97 7a20 	vldr	s14, [r7, #128]	; 0x80
    4d22:	edd7 7a0a 	vldr	s15, [r7, #40]	; 0x28
    4d26:	ee77 7a27 	vadd.f32	s15, s14, s15
    4d2a:	edc7 7a20 	vstr	s15, [r7, #128]	; 0x80
    4d2e:	ed97 7a1f 	vldr	s14, [r7, #124]	; 0x7c
    4d32:	edd7 7a09 	vldr	s15, [r7, #36]	; 0x24
    4d36:	ee77 7a27 	vadd.f32	s15, s14, s15
    4d3a:	edc7 7a1f 	vstr	s15, [r7, #124]	; 0x7c
    4d3e:	ed97 7a1e 	vldr	s14, [r7, #120]	; 0x78
    4d42:	edd7 7a08 	vldr	s15, [r7, #32]
    4d46:	ee77 7a27 	vadd.f32	s15, s14, s15
    4d4a:	edc7 7a1e 	vstr	s15, [r7, #120]	; 0x78
    4d4e:	ed97 7a1d 	vldr	s14, [r7, #116]	; 0x74
    4d52:	edd7 7a07 	vldr	s15, [r7, #28]
    4d56:	ee77 7a27 	vadd.f32	s15, s14, s15
    4d5a:	edc7 7a1d 	vstr	s15, [r7, #116]	; 0x74
    4d5e:	ed97 7a1c 	vldr	s14, [r7, #112]	; 0x70
    4d62:	edd7 7a06 	vldr	s15, [r7, #24]
    4d66:	ee77 7a27 	vadd.f32	s15, s14, s15
    4d6a:	edc7 7a1c 	vstr	s15, [r7, #112]	; 0x70
    4d6e:	ed97 7a1b 	vldr	s14, [r7, #108]	; 0x6c
    4d72:	edd7 7a05 	vldr	s15, [r7, #20]
    4d76:	ee77 7a27 	vadd.f32	s15, s14, s15
    4d7a:	edc7 7a1b 	vstr	s15, [r7, #108]	; 0x6c
    4d7e:	ed97 7a1a 	vldr	s14, [r7, #104]	; 0x68
    4d82:	edd7 7a04 	vldr	s15, [r7, #16]
    4d86:	ee77 7a27 	vadd.f32	s15, s14, s15
    4d8a:	edc7 7a1a 	vstr	s15, [r7, #104]	; 0x68
    4d8e:	ed97 7a16 	vldr	s14, [r7, #88]	; 0x58
    4d92:	edd7 7a0d 	vldr	s15, [r7, #52]	; 0x34
    4d96:	ee67 7a27 	vmul.f32	s15, s14, s15
    4d9a:	edc7 7a0b 	vstr	s15, [r7, #44]	; 0x2c
    4d9e:	ed97 7a15 	vldr	s14, [r7, #84]	; 0x54
    4da2:	edd7 7a0d 	vldr	s15, [r7, #52]	; 0x34
    4da6:	ee67 7a27 	vmul.f32	s15, s14, s15
    4daa:	edc7 7a0a 	vstr	s15, [r7, #40]	; 0x28
    4dae:	ed97 7a14 	vldr	s14, [r7, #80]	; 0x50
    4db2:	edd7 7a0d 	vldr	s15, [r7, #52]	; 0x34
    4db6:	ee67 7a27 	vmul.f32	s15, s14, s15
    4dba:	edc7 7a09 	vstr	s15, [r7, #36]	; 0x24
    4dbe:	ed97 7a13 	vldr	s14, [r7, #76]	; 0x4c
    4dc2:	edd7 7a0d 	vldr	s15, [r7, #52]	; 0x34
    4dc6:	ee67 7a27 	vmul.f32	s15, s14, s15
    4dca:	edc7 7a08 	vstr	s15, [r7, #32]
    4dce:	ed97 7a0c 	vldr	s14, [r7, #48]	; 0x30
    4dd2:	edd7 7a0d 	vldr	s15, [r7, #52]	; 0x34
    4dd6:	ee67 7a27 	vmul.f32	s15, s14, s15
    4dda:	edc7 7a07 	vstr	s15, [r7, #28]
    4dde:	ed97 7a19 	vldr	s14, [r7, #100]	; 0x64
    4de2:	edd7 7a0d 	vldr	s15, [r7, #52]	; 0x34
    4de6:	ee67 7a27 	vmul.f32	s15, s14, s15
    4dea:	edc7 7a06 	vstr	s15, [r7, #24]
    4dee:	ed97 7a18 	vldr	s14, [r7, #96]	; 0x60
    4df2:	edd7 7a0d 	vldr	s15, [r7, #52]	; 0x34
    4df6:	ee67 7a27 	vmul.f32	s15, s14, s15
    4dfa:	edc7 7a05 	vstr	s15, [r7, #20]
    4dfe:	ed97 7a17 	vldr	s14, [r7, #92]	; 0x5c
    4e02:	edd7 7a0d 	vldr	s15, [r7, #52]	; 0x34
    4e06:	ee67 7a27 	vmul.f32	s15, s14, s15
    4e0a:	edc7 7a04 	vstr	s15, [r7, #16]
    4e0e:	f8d7 3088 	ldr.w	r3, [r7, #136]	; 0x88
    4e12:	1d1a      	adds	r2, r3, #4
    4e14:	f8c7 2088 	str.w	r2, [r7, #136]	; 0x88
    4e18:	681b      	ldr	r3, [r3, #0]
    4e1a:	637b      	str	r3, [r7, #52]	; 0x34
    4e1c:	f8d7 308c 	ldr.w	r3, [r7, #140]	; 0x8c
    4e20:	1d1a      	adds	r2, r3, #4
    4e22:	f8c7 208c 	str.w	r2, [r7, #140]	; 0x8c
    4e26:	681b      	ldr	r3, [r3, #0]
    4e28:	65bb      	str	r3, [r7, #88]	; 0x58
    4e2a:	ed97 7a21 	vldr	s14, [r7, #132]	; 0x84
    4e2e:	edd7 7a0b 	vldr	s15, [r7, #44]	; 0x2c
    4e32:	ee77 7a27 	vadd.f32	s15, s14, s15
    4e36:	edc7 7a21 	vstr	s15, [r7, #132]	; 0x84
    4e3a:	ed97 7a20 	vldr	s14, [r7, #128]	; 0x80
    4e3e:	edd7 7a0a 	vldr	s15, [r7, #40]	; 0x28
    4e42:	ee77 7a27 	vadd.f32	s15, s14, s15
    4e46:	edc7 7a20 	vstr	s15, [r7, #128]	; 0x80
    4e4a:	ed97 7a1f 	vldr	s14, [r7, #124]	; 0x7c
    4e4e:	edd7 7a09 	vldr	s15, [r7, #36]	; 0x24
    4e52:	ee77 7a27 	vadd.f32	s15, s14, s15
    4e56:	edc7 7a1f 	vstr	s15, [r7, #124]	; 0x7c
    4e5a:	ed97 7a1e 	vldr	s14, [r7, #120]	; 0x78
    4e5e:	edd7 7a08 	vldr	s15, [r7, #32]
    4e62:	ee77 7a27 	vadd.f32	s15, s14, s15
    4e66:	edc7 7a1e 	vstr	s15, [r7, #120]	; 0x78
    4e6a:	ed97 7a1d 	vldr	s14, [r7, #116]	; 0x74
    4e6e:	edd7 7a07 	vldr	s15, [r7, #28]
    4e72:	ee77 7a27 	vadd.f32	s15, s14, s15
    4e76:	edc7 7a1d 	vstr	s15, [r7, #116]	; 0x74
    4e7a:	ed97 7a1c 	vldr	s14, [r7, #112]	; 0x70
    4e7e:	edd7 7a06 	vldr	s15, [r7, #24]
    4e82:	ee77 7a27 	vadd.f32	s15, s14, s15
    4e86:	edc7 7a1c 	vstr	s15, [r7, #112]	; 0x70
    4e8a:	ed97 7a1b 	vldr	s14, [r7, #108]	; 0x6c
    4e8e:	edd7 7a05 	vldr	s15, [r7, #20]
    4e92:	ee77 7a27 	vadd.f32	s15, s14, s15
    4e96:	edc7 7a1b 	vstr	s15, [r7, #108]	; 0x6c
    4e9a:	ed97 7a1a 	vldr	s14, [r7, #104]	; 0x68
    4e9e:	edd7 7a04 	vldr	s15, [r7, #16]
    4ea2:	ee77 7a27 	vadd.f32	s15, s14, s15
    4ea6:	edc7 7a1a 	vstr	s15, [r7, #104]	; 0x68
    4eaa:	ed97 7a15 	vldr	s14, [r7, #84]	; 0x54
    4eae:	edd7 7a0d 	vldr	s15, [r7, #52]	; 0x34
    4eb2:	ee67 7a27 	vmul.f32	s15, s14, s15
    4eb6:	edc7 7a0b 	vstr	s15, [r7, #44]	; 0x2c
    4eba:	ed97 7a14 	vldr	s14, [r7, #80]	; 0x50
    4ebe:	edd7 7a0d 	vldr	s15, [r7, #52]	; 0x34
    4ec2:	ee67 7a27 	vmul.f32	s15, s14, s15
    4ec6:	edc7 7a0a 	vstr	s15, [r7, #40]	; 0x28
    4eca:	ed97 7a13 	vldr	s14, [r7, #76]	; 0x4c
    4ece:	edd7 7a0d 	vldr	s15, [r7, #52]	; 0x34
    4ed2:	ee67 7a27 	vmul.f32	s15, s14, s15
    4ed6:	edc7 7a09 	vstr	s15, [r7, #36]	; 0x24
    4eda:	ed97 7a0c 	vldr	s14, [r7, #48]	; 0x30
    4ede:	edd7 7a0d 	vldr	s15, [r7, #52]	; 0x34
    4ee2:	ee67 7a27 	vmul.f32	s15, s14, s15
    4ee6:	edc7 7a08 	vstr	s15, [r7, #32]
    4eea:	ed97 7a19 	vldr	s14, [r7, #100]	; 0x64
    4eee:	edd7 7a0d 	vldr	s15, [r7, #52]	; 0x34
    4ef2:	ee67 7a27 	vmul.f32	s15, s14, s15
    4ef6:	edc7 7a07 	vstr	s15, [r7, #28]
    4efa:	ed97 7a18 	vldr	s14, [r7, #96]	; 0x60
    4efe:	edd7 7a0d 	vldr	s15, [r7, #52]	; 0x34
    4f02:	ee67 7a27 	vmul.f32	s15, s14, s15
    4f06:	edc7 7a06 	vstr	s15, [r7, #24]
    4f0a:	ed97 7a17 	vldr	s14, [r7, #92]	; 0x5c
    4f0e:	edd7 7a0d 	vldr	s15, [r7, #52]	; 0x34
    4f12:	ee67 7a27 	vmul.f32	s15, s14, s15
    4f16:	edc7 7a05 	vstr	s15, [r7, #20]
    4f1a:	ed97 7a16 	vldr	s14, [r7, #88]	; 0x58
    4f1e:	edd7 7a0d 	vldr	s15, [r7, #52]	; 0x34
    4f22:	ee67 7a27 	vmul.f32	s15, s14, s15
    4f26:	edc7 7a04 	vstr	s15, [r7, #16]
    4f2a:	f8d7 3088 	ldr.w	r3, [r7, #136]	; 0x88
    4f2e:	1d1a      	adds	r2, r3, #4
    4f30:	f8c7 2088 	str.w	r2, [r7, #136]	; 0x88
    4f34:	681b      	ldr	r3, [r3, #0]
    4f36:	637b      	str	r3, [r7, #52]	; 0x34
    4f38:	f8d7 308c 	ldr.w	r3, [r7, #140]	; 0x8c
    4f3c:	1d1a      	adds	r2, r3, #4
    4f3e:	f8c7 208c 	str.w	r2, [r7, #140]	; 0x8c
    4f42:	681b      	ldr	r3, [r3, #0]
    4f44:	657b      	str	r3, [r7, #84]	; 0x54
    4f46:	ed97 7a21 	vldr	s14, [r7, #132]	; 0x84
    4f4a:	edd7 7a0b 	vldr	s15, [r7, #44]	; 0x2c
    4f4e:	ee77 7a27 	vadd.f32	s15, s14, s15
    4f52:	edc7 7a21 	vstr	s15, [r7, #132]	; 0x84
    4f56:	ed97 7a20 	vldr	s14, [r7, #128]	; 0x80
    4f5a:	edd7 7a0a 	vldr	s15, [r7, #40]	; 0x28
    4f5e:	ee77 7a27 	vadd.f32	s15, s14, s15
    4f62:	edc7 7a20 	vstr	s15, [r7, #128]	; 0x80
    4f66:	ed97 7a1f 	vldr	s14, [r7, #124]	; 0x7c
    4f6a:	edd7 7a09 	vldr	s15, [r7, #36]	; 0x24
    4f6e:	ee77 7a27 	vadd.f32	s15, s14, s15
    4f72:	edc7 7a1f 	vstr	s15, [r7, #124]	; 0x7c
    4f76:	ed97 7a1e 	vldr	s14, [r7, #120]	; 0x78
    4f7a:	edd7 7a08 	vldr	s15, [r7, #32]
    4f7e:	ee77 7a27 	vadd.f32	s15, s14, s15
    4f82:	edc7 7a1e 	vstr	s15, [r7, #120]	; 0x78
    4f86:	ed97 7a1d 	vldr	s14, [r7, #116]	; 0x74
    4f8a:	edd7 7a07 	vldr	s15, [r7, #28]
    4f8e:	ee77 7a27 	vadd.f32	s15, s14, s15
    4f92:	edc7 7a1d 	vstr	s15, [r7, #116]	; 0x74
    4f96:	ed97 7a1c 	vldr	s14, [r7, #112]	; 0x70
    4f9a:	edd7 7a06 	vldr	s15, [r7, #24]
    4f9e:	ee77 7a27 	vadd.f32	s15, s14, s15
    4fa2:	edc7 7a1c 	vstr	s15, [r7, #112]	; 0x70
    4fa6:	ed97 7a1b 	vldr	s14, [r7, #108]	; 0x6c
    4faa:	edd7 7a05 	vldr	s15, [r7, #20]
    4fae:	ee77 7a27 	vadd.f32	s15, s14, s15
    4fb2:	edc7 7a1b 	vstr	s15, [r7, #108]	; 0x6c
    4fb6:	ed97 7a1a 	vldr	s14, [r7, #104]	; 0x68
    4fba:	edd7 7a04 	vldr	s15, [r7, #16]
    4fbe:	ee77 7a27 	vadd.f32	s15, s14, s15
    4fc2:	edc7 7a1a 	vstr	s15, [r7, #104]	; 0x68
    4fc6:	ed97 7a14 	vldr	s14, [r7, #80]	; 0x50
    4fca:	edd7 7a0d 	vldr	s15, [r7, #52]	; 0x34
    4fce:	ee67 7a27 	vmul.f32	s15, s14, s15
    4fd2:	edc7 7a0b 	vstr	s15, [r7, #44]	; 0x2c
    4fd6:	ed97 7a13 	vldr	s14, [r7, #76]	; 0x4c
    4fda:	edd7 7a0d 	vldr	s15, [r7, #52]	; 0x34
    4fde:	ee67 7a27 	vmul.f32	s15, s14, s15
    4fe2:	edc7 7a0a 	vstr	s15, [r7, #40]	; 0x28
    4fe6:	ed97 7a0c 	vldr	s14, [r7, #48]	; 0x30
    4fea:	edd7 7a0d 	vldr	s15, [r7, #52]	; 0x34
    4fee:	ee67 7a27 	vmul.f32	s15, s14, s15
    4ff2:	edc7 7a09 	vstr	s15, [r7, #36]	; 0x24
    4ff6:	ed97 7a19 	vldr	s14, [r7, #100]	; 0x64
    4ffa:	edd7 7a0d 	vldr	s15, [r7, #52]	; 0x34
    4ffe:	ee67 7a27 	vmul.f32	s15, s14, s15
    5002:	edc7 7a08 	vstr	s15, [r7, #32]
    5006:	ed97 7a18 	vldr	s14, [r7, #96]	; 0x60
    500a:	edd7 7a0d 	vldr	s15, [r7, #52]	; 0x34
    500e:	ee67 7a27 	vmul.f32	s15, s14, s15
    5012:	edc7 7a07 	vstr	s15, [r7, #28]
    5016:	ed97 7a17 	vldr	s14, [r7, #92]	; 0x5c
    501a:	edd7 7a0d 	vldr	s15, [r7, #52]	; 0x34
    501e:	ee67 7a27 	vmul.f32	s15, s14, s15
    5022:	edc7 7a06 	vstr	s15, [r7, #24]
    5026:	ed97 7a16 	vldr	s14, [r7, #88]	; 0x58
    502a:	edd7 7a0d 	vldr	s15, [r7, #52]	; 0x34
    502e:	ee67 7a27 	vmul.f32	s15, s14, s15
    5032:	edc7 7a05 	vstr	s15, [r7, #20]
    5036:	ed97 7a15 	vldr	s14, [r7, #84]	; 0x54
    503a:	edd7 7a0d 	vldr	s15, [r7, #52]	; 0x34
    503e:	ee67 7a27 	vmul.f32	s15, s14, s15
    5042:	edc7 7a04 	vstr	s15, [r7, #16]
    5046:	f8d7 3088 	ldr.w	r3, [r7, #136]	; 0x88
    504a:	1d1a      	adds	r2, r3, #4
    504c:	f8c7 2088 	str.w	r2, [r7, #136]	; 0x88
    5050:	681b      	ldr	r3, [r3, #0]
    5052:	637b      	str	r3, [r7, #52]	; 0x34
    5054:	f8d7 308c 	ldr.w	r3, [r7, #140]	; 0x8c
    5058:	1d1a      	adds	r2, r3, #4
    505a:	f8c7 208c 	str.w	r2, [r7, #140]	; 0x8c
    505e:	681b      	ldr	r3, [r3, #0]
    5060:	653b      	str	r3, [r7, #80]	; 0x50
    5062:	ed97 7a21 	vldr	s14, [r7, #132]	; 0x84
    5066:	edd7 7a0b 	vldr	s15, [r7, #44]	; 0x2c
    506a:	ee77 7a27 	vadd.f32	s15, s14, s15
    506e:	edc7 7a21 	vstr	s15, [r7, #132]	; 0x84
    5072:	ed97 7a20 	vldr	s14, [r7, #128]	; 0x80
    5076:	edd7 7a0a 	vldr	s15, [r7, #40]	; 0x28
    507a:	ee77 7a27 	vadd.f32	s15, s14, s15
    507e:	edc7 7a20 	vstr	s15, [r7, #128]	; 0x80
    5082:	ed97 7a1f 	vldr	s14, [r7, #124]	; 0x7c
    5086:	edd7 7a09 	vldr	s15, [r7, #36]	; 0x24
    508a:	ee77 7a27 	vadd.f32	s15, s14, s15
    508e:	edc7 7a1f 	vstr	s15, [r7, #124]	; 0x7c
    5092:	ed97 7a1e 	vldr	s14, [r7, #120]	; 0x78
    5096:	edd7 7a08 	vldr	s15, [r7, #32]
    509a:	ee77 7a27 	vadd.f32	s15, s14, s15
    509e:	edc7 7a1e 	vstr	s15, [r7, #120]	; 0x78
    50a2:	ed97 7a1d 	vldr	s14, [r7, #116]	; 0x74
    50a6:	edd7 7a07 	vldr	s15, [r7, #28]
    50aa:	ee77 7a27 	vadd.f32	s15, s14, s15
    50ae:	edc7 7a1d 	vstr	s15, [r7, #116]	; 0x74
    50b2:	ed97 7a1c 	vldr	s14, [r7, #112]	; 0x70
    50b6:	edd7 7a06 	vldr	s15, [r7, #24]
    50ba:	ee77 7a27 	vadd.f32	s15, s14, s15
    50be:	edc7 7a1c 	vstr	s15, [r7, #112]	; 0x70
    50c2:	ed97 7a1b 	vldr	s14, [r7, #108]	; 0x6c
    50c6:	edd7 7a05 	vldr	s15, [r7, #20]
    50ca:	ee77 7a27 	vadd.f32	s15, s14, s15
    50ce:	edc7 7a1b 	vstr	s15, [r7, #108]	; 0x6c
    50d2:	ed97 7a1a 	vldr	s14, [r7, #104]	; 0x68
    50d6:	edd7 7a04 	vldr	s15, [r7, #16]
    50da:	ee77 7a27 	vadd.f32	s15, s14, s15
    50de:	edc7 7a1a 	vstr	s15, [r7, #104]	; 0x68
    50e2:	ed97 7a13 	vldr	s14, [r7, #76]	; 0x4c
    50e6:	edd7 7a0d 	vldr	s15, [r7, #52]	; 0x34
    50ea:	ee67 7a27 	vmul.f32	s15, s14, s15
    50ee:	edc7 7a0b 	vstr	s15, [r7, #44]	; 0x2c
    50f2:	ed97 7a0c 	vldr	s14, [r7, #48]	; 0x30
    50f6:	edd7 7a0d 	vldr	s15, [r7, #52]	; 0x34
    50fa:	ee67 7a27 	vmul.f32	s15, s14, s15
    50fe:	edc7 7a0a 	vstr	s15, [r7, #40]	; 0x28
    5102:	ed97 7a19 	vldr	s14, [r7, #100]	; 0x64
    5106:	edd7 7a0d 	vldr	s15, [r7, #52]	; 0x34
    510a:	ee67 7a27 	vmul.f32	s15, s14, s15
    510e:	edc7 7a09 	vstr	s15, [r7, #36]	; 0x24
    5112:	ed97 7a18 	vldr	s14, [r7, #96]	; 0x60
    5116:	edd7 7a0d 	vldr	s15, [r7, #52]	; 0x34
    511a:	ee67 7a27 	vmul.f32	s15, s14, s15
    511e:	edc7 7a08 	vstr	s15, [r7, #32]
    5122:	ed97 7a17 	vldr	s14, [r7, #92]	; 0x5c
    5126:	edd7 7a0d 	vldr	s15, [r7, #52]	; 0x34
    512a:	ee67 7a27 	vmul.f32	s15, s14, s15
    512e:	edc7 7a07 	vstr	s15, [r7, #28]
    5132:	ed97 7a16 	vldr	s14, [r7, #88]	; 0x58
    5136:	edd7 7a0d 	vldr	s15, [r7, #52]	; 0x34
    513a:	ee67 7a27 	vmul.f32	s15, s14, s15
    513e:	edc7 7a06 	vstr	s15, [r7, #24]
    5142:	ed97 7a15 	vldr	s14, [r7, #84]	; 0x54
    5146:	edd7 7a0d 	vldr	s15, [r7, #52]	; 0x34
    514a:	ee67 7a27 	vmul.f32	s15, s14, s15
    514e:	edc7 7a05 	vstr	s15, [r7, #20]
    5152:	ed97 7a14 	vldr	s14, [r7, #80]	; 0x50
    5156:	edd7 7a0d 	vldr	s15, [r7, #52]	; 0x34
    515a:	ee67 7a27 	vmul.f32	s15, s14, s15
    515e:	edc7 7a04 	vstr	s15, [r7, #16]
    5162:	f8d7 3088 	ldr.w	r3, [r7, #136]	; 0x88
    5166:	1d1a      	adds	r2, r3, #4
    5168:	f8c7 2088 	str.w	r2, [r7, #136]	; 0x88
    516c:	681b      	ldr	r3, [r3, #0]
    516e:	637b      	str	r3, [r7, #52]	; 0x34
    5170:	f8d7 308c 	ldr.w	r3, [r7, #140]	; 0x8c
    5174:	1d1a      	adds	r2, r3, #4
    5176:	f8c7 208c 	str.w	r2, [r7, #140]	; 0x8c
    517a:	681b      	ldr	r3, [r3, #0]
    517c:	64fb      	str	r3, [r7, #76]	; 0x4c
    517e:	ed97 7a21 	vldr	s14, [r7, #132]	; 0x84
    5182:	edd7 7a0b 	vldr	s15, [r7, #44]	; 0x2c
    5186:	ee77 7a27 	vadd.f32	s15, s14, s15
    518a:	edc7 7a21 	vstr	s15, [r7, #132]	; 0x84
    518e:	ed97 7a20 	vldr	s14, [r7, #128]	; 0x80
    5192:	edd7 7a0a 	vldr	s15, [r7, #40]	; 0x28
    5196:	ee77 7a27 	vadd.f32	s15, s14, s15
    519a:	edc7 7a20 	vstr	s15, [r7, #128]	; 0x80
    519e:	ed97 7a1f 	vldr	s14, [r7, #124]	; 0x7c
    51a2:	edd7 7a09 	vldr	s15, [r7, #36]	; 0x24
    51a6:	ee77 7a27 	vadd.f32	s15, s14, s15
    51aa:	edc7 7a1f 	vstr	s15, [r7, #124]	; 0x7c
    51ae:	ed97 7a1e 	vldr	s14, [r7, #120]	; 0x78
    51b2:	edd7 7a08 	vldr	s15, [r7, #32]
    51b6:	ee77 7a27 	vadd.f32	s15, s14, s15
    51ba:	edc7 7a1e 	vstr	s15, [r7, #120]	; 0x78
    51be:	ed97 7a1d 	vldr	s14, [r7, #116]	; 0x74
    51c2:	edd7 7a07 	vldr	s15, [r7, #28]
    51c6:	ee77 7a27 	vadd.f32	s15, s14, s15
    51ca:	edc7 7a1d 	vstr	s15, [r7, #116]	; 0x74
    51ce:	ed97 7a1c 	vldr	s14, [r7, #112]	; 0x70
    51d2:	edd7 7a06 	vldr	s15, [r7, #24]
    51d6:	ee77 7a27 	vadd.f32	s15, s14, s15
    51da:	edc7 7a1c 	vstr	s15, [r7, #112]	; 0x70
    51de:	ed97 7a1b 	vldr	s14, [r7, #108]	; 0x6c
    51e2:	edd7 7a05 	vldr	s15, [r7, #20]
    51e6:	ee77 7a27 	vadd.f32	s15, s14, s15
    51ea:	edc7 7a1b 	vstr	s15, [r7, #108]	; 0x6c
    51ee:	ed97 7a1a 	vldr	s14, [r7, #104]	; 0x68
    51f2:	edd7 7a04 	vldr	s15, [r7, #16]
    51f6:	ee77 7a27 	vadd.f32	s15, s14, s15
    51fa:	edc7 7a1a 	vstr	s15, [r7, #104]	; 0x68
    51fe:	ed97 7a0c 	vldr	s14, [r7, #48]	; 0x30
    5202:	edd7 7a0d 	vldr	s15, [r7, #52]	; 0x34
    5206:	ee67 7a27 	vmul.f32	s15, s14, s15
    520a:	edc7 7a0b 	vstr	s15, [r7, #44]	; 0x2c
    520e:	ed97 7a19 	vldr	s14, [r7, #100]	; 0x64
    5212:	edd7 7a0d 	vldr	s15, [r7, #52]	; 0x34
    5216:	ee67 7a27 	vmul.f32	s15, s14, s15
    521a:	edc7 7a0a 	vstr	s15, [r7, #40]	; 0x28
    521e:	ed97 7a18 	vldr	s14, [r7, #96]	; 0x60
    5222:	edd7 7a0d 	vldr	s15, [r7, #52]	; 0x34
    5226:	ee67 7a27 	vmul.f32	s15, s14, s15
    522a:	edc7 7a09 	vstr	s15, [r7, #36]	; 0x24
    522e:	ed97 7a17 	vldr	s14, [r7, #92]	; 0x5c
    5232:	edd7 7a0d 	vldr	s15, [r7, #52]	; 0x34
    5236:	ee67 7a27 	vmul.f32	s15, s14, s15
    523a:	edc7 7a08 	vstr	s15, [r7, #32]
    523e:	ed97 7a16 	vldr	s14, [r7, #88]	; 0x58
    5242:	edd7 7a0d 	vldr	s15, [r7, #52]	; 0x34
    5246:	ee67 7a27 	vmul.f32	s15, s14, s15
    524a:	edc7 7a07 	vstr	s15, [r7, #28]
    524e:	ed97 7a15 	vldr	s14, [r7, #84]	; 0x54
    5252:	edd7 7a0d 	vldr	s15, [r7, #52]	; 0x34
    5256:	ee67 7a27 	vmul.f32	s15, s14, s15
    525a:	edc7 7a06 	vstr	s15, [r7, #24]
    525e:	ed97 7a14 	vldr	s14, [r7, #80]	; 0x50
    5262:	edd7 7a0d 	vldr	s15, [r7, #52]	; 0x34
    5266:	ee67 7a27 	vmul.f32	s15, s14, s15
    526a:	edc7 7a05 	vstr	s15, [r7, #20]
    526e:	ed97 7a13 	vldr	s14, [r7, #76]	; 0x4c
    5272:	edd7 7a0d 	vldr	s15, [r7, #52]	; 0x34
    5276:	ee67 7a27 	vmul.f32	s15, s14, s15
    527a:	edc7 7a04 	vstr	s15, [r7, #16]
    527e:	6c7b      	ldr	r3, [r7, #68]	; 0x44
    5280:	3b01      	subs	r3, #1
    5282:	647b      	str	r3, [r7, #68]	; 0x44
    5284:	ed97 7a21 	vldr	s14, [r7, #132]	; 0x84
    5288:	edd7 7a0b 	vldr	s15, [r7, #44]	; 0x2c
    528c:	ee77 7a27 	vadd.f32	s15, s14, s15
    5290:	edc7 7a21 	vstr	s15, [r7, #132]	; 0x84
    5294:	ed97 7a20 	vldr	s14, [r7, #128]	; 0x80
    5298:	edd7 7a0a 	vldr	s15, [r7, #40]	; 0x28
    529c:	ee77 7a27 	vadd.f32	s15, s14, s15
    52a0:	edc7 7a20 	vstr	s15, [r7, #128]	; 0x80
    52a4:	ed97 7a1f 	vldr	s14, [r7, #124]	; 0x7c
    52a8:	edd7 7a09 	vldr	s15, [r7, #36]	; 0x24
    52ac:	ee77 7a27 	vadd.f32	s15, s14, s15
    52b0:	edc7 7a1f 	vstr	s15, [r7, #124]	; 0x7c
    52b4:	ed97 7a1e 	vldr	s14, [r7, #120]	; 0x78
    52b8:	edd7 7a08 	vldr	s15, [r7, #32]
    52bc:	ee77 7a27 	vadd.f32	s15, s14, s15
    52c0:	edc7 7a1e 	vstr	s15, [r7, #120]	; 0x78
    52c4:	ed97 7a1d 	vldr	s14, [r7, #116]	; 0x74
    52c8:	edd7 7a07 	vldr	s15, [r7, #28]
    52cc:	ee77 7a27 	vadd.f32	s15, s14, s15
    52d0:	edc7 7a1d 	vstr	s15, [r7, #116]	; 0x74
    52d4:	ed97 7a1c 	vldr	s14, [r7, #112]	; 0x70
    52d8:	edd7 7a06 	vldr	s15, [r7, #24]
    52dc:	ee77 7a27 	vadd.f32	s15, s14, s15
    52e0:	edc7 7a1c 	vstr	s15, [r7, #112]	; 0x70
    52e4:	ed97 7a1b 	vldr	s14, [r7, #108]	; 0x6c
    52e8:	edd7 7a05 	vldr	s15, [r7, #20]
    52ec:	ee77 7a27 	vadd.f32	s15, s14, s15
    52f0:	edc7 7a1b 	vstr	s15, [r7, #108]	; 0x6c
    52f4:	ed97 7a1a 	vldr	s14, [r7, #104]	; 0x68
    52f8:	edd7 7a04 	vldr	s15, [r7, #16]
    52fc:	ee77 7a27 	vadd.f32	s15, s14, s15
    5300:	edc7 7a1a 	vstr	s15, [r7, #104]	; 0x68
    5304:	6c7b      	ldr	r3, [r7, #68]	; 0x44
    5306:	2b00      	cmp	r3, #0
    5308:	f47f ab89 	bne.w	4a1e <arm_fir_f32+0x18e>
    530c:	6bbb      	ldr	r3, [r7, #56]	; 0x38
    530e:	f003 0307 	and.w	r3, r3, #7
    5312:	647b      	str	r3, [r7, #68]	; 0x44
    5314:	e09e      	b.n	5454 <arm_fir_f32+0xbc4>
    5316:	f8d7 3088 	ldr.w	r3, [r7, #136]	; 0x88
    531a:	1d1a      	adds	r2, r3, #4
    531c:	f8c7 2088 	str.w	r2, [r7, #136]	; 0x88
    5320:	681b      	ldr	r3, [r3, #0]
    5322:	637b      	str	r3, [r7, #52]	; 0x34
    5324:	f8d7 308c 	ldr.w	r3, [r7, #140]	; 0x8c
    5328:	1d1a      	adds	r2, r3, #4
    532a:	f8c7 208c 	str.w	r2, [r7, #140]	; 0x8c
    532e:	681b      	ldr	r3, [r3, #0]
    5330:	633b      	str	r3, [r7, #48]	; 0x30
    5332:	ed97 7a19 	vldr	s14, [r7, #100]	; 0x64
    5336:	edd7 7a0d 	vldr	s15, [r7, #52]	; 0x34
    533a:	ee67 7a27 	vmul.f32	s15, s14, s15
    533e:	edc7 7a0b 	vstr	s15, [r7, #44]	; 0x2c
    5342:	ed97 7a18 	vldr	s14, [r7, #96]	; 0x60
    5346:	edd7 7a0d 	vldr	s15, [r7, #52]	; 0x34
    534a:	ee67 7a27 	vmul.f32	s15, s14, s15
    534e:	edc7 7a0a 	vstr	s15, [r7, #40]	; 0x28
    5352:	ed97 7a17 	vldr	s14, [r7, #92]	; 0x5c
    5356:	edd7 7a0d 	vldr	s15, [r7, #52]	; 0x34
    535a:	ee67 7a27 	vmul.f32	s15, s14, s15
    535e:	edc7 7a09 	vstr	s15, [r7, #36]	; 0x24
    5362:	ed97 7a16 	vldr	s14, [r7, #88]	; 0x58
    5366:	edd7 7a0d 	vldr	s15, [r7, #52]	; 0x34
    536a:	ee67 7a27 	vmul.f32	s15, s14, s15
    536e:	edc7 7a08 	vstr	s15, [r7, #32]
    5372:	ed97 7a15 	vldr	s14, [r7, #84]	; 0x54
    5376:	edd7 7a0d 	vldr	s15, [r7, #52]	; 0x34
    537a:	ee67 7a27 	vmul.f32	s15, s14, s15
    537e:	edc7 7a07 	vstr	s15, [r7, #28]
    5382:	ed97 7a14 	vldr	s14, [r7, #80]	; 0x50
    5386:	edd7 7a0d 	vldr	s15, [r7, #52]	; 0x34
    538a:	ee67 7a27 	vmul.f32	s15, s14, s15
    538e:	edc7 7a06 	vstr	s15, [r7, #24]
    5392:	ed97 7a13 	vldr	s14, [r7, #76]	; 0x4c
    5396:	edd7 7a0d 	vldr	s15, [r7, #52]	; 0x34
    539a:	ee67 7a27 	vmul.f32	s15, s14, s15
    539e:	edc7 7a05 	vstr	s15, [r7, #20]
    53a2:	ed97 7a0c 	vldr	s14, [r7, #48]	; 0x30
    53a6:	edd7 7a0d 	vldr	s15, [r7, #52]	; 0x34
    53aa:	ee67 7a27 	vmul.f32	s15, s14, s15
    53ae:	edc7 7a04 	vstr	s15, [r7, #16]
    53b2:	6e3b      	ldr	r3, [r7, #96]	; 0x60
    53b4:	667b      	str	r3, [r7, #100]	; 0x64
    53b6:	6dfb      	ldr	r3, [r7, #92]	; 0x5c
    53b8:	663b      	str	r3, [r7, #96]	; 0x60
    53ba:	6dbb      	ldr	r3, [r7, #88]	; 0x58
    53bc:	65fb      	str	r3, [r7, #92]	; 0x5c
    53be:	6d7b      	ldr	r3, [r7, #84]	; 0x54
    53c0:	65bb      	str	r3, [r7, #88]	; 0x58
    53c2:	6d3b      	ldr	r3, [r7, #80]	; 0x50
    53c4:	657b      	str	r3, [r7, #84]	; 0x54
    53c6:	6cfb      	ldr	r3, [r7, #76]	; 0x4c
    53c8:	653b      	str	r3, [r7, #80]	; 0x50
    53ca:	6b3b      	ldr	r3, [r7, #48]	; 0x30
    53cc:	64fb      	str	r3, [r7, #76]	; 0x4c
    53ce:	ed97 7a21 	vldr	s14, [r7, #132]	; 0x84
    53d2:	edd7 7a0b 	vldr	s15, [r7, #44]	; 0x2c
    53d6:	ee77 7a27 	vadd.f32	s15, s14, s15
    53da:	edc7 7a21 	vstr	s15, [r7, #132]	; 0x84
    53de:	ed97 7a20 	vldr	s14, [r7, #128]	; 0x80
    53e2:	edd7 7a0a 	vldr	s15, [r7, #40]	; 0x28
    53e6:	ee77 7a27 	vadd.f32	s15, s14, s15
    53ea:	edc7 7a20 	vstr	s15, [r7, #128]	; 0x80
    53ee:	ed97 7a1f 	vldr	s14, [r7, #124]	; 0x7c
    53f2:	edd7 7a09 	vldr	s15, [r7, #36]	; 0x24
    53f6:	ee77 7a27 	vadd.f32	s15, s14, s15
    53fa:	edc7 7a1f 	vstr	s15, [r7, #124]	; 0x7c
    53fe:	ed97 7a1e 	vldr	s14, [r7, #120]	; 0x78
    5402:	edd7 7a08 	vldr	s15, [r7, #32]
    5406:	ee77 7a27 	vadd.f32	s15, s14, s15
    540a:	edc7 7a1e 	vstr	s15, [r7, #120]	; 0x78
    540e:	ed97 7a1d 	vldr	s14, [r7, #116]	; 0x74
    5412:	edd7 7a07 	vldr	s15, [r7, #28]
    5416:	ee77 7a27 	vadd.f32	s15, s14, s15
    541a:	edc7 7a1d 	vstr	s15, [r7, #116]	; 0x74
    541e:	ed97 7a1c 	vldr	s14, [r7, #112]	; 0x70
    5422:	edd7 7a06 	vldr	s15, [r7, #24]
    5426:	ee77 7a27 	vadd.f32	s15, s14, s15
    542a:	edc7 7a1c 	vstr	s15, [r7, #112]	; 0x70
    542e:	ed97 7a1b 	vldr	s14, [r7, #108]	; 0x6c
    5432:	edd7 7a05 	vldr	s15, [r7, #20]
    5436:	ee77 7a27 	vadd.f32	s15, s14, s15
    543a:	edc7 7a1b 	vstr	s15, [r7, #108]	; 0x6c
    543e:	ed97 7a1a 	vldr	s14, [r7, #104]	; 0x68
    5442:	edd7 7a04 	vldr	s15, [r7, #16]
    5446:	ee77 7a27 	vadd.f32	s15, s14, s15
    544a:	edc7 7a1a 	vstr	s15, [r7, #104]	; 0x68
    544e:	6c7b      	ldr	r3, [r7, #68]	; 0x44
    5450:	3b01      	subs	r3, #1
    5452:	647b      	str	r3, [r7, #68]	; 0x44
    5454:	6c7b      	ldr	r3, [r7, #68]	; 0x44
    5456:	2b00      	cmp	r3, #0
    5458:	f47f af5d 	bne.w	5316 <arm_fir_f32+0xa86>
    545c:	f8d7 3094 	ldr.w	r3, [r7, #148]	; 0x94
    5460:	3320      	adds	r3, #32
    5462:	f8c7 3094 	str.w	r3, [r7, #148]	; 0x94
    5466:	687b      	ldr	r3, [r7, #4]
    5468:	1d1a      	adds	r2, r3, #4
    546a:	607a      	str	r2, [r7, #4]
    546c:	f8d7 2084 	ldr.w	r2, [r7, #132]	; 0x84
    5470:	601a      	str	r2, [r3, #0]
    5472:	687b      	ldr	r3, [r7, #4]
    5474:	1d1a      	adds	r2, r3, #4
    5476:	607a      	str	r2, [r7, #4]
    5478:	f8d7 2080 	ldr.w	r2, [r7, #128]	; 0x80
    547c:	601a      	str	r2, [r3, #0]
    547e:	687b      	ldr	r3, [r7, #4]
    5480:	1d1a      	adds	r2, r3, #4
    5482:	607a      	str	r2, [r7, #4]
    5484:	6ffa      	ldr	r2, [r7, #124]	; 0x7c
    5486:	601a      	str	r2, [r3, #0]
    5488:	687b      	ldr	r3, [r7, #4]
    548a:	1d1a      	adds	r2, r3, #4
    548c:	607a      	str	r2, [r7, #4]
    548e:	6fba      	ldr	r2, [r7, #120]	; 0x78
    5490:	601a      	str	r2, [r3, #0]
    5492:	687b      	ldr	r3, [r7, #4]
    5494:	1d1a      	adds	r2, r3, #4
    5496:	607a      	str	r2, [r7, #4]
    5498:	6f7a      	ldr	r2, [r7, #116]	; 0x74
    549a:	601a      	str	r2, [r3, #0]
    549c:	687b      	ldr	r3, [r7, #4]
    549e:	1d1a      	adds	r2, r3, #4
    54a0:	607a      	str	r2, [r7, #4]
    54a2:	6f3a      	ldr	r2, [r7, #112]	; 0x70
    54a4:	601a      	str	r2, [r3, #0]
    54a6:	687b      	ldr	r3, [r7, #4]
    54a8:	1d1a      	adds	r2, r3, #4
    54aa:	607a      	str	r2, [r7, #4]
    54ac:	6efa      	ldr	r2, [r7, #108]	; 0x6c
    54ae:	601a      	str	r2, [r3, #0]
    54b0:	687b      	ldr	r3, [r7, #4]
    54b2:	1d1a      	adds	r2, r3, #4
    54b4:	607a      	str	r2, [r7, #4]
    54b6:	6eba      	ldr	r2, [r7, #104]	; 0x68
    54b8:	601a      	str	r2, [r3, #0]
    54ba:	6c3b      	ldr	r3, [r7, #64]	; 0x40
    54bc:	3b01      	subs	r3, #1
    54be:	643b      	str	r3, [r7, #64]	; 0x40
    54c0:	6c3b      	ldr	r3, [r7, #64]	; 0x40
    54c2:	2b00      	cmp	r3, #0
    54c4:	f47f aa04 	bne.w	48d0 <arm_fir_f32+0x40>
    54c8:	683b      	ldr	r3, [r7, #0]
    54ca:	f003 0307 	and.w	r3, r3, #7
    54ce:	643b      	str	r3, [r7, #64]	; 0x40
    54d0:	e040      	b.n	5554 <arm_fir_f32+0xcc4>
    54d2:	f8d7 3090 	ldr.w	r3, [r7, #144]	; 0x90
    54d6:	1d1a      	adds	r2, r3, #4
    54d8:	f8c7 2090 	str.w	r2, [r7, #144]	; 0x90
    54dc:	68ba      	ldr	r2, [r7, #8]
    54de:	1d11      	adds	r1, r2, #4
    54e0:	60b9      	str	r1, [r7, #8]
    54e2:	6812      	ldr	r2, [r2, #0]
    54e4:	601a      	str	r2, [r3, #0]
    54e6:	f04f 0300 	mov.w	r3, #0
    54ea:	f8c7 3084 	str.w	r3, [r7, #132]	; 0x84
    54ee:	f8d7 3094 	ldr.w	r3, [r7, #148]	; 0x94
    54f2:	f8c7 308c 	str.w	r3, [r7, #140]	; 0x8c
    54f6:	6bfb      	ldr	r3, [r7, #60]	; 0x3c
    54f8:	f8c7 3088 	str.w	r3, [r7, #136]	; 0x88
    54fc:	6bbb      	ldr	r3, [r7, #56]	; 0x38
    54fe:	64bb      	str	r3, [r7, #72]	; 0x48
    5500:	f8d7 308c 	ldr.w	r3, [r7, #140]	; 0x8c
    5504:	1d1a      	adds	r2, r3, #4
    5506:	f8c7 208c 	str.w	r2, [r7, #140]	; 0x8c
    550a:	ed93 7a00 	vldr	s14, [r3]
    550e:	f8d7 3088 	ldr.w	r3, [r7, #136]	; 0x88
    5512:	1d1a      	adds	r2, r3, #4
    5514:	f8c7 2088 	str.w	r2, [r7, #136]	; 0x88
    5518:	edd3 7a00 	vldr	s15, [r3]
    551c:	ee67 7a27 	vmul.f32	s15, s14, s15
    5520:	ed97 7a21 	vldr	s14, [r7, #132]	; 0x84
    5524:	ee77 7a27 	vadd.f32	s15, s14, s15
    5528:	edc7 7a21 	vstr	s15, [r7, #132]	; 0x84
    552c:	6cbb      	ldr	r3, [r7, #72]	; 0x48
    552e:	3b01      	subs	r3, #1
    5530:	64bb      	str	r3, [r7, #72]	; 0x48
    5532:	6cbb      	ldr	r3, [r7, #72]	; 0x48
    5534:	2b00      	cmp	r3, #0
    5536:	d1e3      	bne.n	5500 <arm_fir_f32+0xc70>
    5538:	687b      	ldr	r3, [r7, #4]
    553a:	1d1a      	adds	r2, r3, #4
    553c:	607a      	str	r2, [r7, #4]
    553e:	f8d7 2084 	ldr.w	r2, [r7, #132]	; 0x84
    5542:	601a      	str	r2, [r3, #0]
    5544:	f8d7 3094 	ldr.w	r3, [r7, #148]	; 0x94
    5548:	3304      	adds	r3, #4
    554a:	f8c7 3094 	str.w	r3, [r7, #148]	; 0x94
    554e:	6c3b      	ldr	r3, [r7, #64]	; 0x40
    5550:	3b01      	subs	r3, #1
    5552:	643b      	str	r3, [r7, #64]	; 0x40
    5554:	6c3b      	ldr	r3, [r7, #64]	; 0x40
    5556:	2b00      	cmp	r3, #0
    5558:	d1bb      	bne.n	54d2 <arm_fir_f32+0xc42>
    555a:	68fb      	ldr	r3, [r7, #12]
    555c:	685b      	ldr	r3, [r3, #4]
    555e:	f8c7 3090 	str.w	r3, [r7, #144]	; 0x90
    5562:	6bbb      	ldr	r3, [r7, #56]	; 0x38
    5564:	3b01      	subs	r3, #1
    5566:	089b      	lsrs	r3, r3, #2
    5568:	647b      	str	r3, [r7, #68]	; 0x44
    556a:	e032      	b.n	55d2 <arm_fir_f32+0xd42>
    556c:	f8d7 3090 	ldr.w	r3, [r7, #144]	; 0x90
    5570:	1d1a      	adds	r2, r3, #4
    5572:	f8c7 2090 	str.w	r2, [r7, #144]	; 0x90
    5576:	f8d7 2094 	ldr.w	r2, [r7, #148]	; 0x94
    557a:	1d11      	adds	r1, r2, #4
    557c:	f8c7 1094 	str.w	r1, [r7, #148]	; 0x94
    5580:	6812      	ldr	r2, [r2, #0]
    5582:	601a      	str	r2, [r3, #0]
    5584:	f8d7 3090 	ldr.w	r3, [r7, #144]	; 0x90
    5588:	1d1a      	adds	r2, r3, #4
    558a:	f8c7 2090 	str.w	r2, [r7, #144]	; 0x90
    558e:	f8d7 2094 	ldr.w	r2, [r7, #148]	; 0x94
    5592:	1d11      	adds	r1, r2, #4
    5594:	f8c7 1094 	str.w	r1, [r7, #148]	; 0x94
    5598:	6812      	ldr	r2, [r2, #0]
    559a:	601a      	str	r2, [r3, #0]
    559c:	f8d7 3090 	ldr.w	r3, [r7, #144]	; 0x90
    55a0:	1d1a      	adds	r2, r3, #4
    55a2:	f8c7 2090 	str.w	r2, [r7, #144]	; 0x90
    55a6:	f8d7 2094 	ldr.w	r2, [r7, #148]	; 0x94
    55aa:	1d11      	adds	r1, r2, #4
    55ac:	f8c7 1094 	str.w	r1, [r7, #148]	; 0x94
    55b0:	6812      	ldr	r2, [r2, #0]
    55b2:	601a      	str	r2, [r3, #0]
    55b4:	f8d7 3090 	ldr.w	r3, [r7, #144]	; 0x90
    55b8:	1d1a      	adds	r2, r3, #4
    55ba:	f8c7 2090 	str.w	r2, [r7, #144]	; 0x90
    55be:	f8d7 2094 	ldr.w	r2, [r7, #148]	; 0x94
    55c2:	1d11      	adds	r1, r2, #4
    55c4:	f8c7 1094 	str.w	r1, [r7, #148]	; 0x94
    55c8:	6812      	ldr	r2, [r2, #0]
    55ca:	601a      	str	r2, [r3, #0]
    55cc:	6c7b      	ldr	r3, [r7, #68]	; 0x44
    55ce:	3b01      	subs	r3, #1
    55d0:	647b      	str	r3, [r7, #68]	; 0x44
    55d2:	6c7b      	ldr	r3, [r7, #68]	; 0x44
    55d4:	2b00      	cmp	r3, #0
    55d6:	d1c9      	bne.n	556c <arm_fir_f32+0xcdc>
    55d8:	6bbb      	ldr	r3, [r7, #56]	; 0x38
    55da:	3b01      	subs	r3, #1
    55dc:	f003 0303 	and.w	r3, r3, #3
    55e0:	647b      	str	r3, [r7, #68]	; 0x44
    55e2:	e00e      	b.n	5602 <arm_fir_f32+0xd72>
    55e4:	f8d7 3090 	ldr.w	r3, [r7, #144]	; 0x90
    55e8:	1d1a      	adds	r2, r3, #4
    55ea:	f8c7 2090 	str.w	r2, [r7, #144]	; 0x90
    55ee:	f8d7 2094 	ldr.w	r2, [r7, #148]	; 0x94
    55f2:	1d11      	adds	r1, r2, #4
    55f4:	f8c7 1094 	str.w	r1, [r7, #148]	; 0x94
    55f8:	6812      	ldr	r2, [r2, #0]
    55fa:	601a      	str	r2, [r3, #0]
    55fc:	6c7b      	ldr	r3, [r7, #68]	; 0x44
    55fe:	3b01      	subs	r3, #1
    5600:	647b      	str	r3, [r7, #68]	; 0x44
    5602:	6c7b      	ldr	r3, [r7, #68]	; 0x44
    5604:	2b00      	cmp	r3, #0
    5606:	d1ed      	bne.n	55e4 <arm_fir_f32+0xd54>
    5608:	bf00      	nop
    560a:	379c      	adds	r7, #156	; 0x9c
    560c:	46bd      	mov	sp, r7
    560e:	f85d 7b04 	ldr.w	r7, [sp], #4
    5612:	4770      	bx	lr

00005614 <arm_fir_init_f32>:
    5614:	b580      	push	{r7, lr}
    5616:	b084      	sub	sp, #16
    5618:	af00      	add	r7, sp, #0
    561a:	60f8      	str	r0, [r7, #12]
    561c:	607a      	str	r2, [r7, #4]
    561e:	603b      	str	r3, [r7, #0]
    5620:	460b      	mov	r3, r1
    5622:	817b      	strh	r3, [r7, #10]
    5624:	68fb      	ldr	r3, [r7, #12]
    5626:	897a      	ldrh	r2, [r7, #10]
    5628:	801a      	strh	r2, [r3, #0]
    562a:	68fb      	ldr	r3, [r7, #12]
    562c:	687a      	ldr	r2, [r7, #4]
    562e:	609a      	str	r2, [r3, #8]
    5630:	897a      	ldrh	r2, [r7, #10]
    5632:	69bb      	ldr	r3, [r7, #24]
    5634:	4413      	add	r3, r2
    5636:	f103 4380 	add.w	r3, r3, #1073741824	; 0x40000000
    563a:	3b01      	subs	r3, #1
    563c:	009b      	lsls	r3, r3, #2
    563e:	461a      	mov	r2, r3
    5640:	2100      	movs	r1, #0
    5642:	6838      	ldr	r0, [r7, #0]
    5644:	f001 fbf7 	bl	6e36 <memset>
    5648:	68fb      	ldr	r3, [r7, #12]
    564a:	683a      	ldr	r2, [r7, #0]
    564c:	605a      	str	r2, [r3, #4]
    564e:	bf00      	nop
    5650:	3710      	adds	r7, #16
    5652:	46bd      	mov	sp, r7
    5654:	bd80      	pop	{r7, pc}
    5656:	bf00      	nop

00005658 <arm_pid_init_f32>:
    5658:	b580      	push	{r7, lr}
    565a:	b082      	sub	sp, #8
    565c:	af00      	add	r7, sp, #0
    565e:	6078      	str	r0, [r7, #4]
    5660:	6039      	str	r1, [r7, #0]
    5662:	687b      	ldr	r3, [r7, #4]
    5664:	ed93 7a06 	vldr	s14, [r3, #24]
    5668:	687b      	ldr	r3, [r7, #4]
    566a:	edd3 7a07 	vldr	s15, [r3, #28]
    566e:	ee37 7a27 	vadd.f32	s14, s14, s15
    5672:	687b      	ldr	r3, [r7, #4]
    5674:	edd3 7a08 	vldr	s15, [r3, #32]
    5678:	ee77 7a27 	vadd.f32	s15, s14, s15
    567c:	687b      	ldr	r3, [r7, #4]
    567e:	edc3 7a00 	vstr	s15, [r3]
    5682:	687b      	ldr	r3, [r7, #4]
    5684:	edd3 7a06 	vldr	s15, [r3, #24]
    5688:	eeb1 7a67 	vneg.f32	s14, s15
    568c:	687b      	ldr	r3, [r7, #4]
    568e:	edd3 7a08 	vldr	s15, [r3, #32]
    5692:	ee77 7aa7 	vadd.f32	s15, s15, s15
    5696:	ee77 7a67 	vsub.f32	s15, s14, s15
    569a:	687b      	ldr	r3, [r7, #4]
    569c:	edc3 7a01 	vstr	s15, [r3, #4]
    56a0:	687b      	ldr	r3, [r7, #4]
    56a2:	6a1a      	ldr	r2, [r3, #32]
    56a4:	687b      	ldr	r3, [r7, #4]
    56a6:	609a      	str	r2, [r3, #8]
    56a8:	683b      	ldr	r3, [r7, #0]
    56aa:	2b00      	cmp	r3, #0
    56ac:	d006      	beq.n	56bc <arm_pid_init_f32+0x64>
    56ae:	687b      	ldr	r3, [r7, #4]
    56b0:	330c      	adds	r3, #12
    56b2:	220c      	movs	r2, #12
    56b4:	2100      	movs	r1, #0
    56b6:	4618      	mov	r0, r3
    56b8:	f001 fbbd 	bl	6e36 <memset>
    56bc:	bf00      	nop
    56be:	3708      	adds	r7, #8
    56c0:	46bd      	mov	sp, r7
    56c2:	bd80      	pop	{r7, pc}

000056c4 <arm_sqrt_f32>:
    56c4:	b580      	push	{r7, lr}
    56c6:	b082      	sub	sp, #8
    56c8:	af00      	add	r7, sp, #0
    56ca:	ed87 0a01 	vstr	s0, [r7, #4]
    56ce:	6038      	str	r0, [r7, #0]
    56d0:	edd7 7a01 	vldr	s15, [r7, #4]
    56d4:	eef5 7ac0 	vcmpe.f32	s15, #0.0
    56d8:	eef1 fa10 	vmrs	APSR_nzcv, fpscr
    56dc:	dd07      	ble.n	56ee <arm_sqrt_f32+0x2a>
    56de:	6878      	ldr	r0, [r7, #4]
    56e0:	f001 fba2 	bl	6e28 <sqrtf>
    56e4:	4602      	mov	r2, r0
    56e6:	683b      	ldr	r3, [r7, #0]
    56e8:	601a      	str	r2, [r3, #0]
    56ea:	2300      	movs	r3, #0
    56ec:	e005      	b.n	56fa <arm_sqrt_f32+0x36>
    56ee:	683b      	ldr	r3, [r7, #0]
    56f0:	f04f 0200 	mov.w	r2, #0
    56f4:	601a      	str	r2, [r3, #0]
    56f6:	f04f 33ff 	mov.w	r3, #4294967295
    56fa:	4618      	mov	r0, r3
    56fc:	3708      	adds	r7, #8
    56fe:	46bd      	mov	sp, r7
    5700:	bd80      	pop	{r7, pc}
    5702:	bf00      	nop

00005704 <arm_cmplx_mag_f32>:
    5704:	b580      	push	{r7, lr}
    5706:	b088      	sub	sp, #32
    5708:	af00      	add	r7, sp, #0
    570a:	60f8      	str	r0, [r7, #12]
    570c:	60b9      	str	r1, [r7, #8]
    570e:	607a      	str	r2, [r7, #4]
    5710:	687b      	ldr	r3, [r7, #4]
    5712:	089b      	lsrs	r3, r3, #2
    5714:	61fb      	str	r3, [r7, #28]
    5716:	e082      	b.n	581e <arm_cmplx_mag_f32+0x11a>
    5718:	68fb      	ldr	r3, [r7, #12]
    571a:	1d1a      	adds	r2, r3, #4
    571c:	60fa      	str	r2, [r7, #12]
    571e:	681b      	ldr	r3, [r3, #0]
    5720:	61bb      	str	r3, [r7, #24]
    5722:	68fb      	ldr	r3, [r7, #12]
    5724:	1d1a      	adds	r2, r3, #4
    5726:	60fa      	str	r2, [r7, #12]
    5728:	681b      	ldr	r3, [r3, #0]
    572a:	617b      	str	r3, [r7, #20]
    572c:	ed97 7a06 	vldr	s14, [r7, #24]
    5730:	edd7 7a06 	vldr	s15, [r7, #24]
    5734:	ee27 7a27 	vmul.f32	s14, s14, s15
    5738:	edd7 6a05 	vldr	s13, [r7, #20]
    573c:	edd7 7a05 	vldr	s15, [r7, #20]
    5740:	ee66 7aa7 	vmul.f32	s15, s13, s15
    5744:	ee77 7a27 	vadd.f32	s15, s14, s15
    5748:	68bb      	ldr	r3, [r7, #8]
    574a:	1d1a      	adds	r2, r3, #4
    574c:	60ba      	str	r2, [r7, #8]
    574e:	4618      	mov	r0, r3
    5750:	eeb0 0a67 	vmov.f32	s0, s15
    5754:	f7ff ffb6 	bl	56c4 <arm_sqrt_f32>
    5758:	68fb      	ldr	r3, [r7, #12]
    575a:	1d1a      	adds	r2, r3, #4
    575c:	60fa      	str	r2, [r7, #12]
    575e:	681b      	ldr	r3, [r3, #0]
    5760:	61bb      	str	r3, [r7, #24]
    5762:	68fb      	ldr	r3, [r7, #12]
    5764:	1d1a      	adds	r2, r3, #4
    5766:	60fa      	str	r2, [r7, #12]
    5768:	681b      	ldr	r3, [r3, #0]
    576a:	617b      	str	r3, [r7, #20]
    576c:	ed97 7a06 	vldr	s14, [r7, #24]
    5770:	edd7 7a06 	vldr	s15, [r7, #24]
    5774:	ee27 7a27 	vmul.f32	s14, s14, s15
    5778:	edd7 6a05 	vldr	s13, [r7, #20]
    577c:	edd7 7a05 	vldr	s15, [r7, #20]
    5780:	ee66 7aa7 	vmul.f32	s15, s13, s15
    5784:	ee77 7a27 	vadd.f32	s15, s14, s15
    5788:	68bb      	ldr	r3, [r7, #8]
    578a:	1d1a      	adds	r2, r3, #4
    578c:	60ba      	str	r2, [r7, #8]
    578e:	4618      	mov	r0, r3
    5790:	eeb0 0a67 	vmov.f32	s0, s15
    5794:	f7ff ff96 	bl	56c4 <arm_sqrt_f32>
    5798:	68fb      	ldr	r3, [r7, #12]
    579a:	1d1a      	adds	r2, r3, #4
    579c:	60fa      	str	r2, [r7, #12]
    579e:	681b      	ldr	r3, [r3, #0]
    57a0:	61bb      	str	r3, [r7, #24]
    57a2:	68fb      	ldr	r3, [r7, #12]
    57a4:	1d1a      	adds	r2, r3, #4
    57a6:	60fa      	str	r2, [r7, #12]
    57a8:	681b      	ldr	r3, [r3, #0]
    57aa:	617b      	str	r3, [r7, #20]
    57ac:	ed97 7a06 	vldr	s14, [r7, #24]
    57b0:	edd7 7a06 	vldr	s15, [r7, #24]
    57b4:	ee27 7a27 	vmul.f32	s14, s14, s15
    57b8:	edd7 6a05 	vldr	s13, [r7, #20]
    57bc:	edd7 7a05 	vldr	s15, [r7, #20]
    57c0:	ee66 7aa7 	vmul.f32	s15, s13, s15
    57c4:	ee77 7a27 	vadd.f32	s15, s14, s15
    57c8:	68bb      	ldr	r3, [r7, #8]
    57ca:	1d1a      	adds	r2, r3, #4
    57cc:	60ba      	str	r2, [r7, #8]
    57ce:	4618      	mov	r0, r3
    57d0:	eeb0 0a67 	vmov.f32	s0, s15
    57d4:	f7ff ff76 	bl	56c4 <arm_sqrt_f32>
    57d8:	68fb      	ldr	r3, [r7, #12]
    57da:	1d1a      	adds	r2, r3, #4
    57dc:	60fa      	str	r2, [r7, #12]
    57de:	681b      	ldr	r3, [r3, #0]
    57e0:	61bb      	str	r3, [r7, #24]
    57e2:	68fb      	ldr	r3, [r7, #12]
    57e4:	1d1a      	adds	r2, r3, #4
    57e6:	60fa      	str	r2, [r7, #12]
    57e8:	681b      	ldr	r3, [r3, #0]
    57ea:	617b      	str	r3, [r7, #20]
    57ec:	ed97 7a06 	vldr	s14, [r7, #24]
    57f0:	edd7 7a06 	vldr	s15, [r7, #24]
    57f4:	ee27 7a27 	vmul.f32	s14, s14, s15
    57f8:	edd7 6a05 	vldr	s13, [r7, #20]
    57fc:	edd7 7a05 	vldr	s15, [r7, #20]
    5800:	ee66 7aa7 	vmul.f32	s15, s13, s15
    5804:	ee77 7a27 	vadd.f32	s15, s14, s15
    5808:	68bb      	ldr	r3, [r7, #8]
    580a:	1d1a      	adds	r2, r3, #4
    580c:	60ba      	str	r2, [r7, #8]
    580e:	4618      	mov	r0, r3
    5810:	eeb0 0a67 	vmov.f32	s0, s15
    5814:	f7ff ff56 	bl	56c4 <arm_sqrt_f32>
    5818:	69fb      	ldr	r3, [r7, #28]
    581a:	3b01      	subs	r3, #1
    581c:	61fb      	str	r3, [r7, #28]
    581e:	69fb      	ldr	r3, [r7, #28]
    5820:	2b00      	cmp	r3, #0
    5822:	f47f af79 	bne.w	5718 <arm_cmplx_mag_f32+0x14>
    5826:	687b      	ldr	r3, [r7, #4]
    5828:	f003 0303 	and.w	r3, r3, #3
    582c:	61fb      	str	r3, [r7, #28]
    582e:	e022      	b.n	5876 <arm_cmplx_mag_f32+0x172>
    5830:	68fb      	ldr	r3, [r7, #12]
    5832:	1d1a      	adds	r2, r3, #4
    5834:	60fa      	str	r2, [r7, #12]
    5836:	681b      	ldr	r3, [r3, #0]
    5838:	61bb      	str	r3, [r7, #24]
    583a:	68fb      	ldr	r3, [r7, #12]
    583c:	1d1a      	adds	r2, r3, #4
    583e:	60fa      	str	r2, [r7, #12]
    5840:	681b      	ldr	r3, [r3, #0]
    5842:	617b      	str	r3, [r7, #20]
    5844:	ed97 7a06 	vldr	s14, [r7, #24]
    5848:	edd7 7a06 	vldr	s15, [r7, #24]
    584c:	ee27 7a27 	vmul.f32	s14, s14, s15
    5850:	edd7 6a05 	vldr	s13, [r7, #20]
    5854:	edd7 7a05 	vldr	s15, [r7, #20]
    5858:	ee66 7aa7 	vmul.f32	s15, s13, s15
    585c:	ee77 7a27 	vadd.f32	s15, s14, s15
    5860:	68bb      	ldr	r3, [r7, #8]
    5862:	1d1a      	adds	r2, r3, #4
    5864:	60ba      	str	r2, [r7, #8]
    5866:	4618      	mov	r0, r3
    5868:	eeb0 0a67 	vmov.f32	s0, s15
    586c:	f7ff ff2a 	bl	56c4 <arm_sqrt_f32>
    5870:	69fb      	ldr	r3, [r7, #28]
    5872:	3b01      	subs	r3, #1
    5874:	61fb      	str	r3, [r7, #28]
    5876:	69fb      	ldr	r3, [r7, #28]
    5878:	2b00      	cmp	r3, #0
    587a:	d1d9      	bne.n	5830 <arm_cmplx_mag_f32+0x12c>
    587c:	bf00      	nop
    587e:	3720      	adds	r7, #32
    5880:	46bd      	mov	sp, r7
    5882:	bd80      	pop	{r7, pc}

00005884 <arm_cmplx_mag_squared_f32>:
    5884:	b480      	push	{r7}
    5886:	b09d      	sub	sp, #116	; 0x74
    5888:	af00      	add	r7, sp, #0
    588a:	60f8      	str	r0, [r7, #12]
    588c:	60b9      	str	r1, [r7, #8]
    588e:	607a      	str	r2, [r7, #4]
    5890:	687b      	ldr	r3, [r7, #4]
    5892:	089b      	lsrs	r3, r3, #2
    5894:	66fb      	str	r3, [r7, #108]	; 0x6c
    5896:	e08f      	b.n	59b8 <arm_cmplx_mag_squared_f32+0x134>
    5898:	68fb      	ldr	r3, [r7, #12]
    589a:	681b      	ldr	r3, [r3, #0]
    589c:	66bb      	str	r3, [r7, #104]	; 0x68
    589e:	68fb      	ldr	r3, [r7, #12]
    58a0:	685b      	ldr	r3, [r3, #4]
    58a2:	667b      	str	r3, [r7, #100]	; 0x64
    58a4:	ed97 7a1a 	vldr	s14, [r7, #104]	; 0x68
    58a8:	edd7 7a1a 	vldr	s15, [r7, #104]	; 0x68
    58ac:	ee67 7a27 	vmul.f32	s15, s14, s15
    58b0:	edc7 7a18 	vstr	s15, [r7, #96]	; 0x60
    58b4:	68fb      	ldr	r3, [r7, #12]
    58b6:	689b      	ldr	r3, [r3, #8]
    58b8:	65fb      	str	r3, [r7, #92]	; 0x5c
    58ba:	ed97 7a19 	vldr	s14, [r7, #100]	; 0x64
    58be:	edd7 7a19 	vldr	s15, [r7, #100]	; 0x64
    58c2:	ee67 7a27 	vmul.f32	s15, s14, s15
    58c6:	edc7 7a16 	vstr	s15, [r7, #88]	; 0x58
    58ca:	68fb      	ldr	r3, [r7, #12]
    58cc:	68db      	ldr	r3, [r3, #12]
    58ce:	657b      	str	r3, [r7, #84]	; 0x54
    58d0:	ed97 7a17 	vldr	s14, [r7, #92]	; 0x5c
    58d4:	edd7 7a17 	vldr	s15, [r7, #92]	; 0x5c
    58d8:	ee67 7a27 	vmul.f32	s15, s14, s15
    58dc:	edc7 7a14 	vstr	s15, [r7, #80]	; 0x50
    58e0:	68fb      	ldr	r3, [r7, #12]
    58e2:	691b      	ldr	r3, [r3, #16]
    58e4:	64fb      	str	r3, [r7, #76]	; 0x4c
    58e6:	ed97 7a15 	vldr	s14, [r7, #84]	; 0x54
    58ea:	edd7 7a15 	vldr	s15, [r7, #84]	; 0x54
    58ee:	ee67 7a27 	vmul.f32	s15, s14, s15
    58f2:	edc7 7a12 	vstr	s15, [r7, #72]	; 0x48
    58f6:	68fb      	ldr	r3, [r7, #12]
    58f8:	695b      	ldr	r3, [r3, #20]
    58fa:	647b      	str	r3, [r7, #68]	; 0x44
    58fc:	ed97 7a13 	vldr	s14, [r7, #76]	; 0x4c
    5900:	edd7 7a13 	vldr	s15, [r7, #76]	; 0x4c
    5904:	ee67 7a27 	vmul.f32	s15, s14, s15
    5908:	edc7 7a10 	vstr	s15, [r7, #64]	; 0x40
    590c:	ed97 7a11 	vldr	s14, [r7, #68]	; 0x44
    5910:	edd7 7a11 	vldr	s15, [r7, #68]	; 0x44
    5914:	ee67 7a27 	vmul.f32	s15, s14, s15
    5918:	edc7 7a0f 	vstr	s15, [r7, #60]	; 0x3c
    591c:	68fb      	ldr	r3, [r7, #12]
    591e:	699b      	ldr	r3, [r3, #24]
    5920:	63bb      	str	r3, [r7, #56]	; 0x38
    5922:	ed97 7a18 	vldr	s14, [r7, #96]	; 0x60
    5926:	edd7 7a16 	vldr	s15, [r7, #88]	; 0x58
    592a:	ee77 7a27 	vadd.f32	s15, s14, s15
    592e:	edc7 7a0d 	vstr	s15, [r7, #52]	; 0x34
    5932:	68fb      	ldr	r3, [r7, #12]
    5934:	69db      	ldr	r3, [r3, #28]
    5936:	633b      	str	r3, [r7, #48]	; 0x30
    5938:	ed97 7a14 	vldr	s14, [r7, #80]	; 0x50
    593c:	edd7 7a12 	vldr	s15, [r7, #72]	; 0x48
    5940:	ee77 7a27 	vadd.f32	s15, s14, s15
    5944:	edc7 7a0b 	vstr	s15, [r7, #44]	; 0x2c
    5948:	ed97 7a0e 	vldr	s14, [r7, #56]	; 0x38
    594c:	edd7 7a0e 	vldr	s15, [r7, #56]	; 0x38
    5950:	ee67 7a27 	vmul.f32	s15, s14, s15
    5954:	edc7 7a0a 	vstr	s15, [r7, #40]	; 0x28
    5958:	ed97 7a0c 	vldr	s14, [r7, #48]	; 0x30
    595c:	edd7 7a0c 	vldr	s15, [r7, #48]	; 0x30
    5960:	ee67 7a27 	vmul.f32	s15, s14, s15
    5964:	edc7 7a09 	vstr	s15, [r7, #36]	; 0x24
    5968:	68bb      	ldr	r3, [r7, #8]
    596a:	6b7a      	ldr	r2, [r7, #52]	; 0x34
    596c:	601a      	str	r2, [r3, #0]
    596e:	ed97 7a10 	vldr	s14, [r7, #64]	; 0x40
    5972:	edd7 7a0f 	vldr	s15, [r7, #60]	; 0x3c
    5976:	ee77 7a27 	vadd.f32	s15, s14, s15
    597a:	edc7 7a08 	vstr	s15, [r7, #32]
    597e:	68bb      	ldr	r3, [r7, #8]
    5980:	3304      	adds	r3, #4
    5982:	6afa      	ldr	r2, [r7, #44]	; 0x2c
    5984:	601a      	str	r2, [r3, #0]
    5986:	ed97 7a0a 	vldr	s14, [r7, #40]	; 0x28
    598a:	edd7 7a09 	vldr	s15, [r7, #36]	; 0x24
    598e:	ee77 7a27 	vadd.f32	s15, s14, s15
    5992:	edc7 7a07 	vstr	s15, [r7, #28]
    5996:	68bb      	ldr	r3, [r7, #8]
    5998:	3308      	adds	r3, #8
    599a:	6a3a      	ldr	r2, [r7, #32]
    599c:	601a      	str	r2, [r3, #0]
    599e:	68fb      	ldr	r3, [r7, #12]
    59a0:	3320      	adds	r3, #32
    59a2:	60fb      	str	r3, [r7, #12]
    59a4:	68bb      	ldr	r3, [r7, #8]
    59a6:	330c      	adds	r3, #12
    59a8:	69fa      	ldr	r2, [r7, #28]
    59aa:	601a      	str	r2, [r3, #0]
    59ac:	68bb      	ldr	r3, [r7, #8]
    59ae:	3310      	adds	r3, #16
    59b0:	60bb      	str	r3, [r7, #8]
    59b2:	6efb      	ldr	r3, [r7, #108]	; 0x6c
    59b4:	3b01      	subs	r3, #1
    59b6:	66fb      	str	r3, [r7, #108]	; 0x6c
    59b8:	6efb      	ldr	r3, [r7, #108]	; 0x6c
    59ba:	2b00      	cmp	r3, #0
    59bc:	f47f af6c 	bne.w	5898 <arm_cmplx_mag_squared_f32+0x14>
    59c0:	687b      	ldr	r3, [r7, #4]
    59c2:	f003 0303 	and.w	r3, r3, #3
    59c6:	66fb      	str	r3, [r7, #108]	; 0x6c
    59c8:	e01f      	b.n	5a0a <arm_cmplx_mag_squared_f32+0x186>
    59ca:	68fb      	ldr	r3, [r7, #12]
    59cc:	1d1a      	adds	r2, r3, #4
    59ce:	60fa      	str	r2, [r7, #12]
    59d0:	681b      	ldr	r3, [r3, #0]
    59d2:	61bb      	str	r3, [r7, #24]
    59d4:	68fb      	ldr	r3, [r7, #12]
    59d6:	1d1a      	adds	r2, r3, #4
    59d8:	60fa      	str	r2, [r7, #12]
    59da:	681b      	ldr	r3, [r3, #0]
    59dc:	617b      	str	r3, [r7, #20]
    59de:	68bb      	ldr	r3, [r7, #8]
    59e0:	1d1a      	adds	r2, r3, #4
    59e2:	60ba      	str	r2, [r7, #8]
    59e4:	ed97 7a06 	vldr	s14, [r7, #24]
    59e8:	edd7 7a06 	vldr	s15, [r7, #24]
    59ec:	ee27 7a27 	vmul.f32	s14, s14, s15
    59f0:	edd7 6a05 	vldr	s13, [r7, #20]
    59f4:	edd7 7a05 	vldr	s15, [r7, #20]
    59f8:	ee66 7aa7 	vmul.f32	s15, s13, s15
    59fc:	ee77 7a27 	vadd.f32	s15, s14, s15
    5a00:	edc3 7a00 	vstr	s15, [r3]
    5a04:	6efb      	ldr	r3, [r7, #108]	; 0x6c
    5a06:	3b01      	subs	r3, #1
    5a08:	66fb      	str	r3, [r7, #108]	; 0x6c
    5a0a:	6efb      	ldr	r3, [r7, #108]	; 0x6c
    5a0c:	2b00      	cmp	r3, #0
    5a0e:	d1dc      	bne.n	59ca <arm_cmplx_mag_squared_f32+0x146>
    5a10:	bf00      	nop
    5a12:	3774      	adds	r7, #116	; 0x74
    5a14:	46bd      	mov	sp, r7
    5a16:	f85d 7b04 	ldr.w	r7, [sp], #4
    5a1a:	4770      	bx	lr

00005a1c <arm_bitreversal_32>:
    5a1c:	1c4b      	adds	r3, r1, #1
    5a1e:	2b01      	cmp	r3, #1
    5a20:	bf98      	it	ls
    5a22:	4770      	bxls	lr
    5a24:	e92d 03f0 	stmdb	sp!, {r4, r5, r6, r7, r8, r9}
    5a28:	1c91      	adds	r1, r2, #2
    5a2a:	089b      	lsrs	r3, r3, #2

00005a2c <arm_bitreversal_32_0>:
    5a2c:	f8b1 8004 	ldrh.w	r8, [r1, #4]
    5a30:	f8b1 9002 	ldrh.w	r9, [r1, #2]
    5a34:	880a      	ldrh	r2, [r1, #0]
    5a36:	f831 cc02 	ldrh.w	ip, [r1, #-2]
    5a3a:	4480      	add	r8, r0
    5a3c:	4481      	add	r9, r0
    5a3e:	4402      	add	r2, r0
    5a40:	4484      	add	ip, r0
    5a42:	f8d9 7000 	ldr.w	r7, [r9]
    5a46:	f8d8 6000 	ldr.w	r6, [r8]
    5a4a:	6815      	ldr	r5, [r2, #0]
    5a4c:	f8dc 4000 	ldr.w	r4, [ip]
    5a50:	f8c9 6000 	str.w	r6, [r9]
    5a54:	f8c8 7000 	str.w	r7, [r8]
    5a58:	f8cc 5000 	str.w	r5, [ip]
    5a5c:	6014      	str	r4, [r2, #0]
    5a5e:	f8d9 7004 	ldr.w	r7, [r9, #4]
    5a62:	f8d8 6004 	ldr.w	r6, [r8, #4]
    5a66:	6855      	ldr	r5, [r2, #4]
    5a68:	f8dc 4004 	ldr.w	r4, [ip, #4]
    5a6c:	f8c9 6004 	str.w	r6, [r9, #4]
    5a70:	f8c8 7004 	str.w	r7, [r8, #4]
    5a74:	f8cc 5004 	str.w	r5, [ip, #4]
    5a78:	6054      	str	r4, [r2, #4]
    5a7a:	3108      	adds	r1, #8
    5a7c:	3b01      	subs	r3, #1
    5a7e:	d1d5      	bne.n	5a2c <arm_bitreversal_32_0>
    5a80:	e8bd 03f0 	ldmia.w	sp!, {r4, r5, r6, r7, r8, r9}
    5a84:	4770      	bx	lr

00005a86 <arm_bitreversal_16>:
    5a86:	1c4b      	adds	r3, r1, #1
    5a88:	2b01      	cmp	r3, #1
    5a8a:	bf98      	it	ls
    5a8c:	4770      	bxls	lr
    5a8e:	e92d 03f0 	stmdb	sp!, {r4, r5, r6, r7, r8, r9}
    5a92:	1c91      	adds	r1, r2, #2
    5a94:	089b      	lsrs	r3, r3, #2

00005a96 <arm_bitreversal_16_0>:
    5a96:	f8b1 8004 	ldrh.w	r8, [r1, #4]
    5a9a:	f8b1 9002 	ldrh.w	r9, [r1, #2]
    5a9e:	880a      	ldrh	r2, [r1, #0]
    5aa0:	f831 cc02 	ldrh.w	ip, [r1, #-2]
    5aa4:	eb00 0858 	add.w	r8, r0, r8, lsr #1
    5aa8:	eb00 0959 	add.w	r9, r0, r9, lsr #1
    5aac:	eb00 0252 	add.w	r2, r0, r2, lsr #1
    5ab0:	eb00 0c5c 	add.w	ip, r0, ip, lsr #1
    5ab4:	f8d9 7000 	ldr.w	r7, [r9]
    5ab8:	f8d8 6000 	ldr.w	r6, [r8]
    5abc:	6815      	ldr	r5, [r2, #0]
    5abe:	f8dc 4000 	ldr.w	r4, [ip]
    5ac2:	f8c9 6000 	str.w	r6, [r9]
    5ac6:	f8c8 7000 	str.w	r7, [r8]
    5aca:	f8cc 5000 	str.w	r5, [ip]
    5ace:	6014      	str	r4, [r2, #0]
    5ad0:	3108      	adds	r1, #8
    5ad2:	3b01      	subs	r3, #1
    5ad4:	d1df      	bne.n	5a96 <arm_bitreversal_16_0>
    5ad6:	e8bd 03f0 	ldmia.w	sp!, {r4, r5, r6, r7, r8, r9}
    5ada:	4770      	bx	lr

00005adc <SystemCoreClockUpdate>:
    5adc:	b580      	push	{r7, lr}
    5ade:	af00      	add	r7, sp, #0
    5ae0:	f000 f8f4 	bl	5ccc <Chip_Clock_GetSystemClockRate>
    5ae4:	4602      	mov	r2, r0
    5ae6:	4b02      	ldr	r3, [pc, #8]	; (5af0 <SystemCoreClockUpdate+0x14>)
    5ae8:	601a      	str	r2, [r3, #0]
    5aea:	bf00      	nop
    5aec:	bd80      	pop	{r7, pc}
    5aee:	bf00      	nop
    5af0:	2000a4c4 	.word	0x2000a4c4

00005af4 <Chip_Clock_GetExtClockInRate>:
    5af4:	b480      	push	{r7}
    5af6:	af00      	add	r7, sp, #0
    5af8:	4b03      	ldr	r3, [pc, #12]	; (5b08 <Chip_Clock_GetExtClockInRate+0x14>)
    5afa:	681b      	ldr	r3, [r3, #0]
    5afc:	4618      	mov	r0, r3
    5afe:	46bd      	mov	sp, r7
    5b00:	f85d 7b04 	ldr.w	r7, [sp], #4
    5b04:	4770      	bx	lr
    5b06:	bf00      	nop
    5b08:	00009b1c 	.word	0x00009b1c

00005b0c <Chip_Clock_GetRTCOscRate>:
    5b0c:	b480      	push	{r7}
    5b0e:	af00      	add	r7, sp, #0
    5b10:	f44f 4300 	mov.w	r3, #32768	; 0x8000
    5b14:	4618      	mov	r0, r3
    5b16:	46bd      	mov	sp, r7
    5b18:	f85d 7b04 	ldr.w	r7, [sp], #4
    5b1c:	4770      	bx	lr
    5b1e:	bf00      	nop

00005b20 <Chip_Clock_GetFROHFRate>:
    5b20:	b480      	push	{r7}
    5b22:	af00      	add	r7, sp, #0
    5b24:	f04f 4380 	mov.w	r3, #1073741824	; 0x40000000
    5b28:	f8d3 3500 	ldr.w	r3, [r3, #1280]	; 0x500
    5b2c:	f403 4380 	and.w	r3, r3, #16384	; 0x4000
    5b30:	2b00      	cmp	r3, #0
    5b32:	d001      	beq.n	5b38 <Chip_Clock_GetFROHFRate+0x18>
    5b34:	4b03      	ldr	r3, [pc, #12]	; (5b44 <Chip_Clock_GetFROHFRate+0x24>)
    5b36:	e000      	b.n	5b3a <Chip_Clock_GetFROHFRate+0x1a>
    5b38:	4b03      	ldr	r3, [pc, #12]	; (5b48 <Chip_Clock_GetFROHFRate+0x28>)
    5b3a:	4618      	mov	r0, r3
    5b3c:	46bd      	mov	sp, r7
    5b3e:	f85d 7b04 	ldr.w	r7, [sp], #4
    5b42:	4770      	bx	lr
    5b44:	05b8d800 	.word	0x05b8d800
    5b48:	02dc6c00 	.word	0x02dc6c00

00005b4c <Chip_Clock_GetMain_A_ClockSource>:
    5b4c:	b480      	push	{r7}
    5b4e:	af00      	add	r7, sp, #0
    5b50:	f04f 4380 	mov.w	r3, #1073741824	; 0x40000000
    5b54:	f8d3 3280 	ldr.w	r3, [r3, #640]	; 0x280
    5b58:	b2db      	uxtb	r3, r3
    5b5a:	f003 0303 	and.w	r3, r3, #3
    5b5e:	b2db      	uxtb	r3, r3
    5b60:	4618      	mov	r0, r3
    5b62:	46bd      	mov	sp, r7
    5b64:	f85d 7b04 	ldr.w	r7, [sp], #4
    5b68:	4770      	bx	lr
    5b6a:	bf00      	nop

00005b6c <Chip_Clock_GetMain_B_ClockSource>:
    5b6c:	b480      	push	{r7}
    5b6e:	af00      	add	r7, sp, #0
    5b70:	f04f 4380 	mov.w	r3, #1073741824	; 0x40000000
    5b74:	f8d3 3284 	ldr.w	r3, [r3, #644]	; 0x284
    5b78:	b2db      	uxtb	r3, r3
    5b7a:	4618      	mov	r0, r3
    5b7c:	46bd      	mov	sp, r7
    5b7e:	f85d 7b04 	ldr.w	r7, [sp], #4
    5b82:	4770      	bx	lr

00005b84 <Chip_Clock_GetFRGClockSource>:
    5b84:	b480      	push	{r7}
    5b86:	af00      	add	r7, sp, #0
    5b88:	f04f 4380 	mov.w	r3, #1073741824	; 0x40000000
    5b8c:	f8d3 32e8 	ldr.w	r3, [r3, #744]	; 0x2e8
    5b90:	b2db      	uxtb	r3, r3
    5b92:	f003 0307 	and.w	r3, r3, #7
    5b96:	b2db      	uxtb	r3, r3
    5b98:	4618      	mov	r0, r3
    5b9a:	46bd      	mov	sp, r7
    5b9c:	f85d 7b04 	ldr.w	r7, [sp], #4
    5ba0:	4770      	bx	lr
    5ba2:	bf00      	nop

00005ba4 <Chip_Clock_GetMain_A_ClockRate>:
    5ba4:	b580      	push	{r7, lr}
    5ba6:	b082      	sub	sp, #8
    5ba8:	af00      	add	r7, sp, #0
    5baa:	2300      	movs	r3, #0
    5bac:	607b      	str	r3, [r7, #4]
    5bae:	f7ff ffcd 	bl	5b4c <Chip_Clock_GetMain_A_ClockSource>
    5bb2:	4603      	mov	r3, r0
    5bb4:	2b03      	cmp	r3, #3
    5bb6:	d81a      	bhi.n	5bee <Chip_Clock_GetMain_A_ClockRate+0x4a>
    5bb8:	a201      	add	r2, pc, #4	; (adr r2, 5bc0 <Chip_Clock_GetMain_A_ClockRate+0x1c>)
    5bba:	f852 f023 	ldr.w	pc, [r2, r3, lsl #2]
    5bbe:	bf00      	nop
    5bc0:	00005bd1 	.word	0x00005bd1
    5bc4:	00005bd7 	.word	0x00005bd7
    5bc8:	00005bdf 	.word	0x00005bdf
    5bcc:	00005be7 	.word	0x00005be7
    5bd0:	4b0b      	ldr	r3, [pc, #44]	; (5c00 <Chip_Clock_GetMain_A_ClockRate+0x5c>)
    5bd2:	607b      	str	r3, [r7, #4]
    5bd4:	e00e      	b.n	5bf4 <Chip_Clock_GetMain_A_ClockRate+0x50>
    5bd6:	f7ff ff8d 	bl	5af4 <Chip_Clock_GetExtClockInRate>
    5bda:	6078      	str	r0, [r7, #4]
    5bdc:	e00a      	b.n	5bf4 <Chip_Clock_GetMain_A_ClockRate+0x50>
    5bde:	f000 f8b5 	bl	5d4c <Chip_Clock_GetWDTOSCRate>
    5be2:	6078      	str	r0, [r7, #4]
    5be4:	e006      	b.n	5bf4 <Chip_Clock_GetMain_A_ClockRate+0x50>
    5be6:	f7ff ff9b 	bl	5b20 <Chip_Clock_GetFROHFRate>
    5bea:	6078      	str	r0, [r7, #4]
    5bec:	e002      	b.n	5bf4 <Chip_Clock_GetMain_A_ClockRate+0x50>
    5bee:	2300      	movs	r3, #0
    5bf0:	607b      	str	r3, [r7, #4]
    5bf2:	bf00      	nop
    5bf4:	687b      	ldr	r3, [r7, #4]
    5bf6:	4618      	mov	r0, r3
    5bf8:	3708      	adds	r7, #8
    5bfa:	46bd      	mov	sp, r7
    5bfc:	bd80      	pop	{r7, pc}
    5bfe:	bf00      	nop
    5c00:	00b71b00 	.word	0x00b71b00

00005c04 <Chip_Clock_GetMain_B_ClockRate>:
    5c04:	b580      	push	{r7, lr}
    5c06:	b082      	sub	sp, #8
    5c08:	af00      	add	r7, sp, #0
    5c0a:	2300      	movs	r3, #0
    5c0c:	607b      	str	r3, [r7, #4]
    5c0e:	f7ff ffad 	bl	5b6c <Chip_Clock_GetMain_B_ClockSource>
    5c12:	4603      	mov	r3, r0
    5c14:	2b02      	cmp	r3, #2
    5c16:	d007      	beq.n	5c28 <Chip_Clock_GetMain_B_ClockRate+0x24>
    5c18:	2b03      	cmp	r3, #3
    5c1a:	d00a      	beq.n	5c32 <Chip_Clock_GetMain_B_ClockRate+0x2e>
    5c1c:	2b00      	cmp	r3, #0
    5c1e:	d10c      	bne.n	5c3a <Chip_Clock_GetMain_B_ClockRate+0x36>
    5c20:	f7ff ffc0 	bl	5ba4 <Chip_Clock_GetMain_A_ClockRate>
    5c24:	6078      	str	r0, [r7, #4]
    5c26:	e008      	b.n	5c3a <Chip_Clock_GetMain_B_ClockRate+0x36>
    5c28:	2000      	movs	r0, #0
    5c2a:	f000 fb3d 	bl	62a8 <Chip_Clock_GetSystemPLLOutClockRate>
    5c2e:	6078      	str	r0, [r7, #4]
    5c30:	e003      	b.n	5c3a <Chip_Clock_GetMain_B_ClockRate+0x36>
    5c32:	f7ff ff6b 	bl	5b0c <Chip_Clock_GetRTCOscRate>
    5c36:	6078      	str	r0, [r7, #4]
    5c38:	bf00      	nop
    5c3a:	687b      	ldr	r3, [r7, #4]
    5c3c:	4618      	mov	r0, r3
    5c3e:	3708      	adds	r7, #8
    5c40:	46bd      	mov	sp, r7
    5c42:	bd80      	pop	{r7, pc}

00005c44 <Chip_Clock_EnablePeriphClock>:
    5c44:	b480      	push	{r7}
    5c46:	b085      	sub	sp, #20
    5c48:	af00      	add	r7, sp, #0
    5c4a:	4603      	mov	r3, r0
    5c4c:	71fb      	strb	r3, [r7, #7]
    5c4e:	79fb      	ldrb	r3, [r7, #7]
    5c50:	60fb      	str	r3, [r7, #12]
    5c52:	68fb      	ldr	r3, [r7, #12]
    5c54:	2b7f      	cmp	r3, #127	; 0x7f
    5c56:	d907      	bls.n	5c68 <Chip_Clock_EnablePeriphClock+0x24>
    5c58:	4a11      	ldr	r2, [pc, #68]	; (5ca0 <Chip_Clock_EnablePeriphClock+0x5c>)
    5c5a:	68fb      	ldr	r3, [r7, #12]
    5c5c:	3b80      	subs	r3, #128	; 0x80
    5c5e:	2101      	movs	r1, #1
    5c60:	fa01 f303 	lsl.w	r3, r1, r3
    5c64:	6153      	str	r3, [r2, #20]
    5c66:	e014      	b.n	5c92 <Chip_Clock_EnablePeriphClock+0x4e>
    5c68:	68fb      	ldr	r3, [r7, #12]
    5c6a:	2b1f      	cmp	r3, #31
    5c6c:	d909      	bls.n	5c82 <Chip_Clock_EnablePeriphClock+0x3e>
    5c6e:	f04f 4280 	mov.w	r2, #1073741824	; 0x40000000
    5c72:	68fb      	ldr	r3, [r7, #12]
    5c74:	3b20      	subs	r3, #32
    5c76:	2101      	movs	r1, #1
    5c78:	fa01 f303 	lsl.w	r3, r1, r3
    5c7c:	f8c2 3224 	str.w	r3, [r2, #548]	; 0x224
    5c80:	e007      	b.n	5c92 <Chip_Clock_EnablePeriphClock+0x4e>
    5c82:	f04f 4280 	mov.w	r2, #1073741824	; 0x40000000
    5c86:	2101      	movs	r1, #1
    5c88:	68fb      	ldr	r3, [r7, #12]
    5c8a:	fa01 f303 	lsl.w	r3, r1, r3
    5c8e:	f8c2 3220 	str.w	r3, [r2, #544]	; 0x220
    5c92:	bf00      	nop
    5c94:	3714      	adds	r7, #20
    5c96:	46bd      	mov	sp, r7
    5c98:	f85d 7b04 	ldr.w	r7, [sp], #4
    5c9c:	4770      	bx	lr
    5c9e:	bf00      	nop
    5ca0:	40040000 	.word	0x40040000

00005ca4 <Chip_Clock_GetMainClockRate>:
    5ca4:	b580      	push	{r7, lr}
    5ca6:	b082      	sub	sp, #8
    5ca8:	af00      	add	r7, sp, #0
    5caa:	f7ff ff5f 	bl	5b6c <Chip_Clock_GetMain_B_ClockSource>
    5cae:	4603      	mov	r3, r0
    5cb0:	2b00      	cmp	r3, #0
    5cb2:	d103      	bne.n	5cbc <Chip_Clock_GetMainClockRate+0x18>
    5cb4:	f7ff ff76 	bl	5ba4 <Chip_Clock_GetMain_A_ClockRate>
    5cb8:	6078      	str	r0, [r7, #4]
    5cba:	e002      	b.n	5cc2 <Chip_Clock_GetMainClockRate+0x1e>
    5cbc:	f7ff ffa2 	bl	5c04 <Chip_Clock_GetMain_B_ClockRate>
    5cc0:	6078      	str	r0, [r7, #4]
    5cc2:	687b      	ldr	r3, [r7, #4]
    5cc4:	4618      	mov	r0, r3
    5cc6:	3708      	adds	r7, #8
    5cc8:	46bd      	mov	sp, r7
    5cca:	bd80      	pop	{r7, pc}

00005ccc <Chip_Clock_GetSystemClockRate>:
    5ccc:	b580      	push	{r7, lr}
    5cce:	af00      	add	r7, sp, #0
    5cd0:	f7ff ffe8 	bl	5ca4 <Chip_Clock_GetMainClockRate>
    5cd4:	4602      	mov	r2, r0
    5cd6:	f04f 4380 	mov.w	r3, #1073741824	; 0x40000000
    5cda:	f8d3 3380 	ldr.w	r3, [r3, #896]	; 0x380
    5cde:	b2db      	uxtb	r3, r3
    5ce0:	3301      	adds	r3, #1
    5ce2:	fbb2 f3f3 	udiv	r3, r2, r3
    5ce6:	4618      	mov	r0, r3
    5ce8:	bd80      	pop	{r7, pc}
    5cea:	bf00      	nop

00005cec <Chip_Clock_GetFRGInClockRate>:
    5cec:	b580      	push	{r7, lr}
    5cee:	b082      	sub	sp, #8
    5cf0:	af00      	add	r7, sp, #0
    5cf2:	f7ff ff47 	bl	5b84 <Chip_Clock_GetFRGClockSource>
    5cf6:	4603      	mov	r3, r0
    5cf8:	70fb      	strb	r3, [r7, #3]
    5cfa:	78fb      	ldrb	r3, [r7, #3]
    5cfc:	2b03      	cmp	r3, #3
    5cfe:	d81b      	bhi.n	5d38 <Chip_Clock_GetFRGInClockRate+0x4c>
    5d00:	a201      	add	r2, pc, #4	; (adr r2, 5d08 <Chip_Clock_GetFRGInClockRate+0x1c>)
    5d02:	f852 f023 	ldr.w	pc, [r2, r3, lsl #2]
    5d06:	bf00      	nop
    5d08:	00005d19 	.word	0x00005d19
    5d0c:	00005d21 	.word	0x00005d21
    5d10:	00005d2b 	.word	0x00005d2b
    5d14:	00005d31 	.word	0x00005d31
    5d18:	f7ff ffc4 	bl	5ca4 <Chip_Clock_GetMainClockRate>
    5d1c:	6078      	str	r0, [r7, #4]
    5d1e:	e00d      	b.n	5d3c <Chip_Clock_GetFRGInClockRate+0x50>
    5d20:	2000      	movs	r0, #0
    5d22:	f000 fac1 	bl	62a8 <Chip_Clock_GetSystemPLLOutClockRate>
    5d26:	6078      	str	r0, [r7, #4]
    5d28:	e008      	b.n	5d3c <Chip_Clock_GetFRGInClockRate+0x50>
    5d2a:	4b07      	ldr	r3, [pc, #28]	; (5d48 <Chip_Clock_GetFRGInClockRate+0x5c>)
    5d2c:	607b      	str	r3, [r7, #4]
    5d2e:	e005      	b.n	5d3c <Chip_Clock_GetFRGInClockRate+0x50>
    5d30:	f7ff fef6 	bl	5b20 <Chip_Clock_GetFROHFRate>
    5d34:	6078      	str	r0, [r7, #4]
    5d36:	e001      	b.n	5d3c <Chip_Clock_GetFRGInClockRate+0x50>
    5d38:	2300      	movs	r3, #0
    5d3a:	e000      	b.n	5d3e <Chip_Clock_GetFRGInClockRate+0x52>
    5d3c:	687b      	ldr	r3, [r7, #4]
    5d3e:	4618      	mov	r0, r3
    5d40:	3708      	adds	r7, #8
    5d42:	46bd      	mov	sp, r7
    5d44:	bd80      	pop	{r7, pc}
    5d46:	bf00      	nop
    5d48:	00b71b00 	.word	0x00b71b00

00005d4c <Chip_Clock_GetWDTOSCRate>:
    5d4c:	b480      	push	{r7}
    5d4e:	b085      	sub	sp, #20
    5d50:	af00      	add	r7, sp, #0
    5d52:	f04f 4380 	mov.w	r3, #1073741824	; 0x40000000
    5d56:	f8d3 3508 	ldr.w	r3, [r3, #1288]	; 0x508
    5d5a:	60fb      	str	r3, [r7, #12]
    5d5c:	68fb      	ldr	r3, [r7, #12]
    5d5e:	095b      	lsrs	r3, r3, #5
    5d60:	f003 031f 	and.w	r3, r3, #31
    5d64:	60bb      	str	r3, [r7, #8]
    5d66:	68bb      	ldr	r3, [r7, #8]
    5d68:	2b00      	cmp	r3, #0
    5d6a:	d101      	bne.n	5d70 <Chip_Clock_GetWDTOSCRate+0x24>
    5d6c:	2300      	movs	r3, #0
    5d6e:	e01a      	b.n	5da6 <Chip_Clock_GetWDTOSCRate+0x5a>
    5d70:	68bb      	ldr	r3, [r7, #8]
    5d72:	2b01      	cmp	r3, #1
    5d74:	d00d      	beq.n	5d92 <Chip_Clock_GetWDTOSCRate+0x46>
    5d76:	68bb      	ldr	r3, [r7, #8]
    5d78:	3b02      	subs	r3, #2
    5d7a:	4a0e      	ldr	r2, [pc, #56]	; (5db4 <Chip_Clock_GetWDTOSCRate+0x68>)
    5d7c:	5cd3      	ldrb	r3, [r2, r3]
    5d7e:	461a      	mov	r2, r3
    5d80:	f242 7310 	movw	r3, #10000	; 0x2710
    5d84:	fb03 f302 	mul.w	r3, r3, r2
    5d88:	f503 2312 	add.w	r3, r3, #598016	; 0x92000
    5d8c:	f503 63f8 	add.w	r3, r3, #1984	; 0x7c0
    5d90:	e000      	b.n	5d94 <Chip_Clock_GetWDTOSCRate+0x48>
    5d92:	4b09      	ldr	r3, [pc, #36]	; (5db8 <Chip_Clock_GetWDTOSCRate+0x6c>)
    5d94:	607b      	str	r3, [r7, #4]
    5d96:	68fb      	ldr	r3, [r7, #12]
    5d98:	f003 031f 	and.w	r3, r3, #31
    5d9c:	3301      	adds	r3, #1
    5d9e:	005b      	lsls	r3, r3, #1
    5da0:	687a      	ldr	r2, [r7, #4]
    5da2:	fbb2 f3f3 	udiv	r3, r2, r3
    5da6:	4618      	mov	r0, r3
    5da8:	3714      	adds	r7, #20
    5daa:	46bd      	mov	sp, r7
    5dac:	f85d 7b04 	ldr.w	r7, [sp], #4
    5db0:	4770      	bx	lr
    5db2:	bf00      	nop
    5db4:	0001f04c 	.word	0x0001f04c
    5db8:	00061a80 	.word	0x00061a80

00005dbc <fpuInit>:
    5dbc:	b480      	push	{r7}
    5dbe:	b089      	sub	sp, #36	; 0x24
    5dc0:	af00      	add	r7, sp, #0
    5dc2:	4b16      	ldr	r3, [pc, #88]	; (5e1c <fpuInit+0x60>)
    5dc4:	61fb      	str	r3, [r7, #28]
    5dc6:	4b16      	ldr	r3, [pc, #88]	; (5e20 <fpuInit+0x64>)
    5dc8:	61bb      	str	r3, [r7, #24]
    5dca:	4b16      	ldr	r3, [pc, #88]	; (5e24 <fpuInit+0x68>)
    5dcc:	617b      	str	r3, [r7, #20]
    5dce:	2300      	movs	r3, #0
    5dd0:	74fb      	strb	r3, [r7, #19]
    5dd2:	69bb      	ldr	r3, [r7, #24]
    5dd4:	681b      	ldr	r3, [r3, #0]
    5dd6:	60bb      	str	r3, [r7, #8]
    5dd8:	697b      	ldr	r3, [r7, #20]
    5dda:	681b      	ldr	r3, [r3, #0]
    5ddc:	607b      	str	r3, [r7, #4]
    5dde:	68bb      	ldr	r3, [r7, #8]
    5de0:	4a11      	ldr	r2, [pc, #68]	; (5e28 <fpuInit+0x6c>)
    5de2:	4293      	cmp	r3, r2
    5de4:	d105      	bne.n	5df2 <fpuInit+0x36>
    5de6:	687b      	ldr	r3, [r7, #4]
    5de8:	4a10      	ldr	r2, [pc, #64]	; (5e2c <fpuInit+0x70>)
    5dea:	4293      	cmp	r3, r2
    5dec:	d101      	bne.n	5df2 <fpuInit+0x36>
    5dee:	2301      	movs	r3, #1
    5df0:	e000      	b.n	5df4 <fpuInit+0x38>
    5df2:	2300      	movs	r3, #0
    5df4:	74fb      	strb	r3, [r7, #19]
    5df6:	7cfb      	ldrb	r3, [r7, #19]
    5df8:	2b00      	cmp	r3, #0
    5dfa:	d009      	beq.n	5e10 <fpuInit+0x54>
    5dfc:	69fb      	ldr	r3, [r7, #28]
    5dfe:	681b      	ldr	r3, [r3, #0]
    5e00:	60fb      	str	r3, [r7, #12]
    5e02:	68fb      	ldr	r3, [r7, #12]
    5e04:	f443 0370 	orr.w	r3, r3, #15728640	; 0xf00000
    5e08:	60fb      	str	r3, [r7, #12]
    5e0a:	68fa      	ldr	r2, [r7, #12]
    5e0c:	69fb      	ldr	r3, [r7, #28]
    5e0e:	601a      	str	r2, [r3, #0]
    5e10:	bf00      	nop
    5e12:	3724      	adds	r7, #36	; 0x24
    5e14:	46bd      	mov	sp, r7
    5e16:	f85d 7b04 	ldr.w	r7, [sp], #4
    5e1a:	4770      	bx	lr
    5e1c:	e000ed88 	.word	0xe000ed88
    5e20:	e000ef40 	.word	0xe000ef40
    5e24:	e000ef44 	.word	0xe000ef44
    5e28:	10110021 	.word	0x10110021
    5e2c:	11000011 	.word	0x11000011

00005e30 <Chip_Clock_GetExtClockInRate>:
    5e30:	b480      	push	{r7}
    5e32:	af00      	add	r7, sp, #0
    5e34:	4b03      	ldr	r3, [pc, #12]	; (5e44 <Chip_Clock_GetExtClockInRate+0x14>)
    5e36:	681b      	ldr	r3, [r3, #0]
    5e38:	4618      	mov	r0, r3
    5e3a:	46bd      	mov	sp, r7
    5e3c:	f85d 7b04 	ldr.w	r7, [sp], #4
    5e40:	4770      	bx	lr
    5e42:	bf00      	nop
    5e44:	00009b1c 	.word	0x00009b1c

00005e48 <Chip_Clock_GetRTCOscRate>:
    5e48:	b480      	push	{r7}
    5e4a:	af00      	add	r7, sp, #0
    5e4c:	f44f 4300 	mov.w	r3, #32768	; 0x8000
    5e50:	4618      	mov	r0, r3
    5e52:	46bd      	mov	sp, r7
    5e54:	f85d 7b04 	ldr.w	r7, [sp], #4
    5e58:	4770      	bx	lr
    5e5a:	bf00      	nop

00005e5c <pllDecodeN>:
    5e5c:	b480      	push	{r7}
    5e5e:	b087      	sub	sp, #28
    5e60:	af00      	add	r7, sp, #0
    5e62:	6078      	str	r0, [r7, #4]
    5e64:	687b      	ldr	r3, [r7, #4]
    5e66:	f240 3202 	movw	r2, #770	; 0x302
    5e6a:	4293      	cmp	r3, r2
    5e6c:	d00b      	beq.n	5e86 <pllDecodeN+0x2a>
    5e6e:	f640 72ff 	movw	r2, #4095	; 0xfff
    5e72:	4293      	cmp	r3, r2
    5e74:	d004      	beq.n	5e80 <pllDecodeN+0x24>
    5e76:	f240 2202 	movw	r2, #514	; 0x202
    5e7a:	4293      	cmp	r3, r2
    5e7c:	d006      	beq.n	5e8c <pllDecodeN+0x30>
    5e7e:	e008      	b.n	5e92 <pllDecodeN+0x36>
    5e80:	2300      	movs	r3, #0
    5e82:	617b      	str	r3, [r7, #20]
    5e84:	e033      	b.n	5eee <pllDecodeN+0x92>
    5e86:	2301      	movs	r3, #1
    5e88:	617b      	str	r3, [r7, #20]
    5e8a:	e030      	b.n	5eee <pllDecodeN+0x92>
    5e8c:	2302      	movs	r3, #2
    5e8e:	617b      	str	r3, [r7, #20]
    5e90:	e02d      	b.n	5eee <pllDecodeN+0x92>
    5e92:	2380      	movs	r3, #128	; 0x80
    5e94:	613b      	str	r3, [r7, #16]
    5e96:	f04f 33ff 	mov.w	r3, #4294967295
    5e9a:	617b      	str	r3, [r7, #20]
    5e9c:	f44f 7380 	mov.w	r3, #256	; 0x100
    5ea0:	60fb      	str	r3, [r7, #12]
    5ea2:	e01c      	b.n	5ede <pllDecodeN+0x82>
    5ea4:	693b      	ldr	r3, [r7, #16]
    5ea6:	089a      	lsrs	r2, r3, #2
    5ea8:	693b      	ldr	r3, [r7, #16]
    5eaa:	405a      	eors	r2, r3
    5eac:	693b      	ldr	r3, [r7, #16]
    5eae:	08db      	lsrs	r3, r3, #3
    5eb0:	405a      	eors	r2, r3
    5eb2:	693b      	ldr	r3, [r7, #16]
    5eb4:	091b      	lsrs	r3, r3, #4
    5eb6:	4053      	eors	r3, r2
    5eb8:	01db      	lsls	r3, r3, #7
    5eba:	b2da      	uxtb	r2, r3
    5ebc:	693b      	ldr	r3, [r7, #16]
    5ebe:	085b      	lsrs	r3, r3, #1
    5ec0:	f003 037f 	and.w	r3, r3, #127	; 0x7f
    5ec4:	4313      	orrs	r3, r2
    5ec6:	613b      	str	r3, [r7, #16]
    5ec8:	693b      	ldr	r3, [r7, #16]
    5eca:	f3c3 0209 	ubfx	r2, r3, #0, #10
    5ece:	687b      	ldr	r3, [r7, #4]
    5ed0:	429a      	cmp	r2, r3
    5ed2:	d101      	bne.n	5ed8 <pllDecodeN+0x7c>
    5ed4:	68fb      	ldr	r3, [r7, #12]
    5ed6:	617b      	str	r3, [r7, #20]
    5ed8:	68fb      	ldr	r3, [r7, #12]
    5eda:	3b01      	subs	r3, #1
    5edc:	60fb      	str	r3, [r7, #12]
    5ede:	68fb      	ldr	r3, [r7, #12]
    5ee0:	2b02      	cmp	r3, #2
    5ee2:	d903      	bls.n	5eec <pllDecodeN+0x90>
    5ee4:	697b      	ldr	r3, [r7, #20]
    5ee6:	f1b3 3fff 	cmp.w	r3, #4294967295
    5eea:	d0db      	beq.n	5ea4 <pllDecodeN+0x48>
    5eec:	bf00      	nop
    5eee:	697b      	ldr	r3, [r7, #20]
    5ef0:	4618      	mov	r0, r3
    5ef2:	371c      	adds	r7, #28
    5ef4:	46bd      	mov	sp, r7
    5ef6:	f85d 7b04 	ldr.w	r7, [sp], #4
    5efa:	4770      	bx	lr

00005efc <pllDecodeP>:
    5efc:	b480      	push	{r7}
    5efe:	b087      	sub	sp, #28
    5f00:	af00      	add	r7, sp, #0
    5f02:	6078      	str	r0, [r7, #4]
    5f04:	687b      	ldr	r3, [r7, #4]
    5f06:	2b62      	cmp	r3, #98	; 0x62
    5f08:	d007      	beq.n	5f1a <pllDecodeP+0x1e>
    5f0a:	2bff      	cmp	r3, #255	; 0xff
    5f0c:	d002      	beq.n	5f14 <pllDecodeP+0x18>
    5f0e:	2b42      	cmp	r3, #66	; 0x42
    5f10:	d006      	beq.n	5f20 <pllDecodeP+0x24>
    5f12:	e008      	b.n	5f26 <pllDecodeP+0x2a>
    5f14:	2300      	movs	r3, #0
    5f16:	617b      	str	r3, [r7, #20]
    5f18:	e02d      	b.n	5f76 <pllDecodeP+0x7a>
    5f1a:	2301      	movs	r3, #1
    5f1c:	617b      	str	r3, [r7, #20]
    5f1e:	e02a      	b.n	5f76 <pllDecodeP+0x7a>
    5f20:	2302      	movs	r3, #2
    5f22:	617b      	str	r3, [r7, #20]
    5f24:	e027      	b.n	5f76 <pllDecodeP+0x7a>
    5f26:	2310      	movs	r3, #16
    5f28:	613b      	str	r3, [r7, #16]
    5f2a:	f04f 33ff 	mov.w	r3, #4294967295
    5f2e:	617b      	str	r3, [r7, #20]
    5f30:	2320      	movs	r3, #32
    5f32:	60fb      	str	r3, [r7, #12]
    5f34:	e017      	b.n	5f66 <pllDecodeP+0x6a>
    5f36:	693b      	ldr	r3, [r7, #16]
    5f38:	089a      	lsrs	r2, r3, #2
    5f3a:	693b      	ldr	r3, [r7, #16]
    5f3c:	4053      	eors	r3, r2
    5f3e:	011b      	lsls	r3, r3, #4
    5f40:	f003 0210 	and.w	r2, r3, #16
    5f44:	693b      	ldr	r3, [r7, #16]
    5f46:	085b      	lsrs	r3, r3, #1
    5f48:	f003 030f 	and.w	r3, r3, #15
    5f4c:	4313      	orrs	r3, r2
    5f4e:	613b      	str	r3, [r7, #16]
    5f50:	693b      	ldr	r3, [r7, #16]
    5f52:	f3c3 0209 	ubfx	r2, r3, #0, #10
    5f56:	687b      	ldr	r3, [r7, #4]
    5f58:	429a      	cmp	r2, r3
    5f5a:	d101      	bne.n	5f60 <pllDecodeP+0x64>
    5f5c:	68fb      	ldr	r3, [r7, #12]
    5f5e:	617b      	str	r3, [r7, #20]
    5f60:	68fb      	ldr	r3, [r7, #12]
    5f62:	3b01      	subs	r3, #1
    5f64:	60fb      	str	r3, [r7, #12]
    5f66:	68fb      	ldr	r3, [r7, #12]
    5f68:	2b02      	cmp	r3, #2
    5f6a:	d903      	bls.n	5f74 <pllDecodeP+0x78>
    5f6c:	697b      	ldr	r3, [r7, #20]
    5f6e:	f1b3 3fff 	cmp.w	r3, #4294967295
    5f72:	d0e0      	beq.n	5f36 <pllDecodeP+0x3a>
    5f74:	bf00      	nop
    5f76:	697b      	ldr	r3, [r7, #20]
    5f78:	4618      	mov	r0, r3
    5f7a:	371c      	adds	r7, #28
    5f7c:	46bd      	mov	sp, r7
    5f7e:	f85d 7b04 	ldr.w	r7, [sp], #4
    5f82:	4770      	bx	lr

00005f84 <pllDecodeM>:
    5f84:	b480      	push	{r7}
    5f86:	b087      	sub	sp, #28
    5f88:	af00      	add	r7, sp, #0
    5f8a:	6078      	str	r0, [r7, #4]
    5f8c:	687b      	ldr	r3, [r7, #4]
    5f8e:	4a22      	ldr	r2, [pc, #136]	; (6018 <pllDecodeM+0x94>)
    5f90:	4293      	cmp	r3, r2
    5f92:	d009      	beq.n	5fa8 <pllDecodeM+0x24>
    5f94:	4a21      	ldr	r2, [pc, #132]	; (601c <pllDecodeM+0x98>)
    5f96:	4293      	cmp	r3, r2
    5f98:	d003      	beq.n	5fa2 <pllDecodeM+0x1e>
    5f9a:	4a21      	ldr	r2, [pc, #132]	; (6020 <pllDecodeM+0x9c>)
    5f9c:	4293      	cmp	r3, r2
    5f9e:	d006      	beq.n	5fae <pllDecodeM+0x2a>
    5fa0:	e008      	b.n	5fb4 <pllDecodeM+0x30>
    5fa2:	2300      	movs	r3, #0
    5fa4:	617b      	str	r3, [r7, #20]
    5fa6:	e02f      	b.n	6008 <pllDecodeM+0x84>
    5fa8:	2301      	movs	r3, #1
    5faa:	617b      	str	r3, [r7, #20]
    5fac:	e02c      	b.n	6008 <pllDecodeM+0x84>
    5fae:	2302      	movs	r3, #2
    5fb0:	617b      	str	r3, [r7, #20]
    5fb2:	e029      	b.n	6008 <pllDecodeM+0x84>
    5fb4:	f44f 4380 	mov.w	r3, #16384	; 0x4000
    5fb8:	60fb      	str	r3, [r7, #12]
    5fba:	f04f 33ff 	mov.w	r3, #4294967295
    5fbe:	617b      	str	r3, [r7, #20]
    5fc0:	f44f 4300 	mov.w	r3, #32768	; 0x8000
    5fc4:	613b      	str	r3, [r7, #16]
    5fc6:	e017      	b.n	5ff8 <pllDecodeM+0x74>
    5fc8:	68fb      	ldr	r3, [r7, #12]
    5fca:	085a      	lsrs	r2, r3, #1
    5fcc:	68fb      	ldr	r3, [r7, #12]
    5fce:	4053      	eors	r3, r2
    5fd0:	039b      	lsls	r3, r3, #14
    5fd2:	f403 4280 	and.w	r2, r3, #16384	; 0x4000
    5fd6:	68fb      	ldr	r3, [r7, #12]
    5fd8:	085b      	lsrs	r3, r3, #1
    5fda:	f3c3 030d 	ubfx	r3, r3, #0, #14
    5fde:	4313      	orrs	r3, r2
    5fe0:	60fb      	str	r3, [r7, #12]
    5fe2:	68fb      	ldr	r3, [r7, #12]
    5fe4:	f3c3 0210 	ubfx	r2, r3, #0, #17
    5fe8:	687b      	ldr	r3, [r7, #4]
    5fea:	429a      	cmp	r2, r3
    5fec:	d101      	bne.n	5ff2 <pllDecodeM+0x6e>
    5fee:	693b      	ldr	r3, [r7, #16]
    5ff0:	617b      	str	r3, [r7, #20]
    5ff2:	693b      	ldr	r3, [r7, #16]
    5ff4:	3b01      	subs	r3, #1
    5ff6:	613b      	str	r3, [r7, #16]
    5ff8:	693b      	ldr	r3, [r7, #16]
    5ffa:	2b02      	cmp	r3, #2
    5ffc:	d903      	bls.n	6006 <pllDecodeM+0x82>
    5ffe:	697b      	ldr	r3, [r7, #20]
    6000:	f1b3 3fff 	cmp.w	r3, #4294967295
    6004:	d0e0      	beq.n	5fc8 <pllDecodeM+0x44>
    6006:	bf00      	nop
    6008:	697b      	ldr	r3, [r7, #20]
    600a:	4618      	mov	r0, r3
    600c:	371c      	adds	r7, #28
    600e:	46bd      	mov	sp, r7
    6010:	f85d 7b04 	ldr.w	r7, [sp], #4
    6014:	4770      	bx	lr
    6016:	bf00      	nop
    6018:	00018003 	.word	0x00018003
    601c:	000fffff 	.word	0x000fffff
    6020:	00010003 	.word	0x00010003

00006024 <findPllPreDiv>:
    6024:	b580      	push	{r7, lr}
    6026:	b084      	sub	sp, #16
    6028:	af00      	add	r7, sp, #0
    602a:	6078      	str	r0, [r7, #4]
    602c:	6039      	str	r1, [r7, #0]
    602e:	2301      	movs	r3, #1
    6030:	60fb      	str	r3, [r7, #12]
    6032:	687b      	ldr	r3, [r7, #4]
    6034:	f403 2300 	and.w	r3, r3, #524288	; 0x80000
    6038:	2b00      	cmp	r3, #0
    603a:	d10b      	bne.n	6054 <findPllPreDiv+0x30>
    603c:	683b      	ldr	r3, [r7, #0]
    603e:	f3c3 0309 	ubfx	r3, r3, #0, #10
    6042:	4618      	mov	r0, r3
    6044:	f7ff ff0a 	bl	5e5c <pllDecodeN>
    6048:	60f8      	str	r0, [r7, #12]
    604a:	68fb      	ldr	r3, [r7, #12]
    604c:	2b00      	cmp	r3, #0
    604e:	d101      	bne.n	6054 <findPllPreDiv+0x30>
    6050:	2301      	movs	r3, #1
    6052:	60fb      	str	r3, [r7, #12]
    6054:	68fb      	ldr	r3, [r7, #12]
    6056:	4618      	mov	r0, r3
    6058:	3710      	adds	r7, #16
    605a:	46bd      	mov	sp, r7
    605c:	bd80      	pop	{r7, pc}
    605e:	bf00      	nop

00006060 <findPllPostDiv>:
    6060:	b580      	push	{r7, lr}
    6062:	b084      	sub	sp, #16
    6064:	af00      	add	r7, sp, #0
    6066:	6078      	str	r0, [r7, #4]
    6068:	6039      	str	r1, [r7, #0]
    606a:	2301      	movs	r3, #1
    606c:	60fb      	str	r3, [r7, #12]
    606e:	687b      	ldr	r3, [r7, #4]
    6070:	f403 1380 	and.w	r3, r3, #1048576	; 0x100000
    6074:	2b00      	cmp	r3, #0
    6076:	d10d      	bne.n	6094 <findPllPostDiv+0x34>
    6078:	683b      	ldr	r3, [r7, #0]
    607a:	f003 037f 	and.w	r3, r3, #127	; 0x7f
    607e:	4618      	mov	r0, r3
    6080:	f7ff ff3c 	bl	5efc <pllDecodeP>
    6084:	4603      	mov	r3, r0
    6086:	005b      	lsls	r3, r3, #1
    6088:	60fb      	str	r3, [r7, #12]
    608a:	68fb      	ldr	r3, [r7, #12]
    608c:	2b00      	cmp	r3, #0
    608e:	d101      	bne.n	6094 <findPllPostDiv+0x34>
    6090:	2302      	movs	r3, #2
    6092:	60fb      	str	r3, [r7, #12]
    6094:	68fb      	ldr	r3, [r7, #12]
    6096:	4618      	mov	r0, r3
    6098:	3710      	adds	r7, #16
    609a:	46bd      	mov	sp, r7
    609c:	bd80      	pop	{r7, pc}
    609e:	bf00      	nop

000060a0 <findPllMMult>:
    60a0:	b580      	push	{r7, lr}
    60a2:	b084      	sub	sp, #16
    60a4:	af00      	add	r7, sp, #0
    60a6:	6078      	str	r0, [r7, #4]
    60a8:	6039      	str	r1, [r7, #0]
    60aa:	2301      	movs	r3, #1
    60ac:	60fb      	str	r3, [r7, #12]
    60ae:	683b      	ldr	r3, [r7, #0]
    60b0:	f3c3 0310 	ubfx	r3, r3, #0, #17
    60b4:	4618      	mov	r0, r3
    60b6:	f7ff ff65 	bl	5f84 <pllDecodeM>
    60ba:	60f8      	str	r0, [r7, #12]
    60bc:	687b      	ldr	r3, [r7, #4]
    60be:	f403 3380 	and.w	r3, r3, #65536	; 0x10000
    60c2:	2b00      	cmp	r3, #0
    60c4:	d102      	bne.n	60cc <findPllMMult+0x2c>
    60c6:	68fb      	ldr	r3, [r7, #12]
    60c8:	005b      	lsls	r3, r3, #1
    60ca:	60fb      	str	r3, [r7, #12]
    60cc:	68fb      	ldr	r3, [r7, #12]
    60ce:	2b00      	cmp	r3, #0
    60d0:	d101      	bne.n	60d6 <findPllMMult+0x36>
    60d2:	2301      	movs	r3, #1
    60d4:	60fb      	str	r3, [r7, #12]
    60d6:	68fb      	ldr	r3, [r7, #12]
    60d8:	4618      	mov	r0, r3
    60da:	3710      	adds	r7, #16
    60dc:	46bd      	mov	sp, r7
    60de:	bd80      	pop	{r7, pc}

000060e0 <Chip_Clock_GetSystemPLLOutFromSetupUpdate>:
    60e0:	b580      	push	{r7, lr}
    60e2:	b082      	sub	sp, #8
    60e4:	af00      	add	r7, sp, #0
    60e6:	6078      	str	r0, [r7, #4]
    60e8:	6878      	ldr	r0, [r7, #4]
    60ea:	f000 f83b 	bl	6164 <Chip_Clock_GetSystemPLLOutFromSetup>
    60ee:	4602      	mov	r2, r0
    60f0:	4b02      	ldr	r3, [pc, #8]	; (60fc <Chip_Clock_GetSystemPLLOutFromSetupUpdate+0x1c>)
    60f2:	601a      	str	r2, [r3, #0]
    60f4:	bf00      	nop
    60f6:	3708      	adds	r7, #8
    60f8:	46bd      	mov	sp, r7
    60fa:	bd80      	pop	{r7, pc}
    60fc:	20000108 	.word	0x20000108

00006100 <Chip_Clock_GetSystemPLLInClockRate>:
    6100:	b580      	push	{r7, lr}
    6102:	b082      	sub	sp, #8
    6104:	af00      	add	r7, sp, #0
    6106:	2300      	movs	r3, #0
    6108:	607b      	str	r3, [r7, #4]
    610a:	f04f 4380 	mov.w	r3, #1073741824	; 0x40000000
    610e:	f8d3 3290 	ldr.w	r3, [r3, #656]	; 0x290
    6112:	f003 0303 	and.w	r3, r3, #3
    6116:	2b03      	cmp	r3, #3
    6118:	d819      	bhi.n	614e <Chip_Clock_GetSystemPLLInClockRate+0x4e>
    611a:	a201      	add	r2, pc, #4	; (adr r2, 6120 <Chip_Clock_GetSystemPLLInClockRate+0x20>)
    611c:	f852 f023 	ldr.w	pc, [r2, r3, lsl #2]
    6120:	00006131 	.word	0x00006131
    6124:	00006137 	.word	0x00006137
    6128:	0000613f 	.word	0x0000613f
    612c:	00006147 	.word	0x00006147
    6130:	4b0b      	ldr	r3, [pc, #44]	; (6160 <Chip_Clock_GetSystemPLLInClockRate+0x60>)
    6132:	607b      	str	r3, [r7, #4]
    6134:	e00e      	b.n	6154 <Chip_Clock_GetSystemPLLInClockRate+0x54>
    6136:	f7ff fe7b 	bl	5e30 <Chip_Clock_GetExtClockInRate>
    613a:	6078      	str	r0, [r7, #4]
    613c:	e00a      	b.n	6154 <Chip_Clock_GetSystemPLLInClockRate+0x54>
    613e:	f7ff fe05 	bl	5d4c <Chip_Clock_GetWDTOSCRate>
    6142:	6078      	str	r0, [r7, #4]
    6144:	e006      	b.n	6154 <Chip_Clock_GetSystemPLLInClockRate+0x54>
    6146:	f7ff fe7f 	bl	5e48 <Chip_Clock_GetRTCOscRate>
    614a:	6078      	str	r0, [r7, #4]
    614c:	e002      	b.n	6154 <Chip_Clock_GetSystemPLLInClockRate+0x54>
    614e:	2300      	movs	r3, #0
    6150:	607b      	str	r3, [r7, #4]
    6152:	bf00      	nop
    6154:	687b      	ldr	r3, [r7, #4]
    6156:	4618      	mov	r0, r3
    6158:	3708      	adds	r7, #8
    615a:	46bd      	mov	sp, r7
    615c:	bd80      	pop	{r7, pc}
    615e:	bf00      	nop
    6160:	00b71b00 	.word	0x00b71b00

00006164 <Chip_Clock_GetSystemPLLOutFromSetup>:
    6164:	b5f0      	push	{r4, r5, r6, r7, lr}
    6166:	b08b      	sub	sp, #44	; 0x2c
    6168:	af00      	add	r7, sp, #0
    616a:	6078      	str	r0, [r7, #4]
    616c:	f7ff ffc8 	bl	6100 <Chip_Clock_GetSystemPLLInClockRate>
    6170:	61f8      	str	r0, [r7, #28]
    6172:	687b      	ldr	r3, [r7, #4]
    6174:	681b      	ldr	r3, [r3, #0]
    6176:	f403 4300 	and.w	r3, r3, #32768	; 0x8000
    617a:	2b00      	cmp	r3, #0
    617c:	f040 808a 	bne.w	6294 <Chip_Clock_GetSystemPLLOutFromSetup+0x130>
    6180:	687b      	ldr	r3, [r7, #4]
    6182:	681a      	ldr	r2, [r3, #0]
    6184:	687b      	ldr	r3, [r7, #4]
    6186:	685b      	ldr	r3, [r3, #4]
    6188:	4619      	mov	r1, r3
    618a:	4610      	mov	r0, r2
    618c:	f7ff ff4a 	bl	6024 <findPllPreDiv>
    6190:	61b8      	str	r0, [r7, #24]
    6192:	687b      	ldr	r3, [r7, #4]
    6194:	681a      	ldr	r2, [r3, #0]
    6196:	687b      	ldr	r3, [r7, #4]
    6198:	689b      	ldr	r3, [r3, #8]
    619a:	4619      	mov	r1, r3
    619c:	4610      	mov	r0, r2
    619e:	f7ff ff5f 	bl	6060 <findPllPostDiv>
    61a2:	6178      	str	r0, [r7, #20]
    61a4:	69fa      	ldr	r2, [r7, #28]
    61a6:	69bb      	ldr	r3, [r7, #24]
    61a8:	fbb2 f3f3 	udiv	r3, r2, r3
    61ac:	61fb      	str	r3, [r7, #28]
    61ae:	687b      	ldr	r3, [r7, #4]
    61b0:	691b      	ldr	r3, [r3, #16]
    61b2:	f003 5380 	and.w	r3, r3, #268435456	; 0x10000000
    61b6:	2b00      	cmp	r3, #0
    61b8:	d01d      	beq.n	61f6 <Chip_Clock_GetSystemPLLOutFromSetup+0x92>
    61ba:	687b      	ldr	r3, [r7, #4]
    61bc:	681a      	ldr	r2, [r3, #0]
    61be:	687b      	ldr	r3, [r7, #4]
    61c0:	68db      	ldr	r3, [r3, #12]
    61c2:	4619      	mov	r1, r3
    61c4:	4610      	mov	r0, r2
    61c6:	f7ff ff6b 	bl	60a0 <findPllMMult>
    61ca:	6138      	str	r0, [r7, #16]
    61cc:	69fb      	ldr	r3, [r7, #28]
    61ce:	4619      	mov	r1, r3
    61d0:	f04f 0200 	mov.w	r2, #0
    61d4:	693b      	ldr	r3, [r7, #16]
    61d6:	f04f 0400 	mov.w	r4, #0
    61da:	fb03 f502 	mul.w	r5, r3, r2
    61de:	fb01 f004 	mul.w	r0, r1, r4
    61e2:	4428      	add	r0, r5
    61e4:	fba1 3403 	umull	r3, r4, r1, r3
    61e8:	1902      	adds	r2, r0, r4
    61ea:	4614      	mov	r4, r2
    61ec:	e9c7 3408 	strd	r3, r4, [r7, #32]
    61f0:	e9c7 3408 	strd	r3, r4, [r7, #32]
    61f4:	e040      	b.n	6278 <Chip_Clock_GetSystemPLLOutFromSetup+0x114>
    61f6:	687b      	ldr	r3, [r7, #4]
    61f8:	691b      	ldr	r3, [r3, #16]
    61fa:	0adb      	lsrs	r3, r3, #11
    61fc:	b2db      	uxtb	r3, r3
    61fe:	613b      	str	r3, [r7, #16]
    6200:	69fb      	ldr	r3, [r7, #28]
    6202:	4619      	mov	r1, r3
    6204:	f04f 0200 	mov.w	r2, #0
    6208:	693b      	ldr	r3, [r7, #16]
    620a:	f04f 0400 	mov.w	r4, #0
    620e:	fb03 fe02 	mul.w	lr, r3, r2
    6212:	fb01 f004 	mul.w	r0, r1, r4
    6216:	4470      	add	r0, lr
    6218:	fba1 3403 	umull	r3, r4, r1, r3
    621c:	1902      	adds	r2, r0, r4
    621e:	4614      	mov	r4, r2
    6220:	e9c7 3408 	strd	r3, r4, [r7, #32]
    6224:	e9c7 3408 	strd	r3, r4, [r7, #32]
    6228:	687b      	ldr	r3, [r7, #4]
    622a:	691b      	ldr	r3, [r3, #16]
    622c:	f04f 0400 	mov.w	r4, #0
    6230:	f240 71ff 	movw	r1, #2047	; 0x7ff
    6234:	f04f 0200 	mov.w	r2, #0
    6238:	ea03 0301 	and.w	r3, r3, r1
    623c:	ea04 0402 	and.w	r4, r4, r2
    6240:	e9c7 3402 	strd	r3, r4, [r7, #8]
    6244:	69fb      	ldr	r3, [r7, #28]
    6246:	f04f 0400 	mov.w	r4, #0
    624a:	68ba      	ldr	r2, [r7, #8]
    624c:	fb04 f102 	mul.w	r1, r4, r2
    6250:	68fa      	ldr	r2, [r7, #12]
    6252:	fb03 f202 	mul.w	r2, r3, r2
    6256:	440a      	add	r2, r1
    6258:	68b9      	ldr	r1, [r7, #8]
    625a:	fba1 3403 	umull	r3, r4, r1, r3
    625e:	4422      	add	r2, r4
    6260:	4614      	mov	r4, r2
    6262:	0add      	lsrs	r5, r3, #11
    6264:	ea45 5544 	orr.w	r5, r5, r4, lsl #21
    6268:	0ae6      	lsrs	r6, r4, #11
    626a:	e9d7 3408 	ldrd	r3, r4, [r7, #32]
    626e:	195b      	adds	r3, r3, r5
    6270:	eb44 0406 	adc.w	r4, r4, r6
    6274:	e9c7 3408 	strd	r3, r4, [r7, #32]
    6278:	697b      	ldr	r3, [r7, #20]
    627a:	f04f 0400 	mov.w	r4, #0
    627e:	461a      	mov	r2, r3
    6280:	4623      	mov	r3, r4
    6282:	e9d7 0108 	ldrd	r0, r1, [r7, #32]
    6286:	f002 fea9 	bl	8fdc <__aeabi_uldivmod>
    628a:	4603      	mov	r3, r0
    628c:	460c      	mov	r4, r1
    628e:	e9c7 3408 	strd	r3, r4, [r7, #32]
    6292:	e004      	b.n	629e <Chip_Clock_GetSystemPLLOutFromSetup+0x13a>
    6294:	69fb      	ldr	r3, [r7, #28]
    6296:	f04f 0400 	mov.w	r4, #0
    629a:	e9c7 3408 	strd	r3, r4, [r7, #32]
    629e:	6a3b      	ldr	r3, [r7, #32]
    62a0:	4618      	mov	r0, r3
    62a2:	372c      	adds	r7, #44	; 0x2c
    62a4:	46bd      	mov	sp, r7
    62a6:	bdf0      	pop	{r4, r5, r6, r7, pc}

000062a8 <Chip_Clock_GetSystemPLLOutClockRate>:
    62a8:	b580      	push	{r7, lr}
    62aa:	b08a      	sub	sp, #40	; 0x28
    62ac:	af00      	add	r7, sp, #0
    62ae:	4603      	mov	r3, r0
    62b0:	71fb      	strb	r3, [r7, #7]
    62b2:	79fb      	ldrb	r3, [r7, #7]
    62b4:	2b00      	cmp	r3, #0
    62b6:	d103      	bne.n	62c0 <Chip_Clock_GetSystemPLLOutClockRate+0x18>
    62b8:	4b14      	ldr	r3, [pc, #80]	; (630c <Chip_Clock_GetSystemPLLOutClockRate+0x64>)
    62ba:	681b      	ldr	r3, [r3, #0]
    62bc:	2b00      	cmp	r3, #0
    62be:	d11d      	bne.n	62fc <Chip_Clock_GetSystemPLLOutClockRate+0x54>
    62c0:	f04f 4380 	mov.w	r3, #1073741824	; 0x40000000
    62c4:	f8d3 3580 	ldr.w	r3, [r3, #1408]	; 0x580
    62c8:	60bb      	str	r3, [r7, #8]
    62ca:	f04f 4380 	mov.w	r3, #1073741824	; 0x40000000
    62ce:	f8d3 3588 	ldr.w	r3, [r3, #1416]	; 0x588
    62d2:	60fb      	str	r3, [r7, #12]
    62d4:	f04f 4380 	mov.w	r3, #1073741824	; 0x40000000
    62d8:	f8d3 358c 	ldr.w	r3, [r3, #1420]	; 0x58c
    62dc:	613b      	str	r3, [r7, #16]
    62de:	f04f 4380 	mov.w	r3, #1073741824	; 0x40000000
    62e2:	f8d3 3590 	ldr.w	r3, [r3, #1424]	; 0x590
    62e6:	617b      	str	r3, [r7, #20]
    62e8:	f04f 4380 	mov.w	r3, #1073741824	; 0x40000000
    62ec:	f8d3 3594 	ldr.w	r3, [r3, #1428]	; 0x594
    62f0:	61bb      	str	r3, [r7, #24]
    62f2:	f107 0308 	add.w	r3, r7, #8
    62f6:	4618      	mov	r0, r3
    62f8:	f7ff fef2 	bl	60e0 <Chip_Clock_GetSystemPLLOutFromSetupUpdate>
    62fc:	4b03      	ldr	r3, [pc, #12]	; (630c <Chip_Clock_GetSystemPLLOutClockRate+0x64>)
    62fe:	681b      	ldr	r3, [r3, #0]
    6300:	627b      	str	r3, [r7, #36]	; 0x24
    6302:	6a7b      	ldr	r3, [r7, #36]	; 0x24
    6304:	4618      	mov	r0, r3
    6306:	3728      	adds	r7, #40	; 0x28
    6308:	46bd      	mov	sp, r7
    630a:	bd80      	pop	{r7, pc}
    630c:	20000108 	.word	0x20000108

00006310 <Chip_SYSCON_Enable_ASYNC_Syscon>:
    6310:	b480      	push	{r7}
    6312:	b083      	sub	sp, #12
    6314:	af00      	add	r7, sp, #0
    6316:	4603      	mov	r3, r0
    6318:	71fb      	strb	r3, [r7, #7]
    631a:	79fb      	ldrb	r3, [r7, #7]
    631c:	2b00      	cmp	r3, #0
    631e:	d004      	beq.n	632a <Chip_SYSCON_Enable_ASYNC_Syscon+0x1a>
    6320:	f04f 4380 	mov.w	r3, #1073741824	; 0x40000000
    6324:	2201      	movs	r2, #1
    6326:	64da      	str	r2, [r3, #76]	; 0x4c
    6328:	e003      	b.n	6332 <Chip_SYSCON_Enable_ASYNC_Syscon+0x22>
    632a:	f04f 4380 	mov.w	r3, #1073741824	; 0x40000000
    632e:	2200      	movs	r2, #0
    6330:	64da      	str	r2, [r3, #76]	; 0x4c
    6332:	bf00      	nop
    6334:	370c      	adds	r7, #12
    6336:	46bd      	mov	sp, r7
    6338:	f85d 7b04 	ldr.w	r7, [sp], #4
    633c:	4770      	bx	lr
    633e:	bf00      	nop

00006340 <Chip_SYSCON_PowerUp>:
    6340:	b480      	push	{r7}
    6342:	b087      	sub	sp, #28
    6344:	af00      	add	r7, sp, #0
    6346:	6078      	str	r0, [r7, #4]
    6348:	687b      	ldr	r3, [r7, #4]
    634a:	f403 0380 	and.w	r3, r3, #4194304	; 0x400000
    634e:	2b00      	cmp	r3, #0
    6350:	d02f      	beq.n	63b2 <Chip_SYSCON_PowerUp+0x72>
    6352:	4b1d      	ldr	r3, [pc, #116]	; (63c8 <Chip_SYSCON_PowerUp+0x88>)
    6354:	617b      	str	r3, [r7, #20]
    6356:	f04f 4380 	mov.w	r3, #1073741824	; 0x40000000
    635a:	f8d3 3590 	ldr.w	r3, [r3, #1424]	; 0x590
    635e:	f423 3300 	bic.w	r3, r3, #131072	; 0x20000
    6362:	613b      	str	r3, [r7, #16]
    6364:	f04f 4280 	mov.w	r2, #1073741824	; 0x40000000
    6368:	697b      	ldr	r3, [r7, #20]
    636a:	f8c2 3590 	str.w	r3, [r2, #1424]	; 0x590
    636e:	f04f 4380 	mov.w	r3, #1073741824	; 0x40000000
    6372:	f44f 0280 	mov.w	r2, #4194304	; 0x400000
    6376:	f8c3 2630 	str.w	r2, [r3, #1584]	; 0x630
    637a:	f04f 4280 	mov.w	r2, #1073741824	; 0x40000000
    637e:	697b      	ldr	r3, [r7, #20]
    6380:	f443 3300 	orr.w	r3, r3, #131072	; 0x20000
    6384:	f8c2 3590 	str.w	r3, [r2, #1424]	; 0x590
    6388:	2300      	movs	r3, #0
    638a:	60fb      	str	r3, [r7, #12]
    638c:	e002      	b.n	6394 <Chip_SYSCON_PowerUp+0x54>
    638e:	68fb      	ldr	r3, [r7, #12]
    6390:	3301      	adds	r3, #1
    6392:	60fb      	str	r3, [r7, #12]
    6394:	68fb      	ldr	r3, [r7, #12]
    6396:	2bab      	cmp	r3, #171	; 0xab
    6398:	d9f9      	bls.n	638e <Chip_SYSCON_PowerUp+0x4e>
    639a:	f04f 4280 	mov.w	r2, #1073741824	; 0x40000000
    639e:	693b      	ldr	r3, [r7, #16]
    63a0:	f8c2 3590 	str.w	r3, [r2, #1424]	; 0x590
    63a4:	f04f 4280 	mov.w	r2, #1073741824	; 0x40000000
    63a8:	693b      	ldr	r3, [r7, #16]
    63aa:	f443 3300 	orr.w	r3, r3, #131072	; 0x20000
    63ae:	f8c2 3590 	str.w	r3, [r2, #1424]	; 0x590
    63b2:	f04f 4280 	mov.w	r2, #1073741824	; 0x40000000
    63b6:	687b      	ldr	r3, [r7, #4]
    63b8:	f8c2 3630 	str.w	r3, [r2, #1584]	; 0x630
    63bc:	bf00      	nop
    63be:	371c      	adds	r7, #28
    63c0:	46bd      	mov	sp, r7
    63c2:	f85d 7b04 	ldr.w	r7, [sp], #4
    63c6:	4770      	bx	lr
    63c8:	00045dd2 	.word	0x00045dd2

000063cc <Chip_SYSCON_SetFLASHAccess>:
    63cc:	b480      	push	{r7}
    63ce:	b085      	sub	sp, #20
    63d0:	af00      	add	r7, sp, #0
    63d2:	4603      	mov	r3, r0
    63d4:	71fb      	strb	r3, [r7, #7]
    63d6:	f04f 4380 	mov.w	r3, #1073741824	; 0x40000000
    63da:	f8d3 3400 	ldr.w	r3, [r3, #1024]	; 0x400
    63de:	f423 4370 	bic.w	r3, r3, #61440	; 0xf000
    63e2:	60fb      	str	r3, [r7, #12]
    63e4:	f04f 4180 	mov.w	r1, #1073741824	; 0x40000000
    63e8:	79fb      	ldrb	r3, [r7, #7]
    63ea:	031a      	lsls	r2, r3, #12
    63ec:	68fb      	ldr	r3, [r7, #12]
    63ee:	4313      	orrs	r3, r2
    63f0:	f8c1 3400 	str.w	r3, [r1, #1024]	; 0x400
    63f4:	bf00      	nop
    63f6:	3714      	adds	r7, #20
    63f8:	46bd      	mov	sp, r7
    63fa:	f85d 7b04 	ldr.w	r7, [sp], #4
    63fe:	4770      	bx	lr

00006400 <Chip_Clock_SetMain_A_ClockSource>:
    6400:	b480      	push	{r7}
    6402:	b083      	sub	sp, #12
    6404:	af00      	add	r7, sp, #0
    6406:	4603      	mov	r3, r0
    6408:	71fb      	strb	r3, [r7, #7]
    640a:	f04f 4280 	mov.w	r2, #1073741824	; 0x40000000
    640e:	79fb      	ldrb	r3, [r7, #7]
    6410:	f8c2 3280 	str.w	r3, [r2, #640]	; 0x280
    6414:	bf00      	nop
    6416:	370c      	adds	r7, #12
    6418:	46bd      	mov	sp, r7
    641a:	f85d 7b04 	ldr.w	r7, [sp], #4
    641e:	4770      	bx	lr

00006420 <Chip_Clock_SetMain_B_ClockSource>:
    6420:	b480      	push	{r7}
    6422:	b083      	sub	sp, #12
    6424:	af00      	add	r7, sp, #0
    6426:	4603      	mov	r3, r0
    6428:	71fb      	strb	r3, [r7, #7]
    642a:	f04f 4280 	mov.w	r2, #1073741824	; 0x40000000
    642e:	79fb      	ldrb	r3, [r7, #7]
    6430:	f8c2 3284 	str.w	r3, [r2, #644]	; 0x284
    6434:	bf00      	nop
    6436:	370c      	adds	r7, #12
    6438:	46bd      	mov	sp, r7
    643a:	f85d 7b04 	ldr.w	r7, [sp], #4
    643e:	4770      	bx	lr

00006440 <Chip_Clock_SetAsyncSysconClockSource>:
    6440:	b480      	push	{r7}
    6442:	b083      	sub	sp, #12
    6444:	af00      	add	r7, sp, #0
    6446:	4603      	mov	r3, r0
    6448:	71fb      	strb	r3, [r7, #7]
    644a:	4a04      	ldr	r2, [pc, #16]	; (645c <Chip_Clock_SetAsyncSysconClockSource+0x1c>)
    644c:	79fb      	ldrb	r3, [r7, #7]
    644e:	6213      	str	r3, [r2, #32]
    6450:	bf00      	nop
    6452:	370c      	adds	r7, #12
    6454:	46bd      	mov	sp, r7
    6456:	f85d 7b04 	ldr.w	r7, [sp], #4
    645a:	4770      	bx	lr
    645c:	40040000 	.word	0x40040000

00006460 <Chip_Clock_SetMainClockSource>:
    6460:	b580      	push	{r7, lr}
    6462:	b084      	sub	sp, #16
    6464:	af00      	add	r7, sp, #0
    6466:	4603      	mov	r3, r0
    6468:	71fb      	strb	r3, [r7, #7]
    646a:	79fb      	ldrb	r3, [r7, #7]
    646c:	60fb      	str	r3, [r7, #12]
    646e:	68fb      	ldr	r3, [r7, #12]
    6470:	2b03      	cmp	r3, #3
    6472:	d907      	bls.n	6484 <Chip_Clock_SetMainClockSource+0x24>
    6474:	68fb      	ldr	r3, [r7, #12]
    6476:	b2db      	uxtb	r3, r3
    6478:	3b04      	subs	r3, #4
    647a:	b2db      	uxtb	r3, r3
    647c:	4618      	mov	r0, r3
    647e:	f7ff ffcf 	bl	6420 <Chip_Clock_SetMain_B_ClockSource>
    6482:	e007      	b.n	6494 <Chip_Clock_SetMainClockSource+0x34>
    6484:	68fb      	ldr	r3, [r7, #12]
    6486:	b2db      	uxtb	r3, r3
    6488:	4618      	mov	r0, r3
    648a:	f7ff ffb9 	bl	6400 <Chip_Clock_SetMain_A_ClockSource>
    648e:	2000      	movs	r0, #0
    6490:	f7ff ffc6 	bl	6420 <Chip_Clock_SetMain_B_ClockSource>
    6494:	bf00      	nop
    6496:	3710      	adds	r7, #16
    6498:	46bd      	mov	sp, r7
    649a:	bd80      	pop	{r7, pc}

0000649c <setupFlashClocks>:
    649c:	b580      	push	{r7, lr}
    649e:	b082      	sub	sp, #8
    64a0:	af00      	add	r7, sp, #0
    64a2:	6078      	str	r0, [r7, #4]
    64a4:	687b      	ldr	r3, [r7, #4]
    64a6:	4a13      	ldr	r2, [pc, #76]	; (64f4 <setupFlashClocks+0x58>)
    64a8:	4293      	cmp	r3, r2
    64aa:	d803      	bhi.n	64b4 <setupFlashClocks+0x18>
    64ac:	2000      	movs	r0, #0
    64ae:	f7ff ff8d 	bl	63cc <Chip_SYSCON_SetFLASHAccess>
    64b2:	e01a      	b.n	64ea <setupFlashClocks+0x4e>
    64b4:	687b      	ldr	r3, [r7, #4]
    64b6:	4a10      	ldr	r2, [pc, #64]	; (64f8 <setupFlashClocks+0x5c>)
    64b8:	4293      	cmp	r3, r2
    64ba:	d803      	bhi.n	64c4 <setupFlashClocks+0x28>
    64bc:	2001      	movs	r0, #1
    64be:	f7ff ff85 	bl	63cc <Chip_SYSCON_SetFLASHAccess>
    64c2:	e012      	b.n	64ea <setupFlashClocks+0x4e>
    64c4:	687b      	ldr	r3, [r7, #4]
    64c6:	4a0d      	ldr	r2, [pc, #52]	; (64fc <setupFlashClocks+0x60>)
    64c8:	4293      	cmp	r3, r2
    64ca:	d803      	bhi.n	64d4 <setupFlashClocks+0x38>
    64cc:	2002      	movs	r0, #2
    64ce:	f7ff ff7d 	bl	63cc <Chip_SYSCON_SetFLASHAccess>
    64d2:	e00a      	b.n	64ea <setupFlashClocks+0x4e>
    64d4:	687b      	ldr	r3, [r7, #4]
    64d6:	4a0a      	ldr	r2, [pc, #40]	; (6500 <setupFlashClocks+0x64>)
    64d8:	4293      	cmp	r3, r2
    64da:	d803      	bhi.n	64e4 <setupFlashClocks+0x48>
    64dc:	2003      	movs	r0, #3
    64de:	f7ff ff75 	bl	63cc <Chip_SYSCON_SetFLASHAccess>
    64e2:	e002      	b.n	64ea <setupFlashClocks+0x4e>
    64e4:	2004      	movs	r0, #4
    64e6:	f7ff ff71 	bl	63cc <Chip_SYSCON_SetFLASHAccess>
    64ea:	bf00      	nop
    64ec:	3708      	adds	r7, #8
    64ee:	46bd      	mov	sp, r7
    64f0:	bd80      	pop	{r7, pc}
    64f2:	bf00      	nop
    64f4:	00b71b00 	.word	0x00b71b00
    64f8:	01c9c380 	.word	0x01c9c380
    64fc:	03938700 	.word	0x03938700
    6500:	0510ff40 	.word	0x0510ff40

00006504 <Chip_SetupFROClocking>:
    6504:	b580      	push	{r7, lr}
    6506:	b082      	sub	sp, #8
    6508:	af00      	add	r7, sp, #0
    650a:	6078      	str	r0, [r7, #4]
    650c:	687b      	ldr	r3, [r7, #4]
    650e:	4a15      	ldr	r2, [pc, #84]	; (6564 <Chip_SetupFROClocking+0x60>)
    6510:	4293      	cmp	r3, r2
    6512:	d007      	beq.n	6524 <Chip_SetupFROClocking+0x20>
    6514:	687b      	ldr	r3, [r7, #4]
    6516:	4a14      	ldr	r2, [pc, #80]	; (6568 <Chip_SetupFROClocking+0x64>)
    6518:	4293      	cmp	r3, r2
    651a:	d003      	beq.n	6524 <Chip_SetupFROClocking+0x20>
    651c:	687b      	ldr	r3, [r7, #4]
    651e:	4a13      	ldr	r2, [pc, #76]	; (656c <Chip_SetupFROClocking+0x68>)
    6520:	4293      	cmp	r3, r2
    6522:	d119      	bne.n	6558 <Chip_SetupFROClocking+0x54>
    6524:	2010      	movs	r0, #16
    6526:	f7ff ff0b 	bl	6340 <Chip_SYSCON_PowerUp>
    652a:	2000      	movs	r0, #0
    652c:	f7ff ff98 	bl	6460 <Chip_Clock_SetMainClockSource>
    6530:	6878      	ldr	r0, [r7, #4]
    6532:	f7ff ffb3 	bl	649c <setupFlashClocks>
    6536:	2001      	movs	r0, #1
    6538:	f7ff feea 	bl	6310 <Chip_SYSCON_Enable_ASYNC_Syscon>
    653c:	2001      	movs	r0, #1
    653e:	f7ff ff7f 	bl	6440 <Chip_Clock_SetAsyncSysconClockSource>
    6542:	687b      	ldr	r3, [r7, #4]
    6544:	4a07      	ldr	r2, [pc, #28]	; (6564 <Chip_SetupFROClocking+0x60>)
    6546:	4293      	cmp	r3, r2
    6548:	d908      	bls.n	655c <Chip_SetupFROClocking+0x58>
    654a:	6878      	ldr	r0, [r7, #4]
    654c:	f7fb fdc4 	bl	20d8 <Chip_POWER_SetFROHFRate>
    6550:	2003      	movs	r0, #3
    6552:	f7ff ff85 	bl	6460 <Chip_Clock_SetMainClockSource>
    6556:	e002      	b.n	655e <Chip_SetupFROClocking+0x5a>
    6558:	bf00      	nop
    655a:	e000      	b.n	655e <Chip_SetupFROClocking+0x5a>
    655c:	bf00      	nop
    655e:	3708      	adds	r7, #8
    6560:	46bd      	mov	sp, r7
    6562:	bd80      	pop	{r7, pc}
    6564:	00b71b00 	.word	0x00b71b00
    6568:	02dc6c00 	.word	0x02dc6c00
    656c:	05b8d800 	.word	0x05b8d800

00006570 <Chip_TIMER_Reset>:
    6570:	b480      	push	{r7}
    6572:	b085      	sub	sp, #20
    6574:	af00      	add	r7, sp, #0
    6576:	6078      	str	r0, [r7, #4]
    6578:	687b      	ldr	r3, [r7, #4]
    657a:	685b      	ldr	r3, [r3, #4]
    657c:	60fb      	str	r3, [r7, #12]
    657e:	687b      	ldr	r3, [r7, #4]
    6580:	2200      	movs	r2, #0
    6582:	605a      	str	r2, [r3, #4]
    6584:	687b      	ldr	r3, [r7, #4]
    6586:	2201      	movs	r2, #1
    6588:	609a      	str	r2, [r3, #8]
    658a:	687b      	ldr	r3, [r7, #4]
    658c:	2202      	movs	r2, #2
    658e:	605a      	str	r2, [r3, #4]
    6590:	bf00      	nop
    6592:	687b      	ldr	r3, [r7, #4]
    6594:	689b      	ldr	r3, [r3, #8]
    6596:	2b00      	cmp	r3, #0
    6598:	d1fb      	bne.n	6592 <Chip_TIMER_Reset+0x22>
    659a:	687b      	ldr	r3, [r7, #4]
    659c:	68fa      	ldr	r2, [r7, #12]
    659e:	605a      	str	r2, [r3, #4]
    65a0:	bf00      	nop
    65a2:	3714      	adds	r7, #20
    65a4:	46bd      	mov	sp, r7
    65a6:	f85d 7b04 	ldr.w	r7, [sp], #4
    65aa:	4770      	bx	lr

000065ac <Chip_SYSCON_SetUSARTFRGCtrl>:
    65ac:	b480      	push	{r7}
    65ae:	b083      	sub	sp, #12
    65b0:	af00      	add	r7, sp, #0
    65b2:	4603      	mov	r3, r0
    65b4:	460a      	mov	r2, r1
    65b6:	71fb      	strb	r3, [r7, #7]
    65b8:	4613      	mov	r3, r2
    65ba:	71bb      	strb	r3, [r7, #6]
    65bc:	f04f 4180 	mov.w	r1, #1073741824	; 0x40000000
    65c0:	79fb      	ldrb	r3, [r7, #7]
    65c2:	021a      	lsls	r2, r3, #8
    65c4:	79bb      	ldrb	r3, [r7, #6]
    65c6:	4313      	orrs	r3, r2
    65c8:	f8c1 33a0 	str.w	r3, [r1, #928]	; 0x3a0
    65cc:	bf00      	nop
    65ce:	370c      	adds	r7, #12
    65d0:	46bd      	mov	sp, r7
    65d2:	f85d 7b04 	ldr.w	r7, [sp], #4
    65d6:	4770      	bx	lr

000065d8 <Chip_Clock_SetFLEXCOMMClockSource>:
    65d8:	b480      	push	{r7}
    65da:	b083      	sub	sp, #12
    65dc:	af00      	add	r7, sp, #0
    65de:	6078      	str	r0, [r7, #4]
    65e0:	460b      	mov	r3, r1
    65e2:	70fb      	strb	r3, [r7, #3]
    65e4:	f04f 4180 	mov.w	r1, #1073741824	; 0x40000000
    65e8:	78fa      	ldrb	r2, [r7, #3]
    65ea:	687b      	ldr	r3, [r7, #4]
    65ec:	33ac      	adds	r3, #172	; 0xac
    65ee:	f841 2023 	str.w	r2, [r1, r3, lsl #2]
    65f2:	bf00      	nop
    65f4:	370c      	adds	r7, #12
    65f6:	46bd      	mov	sp, r7
    65f8:	f85d 7b04 	ldr.w	r7, [sp], #4
    65fc:	4770      	bx	lr
    65fe:	bf00      	nop

00006600 <Chip_Clock_SetFRGClockSource>:
    6600:	b480      	push	{r7}
    6602:	b083      	sub	sp, #12
    6604:	af00      	add	r7, sp, #0
    6606:	4603      	mov	r3, r0
    6608:	71fb      	strb	r3, [r7, #7]
    660a:	f04f 4280 	mov.w	r2, #1073741824	; 0x40000000
    660e:	79fb      	ldrb	r3, [r7, #7]
    6610:	f8c2 32e8 	str.w	r3, [r2, #744]	; 0x2e8
    6614:	bf00      	nop
    6616:	370c      	adds	r7, #12
    6618:	46bd      	mov	sp, r7
    661a:	f85d 7b04 	ldr.w	r7, [sp], #4
    661e:	4770      	bx	lr

00006620 <Chip_Clock_GetFRGClockSource>:
    6620:	b480      	push	{r7}
    6622:	af00      	add	r7, sp, #0
    6624:	f04f 4380 	mov.w	r3, #1073741824	; 0x40000000
    6628:	f8d3 32e8 	ldr.w	r3, [r3, #744]	; 0x2e8
    662c:	b2db      	uxtb	r3, r3
    662e:	f003 0307 	and.w	r3, r3, #7
    6632:	b2db      	uxtb	r3, r3
    6634:	4618      	mov	r0, r3
    6636:	46bd      	mov	sp, r7
    6638:	f85d 7b04 	ldr.w	r7, [sp], #4
    663c:	4770      	bx	lr
    663e:	bf00      	nop

00006640 <Chip_UART_SendByte>:
    6640:	b480      	push	{r7}
    6642:	b083      	sub	sp, #12
    6644:	af00      	add	r7, sp, #0
    6646:	6078      	str	r0, [r7, #4]
    6648:	460b      	mov	r3, r1
    664a:	70fb      	strb	r3, [r7, #3]
    664c:	78fa      	ldrb	r2, [r7, #3]
    664e:	687b      	ldr	r3, [r7, #4]
    6650:	f8c3 2e20 	str.w	r2, [r3, #3616]	; 0xe20
    6654:	bf00      	nop
    6656:	370c      	adds	r7, #12
    6658:	46bd      	mov	sp, r7
    665a:	f85d 7b04 	ldr.w	r7, [sp], #4
    665e:	4770      	bx	lr

00006660 <Chip_UART_GetFIFOStatus>:
    6660:	b480      	push	{r7}
    6662:	b083      	sub	sp, #12
    6664:	af00      	add	r7, sp, #0
    6666:	6078      	str	r0, [r7, #4]
    6668:	687b      	ldr	r3, [r7, #4]
    666a:	f8d3 3e04 	ldr.w	r3, [r3, #3588]	; 0xe04
    666e:	4618      	mov	r0, r3
    6670:	370c      	adds	r7, #12
    6672:	46bd      	mov	sp, r7
    6674:	f85d 7b04 	ldr.w	r7, [sp], #4
    6678:	4770      	bx	lr
    667a:	bf00      	nop

0000667c <Chip_UART_SetFIFOCfg>:
    667c:	b480      	push	{r7}
    667e:	b083      	sub	sp, #12
    6680:	af00      	add	r7, sp, #0
    6682:	6078      	str	r0, [r7, #4]
    6684:	6039      	str	r1, [r7, #0]
    6686:	687b      	ldr	r3, [r7, #4]
    6688:	f8d3 2e00 	ldr.w	r2, [r3, #3584]	; 0xe00
    668c:	4b06      	ldr	r3, [pc, #24]	; (66a8 <Chip_UART_SetFIFOCfg+0x2c>)
    668e:	4013      	ands	r3, r2
    6690:	683a      	ldr	r2, [r7, #0]
    6692:	431a      	orrs	r2, r3
    6694:	687b      	ldr	r3, [r7, #4]
    6696:	f8c3 2e00 	str.w	r2, [r3, #3584]	; 0xe00
    669a:	bf00      	nop
    669c:	370c      	adds	r7, #12
    669e:	46bd      	mov	sp, r7
    66a0:	f85d 7b04 	ldr.w	r7, [sp], #4
    66a4:	4770      	bx	lr
    66a6:	bf00      	nop
    66a8:	0007f033 	.word	0x0007f033

000066ac <Chip_UART_FlushFIFOs>:
    66ac:	b580      	push	{r7, lr}
    66ae:	b082      	sub	sp, #8
    66b0:	af00      	add	r7, sp, #0
    66b2:	6078      	str	r0, [r7, #4]
    66b4:	f44f 3140 	mov.w	r1, #196608	; 0x30000
    66b8:	6878      	ldr	r0, [r7, #4]
    66ba:	f7ff ffdf 	bl	667c <Chip_UART_SetFIFOCfg>
    66be:	bf00      	nop
    66c0:	3708      	adds	r7, #8
    66c2:	46bd      	mov	sp, r7
    66c4:	bd80      	pop	{r7, pc}
    66c6:	bf00      	nop

000066c8 <_UART_DivClk>:
    66c8:	b480      	push	{r7}
    66ca:	b087      	sub	sp, #28
    66cc:	af00      	add	r7, sp, #0
    66ce:	6078      	str	r0, [r7, #4]
    66d0:	6039      	str	r1, [r7, #0]
    66d2:	687b      	ldr	r3, [r7, #4]
    66d4:	0e1b      	lsrs	r3, r3, #24
    66d6:	617b      	str	r3, [r7, #20]
    66d8:	687b      	ldr	r3, [r7, #4]
    66da:	021b      	lsls	r3, r3, #8
    66dc:	613b      	str	r3, [r7, #16]
    66de:	683b      	ldr	r3, [r7, #0]
    66e0:	f503 7380 	add.w	r3, r3, #256	; 0x100
    66e4:	603b      	str	r3, [r7, #0]
    66e6:	f04f 7280 	mov.w	r2, #16777216	; 0x1000000
    66ea:	683b      	ldr	r3, [r7, #0]
    66ec:	fbb2 f3f3 	udiv	r3, r2, r3
    66f0:	60fb      	str	r3, [r7, #12]
    66f2:	68fb      	ldr	r3, [r7, #12]
    66f4:	683a      	ldr	r2, [r7, #0]
    66f6:	fb02 f303 	mul.w	r3, r2, r3
    66fa:	f1c3 7380 	rsb	r3, r3, #16777216	; 0x1000000
    66fe:	60bb      	str	r3, [r7, #8]
    6700:	68fb      	ldr	r3, [r7, #12]
    6702:	697a      	ldr	r2, [r7, #20]
    6704:	fb02 f303 	mul.w	r3, r2, r3
    6708:	021a      	lsls	r2, r3, #8
    670a:	68bb      	ldr	r3, [r7, #8]
    670c:	6979      	ldr	r1, [r7, #20]
    670e:	fb01 f303 	mul.w	r3, r1, r3
    6712:	0219      	lsls	r1, r3, #8
    6714:	693b      	ldr	r3, [r7, #16]
    6716:	4419      	add	r1, r3
    6718:	683b      	ldr	r3, [r7, #0]
    671a:	fbb1 f3f3 	udiv	r3, r1, r3
    671e:	4413      	add	r3, r2
    6720:	4618      	mov	r0, r3
    6722:	371c      	adds	r7, #28
    6724:	46bd      	mov	sp, r7
    6726:	f85d 7b04 	ldr.w	r7, [sp], #4
    672a:	4770      	bx	lr

0000672c <_UART_GetHighDiv>:
    672c:	b480      	push	{r7}
    672e:	b085      	sub	sp, #20
    6730:	af00      	add	r7, sp, #0
    6732:	6078      	str	r0, [r7, #4]
    6734:	460b      	mov	r3, r1
    6736:	70fb      	strb	r3, [r7, #3]
    6738:	78fb      	ldrb	r3, [r7, #3]
    673a:	2b00      	cmp	r3, #0
    673c:	d001      	beq.n	6742 <_UART_GetHighDiv+0x16>
    673e:	2310      	movs	r3, #16
    6740:	e000      	b.n	6744 <_UART_GetHighDiv+0x18>
    6742:	2305      	movs	r3, #5
    6744:	60bb      	str	r3, [r7, #8]
    6746:	2310      	movs	r3, #16
    6748:	60fb      	str	r3, [r7, #12]
    674a:	e00d      	b.n	6768 <_UART_GetHighDiv+0x3c>
    674c:	68fa      	ldr	r2, [r7, #12]
    674e:	687b      	ldr	r3, [r7, #4]
    6750:	fbb3 f1f2 	udiv	r1, r3, r2
    6754:	fb02 f201 	mul.w	r2, r2, r1
    6758:	1a9b      	subs	r3, r3, r2
    675a:	2b00      	cmp	r3, #0
    675c:	d101      	bne.n	6762 <_UART_GetHighDiv+0x36>
    675e:	68fb      	ldr	r3, [r7, #12]
    6760:	e007      	b.n	6772 <_UART_GetHighDiv+0x46>
    6762:	68fb      	ldr	r3, [r7, #12]
    6764:	3b01      	subs	r3, #1
    6766:	60fb      	str	r3, [r7, #12]
    6768:	68fa      	ldr	r2, [r7, #12]
    676a:	68bb      	ldr	r3, [r7, #8]
    676c:	429a      	cmp	r2, r3
    676e:	daed      	bge.n	674c <_UART_GetHighDiv+0x20>
    6770:	2300      	movs	r3, #0
    6772:	4618      	mov	r0, r3
    6774:	3714      	adds	r7, #20
    6776:	46bd      	mov	sp, r7
    6778:	f85d 7b04 	ldr.w	r7, [sp], #4
    677c:	4770      	bx	lr
    677e:	bf00      	nop

00006780 <_CalcErr>:
    6780:	b480      	push	{r7}
    6782:	b087      	sub	sp, #28
    6784:	af00      	add	r7, sp, #0
    6786:	60f8      	str	r0, [r7, #12]
    6788:	60b9      	str	r1, [r7, #8]
    678a:	607a      	str	r2, [r7, #4]
    678c:	68fb      	ldr	r3, [r7, #12]
    678e:	68ba      	ldr	r2, [r7, #8]
    6790:	fbb3 f2f2 	udiv	r2, r3, r2
    6794:	68b9      	ldr	r1, [r7, #8]
    6796:	fb01 f202 	mul.w	r2, r1, r2
    679a:	1a9b      	subs	r3, r3, r2
    679c:	617b      	str	r3, [r7, #20]
    679e:	68fa      	ldr	r2, [r7, #12]
    67a0:	68bb      	ldr	r3, [r7, #8]
    67a2:	fbb2 f3f3 	udiv	r3, r2, r3
    67a6:	3301      	adds	r3, #1
    67a8:	68ba      	ldr	r2, [r7, #8]
    67aa:	fb02 f203 	mul.w	r2, r2, r3
    67ae:	68fb      	ldr	r3, [r7, #12]
    67b0:	1ad3      	subs	r3, r2, r3
    67b2:	613b      	str	r3, [r7, #16]
    67b4:	693a      	ldr	r2, [r7, #16]
    67b6:	697b      	ldr	r3, [r7, #20]
    67b8:	429a      	cmp	r2, r3
    67ba:	d201      	bcs.n	67c0 <_CalcErr+0x40>
    67bc:	693b      	ldr	r3, [r7, #16]
    67be:	617b      	str	r3, [r7, #20]
    67c0:	687b      	ldr	r3, [r7, #4]
    67c2:	681a      	ldr	r2, [r3, #0]
    67c4:	697b      	ldr	r3, [r7, #20]
    67c6:	429a      	cmp	r2, r3
    67c8:	d801      	bhi.n	67ce <_CalcErr+0x4e>
    67ca:	2300      	movs	r3, #0
    67cc:	e00a      	b.n	67e4 <_CalcErr+0x64>
    67ce:	687b      	ldr	r3, [r7, #4]
    67d0:	697a      	ldr	r2, [r7, #20]
    67d2:	601a      	str	r2, [r3, #0]
    67d4:	693a      	ldr	r2, [r7, #16]
    67d6:	697b      	ldr	r3, [r7, #20]
    67d8:	429a      	cmp	r2, r3
    67da:	d101      	bne.n	67e0 <_CalcErr+0x60>
    67dc:	2302      	movs	r3, #2
    67de:	e000      	b.n	67e2 <_CalcErr+0x62>
    67e0:	2301      	movs	r3, #1
    67e2:	bf00      	nop
    67e4:	4618      	mov	r0, r3
    67e6:	371c      	adds	r7, #28
    67e8:	46bd      	mov	sp, r7
    67ea:	f85d 7b04 	ldr.w	r7, [sp], #4
    67ee:	4770      	bx	lr

000067f0 <_UART_CalcDiv>:
    67f0:	b580      	push	{r7, lr}
    67f2:	b086      	sub	sp, #24
    67f4:	af00      	add	r7, sp, #0
    67f6:	6078      	str	r0, [r7, #4]
    67f8:	2300      	movs	r3, #0
    67fa:	617b      	str	r3, [r7, #20]
    67fc:	f04f 33ff 	mov.w	r3, #4294967295
    6800:	60fb      	str	r3, [r7, #12]
    6802:	687b      	ldr	r3, [r7, #4]
    6804:	895b      	ldrh	r3, [r3, #10]
    6806:	2b00      	cmp	r3, #0
    6808:	d12e      	bne.n	6868 <_UART_CalcDiv+0x78>
    680a:	687b      	ldr	r3, [r7, #4]
    680c:	7a1b      	ldrb	r3, [r3, #8]
    680e:	2b00      	cmp	r3, #0
    6810:	d002      	beq.n	6818 <_UART_CalcDiv+0x28>
    6812:	687b      	ldr	r3, [r7, #4]
    6814:	7a1b      	ldrb	r3, [r3, #8]
    6816:	e000      	b.n	681a <_UART_CalcDiv+0x2a>
    6818:	2310      	movs	r3, #16
    681a:	617b      	str	r3, [r7, #20]
    681c:	e024      	b.n	6868 <_UART_CalcDiv+0x78>
    681e:	687b      	ldr	r3, [r7, #4]
    6820:	6818      	ldr	r0, [r3, #0]
    6822:	687b      	ldr	r3, [r7, #4]
    6824:	685b      	ldr	r3, [r3, #4]
    6826:	697a      	ldr	r2, [r7, #20]
    6828:	fb02 f303 	mul.w	r3, r2, r3
    682c:	f107 020c 	add.w	r2, r7, #12
    6830:	4619      	mov	r1, r3
    6832:	f7ff ffa5 	bl	6780 <_CalcErr>
    6836:	6138      	str	r0, [r7, #16]
    6838:	693b      	ldr	r3, [r7, #16]
    683a:	2b00      	cmp	r3, #0
    683c:	d010      	beq.n	6860 <_UART_CalcDiv+0x70>
    683e:	693b      	ldr	r3, [r7, #16]
    6840:	b29b      	uxth	r3, r3
    6842:	3b01      	subs	r3, #1
    6844:	b29a      	uxth	r2, r3
    6846:	687b      	ldr	r3, [r7, #4]
    6848:	815a      	strh	r2, [r3, #10]
    684a:	687b      	ldr	r3, [r7, #4]
    684c:	7a1b      	ldrb	r3, [r3, #8]
    684e:	461a      	mov	r2, r3
    6850:	697b      	ldr	r3, [r7, #20]
    6852:	429a      	cmp	r2, r3
    6854:	d00c      	beq.n	6870 <_UART_CalcDiv+0x80>
    6856:	697b      	ldr	r3, [r7, #20]
    6858:	b2da      	uxtb	r2, r3
    685a:	687b      	ldr	r3, [r7, #4]
    685c:	721a      	strb	r2, [r3, #8]
    685e:	e000      	b.n	6862 <_UART_CalcDiv+0x72>
    6860:	bf00      	nop
    6862:	697b      	ldr	r3, [r7, #20]
    6864:	3b01      	subs	r3, #1
    6866:	617b      	str	r3, [r7, #20]
    6868:	697b      	ldr	r3, [r7, #20]
    686a:	2b04      	cmp	r3, #4
    686c:	dcd7      	bgt.n	681e <_UART_CalcDiv+0x2e>
    686e:	e000      	b.n	6872 <_UART_CalcDiv+0x82>
    6870:	bf00      	nop
    6872:	687b      	ldr	r3, [r7, #4]
    6874:	7a1b      	ldrb	r3, [r3, #8]
    6876:	2b00      	cmp	r3, #0
    6878:	d101      	bne.n	687e <_UART_CalcDiv+0x8e>
    687a:	4b15      	ldr	r3, [pc, #84]	; (68d0 <_UART_CalcDiv+0xe0>)
    687c:	e024      	b.n	68c8 <_UART_CalcDiv+0xd8>
    687e:	687b      	ldr	r3, [r7, #4]
    6880:	895a      	ldrh	r2, [r3, #10]
    6882:	687b      	ldr	r3, [r7, #4]
    6884:	6819      	ldr	r1, [r3, #0]
    6886:	687b      	ldr	r3, [r7, #4]
    6888:	685b      	ldr	r3, [r3, #4]
    688a:	6878      	ldr	r0, [r7, #4]
    688c:	7a00      	ldrb	r0, [r0, #8]
    688e:	fb00 f303 	mul.w	r3, r0, r3
    6892:	fbb1 f3f3 	udiv	r3, r1, r3
    6896:	b29b      	uxth	r3, r3
    6898:	4413      	add	r3, r2
    689a:	b29a      	uxth	r2, r3
    689c:	687b      	ldr	r3, [r7, #4]
    689e:	815a      	strh	r2, [r3, #10]
    68a0:	687b      	ldr	r3, [r7, #4]
    68a2:	895b      	ldrh	r3, [r3, #10]
    68a4:	2b00      	cmp	r3, #0
    68a6:	d101      	bne.n	68ac <_UART_CalcDiv+0xbc>
    68a8:	4b09      	ldr	r3, [pc, #36]	; (68d0 <_UART_CalcDiv+0xe0>)
    68aa:	e00d      	b.n	68c8 <_UART_CalcDiv+0xd8>
    68ac:	687b      	ldr	r3, [r7, #4]
    68ae:	681b      	ldr	r3, [r3, #0]
    68b0:	687a      	ldr	r2, [r7, #4]
    68b2:	8952      	ldrh	r2, [r2, #10]
    68b4:	4611      	mov	r1, r2
    68b6:	687a      	ldr	r2, [r7, #4]
    68b8:	7a12      	ldrb	r2, [r2, #8]
    68ba:	fb02 f201 	mul.w	r2, r2, r1
    68be:	fbb3 f2f2 	udiv	r2, r3, r2
    68c2:	687b      	ldr	r3, [r7, #4]
    68c4:	605a      	str	r2, [r3, #4]
    68c6:	2300      	movs	r3, #0
    68c8:	4618      	mov	r0, r3
    68ca:	3718      	adds	r7, #24
    68cc:	46bd      	mov	sp, r7
    68ce:	bd80      	pop	{r7, pc}
    68d0:	00080006 	.word	0x00080006

000068d4 <_UART_CalcMul>:
    68d4:	b580      	push	{r7, lr}
    68d6:	b08a      	sub	sp, #40	; 0x28
    68d8:	af00      	add	r7, sp, #0
    68da:	6078      	str	r0, [r7, #4]
    68dc:	f04f 33ff 	mov.w	r3, #4294967295
    68e0:	60bb      	str	r3, [r7, #8]
    68e2:	687b      	ldr	r3, [r7, #4]
    68e4:	681b      	ldr	r3, [r3, #0]
    68e6:	61fb      	str	r3, [r7, #28]
    68e8:	687b      	ldr	r3, [r7, #4]
    68ea:	7a1b      	ldrb	r3, [r3, #8]
    68ec:	61bb      	str	r3, [r7, #24]
    68ee:	2300      	movs	r3, #0
    68f0:	627b      	str	r3, [r7, #36]	; 0x24
    68f2:	e04c      	b.n	698e <_UART_CalcMul+0xba>
    68f4:	69bb      	ldr	r3, [r7, #24]
    68f6:	623b      	str	r3, [r7, #32]
    68f8:	6a79      	ldr	r1, [r7, #36]	; 0x24
    68fa:	69f8      	ldr	r0, [r7, #28]
    68fc:	f7ff fee4 	bl	66c8 <_UART_DivClk>
    6900:	6178      	str	r0, [r7, #20]
    6902:	687b      	ldr	r3, [r7, #4]
    6904:	685b      	ldr	r3, [r3, #4]
    6906:	f107 0208 	add.w	r2, r7, #8
    690a:	4619      	mov	r1, r3
    690c:	6978      	ldr	r0, [r7, #20]
    690e:	f7ff ff37 	bl	6780 <_CalcErr>
    6912:	4603      	mov	r3, r0
    6914:	613b      	str	r3, [r7, #16]
    6916:	687b      	ldr	r3, [r7, #4]
    6918:	685b      	ldr	r3, [r3, #4]
    691a:	697a      	ldr	r2, [r7, #20]
    691c:	fbb2 f2f3 	udiv	r2, r2, r3
    6920:	693b      	ldr	r3, [r7, #16]
    6922:	4413      	add	r3, r2
    6924:	3b01      	subs	r3, #1
    6926:	60fb      	str	r3, [r7, #12]
    6928:	693b      	ldr	r3, [r7, #16]
    692a:	2b00      	cmp	r3, #0
    692c:	d02b      	beq.n	6986 <_UART_CalcMul+0xb2>
    692e:	69bb      	ldr	r3, [r7, #24]
    6930:	2b00      	cmp	r3, #0
    6932:	d009      	beq.n	6948 <_UART_CalcMul+0x74>
    6934:	68fb      	ldr	r3, [r7, #12]
    6936:	69ba      	ldr	r2, [r7, #24]
    6938:	fbb3 f2f2 	udiv	r2, r3, r2
    693c:	69b9      	ldr	r1, [r7, #24]
    693e:	fb01 f202 	mul.w	r2, r1, r2
    6942:	1a9b      	subs	r3, r3, r2
    6944:	2b00      	cmp	r3, #0
    6946:	d11e      	bne.n	6986 <_UART_CalcMul+0xb2>
    6948:	69bb      	ldr	r3, [r7, #24]
    694a:	2b00      	cmp	r3, #0
    694c:	d109      	bne.n	6962 <_UART_CalcMul+0x8e>
    694e:	69bb      	ldr	r3, [r7, #24]
    6950:	b2db      	uxtb	r3, r3
    6952:	4619      	mov	r1, r3
    6954:	68f8      	ldr	r0, [r7, #12]
    6956:	f7ff fee9 	bl	672c <_UART_GetHighDiv>
    695a:	6238      	str	r0, [r7, #32]
    695c:	6a3b      	ldr	r3, [r7, #32]
    695e:	2b00      	cmp	r3, #0
    6960:	d011      	beq.n	6986 <_UART_CalcMul+0xb2>
    6962:	6a3b      	ldr	r3, [r7, #32]
    6964:	b2da      	uxtb	r2, r3
    6966:	687b      	ldr	r3, [r7, #4]
    6968:	721a      	strb	r2, [r3, #8]
    696a:	6a7b      	ldr	r3, [r7, #36]	; 0x24
    696c:	b2da      	uxtb	r2, r3
    696e:	687b      	ldr	r3, [r7, #4]
    6970:	725a      	strb	r2, [r3, #9]
    6972:	687b      	ldr	r3, [r7, #4]
    6974:	697a      	ldr	r2, [r7, #20]
    6976:	601a      	str	r2, [r3, #0]
    6978:	693b      	ldr	r3, [r7, #16]
    697a:	b29b      	uxth	r3, r3
    697c:	3b01      	subs	r3, #1
    697e:	b29a      	uxth	r2, r3
    6980:	687b      	ldr	r3, [r7, #4]
    6982:	815a      	strh	r2, [r3, #10]
    6984:	e000      	b.n	6988 <_UART_CalcMul+0xb4>
    6986:	bf00      	nop
    6988:	6a7b      	ldr	r3, [r7, #36]	; 0x24
    698a:	3301      	adds	r3, #1
    698c:	627b      	str	r3, [r7, #36]	; 0x24
    698e:	6a7b      	ldr	r3, [r7, #36]	; 0x24
    6990:	2bff      	cmp	r3, #255	; 0xff
    6992:	d9af      	bls.n	68f4 <_UART_CalcMul+0x20>
    6994:	bf00      	nop
    6996:	3728      	adds	r7, #40	; 0x28
    6998:	46bd      	mov	sp, r7
    699a:	bd80      	pop	{r7, pc}

0000699c <Chip_UART_Init>:
    699c:	b580      	push	{r7, lr}
    699e:	b084      	sub	sp, #16
    69a0:	af00      	add	r7, sp, #0
    69a2:	6078      	str	r0, [r7, #4]
    69a4:	2101      	movs	r1, #1
    69a6:	6878      	ldr	r0, [r7, #4]
    69a8:	f000 f97e 	bl	6ca8 <Chip_FLEXCOMM_Init>
    69ac:	60f8      	str	r0, [r7, #12]
    69ae:	68fb      	ldr	r3, [r7, #12]
    69b0:	2b00      	cmp	r3, #0
    69b2:	d107      	bne.n	69c4 <Chip_UART_Init+0x28>
    69b4:	2303      	movs	r3, #3
    69b6:	4619      	mov	r1, r3
    69b8:	6878      	ldr	r0, [r7, #4]
    69ba:	f7ff fe5f 	bl	667c <Chip_UART_SetFIFOCfg>
    69be:	6878      	ldr	r0, [r7, #4]
    69c0:	f7ff fe74 	bl	66ac <Chip_UART_FlushFIFOs>
    69c4:	68fb      	ldr	r3, [r7, #12]
    69c6:	4618      	mov	r0, r3
    69c8:	3710      	adds	r7, #16
    69ca:	46bd      	mov	sp, r7
    69cc:	bd80      	pop	{r7, pc}
    69ce:	bf00      	nop

000069d0 <Chip_UART_Send>:
    69d0:	b580      	push	{r7, lr}
    69d2:	b086      	sub	sp, #24
    69d4:	af00      	add	r7, sp, #0
    69d6:	60f8      	str	r0, [r7, #12]
    69d8:	60b9      	str	r1, [r7, #8]
    69da:	607a      	str	r2, [r7, #4]
    69dc:	2300      	movs	r3, #0
    69de:	617b      	str	r3, [r7, #20]
    69e0:	68bb      	ldr	r3, [r7, #8]
    69e2:	613b      	str	r3, [r7, #16]
    69e4:	e00b      	b.n	69fe <Chip_UART_Send+0x2e>
    69e6:	693b      	ldr	r3, [r7, #16]
    69e8:	781b      	ldrb	r3, [r3, #0]
    69ea:	4619      	mov	r1, r3
    69ec:	68f8      	ldr	r0, [r7, #12]
    69ee:	f7ff fe27 	bl	6640 <Chip_UART_SendByte>
    69f2:	693b      	ldr	r3, [r7, #16]
    69f4:	3301      	adds	r3, #1
    69f6:	613b      	str	r3, [r7, #16]
    69f8:	697b      	ldr	r3, [r7, #20]
    69fa:	3301      	adds	r3, #1
    69fc:	617b      	str	r3, [r7, #20]
    69fe:	697a      	ldr	r2, [r7, #20]
    6a00:	687b      	ldr	r3, [r7, #4]
    6a02:	429a      	cmp	r2, r3
    6a04:	da07      	bge.n	6a16 <Chip_UART_Send+0x46>
    6a06:	68f8      	ldr	r0, [r7, #12]
    6a08:	f7ff fe2a 	bl	6660 <Chip_UART_GetFIFOStatus>
    6a0c:	4603      	mov	r3, r0
    6a0e:	f003 0320 	and.w	r3, r3, #32
    6a12:	2b00      	cmp	r3, #0
    6a14:	d1e7      	bne.n	69e6 <Chip_UART_Send+0x16>
    6a16:	697b      	ldr	r3, [r7, #20]
    6a18:	4618      	mov	r0, r3
    6a1a:	3718      	adds	r7, #24
    6a1c:	46bd      	mov	sp, r7
    6a1e:	bd80      	pop	{r7, pc}

00006a20 <Chip_UART_SendBlocking>:
    6a20:	b580      	push	{r7, lr}
    6a22:	b088      	sub	sp, #32
    6a24:	af00      	add	r7, sp, #0
    6a26:	60f8      	str	r0, [r7, #12]
    6a28:	60b9      	str	r1, [r7, #8]
    6a2a:	607a      	str	r2, [r7, #4]
    6a2c:	2300      	movs	r3, #0
    6a2e:	61fb      	str	r3, [r7, #28]
    6a30:	68bb      	ldr	r3, [r7, #8]
    6a32:	61bb      	str	r3, [r7, #24]
    6a34:	e011      	b.n	6a5a <Chip_UART_SendBlocking+0x3a>
    6a36:	687a      	ldr	r2, [r7, #4]
    6a38:	69b9      	ldr	r1, [r7, #24]
    6a3a:	68f8      	ldr	r0, [r7, #12]
    6a3c:	f7ff ffc8 	bl	69d0 <Chip_UART_Send>
    6a40:	6178      	str	r0, [r7, #20]
    6a42:	687a      	ldr	r2, [r7, #4]
    6a44:	697b      	ldr	r3, [r7, #20]
    6a46:	1ad3      	subs	r3, r2, r3
    6a48:	607b      	str	r3, [r7, #4]
    6a4a:	69fa      	ldr	r2, [r7, #28]
    6a4c:	697b      	ldr	r3, [r7, #20]
    6a4e:	4413      	add	r3, r2
    6a50:	61fb      	str	r3, [r7, #28]
    6a52:	697b      	ldr	r3, [r7, #20]
    6a54:	69ba      	ldr	r2, [r7, #24]
    6a56:	4413      	add	r3, r2
    6a58:	61bb      	str	r3, [r7, #24]
    6a5a:	687b      	ldr	r3, [r7, #4]
    6a5c:	2b00      	cmp	r3, #0
    6a5e:	dcea      	bgt.n	6a36 <Chip_UART_SendBlocking+0x16>
    6a60:	69fb      	ldr	r3, [r7, #28]
    6a62:	4618      	mov	r0, r3
    6a64:	3720      	adds	r7, #32
    6a66:	46bd      	mov	sp, r7
    6a68:	bd80      	pop	{r7, pc}
    6a6a:	bf00      	nop

00006a6c <Chip_UART_CalculateBaud>:
    6a6c:	b580      	push	{r7, lr}
    6a6e:	b082      	sub	sp, #8
    6a70:	af00      	add	r7, sp, #0
    6a72:	6078      	str	r0, [r7, #4]
    6a74:	687b      	ldr	r3, [r7, #4]
    6a76:	7a5b      	ldrb	r3, [r3, #9]
    6a78:	2b00      	cmp	r3, #0
    6a7a:	d102      	bne.n	6a82 <Chip_UART_CalculateBaud+0x16>
    6a7c:	6878      	ldr	r0, [r7, #4]
    6a7e:	f7ff ff29 	bl	68d4 <_UART_CalcMul>
    6a82:	6878      	ldr	r0, [r7, #4]
    6a84:	f7ff feb4 	bl	67f0 <_UART_CalcDiv>
    6a88:	4603      	mov	r3, r0
    6a8a:	4618      	mov	r0, r3
    6a8c:	3708      	adds	r7, #8
    6a8e:	46bd      	mov	sp, r7
    6a90:	bd80      	pop	{r7, pc}
    6a92:	bf00      	nop

00006a94 <Chip_UART_SetBaud>:
    6a94:	b580      	push	{r7, lr}
    6a96:	b086      	sub	sp, #24
    6a98:	af00      	add	r7, sp, #0
    6a9a:	6078      	str	r0, [r7, #4]
    6a9c:	6039      	str	r1, [r7, #0]
    6a9e:	6878      	ldr	r0, [r7, #4]
    6aa0:	f000 f8b4 	bl	6c0c <Chip_FLEXCOMM_GetIndex>
    6aa4:	6178      	str	r0, [r7, #20]
    6aa6:	697b      	ldr	r3, [r7, #20]
    6aa8:	2b00      	cmp	r3, #0
    6aaa:	da01      	bge.n	6ab0 <Chip_UART_SetBaud+0x1c>
    6aac:	697b      	ldr	r3, [r7, #20]
    6aae:	e034      	b.n	6b1a <Chip_UART_SetBaud+0x86>
    6ab0:	f7ff fdb6 	bl	6620 <Chip_Clock_GetFRGClockSource>
    6ab4:	4603      	mov	r3, r0
    6ab6:	2b07      	cmp	r3, #7
    6ab8:	d102      	bne.n	6ac0 <Chip_UART_SetBaud+0x2c>
    6aba:	2002      	movs	r0, #2
    6abc:	f7ff fda0 	bl	6600 <Chip_Clock_SetFRGClockSource>
    6ac0:	683b      	ldr	r3, [r7, #0]
    6ac2:	60fb      	str	r3, [r7, #12]
    6ac4:	f7ff f912 	bl	5cec <Chip_Clock_GetFRGInClockRate>
    6ac8:	4603      	mov	r3, r0
    6aca:	60bb      	str	r3, [r7, #8]
    6acc:	2300      	movs	r3, #0
    6ace:	743b      	strb	r3, [r7, #16]
    6ad0:	7c3b      	ldrb	r3, [r7, #16]
    6ad2:	747b      	strb	r3, [r7, #17]
    6ad4:	7c7b      	ldrb	r3, [r7, #17]
    6ad6:	b29b      	uxth	r3, r3
    6ad8:	827b      	strh	r3, [r7, #18]
    6ada:	f107 0308 	add.w	r3, r7, #8
    6ade:	4618      	mov	r0, r3
    6ae0:	f7ff ffc4 	bl	6a6c <Chip_UART_CalculateBaud>
    6ae4:	4603      	mov	r3, r0
    6ae6:	2b00      	cmp	r3, #0
    6ae8:	d001      	beq.n	6aee <Chip_UART_SetBaud+0x5a>
    6aea:	2300      	movs	r3, #0
    6aec:	e015      	b.n	6b1a <Chip_UART_SetBaud+0x86>
    6aee:	7c3b      	ldrb	r3, [r7, #16]
    6af0:	3b01      	subs	r3, #1
    6af2:	f003 020f 	and.w	r2, r3, #15
    6af6:	687b      	ldr	r3, [r7, #4]
    6af8:	629a      	str	r2, [r3, #40]	; 0x28
    6afa:	8a7b      	ldrh	r3, [r7, #18]
    6afc:	3b01      	subs	r3, #1
    6afe:	b29a      	uxth	r2, r3
    6b00:	687b      	ldr	r3, [r7, #4]
    6b02:	621a      	str	r2, [r3, #32]
    6b04:	7c7b      	ldrb	r3, [r7, #17]
    6b06:	21ff      	movs	r1, #255	; 0xff
    6b08:	4618      	mov	r0, r3
    6b0a:	f7ff fd4f 	bl	65ac <Chip_SYSCON_SetUSARTFRGCtrl>
    6b0e:	697b      	ldr	r3, [r7, #20]
    6b10:	2104      	movs	r1, #4
    6b12:	4618      	mov	r0, r3
    6b14:	f7ff fd60 	bl	65d8 <Chip_Clock_SetFLEXCOMMClockSource>
    6b18:	68fb      	ldr	r3, [r7, #12]
    6b1a:	4618      	mov	r0, r3
    6b1c:	3718      	adds	r7, #24
    6b1e:	46bd      	mov	sp, r7
    6b20:	bd80      	pop	{r7, pc}
    6b22:	bf00      	nop

00006b24 <Chip_SYSCON_PeriphReset>:
    6b24:	b480      	push	{r7}
    6b26:	b085      	sub	sp, #20
    6b28:	af00      	add	r7, sp, #0
    6b2a:	4603      	mov	r3, r0
    6b2c:	71fb      	strb	r3, [r7, #7]
    6b2e:	79fb      	ldrb	r3, [r7, #7]
    6b30:	60fb      	str	r3, [r7, #12]
    6b32:	68fb      	ldr	r3, [r7, #12]
    6b34:	2b7f      	cmp	r3, #127	; 0x7f
    6b36:	d80d      	bhi.n	6b54 <Chip_SYSCON_PeriphReset+0x30>
    6b38:	f04f 4180 	mov.w	r1, #1073741824	; 0x40000000
    6b3c:	68fb      	ldr	r3, [r7, #12]
    6b3e:	095b      	lsrs	r3, r3, #5
    6b40:	68fa      	ldr	r2, [r7, #12]
    6b42:	f002 021f 	and.w	r2, r2, #31
    6b46:	2001      	movs	r0, #1
    6b48:	fa00 f202 	lsl.w	r2, r0, r2
    6b4c:	3348      	adds	r3, #72	; 0x48
    6b4e:	f841 2023 	str.w	r2, [r1, r3, lsl #2]
    6b52:	e006      	b.n	6b62 <Chip_SYSCON_PeriphReset+0x3e>
    6b54:	4a14      	ldr	r2, [pc, #80]	; (6ba8 <Chip_SYSCON_PeriphReset+0x84>)
    6b56:	68fb      	ldr	r3, [r7, #12]
    6b58:	3b80      	subs	r3, #128	; 0x80
    6b5a:	2101      	movs	r1, #1
    6b5c:	fa01 f303 	lsl.w	r3, r1, r3
    6b60:	6053      	str	r3, [r2, #4]
    6b62:	bf00      	nop
    6b64:	bf00      	nop
    6b66:	bf00      	nop
    6b68:	bf00      	nop
    6b6a:	68fb      	ldr	r3, [r7, #12]
    6b6c:	2b7f      	cmp	r3, #127	; 0x7f
    6b6e:	d80d      	bhi.n	6b8c <Chip_SYSCON_PeriphReset+0x68>
    6b70:	f04f 4180 	mov.w	r1, #1073741824	; 0x40000000
    6b74:	68fb      	ldr	r3, [r7, #12]
    6b76:	095b      	lsrs	r3, r3, #5
    6b78:	68fa      	ldr	r2, [r7, #12]
    6b7a:	f002 021f 	and.w	r2, r2, #31
    6b7e:	2001      	movs	r0, #1
    6b80:	fa00 f202 	lsl.w	r2, r0, r2
    6b84:	3350      	adds	r3, #80	; 0x50
    6b86:	f841 2023 	str.w	r2, [r1, r3, lsl #2]
    6b8a:	e006      	b.n	6b9a <Chip_SYSCON_PeriphReset+0x76>
    6b8c:	4a06      	ldr	r2, [pc, #24]	; (6ba8 <Chip_SYSCON_PeriphReset+0x84>)
    6b8e:	68fb      	ldr	r3, [r7, #12]
    6b90:	3b80      	subs	r3, #128	; 0x80
    6b92:	2101      	movs	r1, #1
    6b94:	fa01 f303 	lsl.w	r3, r1, r3
    6b98:	6093      	str	r3, [r2, #8]
    6b9a:	bf00      	nop
    6b9c:	3714      	adds	r7, #20
    6b9e:	46bd      	mov	sp, r7
    6ba0:	f85d 7b04 	ldr.w	r7, [sp], #4
    6ba4:	4770      	bx	lr
    6ba6:	bf00      	nop
    6ba8:	40040000 	.word	0x40040000

00006bac <Chip_SYSCON_EnableWakeup>:
    6bac:	b480      	push	{r7}
    6bae:	b083      	sub	sp, #12
    6bb0:	af00      	add	r7, sp, #0
    6bb2:	4603      	mov	r3, r0
    6bb4:	71fb      	strb	r3, [r7, #7]
    6bb6:	f04f 4280 	mov.w	r2, #1073741824	; 0x40000000
    6bba:	79fb      	ldrb	r3, [r7, #7]
    6bbc:	095b      	lsrs	r3, r3, #5
    6bbe:	b2db      	uxtb	r3, r3
    6bc0:	4618      	mov	r0, r3
    6bc2:	79fb      	ldrb	r3, [r7, #7]
    6bc4:	f003 031f 	and.w	r3, r3, #31
    6bc8:	2101      	movs	r1, #1
    6bca:	fa01 f303 	lsl.w	r3, r1, r3
    6bce:	4619      	mov	r1, r3
    6bd0:	f500 73d4 	add.w	r3, r0, #424	; 0x1a8
    6bd4:	f842 1023 	str.w	r1, [r2, r3, lsl #2]
    6bd8:	bf00      	nop
    6bda:	370c      	adds	r7, #12
    6bdc:	46bd      	mov	sp, r7
    6bde:	f85d 7b04 	ldr.w	r7, [sp], #4
    6be2:	4770      	bx	lr

00006be4 <Chip_Clock_SetFLEXCOMMClockSource>:
    6be4:	b480      	push	{r7}
    6be6:	b083      	sub	sp, #12
    6be8:	af00      	add	r7, sp, #0
    6bea:	6078      	str	r0, [r7, #4]
    6bec:	460b      	mov	r3, r1
    6bee:	70fb      	strb	r3, [r7, #3]
    6bf0:	f04f 4180 	mov.w	r1, #1073741824	; 0x40000000
    6bf4:	78fa      	ldrb	r2, [r7, #3]
    6bf6:	687b      	ldr	r3, [r7, #4]
    6bf8:	33ac      	adds	r3, #172	; 0xac
    6bfa:	f841 2023 	str.w	r2, [r1, r3, lsl #2]
    6bfe:	bf00      	nop
    6c00:	370c      	adds	r7, #12
    6c02:	46bd      	mov	sp, r7
    6c04:	f85d 7b04 	ldr.w	r7, [sp], #4
    6c08:	4770      	bx	lr
    6c0a:	bf00      	nop

00006c0c <Chip_FLEXCOMM_GetIndex>:
    6c0c:	b480      	push	{r7}
    6c0e:	b083      	sub	sp, #12
    6c10:	af00      	add	r7, sp, #0
    6c12:	6078      	str	r0, [r7, #4]
    6c14:	687b      	ldr	r3, [r7, #4]
    6c16:	4a1c      	ldr	r2, [pc, #112]	; (6c88 <Chip_FLEXCOMM_GetIndex+0x7c>)
    6c18:	4293      	cmp	r3, r2
    6c1a:	d023      	beq.n	6c64 <Chip_FLEXCOMM_GetIndex+0x58>
    6c1c:	4a1a      	ldr	r2, [pc, #104]	; (6c88 <Chip_FLEXCOMM_GetIndex+0x7c>)
    6c1e:	4293      	cmp	r3, r2
    6c20:	d809      	bhi.n	6c36 <Chip_FLEXCOMM_GetIndex+0x2a>
    6c22:	4a1a      	ldr	r2, [pc, #104]	; (6c8c <Chip_FLEXCOMM_GetIndex+0x80>)
    6c24:	4293      	cmp	r3, r2
    6c26:	d019      	beq.n	6c5c <Chip_FLEXCOMM_GetIndex+0x50>
    6c28:	4a19      	ldr	r2, [pc, #100]	; (6c90 <Chip_FLEXCOMM_GetIndex+0x84>)
    6c2a:	4293      	cmp	r3, r2
    6c2c:	d018      	beq.n	6c60 <Chip_FLEXCOMM_GetIndex+0x54>
    6c2e:	4a19      	ldr	r2, [pc, #100]	; (6c94 <Chip_FLEXCOMM_GetIndex+0x88>)
    6c30:	4293      	cmp	r3, r2
    6c32:	d011      	beq.n	6c58 <Chip_FLEXCOMM_GetIndex+0x4c>
    6c34:	e020      	b.n	6c78 <Chip_FLEXCOMM_GetIndex+0x6c>
    6c36:	4a18      	ldr	r2, [pc, #96]	; (6c98 <Chip_FLEXCOMM_GetIndex+0x8c>)
    6c38:	4293      	cmp	r3, r2
    6c3a:	d017      	beq.n	6c6c <Chip_FLEXCOMM_GetIndex+0x60>
    6c3c:	4a16      	ldr	r2, [pc, #88]	; (6c98 <Chip_FLEXCOMM_GetIndex+0x8c>)
    6c3e:	4293      	cmp	r3, r2
    6c40:	d803      	bhi.n	6c4a <Chip_FLEXCOMM_GetIndex+0x3e>
    6c42:	4a16      	ldr	r2, [pc, #88]	; (6c9c <Chip_FLEXCOMM_GetIndex+0x90>)
    6c44:	4293      	cmp	r3, r2
    6c46:	d00f      	beq.n	6c68 <Chip_FLEXCOMM_GetIndex+0x5c>
    6c48:	e016      	b.n	6c78 <Chip_FLEXCOMM_GetIndex+0x6c>
    6c4a:	4a15      	ldr	r2, [pc, #84]	; (6ca0 <Chip_FLEXCOMM_GetIndex+0x94>)
    6c4c:	4293      	cmp	r3, r2
    6c4e:	d00f      	beq.n	6c70 <Chip_FLEXCOMM_GetIndex+0x64>
    6c50:	4a14      	ldr	r2, [pc, #80]	; (6ca4 <Chip_FLEXCOMM_GetIndex+0x98>)
    6c52:	4293      	cmp	r3, r2
    6c54:	d00e      	beq.n	6c74 <Chip_FLEXCOMM_GetIndex+0x68>
    6c56:	e00f      	b.n	6c78 <Chip_FLEXCOMM_GetIndex+0x6c>
    6c58:	2300      	movs	r3, #0
    6c5a:	e00f      	b.n	6c7c <Chip_FLEXCOMM_GetIndex+0x70>
    6c5c:	2301      	movs	r3, #1
    6c5e:	e00d      	b.n	6c7c <Chip_FLEXCOMM_GetIndex+0x70>
    6c60:	2302      	movs	r3, #2
    6c62:	e00b      	b.n	6c7c <Chip_FLEXCOMM_GetIndex+0x70>
    6c64:	2303      	movs	r3, #3
    6c66:	e009      	b.n	6c7c <Chip_FLEXCOMM_GetIndex+0x70>
    6c68:	2304      	movs	r3, #4
    6c6a:	e007      	b.n	6c7c <Chip_FLEXCOMM_GetIndex+0x70>
    6c6c:	2305      	movs	r3, #5
    6c6e:	e005      	b.n	6c7c <Chip_FLEXCOMM_GetIndex+0x70>
    6c70:	2306      	movs	r3, #6
    6c72:	e003      	b.n	6c7c <Chip_FLEXCOMM_GetIndex+0x70>
    6c74:	2307      	movs	r3, #7
    6c76:	e001      	b.n	6c7c <Chip_FLEXCOMM_GetIndex+0x70>
    6c78:	f06f 0302 	mvn.w	r3, #2
    6c7c:	4618      	mov	r0, r3
    6c7e:	370c      	adds	r7, #12
    6c80:	46bd      	mov	sp, r7
    6c82:	f85d 7b04 	ldr.w	r7, [sp], #4
    6c86:	4770      	bx	lr
    6c88:	40089000 	.word	0x40089000
    6c8c:	40087000 	.word	0x40087000
    6c90:	40088000 	.word	0x40088000
    6c94:	40086000 	.word	0x40086000
    6c98:	40096000 	.word	0x40096000
    6c9c:	4008a000 	.word	0x4008a000
    6ca0:	40097000 	.word	0x40097000
    6ca4:	40098000 	.word	0x40098000

00006ca8 <Chip_FLEXCOMM_Init>:
    6ca8:	b580      	push	{r7, lr}
    6caa:	b084      	sub	sp, #16
    6cac:	af00      	add	r7, sp, #0
    6cae:	6078      	str	r0, [r7, #4]
    6cb0:	460b      	mov	r3, r1
    6cb2:	70fb      	strb	r3, [r7, #3]
    6cb4:	6878      	ldr	r0, [r7, #4]
    6cb6:	f7ff ffa9 	bl	6c0c <Chip_FLEXCOMM_GetIndex>
    6cba:	60f8      	str	r0, [r7, #12]
    6cbc:	68fb      	ldr	r3, [r7, #12]
    6cbe:	2b00      	cmp	r3, #0
    6cc0:	da01      	bge.n	6cc6 <Chip_FLEXCOMM_Init+0x1e>
    6cc2:	68fb      	ldr	r3, [r7, #12]
    6cc4:	e026      	b.n	6d14 <Chip_FLEXCOMM_Init+0x6c>
    6cc6:	68fb      	ldr	r3, [r7, #12]
    6cc8:	b2db      	uxtb	r3, r3
    6cca:	332b      	adds	r3, #43	; 0x2b
    6ccc:	b2db      	uxtb	r3, r3
    6cce:	4618      	mov	r0, r3
    6cd0:	f7fe ffb8 	bl	5c44 <Chip_Clock_EnablePeriphClock>
    6cd4:	68fb      	ldr	r3, [r7, #12]
    6cd6:	b2db      	uxtb	r3, r3
    6cd8:	332b      	adds	r3, #43	; 0x2b
    6cda:	b2db      	uxtb	r3, r3
    6cdc:	4618      	mov	r0, r3
    6cde:	f7ff ff21 	bl	6b24 <Chip_SYSCON_PeriphReset>
    6ce2:	78fb      	ldrb	r3, [r7, #3]
    6ce4:	2200      	movs	r2, #0
    6ce6:	4619      	mov	r1, r3
    6ce8:	6878      	ldr	r0, [r7, #4]
    6cea:	f000 f817 	bl	6d1c <Chip_FLEXCOMM_SetPeriph>
    6cee:	60b8      	str	r0, [r7, #8]
    6cf0:	68bb      	ldr	r3, [r7, #8]
    6cf2:	2b00      	cmp	r3, #0
    6cf4:	d001      	beq.n	6cfa <Chip_FLEXCOMM_Init+0x52>
    6cf6:	68bb      	ldr	r3, [r7, #8]
    6cf8:	e00c      	b.n	6d14 <Chip_FLEXCOMM_Init+0x6c>
    6cfa:	68fb      	ldr	r3, [r7, #12]
    6cfc:	b2db      	uxtb	r3, r3
    6cfe:	330e      	adds	r3, #14
    6d00:	b2db      	uxtb	r3, r3
    6d02:	4618      	mov	r0, r3
    6d04:	f7ff ff52 	bl	6bac <Chip_SYSCON_EnableWakeup>
    6d08:	68fb      	ldr	r3, [r7, #12]
    6d0a:	2100      	movs	r1, #0
    6d0c:	4618      	mov	r0, r3
    6d0e:	f7ff ff69 	bl	6be4 <Chip_Clock_SetFLEXCOMMClockSource>
    6d12:	2300      	movs	r3, #0
    6d14:	4618      	mov	r0, r3
    6d16:	3710      	adds	r7, #16
    6d18:	46bd      	mov	sp, r7
    6d1a:	bd80      	pop	{r7, pc}

00006d1c <Chip_FLEXCOMM_SetPeriph>:
    6d1c:	b480      	push	{r7}
    6d1e:	b087      	sub	sp, #28
    6d20:	af00      	add	r7, sp, #0
    6d22:	60f8      	str	r0, [r7, #12]
    6d24:	460b      	mov	r3, r1
    6d26:	607a      	str	r2, [r7, #4]
    6d28:	72fb      	strb	r3, [r7, #11]
    6d2a:	68fb      	ldr	r3, [r7, #12]
    6d2c:	f603 73f8 	addw	r3, r3, #4088	; 0xff8
    6d30:	613b      	str	r3, [r7, #16]
    6d32:	7afb      	ldrb	r3, [r7, #11]
    6d34:	3b01      	subs	r3, #1
    6d36:	617b      	str	r3, [r7, #20]
    6d38:	7afb      	ldrb	r3, [r7, #11]
    6d3a:	2b00      	cmp	r3, #0
    6d3c:	d011      	beq.n	6d62 <Chip_FLEXCOMM_SetPeriph+0x46>
    6d3e:	697b      	ldr	r3, [r7, #20]
    6d40:	2b04      	cmp	r3, #4
    6d42:	d102      	bne.n	6d4a <Chip_FLEXCOMM_SetPeriph+0x2e>
    6d44:	697b      	ldr	r3, [r7, #20]
    6d46:	3b01      	subs	r3, #1
    6d48:	617b      	str	r3, [r7, #20]
    6d4a:	693b      	ldr	r3, [r7, #16]
    6d4c:	681b      	ldr	r3, [r3, #0]
    6d4e:	2110      	movs	r1, #16
    6d50:	697a      	ldr	r2, [r7, #20]
    6d52:	fa01 f202 	lsl.w	r2, r1, r2
    6d56:	4013      	ands	r3, r2
    6d58:	2b00      	cmp	r3, #0
    6d5a:	d102      	bne.n	6d62 <Chip_FLEXCOMM_SetPeriph+0x46>
    6d5c:	f04f 33ff 	mov.w	r3, #4294967295
    6d60:	e01d      	b.n	6d9e <Chip_FLEXCOMM_SetPeriph+0x82>
    6d62:	693b      	ldr	r3, [r7, #16]
    6d64:	681b      	ldr	r3, [r3, #0]
    6d66:	f003 0308 	and.w	r3, r3, #8
    6d6a:	2b00      	cmp	r3, #0
    6d6c:	d105      	bne.n	6d7a <Chip_FLEXCOMM_SetPeriph+0x5e>
    6d6e:	693b      	ldr	r3, [r7, #16]
    6d70:	681b      	ldr	r3, [r3, #0]
    6d72:	f003 0307 	and.w	r3, r3, #7
    6d76:	2b00      	cmp	r3, #0
    6d78:	d002      	beq.n	6d80 <Chip_FLEXCOMM_SetPeriph+0x64>
    6d7a:	f06f 0301 	mvn.w	r3, #1
    6d7e:	e00e      	b.n	6d9e <Chip_FLEXCOMM_SetPeriph+0x82>
    6d80:	687b      	ldr	r3, [r7, #4]
    6d82:	2b00      	cmp	r3, #0
    6d84:	d007      	beq.n	6d96 <Chip_FLEXCOMM_SetPeriph+0x7a>
    6d86:	7afb      	ldrb	r3, [r7, #11]
    6d88:	f043 0308 	orr.w	r3, r3, #8
    6d8c:	b2db      	uxtb	r3, r3
    6d8e:	461a      	mov	r2, r3
    6d90:	693b      	ldr	r3, [r7, #16]
    6d92:	601a      	str	r2, [r3, #0]
    6d94:	e002      	b.n	6d9c <Chip_FLEXCOMM_SetPeriph+0x80>
    6d96:	7afa      	ldrb	r2, [r7, #11]
    6d98:	693b      	ldr	r3, [r7, #16]
    6d9a:	601a      	str	r2, [r3, #0]
    6d9c:	2300      	movs	r3, #0
    6d9e:	4618      	mov	r0, r3
    6da0:	371c      	adds	r7, #28
    6da2:	46bd      	mov	sp, r7
    6da4:	f85d 7b04 	ldr.w	r7, [sp], #4
    6da8:	4770      	bx	lr
    6daa:	bf00      	nop

00006dac <__main>:
    6dac:	b508      	push	{r3, lr}
    6dae:	2200      	movs	r2, #0
    6db0:	4611      	mov	r1, r2
    6db2:	4610      	mov	r0, r2
    6db4:	f000 fd88 	bl	78c8 <_initio>
    6db8:	e8bd 4008 	ldmia.w	sp!, {r3, lr}
    6dbc:	f7f9 bb66 	b.w	48c <main>

00006dc0 <cosf>:
    6dc0:	ee07 0a90 	vmov	s15, r0
    6dc4:	ed9f 7a0c 	vldr	s14, [pc, #48]	; 6df8 <cosf+0x38>
    6dc8:	eef5 7ac0 	vcmpe.f32	s15, #0.0
    6dcc:	eef1 fa10 	vmrs	APSR_nzcv, fpscr
    6dd0:	bf4c      	ite	mi
    6dd2:	ee37 7a67 	vsubmi.f32	s14, s14, s15
    6dd6:	ee77 7a87 	vaddpl.f32	s15, s15, s14
    6dda:	f04f 0301 	mov.w	r3, #1
    6dde:	bf48      	it	mi
    6de0:	eef1 7a67 	vnegmi.f32	s15, s15
    6de4:	461a      	mov	r2, r3
    6de6:	bf46      	itte	mi
    6de8:	ee17 1a10 	vmovmi	r1, s14
    6dec:	ee17 0a90 	vmovmi	r0, s15
    6df0:	ee17 1a90 	vmovpl	r1, s15
    6df4:	f001 bcc4 	b.w	8780 <_sincosf>
    6df8:	3fc90fdb 	.word	0x3fc90fdb

00006dfc <sinf>:
    6dfc:	ee07 0a90 	vmov	s15, r0
    6e00:	eef5 7ac0 	vcmpe.f32	s15, #0.0
    6e04:	eef1 fa10 	vmrs	APSR_nzcv, fpscr
    6e08:	bf41      	itttt	mi
    6e0a:	eef1 7a67 	vnegmi.f32	s15, s15
    6e0e:	ee17 1a90 	vmovmi	r1, s15
    6e12:	2300      	movmi	r3, #0
    6e14:	f04f 32ff 	movmi.w	r2, #4294967295
    6e18:	bf4f      	iteee	mi
    6e1a:	4608      	movmi	r0, r1
    6e1c:	2300      	movpl	r3, #0
    6e1e:	2201      	movpl	r2, #1
    6e20:	ee17 1a90 	vmovpl	r1, s15
    6e24:	f001 bcac 	b.w	8780 <_sincosf>

00006e28 <sqrtf>:
    6e28:	ee00 0a10 	vmov	s0, r0
    6e2c:	eef1 0ac0 	vsqrt.f32	s1, s0
    6e30:	ee10 0a90 	vmov	r0, s1
    6e34:	4770      	bx	lr

00006e36 <memset>:
    6e36:	f002 bd43 	b.w	98c0 <__aeabi_lowlevel_memset>

00006e3a <fp_round>:
    6e3a:	b510      	push	{r4, lr}
    6e3c:	5c42      	ldrb	r2, [r0, r1]
    6e3e:	2a34      	cmp	r2, #52	; 0x34
    6e40:	eb00 0301 	add.w	r3, r0, r1
    6e44:	dc01      	bgt.n	6e4a <fp_round+0x10>
    6e46:	2000      	movs	r0, #0
    6e48:	bd10      	pop	{r4, pc}
    6e4a:	2a35      	cmp	r2, #53	; 0x35
    6e4c:	d106      	bne.n	6e5c <fp_round+0x22>
    6e4e:	4619      	mov	r1, r3
    6e50:	f811 2f01 	ldrb.w	r2, [r1, #1]!
    6e54:	2a30      	cmp	r2, #48	; 0x30
    6e56:	d0fb      	beq.n	6e50 <fp_round+0x16>
    6e58:	2a00      	cmp	r2, #0
    6e5a:	d0f4      	beq.n	6e46 <fp_round+0xc>
    6e5c:	461a      	mov	r2, r3
    6e5e:	2430      	movs	r4, #48	; 0x30
    6e60:	f812 1d01 	ldrb.w	r1, [r2, #-1]!
    6e64:	2939      	cmp	r1, #57	; 0x39
    6e66:	d101      	bne.n	6e6c <fp_round+0x32>
    6e68:	7014      	strb	r4, [r2, #0]
    6e6a:	e7f9      	b.n	6e60 <fp_round+0x26>
    6e6c:	3101      	adds	r1, #1
    6e6e:	7011      	strb	r1, [r2, #0]
    6e70:	7802      	ldrb	r2, [r0, #0]
    6e72:	2a30      	cmp	r2, #48	; 0x30
    6e74:	d0e7      	beq.n	6e46 <fp_round+0xc>
    6e76:	1a1a      	subs	r2, r3, r0
    6e78:	2a00      	cmp	r2, #0
    6e7a:	db03      	blt.n	6e84 <fp_round+0x4a>
    6e7c:	f813 2901 	ldrb.w	r2, [r3], #-1
    6e80:	709a      	strb	r2, [r3, #2]
    6e82:	e7f8      	b.n	6e76 <fp_round+0x3c>
    6e84:	2001      	movs	r0, #1
    6e86:	bd10      	pop	{r4, pc}

00006e88 <pr_dec.constprop.1>:
    6e88:	b530      	push	{r4, r5, lr}
    6e8a:	1f8c      	subs	r4, r1, #6
    6e8c:	250a      	movs	r5, #10
    6e8e:	42a1      	cmp	r1, r4
    6e90:	d00c      	beq.n	6eac <pr_dec.constprop.1+0x24>
    6e92:	fb90 f3f5 	sdiv	r3, r0, r5
    6e96:	ebc3 1243 	rsb	r2, r3, r3, lsl #5
    6e9a:	ebc3 0282 	rsb	r2, r3, r2, lsl #2
    6e9e:	3030      	adds	r0, #48	; 0x30
    6ea0:	eb00 0042 	add.w	r0, r0, r2, lsl #1
    6ea4:	f801 0901 	strb.w	r0, [r1], #-1
    6ea8:	4618      	mov	r0, r3
    6eaa:	e7f0      	b.n	6e8e <pr_dec.constprop.1+0x6>
    6eac:	bd30      	pop	{r4, r5, pc}
    6eae:	Address 0x00006eae is out of bounds.


00006eb0 <sprintf>:
    6eb0:	b40e      	push	{r1, r2, r3}
    6eb2:	b530      	push	{r4, r5, lr}
    6eb4:	b090      	sub	sp, #64	; 0x40
    6eb6:	ab13      	add	r3, sp, #76	; 0x4c
    6eb8:	4605      	mov	r5, r0
    6eba:	f853 4b04 	ldr.w	r4, [r3], #4
    6ebe:	9305      	str	r3, [sp, #20]
    6ec0:	2228      	movs	r2, #40	; 0x28
    6ec2:	2100      	movs	r1, #0
    6ec4:	a806      	add	r0, sp, #24
    6ec6:	f7ff ffb6 	bl	6e36 <memset>
    6eca:	230a      	movs	r3, #10
    6ecc:	9309      	str	r3, [sp, #36]	; 0x24
    6ece:	f06f 4300 	mvn.w	r3, #2147483648	; 0x80000000
    6ed2:	9308      	str	r3, [sp, #32]
    6ed4:	4b10      	ldr	r3, [pc, #64]	; (6f18 <sprintf+0x68>)
    6ed6:	9302      	str	r3, [sp, #8]
    6ed8:	9b05      	ldr	r3, [sp, #20]
    6eda:	9301      	str	r3, [sp, #4]
    6edc:	9400      	str	r4, [sp, #0]
    6ede:	f06f 4300 	mvn.w	r3, #2147483648	; 0x80000000
    6ee2:	f04f 32ff 	mov.w	r2, #4294967295
    6ee6:	a806      	add	r0, sp, #24
    6ee8:	9506      	str	r5, [sp, #24]
    6eea:	f000 fd3f 	bl	796c <__vfprintf>
    6eee:	9b08      	ldr	r3, [sp, #32]
    6ef0:	3b01      	subs	r3, #1
    6ef2:	2b00      	cmp	r3, #0
    6ef4:	4604      	mov	r4, r0
    6ef6:	9308      	str	r3, [sp, #32]
    6ef8:	db03      	blt.n	6f02 <sprintf+0x52>
    6efa:	9b06      	ldr	r3, [sp, #24]
    6efc:	2200      	movs	r2, #0
    6efe:	701a      	strb	r2, [r3, #0]
    6f00:	e003      	b.n	6f0a <sprintf+0x5a>
    6f02:	a906      	add	r1, sp, #24
    6f04:	2000      	movs	r0, #0
    6f06:	f001 fd01 	bl	890c <__flsbuf>
    6f0a:	4620      	mov	r0, r4
    6f0c:	b010      	add	sp, #64	; 0x40
    6f0e:	e8bd 4030 	ldmia.w	sp!, {r4, r5, lr}
    6f12:	b003      	add	sp, #12
    6f14:	4770      	bx	lr
    6f16:	bf00      	nop
    6f18:	00006f21 	.word	0x00006f21
    6f1c:	ffffffff 	.word	0xffffffff

00006f20 <fp_display>:
    6f20:	e92d 4ff0 	stmdb	sp!, {r4, r5, r6, r7, r8, r9, sl, fp, lr}
    6f24:	ed2d 8b06 	vpush	{d8-d10}
    6f28:	e9d1 6700 	ldrd	r6, r7, [r1]
    6f2c:	b09d      	sub	sp, #116	; 0x74
    6f2e:	4614      	mov	r4, r2
    6f30:	9306      	str	r3, [sp, #24]
    6f32:	f3c7 430f 	ubfx	r3, r7, #16, #16
    6f36:	f023 030f 	bic.w	r3, r3, #15
    6f3a:	045b      	lsls	r3, r3, #17
    6f3c:	0c5b      	lsrs	r3, r3, #17
    6f3e:	f647 72f0 	movw	r2, #32752	; 0x7ff0
    6f42:	4293      	cmp	r3, r2
    6f44:	9005      	str	r0, [sp, #20]
    6f46:	f8dd b0b4 	ldr.w	fp, [sp, #180]	; 0xb4
    6f4a:	9609      	str	r6, [sp, #36]	; 0x24
    6f4c:	9707      	str	r7, [sp, #28]
    6f4e:	d127      	bne.n	6fa0 <fp_display+0x80>
    6f50:	2300      	movs	r3, #0
    6f52:	70e3      	strb	r3, [r4, #3]
    6f54:	f3c7 0313 	ubfx	r3, r7, #0, #20
    6f58:	4333      	orrs	r3, r6
    6f5a:	f04f 036e 	mov.w	r3, #110	; 0x6e
    6f5e:	d115      	bne.n	6f8c <fp_display+0x6c>
    6f60:	2269      	movs	r2, #105	; 0x69
    6f62:	7063      	strb	r3, [r4, #1]
    6f64:	2f00      	cmp	r7, #0
    6f66:	f04f 0366 	mov.w	r3, #102	; 0x66
    6f6a:	7022      	strb	r2, [r4, #0]
    6f6c:	70a3      	strb	r3, [r4, #2]
    6f6e:	da01      	bge.n	6f74 <fp_display+0x54>
    6f70:	4ba7      	ldr	r3, [pc, #668]	; (7210 <fp_display+0x2f0>)
    6f72:	e010      	b.n	6f96 <fp_display+0x76>
    6f74:	9b06      	ldr	r3, [sp, #24]
    6f76:	0798      	lsls	r0, r3, #30
    6f78:	d406      	bmi.n	6f88 <fp_display+0x68>
    6f7a:	4aa6      	ldr	r2, [pc, #664]	; (7214 <fp_display+0x2f4>)
    6f7c:	f013 0f04 	tst.w	r3, #4
    6f80:	4ba5      	ldr	r3, [pc, #660]	; (7218 <fp_display+0x2f8>)
    6f82:	bf08      	it	eq
    6f84:	4613      	moveq	r3, r2
    6f86:	e006      	b.n	6f96 <fp_display+0x76>
    6f88:	4ba4      	ldr	r3, [pc, #656]	; (721c <fp_display+0x2fc>)
    6f8a:	e004      	b.n	6f96 <fp_display+0x76>
    6f8c:	7023      	strb	r3, [r4, #0]
    6f8e:	2261      	movs	r2, #97	; 0x61
    6f90:	70a3      	strb	r3, [r4, #2]
    6f92:	4ba0      	ldr	r3, [pc, #640]	; (7214 <fp_display+0x2f4>)
    6f94:	7062      	strb	r2, [r4, #1]
    6f96:	9a2c      	ldr	r2, [sp, #176]	; 0xb0
    6f98:	2003      	movs	r0, #3
    6f9a:	6013      	str	r3, [r2, #0]
    6f9c:	f000 bc36 	b.w	780c <fp_display+0x8ec>
    6fa0:	9b05      	ldr	r3, [sp, #20]
    6fa2:	f023 0320 	bic.w	r3, r3, #32
    6fa6:	2b41      	cmp	r3, #65	; 0x41
    6fa8:	f000 823b 	beq.w	7422 <fp_display+0x502>
    6fac:	2200      	movs	r2, #0
    6fae:	2300      	movs	r3, #0
    6fb0:	4630      	mov	r0, r6
    6fb2:	4639      	mov	r1, r7
    6fb4:	f002 fbe7 	bl	9786 <__aeabi_dcmplt>
    6fb8:	b138      	cbz	r0, 6fca <fp_display+0xaa>
    6fba:	f107 4300 	add.w	r3, r7, #2147483648	; 0x80000000
    6fbe:	9a09      	ldr	r2, [sp, #36]	; 0x24
    6fc0:	461f      	mov	r7, r3
    6fc2:	2301      	movs	r3, #1
    6fc4:	4616      	mov	r6, r2
    6fc6:	930a      	str	r3, [sp, #40]	; 0x28
    6fc8:	e000      	b.n	6fcc <fp_display+0xac>
    6fca:	900a      	str	r0, [sp, #40]	; 0x28
    6fcc:	2200      	movs	r2, #0
    6fce:	2300      	movs	r3, #0
    6fd0:	4630      	mov	r0, r6
    6fd2:	4639      	mov	r1, r7
    6fd4:	f002 fbbf 	bl	9756 <__aeabi_dcmpeq>
    6fd8:	2800      	cmp	r0, #0
    6fda:	f040 8204 	bne.w	73e6 <fp_display+0x4c6>
    6fde:	aa0f      	add	r2, sp, #60	; 0x3c
    6fe0:	4630      	mov	r0, r6
    6fe2:	4639      	mov	r1, r7
    6fe4:	f001 fd93 	bl	8b0e <_frexpl>
    6fe8:	9a0f      	ldr	r2, [sp, #60]	; 0x3c
    6fea:	f240 152d 	movw	r5, #301	; 0x12d
    6fee:	4355      	muls	r5, r2
    6ff0:	f5a5 53ab 	sub.w	r3, r5, #5472	; 0x1560
    6ff4:	e9cd 0110 	strd	r0, r1, [sp, #64]	; 0x40
    6ff8:	3b1c      	subs	r3, #28
    6ffa:	f44f 757a 	mov.w	r5, #1000	; 0x3e8
    6ffe:	2000      	movs	r0, #0
    7000:	fb93 f5f5 	sdiv	r5, r3, r5
    7004:	4986      	ldr	r1, [pc, #536]	; (7220 <fp_display+0x300>)
    7006:	1aaa      	subs	r2, r5, r2
    7008:	f001 fdae 	bl	8b68 <_ldexpl>
    700c:	2d00      	cmp	r5, #0
    700e:	e9cd 011a 	strd	r0, r1, [sp, #104]	; 0x68
    7012:	da06      	bge.n	7022 <fp_display+0x102>
    7014:	a374      	add	r3, pc, #464	; (adr r3, 71e8 <fp_display+0x2c8>)
    7016:	e9d3 2300 	ldrd	r2, r3, [r3]
    701a:	426e      	negs	r6, r5
    701c:	e9cd 2316 	strd	r2, r3, [sp, #88]	; 0x58
    7020:	e006      	b.n	7030 <fp_display+0x110>
    7022:	4b80      	ldr	r3, [pc, #512]	; (7224 <fp_display+0x304>)
    7024:	f04f 0200 	mov.w	r2, #0
    7028:	e9cd 2316 	strd	r2, r3, [sp, #88]	; 0x58
    702c:	d016      	beq.n	705c <fp_display+0x13c>
    702e:	462e      	mov	r6, r5
    7030:	07f1      	lsls	r1, r6, #31
    7032:	d409      	bmi.n	7048 <fp_display+0x128>
    7034:	e9dd 0116 	ldrd	r0, r1, [sp, #88]	; 0x58
    7038:	e9dd 2316 	ldrd	r2, r3, [sp, #88]	; 0x58
    703c:	f002 f88a 	bl	9154 <__aeabi_dmul>
    7040:	1076      	asrs	r6, r6, #1
    7042:	e9cd 0116 	strd	r0, r1, [sp, #88]	; 0x58
    7046:	e7f3      	b.n	7030 <fp_display+0x110>
    7048:	e9dd 0116 	ldrd	r0, r1, [sp, #88]	; 0x58
    704c:	e9dd 231a 	ldrd	r2, r3, [sp, #104]	; 0x68
    7050:	f002 f880 	bl	9154 <__aeabi_dmul>
    7054:	2e01      	cmp	r6, #1
    7056:	e9cd 011a 	strd	r0, r1, [sp, #104]	; 0x68
    705a:	d1eb      	bne.n	7034 <fp_display+0x114>
    705c:	e9dd 0110 	ldrd	r0, r1, [sp, #64]	; 0x40
    7060:	e9dd 231a 	ldrd	r2, r3, [sp, #104]	; 0x68
    7064:	f002 f8fe 	bl	9264 <__aeabi_ddiv>
    7068:	e9cd 0112 	strd	r0, r1, [sp, #72]	; 0x48
    706c:	e9dd 0112 	ldrd	r0, r1, [sp, #72]	; 0x48
    7070:	a35f      	add	r3, pc, #380	; (adr r3, 71f0 <fp_display+0x2d0>)
    7072:	e9d3 2300 	ldrd	r2, r3, [r3]
    7076:	f002 fb86 	bl	9786 <__aeabi_dcmplt>
    707a:	b188      	cbz	r0, 70a0 <fp_display+0x180>
    707c:	e9dd 0112 	ldrd	r0, r1, [sp, #72]	; 0x48
    7080:	2200      	movs	r2, #0
    7082:	4b69      	ldr	r3, [pc, #420]	; (7228 <fp_display+0x308>)
    7084:	f002 f866 	bl	9154 <__aeabi_dmul>
    7088:	e9cd 0112 	strd	r0, r1, [sp, #72]	; 0x48
    708c:	e9dd 011a 	ldrd	r0, r1, [sp, #104]	; 0x68
    7090:	2200      	movs	r2, #0
    7092:	4b65      	ldr	r3, [pc, #404]	; (7228 <fp_display+0x308>)
    7094:	f002 f8e6 	bl	9264 <__aeabi_ddiv>
    7098:	3d01      	subs	r5, #1
    709a:	e9cd 011a 	strd	r0, r1, [sp, #104]	; 0x68
    709e:	e7e5      	b.n	706c <fp_display+0x14c>
    70a0:	e9dd 0112 	ldrd	r0, r1, [sp, #72]	; 0x48
    70a4:	a354      	add	r3, pc, #336	; (adr r3, 71f8 <fp_display+0x2d8>)
    70a6:	e9d3 2300 	ldrd	r2, r3, [r3]
    70aa:	f002 fbc2 	bl	9832 <__aeabi_dcmpge>
    70ae:	b188      	cbz	r0, 70d4 <fp_display+0x1b4>
    70b0:	e9dd 0112 	ldrd	r0, r1, [sp, #72]	; 0x48
    70b4:	2200      	movs	r2, #0
    70b6:	4b5c      	ldr	r3, [pc, #368]	; (7228 <fp_display+0x308>)
    70b8:	f002 f8d4 	bl	9264 <__aeabi_ddiv>
    70bc:	e9cd 0112 	strd	r0, r1, [sp, #72]	; 0x48
    70c0:	e9dd 011a 	ldrd	r0, r1, [sp, #104]	; 0x68
    70c4:	2200      	movs	r2, #0
    70c6:	4b58      	ldr	r3, [pc, #352]	; (7228 <fp_display+0x308>)
    70c8:	f002 f844 	bl	9154 <__aeabi_dmul>
    70cc:	3501      	adds	r5, #1
    70ce:	e9cd 011a 	strd	r0, r1, [sp, #104]	; 0x68
    70d2:	e7e5      	b.n	70a0 <fp_display+0x180>
    70d4:	e9dd 0112 	ldrd	r0, r1, [sp, #72]	; 0x48
    70d8:	f002 faf2 	bl	96c0 <__aeabi_d2iz>
    70dc:	ed9f 8b48 	vldr	d8, [pc, #288]	; 7200 <fp_display+0x2e0>
    70e0:	426b      	negs	r3, r5
    70e2:	ed9f 9b49 	vldr	d9, [pc, #292]	; 7208 <fp_display+0x2e8>
    70e6:	ed9f ab40 	vldr	d10, [pc, #256]	; 71e8 <fp_display+0x2c8>
    70ea:	ea13 0325 	ands.w	r3, r3, r5, asr #32
    70ee:	bf38      	it	cc
    70f0:	462b      	movcc	r3, r5
    70f2:	4682      	mov	sl, r0
    70f4:	930b      	str	r3, [sp, #44]	; 0x2c
    70f6:	9e0f      	ldr	r6, [sp, #60]	; 0x3c
    70f8:	4650      	mov	r0, sl
    70fa:	1bae      	subs	r6, r5, r6
    70fc:	f002 fb23 	bl	9746 <__aeabi_i2d>
    7100:	4632      	mov	r2, r6
    7102:	f001 fd31 	bl	8b68 <_ldexpl>
    7106:	2d00      	cmp	r5, #0
    7108:	e9cd 0112 	strd	r0, r1, [sp, #72]	; 0x48
    710c:	ed8d 8b14 	vstr	d8, [sp, #80]	; 0x50
    7110:	da2a      	bge.n	7168 <fp_display+0x248>
    7112:	ed8d ab16 	vstr	d10, [sp, #88]	; 0x58
    7116:	ed8d 8b18 	vstr	d8, [sp, #96]	; 0x60
    711a:	e9dd 8916 	ldrd	r8, r9, [sp, #88]	; 0x58
    711e:	e9dd 0116 	ldrd	r0, r1, [sp, #88]	; 0x58
    7122:	e9dd 6718 	ldrd	r6, r7, [sp, #96]	; 0x60
    7126:	f04f 0800 	mov.w	r8, #0
    712a:	4642      	mov	r2, r8
    712c:	464b      	mov	r3, r9
    712e:	f002 f937 	bl	93a0 <__aeabi_dsub>
    7132:	4632      	mov	r2, r6
    7134:	463b      	mov	r3, r7
    7136:	f002 fa0d 	bl	9554 <__aeabi_dadd>
    713a:	e9cd 0118 	strd	r0, r1, [sp, #96]	; 0x60
    713e:	e9cd 8916 	strd	r8, r9, [sp, #88]	; 0x58
    7142:	2200      	movs	r2, #0
    7144:	4b37      	ldr	r3, [pc, #220]	; (7224 <fp_display+0x304>)
    7146:	e9dd 0116 	ldrd	r0, r1, [sp, #88]	; 0x58
    714a:	f002 f803 	bl	9154 <__aeabi_dmul>
    714e:	4602      	mov	r2, r0
    7150:	460b      	mov	r3, r1
    7152:	2000      	movs	r0, #0
    7154:	4932      	ldr	r1, [pc, #200]	; (7220 <fp_display+0x300>)
    7156:	f002 f923 	bl	93a0 <__aeabi_dsub>
    715a:	2200      	movs	r2, #0
    715c:	4b31      	ldr	r3, [pc, #196]	; (7224 <fp_display+0x304>)
    715e:	f002 f881 	bl	9264 <__aeabi_ddiv>
    7162:	e9cd 0118 	strd	r0, r1, [sp, #96]	; 0x60
    7166:	e005      	b.n	7174 <fp_display+0x254>
    7168:	ed8d 9b16 	vstr	d9, [sp, #88]	; 0x58
    716c:	ed8d 8b18 	vstr	d8, [sp, #96]	; 0x60
    7170:	f000 809e 	beq.w	72b0 <fp_display+0x390>
    7174:	9b0b      	ldr	r3, [sp, #44]	; 0x2c
    7176:	9308      	str	r3, [sp, #32]
    7178:	9b08      	ldr	r3, [sp, #32]
    717a:	07da      	lsls	r2, r3, #31
    717c:	d456      	bmi.n	722c <fp_display+0x30c>
    717e:	e9dd 2316 	ldrd	r2, r3, [sp, #88]	; 0x58
    7182:	e9dd 8918 	ldrd	r8, r9, [sp, #96]	; 0x60
    7186:	e9dd 6718 	ldrd	r6, r7, [sp, #96]	; 0x60
    718a:	4610      	mov	r0, r2
    718c:	4619      	mov	r1, r3
    718e:	f002 f9e1 	bl	9554 <__aeabi_dadd>
    7192:	4642      	mov	r2, r8
    7194:	464b      	mov	r3, r9
    7196:	f002 f9dd 	bl	9554 <__aeabi_dadd>
    719a:	4632      	mov	r2, r6
    719c:	463b      	mov	r3, r7
    719e:	f001 ffd9 	bl	9154 <__aeabi_dmul>
    71a2:	e9cd 0118 	strd	r0, r1, [sp, #96]	; 0x60
    71a6:	e9dd 0116 	ldrd	r0, r1, [sp, #88]	; 0x58
    71aa:	e9dd 2316 	ldrd	r2, r3, [sp, #88]	; 0x58
    71ae:	f001 ffd1 	bl	9154 <__aeabi_dmul>
    71b2:	e9cd 0116 	strd	r0, r1, [sp, #88]	; 0x58
    71b6:	e9dd 8916 	ldrd	r8, r9, [sp, #88]	; 0x58
    71ba:	e9dd 0116 	ldrd	r0, r1, [sp, #88]	; 0x58
    71be:	e9dd 6718 	ldrd	r6, r7, [sp, #96]	; 0x60
    71c2:	f04f 0800 	mov.w	r8, #0
    71c6:	4642      	mov	r2, r8
    71c8:	464b      	mov	r3, r9
    71ca:	f002 f8e9 	bl	93a0 <__aeabi_dsub>
    71ce:	463b      	mov	r3, r7
    71d0:	4632      	mov	r2, r6
    71d2:	f002 f9bf 	bl	9554 <__aeabi_dadd>
    71d6:	9b08      	ldr	r3, [sp, #32]
    71d8:	e9cd 0118 	strd	r0, r1, [sp, #96]	; 0x60
    71dc:	105b      	asrs	r3, r3, #1
    71de:	e9cd 8916 	strd	r8, r9, [sp, #88]	; 0x58
    71e2:	e7c8      	b.n	7176 <fp_display+0x256>
    71e4:	f3af 8000 	nop.w
    71e8:	9999999a 	.word	0x9999999a
    71ec:	3fc99999 	.word	0x3fc99999
    71f0:	00000000 	.word	0x00000000
    71f4:	40f86a00 	.word	0x40f86a00
    71f8:	00000000 	.word	0x00000000
    71fc:	412e8480 	.word	0x412e8480
	...
    720c:	40140000 	.word	0x40140000
    7210:	0001f09d 	.word	0x0001f09d
    7214:	0001f0f7 	.word	0x0001f0f7
    7218:	0001f06d 	.word	0x0001f06d
    721c:	0001f06b 	.word	0x0001f06b
    7220:	3ff00000 	.word	0x3ff00000
    7224:	40140000 	.word	0x40140000
    7228:	40240000 	.word	0x40240000
    722c:	ed9d 7b12 	vldr	d7, [sp, #72]	; 0x48
    7230:	e9dd 8918 	ldrd	r8, r9, [sp, #96]	; 0x60
    7234:	e9dd 0116 	ldrd	r0, r1, [sp, #88]	; 0x58
    7238:	e9dd 2318 	ldrd	r2, r3, [sp, #96]	; 0x60
    723c:	e9dd 6714 	ldrd	r6, r7, [sp, #80]	; 0x50
    7240:	ed8d 7b0c 	vstr	d7, [sp, #48]	; 0x30
    7244:	f002 f986 	bl	9554 <__aeabi_dadd>
    7248:	4632      	mov	r2, r6
    724a:	463b      	mov	r3, r7
    724c:	f001 ff82 	bl	9154 <__aeabi_dmul>
    7250:	4642      	mov	r2, r8
    7252:	4606      	mov	r6, r0
    7254:	460f      	mov	r7, r1
    7256:	464b      	mov	r3, r9
    7258:	e9dd 010c 	ldrd	r0, r1, [sp, #48]	; 0x30
    725c:	f001 ff7a 	bl	9154 <__aeabi_dmul>
    7260:	4602      	mov	r2, r0
    7262:	460b      	mov	r3, r1
    7264:	4630      	mov	r0, r6
    7266:	4639      	mov	r1, r7
    7268:	f002 f974 	bl	9554 <__aeabi_dadd>
    726c:	e9cd 0114 	strd	r0, r1, [sp, #80]	; 0x50
    7270:	e9dd 0116 	ldrd	r0, r1, [sp, #88]	; 0x58
    7274:	e9dd 2312 	ldrd	r2, r3, [sp, #72]	; 0x48
    7278:	f001 ff6c 	bl	9154 <__aeabi_dmul>
    727c:	e9cd 0112 	strd	r0, r1, [sp, #72]	; 0x48
    7280:	e9dd 8912 	ldrd	r8, r9, [sp, #72]	; 0x48
    7284:	e9dd 0112 	ldrd	r0, r1, [sp, #72]	; 0x48
    7288:	e9dd 6714 	ldrd	r6, r7, [sp, #80]	; 0x50
    728c:	f04f 0800 	mov.w	r8, #0
    7290:	4642      	mov	r2, r8
    7292:	464b      	mov	r3, r9
    7294:	f002 f884 	bl	93a0 <__aeabi_dsub>
    7298:	463b      	mov	r3, r7
    729a:	4632      	mov	r2, r6
    729c:	f002 f95a 	bl	9554 <__aeabi_dadd>
    72a0:	9b08      	ldr	r3, [sp, #32]
    72a2:	2b01      	cmp	r3, #1
    72a4:	e9cd 0114 	strd	r0, r1, [sp, #80]	; 0x50
    72a8:	e9cd 8912 	strd	r8, r9, [sp, #72]	; 0x48
    72ac:	f47f af67 	bne.w	717e <fp_display+0x25e>
    72b0:	e9dd 0112 	ldrd	r0, r1, [sp, #72]	; 0x48
    72b4:	e9dd 2310 	ldrd	r2, r3, [sp, #64]	; 0x40
    72b8:	f002 fa91 	bl	97de <__aeabi_dcmple>
    72bc:	b910      	cbnz	r0, 72c4 <fp_display+0x3a4>
    72be:	f10a 3aff 	add.w	sl, sl, #4294967295
    72c2:	e718      	b.n	70f6 <fp_display+0x1d6>
    72c4:	e9dd 2312 	ldrd	r2, r3, [sp, #72]	; 0x48
    72c8:	e9dd 0110 	ldrd	r0, r1, [sp, #64]	; 0x40
    72cc:	f002 f868 	bl	93a0 <__aeabi_dsub>
    72d0:	e9cd 0110 	strd	r0, r1, [sp, #64]	; 0x40
    72d4:	e9dd 2314 	ldrd	r2, r3, [sp, #80]	; 0x50
    72d8:	e9dd 0110 	ldrd	r0, r1, [sp, #64]	; 0x40
    72dc:	f002 f860 	bl	93a0 <__aeabi_dsub>
    72e0:	e9cd 0110 	strd	r0, r1, [sp, #64]	; 0x40
    72e4:	e9dd 231a 	ldrd	r2, r3, [sp, #104]	; 0x68
    72e8:	e9dd 0110 	ldrd	r0, r1, [sp, #64]	; 0x40
    72ec:	f001 ffba 	bl	9264 <__aeabi_ddiv>
    72f0:	e9cd 0110 	strd	r0, r1, [sp, #64]	; 0x40
    72f4:	e9dd 0110 	ldrd	r0, r1, [sp, #64]	; 0x40
    72f8:	a3db      	add	r3, pc, #876	; (adr r3, 7668 <fp_display+0x748>)
    72fa:	e9d3 2300 	ldrd	r2, r3, [r3]
    72fe:	f001 ff29 	bl	9154 <__aeabi_dmul>
    7302:	e9cd 0110 	strd	r0, r1, [sp, #64]	; 0x40
    7306:	e9dd 0110 	ldrd	r0, r1, [sp, #64]	; 0x40
    730a:	f002 f9d9 	bl	96c0 <__aeabi_d2iz>
    730e:	e9dd 6710 	ldrd	r6, r7, [sp, #64]	; 0x40
    7312:	4680      	mov	r8, r0
    7314:	f002 fa17 	bl	9746 <__aeabi_i2d>
    7318:	4602      	mov	r2, r0
    731a:	460b      	mov	r3, r1
    731c:	4630      	mov	r0, r6
    731e:	4639      	mov	r1, r7
    7320:	f002 f83e 	bl	93a0 <__aeabi_dsub>
    7324:	a3d0      	add	r3, pc, #832	; (adr r3, 7668 <fp_display+0x748>)
    7326:	e9d3 2300 	ldrd	r2, r3, [r3]
    732a:	f001 ff13 	bl	9154 <__aeabi_dmul>
    732e:	e9cd 0110 	strd	r0, r1, [sp, #64]	; 0x40
    7332:	e9dd 0110 	ldrd	r0, r1, [sp, #64]	; 0x40
    7336:	f002 f9c3 	bl	96c0 <__aeabi_d2iz>
    733a:	4606      	mov	r6, r0
    733c:	2e00      	cmp	r6, #0
    733e:	da06      	bge.n	734e <fp_display+0x42e>
    7340:	f506 2674 	add.w	r6, r6, #999424	; 0xf4000
    7344:	f506 7610 	add.w	r6, r6, #576	; 0x240
    7348:	f108 38ff 	add.w	r8, r8, #4294967295
    734c:	e7f6      	b.n	733c <fp_display+0x41c>
    734e:	4ab8      	ldr	r2, [pc, #736]	; (7630 <fp_display+0x710>)
    7350:	4bb7      	ldr	r3, [pc, #732]	; (7630 <fp_display+0x710>)
    7352:	4296      	cmp	r6, r2
    7354:	dd06      	ble.n	7364 <fp_display+0x444>
    7356:	f5a6 2674 	sub.w	r6, r6, #999424	; 0xf4000
    735a:	f5a6 7610 	sub.w	r6, r6, #576	; 0x240
    735e:	f108 0801 	add.w	r8, r8, #1
    7362:	e7f5      	b.n	7350 <fp_display+0x430>
    7364:	f1b8 0f00 	cmp.w	r8, #0
    7368:	da06      	bge.n	7378 <fp_display+0x458>
    736a:	f508 2874 	add.w	r8, r8, #999424	; 0xf4000
    736e:	f508 7810 	add.w	r8, r8, #576	; 0x240
    7372:	f10a 3aff 	add.w	sl, sl, #4294967295
    7376:	e7f5      	b.n	7364 <fp_display+0x444>
    7378:	4598      	cmp	r8, r3
    737a:	dd06      	ble.n	738a <fp_display+0x46a>
    737c:	f5a8 2874 	sub.w	r8, r8, #999424	; 0xf4000
    7380:	f5a8 7810 	sub.w	r8, r8, #576	; 0x240
    7384:	f10a 0a01 	add.w	sl, sl, #1
    7388:	e7f6      	b.n	7378 <fp_display+0x458>
    738a:	4baa      	ldr	r3, [pc, #680]	; (7634 <fp_display+0x714>)
    738c:	459a      	cmp	sl, r3
    738e:	dc11      	bgt.n	73b4 <fp_display+0x494>
    7390:	48a9      	ldr	r0, [pc, #676]	; (7638 <fp_display+0x718>)
    7392:	210a      	movs	r1, #10
    7394:	3301      	adds	r3, #1
    7396:	fb98 f2f3 	sdiv	r2, r8, r3
    739a:	fb96 f3f3 	sdiv	r3, r6, r3
    739e:	fb00 8802 	mla	r8, r0, r2, r8
    73a2:	fb00 6603 	mla	r6, r0, r3, r6
    73a6:	fb01 2a0a 	mla	sl, r1, sl, r2
    73aa:	fb01 3808 	mla	r8, r1, r8, r3
    73ae:	434e      	muls	r6, r1
    73b0:	3d01      	subs	r5, #1
    73b2:	e01d      	b.n	73f0 <fp_display+0x4d0>
    73b4:	4b9e      	ldr	r3, [pc, #632]	; (7630 <fp_display+0x710>)
    73b6:	459a      	cmp	sl, r3
    73b8:	dd1a      	ble.n	73f0 <fp_display+0x4d0>
    73ba:	f06f 0309 	mvn.w	r3, #9
    73be:	489f      	ldr	r0, [pc, #636]	; (763c <fp_display+0x71c>)
    73c0:	220a      	movs	r2, #10
    73c2:	fb9a f1f2 	sdiv	r1, sl, r2
    73c6:	fb03 aa01 	mla	sl, r3, r1, sl
    73ca:	fb00 8a0a 	mla	sl, r0, sl, r8
    73ce:	fb9a f8f2 	sdiv	r8, sl, r2
    73d2:	fb03 a308 	mla	r3, r3, r8, sl
    73d6:	fb00 6603 	mla	r6, r0, r3, r6
    73da:	3605      	adds	r6, #5
    73dc:	3501      	adds	r5, #1
    73de:	fb96 f6f2 	sdiv	r6, r6, r2
    73e2:	468a      	mov	sl, r1
    73e4:	e004      	b.n	73f0 <fp_display+0x4d0>
    73e6:	2600      	movs	r6, #0
    73e8:	f06f 0504 	mvn.w	r5, #4
    73ec:	46b0      	mov	r8, r6
    73ee:	46b2      	mov	sl, r6
    73f0:	4621      	mov	r1, r4
    73f2:	2730      	movs	r7, #48	; 0x30
    73f4:	f801 7b06 	strb.w	r7, [r1], #6
    73f8:	4650      	mov	r0, sl
    73fa:	f7ff fd45 	bl	6e88 <pr_dec.constprop.1>
    73fe:	f104 010c 	add.w	r1, r4, #12
    7402:	4640      	mov	r0, r8
    7404:	f7ff fd40 	bl	6e88 <pr_dec.constprop.1>
    7408:	f104 0112 	add.w	r1, r4, #18
    740c:	4630      	mov	r0, r6
    740e:	f7ff fd3b 	bl	6e88 <pr_dec.constprop.1>
    7412:	2300      	movs	r3, #0
    7414:	7523      	strb	r3, [r4, #20]
    7416:	9b0a      	ldr	r3, [sp, #40]	; 0x28
    7418:	74e7      	strb	r7, [r4, #19]
    741a:	3505      	adds	r5, #5
    741c:	ea43 0585 	orr.w	r5, r3, r5, lsl #2
    7420:	e000      	b.n	7424 <fp_display+0x504>
    7422:	2500      	movs	r5, #0
    7424:	07eb      	lsls	r3, r5, #31
    7426:	d501      	bpl.n	742c <fp_display+0x50c>
    7428:	4b85      	ldr	r3, [pc, #532]	; (7640 <fp_display+0x720>)
    742a:	e00a      	b.n	7442 <fp_display+0x522>
    742c:	9b06      	ldr	r3, [sp, #24]
    742e:	079f      	lsls	r7, r3, #30
    7430:	d406      	bmi.n	7440 <fp_display+0x520>
    7432:	4a84      	ldr	r2, [pc, #528]	; (7644 <fp_display+0x724>)
    7434:	f013 0f04 	tst.w	r3, #4
    7438:	4b83      	ldr	r3, [pc, #524]	; (7648 <fp_display+0x728>)
    743a:	bf08      	it	eq
    743c:	4613      	moveq	r3, r2
    743e:	e000      	b.n	7442 <fp_display+0x522>
    7440:	4b82      	ldr	r3, [pc, #520]	; (764c <fp_display+0x72c>)
    7442:	9a2c      	ldr	r2, [sp, #176]	; 0xb0
    7444:	f8db 0000 	ldr.w	r0, [fp]
    7448:	6013      	str	r3, [r2, #0]
    744a:	f025 0501 	bic.w	r5, r5, #1
    744e:	2304      	movs	r3, #4
    7450:	fb95 f5f3 	sdiv	r5, r5, r3
    7454:	9b05      	ldr	r3, [sp, #20]
    7456:	2b61      	cmp	r3, #97	; 0x61
    7458:	d010      	beq.n	747c <fp_display+0x55c>
    745a:	dc06      	bgt.n	746a <fp_display+0x54a>
    745c:	2b45      	cmp	r3, #69	; 0x45
    745e:	d06d      	beq.n	753c <fp_display+0x61c>
    7460:	2b47      	cmp	r3, #71	; 0x47
    7462:	d04d      	beq.n	7500 <fp_display+0x5e0>
    7464:	2b41      	cmp	r3, #65	; 0x41
    7466:	d149      	bne.n	74fc <fp_display+0x5dc>
    7468:	e008      	b.n	747c <fp_display+0x55c>
    746a:	9b05      	ldr	r3, [sp, #20]
    746c:	2b66      	cmp	r3, #102	; 0x66
    746e:	f000 8106 	beq.w	767e <fp_display+0x75e>
    7472:	2b67      	cmp	r3, #103	; 0x67
    7474:	d044      	beq.n	7500 <fp_display+0x5e0>
    7476:	2b65      	cmp	r3, #101	; 0x65
    7478:	d140      	bne.n	74fc <fp_display+0x5dc>
    747a:	e05f      	b.n	753c <fp_display+0x61c>
    747c:	9907      	ldr	r1, [sp, #28]
    747e:	f3c1 0313 	ubfx	r3, r1, #0, #20
    7482:	9909      	ldr	r1, [sp, #36]	; 0x24
    7484:	2200      	movs	r2, #0
    7486:	430a      	orrs	r2, r1
    7488:	9907      	ldr	r1, [sp, #28]
    748a:	f3c1 550a 	ubfx	r5, r1, #20, #11
    748e:	b115      	cbz	r5, 7496 <fp_display+0x576>
    7490:	f2a5 31ff 	subw	r1, r5, #1023	; 0x3ff
    7494:	e004      	b.n	74a0 <fp_display+0x580>
    7496:	ea52 0103 	orrs.w	r1, r2, r3
    749a:	496d      	ldr	r1, [pc, #436]	; (7650 <fp_display+0x730>)
    749c:	bf08      	it	eq
    749e:	2100      	moveq	r1, #0
    74a0:	b988      	cbnz	r0, 74c6 <fp_display+0x5a6>
    74a2:	9e06      	ldr	r6, [sp, #24]
    74a4:	0736      	lsls	r6, r6, #28
    74a6:	d40e      	bmi.n	74c6 <fp_display+0x5a6>
    74a8:	2d00      	cmp	r5, #0
    74aa:	460b      	mov	r3, r1
    74ac:	4869      	ldr	r0, [pc, #420]	; (7654 <fp_display+0x734>)
    74ae:	9d05      	ldr	r5, [sp, #20]
    74b0:	4969      	ldr	r1, [pc, #420]	; (7658 <fp_display+0x738>)
    74b2:	bf0c      	ite	eq
    74b4:	2230      	moveq	r2, #48	; 0x30
    74b6:	2231      	movne	r2, #49	; 0x31
    74b8:	2d61      	cmp	r5, #97	; 0x61
    74ba:	bf08      	it	eq
    74bc:	4601      	moveq	r1, r0
    74be:	4620      	mov	r0, r4
    74c0:	f7ff fcf6 	bl	6eb0 <sprintf>
    74c4:	e010      	b.n	74e8 <fp_display+0x5c8>
    74c6:	2d00      	cmp	r5, #0
    74c8:	e9cd 2300 	strd	r2, r3, [sp]
    74cc:	9102      	str	r1, [sp, #8]
    74ce:	4603      	mov	r3, r0
    74d0:	4962      	ldr	r1, [pc, #392]	; (765c <fp_display+0x73c>)
    74d2:	4863      	ldr	r0, [pc, #396]	; (7660 <fp_display+0x740>)
    74d4:	9d05      	ldr	r5, [sp, #20]
    74d6:	bf0c      	ite	eq
    74d8:	2230      	moveq	r2, #48	; 0x30
    74da:	2231      	movne	r2, #49	; 0x31
    74dc:	2d61      	cmp	r5, #97	; 0x61
    74de:	bf08      	it	eq
    74e0:	4601      	moveq	r1, r0
    74e2:	4620      	mov	r0, r4
    74e4:	f7ff fce4 	bl	6eb0 <sprintf>
    74e8:	4a55      	ldr	r2, [pc, #340]	; (7640 <fp_display+0x720>)
    74ea:	4b56      	ldr	r3, [pc, #344]	; (7644 <fp_display+0x724>)
    74ec:	9907      	ldr	r1, [sp, #28]
    74ee:	ea33 0321 	bics.w	r3, r3, r1, asr #32
    74f2:	bf28      	it	cs
    74f4:	4613      	movcs	r3, r2
    74f6:	9a2c      	ldr	r2, [sp, #176]	; 0xb0
    74f8:	6013      	str	r3, [r2, #0]
    74fa:	e187      	b.n	780c <fp_display+0x8ec>
    74fc:	2367      	movs	r3, #103	; 0x67
    74fe:	9305      	str	r3, [sp, #20]
    7500:	9b06      	ldr	r3, [sp, #24]
    7502:	2800      	cmp	r0, #0
    7504:	f443 6300 	orr.w	r3, r3, #2048	; 0x800
    7508:	9306      	str	r3, [sp, #24]
    750a:	bfdc      	itt	le
    750c:	2301      	movle	r3, #1
    750e:	f8cb 3000 	strle.w	r3, [fp]
    7512:	f8db 1000 	ldr.w	r1, [fp]
    7516:	2911      	cmp	r1, #17
    7518:	bfd4      	ite	le
    751a:	3101      	addle	r1, #1
    751c:	2112      	movgt	r1, #18
    751e:	4620      	mov	r0, r4
    7520:	f7ff fc8b 	bl	6e3a <fp_round>
    7524:	f8db 3000 	ldr.w	r3, [fp]
    7528:	4405      	add	r5, r0
    752a:	429d      	cmp	r5, r3
    752c:	f2c0 80a0 	blt.w	7670 <fp_display+0x750>
    7530:	3b01      	subs	r3, #1
    7532:	f8cb 3000 	str.w	r3, [fp]
    7536:	9b05      	ldr	r3, [sp, #20]
    7538:	3b02      	subs	r3, #2
    753a:	9305      	str	r3, [sp, #20]
    753c:	f8db 3000 	ldr.w	r3, [fp]
    7540:	2b11      	cmp	r3, #17
    7542:	dd05      	ble.n	7550 <fp_display+0x630>
    7544:	9a2f      	ldr	r2, [sp, #188]	; 0xbc
    7546:	3b11      	subs	r3, #17
    7548:	6013      	str	r3, [r2, #0]
    754a:	2311      	movs	r3, #17
    754c:	f8cb 3000 	str.w	r3, [fp]
    7550:	9b06      	ldr	r3, [sp, #24]
    7552:	f8db 6000 	ldr.w	r6, [fp]
    7556:	f413 6700 	ands.w	r7, r3, #2048	; 0x800
    755a:	f106 0602 	add.w	r6, r6, #2
    755e:	d104      	bne.n	756a <fp_display+0x64a>
    7560:	4631      	mov	r1, r6
    7562:	4620      	mov	r0, r4
    7564:	f7ff fc69 	bl	6e3a <fp_round>
    7568:	4405      	add	r5, r0
    756a:	7863      	ldrb	r3, [r4, #1]
    756c:	7023      	strb	r3, [r4, #0]
    756e:	f8db 3000 	ldr.w	r3, [fp]
    7572:	b923      	cbnz	r3, 757e <fp_display+0x65e>
    7574:	9a06      	ldr	r2, [sp, #24]
    7576:	f640 0308 	movw	r3, #2056	; 0x808
    757a:	4013      	ands	r3, r2
    757c:	b113      	cbz	r3, 7584 <fp_display+0x664>
    757e:	232e      	movs	r3, #46	; 0x2e
    7580:	7063      	strb	r3, [r4, #1]
    7582:	e000      	b.n	7586 <fp_display+0x666>
    7584:	2601      	movs	r6, #1
    7586:	9b2f      	ldr	r3, [sp, #188]	; 0xbc
    7588:	681b      	ldr	r3, [r3, #0]
    758a:	2b00      	cmp	r3, #0
    758c:	bfc2      	ittt	gt
    758e:	233e      	movgt	r3, #62	; 0x3e
    7590:	55a3      	strbgt	r3, [r4, r6]
    7592:	3601      	addgt	r6, #1
    7594:	b177      	cbz	r7, 75b4 <fp_display+0x694>
    7596:	9b06      	ldr	r3, [sp, #24]
    7598:	071f      	lsls	r7, r3, #28
    759a:	d40b      	bmi.n	75b4 <fp_display+0x694>
    759c:	19a2      	adds	r2, r4, r6
    759e:	1b16      	subs	r6, r2, r4
    75a0:	f812 3d01 	ldrb.w	r3, [r2, #-1]!
    75a4:	2b30      	cmp	r3, #48	; 0x30
    75a6:	d0fa      	beq.n	759e <fp_display+0x67e>
    75a8:	2b3e      	cmp	r3, #62	; 0x3e
    75aa:	d0f8      	beq.n	759e <fp_display+0x67e>
    75ac:	2b2e      	cmp	r3, #46	; 0x2e
    75ae:	bf08      	it	eq
    75b0:	f106 36ff 	addeq.w	r6, r6, #4294967295
    75b4:	2d00      	cmp	r5, #0
    75b6:	f89d 3014 	ldrb.w	r3, [sp, #20]
    75ba:	55a3      	strb	r3, [r4, r6]
    75bc:	f106 0201 	add.w	r2, r6, #1
    75c0:	f106 0302 	add.w	r3, r6, #2
    75c4:	bfbb      	ittet	lt
    75c6:	426d      	neglt	r5, r5
    75c8:	212d      	movlt	r1, #45	; 0x2d
    75ca:	212b      	movge	r1, #43	; 0x2b
    75cc:	461e      	movlt	r6, r3
    75ce:	bfa8      	it	ge
    75d0:	461e      	movge	r6, r3
    75d2:	f5b5 7f7a 	cmp.w	r5, #1000	; 0x3e8
    75d6:	54a1      	strb	r1, [r4, r2]
    75d8:	db0a      	blt.n	75f0 <fp_display+0x6d0>
    75da:	f44f 727a 	mov.w	r2, #1000	; 0x3e8
    75de:	fb95 f2f2 	sdiv	r2, r5, r2
    75e2:	f102 0130 	add.w	r1, r2, #48	; 0x30
    75e6:	54e1      	strb	r1, [r4, r3]
    75e8:	491e      	ldr	r1, [pc, #120]	; (7664 <fp_display+0x744>)
    75ea:	1c5e      	adds	r6, r3, #1
    75ec:	fb01 5502 	mla	r5, r1, r2, r5
    75f0:	2d63      	cmp	r5, #99	; 0x63
    75f2:	dd0a      	ble.n	760a <fp_display+0x6ea>
    75f4:	2364      	movs	r3, #100	; 0x64
    75f6:	fb95 f3f3 	sdiv	r3, r5, r3
    75fa:	f103 0230 	add.w	r2, r3, #48	; 0x30
    75fe:	55a2      	strb	r2, [r4, r6]
    7600:	f06f 0263 	mvn.w	r2, #99	; 0x63
    7604:	fb02 5503 	mla	r5, r2, r3, r5
    7608:	3601      	adds	r6, #1
    760a:	230a      	movs	r3, #10
    760c:	fb95 f3f3 	sdiv	r3, r5, r3
    7610:	b2db      	uxtb	r3, r3
    7612:	f103 0230 	add.w	r2, r3, #48	; 0x30
    7616:	55a2      	strb	r2, [r4, r6]
    7618:	ebc3 1243 	rsb	r2, r3, r3, lsl #5
    761c:	4434      	add	r4, r6
    761e:	ebc3 0382 	rsb	r3, r3, r2, lsl #2
    7622:	3530      	adds	r5, #48	; 0x30
    7624:	eb05 0343 	add.w	r3, r5, r3, lsl #1
    7628:	7063      	strb	r3, [r4, #1]
    762a:	1cb0      	adds	r0, r6, #2
    762c:	e0ee      	b.n	780c <fp_display+0x8ec>
    762e:	bf00      	nop
    7630:	000f423f 	.word	0x000f423f
    7634:	0001869f 	.word	0x0001869f
    7638:	fffe7960 	.word	0xfffe7960
    763c:	000f4240 	.word	0x000f4240
    7640:	0001f09d 	.word	0x0001f09d
    7644:	0001f0f7 	.word	0x0001f0f7
    7648:	0001f06d 	.word	0x0001f06d
    764c:	0001f06b 	.word	0x0001f06b
    7650:	fffffc01 	.word	0xfffffc01
    7654:	0001f06f 	.word	0x0001f06f
    7658:	0001f077 	.word	0x0001f077
    765c:	0001f08e 	.word	0x0001f08e
    7660:	0001f07f 	.word	0x0001f07f
    7664:	fffffc18 	.word	0xfffffc18
    7668:	00000000 	.word	0x00000000
    766c:	412e8480 	.word	0x412e8480
    7670:	1d2a      	adds	r2, r5, #4
    7672:	f6ff af5d 	blt.w	7530 <fp_display+0x610>
    7676:	1c6a      	adds	r2, r5, #1
    7678:	1a9b      	subs	r3, r3, r2
    767a:	f8cb 3000 	str.w	r3, [fp]
    767e:	9a06      	ldr	r2, [sp, #24]
    7680:	f8db 3000 	ldr.w	r3, [fp]
    7684:	2d00      	cmp	r5, #0
    7686:	f402 6700 	and.w	r7, r2, #2048	; 0x800
    768a:	da4c      	bge.n	7726 <fp_display+0x806>
    768c:	f1c5 0800 	rsb	r8, r5, #0
    7690:	1c5a      	adds	r2, r3, #1
    7692:	4590      	cmp	r8, r2
    7694:	dd09      	ble.n	76aa <fp_display+0x78a>
    7696:	2330      	movs	r3, #48	; 0x30
    7698:	7023      	strb	r3, [r4, #0]
    769a:	232e      	movs	r3, #46	; 0x2e
    769c:	7063      	strb	r3, [r4, #1]
    769e:	9a2f      	ldr	r2, [sp, #188]	; 0xbc
    76a0:	f8db 3000 	ldr.w	r3, [fp]
    76a4:	6013      	str	r3, [r2, #0]
    76a6:	2602      	movs	r6, #2
    76a8:	e038      	b.n	771c <fp_display+0x7fc>
    76aa:	442b      	add	r3, r5
    76ac:	1c9e      	adds	r6, r3, #2
    76ae:	2e12      	cmp	r6, #18
    76b0:	bfc1      	itttt	gt
    76b2:	9a2f      	ldrgt	r2, [sp, #188]	; 0xbc
    76b4:	3b11      	subgt	r3, #17
    76b6:	6013      	strgt	r3, [r2, #0]
    76b8:	2613      	movgt	r6, #19
    76ba:	b95f      	cbnz	r7, 76d4 <fp_display+0x7b4>
    76bc:	4631      	mov	r1, r6
    76be:	4620      	mov	r0, r4
    76c0:	f7ff fbbb 	bl	6e3a <fp_round>
    76c4:	b130      	cbz	r0, 76d4 <fp_display+0x7b4>
    76c6:	ea7f 0805 	mvns.w	r8, r5
    76ca:	f106 0601 	add.w	r6, r6, #1
    76ce:	d101      	bne.n	76d4 <fp_display+0x7b4>
    76d0:	7863      	ldrb	r3, [r4, #1]
    76d2:	e00d      	b.n	76f0 <fp_display+0x7d0>
    76d4:	f1b8 0f01 	cmp.w	r8, #1
    76d8:	eb04 0306 	add.w	r3, r4, r6
    76dc:	d10c      	bne.n	76f8 <fp_display+0x7d8>
    76de:	1b1a      	subs	r2, r3, r4
    76e0:	2a00      	cmp	r2, #0
    76e2:	dd03      	ble.n	76ec <fp_display+0x7cc>
    76e4:	f813 2901 	ldrb.w	r2, [r3], #-1
    76e8:	709a      	strb	r2, [r3, #2]
    76ea:	e7f8      	b.n	76de <fp_display+0x7be>
    76ec:	3601      	adds	r6, #1
    76ee:	2330      	movs	r3, #48	; 0x30
    76f0:	7023      	strb	r3, [r4, #0]
    76f2:	232e      	movs	r3, #46	; 0x2e
    76f4:	7063      	strb	r3, [r4, #1]
    76f6:	e011      	b.n	771c <fp_display+0x7fc>
    76f8:	1b1a      	subs	r2, r3, r4
    76fa:	2a00      	cmp	r2, #0
    76fc:	dd03      	ble.n	7706 <fp_display+0x7e6>
    76fe:	f813 2901 	ldrb.w	r2, [r3], #-1
    7702:	70da      	strb	r2, [r3, #3]
    7704:	e7f8      	b.n	76f8 <fp_display+0x7d8>
    7706:	2330      	movs	r3, #48	; 0x30
    7708:	7023      	strb	r3, [r4, #0]
    770a:	232e      	movs	r3, #46	; 0x2e
    770c:	7063      	strb	r3, [r4, #1]
    770e:	9a2e      	ldr	r2, [sp, #184]	; 0xb8
    7710:	233c      	movs	r3, #60	; 0x3c
    7712:	70a3      	strb	r3, [r4, #2]
    7714:	f108 33ff 	add.w	r3, r8, #4294967295
    7718:	3602      	adds	r6, #2
    771a:	6013      	str	r3, [r2, #0]
    771c:	9b2f      	ldr	r3, [sp, #188]	; 0xbc
    771e:	681b      	ldr	r3, [r3, #0]
    7720:	2b00      	cmp	r3, #0
    7722:	dc25      	bgt.n	7770 <fp_display+0x850>
    7724:	e059      	b.n	77da <fp_display+0x8ba>
    7726:	eb05 0803 	add.w	r8, r5, r3
    772a:	f108 0602 	add.w	r6, r8, #2
    772e:	2e12      	cmp	r6, #18
    7730:	dd3d      	ble.n	77ae <fp_display+0x88e>
    7732:	b93f      	cbnz	r7, 7744 <fp_display+0x824>
    7734:	2113      	movs	r1, #19
    7736:	4620      	mov	r0, r4
    7738:	f7ff fb7f 	bl	6e3a <fp_round>
    773c:	b110      	cbz	r0, 7744 <fp_display+0x824>
    773e:	3501      	adds	r5, #1
    7740:	2614      	movs	r6, #20
    7742:	e000      	b.n	7746 <fp_display+0x826>
    7744:	2613      	movs	r6, #19
    7746:	1e72      	subs	r2, r6, #1
    7748:	4295      	cmp	r5, r2
    774a:	4623      	mov	r3, r4
    774c:	da14      	bge.n	7778 <fp_display+0x858>
    774e:	f813 2f01 	ldrb.w	r2, [r3, #1]!
    7752:	f803 2c01 	strb.w	r2, [r3, #-1]
    7756:	1b1a      	subs	r2, r3, r4
    7758:	4295      	cmp	r5, r2
    775a:	daf8      	bge.n	774e <fp_display+0x82e>
    775c:	1963      	adds	r3, r4, r5
    775e:	222e      	movs	r2, #46	; 0x2e
    7760:	705a      	strb	r2, [r3, #1]
    7762:	f8db 3000 	ldr.w	r3, [fp]
    7766:	441d      	add	r5, r3
    7768:	9b2f      	ldr	r3, [sp, #188]	; 0xbc
    776a:	3d11      	subs	r5, #17
    776c:	601d      	str	r5, [r3, #0]
    776e:	b3a5      	cbz	r5, 77da <fp_display+0x8ba>
    7770:	233e      	movs	r3, #62	; 0x3e
    7772:	55a3      	strb	r3, [r4, r6]
    7774:	3601      	adds	r6, #1
    7776:	e030      	b.n	77da <fp_display+0x8ba>
    7778:	f813 1f01 	ldrb.w	r1, [r3, #1]!
    777c:	f803 1c01 	strb.w	r1, [r3, #-1]
    7780:	1b19      	subs	r1, r3, r4
    7782:	428a      	cmp	r2, r1
    7784:	dcf8      	bgt.n	7778 <fp_display+0x858>
    7786:	19a3      	adds	r3, r4, r6
    7788:	223c      	movs	r2, #60	; 0x3c
    778a:	f803 2c01 	strb.w	r2, [r3, #-1]
    778e:	1bad      	subs	r5, r5, r6
    7790:	9b2e      	ldr	r3, [sp, #184]	; 0xb8
    7792:	222e      	movs	r2, #46	; 0x2e
    7794:	3502      	adds	r5, #2
    7796:	601d      	str	r5, [r3, #0]
    7798:	55a2      	strb	r2, [r4, r6]
    779a:	f8db 2000 	ldr.w	r2, [fp]
    779e:	1c73      	adds	r3, r6, #1
    77a0:	b1d2      	cbz	r2, 77d8 <fp_display+0x8b8>
    77a2:	992f      	ldr	r1, [sp, #188]	; 0xbc
    77a4:	600a      	str	r2, [r1, #0]
    77a6:	223e      	movs	r2, #62	; 0x3e
    77a8:	3602      	adds	r6, #2
    77aa:	54e2      	strb	r2, [r4, r3]
    77ac:	e015      	b.n	77da <fp_display+0x8ba>
    77ae:	b93f      	cbnz	r7, 77c0 <fp_display+0x8a0>
    77b0:	4631      	mov	r1, r6
    77b2:	4620      	mov	r0, r4
    77b4:	f7ff fb41 	bl	6e3a <fp_round>
    77b8:	b110      	cbz	r0, 77c0 <fp_display+0x8a0>
    77ba:	3501      	adds	r5, #1
    77bc:	f108 0603 	add.w	r6, r8, #3
    77c0:	4623      	mov	r3, r4
    77c2:	f813 2f01 	ldrb.w	r2, [r3, #1]!
    77c6:	f803 2c01 	strb.w	r2, [r3, #-1]
    77ca:	1b1a      	subs	r2, r3, r4
    77cc:	4295      	cmp	r5, r2
    77ce:	daf8      	bge.n	77c2 <fp_display+0x8a2>
    77d0:	4425      	add	r5, r4
    77d2:	232e      	movs	r3, #46	; 0x2e
    77d4:	706b      	strb	r3, [r5, #1]
    77d6:	e000      	b.n	77da <fp_display+0x8ba>
    77d8:	461e      	mov	r6, r3
    77da:	b177      	cbz	r7, 77fa <fp_display+0x8da>
    77dc:	9b06      	ldr	r3, [sp, #24]
    77de:	0718      	lsls	r0, r3, #28
    77e0:	d413      	bmi.n	780a <fp_display+0x8ea>
    77e2:	4426      	add	r6, r4
    77e4:	1b30      	subs	r0, r6, r4
    77e6:	f816 3d01 	ldrb.w	r3, [r6, #-1]!
    77ea:	2b30      	cmp	r3, #48	; 0x30
    77ec:	d0fa      	beq.n	77e4 <fp_display+0x8c4>
    77ee:	2b3e      	cmp	r3, #62	; 0x3e
    77f0:	d0f8      	beq.n	77e4 <fp_display+0x8c4>
    77f2:	2b2e      	cmp	r3, #46	; 0x2e
    77f4:	d10a      	bne.n	780c <fp_display+0x8ec>
    77f6:	3801      	subs	r0, #1
    77f8:	e008      	b.n	780c <fp_display+0x8ec>
    77fa:	f8db 3000 	ldr.w	r3, [fp]
    77fe:	b923      	cbnz	r3, 780a <fp_display+0x8ea>
    7800:	9b06      	ldr	r3, [sp, #24]
    7802:	0719      	lsls	r1, r3, #28
    7804:	d401      	bmi.n	780a <fp_display+0x8ea>
    7806:	1e70      	subs	r0, r6, #1
    7808:	e000      	b.n	780c <fp_display+0x8ec>
    780a:	4630      	mov	r0, r6
    780c:	b01d      	add	sp, #116	; 0x74
    780e:	ecbd 8b06 	vpop	{d8-d10}
    7812:	e8bd 8ff0 	ldmia.w	sp!, {r4, r5, r6, r7, r8, r9, sl, fp, pc}
    7816:	bf00      	nop

00007818 <vsnprintf>:
    7818:	b5f0      	push	{r4, r5, r6, r7, lr}
    781a:	b08f      	sub	sp, #60	; 0x3c
    781c:	4604      	mov	r4, r0
    781e:	460d      	mov	r5, r1
    7820:	4616      	mov	r6, r2
    7822:	2100      	movs	r1, #0
    7824:	2228      	movs	r2, #40	; 0x28
    7826:	a804      	add	r0, sp, #16
    7828:	461f      	mov	r7, r3
    782a:	f7ff fb04 	bl	6e36 <memset>
    782e:	230a      	movs	r3, #10
    7830:	9307      	str	r3, [sp, #28]
    7832:	f06f 4300 	mvn.w	r3, #2147483648	; 0x80000000
    7836:	9404      	str	r4, [sp, #16]
    7838:	9306      	str	r3, [sp, #24]
    783a:	2400      	movs	r4, #0
    783c:	4b0c      	ldr	r3, [pc, #48]	; (7870 <vsnprintf+0x58>)
    783e:	9302      	str	r3, [sp, #8]
    7840:	1e6a      	subs	r2, r5, #1
    7842:	4623      	mov	r3, r4
    7844:	e88d 00c0 	stmia.w	sp, {r6, r7}
    7848:	a804      	add	r0, sp, #16
    784a:	f000 f88f 	bl	796c <__vfprintf>
    784e:	9b06      	ldr	r3, [sp, #24]
    7850:	3b01      	subs	r3, #1
    7852:	42a3      	cmp	r3, r4
    7854:	4605      	mov	r5, r0
    7856:	9306      	str	r3, [sp, #24]
    7858:	db02      	blt.n	7860 <vsnprintf+0x48>
    785a:	9b04      	ldr	r3, [sp, #16]
    785c:	701c      	strb	r4, [r3, #0]
    785e:	e003      	b.n	7868 <vsnprintf+0x50>
    7860:	a904      	add	r1, sp, #16
    7862:	4620      	mov	r0, r4
    7864:	f001 f852 	bl	890c <__flsbuf>
    7868:	4628      	mov	r0, r5
    786a:	b00f      	add	sp, #60	; 0x3c
    786c:	bdf0      	pop	{r4, r5, r6, r7, pc}
    786e:	bf00      	nop
    7870:	00006f21 	.word	0x00006f21

00007874 <printf>:
    7874:	b40f      	push	{r0, r1, r2, r3}
    7876:	b573      	push	{r0, r1, r4, r5, r6, lr}
    7878:	ab06      	add	r3, sp, #24
    787a:	2101      	movs	r1, #1
    787c:	f853 6b04 	ldr.w	r6, [r3], #4
    7880:	9301      	str	r3, [sp, #4]
    7882:	4632      	mov	r2, r6
    7884:	4668      	mov	r0, sp
    7886:	f7ff ffc7 	bl	7818 <vsnprintf>
    788a:	1e04      	subs	r4, r0, #0
    788c:	dd13      	ble.n	78b6 <printf+0x42>
    788e:	1c65      	adds	r5, r4, #1
    7890:	4628      	mov	r0, r5
    7892:	f001 f9c3 	bl	8c1c <malloc>
    7896:	9000      	str	r0, [sp, #0]
    7898:	b168      	cbz	r0, 78b6 <printf+0x42>
    789a:	9b01      	ldr	r3, [sp, #4]
    789c:	4632      	mov	r2, r6
    789e:	4629      	mov	r1, r5
    78a0:	f7ff ffba 	bl	7818 <vsnprintf>
    78a4:	4b07      	ldr	r3, [pc, #28]	; (78c4 <printf+0x50>)
    78a6:	9900      	ldr	r1, [sp, #0]
    78a8:	6bd8      	ldr	r0, [r3, #60]	; 0x3c
    78aa:	4622      	mov	r2, r4
    78ac:	f7fa fb4c 	bl	1f48 <__sys_write>
    78b0:	9800      	ldr	r0, [sp, #0]
    78b2:	f001 fa17 	bl	8ce4 <free>
    78b6:	4620      	mov	r0, r4
    78b8:	b002      	add	sp, #8
    78ba:	e8bd 4070 	ldmia.w	sp!, {r4, r5, r6, lr}
    78be:	b004      	add	sp, #16
    78c0:	4770      	bx	lr
    78c2:	bf00      	nop
    78c4:	20000110 	.word	0x20000110

000078c8 <_initio>:
    78c8:	b570      	push	{r4, r5, r6, lr}
    78ca:	f44f 72a0 	mov.w	r2, #320	; 0x140
    78ce:	2100      	movs	r1, #0
    78d0:	4820      	ldr	r0, [pc, #128]	; (7954 <_initio+0x8c>)
    78d2:	4c21      	ldr	r4, [pc, #132]	; (7958 <_initio+0x90>)
    78d4:	4d1f      	ldr	r5, [pc, #124]	; (7954 <_initio+0x8c>)
    78d6:	f7ff faae 	bl	6e36 <memset>
    78da:	20c0      	movs	r0, #192	; 0xc0
    78dc:	f001 fa1a 	bl	8d14 <_Csys_alloc>
    78e0:	22c0      	movs	r2, #192	; 0xc0
    78e2:	2100      	movs	r1, #0
    78e4:	6020      	str	r0, [r4, #0]
    78e6:	2628      	movs	r6, #40	; 0x28
    78e8:	f7ff faa5 	bl	6e36 <memset>
    78ec:	6820      	ldr	r0, [r4, #0]
    78ee:	2300      	movs	r3, #0
    78f0:	2418      	movs	r4, #24
    78f2:	fb06 5203 	mla	r2, r6, r3, r5
    78f6:	fb04 0103 	mla	r1, r4, r3, r0
    78fa:	3301      	adds	r3, #1
    78fc:	2b08      	cmp	r3, #8
    78fe:	6251      	str	r1, [r2, #36]	; 0x24
    7900:	d1f7      	bne.n	78f2 <_initio+0x2a>
    7902:	4a14      	ldr	r2, [pc, #80]	; (7954 <_initio+0x8c>)
    7904:	4915      	ldr	r1, [pc, #84]	; (795c <_initio+0x94>)
    7906:	2000      	movs	r0, #0
    7908:	f001 f8a0 	bl	8a4c <_fdopen>
    790c:	f44f 5380 	mov.w	r3, #4096	; 0x1000
    7910:	f44f 6280 	mov.w	r2, #1024	; 0x400
    7914:	2100      	movs	r1, #0
    7916:	480f      	ldr	r0, [pc, #60]	; (7954 <_initio+0x8c>)
    7918:	f000 fecc 	bl	86b4 <setvbuf>
    791c:	4a10      	ldr	r2, [pc, #64]	; (7960 <_initio+0x98>)
    791e:	4911      	ldr	r1, [pc, #68]	; (7964 <_initio+0x9c>)
    7920:	2001      	movs	r0, #1
    7922:	f001 f893 	bl	8a4c <_fdopen>
    7926:	f44f 5380 	mov.w	r3, #4096	; 0x1000
    792a:	f44f 6280 	mov.w	r2, #1024	; 0x400
    792e:	2100      	movs	r1, #0
    7930:	480b      	ldr	r0, [pc, #44]	; (7960 <_initio+0x98>)
    7932:	f000 febf 	bl	86b4 <setvbuf>
    7936:	4a0c      	ldr	r2, [pc, #48]	; (7968 <_initio+0xa0>)
    7938:	490a      	ldr	r1, [pc, #40]	; (7964 <_initio+0x9c>)
    793a:	2002      	movs	r0, #2
    793c:	f001 f886 	bl	8a4c <_fdopen>
    7940:	f44f 5380 	mov.w	r3, #4096	; 0x1000
    7944:	f44f 6280 	mov.w	r2, #1024	; 0x400
    7948:	2100      	movs	r1, #0
    794a:	4807      	ldr	r0, [pc, #28]	; (7968 <_initio+0xa0>)
    794c:	e8bd 4070 	ldmia.w	sp!, {r4, r5, r6, lr}
    7950:	f000 beb0 	b.w	86b4 <setvbuf>
    7954:	20000110 	.word	0x20000110
    7958:	2000010c 	.word	0x2000010c
    795c:	0001f09f 	.word	0x0001f09f
    7960:	20000138 	.word	0x20000138
    7964:	0001f0a1 	.word	0x0001f0a1
    7968:	20000160 	.word	0x20000160

0000796c <__vfprintf>:
    796c:	e92d 4ff0 	stmdb	sp!, {r4, r5, r6, r7, r8, r9, sl, fp, lr}
    7970:	b0b1      	sub	sp, #196	; 0xc4
    7972:	e9cd 230c 	strd	r2, r3, [sp, #48]	; 0x30
    7976:	f8dd 80ec 	ldr.w	r8, [sp, #236]	; 0xec
    797a:	9b3a      	ldr	r3, [sp, #232]	; 0xe8
    797c:	2200      	movs	r2, #0
    797e:	4605      	mov	r5, r0
    7980:	9204      	str	r2, [sp, #16]
    7982:	7818      	ldrb	r0, [r3, #0]
    7984:	f103 0a01 	add.w	sl, r3, #1
    7988:	2800      	cmp	r0, #0
    798a:	f000 868e 	beq.w	86aa <__vfprintf+0xd3e>
    798e:	2825      	cmp	r0, #37	; 0x25
    7990:	d101      	bne.n	7996 <__vfprintf+0x2a>
    7992:	2400      	movs	r4, #0
    7994:	e01f      	b.n	79d6 <__vfprintf+0x6a>
    7996:	9b04      	ldr	r3, [sp, #16]
    7998:	e9dd 670c 	ldrd	r6, r7, [sp, #48]	; 0x30
    799c:	4619      	mov	r1, r3
    799e:	17da      	asrs	r2, r3, #31
    79a0:	1c5c      	adds	r4, r3, #1
    79a2:	42b1      	cmp	r1, r6
    79a4:	4613      	mov	r3, r2
    79a6:	41bb      	sbcs	r3, r7
    79a8:	f280 8673 	bge.w	8692 <__vfprintf+0xd26>
    79ac:	68ab      	ldr	r3, [r5, #8]
    79ae:	3b01      	subs	r3, #1
    79b0:	2b00      	cmp	r3, #0
    79b2:	60ab      	str	r3, [r5, #8]
    79b4:	db05      	blt.n	79c2 <__vfprintf+0x56>
    79b6:	682b      	ldr	r3, [r5, #0]
    79b8:	1c5a      	adds	r2, r3, #1
    79ba:	602a      	str	r2, [r5, #0]
    79bc:	7018      	strb	r0, [r3, #0]
    79be:	f000 be68 	b.w	8692 <__vfprintf+0xd26>
    79c2:	4629      	mov	r1, r5
    79c4:	f000 ffa2 	bl	890c <__flsbuf>
    79c8:	f000 be63 	b.w	8692 <__vfprintf+0xd26>
    79cc:	d909      	bls.n	79e2 <__vfprintf+0x76>
    79ce:	2f2d      	cmp	r7, #45	; 0x2d
    79d0:	d10e      	bne.n	79f0 <__vfprintf+0x84>
    79d2:	f044 0401 	orr.w	r4, r4, #1
    79d6:	4653      	mov	r3, sl
    79d8:	f81a 7b01 	ldrb.w	r7, [sl], #1
    79dc:	2f2b      	cmp	r7, #43	; 0x2b
    79de:	d1f5      	bne.n	79cc <__vfprintf+0x60>
    79e0:	e00b      	b.n	79fa <__vfprintf+0x8e>
    79e2:	2f20      	cmp	r7, #32
    79e4:	d00c      	beq.n	7a00 <__vfprintf+0x94>
    79e6:	2f23      	cmp	r7, #35	; 0x23
    79e8:	d10d      	bne.n	7a06 <__vfprintf+0x9a>
    79ea:	f044 0408 	orr.w	r4, r4, #8
    79ee:	e7f2      	b.n	79d6 <__vfprintf+0x6a>
    79f0:	2f30      	cmp	r7, #48	; 0x30
    79f2:	d108      	bne.n	7a06 <__vfprintf+0x9a>
    79f4:	f444 7400 	orr.w	r4, r4, #512	; 0x200
    79f8:	e7ed      	b.n	79d6 <__vfprintf+0x6a>
    79fa:	f044 0402 	orr.w	r4, r4, #2
    79fe:	e7ea      	b.n	79d6 <__vfprintf+0x6a>
    7a00:	f044 0404 	orr.w	r4, r4, #4
    7a04:	e7e7      	b.n	79d6 <__vfprintf+0x6a>
    7a06:	2f2a      	cmp	r7, #42	; 0x2a
    7a08:	d002      	beq.n	7a10 <__vfprintf+0xa4>
    7a0a:	2600      	movs	r6, #0
    7a0c:	220a      	movs	r2, #10
    7a0e:	e011      	b.n	7a34 <__vfprintf+0xc8>
    7a10:	f8d8 6000 	ldr.w	r6, [r8]
    7a14:	785f      	ldrb	r7, [r3, #1]
    7a16:	2e00      	cmp	r6, #0
    7a18:	f108 0204 	add.w	r2, r8, #4
    7a1c:	bfbc      	itt	lt
    7a1e:	4276      	neglt	r6, r6
    7a20:	f084 0401 	eorlt.w	r4, r4, #1
    7a24:	f103 0a02 	add.w	sl, r3, #2
    7a28:	4690      	mov	r8, r2
    7a2a:	e008      	b.n	7a3e <__vfprintf+0xd2>
    7a2c:	f81a 7b01 	ldrb.w	r7, [sl], #1
    7a30:	fb02 3606 	mla	r6, r2, r6, r3
    7a34:	f1a7 0330 	sub.w	r3, r7, #48	; 0x30
    7a38:	b2d9      	uxtb	r1, r3
    7a3a:	2909      	cmp	r1, #9
    7a3c:	d9f6      	bls.n	7a2c <__vfprintf+0xc0>
    7a3e:	ea26 73e6 	bic.w	r3, r6, r6, asr #31
    7a42:	2f2e      	cmp	r7, #46	; 0x2e
    7a44:	9310      	str	r3, [sp, #64]	; 0x40
    7a46:	d11e      	bne.n	7a86 <__vfprintf+0x11a>
    7a48:	f89a 7000 	ldrb.w	r7, [sl]
    7a4c:	2f2a      	cmp	r7, #42	; 0x2a
    7a4e:	d109      	bne.n	7a64 <__vfprintf+0xf8>
    7a50:	f8d8 3000 	ldr.w	r3, [r8]
    7a54:	f89a 7001 	ldrb.w	r7, [sl, #1]
    7a58:	9308      	str	r3, [sp, #32]
    7a5a:	f108 0804 	add.w	r8, r8, #4
    7a5e:	f10a 0a02 	add.w	sl, sl, #2
    7a62:	e00a      	b.n	7a7a <__vfprintf+0x10e>
    7a64:	2300      	movs	r3, #0
    7a66:	f10a 0a01 	add.w	sl, sl, #1
    7a6a:	9308      	str	r3, [sp, #32]
    7a6c:	220a      	movs	r2, #10
    7a6e:	f1a7 0330 	sub.w	r3, r7, #48	; 0x30
    7a72:	b2d9      	uxtb	r1, r3
    7a74:	2909      	cmp	r1, #9
    7a76:	f240 8610 	bls.w	869a <__vfprintf+0xd2e>
    7a7a:	9b08      	ldr	r3, [sp, #32]
    7a7c:	2b00      	cmp	r3, #0
    7a7e:	db02      	blt.n	7a86 <__vfprintf+0x11a>
    7a80:	f044 0410 	orr.w	r4, r4, #16
    7a84:	e001      	b.n	7a8a <__vfprintf+0x11e>
    7a86:	2300      	movs	r3, #0
    7a88:	9308      	str	r3, [sp, #32]
    7a8a:	2f6c      	cmp	r7, #108	; 0x6c
    7a8c:	d10e      	bne.n	7aac <__vfprintf+0x140>
    7a8e:	f89a 7000 	ldrb.w	r7, [sl]
    7a92:	2f6c      	cmp	r7, #108	; 0x6c
    7a94:	bf03      	ittte	eq
    7a96:	f89a 7001 	ldrbeq.w	r7, [sl, #1]
    7a9a:	f044 0460 	orreq.w	r4, r4, #96	; 0x60
    7a9e:	f10a 0a02 	addeq.w	sl, sl, #2
    7aa2:	f10a 0a01 	addne.w	sl, sl, #1
    7aa6:	bf18      	it	ne
    7aa8:	f044 0420 	orrne.w	r4, r4, #32
    7aac:	2f4c      	cmp	r7, #76	; 0x4c
    7aae:	d001      	beq.n	7ab4 <__vfprintf+0x148>
    7ab0:	2f71      	cmp	r7, #113	; 0x71
    7ab2:	d104      	bne.n	7abe <__vfprintf+0x152>
    7ab4:	f89a 7000 	ldrb.w	r7, [sl]
    7ab8:	f044 0460 	orr.w	r4, r4, #96	; 0x60
    7abc:	e01c      	b.n	7af8 <__vfprintf+0x18c>
    7abe:	2f68      	cmp	r7, #104	; 0x68
    7ac0:	d10f      	bne.n	7ae2 <__vfprintf+0x176>
    7ac2:	f89a 7000 	ldrb.w	r7, [sl]
    7ac6:	2f68      	cmp	r7, #104	; 0x68
    7ac8:	bf03      	ittte	eq
    7aca:	f89a 7001 	ldrbeq.w	r7, [sl, #1]
    7ace:	f444 7480 	orreq.w	r4, r4, #256	; 0x100
    7ad2:	f10a 0a02 	addeq.w	sl, sl, #2
    7ad6:	f10a 0a01 	addne.w	sl, sl, #1
    7ada:	bf18      	it	ne
    7adc:	f044 0480 	orrne.w	r4, r4, #128	; 0x80
    7ae0:	e00c      	b.n	7afc <__vfprintf+0x190>
    7ae2:	2f6a      	cmp	r7, #106	; 0x6a
    7ae4:	d102      	bne.n	7aec <__vfprintf+0x180>
    7ae6:	f044 0440 	orr.w	r4, r4, #64	; 0x40
    7aea:	e003      	b.n	7af4 <__vfprintf+0x188>
    7aec:	2f7a      	cmp	r7, #122	; 0x7a
    7aee:	d001      	beq.n	7af4 <__vfprintf+0x188>
    7af0:	2f74      	cmp	r7, #116	; 0x74
    7af2:	d103      	bne.n	7afc <__vfprintf+0x190>
    7af4:	f89a 7000 	ldrb.w	r7, [sl]
    7af8:	f10a 0a01 	add.w	sl, sl, #1
    7afc:	2f67      	cmp	r7, #103	; 0x67
    7afe:	dc1c      	bgt.n	7b3a <__vfprintf+0x1ce>
    7b00:	2f65      	cmp	r7, #101	; 0x65
    7b02:	f280 82b3 	bge.w	806c <__vfprintf+0x700>
    7b06:	2f47      	cmp	r7, #71	; 0x47
    7b08:	f000 82b0 	beq.w	806c <__vfprintf+0x700>
    7b0c:	dc09      	bgt.n	7b22 <__vfprintf+0x1b6>
    7b0e:	2f41      	cmp	r7, #65	; 0x41
    7b10:	f000 82a6 	beq.w	8060 <__vfprintf+0x6f4>
    7b14:	2f45      	cmp	r7, #69	; 0x45
    7b16:	f000 82a9 	beq.w	806c <__vfprintf+0x700>
    7b1a:	2f00      	cmp	r7, #0
    7b1c:	f000 80be 	beq.w	7c9c <__vfprintf+0x330>
    7b20:	e027      	b.n	7b72 <__vfprintf+0x206>
    7b22:	2f61      	cmp	r7, #97	; 0x61
    7b24:	f000 829c 	beq.w	8060 <__vfprintf+0x6f4>
    7b28:	dc03      	bgt.n	7b32 <__vfprintf+0x1c6>
    7b2a:	2f58      	cmp	r7, #88	; 0x58
    7b2c:	f000 81a9 	beq.w	7e82 <__vfprintf+0x516>
    7b30:	e01f      	b.n	7b72 <__vfprintf+0x206>
    7b32:	2f63      	cmp	r7, #99	; 0x63
    7b34:	d017      	beq.n	7b66 <__vfprintf+0x1fa>
    7b36:	2f64      	cmp	r7, #100	; 0x64
    7b38:	e009      	b.n	7b4e <__vfprintf+0x1e2>
    7b3a:	2f70      	cmp	r7, #112	; 0x70
    7b3c:	f000 81f7 	beq.w	7f2e <__vfprintf+0x5c2>
    7b40:	dc08      	bgt.n	7b54 <__vfprintf+0x1e8>
    7b42:	2f6e      	cmp	r7, #110	; 0x6e
    7b44:	f000 80b0 	beq.w	7ca8 <__vfprintf+0x33c>
    7b48:	f300 81fc 	bgt.w	7f44 <__vfprintf+0x5d8>
    7b4c:	2f69      	cmp	r7, #105	; 0x69
    7b4e:	f000 8250 	beq.w	7ff2 <__vfprintf+0x686>
    7b52:	e00e      	b.n	7b72 <__vfprintf+0x206>
    7b54:	2f75      	cmp	r7, #117	; 0x75
    7b56:	f000 8219 	beq.w	7f8c <__vfprintf+0x620>
    7b5a:	2f78      	cmp	r7, #120	; 0x78
    7b5c:	f000 81bc 	beq.w	7ed8 <__vfprintf+0x56c>
    7b60:	2f73      	cmp	r7, #115	; 0x73
    7b62:	d106      	bne.n	7b72 <__vfprintf+0x206>
    7b64:	e0c3      	b.n	7cee <__vfprintf+0x382>
    7b66:	f108 0304 	add.w	r3, r8, #4
    7b6a:	9307      	str	r3, [sp, #28]
    7b6c:	f8d8 7000 	ldr.w	r7, [r8]
    7b70:	e001      	b.n	7b76 <__vfprintf+0x20a>
    7b72:	f8cd 801c 	str.w	r8, [sp, #28]
    7b76:	9b10      	ldr	r3, [sp, #64]	; 0x40
    7b78:	f014 0601 	ands.w	r6, r4, #1
    7b7c:	f103 33ff 	add.w	r3, r3, #4294967295
    7b80:	9308      	str	r3, [sp, #32]
    7b82:	d13b      	bne.n	7bfc <__vfprintf+0x290>
    7b84:	9a10      	ldr	r2, [sp, #64]	; 0x40
    7b86:	f414 7f00 	tst.w	r4, #512	; 0x200
    7b8a:	f1a2 0402 	sub.w	r4, r2, #2
    7b8e:	9a04      	ldr	r2, [sp, #16]
    7b90:	4610      	mov	r0, r2
    7b92:	ea4f 71e2 	mov.w	r1, r2, asr #31
    7b96:	460a      	mov	r2, r1
    7b98:	4601      	mov	r1, r0
    7b9a:	e9cd 120a 	strd	r1, r2, [sp, #40]	; 0x28
    7b9e:	bf14      	ite	ne
    7ba0:	2330      	movne	r3, #48	; 0x30
    7ba2:	2320      	moveq	r3, #32
    7ba4:	f04f 0800 	mov.w	r8, #0
    7ba8:	f04f 0900 	mov.w	r9, #0
    7bac:	9a04      	ldr	r2, [sp, #16]
    7bae:	ebb4 0108 	subs.w	r1, r4, r8
    7bb2:	4442      	add	r2, r8
    7bb4:	9108      	str	r1, [sp, #32]
    7bb6:	d420      	bmi.n	7bfa <__vfprintf+0x28e>
    7bb8:	e9dd 010a 	ldrd	r0, r1, [sp, #40]	; 0x28
    7bbc:	e9dd bc0c 	ldrd	fp, ip, [sp, #48]	; 0x30
    7bc0:	eb10 0008 	adds.w	r0, r0, r8
    7bc4:	eb41 0109 	adc.w	r1, r1, r9
    7bc8:	4558      	cmp	r0, fp
    7bca:	eb71 020c 	sbcs.w	r2, r1, ip
    7bce:	da0f      	bge.n	7bf0 <__vfprintf+0x284>
    7bd0:	68aa      	ldr	r2, [r5, #8]
    7bd2:	3a01      	subs	r2, #1
    7bd4:	2a00      	cmp	r2, #0
    7bd6:	60aa      	str	r2, [r5, #8]
    7bd8:	db04      	blt.n	7be4 <__vfprintf+0x278>
    7bda:	682a      	ldr	r2, [r5, #0]
    7bdc:	1c51      	adds	r1, r2, #1
    7bde:	6029      	str	r1, [r5, #0]
    7be0:	7013      	strb	r3, [r2, #0]
    7be2:	e005      	b.n	7bf0 <__vfprintf+0x284>
    7be4:	4618      	mov	r0, r3
    7be6:	4629      	mov	r1, r5
    7be8:	9308      	str	r3, [sp, #32]
    7bea:	f000 fe8f 	bl	890c <__flsbuf>
    7bee:	9b08      	ldr	r3, [sp, #32]
    7bf0:	f118 0801 	adds.w	r8, r8, #1
    7bf4:	f149 0900 	adc.w	r9, r9, #0
    7bf8:	e7d8      	b.n	7bac <__vfprintf+0x240>
    7bfa:	9204      	str	r2, [sp, #16]
    7bfc:	9b04      	ldr	r3, [sp, #16]
    7bfe:	4619      	mov	r1, r3
    7c00:	17da      	asrs	r2, r3, #31
    7c02:	1c5c      	adds	r4, r3, #1
    7c04:	4613      	mov	r3, r2
    7c06:	460a      	mov	r2, r1
    7c08:	e9dd 010c 	ldrd	r0, r1, [sp, #48]	; 0x30
    7c0c:	4282      	cmp	r2, r0
    7c0e:	418b      	sbcs	r3, r1
    7c10:	da0d      	bge.n	7c2e <__vfprintf+0x2c2>
    7c12:	68ab      	ldr	r3, [r5, #8]
    7c14:	3b01      	subs	r3, #1
    7c16:	2b00      	cmp	r3, #0
    7c18:	60ab      	str	r3, [r5, #8]
    7c1a:	db04      	blt.n	7c26 <__vfprintf+0x2ba>
    7c1c:	682b      	ldr	r3, [r5, #0]
    7c1e:	1c5a      	adds	r2, r3, #1
    7c20:	602a      	str	r2, [r5, #0]
    7c22:	701f      	strb	r7, [r3, #0]
    7c24:	e003      	b.n	7c2e <__vfprintf+0x2c2>
    7c26:	4629      	mov	r1, r5
    7c28:	4638      	mov	r0, r7
    7c2a:	f000 fe6f 	bl	890c <__flsbuf>
    7c2e:	2e00      	cmp	r6, #0
    7c30:	f000 852b 	beq.w	868a <__vfprintf+0xd1e>
    7c34:	9b08      	ldr	r3, [sp, #32]
    7c36:	2600      	movs	r6, #0
    7c38:	f103 38ff 	add.w	r8, r3, #4294967295
    7c3c:	2700      	movs	r7, #0
    7c3e:	4622      	mov	r2, r4
    7c40:	17e3      	asrs	r3, r4, #31
    7c42:	f04f 0920 	mov.w	r9, #32
    7c46:	ebc6 0108 	rsb	r1, r6, r8
    7c4a:	2900      	cmp	r1, #0
    7c4c:	db1f      	blt.n	7c8e <__vfprintf+0x322>
    7c4e:	e9dd bc0c 	ldrd	fp, ip, [sp, #48]	; 0x30
    7c52:	1990      	adds	r0, r2, r6
    7c54:	eb43 0107 	adc.w	r1, r3, r7
    7c58:	4558      	cmp	r0, fp
    7c5a:	eb71 010c 	sbcs.w	r1, r1, ip
    7c5e:	da12      	bge.n	7c86 <__vfprintf+0x31a>
    7c60:	68a9      	ldr	r1, [r5, #8]
    7c62:	3901      	subs	r1, #1
    7c64:	2900      	cmp	r1, #0
    7c66:	60a9      	str	r1, [r5, #8]
    7c68:	db05      	blt.n	7c76 <__vfprintf+0x30a>
    7c6a:	6829      	ldr	r1, [r5, #0]
    7c6c:	1c48      	adds	r0, r1, #1
    7c6e:	6028      	str	r0, [r5, #0]
    7c70:	f881 9000 	strb.w	r9, [r1]
    7c74:	e007      	b.n	7c86 <__vfprintf+0x31a>
    7c76:	4629      	mov	r1, r5
    7c78:	2020      	movs	r0, #32
    7c7a:	e9cd 2304 	strd	r2, r3, [sp, #16]
    7c7e:	f000 fe45 	bl	890c <__flsbuf>
    7c82:	e9dd 2304 	ldrd	r2, r3, [sp, #16]
    7c86:	3601      	adds	r6, #1
    7c88:	f147 0700 	adc.w	r7, r7, #0
    7c8c:	e7db      	b.n	7c46 <__vfprintf+0x2da>
    7c8e:	9b08      	ldr	r3, [sp, #32]
    7c90:	2b00      	cmp	r3, #0
    7c92:	bfa8      	it	ge
    7c94:	18e4      	addge	r4, r4, r3
    7c96:	4623      	mov	r3, r4
    7c98:	f000 bcf5 	b.w	8686 <__vfprintf+0xd1a>
    7c9c:	f10a 3aff 	add.w	sl, sl, #4294967295
    7ca0:	f8cd 801c 	str.w	r8, [sp, #28]
    7ca4:	f000 bcf2 	b.w	868c <__vfprintf+0xd20>
    7ca8:	f108 0304 	add.w	r3, r8, #4
    7cac:	f014 0f40 	tst.w	r4, #64	; 0x40
    7cb0:	9307      	str	r3, [sp, #28]
    7cb2:	f8d8 3000 	ldr.w	r3, [r8]
    7cb6:	d006      	beq.n	7cc6 <__vfprintf+0x35a>
    7cb8:	9a04      	ldr	r2, [sp, #16]
    7cba:	4610      	mov	r0, r2
    7cbc:	17d1      	asrs	r1, r2, #31
    7cbe:	e9c3 0100 	strd	r0, r1, [r3]
    7cc2:	f000 bce3 	b.w	868c <__vfprintf+0xd20>
    7cc6:	06a7      	lsls	r7, r4, #26
    7cc8:	d40d      	bmi.n	7ce6 <__vfprintf+0x37a>
    7cca:	05e6      	lsls	r6, r4, #23
    7ccc:	d504      	bpl.n	7cd8 <__vfprintf+0x36c>
    7cce:	f89d 2010 	ldrb.w	r2, [sp, #16]
    7cd2:	701a      	strb	r2, [r3, #0]
    7cd4:	f000 bcda 	b.w	868c <__vfprintf+0xd20>
    7cd8:	0624      	lsls	r4, r4, #24
    7cda:	d504      	bpl.n	7ce6 <__vfprintf+0x37a>
    7cdc:	f8bd 2010 	ldrh.w	r2, [sp, #16]
    7ce0:	801a      	strh	r2, [r3, #0]
    7ce2:	f000 bcd3 	b.w	868c <__vfprintf+0xd20>
    7ce6:	9a04      	ldr	r2, [sp, #16]
    7ce8:	601a      	str	r2, [r3, #0]
    7cea:	f000 bccf 	b.w	868c <__vfprintf+0xd20>
    7cee:	f108 0304 	add.w	r3, r8, #4
    7cf2:	9307      	str	r3, [sp, #28]
    7cf4:	4ab2      	ldr	r2, [pc, #712]	; (7fc0 <__vfprintf+0x654>)
    7cf6:	f8d8 3000 	ldr.w	r3, [r8]
    7cfa:	2b00      	cmp	r3, #0
    7cfc:	bf08      	it	eq
    7cfe:	4613      	moveq	r3, r2
    7d00:	4618      	mov	r0, r3
    7d02:	930a      	str	r3, [sp, #40]	; 0x28
    7d04:	f000 fd14 	bl	8730 <strlen>
    7d08:	f014 0f10 	tst.w	r4, #16
    7d0c:	4607      	mov	r7, r0
    7d0e:	9b0a      	ldr	r3, [sp, #40]	; 0x28
    7d10:	d003      	beq.n	7d1a <__vfprintf+0x3ae>
    7d12:	9a08      	ldr	r2, [sp, #32]
    7d14:	4290      	cmp	r0, r2
    7d16:	bfa8      	it	ge
    7d18:	4617      	movge	r7, r2
    7d1a:	9a10      	ldr	r2, [sp, #64]	; 0x40
    7d1c:	1bd6      	subs	r6, r2, r7
    7d1e:	f014 0201 	ands.w	r2, r4, #1
    7d22:	9208      	str	r2, [sp, #32]
    7d24:	d13d      	bne.n	7da2 <__vfprintf+0x436>
    7d26:	9904      	ldr	r1, [sp, #16]
    7d28:	ea4f 7ce1 	mov.w	ip, r1, asr #31
    7d2c:	4608      	mov	r0, r1
    7d2e:	4661      	mov	r1, ip
    7d30:	e9cd 010a 	strd	r0, r1, [sp, #40]	; 0x28
    7d34:	f414 7f00 	tst.w	r4, #512	; 0x200
    7d38:	bf14      	ite	ne
    7d3a:	2230      	movne	r2, #48	; 0x30
    7d3c:	2220      	moveq	r2, #32
    7d3e:	f04f 0800 	mov.w	r8, #0
    7d42:	f04f 0900 	mov.w	r9, #0
    7d46:	1e74      	subs	r4, r6, #1
    7d48:	ebc8 0104 	rsb	r1, r8, r4
    7d4c:	2900      	cmp	r1, #0
    7d4e:	db22      	blt.n	7d96 <__vfprintf+0x42a>
    7d50:	e9dd 010a 	ldrd	r0, r1, [sp, #40]	; 0x28
    7d54:	e9dd bc0c 	ldrd	fp, ip, [sp, #48]	; 0x30
    7d58:	eb10 0008 	adds.w	r0, r0, r8
    7d5c:	eb41 0109 	adc.w	r1, r1, r9
    7d60:	4558      	cmp	r0, fp
    7d62:	eb71 010c 	sbcs.w	r1, r1, ip
    7d66:	da11      	bge.n	7d8c <__vfprintf+0x420>
    7d68:	68a9      	ldr	r1, [r5, #8]
    7d6a:	3901      	subs	r1, #1
    7d6c:	2900      	cmp	r1, #0
    7d6e:	60a9      	str	r1, [r5, #8]
    7d70:	db04      	blt.n	7d7c <__vfprintf+0x410>
    7d72:	6829      	ldr	r1, [r5, #0]
    7d74:	1c48      	adds	r0, r1, #1
    7d76:	6028      	str	r0, [r5, #0]
    7d78:	700a      	strb	r2, [r1, #0]
    7d7a:	e007      	b.n	7d8c <__vfprintf+0x420>
    7d7c:	4610      	mov	r0, r2
    7d7e:	4629      	mov	r1, r5
    7d80:	931e      	str	r3, [sp, #120]	; 0x78
    7d82:	9210      	str	r2, [sp, #64]	; 0x40
    7d84:	f000 fdc2 	bl	890c <__flsbuf>
    7d88:	9b1e      	ldr	r3, [sp, #120]	; 0x78
    7d8a:	9a10      	ldr	r2, [sp, #64]	; 0x40
    7d8c:	f118 0801 	adds.w	r8, r8, #1
    7d90:	f149 0900 	adc.w	r9, r9, #0
    7d94:	e7d8      	b.n	7d48 <__vfprintf+0x3dc>
    7d96:	9a04      	ldr	r2, [sp, #16]
    7d98:	ea26 76e6 	bic.w	r6, r6, r6, asr #31
    7d9c:	4432      	add	r2, r6
    7d9e:	9204      	str	r2, [sp, #16]
    7da0:	1ba6      	subs	r6, r4, r6
    7da2:	9a04      	ldr	r2, [sp, #16]
    7da4:	4610      	mov	r0, r2
    7da6:	17d1      	asrs	r1, r2, #31
    7da8:	460a      	mov	r2, r1
    7daa:	4601      	mov	r1, r0
    7dac:	e9cd 120a 	strd	r1, r2, [sp, #40]	; 0x28
    7db0:	f04f 0800 	mov.w	r8, #0
    7db4:	f04f 0900 	mov.w	r9, #0
    7db8:	4547      	cmp	r7, r8
    7dba:	dd23      	ble.n	7e04 <__vfprintf+0x498>
    7dbc:	e9dd 010a 	ldrd	r0, r1, [sp, #40]	; 0x28
    7dc0:	e9dd bc0c 	ldrd	fp, ip, [sp, #48]	; 0x30
    7dc4:	eb10 0008 	adds.w	r0, r0, r8
    7dc8:	eb41 0109 	adc.w	r1, r1, r9
    7dcc:	4558      	cmp	r0, fp
    7dce:	eb71 020c 	sbcs.w	r2, r1, ip
    7dd2:	da12      	bge.n	7dfa <__vfprintf+0x48e>
    7dd4:	68aa      	ldr	r2, [r5, #8]
    7dd6:	3a01      	subs	r2, #1
    7dd8:	2a00      	cmp	r2, #0
    7dda:	60aa      	str	r2, [r5, #8]
    7ddc:	eb03 0208 	add.w	r2, r3, r8
    7de0:	db05      	blt.n	7dee <__vfprintf+0x482>
    7de2:	6829      	ldr	r1, [r5, #0]
    7de4:	1c48      	adds	r0, r1, #1
    7de6:	6028      	str	r0, [r5, #0]
    7de8:	7812      	ldrb	r2, [r2, #0]
    7dea:	700a      	strb	r2, [r1, #0]
    7dec:	e005      	b.n	7dfa <__vfprintf+0x48e>
    7dee:	4629      	mov	r1, r5
    7df0:	7810      	ldrb	r0, [r2, #0]
    7df2:	9310      	str	r3, [sp, #64]	; 0x40
    7df4:	f000 fd8a 	bl	890c <__flsbuf>
    7df8:	9b10      	ldr	r3, [sp, #64]	; 0x40
    7dfa:	f118 0801 	adds.w	r8, r8, #1
    7dfe:	f149 0900 	adc.w	r9, r9, #0
    7e02:	e7d9      	b.n	7db8 <__vfprintf+0x44c>
    7e04:	9b04      	ldr	r3, [sp, #16]
    7e06:	2f00      	cmp	r7, #0
    7e08:	bfa8      	it	ge
    7e0a:	19db      	addge	r3, r3, r7
    7e0c:	9304      	str	r3, [sp, #16]
    7e0e:	9b08      	ldr	r3, [sp, #32]
    7e10:	2b00      	cmp	r3, #0
    7e12:	f000 843b 	beq.w	868c <__vfprintf+0xd20>
    7e16:	9b04      	ldr	r3, [sp, #16]
    7e18:	4619      	mov	r1, r3
    7e1a:	17da      	asrs	r2, r3, #31
    7e1c:	4613      	mov	r3, r2
    7e1e:	f04f 0800 	mov.w	r8, #0
    7e22:	f04f 0900 	mov.w	r9, #0
    7e26:	1e74      	subs	r4, r6, #1
    7e28:	460a      	mov	r2, r1
    7e2a:	2720      	movs	r7, #32
    7e2c:	ebc8 0104 	rsb	r1, r8, r4
    7e30:	2900      	cmp	r1, #0
    7e32:	db20      	blt.n	7e76 <__vfprintf+0x50a>
    7e34:	e9dd bc0c 	ldrd	fp, ip, [sp, #48]	; 0x30
    7e38:	eb12 0008 	adds.w	r0, r2, r8
    7e3c:	eb43 0109 	adc.w	r1, r3, r9
    7e40:	4558      	cmp	r0, fp
    7e42:	eb71 010c 	sbcs.w	r1, r1, ip
    7e46:	da11      	bge.n	7e6c <__vfprintf+0x500>
    7e48:	68a9      	ldr	r1, [r5, #8]
    7e4a:	3901      	subs	r1, #1
    7e4c:	2900      	cmp	r1, #0
    7e4e:	60a9      	str	r1, [r5, #8]
    7e50:	db04      	blt.n	7e5c <__vfprintf+0x4f0>
    7e52:	6829      	ldr	r1, [r5, #0]
    7e54:	1c48      	adds	r0, r1, #1
    7e56:	6028      	str	r0, [r5, #0]
    7e58:	700f      	strb	r7, [r1, #0]
    7e5a:	e007      	b.n	7e6c <__vfprintf+0x500>
    7e5c:	4629      	mov	r1, r5
    7e5e:	2020      	movs	r0, #32
    7e60:	e9cd 2308 	strd	r2, r3, [sp, #32]
    7e64:	f000 fd52 	bl	890c <__flsbuf>
    7e68:	e9dd 2308 	ldrd	r2, r3, [sp, #32]
    7e6c:	f118 0801 	adds.w	r8, r8, #1
    7e70:	f149 0900 	adc.w	r9, r9, #0
    7e74:	e7da      	b.n	7e2c <__vfprintf+0x4c0>
    7e76:	9b04      	ldr	r3, [sp, #16]
    7e78:	2e00      	cmp	r6, #0
    7e7a:	bfa8      	it	ge
    7e7c:	199b      	addge	r3, r3, r6
    7e7e:	f000 bc02 	b.w	8686 <__vfprintf+0xd1a>
    7e82:	0660      	lsls	r0, r4, #25
    7e84:	d509      	bpl.n	7e9a <__vfprintf+0x52e>
    7e86:	f108 0807 	add.w	r8, r8, #7
    7e8a:	f028 0807 	bic.w	r8, r8, #7
    7e8e:	f108 0308 	add.w	r3, r8, #8
    7e92:	9307      	str	r3, [sp, #28]
    7e94:	e9d8 bc00 	ldrd	fp, ip, [r8]
    7e98:	e007      	b.n	7eaa <__vfprintf+0x53e>
    7e9a:	f8d8 2000 	ldr.w	r2, [r8]
    7e9e:	f108 0304 	add.w	r3, r8, #4
    7ea2:	9307      	str	r3, [sp, #28]
    7ea4:	4693      	mov	fp, r2
    7ea6:	f04f 0c00 	mov.w	ip, #0
    7eaa:	0621      	lsls	r1, r4, #24
    7eac:	d502      	bpl.n	7eb4 <__vfprintf+0x548>
    7eae:	fa1f fb8b 	uxth.w	fp, fp
    7eb2:	e003      	b.n	7ebc <__vfprintf+0x550>
    7eb4:	05e2      	lsls	r2, r4, #23
    7eb6:	d503      	bpl.n	7ec0 <__vfprintf+0x554>
    7eb8:	f00b 0bff 	and.w	fp, fp, #255	; 0xff
    7ebc:	f04f 0c00 	mov.w	ip, #0
    7ec0:	4940      	ldr	r1, [pc, #256]	; (7fc4 <__vfprintf+0x658>)
    7ec2:	4841      	ldr	r0, [pc, #260]	; (7fc8 <__vfprintf+0x65c>)
    7ec4:	f014 0f08 	tst.w	r4, #8
    7ec8:	bf08      	it	eq
    7eca:	4608      	moveq	r0, r1
    7ecc:	06e3      	lsls	r3, r4, #27
    7ece:	f140 80f5 	bpl.w	80bc <__vfprintf+0x750>
    7ed2:	f424 7400 	bic.w	r4, r4, #512	; 0x200
    7ed6:	e0f1      	b.n	80bc <__vfprintf+0x750>
    7ed8:	0666      	lsls	r6, r4, #25
    7eda:	d509      	bpl.n	7ef0 <__vfprintf+0x584>
    7edc:	f108 0807 	add.w	r8, r8, #7
    7ee0:	f028 0807 	bic.w	r8, r8, #7
    7ee4:	f108 0308 	add.w	r3, r8, #8
    7ee8:	9307      	str	r3, [sp, #28]
    7eea:	e9d8 bc00 	ldrd	fp, ip, [r8]
    7eee:	e007      	b.n	7f00 <__vfprintf+0x594>
    7ef0:	f8d8 2000 	ldr.w	r2, [r8]
    7ef4:	f108 0304 	add.w	r3, r8, #4
    7ef8:	9307      	str	r3, [sp, #28]
    7efa:	4693      	mov	fp, r2
    7efc:	f04f 0c00 	mov.w	ip, #0
    7f00:	0620      	lsls	r0, r4, #24
    7f02:	d502      	bpl.n	7f0a <__vfprintf+0x59e>
    7f04:	fa1f fb8b 	uxth.w	fp, fp
    7f08:	e003      	b.n	7f12 <__vfprintf+0x5a6>
    7f0a:	05e1      	lsls	r1, r4, #23
    7f0c:	d503      	bpl.n	7f16 <__vfprintf+0x5aa>
    7f0e:	f00b 0bff 	and.w	fp, fp, #255	; 0xff
    7f12:	f04f 0c00 	mov.w	ip, #0
    7f16:	492b      	ldr	r1, [pc, #172]	; (7fc4 <__vfprintf+0x658>)
    7f18:	482c      	ldr	r0, [pc, #176]	; (7fcc <__vfprintf+0x660>)
    7f1a:	f014 0f08 	tst.w	r4, #8
    7f1e:	bf08      	it	eq
    7f20:	4608      	moveq	r0, r1
    7f22:	06e2      	lsls	r2, r4, #27
    7f24:	f140 80cc 	bpl.w	80c0 <__vfprintf+0x754>
    7f28:	f424 7400 	bic.w	r4, r4, #512	; 0x200
    7f2c:	e0c8      	b.n	80c0 <__vfprintf+0x754>
    7f2e:	f8d8 2000 	ldr.w	r2, [r8]
    7f32:	4927      	ldr	r1, [pc, #156]	; (7fd0 <__vfprintf+0x664>)
    7f34:	4825      	ldr	r0, [pc, #148]	; (7fcc <__vfprintf+0x660>)
    7f36:	f108 0304 	add.w	r3, r8, #4
    7f3a:	9307      	str	r3, [sp, #28]
    7f3c:	4693      	mov	fp, r2
    7f3e:	f04f 0c00 	mov.w	ip, #0
    7f42:	e0c0      	b.n	80c6 <__vfprintf+0x75a>
    7f44:	0663      	lsls	r3, r4, #25
    7f46:	d509      	bpl.n	7f5c <__vfprintf+0x5f0>
    7f48:	f108 0807 	add.w	r8, r8, #7
    7f4c:	f028 0807 	bic.w	r8, r8, #7
    7f50:	f108 0308 	add.w	r3, r8, #8
    7f54:	9307      	str	r3, [sp, #28]
    7f56:	e9d8 bc00 	ldrd	fp, ip, [r8]
    7f5a:	e007      	b.n	7f6c <__vfprintf+0x600>
    7f5c:	f8d8 2000 	ldr.w	r2, [r8]
    7f60:	f108 0304 	add.w	r3, r8, #4
    7f64:	9307      	str	r3, [sp, #28]
    7f66:	4693      	mov	fp, r2
    7f68:	f04f 0c00 	mov.w	ip, #0
    7f6c:	0626      	lsls	r6, r4, #24
    7f6e:	d502      	bpl.n	7f76 <__vfprintf+0x60a>
    7f70:	fa1f fb8b 	uxth.w	fp, fp
    7f74:	e003      	b.n	7f7e <__vfprintf+0x612>
    7f76:	05e0      	lsls	r0, r4, #23
    7f78:	d503      	bpl.n	7f82 <__vfprintf+0x616>
    7f7a:	f00b 0bff 	and.w	fp, fp, #255	; 0xff
    7f7e:	f04f 0c00 	mov.w	ip, #0
    7f82:	f014 0f08 	tst.w	r4, #8
    7f86:	490f      	ldr	r1, [pc, #60]	; (7fc4 <__vfprintf+0x658>)
    7f88:	4812      	ldr	r0, [pc, #72]	; (7fd4 <__vfprintf+0x668>)
    7f8a:	e05e      	b.n	804a <__vfprintf+0x6de>
    7f8c:	0661      	lsls	r1, r4, #25
    7f8e:	d509      	bpl.n	7fa4 <__vfprintf+0x638>
    7f90:	f108 0807 	add.w	r8, r8, #7
    7f94:	f028 0807 	bic.w	r8, r8, #7
    7f98:	f108 0308 	add.w	r3, r8, #8
    7f9c:	9307      	str	r3, [sp, #28]
    7f9e:	e9d8 bc00 	ldrd	fp, ip, [r8]
    7fa2:	e007      	b.n	7fb4 <__vfprintf+0x648>
    7fa4:	f8d8 2000 	ldr.w	r2, [r8]
    7fa8:	f108 0304 	add.w	r3, r8, #4
    7fac:	9307      	str	r3, [sp, #28]
    7fae:	4693      	mov	fp, r2
    7fb0:	f04f 0c00 	mov.w	ip, #0
    7fb4:	0622      	lsls	r2, r4, #24
    7fb6:	d50f      	bpl.n	7fd8 <__vfprintf+0x66c>
    7fb8:	fa1f fb8b 	uxth.w	fp, fp
    7fbc:	e010      	b.n	7fe0 <__vfprintf+0x674>
    7fbe:	bf00      	nop
    7fc0:	0001f0a3 	.word	0x0001f0a3
    7fc4:	0001f0f7 	.word	0x0001f0f7
    7fc8:	0001f0aa 	.word	0x0001f0aa
    7fcc:	0001f0ad 	.word	0x0001f0ad
    7fd0:	0001f0c3 	.word	0x0001f0c3
    7fd4:	0001f0b0 	.word	0x0001f0b0
    7fd8:	05e3      	lsls	r3, r4, #23
    7fda:	d503      	bpl.n	7fe4 <__vfprintf+0x678>
    7fdc:	f00b 0bff 	and.w	fp, fp, #255	; 0xff
    7fe0:	f04f 0c00 	mov.w	ip, #0
    7fe4:	f014 0110 	ands.w	r1, r4, #16
    7fe8:	d06c      	beq.n	80c4 <__vfprintf+0x758>
    7fea:	f424 7400 	bic.w	r4, r4, #512	; 0x200
    7fee:	2100      	movs	r1, #0
    7ff0:	e068      	b.n	80c4 <__vfprintf+0x758>
    7ff2:	0666      	lsls	r6, r4, #25
    7ff4:	d509      	bpl.n	800a <__vfprintf+0x69e>
    7ff6:	f108 0807 	add.w	r8, r8, #7
    7ffa:	f028 0807 	bic.w	r8, r8, #7
    7ffe:	f108 0308 	add.w	r3, r8, #8
    8002:	9307      	str	r3, [sp, #28]
    8004:	e9d8 2300 	ldrd	r2, r3, [r8]
    8008:	e005      	b.n	8016 <__vfprintf+0x6aa>
    800a:	f8d8 2000 	ldr.w	r2, [r8]
    800e:	f108 0304 	add.w	r3, r8, #4
    8012:	9307      	str	r3, [sp, #28]
    8014:	17d3      	asrs	r3, r2, #31
    8016:	0620      	lsls	r0, r4, #24
    8018:	d501      	bpl.n	801e <__vfprintf+0x6b2>
    801a:	b212      	sxth	r2, r2
    801c:	e002      	b.n	8024 <__vfprintf+0x6b8>
    801e:	05e1      	lsls	r1, r4, #23
    8020:	d501      	bpl.n	8026 <__vfprintf+0x6ba>
    8022:	b252      	sxtb	r2, r2
    8024:	17d3      	asrs	r3, r2, #31
    8026:	2a00      	cmp	r2, #0
    8028:	f173 0100 	sbcs.w	r1, r3, #0
    802c:	da05      	bge.n	803a <__vfprintf+0x6ce>
    802e:	f1d2 0b00 	rsbs	fp, r2, #0
    8032:	eb63 0c43 	sbc.w	ip, r3, r3, lsl #1
    8036:	48b2      	ldr	r0, [pc, #712]	; (8300 <__vfprintf+0x994>)
    8038:	e00b      	b.n	8052 <__vfprintf+0x6e6>
    803a:	4693      	mov	fp, r2
    803c:	07a2      	lsls	r2, r4, #30
    803e:	469c      	mov	ip, r3
    8040:	d406      	bmi.n	8050 <__vfprintf+0x6e4>
    8042:	49b0      	ldr	r1, [pc, #704]	; (8304 <__vfprintf+0x998>)
    8044:	48b0      	ldr	r0, [pc, #704]	; (8308 <__vfprintf+0x99c>)
    8046:	f014 0f04 	tst.w	r4, #4
    804a:	bf08      	it	eq
    804c:	4608      	moveq	r0, r1
    804e:	e000      	b.n	8052 <__vfprintf+0x6e6>
    8050:	48ae      	ldr	r0, [pc, #696]	; (830c <__vfprintf+0x9a0>)
    8052:	f014 0110 	ands.w	r1, r4, #16
    8056:	d036      	beq.n	80c6 <__vfprintf+0x75a>
    8058:	f424 7400 	bic.w	r4, r4, #512	; 0x200
    805c:	2100      	movs	r1, #0
    805e:	e032      	b.n	80c6 <__vfprintf+0x75a>
    8060:	06e3      	lsls	r3, r4, #27
    8062:	bf5e      	ittt	pl
    8064:	230d      	movpl	r3, #13
    8066:	f044 0410 	orrpl.w	r4, r4, #16
    806a:	9308      	strpl	r3, [sp, #32]
    806c:	f014 0f10 	tst.w	r4, #16
    8070:	f108 0807 	add.w	r8, r8, #7
    8074:	9a08      	ldr	r2, [sp, #32]
    8076:	f028 0807 	bic.w	r8, r8, #7
    807a:	bf08      	it	eq
    807c:	2206      	moveq	r2, #6
    807e:	9208      	str	r2, [sp, #32]
    8080:	f014 0120 	ands.w	r1, r4, #32
    8084:	f108 0208 	add.w	r2, r8, #8
    8088:	f444 6380 	orr.w	r3, r4, #1024	; 0x400
    808c:	9207      	str	r2, [sp, #28]
    808e:	d00a      	beq.n	80a6 <__vfprintf+0x73a>
    8090:	e9d8 0100 	ldrd	r0, r1, [r8]
    8094:	461c      	mov	r4, r3
    8096:	e9cd 0126 	strd	r0, r1, [sp, #152]	; 0x98
    809a:	f04f 0b00 	mov.w	fp, #0
    809e:	f04f 0c00 	mov.w	ip, #0
    80a2:	2100      	movs	r1, #0
    80a4:	e008      	b.n	80b8 <__vfprintf+0x74c>
    80a6:	e9d8 8900 	ldrd	r8, r9, [r8]
    80aa:	e9cd 8926 	strd	r8, r9, [sp, #152]	; 0x98
    80ae:	461c      	mov	r4, r3
    80b0:	f04f 0b00 	mov.w	fp, #0
    80b4:	f04f 0c00 	mov.w	ip, #0
    80b8:	4608      	mov	r0, r1
    80ba:	e004      	b.n	80c6 <__vfprintf+0x75a>
    80bc:	4994      	ldr	r1, [pc, #592]	; (8310 <__vfprintf+0x9a4>)
    80be:	e002      	b.n	80c6 <__vfprintf+0x75a>
    80c0:	4994      	ldr	r1, [pc, #592]	; (8314 <__vfprintf+0x9a8>)
    80c2:	e000      	b.n	80c6 <__vfprintf+0x75a>
    80c4:	488f      	ldr	r0, [pc, #572]	; (8304 <__vfprintf+0x998>)
    80c6:	9e04      	ldr	r6, [sp, #16]
    80c8:	9023      	str	r0, [sp, #140]	; 0x8c
    80ca:	e9dd 230c 	ldrd	r2, r3, [sp, #48]	; 0x30
    80ce:	1b92      	subs	r2, r2, r6
    80d0:	eb63 73e6 	sbc.w	r3, r3, r6, asr #31
    80d4:	f04f 30ff 	mov.w	r0, #4294967295
    80d8:	e9cd 230a 	strd	r2, r3, [sp, #40]	; 0x28
    80dc:	9b08      	ldr	r3, [sp, #32]
    80de:	9024      	str	r0, [sp, #144]	; 0x90
    80e0:	9025      	str	r0, [sp, #148]	; 0x94
    80e2:	9322      	str	r3, [sp, #136]	; 0x88
    80e4:	2000      	movs	r0, #0
    80e6:	ae28      	add	r6, sp, #160	; 0xa0
    80e8:	f04f 0355 	mov.w	r3, #85	; 0x55
    80ec:	5583      	strb	r3, [r0, r6]
    80ee:	3001      	adds	r0, #1
    80f0:	2820      	cmp	r0, #32
    80f2:	d1f8      	bne.n	80e6 <__vfprintf+0x77a>
    80f4:	f414 6f82 	tst.w	r4, #1040	; 0x410
    80f8:	bf04      	itt	eq
    80fa:	2001      	moveq	r0, #1
    80fc:	9022      	streq	r0, [sp, #136]	; 0x88
    80fe:	2f67      	cmp	r7, #103	; 0x67
    8100:	dc14      	bgt.n	812c <__vfprintf+0x7c0>
    8102:	2f65      	cmp	r7, #101	; 0x65
    8104:	f280 80bc 	bge.w	8280 <__vfprintf+0x914>
    8108:	2f47      	cmp	r7, #71	; 0x47
    810a:	f000 80b9 	beq.w	8280 <__vfprintf+0x914>
    810e:	dc06      	bgt.n	811e <__vfprintf+0x7b2>
    8110:	2f41      	cmp	r7, #65	; 0x41
    8112:	f000 80b5 	beq.w	8280 <__vfprintf+0x914>
    8116:	2f45      	cmp	r7, #69	; 0x45
    8118:	f040 80c2 	bne.w	82a0 <__vfprintf+0x934>
    811c:	e0b0      	b.n	8280 <__vfprintf+0x914>
    811e:	2f61      	cmp	r7, #97	; 0x61
    8120:	f000 80ae 	beq.w	8280 <__vfprintf+0x914>
    8124:	2f64      	cmp	r7, #100	; 0x64
    8126:	d011      	beq.n	814c <__vfprintf+0x7e0>
    8128:	2f58      	cmp	r7, #88	; 0x58
    812a:	e00c      	b.n	8146 <__vfprintf+0x7da>
    812c:	2f70      	cmp	r7, #112	; 0x70
    812e:	d010      	beq.n	8152 <__vfprintf+0x7e6>
    8130:	dc06      	bgt.n	8140 <__vfprintf+0x7d4>
    8132:	2f69      	cmp	r7, #105	; 0x69
    8134:	d00a      	beq.n	814c <__vfprintf+0x7e0>
    8136:	2f6f      	cmp	r7, #111	; 0x6f
    8138:	f040 80b2 	bne.w	82a0 <__vfprintf+0x934>
    813c:	2100      	movs	r1, #0
    813e:	e01d      	b.n	817c <__vfprintf+0x810>
    8140:	2f75      	cmp	r7, #117	; 0x75
    8142:	d003      	beq.n	814c <__vfprintf+0x7e0>
    8144:	2f78      	cmp	r7, #120	; 0x78
    8146:	f040 80ab 	bne.w	82a0 <__vfprintf+0x934>
    814a:	e002      	b.n	8152 <__vfprintf+0x7e6>
    814c:	2600      	movs	r6, #0
    814e:	270a      	movs	r7, #10
    8150:	e028      	b.n	81a4 <__vfprintf+0x838>
    8152:	2000      	movs	r0, #0
    8154:	ea5b 030c 	orrs.w	r3, fp, ip
    8158:	4680      	mov	r8, r0
    815a:	f000 80a3 	beq.w	82a4 <__vfprintf+0x938>
    815e:	f00b 060f 	and.w	r6, fp, #15
    8162:	5d8f      	ldrb	r7, [r1, r6]
    8164:	ae28      	add	r6, sp, #160	; 0xa0
    8166:	5587      	strb	r7, [r0, r6]
    8168:	ea4f 161b 	mov.w	r6, fp, lsr #4
    816c:	ea46 760c 	orr.w	r6, r6, ip, lsl #28
    8170:	ea4f 171c 	mov.w	r7, ip, lsr #4
    8174:	46b3      	mov	fp, r6
    8176:	46bc      	mov	ip, r7
    8178:	3001      	adds	r0, #1
    817a:	e7eb      	b.n	8154 <__vfprintf+0x7e8>
    817c:	ea5b 030c 	orrs.w	r3, fp, ip
    8180:	4688      	mov	r8, r1
    8182:	f000 808f 	beq.w	82a4 <__vfprintf+0x938>
    8186:	f00b 0007 	and.w	r0, fp, #7
    818a:	ae28      	add	r6, sp, #160	; 0xa0
    818c:	3030      	adds	r0, #48	; 0x30
    818e:	5588      	strb	r0, [r1, r6]
    8190:	ea4f 00db 	mov.w	r0, fp, lsr #3
    8194:	ea40 704c 	orr.w	r0, r0, ip, lsl #29
    8198:	ea4f 06dc 	mov.w	r6, ip, lsr #3
    819c:	4683      	mov	fp, r0
    819e:	46b4      	mov	ip, r6
    81a0:	3101      	adds	r1, #1
    81a2:	e7eb      	b.n	817c <__vfprintf+0x810>
    81a4:	ea5b 030c 	orrs.w	r3, fp, ip
    81a8:	46b0      	mov	r8, r6
    81aa:	d07b      	beq.n	82a4 <__vfprintf+0x938>
    81ac:	ea4f 039b 	mov.w	r3, fp, lsr #2
    81b0:	ea43 738c 	orr.w	r3, r3, ip, lsl #30
    81b4:	931a      	str	r3, [sp, #104]	; 0x68
    81b6:	ea4f 039c 	mov.w	r3, ip, lsr #2
    81ba:	931b      	str	r3, [sp, #108]	; 0x6c
    81bc:	e9dd 231a 	ldrd	r2, r3, [sp, #104]	; 0x68
    81c0:	ea5f 015c 	movs.w	r1, ip, lsr #1
    81c4:	ea4f 003b 	mov.w	r0, fp, rrx
    81c8:	1812      	adds	r2, r2, r0
    81ca:	414b      	adcs	r3, r1
    81cc:	4619      	mov	r1, r3
    81ce:	0913      	lsrs	r3, r2, #4
    81d0:	ea43 7301 	orr.w	r3, r3, r1, lsl #28
    81d4:	9312      	str	r3, [sp, #72]	; 0x48
    81d6:	090b      	lsrs	r3, r1, #4
    81d8:	9313      	str	r3, [sp, #76]	; 0x4c
    81da:	4610      	mov	r0, r2
    81dc:	e9dd 2312 	ldrd	r2, r3, [sp, #72]	; 0x48
    81e0:	1812      	adds	r2, r2, r0
    81e2:	414b      	adcs	r3, r1
    81e4:	4619      	mov	r1, r3
    81e6:	0a13      	lsrs	r3, r2, #8
    81e8:	ea43 6301 	orr.w	r3, r3, r1, lsl #24
    81ec:	9314      	str	r3, [sp, #80]	; 0x50
    81ee:	0a0b      	lsrs	r3, r1, #8
    81f0:	9315      	str	r3, [sp, #84]	; 0x54
    81f2:	4610      	mov	r0, r2
    81f4:	e9dd 2314 	ldrd	r2, r3, [sp, #80]	; 0x50
    81f8:	1812      	adds	r2, r2, r0
    81fa:	414b      	adcs	r3, r1
    81fc:	4619      	mov	r1, r3
    81fe:	0c13      	lsrs	r3, r2, #16
    8200:	ea43 4301 	orr.w	r3, r3, r1, lsl #16
    8204:	9316      	str	r3, [sp, #88]	; 0x58
    8206:	0c0b      	lsrs	r3, r1, #16
    8208:	9317      	str	r3, [sp, #92]	; 0x5c
    820a:	4610      	mov	r0, r2
    820c:	e9dd 2316 	ldrd	r2, r3, [sp, #88]	; 0x58
    8210:	1812      	adds	r2, r2, r0
    8212:	414b      	adcs	r3, r1
    8214:	4619      	mov	r1, r3
    8216:	931c      	str	r3, [sp, #112]	; 0x70
    8218:	2300      	movs	r3, #0
    821a:	931d      	str	r3, [sp, #116]	; 0x74
    821c:	4610      	mov	r0, r2
    821e:	e9dd 231c 	ldrd	r2, r3, [sp, #112]	; 0x70
    8222:	1812      	adds	r2, r2, r0
    8224:	414b      	adcs	r3, r1
    8226:	4619      	mov	r1, r3
    8228:	08d3      	lsrs	r3, r2, #3
    822a:	ea43 7341 	orr.w	r3, r3, r1, lsl #29
    822e:	930e      	str	r3, [sp, #56]	; 0x38
    8230:	08cb      	lsrs	r3, r1, #3
    8232:	930f      	str	r3, [sp, #60]	; 0x3c
    8234:	9b0e      	ldr	r3, [sp, #56]	; 0x38
    8236:	fba3 8907 	umull	r8, r9, r3, r7
    823a:	9b0f      	ldr	r3, [sp, #60]	; 0x3c
    823c:	f11b 0006 	adds.w	r0, fp, #6
    8240:	f14c 0100 	adc.w	r1, ip, #0
    8244:	fb07 9903 	mla	r9, r7, r3, r9
    8248:	ebb0 0008 	subs.w	r0, r0, r8
    824c:	eb61 0109 	sbc.w	r1, r1, r9
    8250:	0903      	lsrs	r3, r0, #4
    8252:	ea43 7301 	orr.w	r3, r3, r1, lsl #28
    8256:	9318      	str	r3, [sp, #96]	; 0x60
    8258:	090b      	lsrs	r3, r1, #4
    825a:	9319      	str	r3, [sp, #100]	; 0x64
    825c:	e9dd 2318 	ldrd	r2, r3, [sp, #96]	; 0x60
    8260:	e9dd 010e 	ldrd	r0, r1, [sp, #56]	; 0x38
    8264:	1880      	adds	r0, r0, r2
    8266:	4159      	adcs	r1, r3
    8268:	f10b 0230 	add.w	r2, fp, #48	; 0x30
    826c:	eb00 0380 	add.w	r3, r0, r0, lsl #2
    8270:	eba2 0243 	sub.w	r2, r2, r3, lsl #1
    8274:	ab28      	add	r3, sp, #160	; 0xa0
    8276:	4683      	mov	fp, r0
    8278:	54f2      	strb	r2, [r6, r3]
    827a:	468c      	mov	ip, r1
    827c:	3601      	adds	r6, #1
    827e:	e791      	b.n	81a4 <__vfprintf+0x838>
    8280:	ab25      	add	r3, sp, #148	; 0x94
    8282:	9303      	str	r3, [sp, #12]
    8284:	ab24      	add	r3, sp, #144	; 0x90
    8286:	9302      	str	r3, [sp, #8]
    8288:	ab22      	add	r3, sp, #136	; 0x88
    828a:	9301      	str	r3, [sp, #4]
    828c:	ab23      	add	r3, sp, #140	; 0x8c
    828e:	9300      	str	r3, [sp, #0]
    8290:	aa28      	add	r2, sp, #160	; 0xa0
    8292:	4623      	mov	r3, r4
    8294:	a926      	add	r1, sp, #152	; 0x98
    8296:	4638      	mov	r0, r7
    8298:	9e3c      	ldr	r6, [sp, #240]	; 0xf0
    829a:	47b0      	blx	r6
    829c:	4680      	mov	r8, r0
    829e:	e001      	b.n	82a4 <__vfprintf+0x938>
    82a0:	f04f 0800 	mov.w	r8, #0
    82a4:	f414 6380 	ands.w	r3, r4, #1024	; 0x400
    82a8:	931e      	str	r3, [sp, #120]	; 0x78
    82aa:	d00e      	beq.n	82ca <__vfprintf+0x95e>
    82ac:	2300      	movs	r3, #0
    82ae:	9322      	str	r3, [sp, #136]	; 0x88
    82b0:	9b24      	ldr	r3, [sp, #144]	; 0x90
    82b2:	2b00      	cmp	r3, #0
    82b4:	bfc4      	itt	gt
    82b6:	f103 33ff 	addgt.w	r3, r3, #4294967295
    82ba:	9322      	strgt	r3, [sp, #136]	; 0x88
    82bc:	9b25      	ldr	r3, [sp, #148]	; 0x94
    82be:	2b00      	cmp	r3, #0
    82c0:	dd09      	ble.n	82d6 <__vfprintf+0x96a>
    82c2:	9a22      	ldr	r2, [sp, #136]	; 0x88
    82c4:	3b01      	subs	r3, #1
    82c6:	4413      	add	r3, r2
    82c8:	e004      	b.n	82d4 <__vfprintf+0x968>
    82ca:	9b22      	ldr	r3, [sp, #136]	; 0x88
    82cc:	ebb3 0308 	subs.w	r3, r3, r8
    82d0:	bf48      	it	mi
    82d2:	2300      	movmi	r3, #0
    82d4:	9322      	str	r3, [sp, #136]	; 0x88
    82d6:	9e22      	ldr	r6, [sp, #136]	; 0x88
    82d8:	9823      	ldr	r0, [sp, #140]	; 0x8c
    82da:	f000 fa29 	bl	8730 <strlen>
    82de:	9b10      	ldr	r3, [sp, #64]	; 0x40
    82e0:	4446      	add	r6, r8
    82e2:	1b9e      	subs	r6, r3, r6
    82e4:	f004 0301 	and.w	r3, r4, #1
    82e8:	9308      	str	r3, [sp, #32]
    82ea:	f240 2301 	movw	r3, #513	; 0x201
    82ee:	4023      	ands	r3, r4
    82f0:	1a36      	subs	r6, r6, r0
    82f2:	b98b      	cbnz	r3, 8318 <__vfprintf+0x9ac>
    82f4:	2200      	movs	r2, #0
    82f6:	2300      	movs	r3, #0
    82f8:	1e77      	subs	r7, r6, #1
    82fa:	f04f 0920 	mov.w	r9, #32
    82fe:	e01d      	b.n	833c <__vfprintf+0x9d0>
    8300:	0001f09d 	.word	0x0001f09d
    8304:	0001f0f7 	.word	0x0001f0f7
    8308:	0001f06d 	.word	0x0001f06d
    830c:	0001f06b 	.word	0x0001f06b
    8310:	0001f0b2 	.word	0x0001f0b2
    8314:	0001f0c3 	.word	0x0001f0c3
    8318:	f04f 0900 	mov.w	r9, #0
    831c:	4648      	mov	r0, r9
    831e:	17c1      	asrs	r1, r0, #31
    8320:	2200      	movs	r2, #0
    8322:	2300      	movs	r3, #0
    8324:	e9cd 0110 	strd	r0, r1, [sp, #64]	; 0x40
    8328:	e032      	b.n	8390 <__vfprintf+0xa24>
    832a:	e9dd 010a 	ldrd	r0, r1, [sp, #40]	; 0x28
    832e:	4282      	cmp	r2, r0
    8330:	eb73 0101 	sbcs.w	r1, r3, r1
    8334:	db06      	blt.n	8344 <__vfprintf+0x9d8>
    8336:	3201      	adds	r2, #1
    8338:	f143 0300 	adc.w	r3, r3, #0
    833c:	1ab9      	subs	r1, r7, r2
    833e:	2900      	cmp	r1, #0
    8340:	daf3      	bge.n	832a <__vfprintf+0x9be>
    8342:	e013      	b.n	836c <__vfprintf+0xa00>
    8344:	68a9      	ldr	r1, [r5, #8]
    8346:	3901      	subs	r1, #1
    8348:	2900      	cmp	r1, #0
    834a:	60a9      	str	r1, [r5, #8]
    834c:	db05      	blt.n	835a <__vfprintf+0x9ee>
    834e:	6829      	ldr	r1, [r5, #0]
    8350:	1c48      	adds	r0, r1, #1
    8352:	6028      	str	r0, [r5, #0]
    8354:	f881 9000 	strb.w	r9, [r1]
    8358:	e7ed      	b.n	8336 <__vfprintf+0x9ca>
    835a:	4629      	mov	r1, r5
    835c:	2020      	movs	r0, #32
    835e:	e9cd 2310 	strd	r2, r3, [sp, #64]	; 0x40
    8362:	f000 fad3 	bl	890c <__flsbuf>
    8366:	e9dd 2310 	ldrd	r2, r3, [sp, #64]	; 0x40
    836a:	e7e4      	b.n	8336 <__vfprintf+0x9ca>
    836c:	ea26 79e6 	bic.w	r9, r6, r6, asr #31
    8370:	ebc9 0607 	rsb	r6, r9, r7
    8374:	e7d2      	b.n	831c <__vfprintf+0x9b0>
    8376:	e9dd 0110 	ldrd	r0, r1, [sp, #64]	; 0x40
    837a:	e9dd bc0a 	ldrd	fp, ip, [sp, #40]	; 0x28
    837e:	1880      	adds	r0, r0, r2
    8380:	4159      	adcs	r1, r3
    8382:	4558      	cmp	r0, fp
    8384:	eb71 010c 	sbcs.w	r1, r1, ip
    8388:	db0d      	blt.n	83a6 <__vfprintf+0xa3a>
    838a:	3201      	adds	r2, #1
    838c:	f143 0300 	adc.w	r3, r3, #0
    8390:	9923      	ldr	r1, [sp, #140]	; 0x8c
    8392:	1c48      	adds	r0, r1, #1
    8394:	9023      	str	r0, [sp, #140]	; 0x8c
    8396:	f891 e000 	ldrb.w	lr, [r1]
    839a:	eb09 0702 	add.w	r7, r9, r2
    839e:	f1be 0f00 	cmp.w	lr, #0
    83a2:	d1e8      	bne.n	8376 <__vfprintf+0xa0a>
    83a4:	e013      	b.n	83ce <__vfprintf+0xa62>
    83a6:	68a9      	ldr	r1, [r5, #8]
    83a8:	3901      	subs	r1, #1
    83aa:	2900      	cmp	r1, #0
    83ac:	60a9      	str	r1, [r5, #8]
    83ae:	db05      	blt.n	83bc <__vfprintf+0xa50>
    83b0:	6829      	ldr	r1, [r5, #0]
    83b2:	1c48      	adds	r0, r1, #1
    83b4:	6028      	str	r0, [r5, #0]
    83b6:	f881 e000 	strb.w	lr, [r1]
    83ba:	e7e6      	b.n	838a <__vfprintf+0xa1e>
    83bc:	4629      	mov	r1, r5
    83be:	4670      	mov	r0, lr
    83c0:	e9cd 2320 	strd	r2, r3, [sp, #128]	; 0x80
    83c4:	f000 faa2 	bl	890c <__flsbuf>
    83c8:	e9dd 2320 	ldrd	r2, r3, [sp, #128]	; 0x80
    83cc:	e7dd      	b.n	838a <__vfprintf+0xa1e>
    83ce:	9b08      	ldr	r3, [sp, #32]
    83d0:	2b00      	cmp	r3, #0
    83d2:	d135      	bne.n	8440 <__vfprintf+0xad4>
    83d4:	4638      	mov	r0, r7
    83d6:	17f9      	asrs	r1, r7, #31
    83d8:	e9cd 0110 	strd	r0, r1, [sp, #64]	; 0x40
    83dc:	f414 7f00 	tst.w	r4, #512	; 0x200
    83e0:	bf14      	ite	ne
    83e2:	f04f 0930 	movne.w	r9, #48	; 0x30
    83e6:	f04f 0920 	moveq.w	r9, #32
    83ea:	2200      	movs	r2, #0
    83ec:	2300      	movs	r3, #0
    83ee:	1e74      	subs	r4, r6, #1
    83f0:	1aa1      	subs	r1, r4, r2
    83f2:	2900      	cmp	r1, #0
    83f4:	db20      	blt.n	8438 <__vfprintf+0xacc>
    83f6:	e9dd 0110 	ldrd	r0, r1, [sp, #64]	; 0x40
    83fa:	e9dd bc0a 	ldrd	fp, ip, [sp, #40]	; 0x28
    83fe:	1880      	adds	r0, r0, r2
    8400:	4159      	adcs	r1, r3
    8402:	4558      	cmp	r0, fp
    8404:	eb71 010c 	sbcs.w	r1, r1, ip
    8408:	da12      	bge.n	8430 <__vfprintf+0xac4>
    840a:	68a9      	ldr	r1, [r5, #8]
    840c:	3901      	subs	r1, #1
    840e:	2900      	cmp	r1, #0
    8410:	60a9      	str	r1, [r5, #8]
    8412:	db05      	blt.n	8420 <__vfprintf+0xab4>
    8414:	6829      	ldr	r1, [r5, #0]
    8416:	1c48      	adds	r0, r1, #1
    8418:	6028      	str	r0, [r5, #0]
    841a:	f881 9000 	strb.w	r9, [r1]
    841e:	e007      	b.n	8430 <__vfprintf+0xac4>
    8420:	4629      	mov	r1, r5
    8422:	4648      	mov	r0, r9
    8424:	e9cd 2320 	strd	r2, r3, [sp, #128]	; 0x80
    8428:	f000 fa70 	bl	890c <__flsbuf>
    842c:	e9dd 2320 	ldrd	r2, r3, [sp, #128]	; 0x80
    8430:	3201      	adds	r2, #1
    8432:	f143 0300 	adc.w	r3, r3, #0
    8436:	e7db      	b.n	83f0 <__vfprintf+0xa84>
    8438:	ea26 76e6 	bic.w	r6, r6, r6, asr #31
    843c:	4437      	add	r7, r6
    843e:	1ba6      	subs	r6, r4, r6
    8440:	9b1e      	ldr	r3, [sp, #120]	; 0x78
    8442:	b943      	cbnz	r3, 8456 <__vfprintf+0xaea>
    8444:	4638      	mov	r0, r7
    8446:	17f9      	asrs	r1, r7, #31
    8448:	2200      	movs	r2, #0
    844a:	2300      	movs	r3, #0
    844c:	e9cd 0110 	strd	r0, r1, [sp, #64]	; 0x40
    8450:	f04f 0930 	mov.w	r9, #48	; 0x30
    8454:	e08f      	b.n	8576 <__vfprintf+0xc0a>
    8456:	2400      	movs	r4, #0
    8458:	45a0      	cmp	r8, r4
    845a:	f340 80df 	ble.w	861c <__vfprintf+0xcb0>
    845e:	ab28      	add	r3, sp, #160	; 0xa0
    8460:	5ce0      	ldrb	r0, [r4, r3]
    8462:	283c      	cmp	r0, #60	; 0x3c
    8464:	d008      	beq.n	8478 <__vfprintf+0xb0c>
    8466:	283e      	cmp	r0, #62	; 0x3e
    8468:	d15f      	bne.n	852a <__vfprintf+0xbbe>
    846a:	4638      	mov	r0, r7
    846c:	17f9      	asrs	r1, r7, #31
    846e:	2200      	movs	r2, #0
    8470:	2300      	movs	r3, #0
    8472:	e9cd 0110 	strd	r0, r1, [sp, #64]	; 0x40
    8476:	e03b      	b.n	84f0 <__vfprintf+0xb84>
    8478:	4638      	mov	r0, r7
    847a:	17f9      	asrs	r1, r7, #31
    847c:	e9cd 0110 	strd	r0, r1, [sp, #64]	; 0x40
    8480:	2200      	movs	r2, #0
    8482:	2300      	movs	r3, #0
    8484:	9924      	ldr	r1, [sp, #144]	; 0x90
    8486:	3901      	subs	r1, #1
    8488:	2900      	cmp	r1, #0
    848a:	eb07 0902 	add.w	r9, r7, r2
    848e:	9124      	str	r1, [sp, #144]	; 0x90
    8490:	db61      	blt.n	8556 <__vfprintf+0xbea>
    8492:	e9dd 0110 	ldrd	r0, r1, [sp, #64]	; 0x40
    8496:	e9dd bc0a 	ldrd	fp, ip, [sp, #40]	; 0x28
    849a:	1880      	adds	r0, r0, r2
    849c:	4159      	adcs	r1, r3
    849e:	4558      	cmp	r0, fp
    84a0:	eb71 010c 	sbcs.w	r1, r1, ip
    84a4:	da13      	bge.n	84ce <__vfprintf+0xb62>
    84a6:	68a9      	ldr	r1, [r5, #8]
    84a8:	3901      	subs	r1, #1
    84aa:	2900      	cmp	r1, #0
    84ac:	60a9      	str	r1, [r5, #8]
    84ae:	db06      	blt.n	84be <__vfprintf+0xb52>
    84b0:	6829      	ldr	r1, [r5, #0]
    84b2:	1c48      	adds	r0, r1, #1
    84b4:	6028      	str	r0, [r5, #0]
    84b6:	f04f 0030 	mov.w	r0, #48	; 0x30
    84ba:	7008      	strb	r0, [r1, #0]
    84bc:	e007      	b.n	84ce <__vfprintf+0xb62>
    84be:	4629      	mov	r1, r5
    84c0:	2030      	movs	r0, #48	; 0x30
    84c2:	e9cd 231e 	strd	r2, r3, [sp, #120]	; 0x78
    84c6:	f000 fa21 	bl	890c <__flsbuf>
    84ca:	e9dd 231e 	ldrd	r2, r3, [sp, #120]	; 0x78
    84ce:	3201      	adds	r2, #1
    84d0:	f143 0300 	adc.w	r3, r3, #0
    84d4:	e7d6      	b.n	8484 <__vfprintf+0xb18>
    84d6:	e9dd 0110 	ldrd	r0, r1, [sp, #64]	; 0x40
    84da:	e9dd bc0a 	ldrd	fp, ip, [sp, #40]	; 0x28
    84de:	1880      	adds	r0, r0, r2
    84e0:	4159      	adcs	r1, r3
    84e2:	4558      	cmp	r0, fp
    84e4:	eb71 010c 	sbcs.w	r1, r1, ip
    84e8:	db0a      	blt.n	8500 <__vfprintf+0xb94>
    84ea:	3201      	adds	r2, #1
    84ec:	f143 0300 	adc.w	r3, r3, #0
    84f0:	9925      	ldr	r1, [sp, #148]	; 0x94
    84f2:	3901      	subs	r1, #1
    84f4:	2900      	cmp	r1, #0
    84f6:	eb07 0902 	add.w	r9, r7, r2
    84fa:	9125      	str	r1, [sp, #148]	; 0x94
    84fc:	daeb      	bge.n	84d6 <__vfprintf+0xb6a>
    84fe:	e02a      	b.n	8556 <__vfprintf+0xbea>
    8500:	68a9      	ldr	r1, [r5, #8]
    8502:	3901      	subs	r1, #1
    8504:	2900      	cmp	r1, #0
    8506:	60a9      	str	r1, [r5, #8]
    8508:	db06      	blt.n	8518 <__vfprintf+0xbac>
    850a:	6829      	ldr	r1, [r5, #0]
    850c:	1c48      	adds	r0, r1, #1
    850e:	6028      	str	r0, [r5, #0]
    8510:	f04f 0030 	mov.w	r0, #48	; 0x30
    8514:	7008      	strb	r0, [r1, #0]
    8516:	e7e8      	b.n	84ea <__vfprintf+0xb7e>
    8518:	4629      	mov	r1, r5
    851a:	2030      	movs	r0, #48	; 0x30
    851c:	e9cd 231e 	strd	r2, r3, [sp, #120]	; 0x78
    8520:	f000 f9f4 	bl	890c <__flsbuf>
    8524:	e9dd 231e 	ldrd	r2, r3, [sp, #120]	; 0x78
    8528:	e7df      	b.n	84ea <__vfprintf+0xb7e>
    852a:	e9dd bc0a 	ldrd	fp, ip, [sp, #40]	; 0x28
    852e:	17fb      	asrs	r3, r7, #31
    8530:	455f      	cmp	r7, fp
    8532:	eb73 030c 	sbcs.w	r3, r3, ip
    8536:	f107 0901 	add.w	r9, r7, #1
    853a:	da0c      	bge.n	8556 <__vfprintf+0xbea>
    853c:	68ab      	ldr	r3, [r5, #8]
    853e:	3b01      	subs	r3, #1
    8540:	2b00      	cmp	r3, #0
    8542:	60ab      	str	r3, [r5, #8]
    8544:	db04      	blt.n	8550 <__vfprintf+0xbe4>
    8546:	682b      	ldr	r3, [r5, #0]
    8548:	1c5a      	adds	r2, r3, #1
    854a:	602a      	str	r2, [r5, #0]
    854c:	7018      	strb	r0, [r3, #0]
    854e:	e002      	b.n	8556 <__vfprintf+0xbea>
    8550:	4629      	mov	r1, r5
    8552:	f000 f9db 	bl	890c <__flsbuf>
    8556:	3401      	adds	r4, #1
    8558:	464f      	mov	r7, r9
    855a:	e77d      	b.n	8458 <__vfprintf+0xaec>
    855c:	e9dd 0110 	ldrd	r0, r1, [sp, #64]	; 0x40
    8560:	e9dd bc0a 	ldrd	fp, ip, [sp, #40]	; 0x28
    8564:	1880      	adds	r0, r0, r2
    8566:	4159      	adcs	r1, r3
    8568:	4558      	cmp	r0, fp
    856a:	eb71 010c 	sbcs.w	r1, r1, ip
    856e:	db0a      	blt.n	8586 <__vfprintf+0xc1a>
    8570:	3201      	adds	r2, #1
    8572:	f143 0300 	adc.w	r3, r3, #0
    8576:	9922      	ldr	r1, [sp, #136]	; 0x88
    8578:	3901      	subs	r1, #1
    857a:	2900      	cmp	r1, #0
    857c:	eb07 0402 	add.w	r4, r7, r2
    8580:	9122      	str	r1, [sp, #136]	; 0x88
    8582:	daeb      	bge.n	855c <__vfprintf+0xbf0>
    8584:	e013      	b.n	85ae <__vfprintf+0xc42>
    8586:	68a9      	ldr	r1, [r5, #8]
    8588:	3901      	subs	r1, #1
    858a:	2900      	cmp	r1, #0
    858c:	60a9      	str	r1, [r5, #8]
    858e:	db05      	blt.n	859c <__vfprintf+0xc30>
    8590:	6829      	ldr	r1, [r5, #0]
    8592:	1c48      	adds	r0, r1, #1
    8594:	6028      	str	r0, [r5, #0]
    8596:	f881 9000 	strb.w	r9, [r1]
    859a:	e7e9      	b.n	8570 <__vfprintf+0xc04>
    859c:	4629      	mov	r1, r5
    859e:	2030      	movs	r0, #48	; 0x30
    85a0:	e9cd 231e 	strd	r2, r3, [sp, #120]	; 0x78
    85a4:	f000 f9b2 	bl	890c <__flsbuf>
    85a8:	e9dd 231e 	ldrd	r2, r3, [sp, #120]	; 0x78
    85ac:	e7e0      	b.n	8570 <__vfprintf+0xc04>
    85ae:	4620      	mov	r0, r4
    85b0:	17e1      	asrs	r1, r4, #31
    85b2:	ab30      	add	r3, sp, #192	; 0xc0
    85b4:	e9cd 0110 	strd	r0, r1, [sp, #64]	; 0x40
    85b8:	eb03 0708 	add.w	r7, r3, r8
    85bc:	3f21      	subs	r7, #33	; 0x21
    85be:	2200      	movs	r2, #0
    85c0:	2300      	movs	r3, #0
    85c2:	ebc2 0108 	rsb	r1, r2, r8
    85c6:	2900      	cmp	r1, #0
    85c8:	dd22      	ble.n	8610 <__vfprintf+0xca4>
    85ca:	e9dd 0110 	ldrd	r0, r1, [sp, #64]	; 0x40
    85ce:	e9dd bc0a 	ldrd	fp, ip, [sp, #40]	; 0x28
    85d2:	1880      	adds	r0, r0, r2
    85d4:	4159      	adcs	r1, r3
    85d6:	4558      	cmp	r0, fp
    85d8:	eb71 010c 	sbcs.w	r1, r1, ip
    85dc:	da12      	bge.n	8604 <__vfprintf+0xc98>
    85de:	68a9      	ldr	r1, [r5, #8]
    85e0:	3901      	subs	r1, #1
    85e2:	2900      	cmp	r1, #0
    85e4:	60a9      	str	r1, [r5, #8]
    85e6:	db05      	blt.n	85f4 <__vfprintf+0xc88>
    85e8:	6829      	ldr	r1, [r5, #0]
    85ea:	1c48      	adds	r0, r1, #1
    85ec:	6028      	str	r0, [r5, #0]
    85ee:	7838      	ldrb	r0, [r7, #0]
    85f0:	7008      	strb	r0, [r1, #0]
    85f2:	e007      	b.n	8604 <__vfprintf+0xc98>
    85f4:	4629      	mov	r1, r5
    85f6:	7838      	ldrb	r0, [r7, #0]
    85f8:	e9cd 231e 	strd	r2, r3, [sp, #120]	; 0x78
    85fc:	f000 f986 	bl	890c <__flsbuf>
    8600:	e9dd 231e 	ldrd	r2, r3, [sp, #120]	; 0x78
    8604:	3201      	adds	r2, #1
    8606:	f107 37ff 	add.w	r7, r7, #4294967295
    860a:	f143 0300 	adc.w	r3, r3, #0
    860e:	e7d8      	b.n	85c2 <__vfprintf+0xc56>
    8610:	f1b8 0f00 	cmp.w	r8, #0
    8614:	bfac      	ite	ge
    8616:	eb04 0708 	addge.w	r7, r4, r8
    861a:	1c27      	addlt	r7, r4, #0
    861c:	9b08      	ldr	r3, [sp, #32]
    861e:	b383      	cbz	r3, 8682 <__vfprintf+0xd16>
    8620:	f04f 0800 	mov.w	r8, #0
    8624:	f04f 0900 	mov.w	r9, #0
    8628:	1e74      	subs	r4, r6, #1
    862a:	463a      	mov	r2, r7
    862c:	17fb      	asrs	r3, r7, #31
    862e:	ebc8 0104 	rsb	r1, r8, r4
    8632:	2900      	cmp	r1, #0
    8634:	db22      	blt.n	867c <__vfprintf+0xd10>
    8636:	e9dd bc0a 	ldrd	fp, ip, [sp, #40]	; 0x28
    863a:	eb12 0008 	adds.w	r0, r2, r8
    863e:	eb43 0109 	adc.w	r1, r3, r9
    8642:	4558      	cmp	r0, fp
    8644:	eb71 010c 	sbcs.w	r1, r1, ip
    8648:	da13      	bge.n	8672 <__vfprintf+0xd06>
    864a:	68a9      	ldr	r1, [r5, #8]
    864c:	3901      	subs	r1, #1
    864e:	2900      	cmp	r1, #0
    8650:	60a9      	str	r1, [r5, #8]
    8652:	db06      	blt.n	8662 <__vfprintf+0xcf6>
    8654:	6829      	ldr	r1, [r5, #0]
    8656:	1c48      	adds	r0, r1, #1
    8658:	6028      	str	r0, [r5, #0]
    865a:	f04f 0020 	mov.w	r0, #32
    865e:	7008      	strb	r0, [r1, #0]
    8660:	e007      	b.n	8672 <__vfprintf+0xd06>
    8662:	4629      	mov	r1, r5
    8664:	2020      	movs	r0, #32
    8666:	e9cd 2308 	strd	r2, r3, [sp, #32]
    866a:	f000 f94f 	bl	890c <__flsbuf>
    866e:	e9dd 2308 	ldrd	r2, r3, [sp, #32]
    8672:	f118 0801 	adds.w	r8, r8, #1
    8676:	f149 0900 	adc.w	r9, r9, #0
    867a:	e7d8      	b.n	862e <__vfprintf+0xcc2>
    867c:	2e00      	cmp	r6, #0
    867e:	bfa8      	it	ge
    8680:	19bf      	addge	r7, r7, r6
    8682:	9b04      	ldr	r3, [sp, #16]
    8684:	443b      	add	r3, r7
    8686:	9304      	str	r3, [sp, #16]
    8688:	e000      	b.n	868c <__vfprintf+0xd20>
    868a:	9404      	str	r4, [sp, #16]
    868c:	f8dd 801c 	ldr.w	r8, [sp, #28]
    8690:	9c04      	ldr	r4, [sp, #16]
    8692:	9404      	str	r4, [sp, #16]
    8694:	4653      	mov	r3, sl
    8696:	f7ff b974 	b.w	7982 <__vfprintf+0x16>
    869a:	9908      	ldr	r1, [sp, #32]
    869c:	f81a 7b01 	ldrb.w	r7, [sl], #1
    86a0:	fb02 3301 	mla	r3, r2, r1, r3
    86a4:	9308      	str	r3, [sp, #32]
    86a6:	f7ff b9e2 	b.w	7a6e <__vfprintf+0x102>
    86aa:	9804      	ldr	r0, [sp, #16]
    86ac:	b031      	add	sp, #196	; 0xc4
    86ae:	e8bd 8ff0 	ldmia.w	sp!, {r4, r5, r6, r7, r8, r9, sl, fp, pc}
    86b2:	bf00      	nop

000086b4 <setvbuf>:
    86b4:	b570      	push	{r4, r5, r6, lr}
    86b6:	68c4      	ldr	r4, [r0, #12]
    86b8:	07a5      	lsls	r5, r4, #30
    86ba:	d017      	beq.n	86ec <setvbuf+0x38>
    86bc:	f5b2 7f00 	cmp.w	r2, #512	; 0x200
    86c0:	d009      	beq.n	86d6 <setvbuf+0x22>
    86c2:	f5b2 6f80 	cmp.w	r2, #1024	; 0x400
    86c6:	d003      	beq.n	86d0 <setvbuf+0x1c>
    86c8:	f5b2 7f80 	cmp.w	r2, #256	; 0x100
    86cc:	d10e      	bne.n	86ec <setvbuf+0x38>
    86ce:	e002      	b.n	86d6 <setvbuf+0x22>
    86d0:	6a41      	ldr	r1, [r0, #36]	; 0x24
    86d2:	2301      	movs	r3, #1
    86d4:	e003      	b.n	86de <setvbuf+0x2a>
    86d6:	4d06      	ldr	r5, [pc, #24]	; (86f0 <setvbuf+0x3c>)
    86d8:	1e5e      	subs	r6, r3, #1
    86da:	42ae      	cmp	r6, r5
    86dc:	d806      	bhi.n	86ec <setvbuf+0x38>
    86de:	4322      	orrs	r2, r4
    86e0:	6101      	str	r1, [r0, #16]
    86e2:	6001      	str	r1, [r0, #0]
    86e4:	61c3      	str	r3, [r0, #28]
    86e6:	60c2      	str	r2, [r0, #12]
    86e8:	2000      	movs	r0, #0
    86ea:	bd70      	pop	{r4, r5, r6, pc}
    86ec:	2001      	movs	r0, #1
    86ee:	bd70      	pop	{r4, r5, r6, pc}
    86f0:	00fffffe 	.word	0x00fffffe

000086f4 <rand>:
    86f4:	b530      	push	{r4, r5, lr}
    86f6:	4c0b      	ldr	r4, [pc, #44]	; (8724 <rand+0x30>)
    86f8:	490b      	ldr	r1, [pc, #44]	; (8728 <rand+0x34>)
    86fa:	6822      	ldr	r2, [r4, #0]
    86fc:	4d0b      	ldr	r5, [pc, #44]	; (872c <rand+0x38>)
    86fe:	680b      	ldr	r3, [r1, #0]
    8700:	f855 0022 	ldr.w	r0, [r5, r2, lsl #2]
    8704:	f845 0023 	str.w	r0, [r5, r3, lsl #2]
    8708:	3a01      	subs	r2, #1
    870a:	6022      	str	r2, [r4, #0]
    870c:	3b01      	subs	r3, #1
    870e:	b912      	cbnz	r2, 8716 <rand+0x22>
    8710:	2236      	movs	r2, #54	; 0x36
    8712:	6022      	str	r2, [r4, #0]
    8714:	e001      	b.n	871a <rand+0x26>
    8716:	b903      	cbnz	r3, 871a <rand+0x26>
    8718:	2336      	movs	r3, #54	; 0x36
    871a:	600b      	str	r3, [r1, #0]
    871c:	f020 4000 	bic.w	r0, r0, #2147483648	; 0x80000000
    8720:	bd30      	pop	{r4, r5, pc}
    8722:	bf00      	nop
    8724:	200000f0 	.word	0x200000f0
    8728:	200000f4 	.word	0x200000f4
    872c:	20000014 	.word	0x20000014

00008730 <strlen>:
    8730:	b510      	push	{r4, lr}
    8732:	1c42      	adds	r2, r0, #1
    8734:	0783      	lsls	r3, r0, #30
    8736:	d005      	beq.n	8744 <strlen+0x14>
    8738:	f810 3b01 	ldrb.w	r3, [r0], #1
    873c:	2b00      	cmp	r3, #0
    873e:	d1f9      	bne.n	8734 <strlen+0x4>
    8740:	1a80      	subs	r0, r0, r2
    8742:	bd10      	pop	{r4, pc}
    8744:	4603      	mov	r3, r0
    8746:	f850 1b04 	ldr.w	r1, [r0], #4
    874a:	f1a1 3401 	sub.w	r4, r1, #16843009	; 0x1010101
    874e:	ea24 0401 	bic.w	r4, r4, r1
    8752:	f014 3f80 	tst.w	r4, #2155905152	; 0x80808080
    8756:	d0f5      	beq.n	8744 <strlen+0x14>
    8758:	f011 0fff 	tst.w	r1, #255	; 0xff
    875c:	d00a      	beq.n	8774 <strlen+0x44>
    875e:	f411 4f7f 	tst.w	r1, #65280	; 0xff00
    8762:	d005      	beq.n	8770 <strlen+0x40>
    8764:	f411 0f7f 	tst.w	r1, #16711680	; 0xff0000
    8768:	bf14      	ite	ne
    876a:	4603      	movne	r3, r0
    876c:	3303      	addeq	r3, #3
    876e:	e002      	b.n	8776 <strlen+0x46>
    8770:	3302      	adds	r3, #2
    8772:	e000      	b.n	8776 <strlen+0x46>
    8774:	3301      	adds	r3, #1
    8776:	1a98      	subs	r0, r3, r2
    8778:	bd10      	pop	{r4, pc}
    877a:	ffff ffff 			; <UNDEFINED> instruction: 0xffffffff
    877e:	Address 0x0000877e is out of bounds.


00008780 <_sincosf>:
    8780:	b5d0      	push	{r4, r6, r7, lr}
    8782:	ee07 1a90 	vmov	s15, r1
    8786:	ed9f 7a3c 	vldr	s14, [pc, #240]	; 8878 <_sincosf+0xf8>
    878a:	eef4 7ac7 	vcmpe.f32	s15, s14
    878e:	eef1 fa10 	vmrs	APSR_nzcv, fpscr
    8792:	ed2d 8b02 	vpush	{d8}
    8796:	4614      	mov	r4, r2
    8798:	db05      	blt.n	87a6 <_sincosf+0x26>
    879a:	4b38      	ldr	r3, [pc, #224]	; (887c <_sincosf+0xfc>)
    879c:	ed9f 8a38 	vldr	s16, [pc, #224]	; 8880 <_sincosf+0x100>
    87a0:	2221      	movs	r2, #33	; 0x21
    87a2:	601a      	str	r2, [r3, #0]
    87a4:	e05f      	b.n	8866 <_sincosf+0xe6>
    87a6:	ed9f 7a37 	vldr	s14, [pc, #220]	; 8884 <_sincosf+0x104>
    87aa:	eddf 6a37 	vldr	s13, [pc, #220]	; 8888 <_sincosf+0x108>
    87ae:	ee37 7a87 	vadd.f32	s14, s15, s14
    87b2:	eec7 7a26 	vdiv.f32	s15, s14, s13
    87b6:	eefd 7ae7 	vcvt.s32.f32	s15, s15
    87ba:	ee17 2a90 	vmov	r2, s15
    87be:	07d2      	lsls	r2, r2, #31
    87c0:	eeb8 8ae7 	vcvt.f32.s32	s16, s15
    87c4:	bf48      	it	mi
    87c6:	4264      	negmi	r4, r4
    87c8:	b11b      	cbz	r3, 87d2 <_sincosf+0x52>
    87ca:	eef6 7a00 	vmov.f32	s15, #96	; 0x3f000000  0.5
    87ce:	ee38 8a67 	vsub.f32	s16, s16, s15
    87d2:	f001 f859 	bl	9888 <__aeabi_f2d>
    87d6:	4606      	mov	r6, r0
    87d8:	ee18 0a10 	vmov	r0, s16
    87dc:	460f      	mov	r7, r1
    87de:	f001 f853 	bl	9888 <__aeabi_f2d>
    87e2:	a323      	add	r3, pc, #140	; (adr r3, 8870 <_sincosf+0xf0>)
    87e4:	e9d3 2300 	ldrd	r2, r3, [r3]
    87e8:	f000 fcb4 	bl	9154 <__aeabi_dmul>
    87ec:	4602      	mov	r2, r0
    87ee:	460b      	mov	r3, r1
    87f0:	4630      	mov	r0, r6
    87f2:	4639      	mov	r1, r7
    87f4:	f000 fdd4 	bl	93a0 <__aeabi_dsub>
    87f8:	f000 ff36 	bl	9668 <__aeabi_d2f>
    87fc:	ee08 0a10 	vmov	s16, r0
    8800:	f000 f856 	bl	88b0 <fabsf>
    8804:	eddf 7a21 	vldr	s15, [pc, #132]	; 888c <_sincosf+0x10c>
    8808:	ee07 0a10 	vmov	s14, r0
    880c:	eeb4 7ae7 	vcmpe.f32	s14, s15
    8810:	eef1 fa10 	vmrs	APSR_nzcv, fpscr
    8814:	db23      	blt.n	885e <_sincosf+0xde>
    8816:	ee68 7a08 	vmul.f32	s15, s16, s16
    881a:	eddf 6a1d 	vldr	s13, [pc, #116]	; 8890 <_sincosf+0x110>
    881e:	ed9f 7a1d 	vldr	s14, [pc, #116]	; 8894 <_sincosf+0x114>
    8822:	eea7 7aa6 	vfma.f32	s14, s15, s13
    8826:	eddf 6a1c 	vldr	s13, [pc, #112]	; 8898 <_sincosf+0x118>
    882a:	eee7 6a87 	vfma.f32	s13, s15, s14
    882e:	ed9f 7a1b 	vldr	s14, [pc, #108]	; 889c <_sincosf+0x11c>
    8832:	eea7 7aa6 	vfma.f32	s14, s15, s13
    8836:	eddf 6a1a 	vldr	s13, [pc, #104]	; 88a0 <_sincosf+0x120>
    883a:	eee7 6a87 	vfma.f32	s13, s15, s14
    883e:	ed9f 7a19 	vldr	s14, [pc, #100]	; 88a4 <_sincosf+0x124>
    8842:	eea7 7aa6 	vfma.f32	s14, s15, s13
    8846:	eddf 6a18 	vldr	s13, [pc, #96]	; 88a8 <_sincosf+0x128>
    884a:	eee7 6a87 	vfma.f32	s13, s15, s14
    884e:	ed9f 7a17 	vldr	s14, [pc, #92]	; 88ac <_sincosf+0x12c>
    8852:	eea7 7aa6 	vfma.f32	s14, s15, s13
    8856:	ee67 7a27 	vmul.f32	s15, s14, s15
    885a:	eea8 8a27 	vfma.f32	s16, s16, s15
    885e:	2c00      	cmp	r4, #0
    8860:	bfb8      	it	lt
    8862:	eeb1 8a48 	vneglt.f32	s16, s16
    8866:	ee18 0a10 	vmov	r0, s16
    886a:	ecbd 8b02 	vpop	{d8}
    886e:	bdd0      	pop	{r4, r6, r7, pc}
    8870:	54442d18 	.word	0x54442d18
    8874:	400921fb 	.word	0x400921fb
    8878:	47c35000 	.word	0x47c35000
    887c:	20000250 	.word	0x20000250
    8880:	ff7fffff 	.word	0xff7fffff
    8884:	3fc90fdb 	.word	0x3fc90fdb
    8888:	40490fdb 	.word	0x40490fdb
    888c:	2edbe6ff 	.word	0x2edbe6ff
    8890:	274407fb 	.word	0x274407fb
    8894:	ab572107 	.word	0xab572107
    8898:	2f3091e3 	.word	0x2f3091e3
    889c:	b2d7322a 	.word	0xb2d7322a
    88a0:	3638ef1d 	.word	0x3638ef1d
    88a4:	b9500d01 	.word	0xb9500d01
    88a8:	3c088889 	.word	0x3c088889
    88ac:	be2aaaab 	.word	0xbe2aaaab

000088b0 <fabsf>:
    88b0:	ee07 0a90 	vmov	s15, r0
    88b4:	eef5 7ac0 	vcmpe.f32	s15, #0.0
    88b8:	eef1 fa10 	vmrs	APSR_nzcv, fpscr
    88bc:	bf48      	it	mi
    88be:	eef1 7a67 	vnegmi.f32	s15, s15
    88c2:	ee17 0a90 	vmov	r0, s15
    88c6:	4770      	bx	lr

000088c8 <_deferredlazyseek>:
    88c8:	68c3      	ldr	r3, [r0, #12]
    88ca:	6982      	ldr	r2, [r0, #24]
    88cc:	f023 0320 	bic.w	r3, r3, #32
    88d0:	b510      	push	{r4, lr}
    88d2:	60c3      	str	r3, [r0, #12]
    88d4:	6a43      	ldr	r3, [r0, #36]	; 0x24
    88d6:	685b      	ldr	r3, [r3, #4]
    88d8:	429a      	cmp	r2, r3
    88da:	4604      	mov	r4, r0
    88dc:	d00f      	beq.n	88fe <_deferredlazyseek+0x36>
    88de:	f000 f8ea 	bl	8ab6 <_fflush>
    88e2:	68e3      	ldr	r3, [r4, #12]
    88e4:	6a62      	ldr	r2, [r4, #36]	; 0x24
    88e6:	f423 5340 	bic.w	r3, r3, #12288	; 0x3000
    88ea:	f023 0310 	bic.w	r3, r3, #16
    88ee:	f043 0310 	orr.w	r3, r3, #16
    88f2:	60e3      	str	r3, [r4, #12]
    88f4:	6853      	ldr	r3, [r2, #4]
    88f6:	61a3      	str	r3, [r4, #24]
    88f8:	6923      	ldr	r3, [r4, #16]
    88fa:	6093      	str	r3, [r2, #8]
    88fc:	6023      	str	r3, [r4, #0]
    88fe:	68e3      	ldr	r3, [r4, #12]
    8900:	f423 4380 	bic.w	r3, r3, #16384	; 0x4000
    8904:	f023 0340 	bic.w	r3, r3, #64	; 0x40
    8908:	60e3      	str	r3, [r4, #12]
    890a:	bd10      	pop	{r4, pc}

0000890c <__flsbuf>:
    890c:	b5f8      	push	{r3, r4, r5, r6, r7, lr}
    890e:	68cb      	ldr	r3, [r1, #12]
    8910:	f423 2200 	bic.w	r2, r3, #524288	; 0x80000
    8914:	069f      	lsls	r7, r3, #26
    8916:	4606      	mov	r6, r0
    8918:	460c      	mov	r4, r1
    891a:	60ca      	str	r2, [r1, #12]
    891c:	d502      	bpl.n	8924 <__flsbuf+0x18>
    891e:	4608      	mov	r0, r1
    8920:	f7ff ffd2 	bl	88c8 <_deferredlazyseek>
    8924:	68a1      	ldr	r1, [r4, #8]
    8926:	68e3      	ldr	r3, [r4, #12]
    8928:	1c4d      	adds	r5, r1, #1
    892a:	da0d      	bge.n	8948 <__flsbuf+0x3c>
    892c:	0598      	lsls	r0, r3, #22
    892e:	d40b      	bmi.n	8948 <__flsbuf+0x3c>
    8930:	f443 3390 	orr.w	r3, r3, #73728	; 0x12000
    8934:	60e3      	str	r3, [r4, #12]
    8936:	f06f 0201 	mvn.w	r2, #1
    893a:	6823      	ldr	r3, [r4, #0]
    893c:	1a52      	subs	r2, r2, r1
    893e:	60a2      	str	r2, [r4, #8]
    8940:	1c5a      	adds	r2, r3, #1
    8942:	6022      	str	r2, [r4, #0]
    8944:	701e      	strb	r6, [r3, #0]
    8946:	e07f      	b.n	8a48 <__flsbuf+0x13c>
    8948:	f241 028a 	movw	r2, #4234	; 0x108a
    894c:	401a      	ands	r2, r3
    894e:	2a02      	cmp	r2, #2
    8950:	461d      	mov	r5, r3
    8952:	d005      	beq.n	8960 <__flsbuf+0x54>
    8954:	2200      	movs	r2, #0
    8956:	f043 0380 	orr.w	r3, r3, #128	; 0x80
    895a:	60a2      	str	r2, [r4, #8]
    895c:	60e3      	str	r3, [r4, #12]
    895e:	e051      	b.n	8a04 <__flsbuf+0xf8>
    8960:	f24a 0110 	movw	r1, #40976	; 0xa010
    8964:	4019      	ands	r1, r3
    8966:	f5b1 4f00 	cmp.w	r1, #32768	; 0x8000
    896a:	d10a      	bne.n	8982 <__flsbuf+0x76>
    896c:	2100      	movs	r1, #0
    896e:	4620      	mov	r0, r4
    8970:	f000 fa2e 	bl	8dd0 <fseek>
    8974:	68e3      	ldr	r3, [r4, #12]
    8976:	0699      	lsls	r1, r3, #26
    8978:	d502      	bpl.n	8980 <__flsbuf+0x74>
    897a:	4620      	mov	r0, r4
    897c:	f7ff ffa4 	bl	88c8 <_deferredlazyseek>
    8980:	68e5      	ldr	r5, [r4, #12]
    8982:	f445 3390 	orr.w	r3, r5, #73728	; 0x12000
    8986:	f415 6f70 	tst.w	r5, #3840	; 0xf00
    898a:	60e3      	str	r3, [r4, #12]
    898c:	d11c      	bne.n	89c8 <__flsbuf+0xbc>
    898e:	6960      	ldr	r0, [r4, #20]
    8990:	f000 ffc2 	bl	9918 <__sys_istty>
    8994:	b150      	cbz	r0, 89ac <__flsbuf+0xa0>
    8996:	056a      	lsls	r2, r5, #21
    8998:	d508      	bpl.n	89ac <__flsbuf+0xa0>
    899a:	6a63      	ldr	r3, [r4, #36]	; 0x24
    899c:	6123      	str	r3, [r4, #16]
    899e:	6023      	str	r3, [r4, #0]
    89a0:	2301      	movs	r3, #1
    89a2:	61e3      	str	r3, [r4, #28]
    89a4:	f445 3392 	orr.w	r3, r5, #74752	; 0x12400
    89a8:	60e3      	str	r3, [r4, #12]
    89aa:	e00d      	b.n	89c8 <__flsbuf+0xbc>
    89ac:	f44f 5080 	mov.w	r0, #4096	; 0x1000
    89b0:	f000 f9b0 	bl	8d14 <_Csys_alloc>
    89b4:	f44f 5380 	mov.w	r3, #4096	; 0x1000
    89b8:	68e2      	ldr	r2, [r4, #12]
    89ba:	61e3      	str	r3, [r4, #28]
    89bc:	f445 3394 	orr.w	r3, r5, #75776	; 0x12800
    89c0:	431a      	orrs	r2, r3
    89c2:	6120      	str	r0, [r4, #16]
    89c4:	6020      	str	r0, [r4, #0]
    89c6:	60e2      	str	r2, [r4, #12]
    89c8:	f413 6f10 	tst.w	r3, #2304	; 0x900
    89cc:	6821      	ldr	r1, [r4, #0]
    89ce:	6925      	ldr	r5, [r4, #16]
    89d0:	d01b      	beq.n	8a0a <__flsbuf+0xfe>
    89d2:	6a63      	ldr	r3, [r4, #36]	; 0x24
    89d4:	689b      	ldr	r3, [r3, #8]
    89d6:	428b      	cmp	r3, r1
    89d8:	bf2c      	ite	cs
    89da:	ebc5 0103 	rsbcs	r1, r5, r3
    89de:	ebc5 0101 	rsbcc	r1, r5, r1
    89e2:	b949      	cbnz	r1, 89f8 <__flsbuf+0xec>
    89e4:	6a63      	ldr	r3, [r4, #36]	; 0x24
    89e6:	1c6a      	adds	r2, r5, #1
    89e8:	609a      	str	r2, [r3, #8]
    89ea:	6022      	str	r2, [r4, #0]
    89ec:	69e2      	ldr	r2, [r4, #28]
    89ee:	1e51      	subs	r1, r2, #1
    89f0:	60a1      	str	r1, [r4, #8]
    89f2:	60da      	str	r2, [r3, #12]
    89f4:	702e      	strb	r6, [r5, #0]
    89f6:	e027      	b.n	8a48 <__flsbuf+0x13c>
    89f8:	4622      	mov	r2, r4
    89fa:	4628      	mov	r0, r5
    89fc:	f000 f8da 	bl	8bb4 <_Cwritebuf>
    8a00:	2800      	cmp	r0, #0
    8a02:	d0ef      	beq.n	89e4 <__flsbuf+0xd8>
    8a04:	f04f 30ff 	mov.w	r0, #4294967295
    8a08:	bdf8      	pop	{r3, r4, r5, r6, r7, pc}
    8a0a:	1c4a      	adds	r2, r1, #1
    8a0c:	6022      	str	r2, [r4, #0]
    8a0e:	700e      	strb	r6, [r1, #0]
    8a10:	6a67      	ldr	r7, [r4, #36]	; 0x24
    8a12:	6822      	ldr	r2, [r4, #0]
    8a14:	68b9      	ldr	r1, [r7, #8]
    8a16:	428a      	cmp	r2, r1
    8a18:	bf2c      	ite	cs
    8a1a:	ebc5 0102 	rsbcs	r1, r5, r2
    8a1e:	ebc5 0101 	rsbcc	r1, r5, r1
    8a22:	69e2      	ldr	r2, [r4, #28]
    8a24:	60fa      	str	r2, [r7, #12]
    8a26:	055b      	lsls	r3, r3, #21
    8a28:	d404      	bmi.n	8a34 <__flsbuf+0x128>
    8a2a:	b2f0      	uxtb	r0, r6
    8a2c:	280a      	cmp	r0, #10
    8a2e:	d001      	beq.n	8a34 <__flsbuf+0x128>
    8a30:	4291      	cmp	r1, r2
    8a32:	db0a      	blt.n	8a4a <__flsbuf+0x13e>
    8a34:	2300      	movs	r3, #0
    8a36:	60bd      	str	r5, [r7, #8]
    8a38:	4622      	mov	r2, r4
    8a3a:	6025      	str	r5, [r4, #0]
    8a3c:	60a3      	str	r3, [r4, #8]
    8a3e:	4628      	mov	r0, r5
    8a40:	f000 f8b8 	bl	8bb4 <_Cwritebuf>
    8a44:	2800      	cmp	r0, #0
    8a46:	d1dd      	bne.n	8a04 <__flsbuf+0xf8>
    8a48:	b2f0      	uxtb	r0, r6
    8a4a:	bdf8      	pop	{r3, r4, r5, r6, r7, pc}

00008a4c <_fdopen>:
    8a4c:	b570      	push	{r4, r5, r6, lr}
    8a4e:	460d      	mov	r5, r1
    8a50:	4606      	mov	r6, r0
    8a52:	4610      	mov	r0, r2
    8a54:	4614      	mov	r4, r2
    8a56:	f000 f96d 	bl	8d34 <fclose>
    8a5a:	782b      	ldrb	r3, [r5, #0]
    8a5c:	2b72      	cmp	r3, #114	; 0x72
    8a5e:	d00a      	beq.n	8a76 <_fdopen+0x2a>
    8a60:	2b77      	cmp	r3, #119	; 0x77
    8a62:	d005      	beq.n	8a70 <_fdopen+0x24>
    8a64:	2b61      	cmp	r3, #97	; 0x61
    8a66:	d122      	bne.n	8aae <_fdopen+0x62>
    8a68:	2308      	movs	r3, #8
    8a6a:	f248 0202 	movw	r2, #32770	; 0x8002
    8a6e:	e004      	b.n	8a7a <_fdopen+0x2e>
    8a70:	2304      	movs	r3, #4
    8a72:	2202      	movs	r2, #2
    8a74:	e001      	b.n	8a7a <_fdopen+0x2e>
    8a76:	2300      	movs	r3, #0
    8a78:	2201      	movs	r2, #1
    8a7a:	f815 1f01 	ldrb.w	r1, [r5, #1]!
    8a7e:	292b      	cmp	r1, #43	; 0x2b
    8a80:	d006      	beq.n	8a90 <_fdopen+0x44>
    8a82:	2962      	cmp	r1, #98	; 0x62
    8a84:	d109      	bne.n	8a9a <_fdopen+0x4e>
    8a86:	f042 0204 	orr.w	r2, r2, #4
    8a8a:	f043 0301 	orr.w	r3, r3, #1
    8a8e:	e7f4      	b.n	8a7a <_fdopen+0x2e>
    8a90:	f042 0203 	orr.w	r2, r2, #3
    8a94:	f043 0302 	orr.w	r3, r3, #2
    8a98:	e7ef      	b.n	8a7a <_fdopen+0x2e>
    8a9a:	071b      	lsls	r3, r3, #28
    8a9c:	60e2      	str	r2, [r4, #12]
    8a9e:	6166      	str	r6, [r4, #20]
    8aa0:	d507      	bpl.n	8ab2 <_fdopen+0x66>
    8aa2:	2202      	movs	r2, #2
    8aa4:	2100      	movs	r1, #0
    8aa6:	4620      	mov	r0, r4
    8aa8:	f000 f992 	bl	8dd0 <fseek>
    8aac:	e001      	b.n	8ab2 <_fdopen+0x66>
    8aae:	2000      	movs	r0, #0
    8ab0:	bd70      	pop	{r4, r5, r6, pc}
    8ab2:	4620      	mov	r0, r4
    8ab4:	bd70      	pop	{r4, r5, r6, pc}

00008ab6 <_fflush>:
    8ab6:	b538      	push	{r3, r4, r5, lr}
    8ab8:	6801      	ldr	r1, [r0, #0]
    8aba:	6a43      	ldr	r3, [r0, #36]	; 0x24
    8abc:	6905      	ldr	r5, [r0, #16]
    8abe:	689b      	ldr	r3, [r3, #8]
    8ac0:	4604      	mov	r4, r0
    8ac2:	68c0      	ldr	r0, [r0, #12]
    8ac4:	f420 2200 	bic.w	r2, r0, #524288	; 0x80000
    8ac8:	60e2      	str	r2, [r4, #12]
    8aca:	f000 0282 	and.w	r2, r0, #130	; 0x82
    8ace:	2a02      	cmp	r2, #2
    8ad0:	d002      	beq.n	8ad8 <_fflush+0x22>
    8ad2:	f04f 30ff 	mov.w	r0, #4294967295
    8ad6:	bd38      	pop	{r3, r4, r5, pc}
    8ad8:	f410 3080 	ands.w	r0, r0, #65536	; 0x10000
    8adc:	d016      	beq.n	8b0c <_fflush+0x56>
    8ade:	4299      	cmp	r1, r3
    8ae0:	bf38      	it	cc
    8ae2:	4619      	movcc	r1, r3
    8ae4:	428d      	cmp	r5, r1
    8ae6:	d109      	bne.n	8afc <_fflush+0x46>
    8ae8:	6a63      	ldr	r3, [r4, #36]	; 0x24
    8aea:	609d      	str	r5, [r3, #8]
    8aec:	68e3      	ldr	r3, [r4, #12]
    8aee:	6025      	str	r5, [r4, #0]
    8af0:	2000      	movs	r0, #0
    8af2:	f423 3380 	bic.w	r3, r3, #65536	; 0x10000
    8af6:	60a0      	str	r0, [r4, #8]
    8af8:	60e3      	str	r3, [r4, #12]
    8afa:	bd38      	pop	{r3, r4, r5, pc}
    8afc:	4622      	mov	r2, r4
    8afe:	1b49      	subs	r1, r1, r5
    8b00:	4628      	mov	r0, r5
    8b02:	f000 f857 	bl	8bb4 <_Cwritebuf>
    8b06:	2800      	cmp	r0, #0
    8b08:	d0ee      	beq.n	8ae8 <_fflush+0x32>
    8b0a:	e7e2      	b.n	8ad2 <_fflush+0x1c>
    8b0c:	bd38      	pop	{r3, r4, r5, pc}

00008b0e <_frexpl>:
    8b0e:	b5f8      	push	{r3, r4, r5, r6, r7, lr}
    8b10:	4615      	mov	r5, r2
    8b12:	2300      	movs	r3, #0
    8b14:	2200      	movs	r2, #0
    8b16:	4606      	mov	r6, r0
    8b18:	460f      	mov	r7, r1
    8b1a:	f000 fe1c 	bl	9756 <__aeabi_dcmpeq>
    8b1e:	b120      	cbz	r0, 8b2a <_frexpl+0x1c>
    8b20:	2300      	movs	r3, #0
    8b22:	602b      	str	r3, [r5, #0]
    8b24:	2000      	movs	r0, #0
    8b26:	2100      	movs	r1, #0
    8b28:	bdf8      	pop	{r3, r4, r5, r6, r7, pc}
    8b2a:	f3c7 530a 	ubfx	r3, r7, #20, #11
    8b2e:	4630      	mov	r0, r6
    8b30:	4639      	mov	r1, r7
    8b32:	f2a3 34fe 	subw	r4, r3, #1022	; 0x3fe
    8b36:	b98b      	cbnz	r3, 8b5c <_frexpl+0x4e>
    8b38:	f3c7 0313 	ubfx	r3, r7, #0, #20
    8b3c:	4632      	mov	r2, r6
    8b3e:	0fd7      	lsrs	r7, r2, #31
    8b40:	f403 2600 	and.w	r6, r3, #524288	; 0x80000
    8b44:	ea47 0343 	orr.w	r3, r7, r3, lsl #1
    8b48:	f3c3 0313 	ubfx	r3, r3, #0, #20
    8b4c:	0052      	lsls	r2, r2, #1
    8b4e:	b11e      	cbz	r6, 8b58 <_frexpl+0x4a>
    8b50:	f363 0113 	bfi	r1, r3, #0, #20
    8b54:	4610      	mov	r0, r2
    8b56:	e001      	b.n	8b5c <_frexpl+0x4e>
    8b58:	3c01      	subs	r4, #1
    8b5a:	e7f0      	b.n	8b3e <_frexpl+0x30>
    8b5c:	f240 33fe 	movw	r3, #1022	; 0x3fe
    8b60:	602c      	str	r4, [r5, #0]
    8b62:	f363 511e 	bfi	r1, r3, #20, #11
    8b66:	bdf8      	pop	{r3, r4, r5, r6, r7, pc}

00008b68 <_ldexpl>:
    8b68:	b570      	push	{r4, r5, r6, lr}
    8b6a:	2300      	movs	r3, #0
    8b6c:	4616      	mov	r6, r2
    8b6e:	2200      	movs	r2, #0
    8b70:	4604      	mov	r4, r0
    8b72:	460d      	mov	r5, r1
    8b74:	f000 fdef 	bl	9756 <__aeabi_dcmpeq>
    8b78:	b110      	cbz	r0, 8b80 <_ldexpl+0x18>
    8b7a:	2000      	movs	r0, #0
    8b7c:	2100      	movs	r1, #0
    8b7e:	bd70      	pop	{r4, r5, r6, pc}
    8b80:	f3c5 520a 	ubfx	r2, r5, #20, #11
    8b84:	4432      	add	r2, r6
    8b86:	f240 73fe 	movw	r3, #2046	; 0x7fe
    8b8a:	429a      	cmp	r2, r3
    8b8c:	4620      	mov	r0, r4
    8b8e:	4629      	mov	r1, r5
    8b90:	dd06      	ble.n	8ba0 <_ldexpl+0x38>
    8b92:	4b06      	ldr	r3, [pc, #24]	; (8bac <_ldexpl+0x44>)
    8b94:	2222      	movs	r2, #34	; 0x22
    8b96:	601a      	str	r2, [r3, #0]
    8b98:	4b05      	ldr	r3, [pc, #20]	; (8bb0 <_ldexpl+0x48>)
    8b9a:	e9d3 0100 	ldrd	r0, r1, [r3]
    8b9e:	bd70      	pop	{r4, r5, r6, pc}
    8ba0:	2a00      	cmp	r2, #0
    8ba2:	ddea      	ble.n	8b7a <_ldexpl+0x12>
    8ba4:	f362 511e 	bfi	r1, r2, #20, #11
    8ba8:	bd70      	pop	{r4, r5, r6, pc}
    8baa:	bf00      	nop
    8bac:	20000250 	.word	0x20000250
    8bb0:	0001f0d8 	.word	0x0001f0d8

00008bb4 <_Cwritebuf>:
    8bb4:	e92d 41f0 	stmdb	sp!, {r4, r5, r6, r7, r8, lr}
    8bb8:	68d5      	ldr	r5, [r2, #12]
    8bba:	6957      	ldr	r7, [r2, #20]
    8bbc:	02eb      	lsls	r3, r5, #11
    8bbe:	4680      	mov	r8, r0
    8bc0:	460e      	mov	r6, r1
    8bc2:	4614      	mov	r4, r2
    8bc4:	d505      	bpl.n	8bd2 <_Cwritebuf+0x1e>
    8bc6:	4638      	mov	r0, r7
    8bc8:	f000 fea0 	bl	990c <__sys_flen>
    8bcc:	f045 0510 	orr.w	r5, r5, #16
    8bd0:	61a0      	str	r0, [r4, #24]
    8bd2:	4b11      	ldr	r3, [pc, #68]	; (8c18 <_Cwritebuf+0x64>)
    8bd4:	402b      	ands	r3, r5
    8bd6:	b153      	cbz	r3, 8bee <_Cwritebuf+0x3a>
    8bd8:	69a1      	ldr	r1, [r4, #24]
    8bda:	4638      	mov	r0, r7
    8bdc:	f000 fea8 	bl	9930 <__sys_seek>
    8be0:	2800      	cmp	r0, #0
    8be2:	db10      	blt.n	8c06 <_Cwritebuf+0x52>
    8be4:	f425 3500 	bic.w	r5, r5, #131072	; 0x20000
    8be8:	f025 0510 	bic.w	r5, r5, #16
    8bec:	60e5      	str	r5, [r4, #12]
    8bee:	4632      	mov	r2, r6
    8bf0:	4641      	mov	r1, r8
    8bf2:	4638      	mov	r0, r7
    8bf4:	f7f9 f9a8 	bl	1f48 <__sys_write>
    8bf8:	f020 4300 	bic.w	r3, r0, #2147483648	; 0x80000000
    8bfc:	1af6      	subs	r6, r6, r3
    8bfe:	69a3      	ldr	r3, [r4, #24]
    8c00:	441e      	add	r6, r3
    8c02:	61a6      	str	r6, [r4, #24]
    8c04:	b128      	cbz	r0, 8c12 <_Cwritebuf+0x5e>
    8c06:	68e3      	ldr	r3, [r4, #12]
    8c08:	f043 0380 	orr.w	r3, r3, #128	; 0x80
    8c0c:	60e3      	str	r3, [r4, #12]
    8c0e:	f04f 30ff 	mov.w	r0, #4294967295
    8c12:	e8bd 81f0 	ldmia.w	sp!, {r4, r5, r6, r7, r8, pc}
    8c16:	bf00      	nop
    8c18:	00020010 	.word	0x00020010

00008c1c <malloc>:
    8c1c:	b5f8      	push	{r3, r4, r5, r6, r7, lr}
    8c1e:	4f30      	ldr	r7, [pc, #192]	; (8ce0 <malloc+0xc4>)
    8c20:	683c      	ldr	r4, [r7, #0]
    8c22:	b1a0      	cbz	r0, 8c4e <malloc+0x32>
    8c24:	1cc5      	adds	r5, r0, #3
    8c26:	08ad      	lsrs	r5, r5, #2
    8c28:	2600      	movs	r6, #0
    8c2a:	f105 0e0a 	add.w	lr, r5, #10
    8c2e:	f105 0c03 	add.w	ip, r5, #3
    8c32:	e005      	b.n	8c40 <malloc+0x24>
    8c34:	6823      	ldr	r3, [r4, #0]
    8c36:	f1b3 5f80 	cmp.w	r3, #268435456	; 0x10000000
    8c3a:	d014      	beq.n	8c66 <malloc+0x4a>
    8c3c:	4626      	mov	r6, r4
    8c3e:	68a4      	ldr	r4, [r4, #8]
    8c40:	2c00      	cmp	r4, #0
    8c42:	d1f7      	bne.n	8c34 <malloc+0x18>
    8c44:	300c      	adds	r0, #12
    8c46:	f000 f97b 	bl	8f40 <_sbrk>
    8c4a:	1c43      	adds	r3, r0, #1
    8c4c:	d110      	bne.n	8c70 <malloc+0x54>
    8c4e:	2000      	movs	r0, #0
    8c50:	bdf8      	pop	{r3, r4, r5, r6, r7, pc}
    8c52:	6811      	ldr	r1, [r2, #0]
    8c54:	f1b1 5f80 	cmp.w	r1, #268435456	; 0x10000000
    8c58:	d115      	bne.n	8c86 <malloc+0x6a>
    8c5a:	6851      	ldr	r1, [r2, #4]
    8c5c:	440b      	add	r3, r1
    8c5e:	3303      	adds	r3, #3
    8c60:	6063      	str	r3, [r4, #4]
    8c62:	6893      	ldr	r3, [r2, #8]
    8c64:	60a3      	str	r3, [r4, #8]
    8c66:	68a2      	ldr	r2, [r4, #8]
    8c68:	6863      	ldr	r3, [r4, #4]
    8c6a:	2a00      	cmp	r2, #0
    8c6c:	d1f1      	bne.n	8c52 <malloc+0x36>
    8c6e:	e00a      	b.n	8c86 <malloc+0x6a>
    8c70:	f04f 5300 	mov.w	r3, #536870912	; 0x20000000
    8c74:	e880 0028 	stmia.w	r0, {r3, r5}
    8c78:	6084      	str	r4, [r0, #8]
    8c7a:	b90e      	cbnz	r6, 8c80 <malloc+0x64>
    8c7c:	6038      	str	r0, [r7, #0]
    8c7e:	e000      	b.n	8c82 <malloc+0x66>
    8c80:	60b0      	str	r0, [r6, #8]
    8c82:	300c      	adds	r0, #12
    8c84:	bdf8      	pop	{r3, r4, r5, r6, r7, pc}
    8c86:	429d      	cmp	r5, r3
    8c88:	dc07      	bgt.n	8c9a <malloc+0x7e>
    8c8a:	4563      	cmp	r3, ip
    8c8c:	dc05      	bgt.n	8c9a <malloc+0x7e>
    8c8e:	4620      	mov	r0, r4
    8c90:	f04f 5300 	mov.w	r3, #536870912	; 0x20000000
    8c94:	f840 3b0c 	str.w	r3, [r0], #12
    8c98:	bdf8      	pop	{r3, r4, r5, r6, r7, pc}
    8c9a:	4573      	cmp	r3, lr
    8c9c:	d911      	bls.n	8cc2 <malloc+0xa6>
    8c9e:	4620      	mov	r0, r4
    8ca0:	f04f 5100 	mov.w	r1, #536870912	; 0x20000000
    8ca4:	6065      	str	r5, [r4, #4]
    8ca6:	f840 1b0c 	str.w	r1, [r0], #12
    8caa:	eb00 0185 	add.w	r1, r0, r5, lsl #2
    8cae:	60a1      	str	r1, [r4, #8]
    8cb0:	f04f 5480 	mov.w	r4, #268435456	; 0x10000000
    8cb4:	f840 4025 	str.w	r4, [r0, r5, lsl #2]
    8cb8:	1b5d      	subs	r5, r3, r5
    8cba:	3d03      	subs	r5, #3
    8cbc:	604d      	str	r5, [r1, #4]
    8cbe:	608a      	str	r2, [r1, #8]
    8cc0:	bdf8      	pop	{r3, r4, r5, r6, r7, pc}
    8cc2:	2a00      	cmp	r2, #0
    8cc4:	d1ba      	bne.n	8c3c <malloc+0x20>
    8cc6:	eba0 0083 	sub.w	r0, r0, r3, lsl #2
    8cca:	f000 f939 	bl	8f40 <_sbrk>
    8cce:	3001      	adds	r0, #1
    8cd0:	d0bd      	beq.n	8c4e <malloc+0x32>
    8cd2:	f04f 5300 	mov.w	r3, #536870912	; 0x20000000
    8cd6:	e884 0028 	stmia.w	r4, {r3, r5}
    8cda:	f104 000c 	add.w	r0, r4, #12
    8cde:	bdf8      	pop	{r3, r4, r5, r6, r7, pc}
    8ce0:	20000254 	.word	0x20000254

00008ce4 <free>:
    8ce4:	b1a8      	cbz	r0, 8d12 <free+0x2e>
    8ce6:	f04f 5380 	mov.w	r3, #268435456	; 0x10000000
    8cea:	f840 3c0c 	str.w	r3, [r0, #-12]
    8cee:	f850 2c04 	ldr.w	r2, [r0, #-4]
    8cf2:	b172      	cbz	r2, 8d12 <free+0x2e>
    8cf4:	6813      	ldr	r3, [r2, #0]
    8cf6:	f1b3 5f80 	cmp.w	r3, #268435456	; 0x10000000
    8cfa:	d10a      	bne.n	8d12 <free+0x2e>
    8cfc:	6853      	ldr	r3, [r2, #4]
    8cfe:	f850 1c08 	ldr.w	r1, [r0, #-8]
    8d02:	440b      	add	r3, r1
    8d04:	3303      	adds	r3, #3
    8d06:	f840 3c08 	str.w	r3, [r0, #-8]
    8d0a:	6893      	ldr	r3, [r2, #8]
    8d0c:	f840 3c04 	str.w	r3, [r0, #-4]
    8d10:	e7ed      	b.n	8cee <free+0xa>
    8d12:	4770      	bx	lr

00008d14 <_Csys_alloc>:
    8d14:	b510      	push	{r4, lr}
    8d16:	f7ff ff81 	bl	8c1c <malloc>
    8d1a:	4604      	mov	r4, r0
    8d1c:	b928      	cbnz	r0, 8d2a <_Csys_alloc+0x16>
    8d1e:	2217      	movs	r2, #23
    8d20:	4903      	ldr	r1, [pc, #12]	; (8d30 <_Csys_alloc+0x1c>)
    8d22:	f7f9 f911 	bl	1f48 <__sys_write>
    8d26:	f000 fde5 	bl	98f4 <__exit>
    8d2a:	4620      	mov	r0, r4
    8d2c:	bd10      	pop	{r4, pc}
    8d2e:	bf00      	nop
    8d30:	0001f0e0 	.word	0x0001f0e0

00008d34 <fclose>:
    8d34:	e92d 41f0 	stmdb	sp!, {r4, r5, r6, r7, r8, lr}
    8d38:	68c5      	ldr	r5, [r0, #12]
    8d3a:	6a46      	ldr	r6, [r0, #36]	; 0x24
    8d3c:	07a9      	lsls	r1, r5, #30
    8d3e:	b088      	sub	sp, #32
    8d40:	4604      	mov	r4, r0
    8d42:	d028      	beq.n	8d96 <fclose+0x62>
    8d44:	072a      	lsls	r2, r5, #28
    8d46:	d419      	bmi.n	8d7c <fclose+0x48>
    8d48:	f8d0 8014 	ldr.w	r8, [r0, #20]
    8d4c:	6907      	ldr	r7, [r0, #16]
    8d4e:	f000 f827 	bl	8da0 <fflush>
    8d52:	4640      	mov	r0, r8
    8d54:	f000 fdd4 	bl	9900 <__sys_close>
    8d58:	052b      	lsls	r3, r5, #20
    8d5a:	d502      	bpl.n	8d62 <fclose+0x2e>
    8d5c:	4638      	mov	r0, r7
    8d5e:	f7ff ffc1 	bl	8ce4 <free>
    8d62:	0dad      	lsrs	r5, r5, #22
    8d64:	05ad      	lsls	r5, r5, #22
    8d66:	f115 4fa5 	cmn.w	r5, #1384120320	; 0x52800000
    8d6a:	d107      	bne.n	8d7c <fclose+0x48>
    8d6c:	2220      	movs	r2, #32
    8d6e:	6a21      	ldr	r1, [r4, #32]
    8d70:	4668      	mov	r0, sp
    8d72:	f000 fde3 	bl	993c <__sys_tmpnam>
    8d76:	4668      	mov	r0, sp
    8d78:	f000 f8d8 	bl	8f2c <remove>
    8d7c:	2218      	movs	r2, #24
    8d7e:	2100      	movs	r1, #0
    8d80:	6a60      	ldr	r0, [r4, #36]	; 0x24
    8d82:	f7fe f858 	bl	6e36 <memset>
    8d86:	2228      	movs	r2, #40	; 0x28
    8d88:	2100      	movs	r1, #0
    8d8a:	4620      	mov	r0, r4
    8d8c:	f7fe f853 	bl	6e36 <memset>
    8d90:	6266      	str	r6, [r4, #36]	; 0x24
    8d92:	2000      	movs	r0, #0
    8d94:	e001      	b.n	8d9a <fclose+0x66>
    8d96:	f04f 30ff 	mov.w	r0, #4294967295
    8d9a:	b008      	add	sp, #32
    8d9c:	e8bd 81f0 	ldmia.w	sp!, {r4, r5, r6, r7, r8, pc}

00008da0 <fflush>:
    8da0:	b570      	push	{r4, r5, r6, lr}
    8da2:	4604      	mov	r4, r0
    8da4:	b118      	cbz	r0, 8dae <fflush+0xe>
    8da6:	e8bd 4070 	ldmia.w	sp!, {r4, r5, r6, lr}
    8daa:	f000 b8e9 	b.w	8f80 <_do_fflush>
    8dae:	4e07      	ldr	r6, [pc, #28]	; (8dcc <fflush+0x2c>)
    8db0:	4605      	mov	r5, r0
    8db2:	1930      	adds	r0, r6, r4
    8db4:	f000 f8e4 	bl	8f80 <_do_fflush>
    8db8:	3428      	adds	r4, #40	; 0x28
    8dba:	2800      	cmp	r0, #0
    8dbc:	bf18      	it	ne
    8dbe:	f04f 35ff 	movne.w	r5, #4294967295
    8dc2:	f5b4 7fa0 	cmp.w	r4, #320	; 0x140
    8dc6:	d1f4      	bne.n	8db2 <fflush+0x12>
    8dc8:	4628      	mov	r0, r5
    8dca:	bd70      	pop	{r4, r5, r6, pc}
    8dcc:	20000110 	.word	0x20000110

00008dd0 <fseek>:
    8dd0:	e92d 43f8 	stmdb	sp!, {r3, r4, r5, r6, r7, r8, r9, lr}
    8dd4:	68c6      	ldr	r6, [r0, #12]
    8dd6:	4b41      	ldr	r3, [pc, #260]	; (8edc <fseek+0x10c>)
    8dd8:	4033      	ands	r3, r6
    8dda:	4604      	mov	r4, r0
    8ddc:	460d      	mov	r5, r1
    8dde:	4690      	mov	r8, r2
    8de0:	2b00      	cmp	r3, #0
    8de2:	d077      	beq.n	8ed4 <fseek+0x104>
    8de4:	f8d0 9014 	ldr.w	r9, [r0, #20]
    8de8:	4648      	mov	r0, r9
    8dea:	f000 fd95 	bl	9918 <__sys_istty>
    8dee:	4607      	mov	r7, r0
    8df0:	2800      	cmp	r0, #0
    8df2:	d16f      	bne.n	8ed4 <fseek+0x104>
    8df4:	f1b8 0f01 	cmp.w	r8, #1
    8df8:	d006      	beq.n	8e08 <fseek+0x38>
    8dfa:	f1b8 0f02 	cmp.w	r8, #2
    8dfe:	d008      	beq.n	8e12 <fseek+0x42>
    8e00:	f1b8 0f00 	cmp.w	r8, #0
    8e04:	d166      	bne.n	8ed4 <fseek+0x104>
    8e06:	e029      	b.n	8e5c <fseek+0x8c>
    8e08:	4620      	mov	r0, r4
    8e0a:	f000 f869 	bl	8ee0 <ftell>
    8e0e:	4405      	add	r5, r0
    8e10:	e024      	b.n	8e5c <fseek+0x8c>
    8e12:	4648      	mov	r0, r9
    8e14:	f000 fd7a 	bl	990c <__sys_flen>
    8e18:	f1b0 0e00 	subs.w	lr, r0, #0
    8e1c:	f8d4 c00c 	ldr.w	ip, [r4, #12]
    8e20:	da04      	bge.n	8e2c <fseek+0x5c>
    8e22:	f04c 0180 	orr.w	r1, ip, #128	; 0x80
    8e26:	60e1      	str	r1, [r4, #12]
    8e28:	2701      	movs	r7, #1
    8e2a:	e054      	b.n	8ed6 <fseek+0x106>
    8e2c:	6a60      	ldr	r0, [r4, #36]	; 0x24
    8e2e:	6883      	ldr	r3, [r0, #8]
    8e30:	461a      	mov	r2, r3
    8e32:	69a3      	ldr	r3, [r4, #24]
    8e34:	4619      	mov	r1, r3
    8e36:	6823      	ldr	r3, [r4, #0]
    8e38:	4293      	cmp	r3, r2
    8e3a:	bf2c      	ite	cs
    8e3c:	18c9      	addcs	r1, r1, r3
    8e3e:	1889      	addcc	r1, r1, r2
    8e40:	6923      	ldr	r3, [r4, #16]
    8e42:	f01c 0f20 	tst.w	ip, #32
    8e46:	eba1 0303 	sub.w	r3, r1, r3
    8e4a:	d003      	beq.n	8e54 <fseek+0x84>
    8e4c:	6842      	ldr	r2, [r0, #4]
    8e4e:	4293      	cmp	r3, r2
    8e50:	bfb8      	it	lt
    8e52:	4613      	movlt	r3, r2
    8e54:	4573      	cmp	r3, lr
    8e56:	bfac      	ite	ge
    8e58:	18ed      	addge	r5, r5, r3
    8e5a:	4475      	addlt	r5, lr
    8e5c:	2d00      	cmp	r5, #0
    8e5e:	db39      	blt.n	8ed4 <fseek+0x104>
    8e60:	f416 5f00 	tst.w	r6, #8192	; 0x2000
    8e64:	6a62      	ldr	r2, [r4, #36]	; 0x24
    8e66:	d004      	beq.n	8e72 <fseek+0xa2>
    8e68:	6823      	ldr	r3, [r4, #0]
    8e6a:	6891      	ldr	r1, [r2, #8]
    8e6c:	4299      	cmp	r1, r3
    8e6e:	bf38      	it	cc
    8e70:	6093      	strcc	r3, [r2, #8]
    8e72:	69a1      	ldr	r1, [r4, #24]
    8e74:	428d      	cmp	r5, r1
    8e76:	db10      	blt.n	8e9a <fseek+0xca>
    8e78:	6820      	ldr	r0, [r4, #0]
    8e7a:	6893      	ldr	r3, [r2, #8]
    8e7c:	f8d4 e010 	ldr.w	lr, [r4, #16]
    8e80:	4283      	cmp	r3, r0
    8e82:	bf38      	it	cc
    8e84:	4603      	movcc	r3, r0
    8e86:	1858      	adds	r0, r3, r1
    8e88:	ebce 0000 	rsb	r0, lr, r0
    8e8c:	4285      	cmp	r5, r0
    8e8e:	dc04      	bgt.n	8e9a <fseek+0xca>
    8e90:	68d0      	ldr	r0, [r2, #12]
    8e92:	eb01 0c00 	add.w	ip, r1, r0
    8e96:	4565      	cmp	r5, ip
    8e98:	db06      	blt.n	8ea8 <fseek+0xd8>
    8e9a:	2300      	movs	r3, #0
    8e9c:	60a3      	str	r3, [r4, #8]
    8e9e:	6063      	str	r3, [r4, #4]
    8ea0:	f046 0620 	orr.w	r6, r6, #32
    8ea4:	6055      	str	r5, [r2, #4]
    8ea6:	e00f      	b.n	8ec8 <fseek+0xf8>
    8ea8:	1a6d      	subs	r5, r5, r1
    8eaa:	07b1      	lsls	r1, r6, #30
    8eac:	bf44      	itt	mi
    8eae:	1a28      	submi	r0, r5, r0
    8eb0:	60a0      	strmi	r0, [r4, #8]
    8eb2:	07f2      	lsls	r2, r6, #31
    8eb4:	bf44      	itt	mi
    8eb6:	ebce 0303 	rsbmi	r3, lr, r3
    8eba:	1aeb      	submi	r3, r5, r3
    8ebc:	4475      	add	r5, lr
    8ebe:	bf48      	it	mi
    8ec0:	6063      	strmi	r3, [r4, #4]
    8ec2:	6025      	str	r5, [r4, #0]
    8ec4:	f026 0620 	bic.w	r6, r6, #32
    8ec8:	f426 2603 	bic.w	r6, r6, #536576	; 0x83000
    8ecc:	f026 0640 	bic.w	r6, r6, #64	; 0x40
    8ed0:	60e6      	str	r6, [r4, #12]
    8ed2:	e000      	b.n	8ed6 <fseek+0x106>
    8ed4:	2702      	movs	r7, #2
    8ed6:	4638      	mov	r0, r7
    8ed8:	e8bd 83f8 	ldmia.w	sp!, {r3, r4, r5, r6, r7, r8, r9, pc}
    8edc:	00100003 	.word	0x00100003

00008ee0 <ftell>:
    8ee0:	68c3      	ldr	r3, [r0, #12]
    8ee2:	079a      	lsls	r2, r3, #30
    8ee4:	d105      	bne.n	8ef2 <ftell+0x12>
    8ee6:	4b10      	ldr	r3, [pc, #64]	; (8f28 <ftell+0x48>)
    8ee8:	2221      	movs	r2, #33	; 0x21
    8eea:	601a      	str	r2, [r3, #0]
    8eec:	f04f 30ff 	mov.w	r0, #4294967295
    8ef0:	4770      	bx	lr
    8ef2:	f413 2f00 	tst.w	r3, #524288	; 0x80000
    8ef6:	f003 0320 	and.w	r3, r3, #32
    8efa:	d00a      	beq.n	8f12 <ftell+0x32>
    8efc:	b113      	cbz	r3, 8f04 <ftell+0x24>
    8efe:	6a43      	ldr	r3, [r0, #36]	; 0x24
    8f00:	6858      	ldr	r0, [r3, #4]
    8f02:	e004      	b.n	8f0e <ftell+0x2e>
    8f04:	6802      	ldr	r2, [r0, #0]
    8f06:	6983      	ldr	r3, [r0, #24]
    8f08:	6900      	ldr	r0, [r0, #16]
    8f0a:	4413      	add	r3, r2
    8f0c:	1a18      	subs	r0, r3, r0
    8f0e:	3801      	subs	r0, #1
    8f10:	4770      	bx	lr
    8f12:	b113      	cbz	r3, 8f1a <ftell+0x3a>
    8f14:	6a43      	ldr	r3, [r0, #36]	; 0x24
    8f16:	6858      	ldr	r0, [r3, #4]
    8f18:	4770      	bx	lr
    8f1a:	6802      	ldr	r2, [r0, #0]
    8f1c:	6983      	ldr	r3, [r0, #24]
    8f1e:	6900      	ldr	r0, [r0, #16]
    8f20:	4413      	add	r3, r2
    8f22:	1a18      	subs	r0, r3, r0
    8f24:	4770      	bx	lr
    8f26:	bf00      	nop
    8f28:	20000250 	.word	0x20000250

00008f2c <remove>:
    8f2c:	b510      	push	{r4, lr}
    8f2e:	4604      	mov	r4, r0
    8f30:	f7ff fbfe 	bl	8730 <strlen>
    8f34:	4601      	mov	r1, r0
    8f36:	4620      	mov	r0, r4
    8f38:	e8bd 4010 	ldmia.w	sp!, {r4, lr}
    8f3c:	f000 bcf2 	b.w	9924 <__sys_remove>

00008f40 <_sbrk>:
    8f40:	b538      	push	{r3, r4, r5, lr}
    8f42:	4b0c      	ldr	r3, [pc, #48]	; (8f74 <_sbrk+0x34>)
    8f44:	681a      	ldr	r2, [r3, #0]
    8f46:	b90a      	cbnz	r2, 8f4c <_sbrk+0xc>
    8f48:	4a0b      	ldr	r2, [pc, #44]	; (8f78 <_sbrk+0x38>)
    8f4a:	601a      	str	r2, [r3, #0]
    8f4c:	1cc4      	adds	r4, r0, #3
    8f4e:	681d      	ldr	r5, [r3, #0]
    8f50:	f024 0403 	bic.w	r4, r4, #3
    8f54:	442c      	add	r4, r5
    8f56:	4620      	mov	r0, r4
    8f58:	f000 f834 	bl	8fc4 <__check_heap_overflow>
    8f5c:	b918      	cbnz	r0, 8f66 <_sbrk+0x26>
    8f5e:	4b05      	ldr	r3, [pc, #20]	; (8f74 <_sbrk+0x34>)
    8f60:	4628      	mov	r0, r5
    8f62:	601c      	str	r4, [r3, #0]
    8f64:	bd38      	pop	{r3, r4, r5, pc}
    8f66:	4b05      	ldr	r3, [pc, #20]	; (8f7c <_sbrk+0x3c>)
    8f68:	220c      	movs	r2, #12
    8f6a:	601a      	str	r2, [r3, #0]
    8f6c:	f04f 30ff 	mov.w	r0, #4294967295
    8f70:	bd38      	pop	{r3, r4, r5, pc}
    8f72:	bf00      	nop
    8f74:	20000258 	.word	0x20000258
    8f78:	2000a4c8 	.word	0x2000a4c8
    8f7c:	20000250 	.word	0x20000250

00008f80 <_do_fflush>:
    8f80:	68c2      	ldr	r2, [r0, #12]
    8f82:	f012 0303 	ands.w	r3, r2, #3
    8f86:	b570      	push	{r4, r5, r6, lr}
    8f88:	4604      	mov	r4, r0
    8f8a:	d019      	beq.n	8fc0 <_do_fflush+0x40>
    8f8c:	0693      	lsls	r3, r2, #26
    8f8e:	d504      	bpl.n	8f9a <_do_fflush+0x1a>
    8f90:	6a43      	ldr	r3, [r0, #36]	; 0x24
    8f92:	685d      	ldr	r5, [r3, #4]
    8f94:	f7ff fc98 	bl	88c8 <_deferredlazyseek>
    8f98:	e004      	b.n	8fa4 <_do_fflush+0x24>
    8f9a:	6805      	ldr	r5, [r0, #0]
    8f9c:	6983      	ldr	r3, [r0, #24]
    8f9e:	442b      	add	r3, r5
    8fa0:	6905      	ldr	r5, [r0, #16]
    8fa2:	1b5d      	subs	r5, r3, r5
    8fa4:	68e3      	ldr	r3, [r4, #12]
    8fa6:	f423 5340 	bic.w	r3, r3, #12288	; 0x3000
    8faa:	60e3      	str	r3, [r4, #12]
    8fac:	4620      	mov	r0, r4
    8fae:	f7ff fd82 	bl	8ab6 <_fflush>
    8fb2:	2200      	movs	r2, #0
    8fb4:	4606      	mov	r6, r0
    8fb6:	4629      	mov	r1, r5
    8fb8:	4620      	mov	r0, r4
    8fba:	f7ff ff09 	bl	8dd0 <fseek>
    8fbe:	4633      	mov	r3, r6
    8fc0:	4618      	mov	r0, r3
    8fc2:	bd70      	pop	{r4, r5, r6, pc}

00008fc4 <__check_heap_overflow>:
    8fc4:	4b04      	ldr	r3, [pc, #16]	; (8fd8 <__check_heap_overflow+0x14>)
    8fc6:	b123      	cbz	r3, 8fd2 <__check_heap_overflow+0xe>
    8fc8:	4298      	cmp	r0, r3
    8fca:	bf34      	ite	cc
    8fcc:	2000      	movcc	r0, #0
    8fce:	2001      	movcs	r0, #1
    8fd0:	4770      	bx	lr
    8fd2:	4618      	mov	r0, r3
    8fd4:	4770      	bx	lr
    8fd6:	bf00      	nop
    8fd8:	00000000 	.word	0x00000000

00008fdc <__aeabi_uldivmod>:
    8fdc:	f05f 0c00 	movs.w	ip, #0

00008fe0 <__bhs_ldivmod1>:
    8fe0:	b530      	push	{r4, r5, lr}
    8fe2:	001c      	movs	r4, r3
    8fe4:	d122      	bne.n	902c <ldiv64>
    8fe6:	0012      	movs	r2, r2
    8fe8:	d06f      	beq.n	90ca <ldiv_divzero>
    8fea:	4291      	cmp	r1, r2
    8fec:	d306      	bcc.n	8ffc <ldiv32>
    8fee:	4605      	mov	r5, r0
    8ff0:	4608      	mov	r0, r1
    8ff2:	2100      	movs	r1, #0
    8ff4:	f000 f86f 	bl	90d6 <udiv6432>
    8ff8:	4604      	mov	r4, r0
    8ffa:	4628      	mov	r0, r5

00008ffc <ldiv32>:
    8ffc:	f000 f86b 	bl	90d6 <udiv6432>
    9000:	460a      	mov	r2, r1
    9002:	4621      	mov	r1, r4

00009004 <ldiv_return>:
    9004:	e8bd 4030 	ldmia.w	sp!, {r4, r5, lr}
    9008:	f01c 4f40 	tst.w	ip, #3221225472	; 0xc0000000
    900c:	bf08      	it	eq
    900e:	4770      	bxeq	lr
    9010:	d503      	bpl.n	901a <ldiv_sign>
    9012:	4249      	negs	r1, r1
    9014:	4240      	negs	r0, r0
    9016:	f161 0100 	sbc.w	r1, r1, #0

0000901a <ldiv_sign>:
    901a:	ea5f 0c8c 	movs.w	ip, ip, lsl #2
    901e:	bf38      	it	cc
    9020:	4770      	bxcc	lr
    9022:	425b      	negs	r3, r3
    9024:	4252      	negs	r2, r2
    9026:	f163 0300 	sbc.w	r3, r3, #0
    902a:	4770      	bx	lr

0000902c <ldiv64>:
    902c:	d442      	bmi.n	90b4 <ldiv_res01>
    902e:	0c1c      	lsrs	r4, r3, #16
    9030:	bf04      	itt	eq
    9032:	041b      	lsleq	r3, r3, #16
    9034:	f10c 0c10 	addeq.w	ip, ip, #16
    9038:	f013 4f7f 	tst.w	r3, #4278190080	; 0xff000000
    903c:	bf04      	itt	eq
    903e:	021b      	lsleq	r3, r3, #8
    9040:	f10c 0c08 	addeq.w	ip, ip, #8
    9044:	f013 4f70 	tst.w	r3, #4026531840	; 0xf0000000
    9048:	bf04      	itt	eq
    904a:	011b      	lsleq	r3, r3, #4
    904c:	f10c 0c04 	addeq.w	ip, ip, #4
    9050:	f013 4f40 	tst.w	r3, #3221225472	; 0xc0000000
    9054:	bf04      	itt	eq
    9056:	f10c 0c02 	addeq.w	ip, ip, #2
    905a:	ea5f 0383 	movseq.w	r3, r3, lsl #2
    905e:	bf5c      	itt	pl
    9060:	f10c 0c01 	addpl.w	ip, ip, #1
    9064:	005b      	lslpl	r3, r3, #1
    9066:	f1cc 0e20 	rsb	lr, ip, #32
    906a:	fa22 f40e 	lsr.w	r4, r2, lr
    906e:	4323      	orrs	r3, r4
    9070:	fa02 f20c 	lsl.w	r2, r2, ip
    9074:	fa00 f50c 	lsl.w	r5, r0, ip
    9078:	fa20 f00e 	lsr.w	r0, r0, lr
    907c:	fa01 f40c 	lsl.w	r4, r1, ip
    9080:	4320      	orrs	r0, r4
    9082:	fa21 f10e 	lsr.w	r1, r1, lr
    9086:	4614      	mov	r4, r2
    9088:	461a      	mov	r2, r3
    908a:	f000 f824 	bl	90d6 <udiv6432>
    908e:	fba4 2300 	umull	r2, r3, r4, r0
    9092:	1aaa      	subs	r2, r5, r2
    9094:	eb71 0303 	sbcs.w	r3, r1, r3
    9098:	bf3c      	itt	cc
    909a:	191b      	addcc	r3, r3, r4
    909c:	3801      	subcc	r0, #1
    909e:	f1cc 0e20 	rsb	lr, ip, #32
    90a2:	fa22 f20c 	lsr.w	r2, r2, ip
    90a6:	fa03 f40e 	lsl.w	r4, r3, lr
    90aa:	4322      	orrs	r2, r4
    90ac:	fa23 f30c 	lsr.w	r3, r3, ip
    90b0:	2100      	movs	r1, #0
    90b2:	e7a7      	b.n	9004 <ldiv_return>

000090b4 <ldiv_res01>:
    90b4:	1a82      	subs	r2, r0, r2
    90b6:	eb71 0303 	sbcs.w	r3, r1, r3
    90ba:	bf3c      	itt	cc
    90bc:	4602      	movcc	r2, r0
    90be:	460b      	movcc	r3, r1
    90c0:	f04f 0100 	mov.w	r1, #0
    90c4:	f141 0000 	adc.w	r0, r1, #0
    90c8:	e79c      	b.n	9004 <ldiv_return>

000090ca <ldiv_divzero>:
    90ca:	2000      	movs	r0, #0
    90cc:	2100      	movs	r1, #0
    90ce:	e8bd 4030 	ldmia.w	sp!, {r4, r5, lr}
    90d2:	f000 b83d 	b.w	9150 <__aeabi_idiv0>

000090d6 <udiv6432>:
    90d6:	2304      	movs	r3, #4
    90d8:	ebb1 2f12 	cmp.w	r1, r2, lsr #8
    90dc:	d209      	bcs.n	90f2 <udiv6432_entry>

000090de <udiv6432_loop1>:
    90de:	0209      	lsls	r1, r1, #8
    90e0:	ea41 6110 	orr.w	r1, r1, r0, lsr #24
    90e4:	0200      	lsls	r0, r0, #8
    90e6:	3b01      	subs	r3, #1
    90e8:	bf08      	it	eq
    90ea:	4770      	bxeq	lr
    90ec:	ebb1 2f12 	cmp.w	r1, r2, lsr #8
    90f0:	d3f5      	bcc.n	90de <udiv6432_loop1>

000090f2 <udiv6432_entry>:
    90f2:	1800      	adds	r0, r0, r0

000090f4 <udiv6432_loop>:
    90f4:	4149      	adcs	r1, r1
    90f6:	bf34      	ite	cc
    90f8:	4291      	cmpcc	r1, r2
    90fa:	1a89      	subcs	r1, r1, r2
    90fc:	4140      	adcs	r0, r0
    90fe:	4149      	adcs	r1, r1
    9100:	bf34      	ite	cc
    9102:	4291      	cmpcc	r1, r2
    9104:	1a89      	subcs	r1, r1, r2
    9106:	4140      	adcs	r0, r0
    9108:	4149      	adcs	r1, r1
    910a:	bf34      	ite	cc
    910c:	4291      	cmpcc	r1, r2
    910e:	1a89      	subcs	r1, r1, r2
    9110:	4140      	adcs	r0, r0
    9112:	4149      	adcs	r1, r1
    9114:	bf34      	ite	cc
    9116:	4291      	cmpcc	r1, r2
    9118:	1a89      	subcs	r1, r1, r2
    911a:	4140      	adcs	r0, r0
    911c:	4149      	adcs	r1, r1
    911e:	bf34      	ite	cc
    9120:	4291      	cmpcc	r1, r2
    9122:	1a89      	subcs	r1, r1, r2
    9124:	4140      	adcs	r0, r0
    9126:	4149      	adcs	r1, r1
    9128:	bf34      	ite	cc
    912a:	4291      	cmpcc	r1, r2
    912c:	1a89      	subcs	r1, r1, r2
    912e:	4140      	adcs	r0, r0
    9130:	4149      	adcs	r1, r1
    9132:	bf34      	ite	cc
    9134:	4291      	cmpcc	r1, r2
    9136:	1a89      	subcs	r1, r1, r2
    9138:	4140      	adcs	r0, r0
    913a:	4149      	adcs	r1, r1
    913c:	bf34      	ite	cc
    913e:	4291      	cmpcc	r1, r2
    9140:	1a89      	subcs	r1, r1, r2
    9142:	4140      	adcs	r0, r0
    9144:	f1a3 0301 	sub.w	r3, r3, #1
    9148:	f013 0f0f 	tst.w	r3, #15
    914c:	d1d2      	bne.n	90f4 <udiv6432_loop>
    914e:	4770      	bx	lr

00009150 <__aeabi_idiv0>:
    9150:	4770      	bx	lr
    9152:	Address 0x00009152 is out of bounds.


00009154 <__aeabi_dmul>:
    9154:	e92d 4ff0 	stmdb	sp!, {r4, r5, r6, r7, r8, r9, sl, fp, lr}
    9158:	f3c1 560a 	ubfx	r6, r1, #20, #11
    915c:	461c      	mov	r4, r3
    915e:	404b      	eors	r3, r1
    9160:	2e00      	cmp	r6, #0
    9162:	d059      	beq.n	9218 <__aeabi_dmul+0xc4>
    9164:	f240 77ff 	movw	r7, #2047	; 0x7ff
    9168:	42be      	cmp	r6, r7
    916a:	d055      	beq.n	9218 <__aeabi_dmul+0xc4>
    916c:	f3c4 550a 	ubfx	r5, r4, #20, #11
    9170:	2d00      	cmp	r5, #0
    9172:	d051      	beq.n	9218 <__aeabi_dmul+0xc4>
    9174:	42bd      	cmp	r5, r7
    9176:	d04f      	beq.n	9218 <__aeabi_dmul+0xc4>
    9178:	f3c1 0113 	ubfx	r1, r1, #0, #20
    917c:	f441 1180 	orr.w	r1, r1, #1048576	; 0x100000
    9180:	ea4f 28c2 	mov.w	r8, r2, lsl #11
    9184:	fba1 ab08 	umull	sl, fp, r1, r8
    9188:	ea4f 5e52 	mov.w	lr, r2, lsr #21
    918c:	fba8 8900 	umull	r8, r9, r8, r0
    9190:	eb06 0c05 	add.w	ip, r6, r5
    9194:	ea4e 2ec4 	orr.w	lr, lr, r4, lsl #11
    9198:	eb19 060a 	adds.w	r6, r9, sl
    919c:	f04f 0700 	mov.w	r7, #0
    91a0:	f04e 4e00 	orr.w	lr, lr, #2147483648	; 0x80000000
    91a4:	f147 0700 	adc.w	r7, r7, #0
    91a8:	fbe0 670e 	umlal	r6, r7, r0, lr
    91ac:	eb17 040b 	adds.w	r4, r7, fp
    91b0:	f04f 0500 	mov.w	r5, #0
    91b4:	f145 0500 	adc.w	r5, r5, #0
    91b8:	fbee 4501 	umlal	r4, r5, lr, r1
    91bc:	f5b5 1f80 	cmp.w	r5, #1048576	; 0x100000
    91c0:	f003 4300 	and.w	r3, r3, #2147483648	; 0x80000000
    91c4:	ea46 0698 	orr.w	r6, r6, r8, lsr #2
    91c8:	d208      	bcs.n	91dc <__aeabi_dmul+0x88>
    91ca:	1924      	adds	r4, r4, r4
    91cc:	ea4f 72d6 	mov.w	r2, r6, lsr #31
    91d0:	f5ac 6c80 	sub.w	ip, ip, #1024	; 0x400
    91d4:	416d      	adcs	r5, r5
    91d6:	4314      	orrs	r4, r2
    91d8:	0076      	lsls	r6, r6, #1
    91da:	e001      	b.n	91e0 <__aeabi_dmul+0x8c>
    91dc:	f2ac 3cff 	subw	ip, ip, #1023	; 0x3ff
    91e0:	0ff2      	lsrs	r2, r6, #31
    91e2:	18a4      	adds	r4, r4, r2
    91e4:	f145 0500 	adc.w	r5, r5, #0
    91e8:	f240 71fd 	movw	r1, #2045	; 0x7fd
    91ec:	f1b6 4f00 	cmp.w	r6, #2147483648	; 0x80000000
    91f0:	4622      	mov	r2, r4
    91f2:	bf08      	it	eq
    91f4:	f024 0201 	biceq.w	r2, r4, #1
    91f8:	458c      	cmp	ip, r1
    91fa:	d805      	bhi.n	9208 <__aeabi_dmul+0xb4>
    91fc:	432b      	orrs	r3, r5
    91fe:	eb03 510c 	add.w	r1, r3, ip, lsl #20
    9202:	4610      	mov	r0, r2
    9204:	e8bd 8ff0 	ldmia.w	sp!, {r4, r5, r6, r7, r8, r9, sl, fp, pc}
    9208:	f1bc 0f00 	cmp.w	ip, #0
    920c:	db0e      	blt.n	922c <__aeabi_dmul+0xd8>
    920e:	f043 43ff 	orr.w	r3, r3, #2139095040	; 0x7f800000
    9212:	f443 03e0 	orr.w	r3, r3, #7340032	; 0x700000
    9216:	e009      	b.n	922c <__aeabi_dmul+0xd8>
    9218:	0049      	lsls	r1, r1, #1
    921a:	f511 1f00 	cmn.w	r1, #2097152	; 0x200000
    921e:	f003 4300 	and.w	r3, r3, #2147483648	; 0x80000000
    9222:	d207      	bcs.n	9234 <__aeabi_dmul+0xe0>
    9224:	0062      	lsls	r2, r4, #1
    9226:	f512 1f00 	cmn.w	r2, #2097152	; 0x200000
    922a:	d204      	bcs.n	9236 <__aeabi_dmul+0xe2>
    922c:	2000      	movs	r0, #0
    922e:	4619      	mov	r1, r3
    9230:	e8bd 8ff0 	ldmia.w	sp!, {r4, r5, r6, r7, r8, r9, sl, fp, pc}
    9234:	d109      	bne.n	924a <__aeabi_dmul+0xf6>
    9236:	0064      	lsls	r4, r4, #1
    9238:	f514 1f00 	cmn.w	r4, #2097152	; 0x200000
    923c:	d805      	bhi.n	924a <__aeabi_dmul+0xf6>
    923e:	0d49      	lsrs	r1, r1, #21
    9240:	0549      	lsls	r1, r1, #21
    9242:	b111      	cbz	r1, 924a <__aeabi_dmul+0xf6>
    9244:	0d64      	lsrs	r4, r4, #21
    9246:	0564      	lsls	r4, r4, #21
    9248:	b91c      	cbnz	r4, 9252 <__aeabi_dmul+0xfe>
    924a:	2000      	movs	r0, #0
    924c:	4904      	ldr	r1, [pc, #16]	; (9260 <__aeabi_dmul+0x10c>)
    924e:	e8bd 8ff0 	ldmia.w	sp!, {r4, r5, r6, r7, r8, r9, sl, fp, pc}
    9252:	f043 43ff 	orr.w	r3, r3, #2139095040	; 0x7f800000
    9256:	2000      	movs	r0, #0
    9258:	f443 01e0 	orr.w	r1, r3, #7340032	; 0x700000
    925c:	e8bd 8ff0 	ldmia.w	sp!, {r4, r5, r6, r7, r8, r9, sl, fp, pc}
    9260:	7ff80000 	.word	0x7ff80000

00009264 <__aeabi_ddiv>:
    9264:	e92d 43f0 	stmdb	sp!, {r4, r5, r6, r7, r8, r9, lr}
    9268:	f3c1 570a 	ubfx	r7, r1, #20, #11
    926c:	460c      	mov	r4, r1
    926e:	2f00      	cmp	r7, #0
    9270:	d058      	beq.n	9324 <__aeabi_ddiv+0xc0>
    9272:	f240 75ff 	movw	r5, #2047	; 0x7ff
    9276:	42af      	cmp	r7, r5
    9278:	d054      	beq.n	9324 <__aeabi_ddiv+0xc0>
    927a:	f3c3 510a 	ubfx	r1, r3, #20, #11
    927e:	2900      	cmp	r1, #0
    9280:	d050      	beq.n	9324 <__aeabi_ddiv+0xc0>
    9282:	42a9      	cmp	r1, r5
    9284:	d04e      	beq.n	9324 <__aeabi_ddiv+0xc0>
    9286:	ea4f 5e50 	mov.w	lr, r0, lsr #21
    928a:	ea4e 2ec4 	orr.w	lr, lr, r4, lsl #11
    928e:	1a7f      	subs	r7, r7, r1
    9290:	ea84 0103 	eor.w	r1, r4, r3
    9294:	02c4      	lsls	r4, r0, #11
    9296:	0d50      	lsrs	r0, r2, #21
    9298:	ea40 23c3 	orr.w	r3, r0, r3, lsl #11
    929c:	f04e 4500 	orr.w	r5, lr, #2147483648	; 0x80000000
    92a0:	f043 4900 	orr.w	r9, r3, #2147483648	; 0x80000000
    92a4:	ea4f 28c2 	mov.w	r8, r2, lsl #11
    92a8:	454d      	cmp	r5, r9
    92aa:	bf08      	it	eq
    92ac:	4544      	cmpeq	r4, r8
    92ae:	d202      	bcs.n	92b6 <__aeabi_ddiv+0x52>
    92b0:	f207 30fd 	addw	r0, r7, #1021	; 0x3fd
    92b4:	e004      	b.n	92c0 <__aeabi_ddiv+0x5c>
    92b6:	086d      	lsrs	r5, r5, #1
    92b8:	ea4f 0434 	mov.w	r4, r4, rrx
    92bc:	f207 30fe 	addw	r0, r7, #1022	; 0x3fe
    92c0:	ea5f 0959 	movs.w	r9, r9, lsr #1
    92c4:	ea4f 0838 	mov.w	r8, r8, rrx
    92c8:	2335      	movs	r3, #53	; 0x35
    92ca:	2200      	movs	r2, #0
    92cc:	454d      	cmp	r5, r9
    92ce:	bf08      	it	eq
    92d0:	4544      	cmpeq	r4, r8
    92d2:	ea4f 0242 	mov.w	r2, r2, lsl #1
    92d6:	d305      	bcc.n	92e4 <__aeabi_ddiv+0x80>
    92d8:	ebb4 0408 	subs.w	r4, r4, r8
    92dc:	eb65 0509 	sbc.w	r5, r5, r9
    92e0:	f042 0201 	orr.w	r2, r2, #1
    92e4:	1924      	adds	r4, r4, r4
    92e6:	416d      	adcs	r5, r5
    92e8:	2b21      	cmp	r3, #33	; 0x21
    92ea:	bf08      	it	eq
    92ec:	4616      	moveq	r6, r2
    92ee:	3b01      	subs	r3, #1
    92f0:	d1ec      	bne.n	92cc <__aeabi_ddiv+0x68>
    92f2:	454d      	cmp	r5, r9
    92f4:	bf08      	it	eq
    92f6:	4544      	cmpeq	r4, r8
    92f8:	d302      	bcc.n	9300 <__aeabi_ddiv+0x9c>
    92fa:	3201      	adds	r2, #1
    92fc:	bf08      	it	eq
    92fe:	3601      	addeq	r6, #1
    9300:	f001 4300 	and.w	r3, r1, #2147483648	; 0x80000000
    9304:	f240 71fd 	movw	r1, #2045	; 0x7fd
    9308:	4288      	cmp	r0, r1
    930a:	d803      	bhi.n	9314 <__aeabi_ddiv+0xb0>
    930c:	eb03 5300 	add.w	r3, r3, r0, lsl #20
    9310:	1999      	adds	r1, r3, r6
    9312:	e022      	b.n	935a <__aeabi_ddiv+0xf6>
    9314:	2800      	cmp	r0, #0
    9316:	bfa4      	itt	ge
    9318:	f043 43ff 	orrge.w	r3, r3, #2139095040	; 0x7f800000
    931c:	f443 03e0 	orrge.w	r3, r3, #7340032	; 0x700000
    9320:	2000      	movs	r0, #0
    9322:	e034      	b.n	938e <__aeabi_ddiv+0x12a>
    9324:	0061      	lsls	r1, r4, #1
    9326:	f511 1f00 	cmn.w	r1, #2097152	; 0x200000
    932a:	d803      	bhi.n	9334 <__aeabi_ddiv+0xd0>
    932c:	0058      	lsls	r0, r3, #1
    932e:	f510 1f00 	cmn.w	r0, #2097152	; 0x200000
    9332:	d901      	bls.n	9338 <__aeabi_ddiv+0xd4>
    9334:	2000      	movs	r0, #0
    9336:	e02d      	b.n	9394 <__aeabi_ddiv+0x130>
    9338:	ea44 0203 	orr.w	r2, r4, r3
    933c:	f3c2 520a 	ubfx	r2, r2, #20, #11
    9340:	0555      	lsls	r5, r2, #21
    9342:	b91a      	cbnz	r2, 934c <__aeabi_ddiv+0xe8>
    9344:	4915      	ldr	r1, [pc, #84]	; (939c <__aeabi_ddiv+0x138>)
    9346:	4628      	mov	r0, r5
    9348:	e8bd 83f0 	ldmia.w	sp!, {r4, r5, r6, r7, r8, r9, pc}
    934c:	0d4a      	lsrs	r2, r1, #21
    934e:	4063      	eors	r3, r4
    9350:	0552      	lsls	r2, r2, #21
    9352:	f003 4300 	and.w	r3, r3, #2147483648	; 0x80000000
    9356:	b91a      	cbnz	r2, 9360 <__aeabi_ddiv+0xfc>
    9358:	4619      	mov	r1, r3
    935a:	4610      	mov	r0, r2
    935c:	e8bd 83f0 	ldmia.w	sp!, {r4, r5, r6, r7, r8, r9, pc}
    9360:	0d42      	lsrs	r2, r0, #21
    9362:	0552      	lsls	r2, r2, #21
    9364:	b922      	cbnz	r2, 9370 <__aeabi_ddiv+0x10c>
    9366:	f043 43ff 	orr.w	r3, r3, #2139095040	; 0x7f800000
    936a:	f443 01e0 	orr.w	r1, r3, #7340032	; 0x700000
    936e:	e7f4      	b.n	935a <__aeabi_ddiv+0xf6>
    9370:	f510 1f00 	cmn.w	r0, #2097152	; 0x200000
    9374:	d006      	beq.n	9384 <__aeabi_ddiv+0x120>
    9376:	f043 43ff 	orr.w	r3, r3, #2139095040	; 0x7f800000
    937a:	2000      	movs	r0, #0
    937c:	f443 01e0 	orr.w	r1, r3, #7340032	; 0x700000
    9380:	e8bd 83f0 	ldmia.w	sp!, {r4, r5, r6, r7, r8, r9, pc}
    9384:	f511 1f00 	cmn.w	r1, #2097152	; 0x200000
    9388:	f04f 0000 	mov.w	r0, #0
    938c:	d002      	beq.n	9394 <__aeabi_ddiv+0x130>
    938e:	4619      	mov	r1, r3
    9390:	e8bd 83f0 	ldmia.w	sp!, {r4, r5, r6, r7, r8, r9, pc}
    9394:	4901      	ldr	r1, [pc, #4]	; (939c <__aeabi_ddiv+0x138>)
    9396:	e8bd 83f0 	ldmia.w	sp!, {r4, r5, r6, r7, r8, r9, pc}
    939a:	bf00      	nop
    939c:	7ff80000 	.word	0x7ff80000

000093a0 <__aeabi_dsub>:
    93a0:	b5f0      	push	{r4, r5, r6, r7, lr}
    93a2:	461f      	mov	r7, r3
    93a4:	404b      	eors	r3, r1
    93a6:	460e      	mov	r6, r1
    93a8:	4605      	mov	r5, r0
    93aa:	4694      	mov	ip, r2
    93ac:	d505      	bpl.n	93ba <__aeabi_dsub+0x1a>
    93ae:	f107 4300 	add.w	r3, r7, #2147483648	; 0x80000000
    93b2:	e8bd 40f0 	ldmia.w	sp!, {r4, r5, r6, r7, lr}
    93b6:	f000 b8cd 	b.w	9554 <__aeabi_dadd>
    93ba:	42b9      	cmp	r1, r7
    93bc:	d303      	bcc.n	93c6 <__aeabi_dsub+0x26>
    93be:	4290      	cmp	r0, r2
    93c0:	d80b      	bhi.n	93da <__aeabi_dsub+0x3a>
    93c2:	42b9      	cmp	r1, r7
    93c4:	d109      	bne.n	93da <__aeabi_dsub+0x3a>
    93c6:	f103 4300 	add.w	r3, r3, #2147483648	; 0x80000000
    93ca:	405e      	eors	r6, r3
    93cc:	405f      	eors	r7, r3
    93ce:	ea85 030c 	eor.w	r3, r5, ip
    93d2:	ea8c 0c03 	eor.w	ip, ip, r3
    93d6:	ea83 050c 	eor.w	r5, r3, ip
    93da:	ea4f 5e16 	mov.w	lr, r6, lsr #20
    93de:	f42e 6300 	bic.w	r3, lr, #2048	; 0x800
    93e2:	f240 72ff 	movw	r2, #2047	; 0x7ff
    93e6:	4293      	cmp	r3, r2
    93e8:	ebae 5417 	sub.w	r4, lr, r7, lsr #20
    93ec:	f000 80a2 	beq.w	9534 <__aeabi_dsub+0x194>
    93f0:	429c      	cmp	r4, r3
    93f2:	f000 809c 	beq.w	952e <__aeabi_dsub+0x18e>
    93f6:	f3c6 0113 	ubfx	r1, r6, #0, #20
    93fa:	f3c7 0313 	ubfx	r3, r7, #0, #20
    93fe:	2c1f      	cmp	r4, #31
    9400:	f441 1180 	orr.w	r1, r1, #1048576	; 0x100000
    9404:	f443 1380 	orr.w	r3, r3, #1048576	; 0x100000
    9408:	d84f      	bhi.n	94aa <__aeabi_dsub+0x10a>
    940a:	fa23 f204 	lsr.w	r2, r3, r4
    940e:	1a89      	subs	r1, r1, r2
    9410:	fa2c f204 	lsr.w	r2, ip, r4
    9414:	f1c4 0420 	rsb	r4, r4, #32
    9418:	40a3      	lsls	r3, r4
    941a:	431a      	orrs	r2, r3
    941c:	1aaa      	subs	r2, r5, r2
    941e:	4295      	cmp	r5, r2
    9420:	bf38      	it	cc
    9422:	f101 31ff 	addcc.w	r1, r1, #4294967295
    9426:	fa1c f304 	lsls.w	r3, ip, r4
    942a:	d004      	beq.n	9436 <__aeabi_dsub+0x96>
    942c:	425b      	negs	r3, r3
    942e:	1e55      	subs	r5, r2, #1
    9430:	b912      	cbnz	r2, 9438 <__aeabi_dsub+0x98>
    9432:	3901      	subs	r1, #1
    9434:	e000      	b.n	9438 <__aeabi_dsub+0x98>
    9436:	4615      	mov	r5, r2
    9438:	f411 1fc0 	tst.w	r1, #1572864	; 0x180000
    943c:	d154      	bne.n	94e8 <__aeabi_dsub+0x148>
    943e:	0fea      	lsrs	r2, r5, #31
    9440:	0fdb      	lsrs	r3, r3, #31
    9442:	ea42 0241 	orr.w	r2, r2, r1, lsl #1
    9446:	ea43 0345 	orr.w	r3, r3, r5, lsl #1
    944a:	ea52 0403 	orrs.w	r4, r2, r3
    944e:	d06f      	beq.n	9530 <__aeabi_dsub+0x190>
    9450:	f1ae 0502 	sub.w	r5, lr, #2
    9454:	0b51      	lsrs	r1, r2, #13
    9456:	d105      	bne.n	9464 <__aeabi_dsub+0xc4>
    9458:	0e19      	lsrs	r1, r3, #24
    945a:	ea41 2202 	orr.w	r2, r1, r2, lsl #8
    945e:	021b      	lsls	r3, r3, #8
    9460:	3d08      	subs	r5, #8
    9462:	e7f7      	b.n	9454 <__aeabi_dsub+0xb4>
    9464:	0c51      	lsrs	r1, r2, #17
    9466:	bf01      	itttt	eq
    9468:	0f19      	lsreq	r1, r3, #28
    946a:	ea41 1202 	orreq.w	r2, r1, r2, lsl #4
    946e:	011b      	lsleq	r3, r3, #4
    9470:	3d04      	subeq	r5, #4
    9472:	0cd1      	lsrs	r1, r2, #19
    9474:	bf01      	itttt	eq
    9476:	0f99      	lsreq	r1, r3, #30
    9478:	ea41 0282 	orreq.w	r2, r1, r2, lsl #2
    947c:	009b      	lsleq	r3, r3, #2
    947e:	3d02      	subeq	r5, #2
    9480:	0d11      	lsrs	r1, r2, #20
    9482:	bf04      	itt	eq
    9484:	0fd9      	lsreq	r1, r3, #31
    9486:	f105 35ff 	addeq.w	r5, r5, #4294967295
    948a:	ea4f 24de 	mov.w	r4, lr, lsr #11
    948e:	bf04      	itt	eq
    9490:	ea41 0242 	orreq.w	r2, r1, r2, lsl #1
    9494:	005b      	lsleq	r3, r3, #1
    9496:	ebb4 2fd5 	cmp.w	r4, r5, lsr #11
    949a:	f04f 0000 	mov.w	r0, #0
    949e:	bf06      	itte	eq
    94a0:	eb02 5105 	addeq.w	r1, r2, r5, lsl #20
    94a4:	4618      	moveq	r0, r3
    94a6:	07e1      	lslne	r1, r4, #31
    94a8:	bdf0      	pop	{r4, r5, r6, r7, pc}
    94aa:	2c35      	cmp	r4, #53	; 0x35
    94ac:	d81c      	bhi.n	94e8 <__aeabi_dsub+0x148>
    94ae:	3c20      	subs	r4, #32
    94b0:	fa23 f204 	lsr.w	r2, r3, r4
    94b4:	1aaa      	subs	r2, r5, r2
    94b6:	f1c4 0020 	rsb	r0, r4, #32
    94ba:	4295      	cmp	r5, r2
    94bc:	fa03 f300 	lsl.w	r3, r3, r0
    94c0:	bf38      	it	cc
    94c2:	f101 31ff 	addcc.w	r1, r1, #4294967295
    94c6:	fa2c f404 	lsr.w	r4, ip, r4
    94ca:	ea5f 600c 	movs.w	r0, ip, lsl #24
    94ce:	ea43 0304 	orr.w	r3, r3, r4
    94d2:	d002      	beq.n	94da <__aeabi_dsub+0x13a>
    94d4:	f043 03ff 	orr.w	r3, r3, #255	; 0xff
    94d8:	e000      	b.n	94dc <__aeabi_dsub+0x13c>
    94da:	b123      	cbz	r3, 94e6 <__aeabi_dsub+0x146>
    94dc:	425b      	negs	r3, r3
    94de:	1e55      	subs	r5, r2, #1
    94e0:	b912      	cbnz	r2, 94e8 <__aeabi_dsub+0x148>
    94e2:	3901      	subs	r1, #1
    94e4:	e000      	b.n	94e8 <__aeabi_dsub+0x148>
    94e6:	4615      	mov	r5, r2
    94e8:	02ca      	lsls	r2, r1, #11
    94ea:	d410      	bmi.n	950e <__aeabi_dsub+0x16e>
    94ec:	f10e 3eff 	add.w	lr, lr, #4294967295
    94f0:	ea5f 524e 	movs.w	r2, lr, lsl #21
    94f4:	d007      	beq.n	9506 <__aeabi_dsub+0x166>
    94f6:	0fea      	lsrs	r2, r5, #31
    94f8:	ea42 0141 	orr.w	r1, r2, r1, lsl #1
    94fc:	0fda      	lsrs	r2, r3, #31
    94fe:	ea42 0545 	orr.w	r5, r2, r5, lsl #1
    9502:	005b      	lsls	r3, r3, #1
    9504:	e003      	b.n	950e <__aeabi_dsub+0x16e>
    9506:	ea4f 510e 	mov.w	r1, lr, lsl #20
    950a:	4610      	mov	r0, r2
    950c:	bdf0      	pop	{r4, r5, r6, r7, pc}
    950e:	2b00      	cmp	r3, #0
    9510:	f421 1280 	bic.w	r2, r1, #1048576	; 0x100000
    9514:	ea4f 540e 	mov.w	r4, lr, lsl #20
    9518:	da07      	bge.n	952a <__aeabi_dsub+0x18a>
    951a:	3501      	adds	r5, #1
    951c:	bf08      	it	eq
    951e:	3201      	addeq	r2, #1
    9520:	f1b3 4f00 	cmp.w	r3, #2147483648	; 0x80000000
    9524:	bf08      	it	eq
    9526:	f025 0501 	biceq.w	r5, r5, #1
    952a:	18a1      	adds	r1, r4, r2
    952c:	e00d      	b.n	954a <__aeabi_dsub+0x1aa>
    952e:	b95c      	cbnz	r4, 9548 <__aeabi_dsub+0x1a8>
    9530:	4621      	mov	r1, r4
    9532:	e007      	b.n	9544 <__aeabi_dsub+0x1a4>
    9534:	0333      	lsls	r3, r6, #12
    9536:	f04f 0000 	mov.w	r0, #0
    953a:	d001      	beq.n	9540 <__aeabi_dsub+0x1a0>
    953c:	4904      	ldr	r1, [pc, #16]	; (9550 <__aeabi_dsub+0x1b0>)
    953e:	bdf0      	pop	{r4, r5, r6, r7, pc}
    9540:	b914      	cbnz	r4, 9548 <__aeabi_dsub+0x1a8>
    9542:	4903      	ldr	r1, [pc, #12]	; (9550 <__aeabi_dsub+0x1b0>)
    9544:	4620      	mov	r0, r4
    9546:	bdf0      	pop	{r4, r5, r6, r7, pc}
    9548:	4631      	mov	r1, r6
    954a:	4628      	mov	r0, r5
    954c:	bdf0      	pop	{r4, r5, r6, r7, pc}
    954e:	bf00      	nop
    9550:	7ff80000 	.word	0x7ff80000

00009554 <__aeabi_dadd>:
    9554:	e92d 03f0 	stmdb	sp!, {r4, r5, r6, r7, r8, r9}
    9558:	461f      	mov	r7, r3
    955a:	463d      	mov	r5, r7
    955c:	4616      	mov	r6, r2
    955e:	4617      	mov	r7, r2
    9560:	ea91 0205 	eors.w	r2, r1, r5
    9564:	460c      	mov	r4, r1
    9566:	4603      	mov	r3, r0
    9568:	d506      	bpl.n	9578 <__aeabi_dadd+0x24>
    956a:	f105 4300 	add.w	r3, r5, #2147483648	; 0x80000000
    956e:	4632      	mov	r2, r6
    9570:	e8bd 03f0 	ldmia.w	sp!, {r4, r5, r6, r7, r8, r9}
    9574:	f7ff bf14 	b.w	93a0 <__aeabi_dsub>
    9578:	42a9      	cmp	r1, r5
    957a:	d204      	bcs.n	9586 <__aeabi_dadd+0x32>
    957c:	4073      	eors	r3, r6
    957e:	405f      	eors	r7, r3
    9580:	4054      	eors	r4, r2
    9582:	4055      	eors	r5, r2
    9584:	407b      	eors	r3, r7
    9586:	0d22      	lsrs	r2, r4, #20
    9588:	f422 6100 	bic.w	r1, r2, #2048	; 0x800
    958c:	f240 70ff 	movw	r0, #2047	; 0x7ff
    9590:	4281      	cmp	r1, r0
    9592:	d05b      	beq.n	964c <__aeabi_dadd+0xf8>
    9594:	eba2 5615 	sub.w	r6, r2, r5, lsr #20
    9598:	428e      	cmp	r6, r1
    959a:	d052      	beq.n	9642 <__aeabi_dadd+0xee>
    959c:	f3c4 0413 	ubfx	r4, r4, #0, #20
    95a0:	f3c5 0113 	ubfx	r1, r5, #0, #20
    95a4:	2e1f      	cmp	r6, #31
    95a6:	f444 1480 	orr.w	r4, r4, #1048576	; 0x100000
    95aa:	f441 1180 	orr.w	r1, r1, #1048576	; 0x100000
    95ae:	d80e      	bhi.n	95ce <__aeabi_dadd+0x7a>
    95b0:	fa21 f006 	lsr.w	r0, r1, r6
    95b4:	4404      	add	r4, r0
    95b6:	fa27 f006 	lsr.w	r0, r7, r6
    95ba:	f1c6 0620 	rsb	r6, r6, #32
    95be:	40b1      	lsls	r1, r6
    95c0:	4301      	orrs	r1, r0
    95c2:	185b      	adds	r3, r3, r1
    95c4:	bf28      	it	cs
    95c6:	3401      	addcs	r4, #1
    95c8:	fa07 f106 	lsl.w	r1, r7, r6
    95cc:	e012      	b.n	95f4 <__aeabi_dadd+0xa0>
    95ce:	2e35      	cmp	r6, #53	; 0x35
    95d0:	d810      	bhi.n	95f4 <__aeabi_dadd+0xa0>
    95d2:	3e20      	subs	r6, #32
    95d4:	fa21 f006 	lsr.w	r0, r1, r6
    95d8:	181b      	adds	r3, r3, r0
    95da:	f1c6 0020 	rsb	r0, r6, #32
    95de:	fa01 f100 	lsl.w	r1, r1, r0
    95e2:	fa27 f606 	lsr.w	r6, r7, r6
    95e6:	bf28      	it	cs
    95e8:	3401      	addcs	r4, #1
    95ea:	4331      	orrs	r1, r6
    95ec:	0638      	lsls	r0, r7, #24
    95ee:	bf18      	it	ne
    95f0:	f041 01ff 	orrne.w	r1, r1, #255	; 0xff
    95f4:	02a0      	lsls	r0, r4, #10
    95f6:	d515      	bpl.n	9624 <__aeabi_dadd+0xd0>
    95f8:	3301      	adds	r3, #1
    95fa:	bf08      	it	eq
    95fc:	3401      	addeq	r4, #1
    95fe:	b909      	cbnz	r1, 9604 <__aeabi_dadd+0xb0>
    9600:	f023 0302 	bic.w	r3, r3, #2
    9604:	0515      	lsls	r5, r2, #20
    9606:	eb05 0554 	add.w	r5, r5, r4, lsr #1
    960a:	0069      	lsls	r1, r5, #1
    960c:	f511 1f00 	cmn.w	r1, #2097152	; 0x200000
    9610:	bf37      	itett	cc
    9612:	07e4      	lslcc	r4, r4, #31
    9614:	3201      	addcs	r2, #1
    9616:	4629      	movcc	r1, r5
    9618:	ea44 0053 	orrcc.w	r0, r4, r3, lsr #1
    961c:	bf24      	itt	cs
    961e:	2000      	movcs	r0, #0
    9620:	0511      	lslcs	r1, r2, #20
    9622:	e01b      	b.n	965c <__aeabi_dadd+0x108>
    9624:	2900      	cmp	r1, #0
    9626:	f102 32ff 	add.w	r2, r2, #4294967295
    962a:	da07      	bge.n	963c <__aeabi_dadd+0xe8>
    962c:	3301      	adds	r3, #1
    962e:	bf08      	it	eq
    9630:	3401      	addeq	r4, #1
    9632:	f1b1 4f00 	cmp.w	r1, #2147483648	; 0x80000000
    9636:	bf08      	it	eq
    9638:	f023 0301 	biceq.w	r3, r3, #1
    963c:	eb04 5102 	add.w	r1, r4, r2, lsl #20
    9640:	e00b      	b.n	965a <__aeabi_dadd+0x106>
    9642:	b94e      	cbnz	r6, 9658 <__aeabi_dadd+0x104>
    9644:	f004 4100 	and.w	r1, r4, #2147483648	; 0x80000000
    9648:	4630      	mov	r0, r6
    964a:	e007      	b.n	965c <__aeabi_dadd+0x108>
    964c:	0322      	lsls	r2, r4, #12
    964e:	f04f 0000 	mov.w	r0, #0
    9652:	d001      	beq.n	9658 <__aeabi_dadd+0x104>
    9654:	4903      	ldr	r1, [pc, #12]	; (9664 <__aeabi_dadd+0x110>)
    9656:	e001      	b.n	965c <__aeabi_dadd+0x108>
    9658:	4621      	mov	r1, r4
    965a:	4618      	mov	r0, r3
    965c:	e8bd 03f0 	ldmia.w	sp!, {r4, r5, r6, r7, r8, r9}
    9660:	4770      	bx	lr
    9662:	bf00      	nop
    9664:	7ff80000 	.word	0x7ff80000

00009668 <__aeabi_d2f>:
    9668:	b530      	push	{r4, r5, lr}
    966a:	460c      	mov	r4, r1
    966c:	f024 4200 	bic.w	r2, r4, #2147483648	; 0x80000000
    9670:	f102 4547 	add.w	r5, r2, #3338665984	; 0xc7000000
    9674:	f505 0570 	add.w	r5, r5, #15728640	; 0xf00000
    9678:	f1b5 6f7e 	cmp.w	r5, #266338304	; 0xfe00000
    967c:	f001 4100 	and.w	r1, r1, #2147483648	; 0x80000000
    9680:	d20f      	bcs.n	96a2 <__aeabi_d2f+0x3a>
    9682:	f102 4348 	add.w	r3, r2, #3355443200	; 0xc8000000
    9686:	0f42      	lsrs	r2, r0, #29
    9688:	00c4      	lsls	r4, r0, #3
    968a:	ea42 02c3 	orr.w	r2, r2, r3, lsl #3
    968e:	eb02 73d4 	add.w	r3, r2, r4, lsr #31
    9692:	f1b4 4f00 	cmp.w	r4, #2147483648	; 0x80000000
    9696:	bf08      	it	eq
    9698:	f023 0301 	biceq.w	r3, r3, #1
    969c:	ea43 0001 	orr.w	r0, r3, r1
    96a0:	bd30      	pop	{r4, r5, pc}
    96a2:	2d00      	cmp	r5, #0
    96a4:	da01      	bge.n	96aa <__aeabi_d2f+0x42>
    96a6:	4608      	mov	r0, r1
    96a8:	bd30      	pop	{r4, r5, pc}
    96aa:	0064      	lsls	r4, r4, #1
    96ac:	f514 1f00 	cmn.w	r4, #2097152	; 0x200000
    96b0:	bf94      	ite	ls
    96b2:	f041 40ff 	orrls.w	r0, r1, #2139095040	; 0x7f800000
    96b6:	4801      	ldrhi	r0, [pc, #4]	; (96bc <__aeabi_d2f+0x54>)
    96b8:	bd30      	pop	{r4, r5, pc}
    96ba:	bf00      	nop
    96bc:	7fc00000 	.word	0x7fc00000

000096c0 <__aeabi_d2iz>:
    96c0:	02cb      	lsls	r3, r1, #11
    96c2:	ea43 5050 	orr.w	r0, r3, r0, lsr #21
    96c6:	0d0b      	lsrs	r3, r1, #20
    96c8:	f5c3 6383 	rsb	r3, r3, #1048	; 0x418
    96cc:	3306      	adds	r3, #6
    96ce:	f040 4000 	orr.w	r0, r0, #2147483648	; 0x80000000
    96d2:	2bff      	cmp	r3, #255	; 0xff
    96d4:	fa20 f003 	lsr.w	r0, r0, r3
    96d8:	d911      	bls.n	96fe <__aeabi_d2iz+0x3e>
    96da:	f413 6fe0 	tst.w	r3, #1792	; 0x700
    96de:	d101      	bne.n	96e4 <__aeabi_d2iz+0x24>
    96e0:	4240      	negs	r0, r0
    96e2:	4770      	bx	lr
    96e4:	f011 4080 	ands.w	r0, r1, #1073741824	; 0x40000000
    96e8:	d009      	beq.n	96fe <__aeabi_d2iz+0x3e>
    96ea:	004b      	lsls	r3, r1, #1
    96ec:	f513 1f00 	cmn.w	r3, #2097152	; 0x200000
    96f0:	d804      	bhi.n	96fc <__aeabi_d2iz+0x3c>
    96f2:	0fc8      	lsrs	r0, r1, #31
    96f4:	f100 4000 	add.w	r0, r0, #2147483648	; 0x80000000
    96f8:	3801      	subs	r0, #1
    96fa:	4770      	bx	lr
    96fc:	2000      	movs	r0, #0
    96fe:	4770      	bx	lr

00009700 <__bhs_ui2d>:
    9700:	b910      	cbnz	r0, 9708 <__bhs_ui2d+0x8>
    9702:	4603      	mov	r3, r0
    9704:	4602      	mov	r2, r0
    9706:	e01b      	b.n	9740 <__bhs_ui2d+0x40>
    9708:	0c03      	lsrs	r3, r0, #16
    970a:	bf0c      	ite	eq
    970c:	0400      	lsleq	r0, r0, #16
    970e:	f101 7180 	addne.w	r1, r1, #16777216	; 0x1000000
    9712:	0e03      	lsrs	r3, r0, #24
    9714:	bf0c      	ite	eq
    9716:	0200      	lsleq	r0, r0, #8
    9718:	f501 0100 	addne.w	r1, r1, #8388608	; 0x800000
    971c:	0f03      	lsrs	r3, r0, #28
    971e:	bf0c      	ite	eq
    9720:	0100      	lsleq	r0, r0, #4
    9722:	f501 0180 	addne.w	r1, r1, #4194304	; 0x400000
    9726:	0f83      	lsrs	r3, r0, #30
    9728:	bf0c      	ite	eq
    972a:	0080      	lsleq	r0, r0, #2
    972c:	f501 1100 	addne.w	r1, r1, #2097152	; 0x200000
    9730:	2800      	cmp	r0, #0
    9732:	bfac      	ite	ge
    9734:	0040      	lslge	r0, r0, #1
    9736:	f501 1180 	addlt.w	r1, r1, #1048576	; 0x100000
    973a:	eb01 23e0 	add.w	r3, r1, r0, asr #11
    973e:	0542      	lsls	r2, r0, #21
    9740:	4610      	mov	r0, r2
    9742:	4619      	mov	r1, r3
    9744:	4770      	bx	lr

00009746 <__aeabi_i2d>:
    9746:	f010 4100 	ands.w	r1, r0, #2147483648	; 0x80000000
    974a:	bf18      	it	ne
    974c:	4240      	negne	r0, r0
    974e:	f101 4180 	add.w	r1, r1, #1073741824	; 0x40000000
    9752:	f7ff bfd5 	b.w	9700 <__bhs_ui2d>

00009756 <__aeabi_dcmpeq>:
    9756:	b510      	push	{r4, lr}
    9758:	460c      	mov	r4, r1
    975a:	4619      	mov	r1, r3
    975c:	0063      	lsls	r3, r4, #1
    975e:	ea50 0e03 	orrs.w	lr, r0, r3
    9762:	d102      	bne.n	976a <__aeabi_dcmpeq+0x14>
    9764:	ea52 0e41 	orrs.w	lr, r2, r1, lsl #1
    9768:	d009      	beq.n	977e <__aeabi_dcmpeq+0x28>
    976a:	428c      	cmp	r4, r1
    976c:	d109      	bne.n	9782 <__aeabi_dcmpeq+0x2c>
    976e:	4290      	cmp	r0, r2
    9770:	d107      	bne.n	9782 <__aeabi_dcmpeq+0x2c>
    9772:	f513 1f00 	cmn.w	r3, #2097152	; 0x200000
    9776:	bf8c      	ite	hi
    9778:	2000      	movhi	r0, #0
    977a:	2001      	movls	r0, #1
    977c:	bd10      	pop	{r4, pc}
    977e:	2001      	movs	r0, #1
    9780:	bd10      	pop	{r4, pc}
    9782:	2000      	movs	r0, #0
    9784:	bd10      	pop	{r4, pc}

00009786 <__aeabi_dcmplt>:
    9786:	b530      	push	{r4, r5, lr}
    9788:	460d      	mov	r5, r1
    978a:	461c      	mov	r4, r3
    978c:	ea55 0304 	orrs.w	r3, r5, r4
    9790:	4601      	mov	r1, r0
    9792:	d40b      	bmi.n	97ac <__aeabi_dcmplt+0x26>
    9794:	0063      	lsls	r3, r4, #1
    9796:	f513 1f00 	cmn.w	r3, #2097152	; 0x200000
    979a:	d81e      	bhi.n	97da <__aeabi_dcmplt+0x54>
    979c:	42a5      	cmp	r5, r4
    979e:	d31a      	bcc.n	97d6 <__aeabi_dcmplt+0x50>
    97a0:	d11b      	bne.n	97da <__aeabi_dcmplt+0x54>
    97a2:	4290      	cmp	r0, r2
    97a4:	bf2c      	ite	cs
    97a6:	2000      	movcs	r0, #0
    97a8:	2001      	movcc	r0, #1
    97aa:	bd30      	pop	{r4, r5, pc}
    97ac:	0068      	lsls	r0, r5, #1
    97ae:	f510 1f00 	cmn.w	r0, #2097152	; 0x200000
    97b2:	d812      	bhi.n	97da <__aeabi_dcmplt+0x54>
    97b4:	0063      	lsls	r3, r4, #1
    97b6:	f513 1f00 	cmn.w	r3, #2097152	; 0x200000
    97ba:	d80e      	bhi.n	97da <__aeabi_dcmplt+0x54>
    97bc:	4308      	orrs	r0, r1
    97be:	d102      	bne.n	97c6 <__aeabi_dcmplt+0x40>
    97c0:	ea52 0003 	orrs.w	r0, r2, r3
    97c4:	d00a      	beq.n	97dc <__aeabi_dcmplt+0x56>
    97c6:	42a5      	cmp	r5, r4
    97c8:	d805      	bhi.n	97d6 <__aeabi_dcmplt+0x50>
    97ca:	d106      	bne.n	97da <__aeabi_dcmplt+0x54>
    97cc:	4291      	cmp	r1, r2
    97ce:	bf94      	ite	ls
    97d0:	2000      	movls	r0, #0
    97d2:	2001      	movhi	r0, #1
    97d4:	bd30      	pop	{r4, r5, pc}
    97d6:	2001      	movs	r0, #1
    97d8:	bd30      	pop	{r4, r5, pc}
    97da:	2000      	movs	r0, #0
    97dc:	bd30      	pop	{r4, r5, pc}

000097de <__aeabi_dcmple>:
    97de:	b530      	push	{r4, r5, lr}
    97e0:	ea51 0403 	orrs.w	r4, r1, r3
    97e4:	d40b      	bmi.n	97fe <__aeabi_dcmple+0x20>
    97e6:	005c      	lsls	r4, r3, #1
    97e8:	f514 1f00 	cmn.w	r4, #2097152	; 0x200000
    97ec:	d81f      	bhi.n	982e <__aeabi_dcmple+0x50>
    97ee:	4299      	cmp	r1, r3
    97f0:	d31b      	bcc.n	982a <__aeabi_dcmple+0x4c>
    97f2:	d11c      	bne.n	982e <__aeabi_dcmple+0x50>
    97f4:	4290      	cmp	r0, r2
    97f6:	bf8c      	ite	hi
    97f8:	2000      	movhi	r0, #0
    97fa:	2001      	movls	r0, #1
    97fc:	bd30      	pop	{r4, r5, pc}
    97fe:	004d      	lsls	r5, r1, #1
    9800:	f515 1f00 	cmn.w	r5, #2097152	; 0x200000
    9804:	d813      	bhi.n	982e <__aeabi_dcmple+0x50>
    9806:	005c      	lsls	r4, r3, #1
    9808:	f514 1f00 	cmn.w	r4, #2097152	; 0x200000
    980c:	d80f      	bhi.n	982e <__aeabi_dcmple+0x50>
    980e:	4299      	cmp	r1, r3
    9810:	d80b      	bhi.n	982a <__aeabi_dcmple+0x4c>
    9812:	d101      	bne.n	9818 <__aeabi_dcmple+0x3a>
    9814:	4290      	cmp	r0, r2
    9816:	d208      	bcs.n	982a <__aeabi_dcmple+0x4c>
    9818:	ea50 0305 	orrs.w	r3, r0, r5
    981c:	d107      	bne.n	982e <__aeabi_dcmple+0x50>
    981e:	ea52 0304 	orrs.w	r3, r2, r4
    9822:	bf0c      	ite	eq
    9824:	2001      	moveq	r0, #1
    9826:	2000      	movne	r0, #0
    9828:	bd30      	pop	{r4, r5, pc}
    982a:	2001      	movs	r0, #1
    982c:	bd30      	pop	{r4, r5, pc}
    982e:	2000      	movs	r0, #0
    9830:	bd30      	pop	{r4, r5, pc}

00009832 <__aeabi_dcmpge>:
    9832:	b530      	push	{r4, r5, lr}
    9834:	ea51 0403 	orrs.w	r4, r1, r3
    9838:	ea4f 0441 	mov.w	r4, r1, lsl #1
    983c:	d40a      	bmi.n	9854 <__aeabi_dcmpge+0x22>
    983e:	f514 1f00 	cmn.w	r4, #2097152	; 0x200000
    9842:	d81e      	bhi.n	9882 <__aeabi_dcmpge+0x50>
    9844:	4299      	cmp	r1, r3
    9846:	d81a      	bhi.n	987e <__aeabi_dcmpge+0x4c>
    9848:	d11b      	bne.n	9882 <__aeabi_dcmpge+0x50>
    984a:	4290      	cmp	r0, r2
    984c:	bf34      	ite	cc
    984e:	2000      	movcc	r0, #0
    9850:	2001      	movcs	r0, #1
    9852:	bd30      	pop	{r4, r5, pc}
    9854:	f514 1f00 	cmn.w	r4, #2097152	; 0x200000
    9858:	d813      	bhi.n	9882 <__aeabi_dcmpge+0x50>
    985a:	005d      	lsls	r5, r3, #1
    985c:	f515 1f00 	cmn.w	r5, #2097152	; 0x200000
    9860:	d80f      	bhi.n	9882 <__aeabi_dcmpge+0x50>
    9862:	4299      	cmp	r1, r3
    9864:	d30b      	bcc.n	987e <__aeabi_dcmpge+0x4c>
    9866:	d101      	bne.n	986c <__aeabi_dcmpge+0x3a>
    9868:	4290      	cmp	r0, r2
    986a:	d908      	bls.n	987e <__aeabi_dcmpge+0x4c>
    986c:	ea50 0304 	orrs.w	r3, r0, r4
    9870:	d107      	bne.n	9882 <__aeabi_dcmpge+0x50>
    9872:	ea52 0305 	orrs.w	r3, r2, r5
    9876:	bf0c      	ite	eq
    9878:	2001      	moveq	r0, #1
    987a:	2000      	movne	r0, #0
    987c:	bd30      	pop	{r4, r5, pc}
    987e:	2001      	movs	r0, #1
    9880:	bd30      	pop	{r4, r5, pc}
    9882:	2000      	movs	r0, #0
    9884:	bd30      	pop	{r4, r5, pc}
    9886:	Address 0x00009886 is out of bounds.


00009888 <__aeabi_f2d>:
    9888:	10c3      	asrs	r3, r0, #3
    988a:	f013 617f 	ands.w	r1, r3, #267386880	; 0xff00000
    988e:	d00a      	beq.n	98a6 <__aeabi_f2d+0x1e>
    9890:	f1b1 6f7f 	cmp.w	r1, #267386880	; 0xff00000
    9894:	ea4f 7240 	mov.w	r2, r0, lsl #29
    9898:	f043 43e0 	orr.w	r3, r3, #1879048192	; 0x70000000
    989c:	d008      	beq.n	98b0 <__aeabi_f2d+0x28>
    989e:	f103 4148 	add.w	r1, r3, #3355443200	; 0xc8000000
    98a2:	4610      	mov	r0, r2
    98a4:	4770      	bx	lr
    98a6:	f003 4300 	and.w	r3, r3, #2147483648	; 0x80000000
    98aa:	2000      	movs	r0, #0
    98ac:	4619      	mov	r1, r3
    98ae:	4770      	bx	lr
    98b0:	ea52 3203 	orrs.w	r2, r2, r3, lsl #12
    98b4:	4a01      	ldr	r2, [pc, #4]	; (98bc <__aeabi_f2d+0x34>)
    98b6:	bf18      	it	ne
    98b8:	4613      	movne	r3, r2
    98ba:	e7f6      	b.n	98aa <__aeabi_f2d+0x22>
    98bc:	7ff80000 	.word	0x7ff80000

000098c0 <__aeabi_lowlevel_memset>:
    98c0:	4603      	mov	r3, r0
    98c2:	f013 0f03 	tst.w	r3, #3
    98c6:	d10e      	bne.n	98e6 <memset1a>
    98c8:	f001 01ff 	and.w	r1, r1, #255	; 0xff
    98cc:	ea41 2101 	orr.w	r1, r1, r1, lsl #8
    98d0:	ea41 4101 	orr.w	r1, r1, r1, lsl #16

000098d4 <__bhs_memset4>:
    98d4:	3a04      	subs	r2, #4

000098d6 <memset4>:
    98d6:	bf24      	itt	cs
    98d8:	f843 1b04 	strcs.w	r1, [r3], #4
    98dc:	f1b2 0204 	subscs.w	r2, r2, #4
    98e0:	d2f9      	bcs.n	98d6 <memset4>

000098e2 <memset1>:
    98e2:	f102 0204 	add.w	r2, r2, #4

000098e6 <memset1a>:
    98e6:	3a01      	subs	r2, #1
    98e8:	bf24      	itt	cs
    98ea:	f803 1b01 	strbcs.w	r1, [r3], #1
    98ee:	e7fa      	bcs.n	98e6 <memset1a>
    98f0:	4770      	bx	lr
    98f2:	Address 0x000098f2 is out of bounds.


000098f4 <__exit>:
    98f4:	2018      	movs	r0, #24
    98f6:	4901      	ldr	r1, [pc, #4]	; (98fc <__exit+0x8>)
    98f8:	beab      	bkpt	0x00ab
    98fa:	4770      	bx	lr
    98fc:	00020026 	.word	0x00020026

00009900 <__sys_close>:
    9900:	b403      	push	{r0, r1}
    9902:	4669      	mov	r1, sp
    9904:	2002      	movs	r0, #2
    9906:	beab      	bkpt	0x00ab
    9908:	b002      	add	sp, #8
    990a:	4770      	bx	lr

0000990c <__sys_flen>:
    990c:	b403      	push	{r0, r1}
    990e:	4669      	mov	r1, sp
    9910:	200c      	movs	r0, #12
    9912:	beab      	bkpt	0x00ab
    9914:	b002      	add	sp, #8
    9916:	4770      	bx	lr

00009918 <__sys_istty>:
    9918:	b403      	push	{r0, r1}
    991a:	4669      	mov	r1, sp
    991c:	2009      	movs	r0, #9
    991e:	beab      	bkpt	0x00ab
    9920:	b002      	add	sp, #8
    9922:	4770      	bx	lr

00009924 <__sys_remove>:
    9924:	b403      	push	{r0, r1}
    9926:	4669      	mov	r1, sp
    9928:	200e      	movs	r0, #14
    992a:	beab      	bkpt	0x00ab
    992c:	b002      	add	sp, #8
    992e:	4770      	bx	lr

00009930 <__sys_seek>:
    9930:	b403      	push	{r0, r1}
    9932:	4669      	mov	r1, sp
    9934:	200a      	movs	r0, #10
    9936:	beab      	bkpt	0x00ab
    9938:	b002      	add	sp, #8
    993a:	4770      	bx	lr

0000993c <__sys_tmpnam>:
    993c:	b40f      	push	{r0, r1, r2, r3}
    993e:	4669      	mov	r1, sp
    9940:	200d      	movs	r0, #13
    9942:	beab      	bkpt	0x00ab
    9944:	b004      	add	sp, #16
    9946:	4770      	bx	lr
    9948:	74726f43 	.word	0x74726f43
    994c:	4d207865 	.word	0x4d207865
    9950:	20372f34 	.word	0x20372f34
    9954:	66726550 	.word	0x66726550
    9958:	616d726f 	.word	0x616d726f
    995c:	2065636e 	.word	0x2065636e
    9960:	74736554 	.word	0x74736554
    9964:	00000a2e 	.word	0x00000a2e
    9968:	20434347 	.word	0x20434347
    996c:	73726556 	.word	0x73726556
    9970:	3a6e6f69 	.word	0x3a6e6f69
    9974:	2e642520 	.word	0x2e642520
    9978:	252e6425 	.word	0x252e6425
    997c:	00000a64 	.word	0x00000a64
    9980:	74666f53 	.word	0x74666f53
    9984:	00494241 	.word	0x00494241
    9988:	00304f2d 	.word	0x00304f2d
    998c:	3543504c 	.word	0x3543504c
    9990:	34313134 	.word	0x34313134
    9994:	00000000 	.word	0x00000000
    9998:	25207325 	.word	0x25207325
    999c:	73252073 	.word	0x73252073
    99a0:	0000000a 	.word	0x0000000a
    99a4:	6c637943 	.word	0x6c637943
    99a8:	664f2065 	.word	0x664f2065
    99ac:	74657366 	.word	0x74657366
    99b0:	6425203a 	.word	0x6425203a
    99b4:	0000000a 	.word	0x0000000a
    99b8:	6f6c420d 	.word	0x6f6c420d
    99bc:	50206b63 	.word	0x50206b63
    99c0:	65636f72 	.word	0x65636f72
    99c4:	6e697373 	.word	0x6e697373
    99c8:	75462067 	.word	0x75462067
    99cc:	6974636e 	.word	0x6974636e
    99d0:	0d736e6f 	.word	0x0d736e6f
    99d4:	00000000 	.word	0x00000000
    99d8:	676e654c 	.word	0x676e654c
    99dc:	31096874 	.word	0x31096874
    99e0:	32330936 	.word	0x32330936
    99e4:	09343609 	.word	0x09343609
    99e8:	09383231 	.word	0x09383231
    99ec:	09363532 	.word	0x09363532
    99f0:	09323135 	.word	0x09323135
    99f4:	34323031 	.word	0x34323031
    99f8:	34303209 	.word	0x34303209
    99fc:	30340938 	.word	0x30340938
    9a00:	00003639 	.word	0x00003639
    9a04:	0000000a 	.word	0x0000000a
    9a08:	4646430a 	.word	0x4646430a
    9a0c:	33662d54 	.word	0x33662d54
    9a10:	69422d32 	.word	0x69422d32
    9a14:	76655274 	.word	0x76655274
    9a18:	65737265 	.word	0x65737265
    9a1c:	00000009 	.word	0x00000009
    9a20:	00006925 	.word	0x00006925
    9a24:	00000009 	.word	0x00000009
    9a28:	54464643 	.word	0x54464643
    9a2c:	3233662d 	.word	0x3233662d
    9a30:	426f4e2d 	.word	0x426f4e2d
    9a34:	65527469 	.word	0x65527469
    9a38:	73726576 	.word	0x73726576
    9a3c:	00000965 	.word	0x00000965
    9a40:	706d6f43 	.word	0x706d6f43
    9a44:	4d78656c 	.word	0x4d78656c
    9a48:	662d6761 	.word	0x662d6761
    9a4c:	00093233 	.word	0x00093233
    9a50:	706d6f43 	.word	0x706d6f43
    9a54:	4d78656c 	.word	0x4d78656c
    9a58:	71536761 	.word	0x71536761
    9a5c:	65726175 	.word	0x65726175
    9a60:	33662d64 	.word	0x33662d64
    9a64:	00000932 	.word	0x00000932
    9a68:	72656f47 	.word	0x72656f47
    9a6c:	6c657a74 	.word	0x6c657a74
    9a70:	3233665f 	.word	0x3233665f
    9a74:	0000095f 	.word	0x0000095f
    9a78:	2d524949 	.word	0x2d524949
    9a7c:	5f323366 	.word	0x5f323366
    9a80:	2d316664 	.word	0x2d316664
    9a84:	61745331 	.word	0x61745331
    9a88:	00096567 	.word	0x00096567
    9a8c:	2d524949 	.word	0x2d524949
    9a90:	5f323366 	.word	0x5f323366
    9a94:	54326664 	.word	0x54326664
    9a98:	7453312d 	.word	0x7453312d
    9a9c:	09656761 	.word	0x09656761
    9aa0:	00000000 	.word	0x00000000
    9aa4:	2d524946 	.word	0x2d524946
    9aa8:	5f323366 	.word	0x5f323366
    9aac:	70617438 	.word	0x70617438
    9ab0:	00000009 	.word	0x00000009
    9ab4:	00612f6e 	.word	0x00612f6e
    9ab8:	2d524946 	.word	0x2d524946
    9abc:	5f323366 	.word	0x5f323366
    9ac0:	61743631 	.word	0x61743631
    9ac4:	00000970 	.word	0x00000970
    9ac8:	2d524946 	.word	0x2d524946
    9acc:	5f323366 	.word	0x5f323366
    9ad0:	61743233 	.word	0x61743233
    9ad4:	00000970 	.word	0x00000970
    9ad8:	61530d0d 	.word	0x61530d0d
    9adc:	656c706d 	.word	0x656c706d
    9ae0:	20796220 	.word	0x20796220
    9ae4:	706d6153 	.word	0x706d6153
    9ae8:	5420656c 	.word	0x5420656c
    9aec:	73747365 	.word	0x73747365
    9af0:	00000000 	.word	0x00000000
    9af4:	6574490d 	.word	0x6574490d
    9af8:	69746172 	.word	0x69746172
    9afc:	30096e6f 	.word	0x30096e6f
    9b00:	32093109 	.word	0x32093109
    9b04:	34093309 	.word	0x34093309
    9b08:	36093509 	.word	0x36093509
    9b0c:	000d3709 	.word	0x000d3709
    9b10:	2d444950 	.word	0x2d444950
    9b14:	09323366 	.word	0x09323366
    9b18:	ffffff00 	.word	0xffffff00

00009b1c <ExtClockIn>:
    9b1c:	00000000                                ....

00009b20 <tstBits>:
    9b20:	07000600                                ....

00009b24 <btnBits>:
    9b24:	04001f00 ffff1800                       ........

00009b2c <ledBits>:
    9b2c:	0a011d00 ffff0901                       ........

00009b34 <pinmuxing>:
    9b34:	00901d00 00900901 00900a01 00901f00     ................
    9b44:	00900400 00901800 00870601 01810000     ................
    9b54:	01810100 00800600 00800700 00820f00     ................

00009b64 <arm_cfft_sR_f32_len16>:
    9b64:	00000010 00009bf4 00019b74 00000014     ........t.......

00009b74 <arm_cfft_sR_f32_len32>:
    9b74:	00000020 00009c74 00019b9c 00000030      ...t.......0...

00009b84 <arm_cfft_sR_f32_len64>:
    9b84:	00000040 00009d74 00019bfc 00000038     @...t.......8...

00009b94 <arm_cfft_sR_f32_len128>:
    9b94:	00000080 00009f74 00019c6c 000000d0     ....t...l.......

00009ba4 <arm_cfft_sR_f32_len256>:
    9ba4:	00000100 0000a374 00019e0c 000001b8     ....t...........

00009bb4 <arm_cfft_sR_f32_len512>:
    9bb4:	00000200 0000ab74 0001a17c 000001c0     ....t...|.......

00009bc4 <arm_cfft_sR_f32_len1024>:
    9bc4:	00000400 0000bb74 0001a4fc 00000708     ....t...........

00009bd4 <arm_cfft_sR_f32_len2048>:
    9bd4:	00000800 0000db74 0001b30c 00000ee0     ....t...........

00009be4 <arm_cfft_sR_f32_len4096>:
    9be4:	00001000 00011b74 0001d0cc 00000fc0     ....t...........

00009bf4 <twiddleCoef_16>:
    9bf4:	3f800000 00000000 3f6c835e 3ec3ef15     ...?....^.l?...>
    9c04:	3f3504f3 3f3504f3 3ec3ef15 3f6c835e     ..5?..5?...>^.l?
    9c14:	00000000 3f800000 bec3ef15 3f6c835e     .......?....^.l?
    9c24:	bf3504f3 3f3504f3 bf6c835e 3ec3ef15     ..5...5?^.l....>
    9c34:	bf800000 00000000 bf6c835e bec3ef15     ........^.l.....
    9c44:	bf3504f3 bf3504f3 bec3ef15 bf6c835e     ..5...5.....^.l.
    9c54:	80000000 bf800000 3ec3ef15 bf6c835e     ...........>^.l.
    9c64:	3f3504f3 bf3504f3 3f6c835e bec3ef15     ..5?..5.^.l?....

00009c74 <twiddleCoef_32>:
    9c74:	3f800000 00000000 3f7b14be 3e47c5c2     ...?......{?..G>
    9c84:	3f6c835e 3ec3ef15 3f54db31 3f0e39da     ^.l?...>1.T?.9.?
    9c94:	3f3504f3 3f3504f3 3f0e39da 3f54db31     ..5?..5?.9.?1.T?
    9ca4:	3ec3ef15 3f6c835e 3e47c5c2 3f7b14be     ...>^.l?..G>..{?
    9cb4:	00000000 3f800000 be47c5c2 3f7b14be     .......?..G...{?
    9cc4:	bec3ef15 3f6c835e bf0e39da 3f54db31     ....^.l?.9..1.T?
    9cd4:	bf3504f3 3f3504f3 bf54db31 3f0e39da     ..5...5?1.T..9.?
    9ce4:	bf6c835e 3ec3ef15 bf7b14be 3e47c5c2     ^.l....>..{...G>
    9cf4:	bf800000 00000000 bf7b14be be47c5c2     ..........{...G.
    9d04:	bf6c835e bec3ef15 bf54db31 bf0e39da     ^.l.....1.T..9..
    9d14:	bf3504f3 bf3504f3 bf0e39da bf54db31     ..5...5..9..1.T.
    9d24:	bec3ef15 bf6c835e be47c5c2 bf7b14be     ....^.l...G...{.
    9d34:	80000000 bf800000 3e47c5c2 bf7b14be     ..........G>..{.
    9d44:	3ec3ef15 bf6c835e 3f0e39da bf54db31     ...>^.l..9.?1.T.
    9d54:	3f3504f3 bf3504f3 3f54db31 bf0e39da     ..5?..5.1.T?.9..
    9d64:	3f6c835e bec3ef15 3f7b14be be47c5c2     ^.l?......{?..G.

00009d74 <twiddleCoef_64>:
    9d74:	3f800000 00000000 3f7ec46d 3dc8bd36     ...?....m.~?6..=
    9d84:	3f7b14be 3e47c5c2 3f74fa0b 3e94a031     ..{?..G>..t?1..>
    9d94:	3f6c835e 3ec3ef15 3f61c598 3ef15aea     ^.l?...>..a?.Z.>
    9da4:	3f54db31 3f0e39da 3f45e403 3f226799     1.T?.9.?..E?.g"?
    9db4:	3f3504f3 3f3504f3 3f226799 3f45e403     ..5?..5?.g"?..E?
    9dc4:	3f0e39da 3f54db31 3ef15aea 3f61c598     .9.?1.T?.Z.>..a?
    9dd4:	3ec3ef15 3f6c835e 3e94a031 3f74fa0b     ...>^.l?1..>..t?
    9de4:	3e47c5c2 3f7b14be 3dc8bd36 3f7ec46d     ..G>..{?6..=m.~?
    9df4:	00000000 3f800000 bdc8bd36 3f7ec46d     .......?6...m.~?
    9e04:	be47c5c2 3f7b14be be94a031 3f74fa0b     ..G...{?1.....t?
    9e14:	bec3ef15 3f6c835e bef15aea 3f61c598     ....^.l?.Z....a?
    9e24:	bf0e39da 3f54db31 bf226799 3f45e403     .9..1.T?.g"...E?
    9e34:	bf3504f3 3f3504f3 bf45e403 3f226799     ..5...5?..E..g"?
    9e44:	bf54db31 3f0e39da bf61c598 3ef15aea     1.T..9.?..a..Z.>
    9e54:	bf6c835e 3ec3ef15 bf74fa0b 3e94a031     ^.l....>..t.1..>
    9e64:	bf7b14be 3e47c5c2 bf7ec46d 3dc8bd36     ..{...G>m.~.6..=
    9e74:	bf800000 00000000 bf7ec46d bdc8bd36     ........m.~.6...
    9e84:	bf7b14be be47c5c2 bf74fa0b be94a031     ..{...G...t.1...
    9e94:	bf6c835e bec3ef15 bf61c598 bef15aea     ^.l.......a..Z..
    9ea4:	bf54db31 bf0e39da bf45e403 bf226799     1.T..9....E..g".
    9eb4:	bf3504f3 bf3504f3 bf226799 bf45e403     ..5...5..g"...E.
    9ec4:	bf0e39da bf54db31 bef15aea bf61c598     .9..1.T..Z....a.
    9ed4:	bec3ef15 bf6c835e be94a031 bf74fa0b     ....^.l.1.....t.
    9ee4:	be47c5c2 bf7b14be bdc8bd36 bf7ec46d     ..G...{.6...m.~.
    9ef4:	80000000 bf800000 3dc8bd36 bf7ec46d     ........6..=m.~.
    9f04:	3e47c5c2 bf7b14be 3e94a031 bf74fa0b     ..G>..{.1..>..t.
    9f14:	3ec3ef15 bf6c835e 3ef15aea bf61c598     ...>^.l..Z.>..a.
    9f24:	3f0e39da bf54db31 3f226799 bf45e403     .9.?1.T..g"?..E.
    9f34:	3f3504f3 bf3504f3 3f45e403 bf226799     ..5?..5...E?.g".
    9f44:	3f54db31 bf0e39da 3f61c598 bef15aea     1.T?.9....a?.Z..
    9f54:	3f6c835e bec3ef15 3f74fa0b be94a031     ^.l?......t?1...
    9f64:	3f7b14be be47c5c2 3f7ec46d bdc8bd36     ..{?..G.m.~?6...

00009f74 <twiddleCoef_128>:
    9f74:	3f800000 00000000 3f7fb10f 3d48fb2f     ...?.......?/.H=
    9f84:	3f7ec46d 3dc8bd36 3f7d3aac 3e164083     m.~?6..=.:}?.@.>
    9f94:	3f7b14be 3e47c5c2 3f7853f8 3e78cfcc     ..{?..G>.Sx?..x>
    9fa4:	3f74fa0b 3e94a031 3f710908 3eac7cd4     ..t?1..>..q?.|.>
    9fb4:	3f6c835e 3ec3ef15 3f676bd8 3edae880     ^.l?...>.kg?...>
    9fc4:	3f61c598 3ef15aea 3f5b941a 3f039c3d     ..a?.Z.>..[?=..?
    9fd4:	3f54db31 3f0e39da 3f4d9f02 3f187fc0     1.T?.9.?..M?...?
    9fe4:	3f45e403 3f226799 3f3daef9 3f2beb4a     ..E?.g"?..=?J.+?
    9ff4:	3f3504f3 3f3504f3 3f2beb4a 3f3daef9     ..5?..5?J.+?..=?
    a004:	3f226799 3f45e403 3f187fc0 3f4d9f02     .g"?..E?...?..M?
    a014:	3f0e39da 3f54db31 3f039c3d 3f5b941a     .9.?1.T?=..?..[?
    a024:	3ef15aea 3f61c598 3edae880 3f676bd8     .Z.>..a?...>.kg?
    a034:	3ec3ef15 3f6c835e 3eac7cd4 3f710908     ...>^.l?.|.>..q?
    a044:	3e94a031 3f74fa0b 3e78cfcc 3f7853f8     1..>..t?..x>.Sx?
    a054:	3e47c5c2 3f7b14be 3e164083 3f7d3aac     ..G>..{?.@.>.:}?
    a064:	3dc8bd36 3f7ec46d 3d48fb2f 3f7fb10f     6..=m.~?/.H=...?
    a074:	00000000 3f800000 bd48fb2f 3f7fb10f     .......?/.H....?
    a084:	bdc8bd36 3f7ec46d be164083 3f7d3aac     6...m.~?.@...:}?
    a094:	be47c5c2 3f7b14be be78cfcc 3f7853f8     ..G...{?..x..Sx?
    a0a4:	be94a031 3f74fa0b beac7cd4 3f710908     1.....t?.|....q?
    a0b4:	bec3ef15 3f6c835e bedae880 3f676bd8     ....^.l?.....kg?
    a0c4:	bef15aea 3f61c598 bf039c3d 3f5b941a     .Z....a?=.....[?
    a0d4:	bf0e39da 3f54db31 bf187fc0 3f4d9f02     .9..1.T?......M?
    a0e4:	bf226799 3f45e403 bf2beb4a 3f3daef9     .g"...E?J.+...=?
    a0f4:	bf3504f3 3f3504f3 bf3daef9 3f2beb4a     ..5...5?..=.J.+?
    a104:	bf45e403 3f226799 bf4d9f02 3f187fc0     ..E..g"?..M....?
    a114:	bf54db31 3f0e39da bf5b941a 3f039c3d     1.T..9.?..[.=..?
    a124:	bf61c598 3ef15aea bf676bd8 3edae880     ..a..Z.>.kg....>
    a134:	bf6c835e 3ec3ef15 bf710908 3eac7cd4     ^.l....>..q..|.>
    a144:	bf74fa0b 3e94a031 bf7853f8 3e78cfcc     ..t.1..>.Sx...x>
    a154:	bf7b14be 3e47c5c2 bf7d3aac 3e164083     ..{...G>.:}..@.>
    a164:	bf7ec46d 3dc8bd36 bf7fb10f 3d48fb2f     m.~.6..=..../.H=
    a174:	bf800000 00000000 bf7fb10f bd48fb2f     ............/.H.
    a184:	bf7ec46d bdc8bd36 bf7d3aac be164083     m.~.6....:}..@..
    a194:	bf7b14be be47c5c2 bf7853f8 be78cfcc     ..{...G..Sx...x.
    a1a4:	bf74fa0b be94a031 bf710908 beac7cd4     ..t.1.....q..|..
    a1b4:	bf6c835e bec3ef15 bf676bd8 bedae880     ^.l......kg.....
    a1c4:	bf61c598 bef15aea bf5b941a bf039c3d     ..a..Z....[.=...
    a1d4:	bf54db31 bf0e39da bf4d9f02 bf187fc0     1.T..9....M.....
    a1e4:	bf45e403 bf226799 bf3daef9 bf2beb4a     ..E..g"...=.J.+.
    a1f4:	bf3504f3 bf3504f3 bf2beb4a bf3daef9     ..5...5.J.+...=.
    a204:	bf226799 bf45e403 bf187fc0 bf4d9f02     .g"...E.......M.
    a214:	bf0e39da bf54db31 bf039c3d bf5b941a     .9..1.T.=.....[.
    a224:	bef15aea bf61c598 bedae880 bf676bd8     .Z....a......kg.
    a234:	bec3ef15 bf6c835e beac7cd4 bf710908     ....^.l..|....q.
    a244:	be94a031 bf74fa0b be78cfcc bf7853f8     1.....t...x..Sx.
    a254:	be47c5c2 bf7b14be be164083 bf7d3aac     ..G...{..@...:}.
    a264:	bdc8bd36 bf7ec46d bd48fb2f bf7fb10f     6...m.~./.H.....
    a274:	80000000 bf800000 3d48fb2f bf7fb10f     ......../.H=....
    a284:	3dc8bd36 bf7ec46d 3e164083 bf7d3aac     6..=m.~..@.>.:}.
    a294:	3e47c5c2 bf7b14be 3e78cfcc bf7853f8     ..G>..{...x>.Sx.
    a2a4:	3e94a031 bf74fa0b 3eac7cd4 bf710908     1..>..t..|.>..q.
    a2b4:	3ec3ef15 bf6c835e 3edae880 bf676bd8     ...>^.l....>.kg.
    a2c4:	3ef15aea bf61c598 3f039c3d bf5b941a     .Z.>..a.=..?..[.
    a2d4:	3f0e39da bf54db31 3f187fc0 bf4d9f02     .9.?1.T....?..M.
    a2e4:	3f226799 bf45e403 3f2beb4a bf3daef9     .g"?..E.J.+?..=.
    a2f4:	3f3504f3 bf3504f3 3f3daef9 bf2beb4a     ..5?..5...=?J.+.
    a304:	3f45e403 bf226799 3f4d9f02 bf187fc0     ..E?.g"...M?....
    a314:	3f54db31 bf0e39da 3f5b941a bf039c3d     1.T?.9....[?=...
    a324:	3f61c598 bef15aea 3f676bd8 bedae880     ..a?.Z...kg?....
    a334:	3f6c835e bec3ef15 3f710908 beac7cd4     ^.l?......q?.|..
    a344:	3f74fa0b be94a031 3f7853f8 be78cfcc     ..t?1....Sx?..x.
    a354:	3f7b14be be47c5c2 3f7d3aac be164083     ..{?..G..:}?.@..
    a364:	3f7ec46d bdc8bd36 3f7fb10f bd48fb2f     m.~?6......?/.H.

0000a374 <twiddleCoef_256>:
    a374:	3f800000 00000000 3f7fec43 3cc90ab0     ...?....C..?...<
    a384:	3f7fb10f 3d48fb2f 3f7f4e6d 3d96a905     ...?/.H=mN.?...=
    a394:	3f7ec46d 3dc8bd36 3f7e1324 3dfab273     m.~?6..=$.~?s..=
    a3a4:	3f7d3aac 3e164083 3f7c3b28 3e2f10a2     .:}?.@.>(;|?../>
    a3b4:	3f7b14be 3e47c5c2 3f79c79d 3e605c13     ..{?..G>..y?.\`>
    a3c4:	3f7853f8 3e78cfcc 3f76ba07 3e888e93     .Sx?..x>..v?...>
    a3d4:	3f74fa0b 3e94a031 3f731447 3ea09ae5     ..t?1..>G.s?...>
    a3e4:	3f710908 3eac7cd4 3f6ed89e 3eb8442a     ..q?.|.>..n?*D.>
    a3f4:	3f6c835e 3ec3ef15 3f6a09a7 3ecf7bca     ^.l?...>..j?.{.>
    a404:	3f676bd8 3edae880 3f64aa59 3ee63375     .kg?...>Y.d?u3.>
    a414:	3f61c598 3ef15aea 3f5ebe05 3efc5d27     ..a?.Z.>..^?'].>
    a424:	3f5b941a 3f039c3d 3f584853 3f08f59b     ..[?=..?SHX?...?
    a434:	3f54db31 3f0e39da 3f514d3d 3f13682a     1.T?.9.?=MQ?*h.?
    a444:	3f4d9f02 3f187fc0 3f49d112 3f1d7fd1     ..M?...?..I?...?
    a454:	3f45e403 3f226799 3f41d870 3f273656     ..E?.g"?p.A?V6'?
    a464:	3f3daef9 3f2beb4a 3f396842 3f3085bb     ..=?J.+?Bh9?..0?
    a474:	3f3504f3 3f3504f3 3f3085bb 3f396842     ..5?..5?..0?Bh9?
    a484:	3f2beb4a 3f3daef9 3f273656 3f41d870     J.+?..=?V6'?p.A?
    a494:	3f226799 3f45e403 3f1d7fd1 3f49d112     .g"?..E?...?..I?
    a4a4:	3f187fc0 3f4d9f02 3f13682a 3f514d3d     ...?..M?*h.?=MQ?
    a4b4:	3f0e39da 3f54db31 3f08f59b 3f584853     .9.?1.T?...?SHX?
    a4c4:	3f039c3d 3f5b941a 3efc5d27 3f5ebe05     =..?..[?'].>..^?
    a4d4:	3ef15aea 3f61c598 3ee63375 3f64aa59     .Z.>..a?u3.>Y.d?
    a4e4:	3edae880 3f676bd8 3ecf7bca 3f6a09a7     ...>.kg?.{.>..j?
    a4f4:	3ec3ef15 3f6c835e 3eb8442a 3f6ed89e     ...>^.l?*D.>..n?
    a504:	3eac7cd4 3f710908 3ea09ae5 3f731447     .|.>..q?...>G.s?
    a514:	3e94a031 3f74fa0b 3e888e93 3f76ba07     1..>..t?...>..v?
    a524:	3e78cfcc 3f7853f8 3e605c13 3f79c79d     ..x>.Sx?.\`>..y?
    a534:	3e47c5c2 3f7b14be 3e2f10a2 3f7c3b28     ..G>..{?../>(;|?
    a544:	3e164083 3f7d3aac 3dfab273 3f7e1324     .@.>.:}?s..=$.~?
    a554:	3dc8bd36 3f7ec46d 3d96a905 3f7f4e6d     6..=m.~?...=mN.?
    a564:	3d48fb2f 3f7fb10f 3cc90ab0 3f7fec43     /.H=...?...<C..?
    a574:	00000000 3f800000 bcc90ab0 3f7fec43     .......?....C..?
    a584:	bd48fb2f 3f7fb10f bd96a905 3f7f4e6d     /.H....?....mN.?
    a594:	bdc8bd36 3f7ec46d bdfab273 3f7e1324     6...m.~?s...$.~?
    a5a4:	be164083 3f7d3aac be2f10a2 3f7c3b28     .@...:}?../.(;|?
    a5b4:	be47c5c2 3f7b14be be605c13 3f79c79d     ..G...{?.\`...y?
    a5c4:	be78cfcc 3f7853f8 be888e93 3f76ba07     ..x..Sx?......v?
    a5d4:	be94a031 3f74fa0b bea09ae5 3f731447     1.....t?....G.s?
    a5e4:	beac7cd4 3f710908 beb8442a 3f6ed89e     .|....q?*D....n?
    a5f4:	bec3ef15 3f6c835e becf7bca 3f6a09a7     ....^.l?.{....j?
    a604:	bedae880 3f676bd8 bee63375 3f64aa59     .....kg?u3..Y.d?
    a614:	bef15aea 3f61c598 befc5d27 3f5ebe05     .Z....a?']....^?
    a624:	bf039c3d 3f5b941a bf08f59b 3f584853     =.....[?....SHX?
    a634:	bf0e39da 3f54db31 bf13682a 3f514d3d     .9..1.T?*h..=MQ?
    a644:	bf187fc0 3f4d9f02 bf1d7fd1 3f49d112     ......M?......I?
    a654:	bf226799 3f45e403 bf273656 3f41d870     .g"...E?V6'.p.A?
    a664:	bf2beb4a 3f3daef9 bf3085bb 3f396842     J.+...=?..0.Bh9?
    a674:	bf3504f3 3f3504f3 bf396842 3f3085bb     ..5...5?Bh9...0?
    a684:	bf3daef9 3f2beb4a bf41d870 3f273656     ..=.J.+?p.A.V6'?
    a694:	bf45e403 3f226799 bf49d112 3f1d7fd1     ..E..g"?..I....?
    a6a4:	bf4d9f02 3f187fc0 bf514d3d 3f13682a     ..M....?=MQ.*h.?
    a6b4:	bf54db31 3f0e39da bf584853 3f08f59b     1.T..9.?SHX....?
    a6c4:	bf5b941a 3f039c3d bf5ebe05 3efc5d27     ..[.=..?..^.'].>
    a6d4:	bf61c598 3ef15aea bf64aa59 3ee63375     ..a..Z.>Y.d.u3.>
    a6e4:	bf676bd8 3edae880 bf6a09a7 3ecf7bca     .kg....>..j..{.>
    a6f4:	bf6c835e 3ec3ef15 bf6ed89e 3eb8442a     ^.l....>..n.*D.>
    a704:	bf710908 3eac7cd4 bf731447 3ea09ae5     ..q..|.>G.s....>
    a714:	bf74fa0b 3e94a031 bf76ba07 3e888e93     ..t.1..>..v....>
    a724:	bf7853f8 3e78cfcc bf79c79d 3e605c13     .Sx...x>..y..\`>
    a734:	bf7b14be 3e47c5c2 bf7c3b28 3e2f10a2     ..{...G>(;|.../>
    a744:	bf7d3aac 3e164083 bf7e1324 3dfab273     .:}..@.>$.~.s..=
    a754:	bf7ec46d 3dc8bd36 bf7f4e6d 3d96a905     m.~.6..=mN.....=
    a764:	bf7fb10f 3d48fb2f bf7fec43 3cc90ab0     ..../.H=C......<
    a774:	bf800000 00000000 bf7fec43 bcc90ab0     ........C.......
    a784:	bf7fb10f bd48fb2f bf7f4e6d bd96a905     ..../.H.mN......
    a794:	bf7ec46d bdc8bd36 bf7e1324 bdfab273     m.~.6...$.~.s...
    a7a4:	bf7d3aac be164083 bf7c3b28 be2f10a2     .:}..@..(;|.../.
    a7b4:	bf7b14be be47c5c2 bf79c79d be605c13     ..{...G...y..\`.
    a7c4:	bf7853f8 be78cfcc bf76ba07 be888e93     .Sx...x...v.....
    a7d4:	bf74fa0b be94a031 bf731447 bea09ae5     ..t.1...G.s.....
    a7e4:	bf710908 beac7cd4 bf6ed89e beb8442a     ..q..|....n.*D..
    a7f4:	bf6c835e bec3ef15 bf6a09a7 becf7bca     ^.l.......j..{..
    a804:	bf676bd8 bedae880 bf64aa59 bee63375     .kg.....Y.d.u3..
    a814:	bf61c598 bef15aea bf5ebe05 befc5d27     ..a..Z....^.']..
    a824:	bf5b941a bf039c3d bf584853 bf08f59b     ..[.=...SHX.....
    a834:	bf54db31 bf0e39da bf514d3d bf13682a     1.T..9..=MQ.*h..
    a844:	bf4d9f02 bf187fc0 bf49d112 bf1d7fd1     ..M.......I.....
    a854:	bf45e403 bf226799 bf41d870 bf273656     ..E..g".p.A.V6'.
    a864:	bf3daef9 bf2beb4a bf396842 bf3085bb     ..=.J.+.Bh9...0.
    a874:	bf3504f3 bf3504f3 bf3085bb bf396842     ..5...5...0.Bh9.
    a884:	bf2beb4a bf3daef9 bf273656 bf41d870     J.+...=.V6'.p.A.
    a894:	bf226799 bf45e403 bf1d7fd1 bf49d112     .g"...E.......I.
    a8a4:	bf187fc0 bf4d9f02 bf13682a bf514d3d     ......M.*h..=MQ.
    a8b4:	bf0e39da bf54db31 bf08f59b bf584853     .9..1.T.....SHX.
    a8c4:	bf039c3d bf5b941a befc5d27 bf5ebe05     =.....[.']....^.
    a8d4:	bef15aea bf61c598 bee63375 bf64aa59     .Z....a.u3..Y.d.
    a8e4:	bedae880 bf676bd8 becf7bca bf6a09a7     .....kg..{....j.
    a8f4:	bec3ef15 bf6c835e beb8442a bf6ed89e     ....^.l.*D....n.
    a904:	beac7cd4 bf710908 bea09ae5 bf731447     .|....q.....G.s.
    a914:	be94a031 bf74fa0b be888e93 bf76ba07     1.....t.......v.
    a924:	be78cfcc bf7853f8 be605c13 bf79c79d     ..x..Sx..\`...y.
    a934:	be47c5c2 bf7b14be be2f10a2 bf7c3b28     ..G...{.../.(;|.
    a944:	be164083 bf7d3aac bdfab273 bf7e1324     .@...:}.s...$.~.
    a954:	bdc8bd36 bf7ec46d bd96a905 bf7f4e6d     6...m.~.....mN..
    a964:	bd48fb2f bf7fb10f bcc90ab0 bf7fec43     /.H.........C...
    a974:	80000000 bf800000 3cc90ab0 bf7fec43     ...........<C...
    a984:	3d48fb2f bf7fb10f 3d96a905 bf7f4e6d     /.H=.......=mN..
    a994:	3dc8bd36 bf7ec46d 3dfab273 bf7e1324     6..=m.~.s..=$.~.
    a9a4:	3e164083 bf7d3aac 3e2f10a2 bf7c3b28     .@.>.:}.../>(;|.
    a9b4:	3e47c5c2 bf7b14be 3e605c13 bf79c79d     ..G>..{..\`>..y.
    a9c4:	3e78cfcc bf7853f8 3e888e93 bf76ba07     ..x>.Sx....>..v.
    a9d4:	3e94a031 bf74fa0b 3ea09ae5 bf731447     1..>..t....>G.s.
    a9e4:	3eac7cd4 bf710908 3eb8442a bf6ed89e     .|.>..q.*D.>..n.
    a9f4:	3ec3ef15 bf6c835e 3ecf7bca bf6a09a7     ...>^.l..{.>..j.
    aa04:	3edae880 bf676bd8 3ee63375 bf64aa59     ...>.kg.u3.>Y.d.
    aa14:	3ef15aea bf61c598 3efc5d27 bf5ebe05     .Z.>..a.'].>..^.
    aa24:	3f039c3d bf5b941a 3f08f59b bf584853     =..?..[....?SHX.
    aa34:	3f0e39da bf54db31 3f13682a bf514d3d     .9.?1.T.*h.?=MQ.
    aa44:	3f187fc0 bf4d9f02 3f1d7fd1 bf49d112     ...?..M....?..I.
    aa54:	3f226799 bf45e403 3f273656 bf41d870     .g"?..E.V6'?p.A.
    aa64:	3f2beb4a bf3daef9 3f3085bb bf396842     J.+?..=...0?Bh9.
    aa74:	3f3504f3 bf3504f3 3f396842 bf3085bb     ..5?..5.Bh9?..0.
    aa84:	3f3daef9 bf2beb4a 3f41d870 bf273656     ..=?J.+.p.A?V6'.
    aa94:	3f45e403 bf226799 3f49d112 bf1d7fd1     ..E?.g"...I?....
    aaa4:	3f4d9f02 bf187fc0 3f514d3d bf13682a     ..M?....=MQ?*h..
    aab4:	3f54db31 bf0e39da 3f584853 bf08f59b     1.T?.9..SHX?....
    aac4:	3f5b941a bf039c3d 3f5ebe05 befc5d27     ..[?=.....^?']..
    aad4:	3f61c598 bef15aea 3f64aa59 bee63375     ..a?.Z..Y.d?u3..
    aae4:	3f676bd8 bedae880 3f6a09a7 becf7bca     .kg?......j?.{..
    aaf4:	3f6c835e bec3ef15 3f6ed89e beb8442a     ^.l?......n?*D..
    ab04:	3f710908 beac7cd4 3f731447 bea09ae5     ..q?.|..G.s?....
    ab14:	3f74fa0b be94a031 3f76ba07 be888e93     ..t?1.....v?....
    ab24:	3f7853f8 be78cfcc 3f79c79d be605c13     .Sx?..x...y?.\`.
    ab34:	3f7b14be be47c5c2 3f7c3b28 be2f10a2     ..{?..G.(;|?../.
    ab44:	3f7d3aac be164083 3f7e1324 bdfab273     .:}?.@..$.~?s...
    ab54:	3f7ec46d bdc8bd36 3f7f4e6d bd96a905     m.~?6...mN.?....
    ab64:	3f7fb10f bd48fb2f 3f7fec43 bcc90ab0     ...?/.H.C..?....

0000ab74 <twiddleCoef_512>:
    ab74:	3f800000 00000000 3f7ffb11 3c490e90     ...?.......?..I<
    ab84:	3f7fec43 3cc90ab0 3f7fd398 3d16c32c     C..?...<...?,..=
    ab94:	3f7fb10f 3d48fb2f 3f7f84ab 3d7b2b74     ...?/.H=...?t+{=
    aba4:	3f7f4e6d 3d96a905 3f7f0e58 3dafb680     mN.?...=X..?...=
    abb4:	3f7ec46d 3dc8bd36 3f7e70b0 3de1bc2e     m.~?6..=.p~?...=
    abc4:	3f7e1324 3dfab273 3f7dabcc 3e09cf86     $.~?s..=..}?...>
    abd4:	3f7d3aac 3e164083 3f7cbfc9 3e22abb6     .:}?.@.>..|?..">
    abe4:	3f7c3b28 3e2f10a2 3f7baccd 3e3b6ecf     (;|?../>..{?.n;>
    abf4:	3f7b14be 3e47c5c2 3f7a7302 3e541501     ..{?..G>.sz?..T>
    ac04:	3f79c79d 3e605c13 3f791298 3e6c9a7f     ..y?.\`>..y?..l>
    ac14:	3f7853f8 3e78cfcc 3f778bc5 3e827dc0     .Sx?..x>..w?.}.>
    ac24:	3f76ba07 3e888e93 3f75dec6 3e8e9a22     ..v?...>..u?"..>
    ac34:	3f74fa0b 3e94a031 3f740bdd 3e9aa086     ..t?1..>..t?...>
    ac44:	3f731447 3ea09ae5 3f721352 3ea68f12     G.s?...>R.r?...>
    ac54:	3f710908 3eac7cd4 3f6ff573 3eb263ef     ..q?.|.>s.o?.c.>
    ac64:	3f6ed89e 3eb8442a 3f6db293 3ebe1d4a     ..n?*D.>..m?J..>
    ac74:	3f6c835e 3ec3ef15 3f6b4b0c 3ec9b953     ^.l?...>.Kk?S..>
    ac84:	3f6a09a7 3ecf7bca 3f68bf3c 3ed53641     ..j?.{.><.h?A6.>
    ac94:	3f676bd8 3edae880 3f660f88 3ee0924f     .kg?...>..f?O..>
    aca4:	3f64aa59 3ee63375 3f633c5a 3eebcbbb     Y.d?u3.>Z<c?...>
    acb4:	3f61c598 3ef15aea 3f604621 3ef6e0cb     ..a?.Z.>!F`?...>
    acc4:	3f5ebe05 3efc5d27 3f5d2d53 3f00e7e4     ..^?'].>S-]?...?
    acd4:	3f5b941a 3f039c3d 3f59f26a 3f064b82     ..[?=..?j.Y?.K.?
    ace4:	3f584853 3f08f59b 3f5695e5 3f0b9a6b     SHX?...?..V?k..?
    acf4:	3f54db31 3f0e39da 3f531849 3f10d3cd     1.T?.9.?I.S?...?
    ad04:	3f514d3d 3f13682a 3f4f7a1f 3f15f6d9     =MQ?*h.?.zO?...?
    ad14:	3f4d9f02 3f187fc0 3f4bbbf8 3f1b02c6     ..M?...?..K?...?
    ad24:	3f49d112 3f1d7fd1 3f47de65 3f1ff6cb     ..I?...?e.G?...?
    ad34:	3f45e403 3f226799 3f43e200 3f24d225     ..E?.g"?..C?%.$?
    ad44:	3f41d870 3f273656 3f3fc767 3f299415     p.A?V6'?g.??..)?
    ad54:	3f3daef9 3f2beb4a 3f3b8f3b 3f2e3bde     ..=?J.+?;.;?.;.?
    ad64:	3f396842 3f3085bb 3f373a23 3f32c8c9     Bh9?..0?#:7?..2?
    ad74:	3f3504f3 3f3504f3 3f32c8c9 3f373a23     ..5?..5?..2?#:7?
    ad84:	3f3085bb 3f396842 3f2e3bde 3f3b8f3b     ..0?Bh9?.;.?;.;?
    ad94:	3f2beb4a 3f3daef9 3f299415 3f3fc767     J.+?..=?..)?g.??
    ada4:	3f273656 3f41d870 3f24d225 3f43e200     V6'?p.A?%.$?..C?
    adb4:	3f226799 3f45e403 3f1ff6cb 3f47de65     .g"?..E?...?e.G?
    adc4:	3f1d7fd1 3f49d112 3f1b02c6 3f4bbbf8     ...?..I?...?..K?
    add4:	3f187fc0 3f4d9f02 3f15f6d9 3f4f7a1f     ...?..M?...?.zO?
    ade4:	3f13682a 3f514d3d 3f10d3cd 3f531849     *h.?=MQ?...?I.S?
    adf4:	3f0e39da 3f54db31 3f0b9a6b 3f5695e5     .9.?1.T?k..?..V?
    ae04:	3f08f59b 3f584853 3f064b82 3f59f26a     ...?SHX?.K.?j.Y?
    ae14:	3f039c3d 3f5b941a 3f00e7e4 3f5d2d53     =..?..[?...?S-]?
    ae24:	3efc5d27 3f5ebe05 3ef6e0cb 3f604621     '].>..^?...>!F`?
    ae34:	3ef15aea 3f61c598 3eebcbbb 3f633c5a     .Z.>..a?...>Z<c?
    ae44:	3ee63375 3f64aa59 3ee0924f 3f660f88     u3.>Y.d?O..>..f?
    ae54:	3edae880 3f676bd8 3ed53641 3f68bf3c     ...>.kg?A6.><.h?
    ae64:	3ecf7bca 3f6a09a7 3ec9b953 3f6b4b0c     .{.>..j?S..>.Kk?
    ae74:	3ec3ef15 3f6c835e 3ebe1d4a 3f6db293     ...>^.l?J..>..m?
    ae84:	3eb8442a 3f6ed89e 3eb263ef 3f6ff573     *D.>..n?.c.>s.o?
    ae94:	3eac7cd4 3f710908 3ea68f12 3f721352     .|.>..q?...>R.r?
    aea4:	3ea09ae5 3f731447 3e9aa086 3f740bdd     ...>G.s?...>..t?
    aeb4:	3e94a031 3f74fa0b 3e8e9a22 3f75dec6     1..>..t?"..>..u?
    aec4:	3e888e93 3f76ba07 3e827dc0 3f778bc5     ...>..v?.}.>..w?
    aed4:	3e78cfcc 3f7853f8 3e6c9a7f 3f791298     ..x>.Sx?..l>..y?
    aee4:	3e605c13 3f79c79d 3e541501 3f7a7302     .\`>..y?..T>.sz?
    aef4:	3e47c5c2 3f7b14be 3e3b6ecf 3f7baccd     ..G>..{?.n;>..{?
    af04:	3e2f10a2 3f7c3b28 3e22abb6 3f7cbfc9     ../>(;|?..">..|?
    af14:	3e164083 3f7d3aac 3e09cf86 3f7dabcc     .@.>.:}?...>..}?
    af24:	3dfab273 3f7e1324 3de1bc2e 3f7e70b0     s..=$.~?...=.p~?
    af34:	3dc8bd36 3f7ec46d 3dafb680 3f7f0e58     6..=m.~?...=X..?
    af44:	3d96a905 3f7f4e6d 3d7b2b74 3f7f84ab     ...=mN.?t+{=...?
    af54:	3d48fb2f 3f7fb10f 3d16c32c 3f7fd398     /.H=...?,..=...?
    af64:	3cc90ab0 3f7fec43 3c490e90 3f7ffb11     ...<C..?..I<...?
    af74:	00000000 3f800000 bc490e90 3f7ffb11     .......?..I....?
    af84:	bcc90ab0 3f7fec43 bd16c32c 3f7fd398     ....C..?,......?
    af94:	bd48fb2f 3f7fb10f bd7b2b74 3f7f84ab     /.H....?t+{....?
    afa4:	bd96a905 3f7f4e6d bdafb680 3f7f0e58     ....mN.?....X..?
    afb4:	bdc8bd36 3f7ec46d bde1bc2e 3f7e70b0     6...m.~?.....p~?
    afc4:	bdfab273 3f7e1324 be09cf86 3f7dabcc     s...$.~?......}?
    afd4:	be164083 3f7d3aac be22abb6 3f7cbfc9     .@...:}?.."...|?
    afe4:	be2f10a2 3f7c3b28 be3b6ecf 3f7baccd     ../.(;|?.n;...{?
    aff4:	be47c5c2 3f7b14be be541501 3f7a7302     ..G...{?..T..sz?
    b004:	be605c13 3f79c79d be6c9a7f 3f791298     .\`...y?..l...y?
    b014:	be78cfcc 3f7853f8 be827dc0 3f778bc5     ..x..Sx?.}....w?
    b024:	be888e93 3f76ba07 be8e9a22 3f75dec6     ......v?".....u?
    b034:	be94a031 3f74fa0b be9aa086 3f740bdd     1.....t?......t?
    b044:	bea09ae5 3f731447 bea68f12 3f721352     ....G.s?....R.r?
    b054:	beac7cd4 3f710908 beb263ef 3f6ff573     .|....q?.c..s.o?
    b064:	beb8442a 3f6ed89e bebe1d4a 3f6db293     *D....n?J.....m?
    b074:	bec3ef15 3f6c835e bec9b953 3f6b4b0c     ....^.l?S....Kk?
    b084:	becf7bca 3f6a09a7 bed53641 3f68bf3c     .{....j?A6..<.h?
    b094:	bedae880 3f676bd8 bee0924f 3f660f88     .....kg?O.....f?
    b0a4:	bee63375 3f64aa59 beebcbbb 3f633c5a     u3..Y.d?....Z<c?
    b0b4:	bef15aea 3f61c598 bef6e0cb 3f604621     .Z....a?....!F`?
    b0c4:	befc5d27 3f5ebe05 bf00e7e4 3f5d2d53     ']....^?....S-]?
    b0d4:	bf039c3d 3f5b941a bf064b82 3f59f26a     =.....[?.K..j.Y?
    b0e4:	bf08f59b 3f584853 bf0b9a6b 3f5695e5     ....SHX?k.....V?
    b0f4:	bf0e39da 3f54db31 bf10d3cd 3f531849     .9..1.T?....I.S?
    b104:	bf13682a 3f514d3d bf15f6d9 3f4f7a1f     *h..=MQ?.....zO?
    b114:	bf187fc0 3f4d9f02 bf1b02c6 3f4bbbf8     ......M?......K?
    b124:	bf1d7fd1 3f49d112 bf1ff6cb 3f47de65     ......I?....e.G?
    b134:	bf226799 3f45e403 bf24d225 3f43e200     .g"...E?%.$...C?
    b144:	bf273656 3f41d870 bf299415 3f3fc767     V6'.p.A?..).g.??
    b154:	bf2beb4a 3f3daef9 bf2e3bde 3f3b8f3b     J.+...=?.;..;.;?
    b164:	bf3085bb 3f396842 bf32c8c9 3f373a23     ..0.Bh9?..2.#:7?
    b174:	bf3504f3 3f3504f3 bf373a23 3f32c8c9     ..5...5?#:7...2?
    b184:	bf396842 3f3085bb bf3b8f3b 3f2e3bde     Bh9...0?;.;..;.?
    b194:	bf3daef9 3f2beb4a bf3fc767 3f299415     ..=.J.+?g.?...)?
    b1a4:	bf41d870 3f273656 bf43e200 3f24d225     p.A.V6'?..C.%.$?
    b1b4:	bf45e403 3f226799 bf47de65 3f1ff6cb     ..E..g"?e.G....?
    b1c4:	bf49d112 3f1d7fd1 bf4bbbf8 3f1b02c6     ..I....?..K....?
    b1d4:	bf4d9f02 3f187fc0 bf4f7a1f 3f15f6d9     ..M....?.zO....?
    b1e4:	bf514d3d 3f13682a bf531849 3f10d3cd     =MQ.*h.?I.S....?
    b1f4:	bf54db31 3f0e39da bf5695e5 3f0b9a6b     1.T..9.?..V.k..?
    b204:	bf584853 3f08f59b bf59f26a 3f064b82     SHX....?j.Y..K.?
    b214:	bf5b941a 3f039c3d bf5d2d53 3f00e7e4     ..[.=..?S-]....?
    b224:	bf5ebe05 3efc5d27 bf604621 3ef6e0cb     ..^.'].>!F`....>
    b234:	bf61c598 3ef15aea bf633c5a 3eebcbbb     ..a..Z.>Z<c....>
    b244:	bf64aa59 3ee63375 bf660f88 3ee0924f     Y.d.u3.>..f.O..>
    b254:	bf676bd8 3edae880 bf68bf3c 3ed53641     .kg....><.h.A6.>
    b264:	bf6a09a7 3ecf7bca bf6b4b0c 3ec9b953     ..j..{.>.Kk.S..>
    b274:	bf6c835e 3ec3ef15 bf6db293 3ebe1d4a     ^.l....>..m.J..>
    b284:	bf6ed89e 3eb8442a bf6ff573 3eb263ef     ..n.*D.>s.o..c.>
    b294:	bf710908 3eac7cd4 bf721352 3ea68f12     ..q..|.>R.r....>
    b2a4:	bf731447 3ea09ae5 bf740bdd 3e9aa086     G.s....>..t....>
    b2b4:	bf74fa0b 3e94a031 bf75dec6 3e8e9a22     ..t.1..>..u."..>
    b2c4:	bf76ba07 3e888e93 bf778bc5 3e827dc0     ..v....>..w..}.>
    b2d4:	bf7853f8 3e78cfcc bf791298 3e6c9a7f     .Sx...x>..y...l>
    b2e4:	bf79c79d 3e605c13 bf7a7302 3e541501     ..y..\`>.sz...T>
    b2f4:	bf7b14be 3e47c5c2 bf7baccd 3e3b6ecf     ..{...G>..{..n;>
    b304:	bf7c3b28 3e2f10a2 bf7cbfc9 3e22abb6     (;|.../>..|...">
    b314:	bf7d3aac 3e164083 bf7dabcc 3e09cf86     .:}..@.>..}....>
    b324:	bf7e1324 3dfab273 bf7e70b0 3de1bc2e     $.~.s..=.p~....=
    b334:	bf7ec46d 3dc8bd36 bf7f0e58 3dafb680     m.~.6..=X......=
    b344:	bf7f4e6d 3d96a905 bf7f84ab 3d7b2b74     mN.....=....t+{=
    b354:	bf7fb10f 3d48fb2f bf7fd398 3d16c32c     ..../.H=....,..=
    b364:	bf7fec43 3cc90ab0 bf7ffb11 3c490e90     C......<......I<
    b374:	bf800000 00000000 bf7ffb11 bc490e90     ..............I.
    b384:	bf7fec43 bcc90ab0 bf7fd398 bd16c32c     C...........,...
    b394:	bf7fb10f bd48fb2f bf7f84ab bd7b2b74     ..../.H.....t+{.
    b3a4:	bf7f4e6d bd96a905 bf7f0e58 bdafb680     mN......X.......
    b3b4:	bf7ec46d bdc8bd36 bf7e70b0 bde1bc2e     m.~.6....p~.....
    b3c4:	bf7e1324 bdfab273 bf7dabcc be09cf86     $.~.s.....}.....
    b3d4:	bf7d3aac be164083 bf7cbfc9 be22abb6     .:}..@....|...".
    b3e4:	bf7c3b28 be2f10a2 bf7baccd be3b6ecf     (;|.../...{..n;.
    b3f4:	bf7b14be be47c5c2 bf7a7302 be541501     ..{...G..sz...T.
    b404:	bf79c79d be605c13 bf791298 be6c9a7f     ..y..\`...y...l.
    b414:	bf7853f8 be78cfcc bf778bc5 be827dc0     .Sx...x...w..}..
    b424:	bf76ba07 be888e93 bf75dec6 be8e9a22     ..v.......u."...
    b434:	bf74fa0b be94a031 bf740bdd be9aa086     ..t.1.....t.....
    b444:	bf731447 bea09ae5 bf721352 bea68f12     G.s.....R.r.....
    b454:	bf710908 beac7cd4 bf6ff573 beb263ef     ..q..|..s.o..c..
    b464:	bf6ed89e beb8442a bf6db293 bebe1d4a     ..n.*D....m.J...
    b474:	bf6c835e bec3ef15 bf6b4b0c bec9b953     ^.l......Kk.S...
    b484:	bf6a09a7 becf7bca bf68bf3c bed53641     ..j..{..<.h.A6..
    b494:	bf676bd8 bedae880 bf660f88 bee0924f     .kg.......f.O...
    b4a4:	bf64aa59 bee63375 bf633c5a beebcbbb     Y.d.u3..Z<c.....
    b4b4:	bf61c598 bef15aea bf604621 bef6e0cb     ..a..Z..!F`.....
    b4c4:	bf5ebe05 befc5d27 bf5d2d53 bf00e7e4     ..^.']..S-].....
    b4d4:	bf5b941a bf039c3d bf59f26a bf064b82     ..[.=...j.Y..K..
    b4e4:	bf584853 bf08f59b bf5695e5 bf0b9a6b     SHX.......V.k...
    b4f4:	bf54db31 bf0e39da bf531849 bf10d3cd     1.T..9..I.S.....
    b504:	bf514d3d bf13682a bf4f7a1f bf15f6d9     =MQ.*h...zO.....
    b514:	bf4d9f02 bf187fc0 bf4bbbf8 bf1b02c6     ..M.......K.....
    b524:	bf49d112 bf1d7fd1 bf47de65 bf1ff6cb     ..I.....e.G.....
    b534:	bf45e403 bf226799 bf43e200 bf24d225     ..E..g"...C.%.$.
    b544:	bf41d870 bf273656 bf3fc767 bf299415     p.A.V6'.g.?...).
    b554:	bf3daef9 bf2beb4a bf3b8f3b bf2e3bde     ..=.J.+.;.;..;..
    b564:	bf396842 bf3085bb bf373a23 bf32c8c9     Bh9...0.#:7...2.
    b574:	bf3504f3 bf3504f3 bf32c8c9 bf373a23     ..5...5...2.#:7.
    b584:	bf3085bb bf396842 bf2e3bde bf3b8f3b     ..0.Bh9..;..;.;.
    b594:	bf2beb4a bf3daef9 bf299415 bf3fc767     J.+...=...).g.?.
    b5a4:	bf273656 bf41d870 bf24d225 bf43e200     V6'.p.A.%.$...C.
    b5b4:	bf226799 bf45e403 bf1ff6cb bf47de65     .g"...E.....e.G.
    b5c4:	bf1d7fd1 bf49d112 bf1b02c6 bf4bbbf8     ......I.......K.
    b5d4:	bf187fc0 bf4d9f02 bf15f6d9 bf4f7a1f     ......M......zO.
    b5e4:	bf13682a bf514d3d bf10d3cd bf531849     *h..=MQ.....I.S.
    b5f4:	bf0e39da bf54db31 bf0b9a6b bf5695e5     .9..1.T.k.....V.
    b604:	bf08f59b bf584853 bf064b82 bf59f26a     ....SHX..K..j.Y.
    b614:	bf039c3d bf5b941a bf00e7e4 bf5d2d53     =.....[.....S-].
    b624:	befc5d27 bf5ebe05 bef6e0cb bf604621     ']....^.....!F`.
    b634:	bef15aea bf61c598 beebcbbb bf633c5a     .Z....a.....Z<c.
    b644:	bee63375 bf64aa59 bee0924f bf660f88     u3..Y.d.O.....f.
    b654:	bedae880 bf676bd8 bed53641 bf68bf3c     .....kg.A6..<.h.
    b664:	becf7bca bf6a09a7 bec9b953 bf6b4b0c     .{....j.S....Kk.
    b674:	bec3ef15 bf6c835e bebe1d4a bf6db293     ....^.l.J.....m.
    b684:	beb8442a bf6ed89e beb263ef bf6ff573     *D....n..c..s.o.
    b694:	beac7cd4 bf710908 bea68f12 bf721352     .|....q.....R.r.
    b6a4:	bea09ae5 bf731447 be9aa086 bf740bdd     ....G.s.......t.
    b6b4:	be94a031 bf74fa0b be8e9a22 bf75dec6     1.....t.".....u.
    b6c4:	be888e93 bf76ba07 be827dc0 bf778bc5     ......v..}....w.
    b6d4:	be78cfcc bf7853f8 be6c9a7f bf791298     ..x..Sx...l...y.
    b6e4:	be605c13 bf79c79d be541501 bf7a7302     .\`...y...T..sz.
    b6f4:	be47c5c2 bf7b14be be3b6ecf bf7baccd     ..G...{..n;...{.
    b704:	be2f10a2 bf7c3b28 be22abb6 bf7cbfc9     ../.(;|..."...|.
    b714:	be164083 bf7d3aac be09cf86 bf7dabcc     .@...:}.......}.
    b724:	bdfab273 bf7e1324 bde1bc2e bf7e70b0     s...$.~......p~.
    b734:	bdc8bd36 bf7ec46d bdafb680 bf7f0e58     6...m.~.....X...
    b744:	bd96a905 bf7f4e6d bd7b2b74 bf7f84ab     ....mN..t+{.....
    b754:	bd48fb2f bf7fb10f bd16c32c bf7fd398     /.H.....,.......
    b764:	bcc90ab0 bf7fec43 bc490e90 bf7ffb11     ....C.....I.....
    b774:	80000000 bf800000 3c490e90 bf7ffb11     ..........I<....
    b784:	3cc90ab0 bf7fec43 3d16c32c bf7fd398     ...<C...,..=....
    b794:	3d48fb2f bf7fb10f 3d7b2b74 bf7f84ab     /.H=....t+{=....
    b7a4:	3d96a905 bf7f4e6d 3dafb680 bf7f0e58     ...=mN.....=X...
    b7b4:	3dc8bd36 bf7ec46d 3de1bc2e bf7e70b0     6..=m.~....=.p~.
    b7c4:	3dfab273 bf7e1324 3e09cf86 bf7dabcc     s..=$.~....>..}.
    b7d4:	3e164083 bf7d3aac 3e22abb6 bf7cbfc9     .@.>.:}...">..|.
    b7e4:	3e2f10a2 bf7c3b28 3e3b6ecf bf7baccd     ../>(;|..n;>..{.
    b7f4:	3e47c5c2 bf7b14be 3e541501 bf7a7302     ..G>..{...T>.sz.
    b804:	3e605c13 bf79c79d 3e6c9a7f bf791298     .\`>..y...l>..y.
    b814:	3e78cfcc bf7853f8 3e827dc0 bf778bc5     ..x>.Sx..}.>..w.
    b824:	3e888e93 bf76ba07 3e8e9a22 bf75dec6     ...>..v."..>..u.
    b834:	3e94a031 bf74fa0b 3e9aa086 bf740bdd     1..>..t....>..t.
    b844:	3ea09ae5 bf731447 3ea68f12 bf721352     ...>G.s....>R.r.
    b854:	3eac7cd4 bf710908 3eb263ef bf6ff573     .|.>..q..c.>s.o.
    b864:	3eb8442a bf6ed89e 3ebe1d4a bf6db293     *D.>..n.J..>..m.
    b874:	3ec3ef15 bf6c835e 3ec9b953 bf6b4b0c     ...>^.l.S..>.Kk.
    b884:	3ecf7bca bf6a09a7 3ed53641 bf68bf3c     .{.>..j.A6.><.h.
    b894:	3edae880 bf676bd8 3ee0924f bf660f88     ...>.kg.O..>..f.
    b8a4:	3ee63375 bf64aa59 3eebcbbb bf633c5a     u3.>Y.d....>Z<c.
    b8b4:	3ef15aea bf61c598 3ef6e0cb bf604621     .Z.>..a....>!F`.
    b8c4:	3efc5d27 bf5ebe05 3f00e7e4 bf5d2d53     '].>..^....?S-].
    b8d4:	3f039c3d bf5b941a 3f064b82 bf59f26a     =..?..[..K.?j.Y.
    b8e4:	3f08f59b bf584853 3f0b9a6b bf5695e5     ...?SHX.k..?..V.
    b8f4:	3f0e39da bf54db31 3f10d3cd bf531849     .9.?1.T....?I.S.
    b904:	3f13682a bf514d3d 3f15f6d9 bf4f7a1f     *h.?=MQ....?.zO.
    b914:	3f187fc0 bf4d9f02 3f1b02c6 bf4bbbf8     ...?..M....?..K.
    b924:	3f1d7fd1 bf49d112 3f1ff6cb bf47de65     ...?..I....?e.G.
    b934:	3f226799 bf45e403 3f24d225 bf43e200     .g"?..E.%.$?..C.
    b944:	3f273656 bf41d870 3f299415 bf3fc767     V6'?p.A...)?g.?.
    b954:	3f2beb4a bf3daef9 3f2e3bde bf3b8f3b     J.+?..=..;.?;.;.
    b964:	3f3085bb bf396842 3f32c8c9 bf373a23     ..0?Bh9...2?#:7.
    b974:	3f3504f3 bf3504f3 3f373a23 bf32c8c9     ..5?..5.#:7?..2.
    b984:	3f396842 bf3085bb 3f3b8f3b bf2e3bde     Bh9?..0.;.;?.;..
    b994:	3f3daef9 bf2beb4a 3f3fc767 bf299415     ..=?J.+.g.??..).
    b9a4:	3f41d870 bf273656 3f43e200 bf24d225     p.A?V6'...C?%.$.
    b9b4:	3f45e403 bf226799 3f47de65 bf1ff6cb     ..E?.g".e.G?....
    b9c4:	3f49d112 bf1d7fd1 3f4bbbf8 bf1b02c6     ..I?......K?....
    b9d4:	3f4d9f02 bf187fc0 3f4f7a1f bf15f6d9     ..M?.....zO?....
    b9e4:	3f514d3d bf13682a 3f531849 bf10d3cd     =MQ?*h..I.S?....
    b9f4:	3f54db31 bf0e39da 3f5695e5 bf0b9a6b     1.T?.9....V?k...
    ba04:	3f584853 bf08f59b 3f59f26a bf064b82     SHX?....j.Y?.K..
    ba14:	3f5b941a bf039c3d 3f5d2d53 bf00e7e4     ..[?=...S-]?....
    ba24:	3f5ebe05 befc5d27 3f604621 bef6e0cb     ..^?']..!F`?....
    ba34:	3f61c598 bef15aea 3f633c5a beebcbbb     ..a?.Z..Z<c?....
    ba44:	3f64aa59 bee63375 3f660f88 bee0924f     Y.d?u3....f?O...
    ba54:	3f676bd8 bedae880 3f68bf3c bed53641     .kg?....<.h?A6..
    ba64:	3f6a09a7 becf7bca 3f6b4b0c bec9b953     ..j?.{...Kk?S...
    ba74:	3f6c835e bec3ef15 3f6db293 bebe1d4a     ^.l?......m?J...
    ba84:	3f6ed89e beb8442a 3f6ff573 beb263ef     ..n?*D..s.o?.c..
    ba94:	3f710908 beac7cd4 3f721352 bea68f12     ..q?.|..R.r?....
    baa4:	3f731447 bea09ae5 3f740bdd be9aa086     G.s?......t?....
    bab4:	3f74fa0b be94a031 3f75dec6 be8e9a22     ..t?1.....u?"...
    bac4:	3f76ba07 be888e93 3f778bc5 be827dc0     ..v?......w?.}..
    bad4:	3f7853f8 be78cfcc 3f791298 be6c9a7f     .Sx?..x...y?..l.
    bae4:	3f79c79d be605c13 3f7a7302 be541501     ..y?.\`..sz?..T.
    baf4:	3f7b14be be47c5c2 3f7baccd be3b6ecf     ..{?..G...{?.n;.
    bb04:	3f7c3b28 be2f10a2 3f7cbfc9 be22abb6     (;|?../...|?..".
    bb14:	3f7d3aac be164083 3f7dabcc be09cf86     .:}?.@....}?....
    bb24:	3f7e1324 bdfab273 3f7e70b0 bde1bc2e     $.~?s....p~?....
    bb34:	3f7ec46d bdc8bd36 3f7f0e58 bdafb680     m.~?6...X..?....
    bb44:	3f7f4e6d bd96a905 3f7f84ab bd7b2b74     mN.?.......?t+{.
    bb54:	3f7fb10f bd48fb2f 3f7fd398 bd16c32c     ...?/.H....?,...
    bb64:	3f7fec43 bcc90ab0 3f7ffb11 bc490e90     C..?.......?..I.

0000bb74 <twiddleCoef_1024>:
    bb74:	3f800000 00000000 3f7ffec4 3bc90f89     ...?.......?...;
    bb84:	3f7ffb11 3c490e90 3f7ff4e6 3c96c9b6     ...?..I<...?...<
    bb94:	3f7fec43 3cc90ab0 3f7fe129 3cfb49b9     C..?...<)..?.I.<
    bba4:	3f7fd398 3d16c32c 3f7fc38f 3d2fe007     ...?,..=...?../=
    bbb4:	3f7fb10f 3d48fb2f 3f7f9c18 3d621468     ...?/.H=...?h.b=
    bbc4:	3f7f84ab 3d7b2b74 3f7f6ac7 3d8a200a     ...?t+{=.j.?. .=
    bbd4:	3f7f4e6d 3d96a905 3f7f2f9d 3da3308c     mN.?...=./.?.0.=
    bbe4:	3f7f0e58 3dafb680 3f7eea9d 3dbc3ac3     X..?...=..~?.:.=
    bbf4:	3f7ec46d 3dc8bd36 3f7e9bc9 3dd53db9     m.~?6..=..~?.=.=
    bc04:	3f7e70b0 3de1bc2e 3f7e4323 3dee3876     .p~?...=#C~?v8.=
    bc14:	3f7e1324 3dfab273 3f7de0b1 3e039502     $.~?s..=..}?...>
    bc24:	3f7dabcc 3e09cf86 3f7d7474 3e1008b7     ..}?...>tt}?...>
    bc34:	3f7d3aac 3e164083 3f7cfe73 3e1c76de     .:}?.@.>s.|?.v.>
    bc44:	3f7cbfc9 3e22abb6 3f7c7eb0 3e28defc     ..|?..">.~|?..(>
    bc54:	3f7c3b28 3e2f10a2 3f7bf531 3e354098     (;|?../>1.{?.@5>
    bc64:	3f7baccd 3e3b6ecf 3f7b61fc 3e419b37     ..{?.n;>.a{?7.A>
    bc74:	3f7b14be 3e47c5c2 3f7ac516 3e4dee60     ..{?..G>..z?`.M>
    bc84:	3f7a7302 3e541501 3f7a1e84 3e5a3997     .sz?..T>..z?.9Z>
    bc94:	3f79c79d 3e605c13 3f796e4e 3e667c66     ..y?.\`>Nny?f|f>
    bca4:	3f791298 3e6c9a7f 3f78b47b 3e72b651     ..y?..l>{.x?Q.r>
    bcb4:	3f7853f8 3e78cfcc 3f77f110 3e7ee6e1     .Sx?..x>..w?..~>
    bcc4:	3f778bc5 3e827dc0 3f772417 3e8586ce     ..w?.}.>.$w?...>
    bcd4:	3f76ba07 3e888e93 3f764d97 3e8b9507     ..v?...>.Mv?...>
    bce4:	3f75dec6 3e8e9a22 3f756d97 3e919ddd     ..u?"..>.mu?...>
    bcf4:	3f74fa0b 3e94a031 3f748422 3e97a117     ..t?1..>".t?...>
    bd04:	3f740bdd 3e9aa086 3f73913f 3e9d9e78     ..t?...>?.s?x..>
    bd14:	3f731447 3ea09ae5 3f7294f8 3ea395c5     G.s?...>..r?...>
    bd24:	3f721352 3ea68f12 3f718f57 3ea986c4     R.r?...>W.q?...>
    bd34:	3f710908 3eac7cd4 3f708066 3eaf713a     ..q?.|.>f.p?:q.>
    bd44:	3f6ff573 3eb263ef 3f6f6830 3eb554ec     s.o?.c.>0ho?.T.>
    bd54:	3f6ed89e 3eb8442a 3f6e46be 3ebb31a0     ..n?*D.>.Fn?.1.>
    bd64:	3f6db293 3ebe1d4a 3f6d1c1d 3ec1071e     ..m?J..>..m?...>
    bd74:	3f6c835e 3ec3ef15 3f6be858 3ec6d529     ^.l?...>X.k?)..>
    bd84:	3f6b4b0c 3ec9b953 3f6aab7b 3ecc9b8b     .Kk?S..>{.j?...>
    bd94:	3f6a09a7 3ecf7bca 3f696591 3ed25a09     ..j?.{.>.ei?.Z.>
    bda4:	3f68bf3c 3ed53641 3f6816a8 3ed8106b     <.h?A6.>..h?k..>
    bdb4:	3f676bd8 3edae880 3f66becc 3eddbe79     .kg?...>..f?y..>
    bdc4:	3f660f88 3ee0924f 3f655e0b 3ee363fa     ..f?O..>.^e?.c.>
    bdd4:	3f64aa59 3ee63375 3f63f473 3ee900b7     Y.d?u3.>s.c?...>
    bde4:	3f633c5a 3eebcbbb 3f628210 3eee9479     Z<c?...>..b?y..>
    bdf4:	3f61c598 3ef15aea 3f6106f2 3ef41f07     ..a?.Z.>..a?...>
    be04:	3f604621 3ef6e0cb 3f5f8327 3ef9a02d     !F`?...>'._?-..>
    be14:	3f5ebe05 3efc5d27 3f5df6be 3eff17b2     ..^?'].>..]?...>
    be24:	3f5d2d53 3f00e7e4 3f5c61c7 3f0242b1     S-]?...?.a\?.B.?
    be34:	3f5b941a 3f039c3d 3f5ac450 3f04f484     ..[?=..?P.Z?...?
    be44:	3f59f26a 3f064b82 3f591e6a 3f07a136     j.Y?.K.?j.Y?6..?
    be54:	3f584853 3f08f59b 3f577026 3f0a48ad     SHX?...?&pW?.H.?
    be64:	3f5695e5 3f0b9a6b 3f55b993 3f0cead0     ..V?k..?..U?...?
    be74:	3f54db31 3f0e39da 3f53fac3 3f0f8784     1.T?.9.?..S?...?
    be84:	3f531849 3f10d3cd 3f5233c6 3f121eb0     I.S?...?.3R?...?
    be94:	3f514d3d 3f13682a 3f5064af 3f14b039     =MQ?*h.?.dP?9..?
    bea4:	3f4f7a1f 3f15f6d9 3f4e8d90 3f173c07     .zO?...?..N?.<.?
    beb4:	3f4d9f02 3f187fc0 3f4cae79 3f19c200     ..M?...?y.L?...?
    bec4:	3f4bbbf8 3f1b02c6 3f4ac77f 3f1c420c     ..K?...?..J?.B.?
    bed4:	3f49d112 3f1d7fd1 3f48d8b3 3f1ebc12     ..I?...?..H?...?
    bee4:	3f47de65 3f1ff6cb 3f46e22a 3f212ff9     e.G?...?*.F?./!?
    bef4:	3f45e403 3f226799 3f44e3f5 3f239da9     ..E?.g"?..D?..#?
    bf04:	3f43e200 3f24d225 3f42de29 3f26050a     ..C?%.$?).B?..&?
    bf14:	3f41d870 3f273656 3f40d0da 3f286605     p.A?V6'?..@?.f(?
    bf24:	3f3fc767 3f299415 3f3ebc1b 3f2ac082     g.??..)?..>?..*?
    bf34:	3f3daef9 3f2beb4a 3f3ca003 3f2d1469     ..=?J.+?..<?i.-?
    bf44:	3f3b8f3b 3f2e3bde 3f3a7ca4 3f2f61a5     ;.;?.;.?.|:?.a/?
    bf54:	3f396842 3f3085bb 3f385216 3f31a81d     Bh9?..0?.R8?..1?
    bf64:	3f373a23 3f32c8c9 3f36206c 3f33e7bc     #:7?..2?l 6?..3?
    bf74:	3f3504f3 3f3504f3 3f33e7bc 3f36206c     ..5?..5?..3?l 6?
    bf84:	3f32c8c9 3f373a23 3f31a81d 3f385216     ..2?#:7?..1?.R8?
    bf94:	3f3085bb 3f396842 3f2f61a5 3f3a7ca4     ..0?Bh9?.a/?.|:?
    bfa4:	3f2e3bde 3f3b8f3b 3f2d1469 3f3ca003     .;.?;.;?i.-?..<?
    bfb4:	3f2beb4a 3f3daef9 3f2ac082 3f3ebc1b     J.+?..=?..*?..>?
    bfc4:	3f299415 3f3fc767 3f286605 3f40d0da     ..)?g.??.f(?..@?
    bfd4:	3f273656 3f41d870 3f26050a 3f42de29     V6'?p.A?..&?).B?
    bfe4:	3f24d225 3f43e200 3f239da9 3f44e3f5     %.$?..C?..#?..D?
    bff4:	3f226799 3f45e403 3f212ff9 3f46e22a     .g"?..E?./!?*.F?
    c004:	3f1ff6cb 3f47de65 3f1ebc12 3f48d8b3     ...?e.G?...?..H?
    c014:	3f1d7fd1 3f49d112 3f1c420c 3f4ac77f     ...?..I?.B.?..J?
    c024:	3f1b02c6 3f4bbbf8 3f19c200 3f4cae79     ...?..K?...?y.L?
    c034:	3f187fc0 3f4d9f02 3f173c07 3f4e8d90     ...?..M?.<.?..N?
    c044:	3f15f6d9 3f4f7a1f 3f14b039 3f5064af     ...?.zO?9..?.dP?
    c054:	3f13682a 3f514d3d 3f121eb0 3f5233c6     *h.?=MQ?...?.3R?
    c064:	3f10d3cd 3f531849 3f0f8784 3f53fac3     ...?I.S?...?..S?
    c074:	3f0e39da 3f54db31 3f0cead0 3f55b993     .9.?1.T?...?..U?
    c084:	3f0b9a6b 3f5695e5 3f0a48ad 3f577026     k..?..V?.H.?&pW?
    c094:	3f08f59b 3f584853 3f07a136 3f591e6a     ...?SHX?6..?j.Y?
    c0a4:	3f064b82 3f59f26a 3f04f484 3f5ac450     .K.?j.Y?...?P.Z?
    c0b4:	3f039c3d 3f5b941a 3f0242b1 3f5c61c7     =..?..[?.B.?.a\?
    c0c4:	3f00e7e4 3f5d2d53 3eff17b2 3f5df6be     ...?S-]?...>..]?
    c0d4:	3efc5d27 3f5ebe05 3ef9a02d 3f5f8327     '].>..^?-..>'._?
    c0e4:	3ef6e0cb 3f604621 3ef41f07 3f6106f2     ...>!F`?...>..a?
    c0f4:	3ef15aea 3f61c598 3eee9479 3f628210     .Z.>..a?y..>..b?
    c104:	3eebcbbb 3f633c5a 3ee900b7 3f63f473     ...>Z<c?...>s.c?
    c114:	3ee63375 3f64aa59 3ee363fa 3f655e0b     u3.>Y.d?.c.>.^e?
    c124:	3ee0924f 3f660f88 3eddbe79 3f66becc     O..>..f?y..>..f?
    c134:	3edae880 3f676bd8 3ed8106b 3f6816a8     ...>.kg?k..>..h?
    c144:	3ed53641 3f68bf3c 3ed25a09 3f696591     A6.><.h?.Z.>.ei?
    c154:	3ecf7bca 3f6a09a7 3ecc9b8b 3f6aab7b     .{.>..j?...>{.j?
    c164:	3ec9b953 3f6b4b0c 3ec6d529 3f6be858     S..>.Kk?)..>X.k?
    c174:	3ec3ef15 3f6c835e 3ec1071e 3f6d1c1d     ...>^.l?...>..m?
    c184:	3ebe1d4a 3f6db293 3ebb31a0 3f6e46be     J..>..m?.1.>.Fn?
    c194:	3eb8442a 3f6ed89e 3eb554ec 3f6f6830     *D.>..n?.T.>0ho?
    c1a4:	3eb263ef 3f6ff573 3eaf713a 3f708066     .c.>s.o?:q.>f.p?
    c1b4:	3eac7cd4 3f710908 3ea986c4 3f718f57     .|.>..q?...>W.q?
    c1c4:	3ea68f12 3f721352 3ea395c5 3f7294f8     ...>R.r?...>..r?
    c1d4:	3ea09ae5 3f731447 3e9d9e78 3f73913f     ...>G.s?x..>?.s?
    c1e4:	3e9aa086 3f740bdd 3e97a117 3f748422     ...>..t?...>".t?
    c1f4:	3e94a031 3f74fa0b 3e919ddd 3f756d97     1..>..t?...>.mu?
    c204:	3e8e9a22 3f75dec6 3e8b9507 3f764d97     "..>..u?...>.Mv?
    c214:	3e888e93 3f76ba07 3e8586ce 3f772417     ...>..v?...>.$w?
    c224:	3e827dc0 3f778bc5 3e7ee6e1 3f77f110     .}.>..w?..~>..w?
    c234:	3e78cfcc 3f7853f8 3e72b651 3f78b47b     ..x>.Sx?Q.r>{.x?
    c244:	3e6c9a7f 3f791298 3e667c66 3f796e4e     ..l>..y?f|f>Nny?
    c254:	3e605c13 3f79c79d 3e5a3997 3f7a1e84     .\`>..y?.9Z>..z?
    c264:	3e541501 3f7a7302 3e4dee60 3f7ac516     ..T>.sz?`.M>..z?
    c274:	3e47c5c2 3f7b14be 3e419b37 3f7b61fc     ..G>..{?7.A>.a{?
    c284:	3e3b6ecf 3f7baccd 3e354098 3f7bf531     .n;>..{?.@5>1.{?
    c294:	3e2f10a2 3f7c3b28 3e28defc 3f7c7eb0     ../>(;|?..(>.~|?
    c2a4:	3e22abb6 3f7cbfc9 3e1c76de 3f7cfe73     ..">..|?.v.>s.|?
    c2b4:	3e164083 3f7d3aac 3e1008b7 3f7d7474     .@.>.:}?...>tt}?
    c2c4:	3e09cf86 3f7dabcc 3e039502 3f7de0b1     ...>..}?...>..}?
    c2d4:	3dfab273 3f7e1324 3dee3876 3f7e4323     s..=$.~?v8.=#C~?
    c2e4:	3de1bc2e 3f7e70b0 3dd53db9 3f7e9bc9     ...=.p~?.=.=..~?
    c2f4:	3dc8bd36 3f7ec46d 3dbc3ac3 3f7eea9d     6..=m.~?.:.=..~?
    c304:	3dafb680 3f7f0e58 3da3308c 3f7f2f9d     ...=X..?.0.=./.?
    c314:	3d96a905 3f7f4e6d 3d8a200a 3f7f6ac7     ...=mN.?. .=.j.?
    c324:	3d7b2b74 3f7f84ab 3d621468 3f7f9c18     t+{=...?h.b=...?
    c334:	3d48fb2f 3f7fb10f 3d2fe007 3f7fc38f     /.H=...?../=...?
    c344:	3d16c32c 3f7fd398 3cfb49b9 3f7fe129     ,..=...?.I.<)..?
    c354:	3cc90ab0 3f7fec43 3c96c9b6 3f7ff4e6     ...<C..?...<...?
    c364:	3c490e90 3f7ffb11 3bc90f89 3f7ffec4     ..I<...?...;...?
    c374:	00000000 3f800000 bbc90f89 3f7ffec4     .......?.......?
    c384:	bc490e90 3f7ffb11 bc96c9b6 3f7ff4e6     ..I....?.......?
    c394:	bcc90ab0 3f7fec43 bcfb49b9 3f7fe129     ....C..?.I..)..?
    c3a4:	bd16c32c 3f7fd398 bd2fe007 3f7fc38f     ,......?../....?
    c3b4:	bd48fb2f 3f7fb10f bd621468 3f7f9c18     /.H....?h.b....?
    c3c4:	bd7b2b74 3f7f84ab bd8a200a 3f7f6ac7     t+{....?. ...j.?
    c3d4:	bd96a905 3f7f4e6d bda3308c 3f7f2f9d     ....mN.?.0.../.?
    c3e4:	bdafb680 3f7f0e58 bdbc3ac3 3f7eea9d     ....X..?.:....~?
    c3f4:	bdc8bd36 3f7ec46d bdd53db9 3f7e9bc9     6...m.~?.=....~?
    c404:	bde1bc2e 3f7e70b0 bdee3876 3f7e4323     .....p~?v8..#C~?
    c414:	bdfab273 3f7e1324 be039502 3f7de0b1     s...$.~?......}?
    c424:	be09cf86 3f7dabcc be1008b7 3f7d7474     ......}?....tt}?
    c434:	be164083 3f7d3aac be1c76de 3f7cfe73     .@...:}?.v..s.|?
    c444:	be22abb6 3f7cbfc9 be28defc 3f7c7eb0     .."...|?..(..~|?
    c454:	be2f10a2 3f7c3b28 be354098 3f7bf531     ../.(;|?.@5.1.{?
    c464:	be3b6ecf 3f7baccd be419b37 3f7b61fc     .n;...{?7.A..a{?
    c474:	be47c5c2 3f7b14be be4dee60 3f7ac516     ..G...{?`.M...z?
    c484:	be541501 3f7a7302 be5a3997 3f7a1e84     ..T..sz?.9Z...z?
    c494:	be605c13 3f79c79d be667c66 3f796e4e     .\`...y?f|f.Nny?
    c4a4:	be6c9a7f 3f791298 be72b651 3f78b47b     ..l...y?Q.r.{.x?
    c4b4:	be78cfcc 3f7853f8 be7ee6e1 3f77f110     ..x..Sx?..~...w?
    c4c4:	be827dc0 3f778bc5 be8586ce 3f772417     .}....w?.....$w?
    c4d4:	be888e93 3f76ba07 be8b9507 3f764d97     ......v?.....Mv?
    c4e4:	be8e9a22 3f75dec6 be919ddd 3f756d97     ".....u?.....mu?
    c4f4:	be94a031 3f74fa0b be97a117 3f748422     1.....t?....".t?
    c504:	be9aa086 3f740bdd be9d9e78 3f73913f     ......t?x...?.s?
    c514:	bea09ae5 3f731447 bea395c5 3f7294f8     ....G.s?......r?
    c524:	bea68f12 3f721352 bea986c4 3f718f57     ....R.r?....W.q?
    c534:	beac7cd4 3f710908 beaf713a 3f708066     .|....q?:q..f.p?
    c544:	beb263ef 3f6ff573 beb554ec 3f6f6830     .c..s.o?.T..0ho?
    c554:	beb8442a 3f6ed89e bebb31a0 3f6e46be     *D....n?.1...Fn?
    c564:	bebe1d4a 3f6db293 bec1071e 3f6d1c1d     J.....m?......m?
    c574:	bec3ef15 3f6c835e bec6d529 3f6be858     ....^.l?)...X.k?
    c584:	bec9b953 3f6b4b0c becc9b8b 3f6aab7b     S....Kk?....{.j?
    c594:	becf7bca 3f6a09a7 bed25a09 3f696591     .{....j?.Z...ei?
    c5a4:	bed53641 3f68bf3c bed8106b 3f6816a8     A6..<.h?k.....h?
    c5b4:	bedae880 3f676bd8 beddbe79 3f66becc     .....kg?y.....f?
    c5c4:	bee0924f 3f660f88 bee363fa 3f655e0b     O.....f?.c...^e?
    c5d4:	bee63375 3f64aa59 bee900b7 3f63f473     u3..Y.d?....s.c?
    c5e4:	beebcbbb 3f633c5a beee9479 3f628210     ....Z<c?y.....b?
    c5f4:	bef15aea 3f61c598 bef41f07 3f6106f2     .Z....a?......a?
    c604:	bef6e0cb 3f604621 bef9a02d 3f5f8327     ....!F`?-...'._?
    c614:	befc5d27 3f5ebe05 beff17b2 3f5df6be     ']....^?......]?
    c624:	bf00e7e4 3f5d2d53 bf0242b1 3f5c61c7     ....S-]?.B...a\?
    c634:	bf039c3d 3f5b941a bf04f484 3f5ac450     =.....[?....P.Z?
    c644:	bf064b82 3f59f26a bf07a136 3f591e6a     .K..j.Y?6...j.Y?
    c654:	bf08f59b 3f584853 bf0a48ad 3f577026     ....SHX?.H..&pW?
    c664:	bf0b9a6b 3f5695e5 bf0cead0 3f55b993     k.....V?......U?
    c674:	bf0e39da 3f54db31 bf0f8784 3f53fac3     .9..1.T?......S?
    c684:	bf10d3cd 3f531849 bf121eb0 3f5233c6     ....I.S?.....3R?
    c694:	bf13682a 3f514d3d bf14b039 3f5064af     *h..=MQ?9....dP?
    c6a4:	bf15f6d9 3f4f7a1f bf173c07 3f4e8d90     .....zO?.<....N?
    c6b4:	bf187fc0 3f4d9f02 bf19c200 3f4cae79     ......M?....y.L?
    c6c4:	bf1b02c6 3f4bbbf8 bf1c420c 3f4ac77f     ......K?.B....J?
    c6d4:	bf1d7fd1 3f49d112 bf1ebc12 3f48d8b3     ......I?......H?
    c6e4:	bf1ff6cb 3f47de65 bf212ff9 3f46e22a     ....e.G?./!.*.F?
    c6f4:	bf226799 3f45e403 bf239da9 3f44e3f5     .g"...E?..#...D?
    c704:	bf24d225 3f43e200 bf26050a 3f42de29     %.$...C?..&.).B?
    c714:	bf273656 3f41d870 bf286605 3f40d0da     V6'.p.A?.f(...@?
    c724:	bf299415 3f3fc767 bf2ac082 3f3ebc1b     ..).g.??..*...>?
    c734:	bf2beb4a 3f3daef9 bf2d1469 3f3ca003     J.+...=?i.-...<?
    c744:	bf2e3bde 3f3b8f3b bf2f61a5 3f3a7ca4     .;..;.;?.a/..|:?
    c754:	bf3085bb 3f396842 bf31a81d 3f385216     ..0.Bh9?..1..R8?
    c764:	bf32c8c9 3f373a23 bf33e7bc 3f36206c     ..2.#:7?..3.l 6?
    c774:	bf3504f3 3f3504f3 bf36206c 3f33e7bc     ..5...5?l 6...3?
    c784:	bf373a23 3f32c8c9 bf385216 3f31a81d     #:7...2?.R8...1?
    c794:	bf396842 3f3085bb bf3a7ca4 3f2f61a5     Bh9...0?.|:..a/?
    c7a4:	bf3b8f3b 3f2e3bde bf3ca003 3f2d1469     ;.;..;.?..<.i.-?
    c7b4:	bf3daef9 3f2beb4a bf3ebc1b 3f2ac082     ..=.J.+?..>...*?
    c7c4:	bf3fc767 3f299415 bf40d0da 3f286605     g.?...)?..@..f(?
    c7d4:	bf41d870 3f273656 bf42de29 3f26050a     p.A.V6'?).B...&?
    c7e4:	bf43e200 3f24d225 bf44e3f5 3f239da9     ..C.%.$?..D...#?
    c7f4:	bf45e403 3f226799 bf46e22a 3f212ff9     ..E..g"?*.F../!?
    c804:	bf47de65 3f1ff6cb bf48d8b3 3f1ebc12     e.G....?..H....?
    c814:	bf49d112 3f1d7fd1 bf4ac77f 3f1c420c     ..I....?..J..B.?
    c824:	bf4bbbf8 3f1b02c6 bf4cae79 3f19c200     ..K....?y.L....?
    c834:	bf4d9f02 3f187fc0 bf4e8d90 3f173c07     ..M....?..N..<.?
    c844:	bf4f7a1f 3f15f6d9 bf5064af 3f14b039     .zO....?.dP.9..?
    c854:	bf514d3d 3f13682a bf5233c6 3f121eb0     =MQ.*h.?.3R....?
    c864:	bf531849 3f10d3cd bf53fac3 3f0f8784     I.S....?..S....?
    c874:	bf54db31 3f0e39da bf55b993 3f0cead0     1.T..9.?..U....?
    c884:	bf5695e5 3f0b9a6b bf577026 3f0a48ad     ..V.k..?&pW..H.?
    c894:	bf584853 3f08f59b bf591e6a 3f07a136     SHX....?j.Y.6..?
    c8a4:	bf59f26a 3f064b82 bf5ac450 3f04f484     j.Y..K.?P.Z....?
    c8b4:	bf5b941a 3f039c3d bf5c61c7 3f0242b1     ..[.=..?.a\..B.?
    c8c4:	bf5d2d53 3f00e7e4 bf5df6be 3eff17b2     S-]....?..]....>
    c8d4:	bf5ebe05 3efc5d27 bf5f8327 3ef9a02d     ..^.'].>'._.-..>
    c8e4:	bf604621 3ef6e0cb bf6106f2 3ef41f07     !F`....>..a....>
    c8f4:	bf61c598 3ef15aea bf628210 3eee9479     ..a..Z.>..b.y..>
    c904:	bf633c5a 3eebcbbb bf63f473 3ee900b7     Z<c....>s.c....>
    c914:	bf64aa59 3ee63375 bf655e0b 3ee363fa     Y.d.u3.>.^e..c.>
    c924:	bf660f88 3ee0924f bf66becc 3eddbe79     ..f.O..>..f.y..>
    c934:	bf676bd8 3edae880 bf6816a8 3ed8106b     .kg....>..h.k..>
    c944:	bf68bf3c 3ed53641 bf696591 3ed25a09     <.h.A6.>.ei..Z.>
    c954:	bf6a09a7 3ecf7bca bf6aab7b 3ecc9b8b     ..j..{.>{.j....>
    c964:	bf6b4b0c 3ec9b953 bf6be858 3ec6d529     .Kk.S..>X.k.)..>
    c974:	bf6c835e 3ec3ef15 bf6d1c1d 3ec1071e     ^.l....>..m....>
    c984:	bf6db293 3ebe1d4a bf6e46be 3ebb31a0     ..m.J..>.Fn..1.>
    c994:	bf6ed89e 3eb8442a bf6f6830 3eb554ec     ..n.*D.>0ho..T.>
    c9a4:	bf6ff573 3eb263ef bf708066 3eaf713a     s.o..c.>f.p.:q.>
    c9b4:	bf710908 3eac7cd4 bf718f57 3ea986c4     ..q..|.>W.q....>
    c9c4:	bf721352 3ea68f12 bf7294f8 3ea395c5     R.r....>..r....>
    c9d4:	bf731447 3ea09ae5 bf73913f 3e9d9e78     G.s....>?.s.x..>
    c9e4:	bf740bdd 3e9aa086 bf748422 3e97a117     ..t....>".t....>
    c9f4:	bf74fa0b 3e94a031 bf756d97 3e919ddd     ..t.1..>.mu....>
    ca04:	bf75dec6 3e8e9a22 bf764d97 3e8b9507     ..u."..>.Mv....>
    ca14:	bf76ba07 3e888e93 bf772417 3e8586ce     ..v....>.$w....>
    ca24:	bf778bc5 3e827dc0 bf77f110 3e7ee6e1     ..w..}.>..w...~>
    ca34:	bf7853f8 3e78cfcc bf78b47b 3e72b651     .Sx...x>{.x.Q.r>
    ca44:	bf791298 3e6c9a7f bf796e4e 3e667c66     ..y...l>Nny.f|f>
    ca54:	bf79c79d 3e605c13 bf7a1e84 3e5a3997     ..y..\`>..z..9Z>
    ca64:	bf7a7302 3e541501 bf7ac516 3e4dee60     .sz...T>..z.`.M>
    ca74:	bf7b14be 3e47c5c2 bf7b61fc 3e419b37     ..{...G>.a{.7.A>
    ca84:	bf7baccd 3e3b6ecf bf7bf531 3e354098     ..{..n;>1.{..@5>
    ca94:	bf7c3b28 3e2f10a2 bf7c7eb0 3e28defc     (;|.../>.~|...(>
    caa4:	bf7cbfc9 3e22abb6 bf7cfe73 3e1c76de     ..|...">s.|..v.>
    cab4:	bf7d3aac 3e164083 bf7d7474 3e1008b7     .:}..@.>tt}....>
    cac4:	bf7dabcc 3e09cf86 bf7de0b1 3e039502     ..}....>..}....>
    cad4:	bf7e1324 3dfab273 bf7e4323 3dee3876     $.~.s..=#C~.v8.=
    cae4:	bf7e70b0 3de1bc2e bf7e9bc9 3dd53db9     .p~....=..~..=.=
    caf4:	bf7ec46d 3dc8bd36 bf7eea9d 3dbc3ac3     m.~.6..=..~..:.=
    cb04:	bf7f0e58 3dafb680 bf7f2f9d 3da3308c     X......=./...0.=
    cb14:	bf7f4e6d 3d96a905 bf7f6ac7 3d8a200a     mN.....=.j... .=
    cb24:	bf7f84ab 3d7b2b74 bf7f9c18 3d621468     ....t+{=....h.b=
    cb34:	bf7fb10f 3d48fb2f bf7fc38f 3d2fe007     ..../.H=....../=
    cb44:	bf7fd398 3d16c32c bf7fe129 3cfb49b9     ....,..=)....I.<
    cb54:	bf7fec43 3cc90ab0 bf7ff4e6 3c96c9b6     C......<.......<
    cb64:	bf7ffb11 3c490e90 bf7ffec4 3bc90f89     ......I<.......;
    cb74:	bf800000 00000000 bf7ffec4 bbc90f89     ................
    cb84:	bf7ffb11 bc490e90 bf7ff4e6 bc96c9b6     ......I.........
    cb94:	bf7fec43 bcc90ab0 bf7fe129 bcfb49b9     C.......)....I..
    cba4:	bf7fd398 bd16c32c bf7fc38f bd2fe007     ....,........./.
    cbb4:	bf7fb10f bd48fb2f bf7f9c18 bd621468     ..../.H.....h.b.
    cbc4:	bf7f84ab bd7b2b74 bf7f6ac7 bd8a200a     ....t+{..j... ..
    cbd4:	bf7f4e6d bd96a905 bf7f2f9d bda3308c     mN......./...0..
    cbe4:	bf7f0e58 bdafb680 bf7eea9d bdbc3ac3     X.........~..:..
    cbf4:	bf7ec46d bdc8bd36 bf7e9bc9 bdd53db9     m.~.6.....~..=..
    cc04:	bf7e70b0 bde1bc2e bf7e4323 bdee3876     .p~.....#C~.v8..
    cc14:	bf7e1324 bdfab273 bf7de0b1 be039502     $.~.s.....}.....
    cc24:	bf7dabcc be09cf86 bf7d7474 be1008b7     ..}.....tt}.....
    cc34:	bf7d3aac be164083 bf7cfe73 be1c76de     .:}..@..s.|..v..
    cc44:	bf7cbfc9 be22abb6 bf7c7eb0 be28defc     ..|..."..~|...(.
    cc54:	bf7c3b28 be2f10a2 bf7bf531 be354098     (;|.../.1.{..@5.
    cc64:	bf7baccd be3b6ecf bf7b61fc be419b37     ..{..n;..a{.7.A.
    cc74:	bf7b14be be47c5c2 bf7ac516 be4dee60     ..{...G...z.`.M.
    cc84:	bf7a7302 be541501 bf7a1e84 be5a3997     .sz...T...z..9Z.
    cc94:	bf79c79d be605c13 bf796e4e be667c66     ..y..\`.Nny.f|f.
    cca4:	bf791298 be6c9a7f bf78b47b be72b651     ..y...l.{.x.Q.r.
    ccb4:	bf7853f8 be78cfcc bf77f110 be7ee6e1     .Sx...x...w...~.
    ccc4:	bf778bc5 be827dc0 bf772417 be8586ce     ..w..}...$w.....
    ccd4:	bf76ba07 be888e93 bf764d97 be8b9507     ..v......Mv.....
    cce4:	bf75dec6 be8e9a22 bf756d97 be919ddd     ..u."....mu.....
    ccf4:	bf74fa0b be94a031 bf748422 be97a117     ..t.1...".t.....
    cd04:	bf740bdd be9aa086 bf73913f be9d9e78     ..t.....?.s.x...
    cd14:	bf731447 bea09ae5 bf7294f8 bea395c5     G.s.......r.....
    cd24:	bf721352 bea68f12 bf718f57 bea986c4     R.r.....W.q.....
    cd34:	bf710908 beac7cd4 bf708066 beaf713a     ..q..|..f.p.:q..
    cd44:	bf6ff573 beb263ef bf6f6830 beb554ec     s.o..c..0ho..T..
    cd54:	bf6ed89e beb8442a bf6e46be bebb31a0     ..n.*D...Fn..1..
    cd64:	bf6db293 bebe1d4a bf6d1c1d bec1071e     ..m.J.....m.....
    cd74:	bf6c835e bec3ef15 bf6be858 bec6d529     ^.l.....X.k.)...
    cd84:	bf6b4b0c bec9b953 bf6aab7b becc9b8b     .Kk.S...{.j.....
    cd94:	bf6a09a7 becf7bca bf696591 bed25a09     ..j..{...ei..Z..
    cda4:	bf68bf3c bed53641 bf6816a8 bed8106b     <.h.A6....h.k...
    cdb4:	bf676bd8 bedae880 bf66becc beddbe79     .kg.......f.y...
    cdc4:	bf660f88 bee0924f bf655e0b bee363fa     ..f.O....^e..c..
    cdd4:	bf64aa59 bee63375 bf63f473 bee900b7     Y.d.u3..s.c.....
    cde4:	bf633c5a beebcbbb bf628210 beee9479     Z<c.......b.y...
    cdf4:	bf61c598 bef15aea bf6106f2 bef41f07     ..a..Z....a.....
    ce04:	bf604621 bef6e0cb bf5f8327 bef9a02d     !F`.....'._.-...
    ce14:	bf5ebe05 befc5d27 bf5df6be beff17b2     ..^.']....].....
    ce24:	bf5d2d53 bf00e7e4 bf5c61c7 bf0242b1     S-]......a\..B..
    ce34:	bf5b941a bf039c3d bf5ac450 bf04f484     ..[.=...P.Z.....
    ce44:	bf59f26a bf064b82 bf591e6a bf07a136     j.Y..K..j.Y.6...
    ce54:	bf584853 bf08f59b bf577026 bf0a48ad     SHX.....&pW..H..
    ce64:	bf5695e5 bf0b9a6b bf55b993 bf0cead0     ..V.k.....U.....
    ce74:	bf54db31 bf0e39da bf53fac3 bf0f8784     1.T..9....S.....
    ce84:	bf531849 bf10d3cd bf5233c6 bf121eb0     I.S......3R.....
    ce94:	bf514d3d bf13682a bf5064af bf14b039     =MQ.*h...dP.9...
    cea4:	bf4f7a1f bf15f6d9 bf4e8d90 bf173c07     .zO.......N..<..
    ceb4:	bf4d9f02 bf187fc0 bf4cae79 bf19c200     ..M.....y.L.....
    cec4:	bf4bbbf8 bf1b02c6 bf4ac77f bf1c420c     ..K.......J..B..
    ced4:	bf49d112 bf1d7fd1 bf48d8b3 bf1ebc12     ..I.......H.....
    cee4:	bf47de65 bf1ff6cb bf46e22a bf212ff9     e.G.....*.F../!.
    cef4:	bf45e403 bf226799 bf44e3f5 bf239da9     ..E..g"...D...#.
    cf04:	bf43e200 bf24d225 bf42de29 bf26050a     ..C.%.$.).B...&.
    cf14:	bf41d870 bf273656 bf40d0da bf286605     p.A.V6'...@..f(.
    cf24:	bf3fc767 bf299415 bf3ebc1b bf2ac082     g.?...)...>...*.
    cf34:	bf3daef9 bf2beb4a bf3ca003 bf2d1469     ..=.J.+...<.i.-.
    cf44:	bf3b8f3b bf2e3bde bf3a7ca4 bf2f61a5     ;.;..;...|:..a/.
    cf54:	bf396842 bf3085bb bf385216 bf31a81d     Bh9...0..R8...1.
    cf64:	bf373a23 bf32c8c9 bf36206c bf33e7bc     #:7...2.l 6...3.
    cf74:	bf3504f3 bf3504f3 bf33e7bc bf36206c     ..5...5...3.l 6.
    cf84:	bf32c8c9 bf373a23 bf31a81d bf385216     ..2.#:7...1..R8.
    cf94:	bf3085bb bf396842 bf2f61a5 bf3a7ca4     ..0.Bh9..a/..|:.
    cfa4:	bf2e3bde bf3b8f3b bf2d1469 bf3ca003     .;..;.;.i.-...<.
    cfb4:	bf2beb4a bf3daef9 bf2ac082 bf3ebc1b     J.+...=...*...>.
    cfc4:	bf299415 bf3fc767 bf286605 bf40d0da     ..).g.?..f(...@.
    cfd4:	bf273656 bf41d870 bf26050a bf42de29     V6'.p.A...&.).B.
    cfe4:	bf24d225 bf43e200 bf239da9 bf44e3f5     %.$...C...#...D.
    cff4:	bf226799 bf45e403 bf212ff9 bf46e22a     .g"...E../!.*.F.
    d004:	bf1ff6cb bf47de65 bf1ebc12 bf48d8b3     ....e.G.......H.
    d014:	bf1d7fd1 bf49d112 bf1c420c bf4ac77f     ......I..B....J.
    d024:	bf1b02c6 bf4bbbf8 bf19c200 bf4cae79     ......K.....y.L.
    d034:	bf187fc0 bf4d9f02 bf173c07 bf4e8d90     ......M..<....N.
    d044:	bf15f6d9 bf4f7a1f bf14b039 bf5064af     .....zO.9....dP.
    d054:	bf13682a bf514d3d bf121eb0 bf5233c6     *h..=MQ......3R.
    d064:	bf10d3cd bf531849 bf0f8784 bf53fac3     ....I.S.......S.
    d074:	bf0e39da bf54db31 bf0cead0 bf55b993     .9..1.T.......U.
    d084:	bf0b9a6b bf5695e5 bf0a48ad bf577026     k.....V..H..&pW.
    d094:	bf08f59b bf584853 bf07a136 bf591e6a     ....SHX.6...j.Y.
    d0a4:	bf064b82 bf59f26a bf04f484 bf5ac450     .K..j.Y.....P.Z.
    d0b4:	bf039c3d bf5b941a bf0242b1 bf5c61c7     =.....[..B...a\.
    d0c4:	bf00e7e4 bf5d2d53 beff17b2 bf5df6be     ....S-].......].
    d0d4:	befc5d27 bf5ebe05 bef9a02d bf5f8327     ']....^.-...'._.
    d0e4:	bef6e0cb bf604621 bef41f07 bf6106f2     ....!F`.......a.
    d0f4:	bef15aea bf61c598 beee9479 bf628210     .Z....a.y.....b.
    d104:	beebcbbb bf633c5a bee900b7 bf63f473     ....Z<c.....s.c.
    d114:	bee63375 bf64aa59 bee363fa bf655e0b     u3..Y.d..c...^e.
    d124:	bee0924f bf660f88 beddbe79 bf66becc     O.....f.y.....f.
    d134:	bedae880 bf676bd8 bed8106b bf6816a8     .....kg.k.....h.
    d144:	bed53641 bf68bf3c bed25a09 bf696591     A6..<.h..Z...ei.
    d154:	becf7bca bf6a09a7 becc9b8b bf6aab7b     .{....j.....{.j.
    d164:	bec9b953 bf6b4b0c bec6d529 bf6be858     S....Kk.)...X.k.
    d174:	bec3ef15 bf6c835e bec1071e bf6d1c1d     ....^.l.......m.
    d184:	bebe1d4a bf6db293 bebb31a0 bf6e46be     J.....m..1...Fn.
    d194:	beb8442a bf6ed89e beb554ec bf6f6830     *D....n..T..0ho.
    d1a4:	beb263ef bf6ff573 beaf713a bf708066     .c..s.o.:q..f.p.
    d1b4:	beac7cd4 bf710908 bea986c4 bf718f57     .|....q.....W.q.
    d1c4:	bea68f12 bf721352 bea395c5 bf7294f8     ....R.r.......r.
    d1d4:	bea09ae5 bf731447 be9d9e78 bf73913f     ....G.s.x...?.s.
    d1e4:	be9aa086 bf740bdd be97a117 bf748422     ......t.....".t.
    d1f4:	be94a031 bf74fa0b be919ddd bf756d97     1.....t......mu.
    d204:	be8e9a22 bf75dec6 be8b9507 bf764d97     ".....u......Mv.
    d214:	be888e93 bf76ba07 be8586ce bf772417     ......v......$w.
    d224:	be827dc0 bf778bc5 be7ee6e1 bf77f110     .}....w...~...w.
    d234:	be78cfcc bf7853f8 be72b651 bf78b47b     ..x..Sx.Q.r.{.x.
    d244:	be6c9a7f bf791298 be667c66 bf796e4e     ..l...y.f|f.Nny.
    d254:	be605c13 bf79c79d be5a3997 bf7a1e84     .\`...y..9Z...z.
    d264:	be541501 bf7a7302 be4dee60 bf7ac516     ..T..sz.`.M...z.
    d274:	be47c5c2 bf7b14be be419b37 bf7b61fc     ..G...{.7.A..a{.
    d284:	be3b6ecf bf7baccd be354098 bf7bf531     .n;...{..@5.1.{.
    d294:	be2f10a2 bf7c3b28 be28defc bf7c7eb0     ../.(;|...(..~|.
    d2a4:	be22abb6 bf7cbfc9 be1c76de bf7cfe73     .."...|..v..s.|.
    d2b4:	be164083 bf7d3aac be1008b7 bf7d7474     .@...:}.....tt}.
    d2c4:	be09cf86 bf7dabcc be039502 bf7de0b1     ......}.......}.
    d2d4:	bdfab273 bf7e1324 bdee3876 bf7e4323     s...$.~.v8..#C~.
    d2e4:	bde1bc2e bf7e70b0 bdd53db9 bf7e9bc9     .....p~..=....~.
    d2f4:	bdc8bd36 bf7ec46d bdbc3ac3 bf7eea9d     6...m.~..:....~.
    d304:	bdafb680 bf7f0e58 bda3308c bf7f2f9d     ....X....0.../..
    d314:	bd96a905 bf7f4e6d bd8a200a bf7f6ac7     ....mN... ...j..
    d324:	bd7b2b74 bf7f84ab bd621468 bf7f9c18     t+{.....h.b.....
    d334:	bd48fb2f bf7fb10f bd2fe007 bf7fc38f     /.H......./.....
    d344:	bd16c32c bf7fd398 bcfb49b9 bf7fe129     ,........I..)...
    d354:	bcc90ab0 bf7fec43 bc96c9b6 bf7ff4e6     ....C...........
    d364:	bc490e90 bf7ffb11 bbc90f89 bf7ffec4     ..I.............
    d374:	80000000 bf800000 3bc90f89 bf7ffec4     ...........;....
    d384:	3c490e90 bf7ffb11 3c96c9b6 bf7ff4e6     ..I<.......<....
    d394:	3cc90ab0 bf7fec43 3cfb49b9 bf7fe129     ...<C....I.<)...
    d3a4:	3d16c32c bf7fd398 3d2fe007 bf7fc38f     ,..=....../=....
    d3b4:	3d48fb2f bf7fb10f 3d621468 bf7f9c18     /.H=....h.b=....
    d3c4:	3d7b2b74 bf7f84ab 3d8a200a bf7f6ac7     t+{=..... .=.j..
    d3d4:	3d96a905 bf7f4e6d 3da3308c bf7f2f9d     ...=mN...0.=./..
    d3e4:	3dafb680 bf7f0e58 3dbc3ac3 bf7eea9d     ...=X....:.=..~.
    d3f4:	3dc8bd36 bf7ec46d 3dd53db9 bf7e9bc9     6..=m.~..=.=..~.
    d404:	3de1bc2e bf7e70b0 3dee3876 bf7e4323     ...=.p~.v8.=#C~.
    d414:	3dfab273 bf7e1324 3e039502 bf7de0b1     s..=$.~....>..}.
    d424:	3e09cf86 bf7dabcc 3e1008b7 bf7d7474     ...>..}....>tt}.
    d434:	3e164083 bf7d3aac 3e1c76de bf7cfe73     .@.>.:}..v.>s.|.
    d444:	3e22abb6 bf7cbfc9 3e28defc bf7c7eb0     ..">..|...(>.~|.
    d454:	3e2f10a2 bf7c3b28 3e354098 bf7bf531     ../>(;|..@5>1.{.
    d464:	3e3b6ecf bf7baccd 3e419b37 bf7b61fc     .n;>..{.7.A>.a{.
    d474:	3e47c5c2 bf7b14be 3e4dee60 bf7ac516     ..G>..{.`.M>..z.
    d484:	3e541501 bf7a7302 3e5a3997 bf7a1e84     ..T>.sz..9Z>..z.
    d494:	3e605c13 bf79c79d 3e667c66 bf796e4e     .\`>..y.f|f>Nny.
    d4a4:	3e6c9a7f bf791298 3e72b651 bf78b47b     ..l>..y.Q.r>{.x.
    d4b4:	3e78cfcc bf7853f8 3e7ee6e1 bf77f110     ..x>.Sx...~>..w.
    d4c4:	3e827dc0 bf778bc5 3e8586ce bf772417     .}.>..w....>.$w.
    d4d4:	3e888e93 bf76ba07 3e8b9507 bf764d97     ...>..v....>.Mv.
    d4e4:	3e8e9a22 bf75dec6 3e919ddd bf756d97     "..>..u....>.mu.
    d4f4:	3e94a031 bf74fa0b 3e97a117 bf748422     1..>..t....>".t.
    d504:	3e9aa086 bf740bdd 3e9d9e78 bf73913f     ...>..t.x..>?.s.
    d514:	3ea09ae5 bf731447 3ea395c5 bf7294f8     ...>G.s....>..r.
    d524:	3ea68f12 bf721352 3ea986c4 bf718f57     ...>R.r....>W.q.
    d534:	3eac7cd4 bf710908 3eaf713a bf708066     .|.>..q.:q.>f.p.
    d544:	3eb263ef bf6ff573 3eb554ec bf6f6830     .c.>s.o..T.>0ho.
    d554:	3eb8442a bf6ed89e 3ebb31a0 bf6e46be     *D.>..n..1.>.Fn.
    d564:	3ebe1d4a bf6db293 3ec1071e bf6d1c1d     J..>..m....>..m.
    d574:	3ec3ef15 bf6c835e 3ec6d529 bf6be858     ...>^.l.)..>X.k.
    d584:	3ec9b953 bf6b4b0c 3ecc9b8b bf6aab7b     S..>.Kk....>{.j.
    d594:	3ecf7bca bf6a09a7 3ed25a09 bf696591     .{.>..j..Z.>.ei.
    d5a4:	3ed53641 bf68bf3c 3ed8106b bf6816a8     A6.><.h.k..>..h.
    d5b4:	3edae880 bf676bd8 3eddbe79 bf66becc     ...>.kg.y..>..f.
    d5c4:	3ee0924f bf660f88 3ee363fa bf655e0b     O..>..f..c.>.^e.
    d5d4:	3ee63375 bf64aa59 3ee900b7 bf63f473     u3.>Y.d....>s.c.
    d5e4:	3eebcbbb bf633c5a 3eee9479 bf628210     ...>Z<c.y..>..b.
    d5f4:	3ef15aea bf61c598 3ef41f07 bf6106f2     .Z.>..a....>..a.
    d604:	3ef6e0cb bf604621 3ef9a02d bf5f8327     ...>!F`.-..>'._.
    d614:	3efc5d27 bf5ebe05 3eff17b2 bf5df6be     '].>..^....>..].
    d624:	3f00e7e4 bf5d2d53 3f0242b1 bf5c61c7     ...?S-]..B.?.a\.
    d634:	3f039c3d bf5b941a 3f04f484 bf5ac450     =..?..[....?P.Z.
    d644:	3f064b82 bf59f26a 3f07a136 bf591e6a     .K.?j.Y.6..?j.Y.
    d654:	3f08f59b bf584853 3f0a48ad bf577026     ...?SHX..H.?&pW.
    d664:	3f0b9a6b bf5695e5 3f0cead0 bf55b993     k..?..V....?..U.
    d674:	3f0e39da bf54db31 3f0f8784 bf53fac3     .9.?1.T....?..S.
    d684:	3f10d3cd bf531849 3f121eb0 bf5233c6     ...?I.S....?.3R.
    d694:	3f13682a bf514d3d 3f14b039 bf5064af     *h.?=MQ.9..?.dP.
    d6a4:	3f15f6d9 bf4f7a1f 3f173c07 bf4e8d90     ...?.zO..<.?..N.
    d6b4:	3f187fc0 bf4d9f02 3f19c200 bf4cae79     ...?..M....?y.L.
    d6c4:	3f1b02c6 bf4bbbf8 3f1c420c bf4ac77f     ...?..K..B.?..J.
    d6d4:	3f1d7fd1 bf49d112 3f1ebc12 bf48d8b3     ...?..I....?..H.
    d6e4:	3f1ff6cb bf47de65 3f212ff9 bf46e22a     ...?e.G../!?*.F.
    d6f4:	3f226799 bf45e403 3f239da9 bf44e3f5     .g"?..E...#?..D.
    d704:	3f24d225 bf43e200 3f26050a bf42de29     %.$?..C...&?).B.
    d714:	3f273656 bf41d870 3f286605 bf40d0da     V6'?p.A..f(?..@.
    d724:	3f299415 bf3fc767 3f2ac082 bf3ebc1b     ..)?g.?...*?..>.
    d734:	3f2beb4a bf3daef9 3f2d1469 bf3ca003     J.+?..=.i.-?..<.
    d744:	3f2e3bde bf3b8f3b 3f2f61a5 bf3a7ca4     .;.?;.;..a/?.|:.
    d754:	3f3085bb bf396842 3f31a81d bf385216     ..0?Bh9...1?.R8.
    d764:	3f32c8c9 bf373a23 3f33e7bc bf36206c     ..2?#:7...3?l 6.
    d774:	3f3504f3 bf3504f3 3f36206c bf33e7bc     ..5?..5.l 6?..3.
    d784:	3f373a23 bf32c8c9 3f385216 bf31a81d     #:7?..2..R8?..1.
    d794:	3f396842 bf3085bb 3f3a7ca4 bf2f61a5     Bh9?..0..|:?.a/.
    d7a4:	3f3b8f3b bf2e3bde 3f3ca003 bf2d1469     ;.;?.;....<?i.-.
    d7b4:	3f3daef9 bf2beb4a 3f3ebc1b bf2ac082     ..=?J.+...>?..*.
    d7c4:	3f3fc767 bf299415 3f40d0da bf286605     g.??..)...@?.f(.
    d7d4:	3f41d870 bf273656 3f42de29 bf26050a     p.A?V6'.).B?..&.
    d7e4:	3f43e200 bf24d225 3f44e3f5 bf239da9     ..C?%.$...D?..#.
    d7f4:	3f45e403 bf226799 3f46e22a bf212ff9     ..E?.g".*.F?./!.
    d804:	3f47de65 bf1ff6cb 3f48d8b3 bf1ebc12     e.G?......H?....
    d814:	3f49d112 bf1d7fd1 3f4ac77f bf1c420c     ..I?......J?.B..
    d824:	3f4bbbf8 bf1b02c6 3f4cae79 bf19c200     ..K?....y.L?....
    d834:	3f4d9f02 bf187fc0 3f4e8d90 bf173c07     ..M?......N?.<..
    d844:	3f4f7a1f bf15f6d9 3f5064af bf14b039     .zO?.....dP?9...
    d854:	3f514d3d bf13682a 3f5233c6 bf121eb0     =MQ?*h...3R?....
    d864:	3f531849 bf10d3cd 3f53fac3 bf0f8784     I.S?......S?....
    d874:	3f54db31 bf0e39da 3f55b993 bf0cead0     1.T?.9....U?....
    d884:	3f5695e5 bf0b9a6b 3f577026 bf0a48ad     ..V?k...&pW?.H..
    d894:	3f584853 bf08f59b 3f591e6a bf07a136     SHX?....j.Y?6...
    d8a4:	3f59f26a bf064b82 3f5ac450 bf04f484     j.Y?.K..P.Z?....
    d8b4:	3f5b941a bf039c3d 3f5c61c7 bf0242b1     ..[?=....a\?.B..
    d8c4:	3f5d2d53 bf00e7e4 3f5df6be beff17b2     S-]?......]?....
    d8d4:	3f5ebe05 befc5d27 3f5f8327 bef9a02d     ..^?']..'._?-...
    d8e4:	3f604621 bef6e0cb 3f6106f2 bef41f07     !F`?......a?....
    d8f4:	3f61c598 bef15aea 3f628210 beee9479     ..a?.Z....b?y...
    d904:	3f633c5a beebcbbb 3f63f473 bee900b7     Z<c?....s.c?....
    d914:	3f64aa59 bee63375 3f655e0b bee363fa     Y.d?u3...^e?.c..
    d924:	3f660f88 bee0924f 3f66becc beddbe79     ..f?O.....f?y...
    d934:	3f676bd8 bedae880 3f6816a8 bed8106b     .kg?......h?k...
    d944:	3f68bf3c bed53641 3f696591 bed25a09     <.h?A6...ei?.Z..
    d954:	3f6a09a7 becf7bca 3f6aab7b becc9b8b     ..j?.{..{.j?....
    d964:	3f6b4b0c bec9b953 3f6be858 bec6d529     .Kk?S...X.k?)...
    d974:	3f6c835e bec3ef15 3f6d1c1d bec1071e     ^.l?......m?....
    d984:	3f6db293 bebe1d4a 3f6e46be bebb31a0     ..m?J....Fn?.1..
    d994:	3f6ed89e beb8442a 3f6f6830 beb554ec     ..n?*D..0ho?.T..
    d9a4:	3f6ff573 beb263ef 3f708066 beaf713a     s.o?.c..f.p?:q..
    d9b4:	3f710908 beac7cd4 3f718f57 bea986c4     ..q?.|..W.q?....
    d9c4:	3f721352 bea68f12 3f7294f8 bea395c5     R.r?......r?....
    d9d4:	3f731447 bea09ae5 3f73913f be9d9e78     G.s?....?.s?x...
    d9e4:	3f740bdd be9aa086 3f748422 be97a117     ..t?....".t?....
    d9f4:	3f74fa0b be94a031 3f756d97 be919ddd     ..t?1....mu?....
    da04:	3f75dec6 be8e9a22 3f764d97 be8b9507     ..u?"....Mv?....
    da14:	3f76ba07 be888e93 3f772417 be8586ce     ..v?.....$w?....
    da24:	3f778bc5 be827dc0 3f77f110 be7ee6e1     ..w?.}....w?..~.
    da34:	3f7853f8 be78cfcc 3f78b47b be72b651     .Sx?..x.{.x?Q.r.
    da44:	3f791298 be6c9a7f 3f796e4e be667c66     ..y?..l.Nny?f|f.
    da54:	3f79c79d be605c13 3f7a1e84 be5a3997     ..y?.\`...z?.9Z.
    da64:	3f7a7302 be541501 3f7ac516 be4dee60     .sz?..T...z?`.M.
    da74:	3f7b14be be47c5c2 3f7b61fc be419b37     ..{?..G..a{?7.A.
    da84:	3f7baccd be3b6ecf 3f7bf531 be354098     ..{?.n;.1.{?.@5.
    da94:	3f7c3b28 be2f10a2 3f7c7eb0 be28defc     (;|?../..~|?..(.
    daa4:	3f7cbfc9 be22abb6 3f7cfe73 be1c76de     ..|?..".s.|?.v..
    dab4:	3f7d3aac be164083 3f7d7474 be1008b7     .:}?.@..tt}?....
    dac4:	3f7dabcc be09cf86 3f7de0b1 be039502     ..}?......}?....
    dad4:	3f7e1324 bdfab273 3f7e4323 bdee3876     $.~?s...#C~?v8..
    dae4:	3f7e70b0 bde1bc2e 3f7e9bc9 bdd53db9     .p~?......~?.=..
    daf4:	3f7ec46d bdc8bd36 3f7eea9d bdbc3ac3     m.~?6.....~?.:..
    db04:	3f7f0e58 bdafb680 3f7f2f9d bda3308c     X..?...../.?.0..
    db14:	3f7f4e6d bd96a905 3f7f6ac7 bd8a200a     mN.?.....j.?. ..
    db24:	3f7f84ab bd7b2b74 3f7f9c18 bd621468     ...?t+{....?h.b.
    db34:	3f7fb10f bd48fb2f 3f7fc38f bd2fe007     ...?/.H....?../.
    db44:	3f7fd398 bd16c32c 3f7fe129 bcfb49b9     ...?,...)..?.I..
    db54:	3f7fec43 bcc90ab0 3f7ff4e6 bc96c9b6     C..?.......?....
    db64:	3f7ffb11 bc490e90 3f7ffec4 bbc90f89     ...?..I....?....

0000db74 <twiddleCoef_2048>:
    db74:	3f800000 00000000 3f7fffb1 3b490fc7     ...?.......?..I;
    db84:	3f7ffec4 3bc90f89 3f7ffd39 3c16cb59     ...?...;9..?Y..<
    db94:	3f7ffb11 3c490e90 3f7ff84a 3c7b514b     ...?..I<J..?KQ{<
    dba4:	3f7ff4e6 3c96c9b6 3f7ff0e3 3cafea69     ...?...<...?i..<
    dbb4:	3f7fec43 3cc90ab0 3f7fe705 3ce22a7b     C..?...<...?{*.<
    dbc4:	3f7fe129 3cfb49b9 3f7fdaaf 3d0a342f     )..?.I.<...?/4.=
    dbd4:	3f7fd398 3d16c32c 3f7fcbe2 3d2351cc     ...?,..=...?.Q#=
    dbe4:	3f7fc38f 3d2fe007 3f7fba9e 3d3c6dd5     ...?../=...?.m<=
    dbf4:	3f7fb10f 3d48fb2f 3f7fa6e3 3d55880e     ...?/.H=...?..U=
    dc04:	3f7f9c18 3d621468 3f7f90b1 3d6ea038     ...?h.b=...?8.n=
    dc14:	3f7f84ab 3d7b2b74 3f7f7808 3d83db0a     ...?t+{=.x.?...=
    dc24:	3f7f6ac7 3d8a200a 3f7f5ce9 3d9064b4     .j.?. .=.\.?.d.=
    dc34:	3f7f4e6d 3d96a905 3f7f3f54 3d9cecf9     mN.?...=T?.?...=
    dc44:	3f7f2f9d 3da3308c 3f7f1f49 3da973ba     ./.?.0.=I..?.s.=
    dc54:	3f7f0e58 3dafb680 3f7efcc9 3db5f8da     X..?...=..~?...=
    dc64:	3f7eea9d 3dbc3ac3 3f7ed7d4 3dc27c39     ..~?.:.=..~?9|.=
    dc74:	3f7ec46d 3dc8bd36 3f7eb069 3dcefdb7     m.~?6..=i.~?...=
    dc84:	3f7e9bc9 3dd53db9 3f7e868b 3ddb7d37     ..~?.=.=..~?7}.=
    dc94:	3f7e70b0 3de1bc2e 3f7e5a38 3de7fa9a     .p~?...=8Z~?...=
    dca4:	3f7e4323 3dee3876 3f7e2b72 3df475c0     #C~?v8.=r+~?.u.=
    dcb4:	3f7e1324 3dfab273 3f7dfa38 3e007745     $.~?s..=8.}?Ew.>
    dcc4:	3f7de0b1 3e039502 3f7dc68c 3e06b26e     ..}?...>..}?n..>
    dcd4:	3f7dabcc 3e09cf86 3f7d906e 3e0cec4a     ..}?...>n.}?J..>
    dce4:	3f7d7474 3e1008b7 3f7d57de 3e1324ca     tt}?...>.W}?.$.>
    dcf4:	3f7d3aac 3e164083 3f7d1cdd 3e195be0     .:}?.@.>..}?.[.>
    dd04:	3f7cfe73 3e1c76de 3f7cdf6c 3e1f917b     s.|?.v.>l.|?{..>
    dd14:	3f7cbfc9 3e22abb6 3f7c9f8a 3e25c58c     ..|?..">..|?..%>
    dd24:	3f7c7eb0 3e28defc 3f7c5d3a 3e2bf804     .~|?..(>:]|?..+>
    dd34:	3f7c3b28 3e2f10a2 3f7c187a 3e3228d4     (;|?../>z.|?.(2>
    dd44:	3f7bf531 3e354098 3f7bd14d 3e3857ec     1.{?.@5>M.{?.W8>
    dd54:	3f7baccd 3e3b6ecf 3f7b87b2 3e3e853e     ..{?.n;>..{?>.>>
    dd64:	3f7b61fc 3e419b37 3f7b3bab 3e44b0b9     .a{?7.A>.;{?..D>
    dd74:	3f7b14be 3e47c5c2 3f7aed37 3e4ada4f     ..{?..G>7.z?O.J>
    dd84:	3f7ac516 3e4dee60 3f7a9c59 3e5101f1     ..z?`.M>Y.z?..Q>
    dd94:	3f7a7302 3e541501 3f7a4910 3e57278f     .sz?..T>.Iz?.'W>
    dda4:	3f7a1e84 3e5a3997 3f79f35e 3e5d4b1a     ..z?.9Z>^.y?.K]>
    ddb4:	3f79c79d 3e605c13 3f799b43 3e636c83     ..y?.\`>C.y?.lc>
    ddc4:	3f796e4e 3e667c66 3f7940c0 3e698bba     Nny?f|f>.@y?..i>
    ddd4:	3f791298 3e6c9a7f 3f78e3d6 3e6fa8b2     ..y?..l>..x?..o>
    dde4:	3f78b47b 3e72b651 3f788486 3e75c35a     {.x?Q.r>..x?Z.u>
    ddf4:	3f7853f8 3e78cfcc 3f7822d1 3e7bdba4     .Sx?..x>."x?..{>
    de04:	3f77f110 3e7ee6e1 3f77beb7 3e80f8c0     ..w?..~>..w?...>
    de14:	3f778bc5 3e827dc0 3f77583a 3e840270     ..w?.}.>:Xw?p..>
    de24:	3f772417 3e8586ce 3f76ef5b 3e870ada     .$w?...>[.v?...>
    de34:	3f76ba07 3e888e93 3f76841b 3e8a11f8     ..v?...>..v?...>
    de44:	3f764d97 3e8b9507 3f76167a 3e8d17c0     .Mv?...>z.v?...>
    de54:	3f75dec6 3e8e9a22 3f75a67b 3e901c2c     ..u?"..>{.u?,..>
    de64:	3f756d97 3e919ddd 3f75341d 3e931f35     .mu?...>.4u?5..>
    de74:	3f74fa0b 3e94a031 3f74bf62 3e9620d2     ..t?1..>b.t?. .>
    de84:	3f748422 3e97a117 3f74484b 3e9920fe     ".t?...>KHt?. .>
    de94:	3f740bdd 3e9aa086 3f73ced9 3e9c1faf     ..t?...>..s?...>
    dea4:	3f73913f 3e9d9e78 3f73530e 3e9f1cdf     ?.s?x..>.Ss?...>
    deb4:	3f731447 3ea09ae5 3f72d4eb 3ea21887     G.s?...>..r?...>
    dec4:	3f7294f8 3ea395c5 3f725470 3ea5129f     ..r?...>pTr?...>
    ded4:	3f721352 3ea68f12 3f71d19f 3ea80b1f     R.r?...>..q?...>
    dee4:	3f718f57 3ea986c4 3f714c7a 3eab0201     W.q?...>zLq?...>
    def4:	3f710908 3eac7cd4 3f70c502 3eadf73c     ..q?.|.>..p?<..>
    df04:	3f708066 3eaf713a 3f703b37 3eb0eacb     f.p?:q.>7;p?...>
    df14:	3f6ff573 3eb263ef 3f6faf1b 3eb3dca5     s.o?.c.>..o?...>
    df24:	3f6f6830 3eb554ec 3f6f20b0 3eb6ccc3     0ho?.T.>. o?...>
    df34:	3f6ed89e 3eb8442a 3f6e8ff8 3eb9bb1e     ..n?*D.>..n?...>
    df44:	3f6e46be 3ebb31a0 3f6dfcf2 3ebca7af     .Fn?.1.>..m?...>
    df54:	3f6db293 3ebe1d4a 3f6d67a1 3ebf926f     ..m?J..>.gm?o..>
    df64:	3f6d1c1d 3ec1071e 3f6cd007 3ec27b55     ..m?...>..l?U{.>
    df74:	3f6c835e 3ec3ef15 3f6c3624 3ec5625c     ^.l?...>$6l?\b.>
    df84:	3f6be858 3ec6d529 3f6b99fb 3ec8477c     X.k?)..>..k?|G.>
    df94:	3f6b4b0c 3ec9b953 3f6afb8c 3ecb2aae     .Kk?S..>..j?.*.>
    dfa4:	3f6aab7b 3ecc9b8b 3f6a5ad9 3ece0bea     {.j?...>.Zj?...>
    dfb4:	3f6a09a7 3ecf7bca 3f69b7e4 3ed0eb2a     ..j?.{.>..i?*..>
    dfc4:	3f696591 3ed25a09 3f6912ae 3ed3c867     .ei?.Z.>..i?g..>
    dfd4:	3f68bf3c 3ed53641 3f686b39 3ed6a399     <.h?A6.>9kh?...>
    dfe4:	3f6816a8 3ed8106b 3f67c187 3ed97cb9     ..h?k..>..g?.|.>
    dff4:	3f676bd8 3edae880 3f671599 3edc53c1     .kg?...>..g?.S.>
    e004:	3f66becc 3eddbe79 3f666771 3edf28a9     ..f?y..>qgf?.(.>
    e014:	3f660f88 3ee0924f 3f65b710 3ee1fb6a     ..f?O..>..e?j..>
    e024:	3f655e0b 3ee363fa 3f650479 3ee4cbfe     .^e?.c.>y.e?...>
    e034:	3f64aa59 3ee63375 3f644fac 3ee79a5d     Y.d?u3.>.Od?]..>
    e044:	3f63f473 3ee900b7 3f6398ac 3eea6681     s.c?...>..c?.f.>
    e054:	3f633c5a 3eebcbbb 3f62df7b 3eed3063     Z<c?...>{.b?c0.>
    e064:	3f628210 3eee9479 3f62241a 3eeff7fb     ..b?y..>.$b?...>
    e074:	3f61c598 3ef15aea 3f61668a 3ef2bd43     ..a?.Z.>.fa?C..>
    e084:	3f6106f2 3ef41f07 3f60a6cf 3ef58035     ..a?...>..`?5..>
    e094:	3f604621 3ef6e0cb 3f5fe4e9 3ef840c8     !F`?...>.._?.@.>
    e0a4:	3f5f8327 3ef9a02d 3f5f20db 3efafef7     '._?-..>. _?...>
    e0b4:	3f5ebe05 3efc5d27 3f5e5aa6 3efdbabb     ..^?'].>.Z^?...>
    e0c4:	3f5df6be 3eff17b2 3f5d924d 3f003a06     ..]?...>M.]?.:.?
    e0d4:	3f5d2d53 3f00e7e4 3f5cc7d1 3f019573     S-]?...?..\?s..?
    e0e4:	3f5c61c7 3f0242b1 3f5bfb34 3f02ef9f     .a\?.B.?4.[?...?
    e0f4:	3f5b941a 3f039c3d 3f5b2c79 3f044889     ..[?=..?y,[?.H.?
    e104:	3f5ac450 3f04f484 3f5a5ba0 3f05a02c     P.Z?...?.[Z?,..?
    e114:	3f59f26a 3f064b82 3f5988ad 3f06f686     j.Y?.K.?..Y?...?
    e124:	3f591e6a 3f07a136 3f58b3a1 3f084b92     j.Y?6..?..X?.K.?
    e134:	3f584853 3f08f59b 3f57dc7f 3f099f4e     SHX?...?..W?N..?
    e144:	3f577026 3f0a48ad 3f570348 3f0af1b7     &pW?.H.?H.W?...?
    e154:	3f5695e5 3f0b9a6b 3f5627fe 3f0c42c9     ..V?k..?.'V?.B.?
    e164:	3f55b993 3f0cead0 3f554aa4 3f0d9281     ..U?...?.JU?...?
    e174:	3f54db31 3f0e39da 3f546b3b 3f0ee0db     1.T?.9.?;kT?...?
    e184:	3f53fac3 3f0f8784 3f5389c7 3f102dd5     ..S?...?..S?.-.?
    e194:	3f531849 3f10d3cd 3f52a649 3f11796b     I.S?...?I.R?ky.?
    e1a4:	3f5233c6 3f121eb0 3f51c0c2 3f12c39a     .3R?...?..Q?...?
    e1b4:	3f514d3d 3f13682a 3f50d937 3f140c5f     =MQ?*h.?7.P?_..?
    e1c4:	3f5064af 3f14b039 3f4fefa8 3f1553b7     .dP?9..?..O?.S.?
    e1d4:	3f4f7a1f 3f15f6d9 3f4f0417 3f16999f     .zO?...?..O?...?
    e1e4:	3f4e8d90 3f173c07 3f4e1689 3f17de12     ..N?.<.?..N?...?
    e1f4:	3f4d9f02 3f187fc0 3f4d26fd 3f19210f     ..M?...?.&M?.!.?
    e204:	3f4cae79 3f19c200 3f4c3578 3f1a6293     y.L?...?x5L?.b.?
    e214:	3f4bbbf8 3f1b02c6 3f4b41fa 3f1ba299     ..K?...?.AK?...?
    e224:	3f4ac77f 3f1c420c 3f4a4c87 3f1ce11f     ..J?.B.?.LJ?...?
    e234:	3f49d112 3f1d7fd1 3f495521 3f1e1e22     ..I?...?!UI?"..?
    e244:	3f48d8b3 3f1ebc12 3f485bca 3f1f599f     ..H?...?.[H?.Y.?
    e254:	3f47de65 3f1ff6cb 3f476085 3f209393     e.G?...?.`G?.. ?
    e264:	3f46e22a 3f212ff9 3f466354 3f21cbfb     *.F?./!?TcF?..!?
    e274:	3f45e403 3f226799 3f456439 3f2302d3     ..E?.g"?9dE?..#?
    e284:	3f44e3f5 3f239da9 3f446337 3f24381a     ..D?..#?7cD?.8$?
    e294:	3f43e200 3f24d225 3f436051 3f256bcb     ..C?%.$?Q`C?.k%?
    e2a4:	3f42de29 3f26050a 3f425b89 3f269de3     ).B?..&?.[B?..&?
    e2b4:	3f41d870 3f273656 3f4154e1 3f27ce61     p.A?V6'?.TA?a.'?
    e2c4:	3f40d0da 3f286605 3f404c5c 3f28fd41     ..@?.f(?\L@?A.(?
    e2d4:	3f3fc767 3f299415 3f3f41fc 3f2a2a80     g.??..)?.A??.**?
    e2e4:	3f3ebc1b 3f2ac082 3f3e35c5 3f2b561b     ..>?..*?.5>?.V+?
    e2f4:	3f3daef9 3f2beb4a 3f3d27b8 3f2c800f     ..=?J.+?.'=?..,?
    e304:	3f3ca003 3f2d1469 3f3c17d9 3f2da859     ..<?i.-?..<?Y.-?
    e314:	3f3b8f3b 3f2e3bde 3f3b0629 3f2ecef7     ;.;?.;.?).;?...?
    e324:	3f3a7ca4 3f2f61a5 3f39f2ac 3f2ff3e6     .|:?.a/?..9?../?
    e334:	3f396842 3f3085bb 3f38dd65 3f311722     Bh9?..0?e.8?".1?
    e344:	3f385216 3f31a81d 3f37c655 3f3238aa     .R8?..1?U.7?.82?
    e354:	3f373a23 3f32c8c9 3f36ad7f 3f33587a     #:7?..2?..6?zX3?
    e364:	3f36206c 3f33e7bc 3f3592e7 3f34768f     l 6?..3?..5?.v4?
    e374:	3f3504f3 3f3504f3 3f34768f 3f3592e7     ..5?..5?.v4?..5?
    e384:	3f33e7bc 3f36206c 3f33587a 3f36ad7f     ..3?l 6?zX3?..6?
    e394:	3f32c8c9 3f373a23 3f3238aa 3f37c655     ..2?#:7?.82?U.7?
    e3a4:	3f31a81d 3f385216 3f311722 3f38dd65     ..1?.R8?".1?e.8?
    e3b4:	3f3085bb 3f396842 3f2ff3e6 3f39f2ac     ..0?Bh9?../?..9?
    e3c4:	3f2f61a5 3f3a7ca4 3f2ecef7 3f3b0629     .a/?.|:?...?).;?
    e3d4:	3f2e3bde 3f3b8f3b 3f2da859 3f3c17d9     .;.?;.;?Y.-?..<?
    e3e4:	3f2d1469 3f3ca003 3f2c800f 3f3d27b8     i.-?..<?..,?.'=?
    e3f4:	3f2beb4a 3f3daef9 3f2b561b 3f3e35c5     J.+?..=?.V+?.5>?
    e404:	3f2ac082 3f3ebc1b 3f2a2a80 3f3f41fc     ..*?..>?.**?.A??
    e414:	3f299415 3f3fc767 3f28fd41 3f404c5c     ..)?g.??A.(?\L@?
    e424:	3f286605 3f40d0da 3f27ce61 3f4154e1     .f(?..@?a.'?.TA?
    e434:	3f273656 3f41d870 3f269de3 3f425b89     V6'?p.A?..&?.[B?
    e444:	3f26050a 3f42de29 3f256bcb 3f436051     ..&?).B?.k%?Q`C?
    e454:	3f24d225 3f43e200 3f24381a 3f446337     %.$?..C?.8$?7cD?
    e464:	3f239da9 3f44e3f5 3f2302d3 3f456439     ..#?..D?..#?9dE?
    e474:	3f226799 3f45e403 3f21cbfb 3f466354     .g"?..E?..!?TcF?
    e484:	3f212ff9 3f46e22a 3f209393 3f476085     ./!?*.F?.. ?.`G?
    e494:	3f1ff6cb 3f47de65 3f1f599f 3f485bca     ...?e.G?.Y.?.[H?
    e4a4:	3f1ebc12 3f48d8b3 3f1e1e22 3f495521     ...?..H?"..?!UI?
    e4b4:	3f1d7fd1 3f49d112 3f1ce11f 3f4a4c87     ...?..I?...?.LJ?
    e4c4:	3f1c420c 3f4ac77f 3f1ba299 3f4b41fa     .B.?..J?...?.AK?
    e4d4:	3f1b02c6 3f4bbbf8 3f1a6293 3f4c3578     ...?..K?.b.?x5L?
    e4e4:	3f19c200 3f4cae79 3f19210f 3f4d26fd     ...?y.L?.!.?.&M?
    e4f4:	3f187fc0 3f4d9f02 3f17de12 3f4e1689     ...?..M?...?..N?
    e504:	3f173c07 3f4e8d90 3f16999f 3f4f0417     .<.?..N?...?..O?
    e514:	3f15f6d9 3f4f7a1f 3f1553b7 3f4fefa8     ...?.zO?.S.?..O?
    e524:	3f14b039 3f5064af 3f140c5f 3f50d937     9..?.dP?_..?7.P?
    e534:	3f13682a 3f514d3d 3f12c39a 3f51c0c2     *h.?=MQ?...?..Q?
    e544:	3f121eb0 3f5233c6 3f11796b 3f52a649     ...?.3R?ky.?I.R?
    e554:	3f10d3cd 3f531849 3f102dd5 3f5389c7     ...?I.S?.-.?..S?
    e564:	3f0f8784 3f53fac3 3f0ee0db 3f546b3b     ...?..S?...?;kT?
    e574:	3f0e39da 3f54db31 3f0d9281 3f554aa4     .9.?1.T?...?.JU?
    e584:	3f0cead0 3f55b993 3f0c42c9 3f5627fe     ...?..U?.B.?.'V?
    e594:	3f0b9a6b 3f5695e5 3f0af1b7 3f570348     k..?..V?...?H.W?
    e5a4:	3f0a48ad 3f577026 3f099f4e 3f57dc7f     .H.?&pW?N..?..W?
    e5b4:	3f08f59b 3f584853 3f084b92 3f58b3a1     ...?SHX?.K.?..X?
    e5c4:	3f07a136 3f591e6a 3f06f686 3f5988ad     6..?j.Y?...?..Y?
    e5d4:	3f064b82 3f59f26a 3f05a02c 3f5a5ba0     .K.?j.Y?,..?.[Z?
    e5e4:	3f04f484 3f5ac450 3f044889 3f5b2c79     ...?P.Z?.H.?y,[?
    e5f4:	3f039c3d 3f5b941a 3f02ef9f 3f5bfb34     =..?..[?...?4.[?
    e604:	3f0242b1 3f5c61c7 3f019573 3f5cc7d1     .B.?.a\?s..?..\?
    e614:	3f00e7e4 3f5d2d53 3f003a06 3f5d924d     ...?S-]?.:.?M.]?
    e624:	3eff17b2 3f5df6be 3efdbabb 3f5e5aa6     ...>..]?...>.Z^?
    e634:	3efc5d27 3f5ebe05 3efafef7 3f5f20db     '].>..^?...>. _?
    e644:	3ef9a02d 3f5f8327 3ef840c8 3f5fe4e9     -..>'._?.@.>.._?
    e654:	3ef6e0cb 3f604621 3ef58035 3f60a6cf     ...>!F`?5..>..`?
    e664:	3ef41f07 3f6106f2 3ef2bd43 3f61668a     ...>..a?C..>.fa?
    e674:	3ef15aea 3f61c598 3eeff7fb 3f62241a     .Z.>..a?...>.$b?
    e684:	3eee9479 3f628210 3eed3063 3f62df7b     y..>..b?c0.>{.b?
    e694:	3eebcbbb 3f633c5a 3eea6681 3f6398ac     ...>Z<c?.f.>..c?
    e6a4:	3ee900b7 3f63f473 3ee79a5d 3f644fac     ...>s.c?]..>.Od?
    e6b4:	3ee63375 3f64aa59 3ee4cbfe 3f650479     u3.>Y.d?...>y.e?
    e6c4:	3ee363fa 3f655e0b 3ee1fb6a 3f65b710     .c.>.^e?j..>..e?
    e6d4:	3ee0924f 3f660f88 3edf28a9 3f666771     O..>..f?.(.>qgf?
    e6e4:	3eddbe79 3f66becc 3edc53c1 3f671599     y..>..f?.S.>..g?
    e6f4:	3edae880 3f676bd8 3ed97cb9 3f67c187     ...>.kg?.|.>..g?
    e704:	3ed8106b 3f6816a8 3ed6a399 3f686b39     k..>..h?...>9kh?
    e714:	3ed53641 3f68bf3c 3ed3c867 3f6912ae     A6.><.h?g..>..i?
    e724:	3ed25a09 3f696591 3ed0eb2a 3f69b7e4     .Z.>.ei?*..>..i?
    e734:	3ecf7bca 3f6a09a7 3ece0bea 3f6a5ad9     .{.>..j?...>.Zj?
    e744:	3ecc9b8b 3f6aab7b 3ecb2aae 3f6afb8c     ...>{.j?.*.>..j?
    e754:	3ec9b953 3f6b4b0c 3ec8477c 3f6b99fb     S..>.Kk?|G.>..k?
    e764:	3ec6d529 3f6be858 3ec5625c 3f6c3624     )..>X.k?\b.>$6l?
    e774:	3ec3ef15 3f6c835e 3ec27b55 3f6cd007     ...>^.l?U{.>..l?
    e784:	3ec1071e 3f6d1c1d 3ebf926f 3f6d67a1     ...>..m?o..>.gm?
    e794:	3ebe1d4a 3f6db293 3ebca7af 3f6dfcf2     J..>..m?...>..m?
    e7a4:	3ebb31a0 3f6e46be 3eb9bb1e 3f6e8ff8     .1.>.Fn?...>..n?
    e7b4:	3eb8442a 3f6ed89e 3eb6ccc3 3f6f20b0     *D.>..n?...>. o?
    e7c4:	3eb554ec 3f6f6830 3eb3dca5 3f6faf1b     .T.>0ho?...>..o?
    e7d4:	3eb263ef 3f6ff573 3eb0eacb 3f703b37     .c.>s.o?...>7;p?
    e7e4:	3eaf713a 3f708066 3eadf73c 3f70c502     :q.>f.p?<..>..p?
    e7f4:	3eac7cd4 3f710908 3eab0201 3f714c7a     .|.>..q?...>zLq?
    e804:	3ea986c4 3f718f57 3ea80b1f 3f71d19f     ...>W.q?...>..q?
    e814:	3ea68f12 3f721352 3ea5129f 3f725470     ...>R.r?...>pTr?
    e824:	3ea395c5 3f7294f8 3ea21887 3f72d4eb     ...>..r?...>..r?
    e834:	3ea09ae5 3f731447 3e9f1cdf 3f73530e     ...>G.s?...>.Ss?
    e844:	3e9d9e78 3f73913f 3e9c1faf 3f73ced9     x..>?.s?...>..s?
    e854:	3e9aa086 3f740bdd 3e9920fe 3f74484b     ...>..t?. .>KHt?
    e864:	3e97a117 3f748422 3e9620d2 3f74bf62     ...>".t?. .>b.t?
    e874:	3e94a031 3f74fa0b 3e931f35 3f75341d     1..>..t?5..>.4u?
    e884:	3e919ddd 3f756d97 3e901c2c 3f75a67b     ...>.mu?,..>{.u?
    e894:	3e8e9a22 3f75dec6 3e8d17c0 3f76167a     "..>..u?...>z.v?
    e8a4:	3e8b9507 3f764d97 3e8a11f8 3f76841b     ...>.Mv?...>..v?
    e8b4:	3e888e93 3f76ba07 3e870ada 3f76ef5b     ...>..v?...>[.v?
    e8c4:	3e8586ce 3f772417 3e840270 3f77583a     ...>.$w?p..>:Xw?
    e8d4:	3e827dc0 3f778bc5 3e80f8c0 3f77beb7     .}.>..w?...>..w?
    e8e4:	3e7ee6e1 3f77f110 3e7bdba4 3f7822d1     ..~>..w?..{>."x?
    e8f4:	3e78cfcc 3f7853f8 3e75c35a 3f788486     ..x>.Sx?Z.u>..x?
    e904:	3e72b651 3f78b47b 3e6fa8b2 3f78e3d6     Q.r>{.x?..o>..x?
    e914:	3e6c9a7f 3f791298 3e698bba 3f7940c0     ..l>..y?..i>.@y?
    e924:	3e667c66 3f796e4e 3e636c83 3f799b43     f|f>Nny?.lc>C.y?
    e934:	3e605c13 3f79c79d 3e5d4b1a 3f79f35e     .\`>..y?.K]>^.y?
    e944:	3e5a3997 3f7a1e84 3e57278f 3f7a4910     .9Z>..z?.'W>.Iz?
    e954:	3e541501 3f7a7302 3e5101f1 3f7a9c59     ..T>.sz?..Q>Y.z?
    e964:	3e4dee60 3f7ac516 3e4ada4f 3f7aed37     `.M>..z?O.J>7.z?
    e974:	3e47c5c2 3f7b14be 3e44b0b9 3f7b3bab     ..G>..{?..D>.;{?
    e984:	3e419b37 3f7b61fc 3e3e853e 3f7b87b2     7.A>.a{?>.>>..{?
    e994:	3e3b6ecf 3f7baccd 3e3857ec 3f7bd14d     .n;>..{?.W8>M.{?
    e9a4:	3e354098 3f7bf531 3e3228d4 3f7c187a     .@5>1.{?.(2>z.|?
    e9b4:	3e2f10a2 3f7c3b28 3e2bf804 3f7c5d3a     ../>(;|?..+>:]|?
    e9c4:	3e28defc 3f7c7eb0 3e25c58c 3f7c9f8a     ..(>.~|?..%>..|?
    e9d4:	3e22abb6 3f7cbfc9 3e1f917b 3f7cdf6c     ..">..|?{..>l.|?
    e9e4:	3e1c76de 3f7cfe73 3e195be0 3f7d1cdd     .v.>s.|?.[.>..}?
    e9f4:	3e164083 3f7d3aac 3e1324ca 3f7d57de     .@.>.:}?.$.>.W}?
    ea04:	3e1008b7 3f7d7474 3e0cec4a 3f7d906e     ...>tt}?J..>n.}?
    ea14:	3e09cf86 3f7dabcc 3e06b26e 3f7dc68c     ...>..}?n..>..}?
    ea24:	3e039502 3f7de0b1 3e007745 3f7dfa38     ...>..}?Ew.>8.}?
    ea34:	3dfab273 3f7e1324 3df475c0 3f7e2b72     s..=$.~?.u.=r+~?
    ea44:	3dee3876 3f7e4323 3de7fa9a 3f7e5a38     v8.=#C~?...=8Z~?
    ea54:	3de1bc2e 3f7e70b0 3ddb7d37 3f7e868b     ...=.p~?7}.=..~?
    ea64:	3dd53db9 3f7e9bc9 3dcefdb7 3f7eb069     .=.=..~?...=i.~?
    ea74:	3dc8bd36 3f7ec46d 3dc27c39 3f7ed7d4     6..=m.~?9|.=..~?
    ea84:	3dbc3ac3 3f7eea9d 3db5f8da 3f7efcc9     .:.=..~?...=..~?
    ea94:	3dafb680 3f7f0e58 3da973ba 3f7f1f49     ...=X..?.s.=I..?
    eaa4:	3da3308c 3f7f2f9d 3d9cecf9 3f7f3f54     .0.=./.?...=T?.?
    eab4:	3d96a905 3f7f4e6d 3d9064b4 3f7f5ce9     ...=mN.?.d.=.\.?
    eac4:	3d8a200a 3f7f6ac7 3d83db0a 3f7f7808     . .=.j.?...=.x.?
    ead4:	3d7b2b74 3f7f84ab 3d6ea038 3f7f90b1     t+{=...?8.n=...?
    eae4:	3d621468 3f7f9c18 3d55880e 3f7fa6e3     h.b=...?..U=...?
    eaf4:	3d48fb2f 3f7fb10f 3d3c6dd5 3f7fba9e     /.H=...?.m<=...?
    eb04:	3d2fe007 3f7fc38f 3d2351cc 3f7fcbe2     ../=...?.Q#=...?
    eb14:	3d16c32c 3f7fd398 3d0a342f 3f7fdaaf     ,..=...?/4.=...?
    eb24:	3cfb49b9 3f7fe129 3ce22a7b 3f7fe705     .I.<)..?{*.<...?
    eb34:	3cc90ab0 3f7fec43 3cafea69 3f7ff0e3     ...<C..?i..<...?
    eb44:	3c96c9b6 3f7ff4e6 3c7b514b 3f7ff84a     ...<...?KQ{<J..?
    eb54:	3c490e90 3f7ffb11 3c16cb59 3f7ffd39     ..I<...?Y..<9..?
    eb64:	3bc90f89 3f7ffec4 3b490fc7 3f7fffb1     ...;...?..I;...?
    eb74:	00000000 3f800000 bb490fc7 3f7fffb1     .......?..I....?
    eb84:	bbc90f89 3f7ffec4 bc16cb59 3f7ffd39     .......?Y...9..?
    eb94:	bc490e90 3f7ffb11 bc7b514b 3f7ff84a     ..I....?KQ{.J..?
    eba4:	bc96c9b6 3f7ff4e6 bcafea69 3f7ff0e3     .......?i......?
    ebb4:	bcc90ab0 3f7fec43 bce22a7b 3f7fe705     ....C..?{*.....?
    ebc4:	bcfb49b9 3f7fe129 bd0a342f 3f7fdaaf     .I..)..?/4.....?
    ebd4:	bd16c32c 3f7fd398 bd2351cc 3f7fcbe2     ,......?.Q#....?
    ebe4:	bd2fe007 3f7fc38f bd3c6dd5 3f7fba9e     ../....?.m<....?
    ebf4:	bd48fb2f 3f7fb10f bd55880e 3f7fa6e3     /.H....?..U....?
    ec04:	bd621468 3f7f9c18 bd6ea038 3f7f90b1     h.b....?8.n....?
    ec14:	bd7b2b74 3f7f84ab bd83db0a 3f7f7808     t+{....?.....x.?
    ec24:	bd8a200a 3f7f6ac7 bd9064b4 3f7f5ce9     . ...j.?.d...\.?
    ec34:	bd96a905 3f7f4e6d bd9cecf9 3f7f3f54     ....mN.?....T?.?
    ec44:	bda3308c 3f7f2f9d bda973ba 3f7f1f49     .0.../.?.s..I..?
    ec54:	bdafb680 3f7f0e58 bdb5f8da 3f7efcc9     ....X..?......~?
    ec64:	bdbc3ac3 3f7eea9d bdc27c39 3f7ed7d4     .:....~?9|....~?
    ec74:	bdc8bd36 3f7ec46d bdcefdb7 3f7eb069     6...m.~?....i.~?
    ec84:	bdd53db9 3f7e9bc9 bddb7d37 3f7e868b     .=....~?7}....~?
    ec94:	bde1bc2e 3f7e70b0 bde7fa9a 3f7e5a38     .....p~?....8Z~?
    eca4:	bdee3876 3f7e4323 bdf475c0 3f7e2b72     v8..#C~?.u..r+~?
    ecb4:	bdfab273 3f7e1324 be007745 3f7dfa38     s...$.~?Ew..8.}?
    ecc4:	be039502 3f7de0b1 be06b26e 3f7dc68c     ......}?n.....}?
    ecd4:	be09cf86 3f7dabcc be0cec4a 3f7d906e     ......}?J...n.}?
    ece4:	be1008b7 3f7d7474 be1324ca 3f7d57de     ....tt}?.$...W}?
    ecf4:	be164083 3f7d3aac be195be0 3f7d1cdd     .@...:}?.[....}?
    ed04:	be1c76de 3f7cfe73 be1f917b 3f7cdf6c     .v..s.|?{...l.|?
    ed14:	be22abb6 3f7cbfc9 be25c58c 3f7c9f8a     .."...|?..%...|?
    ed24:	be28defc 3f7c7eb0 be2bf804 3f7c5d3a     ..(..~|?..+.:]|?
    ed34:	be2f10a2 3f7c3b28 be3228d4 3f7c187a     ../.(;|?.(2.z.|?
    ed44:	be354098 3f7bf531 be3857ec 3f7bd14d     .@5.1.{?.W8.M.{?
    ed54:	be3b6ecf 3f7baccd be3e853e 3f7b87b2     .n;...{?>.>...{?
    ed64:	be419b37 3f7b61fc be44b0b9 3f7b3bab     7.A..a{?..D..;{?
    ed74:	be47c5c2 3f7b14be be4ada4f 3f7aed37     ..G...{?O.J.7.z?
    ed84:	be4dee60 3f7ac516 be5101f1 3f7a9c59     `.M...z?..Q.Y.z?
    ed94:	be541501 3f7a7302 be57278f 3f7a4910     ..T..sz?.'W..Iz?
    eda4:	be5a3997 3f7a1e84 be5d4b1a 3f79f35e     .9Z...z?.K].^.y?
    edb4:	be605c13 3f79c79d be636c83 3f799b43     .\`...y?.lc.C.y?
    edc4:	be667c66 3f796e4e be698bba 3f7940c0     f|f.Nny?..i..@y?
    edd4:	be6c9a7f 3f791298 be6fa8b2 3f78e3d6     ..l...y?..o...x?
    ede4:	be72b651 3f78b47b be75c35a 3f788486     Q.r.{.x?Z.u...x?
    edf4:	be78cfcc 3f7853f8 be7bdba4 3f7822d1     ..x..Sx?..{.."x?
    ee04:	be7ee6e1 3f77f110 be80f8c0 3f77beb7     ..~...w?......w?
    ee14:	be827dc0 3f778bc5 be840270 3f77583a     .}....w?p...:Xw?
    ee24:	be8586ce 3f772417 be870ada 3f76ef5b     .....$w?....[.v?
    ee34:	be888e93 3f76ba07 be8a11f8 3f76841b     ......v?......v?
    ee44:	be8b9507 3f764d97 be8d17c0 3f76167a     .....Mv?....z.v?
    ee54:	be8e9a22 3f75dec6 be901c2c 3f75a67b     ".....u?,...{.u?
    ee64:	be919ddd 3f756d97 be931f35 3f75341d     .....mu?5....4u?
    ee74:	be94a031 3f74fa0b be9620d2 3f74bf62     1.....t?. ..b.t?
    ee84:	be97a117 3f748422 be9920fe 3f74484b     ....".t?. ..KHt?
    ee94:	be9aa086 3f740bdd be9c1faf 3f73ced9     ......t?......s?
    eea4:	be9d9e78 3f73913f be9f1cdf 3f73530e     x...?.s?.....Ss?
    eeb4:	bea09ae5 3f731447 bea21887 3f72d4eb     ....G.s?......r?
    eec4:	bea395c5 3f7294f8 bea5129f 3f725470     ......r?....pTr?
    eed4:	bea68f12 3f721352 bea80b1f 3f71d19f     ....R.r?......q?
    eee4:	bea986c4 3f718f57 beab0201 3f714c7a     ....W.q?....zLq?
    eef4:	beac7cd4 3f710908 beadf73c 3f70c502     .|....q?<.....p?
    ef04:	beaf713a 3f708066 beb0eacb 3f703b37     :q..f.p?....7;p?
    ef14:	beb263ef 3f6ff573 beb3dca5 3f6faf1b     .c..s.o?......o?
    ef24:	beb554ec 3f6f6830 beb6ccc3 3f6f20b0     .T..0ho?..... o?
    ef34:	beb8442a 3f6ed89e beb9bb1e 3f6e8ff8     *D....n?......n?
    ef44:	bebb31a0 3f6e46be bebca7af 3f6dfcf2     .1...Fn?......m?
    ef54:	bebe1d4a 3f6db293 bebf926f 3f6d67a1     J.....m?o....gm?
    ef64:	bec1071e 3f6d1c1d bec27b55 3f6cd007     ......m?U{....l?
    ef74:	bec3ef15 3f6c835e bec5625c 3f6c3624     ....^.l?\b..$6l?
    ef84:	bec6d529 3f6be858 bec8477c 3f6b99fb     )...X.k?|G....k?
    ef94:	bec9b953 3f6b4b0c becb2aae 3f6afb8c     S....Kk?.*....j?
    efa4:	becc9b8b 3f6aab7b bece0bea 3f6a5ad9     ....{.j?.....Zj?
    efb4:	becf7bca 3f6a09a7 bed0eb2a 3f69b7e4     .{....j?*.....i?
    efc4:	bed25a09 3f696591 bed3c867 3f6912ae     .Z...ei?g.....i?
    efd4:	bed53641 3f68bf3c bed6a399 3f686b39     A6..<.h?....9kh?
    efe4:	bed8106b 3f6816a8 bed97cb9 3f67c187     k.....h?.|....g?
    eff4:	bedae880 3f676bd8 bedc53c1 3f671599     .....kg?.S....g?
    f004:	beddbe79 3f66becc bedf28a9 3f666771     y.....f?.(..qgf?
    f014:	bee0924f 3f660f88 bee1fb6a 3f65b710     O.....f?j.....e?
    f024:	bee363fa 3f655e0b bee4cbfe 3f650479     .c...^e?....y.e?
    f034:	bee63375 3f64aa59 bee79a5d 3f644fac     u3..Y.d?]....Od?
    f044:	bee900b7 3f63f473 beea6681 3f6398ac     ....s.c?.f....c?
    f054:	beebcbbb 3f633c5a beed3063 3f62df7b     ....Z<c?c0..{.b?
    f064:	beee9479 3f628210 beeff7fb 3f62241a     y.....b?.....$b?
    f074:	bef15aea 3f61c598 bef2bd43 3f61668a     .Z....a?C....fa?
    f084:	bef41f07 3f6106f2 bef58035 3f60a6cf     ......a?5.....`?
    f094:	bef6e0cb 3f604621 bef840c8 3f5fe4e9     ....!F`?.@...._?
    f0a4:	bef9a02d 3f5f8327 befafef7 3f5f20db     -...'._?..... _?
    f0b4:	befc5d27 3f5ebe05 befdbabb 3f5e5aa6     ']....^?.....Z^?
    f0c4:	beff17b2 3f5df6be bf003a06 3f5d924d     ......]?.:..M.]?
    f0d4:	bf00e7e4 3f5d2d53 bf019573 3f5cc7d1     ....S-]?s.....\?
    f0e4:	bf0242b1 3f5c61c7 bf02ef9f 3f5bfb34     .B...a\?....4.[?
    f0f4:	bf039c3d 3f5b941a bf044889 3f5b2c79     =.....[?.H..y,[?
    f104:	bf04f484 3f5ac450 bf05a02c 3f5a5ba0     ....P.Z?,....[Z?
    f114:	bf064b82 3f59f26a bf06f686 3f5988ad     .K..j.Y?......Y?
    f124:	bf07a136 3f591e6a bf084b92 3f58b3a1     6...j.Y?.K....X?
    f134:	bf08f59b 3f584853 bf099f4e 3f57dc7f     ....SHX?N.....W?
    f144:	bf0a48ad 3f577026 bf0af1b7 3f570348     .H..&pW?....H.W?
    f154:	bf0b9a6b 3f5695e5 bf0c42c9 3f5627fe     k.....V?.B...'V?
    f164:	bf0cead0 3f55b993 bf0d9281 3f554aa4     ......U?.....JU?
    f174:	bf0e39da 3f54db31 bf0ee0db 3f546b3b     .9..1.T?....;kT?
    f184:	bf0f8784 3f53fac3 bf102dd5 3f5389c7     ......S?.-....S?
    f194:	bf10d3cd 3f531849 bf11796b 3f52a649     ....I.S?ky..I.R?
    f1a4:	bf121eb0 3f5233c6 bf12c39a 3f51c0c2     .....3R?......Q?
    f1b4:	bf13682a 3f514d3d bf140c5f 3f50d937     *h..=MQ?_...7.P?
    f1c4:	bf14b039 3f5064af bf1553b7 3f4fefa8     9....dP?.S....O?
    f1d4:	bf15f6d9 3f4f7a1f bf16999f 3f4f0417     .....zO?......O?
    f1e4:	bf173c07 3f4e8d90 bf17de12 3f4e1689     .<....N?......N?
    f1f4:	bf187fc0 3f4d9f02 bf19210f 3f4d26fd     ......M?.!...&M?
    f204:	bf19c200 3f4cae79 bf1a6293 3f4c3578     ....y.L?.b..x5L?
    f214:	bf1b02c6 3f4bbbf8 bf1ba299 3f4b41fa     ......K?.....AK?
    f224:	bf1c420c 3f4ac77f bf1ce11f 3f4a4c87     .B....J?.....LJ?
    f234:	bf1d7fd1 3f49d112 bf1e1e22 3f495521     ......I?"...!UI?
    f244:	bf1ebc12 3f48d8b3 bf1f599f 3f485bca     ......H?.Y...[H?
    f254:	bf1ff6cb 3f47de65 bf209393 3f476085     ....e.G?.. ..`G?
    f264:	bf212ff9 3f46e22a bf21cbfb 3f466354     ./!.*.F?..!.TcF?
    f274:	bf226799 3f45e403 bf2302d3 3f456439     .g"...E?..#.9dE?
    f284:	bf239da9 3f44e3f5 bf24381a 3f446337     ..#...D?.8$.7cD?
    f294:	bf24d225 3f43e200 bf256bcb 3f436051     %.$...C?.k%.Q`C?
    f2a4:	bf26050a 3f42de29 bf269de3 3f425b89     ..&.).B?..&..[B?
    f2b4:	bf273656 3f41d870 bf27ce61 3f4154e1     V6'.p.A?a.'..TA?
    f2c4:	bf286605 3f40d0da bf28fd41 3f404c5c     .f(...@?A.(.\L@?
    f2d4:	bf299415 3f3fc767 bf2a2a80 3f3f41fc     ..).g.??.**..A??
    f2e4:	bf2ac082 3f3ebc1b bf2b561b 3f3e35c5     ..*...>?.V+..5>?
    f2f4:	bf2beb4a 3f3daef9 bf2c800f 3f3d27b8     J.+...=?..,..'=?
    f304:	bf2d1469 3f3ca003 bf2da859 3f3c17d9     i.-...<?Y.-...<?
    f314:	bf2e3bde 3f3b8f3b bf2ecef7 3f3b0629     .;..;.;?....).;?
    f324:	bf2f61a5 3f3a7ca4 bf2ff3e6 3f39f2ac     .a/..|:?../...9?
    f334:	bf3085bb 3f396842 bf311722 3f38dd65     ..0.Bh9?".1.e.8?
    f344:	bf31a81d 3f385216 bf3238aa 3f37c655     ..1..R8?.82.U.7?
    f354:	bf32c8c9 3f373a23 bf33587a 3f36ad7f     ..2.#:7?zX3...6?
    f364:	bf33e7bc 3f36206c bf34768f 3f3592e7     ..3.l 6?.v4...5?
    f374:	bf3504f3 3f3504f3 bf3592e7 3f34768f     ..5...5?..5..v4?
    f384:	bf36206c 3f33e7bc bf36ad7f 3f33587a     l 6...3?..6.zX3?
    f394:	bf373a23 3f32c8c9 bf37c655 3f3238aa     #:7...2?U.7..82?
    f3a4:	bf385216 3f31a81d bf38dd65 3f311722     .R8...1?e.8.".1?
    f3b4:	bf396842 3f3085bb bf39f2ac 3f2ff3e6     Bh9...0?..9.../?
    f3c4:	bf3a7ca4 3f2f61a5 bf3b0629 3f2ecef7     .|:..a/?).;....?
    f3d4:	bf3b8f3b 3f2e3bde bf3c17d9 3f2da859     ;.;..;.?..<.Y.-?
    f3e4:	bf3ca003 3f2d1469 bf3d27b8 3f2c800f     ..<.i.-?.'=...,?
    f3f4:	bf3daef9 3f2beb4a bf3e35c5 3f2b561b     ..=.J.+?.5>..V+?
    f404:	bf3ebc1b 3f2ac082 bf3f41fc 3f2a2a80     ..>...*?.A?..**?
    f414:	bf3fc767 3f299415 bf404c5c 3f28fd41     g.?...)?\L@.A.(?
    f424:	bf40d0da 3f286605 bf4154e1 3f27ce61     ..@..f(?.TA.a.'?
    f434:	bf41d870 3f273656 bf425b89 3f269de3     p.A.V6'?.[B...&?
    f444:	bf42de29 3f26050a bf436051 3f256bcb     ).B...&?Q`C..k%?
    f454:	bf43e200 3f24d225 bf446337 3f24381a     ..C.%.$?7cD..8$?
    f464:	bf44e3f5 3f239da9 bf456439 3f2302d3     ..D...#?9dE...#?
    f474:	bf45e403 3f226799 bf466354 3f21cbfb     ..E..g"?TcF...!?
    f484:	bf46e22a 3f212ff9 bf476085 3f209393     *.F../!?.`G... ?
    f494:	bf47de65 3f1ff6cb bf485bca 3f1f599f     e.G....?.[H..Y.?
    f4a4:	bf48d8b3 3f1ebc12 bf495521 3f1e1e22     ..H....?!UI."..?
    f4b4:	bf49d112 3f1d7fd1 bf4a4c87 3f1ce11f     ..I....?.LJ....?
    f4c4:	bf4ac77f 3f1c420c bf4b41fa 3f1ba299     ..J..B.?.AK....?
    f4d4:	bf4bbbf8 3f1b02c6 bf4c3578 3f1a6293     ..K....?x5L..b.?
    f4e4:	bf4cae79 3f19c200 bf4d26fd 3f19210f     y.L....?.&M..!.?
    f4f4:	bf4d9f02 3f187fc0 bf4e1689 3f17de12     ..M....?..N....?
    f504:	bf4e8d90 3f173c07 bf4f0417 3f16999f     ..N..<.?..O....?
    f514:	bf4f7a1f 3f15f6d9 bf4fefa8 3f1553b7     .zO....?..O..S.?
    f524:	bf5064af 3f14b039 bf50d937 3f140c5f     .dP.9..?7.P._..?
    f534:	bf514d3d 3f13682a bf51c0c2 3f12c39a     =MQ.*h.?..Q....?
    f544:	bf5233c6 3f121eb0 bf52a649 3f11796b     .3R....?I.R.ky.?
    f554:	bf531849 3f10d3cd bf5389c7 3f102dd5     I.S....?..S..-.?
    f564:	bf53fac3 3f0f8784 bf546b3b 3f0ee0db     ..S....?;kT....?
    f574:	bf54db31 3f0e39da bf554aa4 3f0d9281     1.T..9.?.JU....?
    f584:	bf55b993 3f0cead0 bf5627fe 3f0c42c9     ..U....?.'V..B.?
    f594:	bf5695e5 3f0b9a6b bf570348 3f0af1b7     ..V.k..?H.W....?
    f5a4:	bf577026 3f0a48ad bf57dc7f 3f099f4e     &pW..H.?..W.N..?
    f5b4:	bf584853 3f08f59b bf58b3a1 3f084b92     SHX....?..X..K.?
    f5c4:	bf591e6a 3f07a136 bf5988ad 3f06f686     j.Y.6..?..Y....?
    f5d4:	bf59f26a 3f064b82 bf5a5ba0 3f05a02c     j.Y..K.?.[Z.,..?
    f5e4:	bf5ac450 3f04f484 bf5b2c79 3f044889     P.Z....?y,[..H.?
    f5f4:	bf5b941a 3f039c3d bf5bfb34 3f02ef9f     ..[.=..?4.[....?
    f604:	bf5c61c7 3f0242b1 bf5cc7d1 3f019573     .a\..B.?..\.s..?
    f614:	bf5d2d53 3f00e7e4 bf5d924d 3f003a06     S-]....?M.]..:.?
    f624:	bf5df6be 3eff17b2 bf5e5aa6 3efdbabb     ..]....>.Z^....>
    f634:	bf5ebe05 3efc5d27 bf5f20db 3efafef7     ..^.'].>. _....>
    f644:	bf5f8327 3ef9a02d bf5fe4e9 3ef840c8     '._.-..>.._..@.>
    f654:	bf604621 3ef6e0cb bf60a6cf 3ef58035     !F`....>..`.5..>
    f664:	bf6106f2 3ef41f07 bf61668a 3ef2bd43     ..a....>.fa.C..>
    f674:	bf61c598 3ef15aea bf62241a 3eeff7fb     ..a..Z.>.$b....>
    f684:	bf628210 3eee9479 bf62df7b 3eed3063     ..b.y..>{.b.c0.>
    f694:	bf633c5a 3eebcbbb bf6398ac 3eea6681     Z<c....>..c..f.>
    f6a4:	bf63f473 3ee900b7 bf644fac 3ee79a5d     s.c....>.Od.]..>
    f6b4:	bf64aa59 3ee63375 bf650479 3ee4cbfe     Y.d.u3.>y.e....>
    f6c4:	bf655e0b 3ee363fa bf65b710 3ee1fb6a     .^e..c.>..e.j..>
    f6d4:	bf660f88 3ee0924f bf666771 3edf28a9     ..f.O..>qgf..(.>
    f6e4:	bf66becc 3eddbe79 bf671599 3edc53c1     ..f.y..>..g..S.>
    f6f4:	bf676bd8 3edae880 bf67c187 3ed97cb9     .kg....>..g..|.>
    f704:	bf6816a8 3ed8106b bf686b39 3ed6a399     ..h.k..>9kh....>
    f714:	bf68bf3c 3ed53641 bf6912ae 3ed3c867     <.h.A6.>..i.g..>
    f724:	bf696591 3ed25a09 bf69b7e4 3ed0eb2a     .ei..Z.>..i.*..>
    f734:	bf6a09a7 3ecf7bca bf6a5ad9 3ece0bea     ..j..{.>.Zj....>
    f744:	bf6aab7b 3ecc9b8b bf6afb8c 3ecb2aae     {.j....>..j..*.>
    f754:	bf6b4b0c 3ec9b953 bf6b99fb 3ec8477c     .Kk.S..>..k.|G.>
    f764:	bf6be858 3ec6d529 bf6c3624 3ec5625c     X.k.)..>$6l.\b.>
    f774:	bf6c835e 3ec3ef15 bf6cd007 3ec27b55     ^.l....>..l.U{.>
    f784:	bf6d1c1d 3ec1071e bf6d67a1 3ebf926f     ..m....>.gm.o..>
    f794:	bf6db293 3ebe1d4a bf6dfcf2 3ebca7af     ..m.J..>..m....>
    f7a4:	bf6e46be 3ebb31a0 bf6e8ff8 3eb9bb1e     .Fn..1.>..n....>
    f7b4:	bf6ed89e 3eb8442a bf6f20b0 3eb6ccc3     ..n.*D.>. o....>
    f7c4:	bf6f6830 3eb554ec bf6faf1b 3eb3dca5     0ho..T.>..o....>
    f7d4:	bf6ff573 3eb263ef bf703b37 3eb0eacb     s.o..c.>7;p....>
    f7e4:	bf708066 3eaf713a bf70c502 3eadf73c     f.p.:q.>..p.<..>
    f7f4:	bf710908 3eac7cd4 bf714c7a 3eab0201     ..q..|.>zLq....>
    f804:	bf718f57 3ea986c4 bf71d19f 3ea80b1f     W.q....>..q....>
    f814:	bf721352 3ea68f12 bf725470 3ea5129f     R.r....>pTr....>
    f824:	bf7294f8 3ea395c5 bf72d4eb 3ea21887     ..r....>..r....>
    f834:	bf731447 3ea09ae5 bf73530e 3e9f1cdf     G.s....>.Ss....>
    f844:	bf73913f 3e9d9e78 bf73ced9 3e9c1faf     ?.s.x..>..s....>
    f854:	bf740bdd 3e9aa086 bf74484b 3e9920fe     ..t....>KHt.. .>
    f864:	bf748422 3e97a117 bf74bf62 3e9620d2     ".t....>b.t.. .>
    f874:	bf74fa0b 3e94a031 bf75341d 3e931f35     ..t.1..>.4u.5..>
    f884:	bf756d97 3e919ddd bf75a67b 3e901c2c     .mu....>{.u.,..>
    f894:	bf75dec6 3e8e9a22 bf76167a 3e8d17c0     ..u."..>z.v....>
    f8a4:	bf764d97 3e8b9507 bf76841b 3e8a11f8     .Mv....>..v....>
    f8b4:	bf76ba07 3e888e93 bf76ef5b 3e870ada     ..v....>[.v....>
    f8c4:	bf772417 3e8586ce bf77583a 3e840270     .$w....>:Xw.p..>
    f8d4:	bf778bc5 3e827dc0 bf77beb7 3e80f8c0     ..w..}.>..w....>
    f8e4:	bf77f110 3e7ee6e1 bf7822d1 3e7bdba4     ..w...~>."x...{>
    f8f4:	bf7853f8 3e78cfcc bf788486 3e75c35a     .Sx...x>..x.Z.u>
    f904:	bf78b47b 3e72b651 bf78e3d6 3e6fa8b2     {.x.Q.r>..x...o>
    f914:	bf791298 3e6c9a7f bf7940c0 3e698bba     ..y...l>.@y...i>
    f924:	bf796e4e 3e667c66 bf799b43 3e636c83     Nny.f|f>C.y..lc>
    f934:	bf79c79d 3e605c13 bf79f35e 3e5d4b1a     ..y..\`>^.y..K]>
    f944:	bf7a1e84 3e5a3997 bf7a4910 3e57278f     ..z..9Z>.Iz..'W>
    f954:	bf7a7302 3e541501 bf7a9c59 3e5101f1     .sz...T>Y.z...Q>
    f964:	bf7ac516 3e4dee60 bf7aed37 3e4ada4f     ..z.`.M>7.z.O.J>
    f974:	bf7b14be 3e47c5c2 bf7b3bab 3e44b0b9     ..{...G>.;{...D>
    f984:	bf7b61fc 3e419b37 bf7b87b2 3e3e853e     .a{.7.A>..{.>.>>
    f994:	bf7baccd 3e3b6ecf bf7bd14d 3e3857ec     ..{..n;>M.{..W8>
    f9a4:	bf7bf531 3e354098 bf7c187a 3e3228d4     1.{..@5>z.|..(2>
    f9b4:	bf7c3b28 3e2f10a2 bf7c5d3a 3e2bf804     (;|.../>:]|...+>
    f9c4:	bf7c7eb0 3e28defc bf7c9f8a 3e25c58c     .~|...(>..|...%>
    f9d4:	bf7cbfc9 3e22abb6 bf7cdf6c 3e1f917b     ..|...">l.|.{..>
    f9e4:	bf7cfe73 3e1c76de bf7d1cdd 3e195be0     s.|..v.>..}..[.>
    f9f4:	bf7d3aac 3e164083 bf7d57de 3e1324ca     .:}..@.>.W}..$.>
    fa04:	bf7d7474 3e1008b7 bf7d906e 3e0cec4a     tt}....>n.}.J..>
    fa14:	bf7dabcc 3e09cf86 bf7dc68c 3e06b26e     ..}....>..}.n..>
    fa24:	bf7de0b1 3e039502 bf7dfa38 3e007745     ..}....>8.}.Ew.>
    fa34:	bf7e1324 3dfab273 bf7e2b72 3df475c0     $.~.s..=r+~..u.=
    fa44:	bf7e4323 3dee3876 bf7e5a38 3de7fa9a     #C~.v8.=8Z~....=
    fa54:	bf7e70b0 3de1bc2e bf7e868b 3ddb7d37     .p~....=..~.7}.=
    fa64:	bf7e9bc9 3dd53db9 bf7eb069 3dcefdb7     ..~..=.=i.~....=
    fa74:	bf7ec46d 3dc8bd36 bf7ed7d4 3dc27c39     m.~.6..=..~.9|.=
    fa84:	bf7eea9d 3dbc3ac3 bf7efcc9 3db5f8da     ..~..:.=..~....=
    fa94:	bf7f0e58 3dafb680 bf7f1f49 3da973ba     X......=I....s.=
    faa4:	bf7f2f9d 3da3308c bf7f3f54 3d9cecf9     ./...0.=T?.....=
    fab4:	bf7f4e6d 3d96a905 bf7f5ce9 3d9064b4     mN.....=.\...d.=
    fac4:	bf7f6ac7 3d8a200a bf7f7808 3d83db0a     .j... .=.x.....=
    fad4:	bf7f84ab 3d7b2b74 bf7f90b1 3d6ea038     ....t+{=....8.n=
    fae4:	bf7f9c18 3d621468 bf7fa6e3 3d55880e     ....h.b=......U=
    faf4:	bf7fb10f 3d48fb2f bf7fba9e 3d3c6dd5     ..../.H=.....m<=
    fb04:	bf7fc38f 3d2fe007 bf7fcbe2 3d2351cc     ....../=.....Q#=
    fb14:	bf7fd398 3d16c32c bf7fdaaf 3d0a342f     ....,..=..../4.=
    fb24:	bf7fe129 3cfb49b9 bf7fe705 3ce22a7b     )....I.<....{*.<
    fb34:	bf7fec43 3cc90ab0 bf7ff0e3 3cafea69     C......<....i..<
    fb44:	bf7ff4e6 3c96c9b6 bf7ff84a 3c7b514b     .......<J...KQ{<
    fb54:	bf7ffb11 3c490e90 bf7ffd39 3c16cb59     ......I<9...Y..<
    fb64:	bf7ffec4 3bc90f89 bf7fffb1 3b490fc7     .......;......I;
    fb74:	bf800000 00000000 bf7fffb1 bb490fc7     ..............I.
    fb84:	bf7ffec4 bbc90f89 bf7ffd39 bc16cb59     ........9...Y...
    fb94:	bf7ffb11 bc490e90 bf7ff84a bc7b514b     ......I.J...KQ{.
    fba4:	bf7ff4e6 bc96c9b6 bf7ff0e3 bcafea69     ............i...
    fbb4:	bf7fec43 bcc90ab0 bf7fe705 bce22a7b     C...........{*..
    fbc4:	bf7fe129 bcfb49b9 bf7fdaaf bd0a342f     )....I....../4..
    fbd4:	bf7fd398 bd16c32c bf7fcbe2 bd2351cc     ....,........Q#.
    fbe4:	bf7fc38f bd2fe007 bf7fba9e bd3c6dd5     ....../......m<.
    fbf4:	bf7fb10f bd48fb2f bf7fa6e3 bd55880e     ..../.H.......U.
    fc04:	bf7f9c18 bd621468 bf7f90b1 bd6ea038     ....h.b.....8.n.
    fc14:	bf7f84ab bd7b2b74 bf7f7808 bd83db0a     ....t+{..x......
    fc24:	bf7f6ac7 bd8a200a bf7f5ce9 bd9064b4     .j... ...\...d..
    fc34:	bf7f4e6d bd96a905 bf7f3f54 bd9cecf9     mN......T?......
    fc44:	bf7f2f9d bda3308c bf7f1f49 bda973ba     ./...0..I....s..
    fc54:	bf7f0e58 bdafb680 bf7efcc9 bdb5f8da     X.........~.....
    fc64:	bf7eea9d bdbc3ac3 bf7ed7d4 bdc27c39     ..~..:....~.9|..
    fc74:	bf7ec46d bdc8bd36 bf7eb069 bdcefdb7     m.~.6...i.~.....
    fc84:	bf7e9bc9 bdd53db9 bf7e868b bddb7d37     ..~..=....~.7}..
    fc94:	bf7e70b0 bde1bc2e bf7e5a38 bde7fa9a     .p~.....8Z~.....
    fca4:	bf7e4323 bdee3876 bf7e2b72 bdf475c0     #C~.v8..r+~..u..
    fcb4:	bf7e1324 bdfab273 bf7dfa38 be007745     $.~.s...8.}.Ew..
    fcc4:	bf7de0b1 be039502 bf7dc68c be06b26e     ..}.......}.n...
    fcd4:	bf7dabcc be09cf86 bf7d906e be0cec4a     ..}.....n.}.J...
    fce4:	bf7d7474 be1008b7 bf7d57de be1324ca     tt}......W}..$..
    fcf4:	bf7d3aac be164083 bf7d1cdd be195be0     .:}..@....}..[..
    fd04:	bf7cfe73 be1c76de bf7cdf6c be1f917b     s.|..v..l.|.{...
    fd14:	bf7cbfc9 be22abb6 bf7c9f8a be25c58c     ..|..."...|...%.
    fd24:	bf7c7eb0 be28defc bf7c5d3a be2bf804     .~|...(.:]|...+.
    fd34:	bf7c3b28 be2f10a2 bf7c187a be3228d4     (;|.../.z.|..(2.
    fd44:	bf7bf531 be354098 bf7bd14d be3857ec     1.{..@5.M.{..W8.
    fd54:	bf7baccd be3b6ecf bf7b87b2 be3e853e     ..{..n;...{.>.>.
    fd64:	bf7b61fc be419b37 bf7b3bab be44b0b9     .a{.7.A..;{...D.
    fd74:	bf7b14be be47c5c2 bf7aed37 be4ada4f     ..{...G.7.z.O.J.
    fd84:	bf7ac516 be4dee60 bf7a9c59 be5101f1     ..z.`.M.Y.z...Q.
    fd94:	bf7a7302 be541501 bf7a4910 be57278f     .sz...T..Iz..'W.
    fda4:	bf7a1e84 be5a3997 bf79f35e be5d4b1a     ..z..9Z.^.y..K].
    fdb4:	bf79c79d be605c13 bf799b43 be636c83     ..y..\`.C.y..lc.
    fdc4:	bf796e4e be667c66 bf7940c0 be698bba     Nny.f|f..@y...i.
    fdd4:	bf791298 be6c9a7f bf78e3d6 be6fa8b2     ..y...l...x...o.
    fde4:	bf78b47b be72b651 bf788486 be75c35a     {.x.Q.r...x.Z.u.
    fdf4:	bf7853f8 be78cfcc bf7822d1 be7bdba4     .Sx...x.."x...{.
    fe04:	bf77f110 be7ee6e1 bf77beb7 be80f8c0     ..w...~...w.....
    fe14:	bf778bc5 be827dc0 bf77583a be840270     ..w..}..:Xw.p...
    fe24:	bf772417 be8586ce bf76ef5b be870ada     .$w.....[.v.....
    fe34:	bf76ba07 be888e93 bf76841b be8a11f8     ..v.......v.....
    fe44:	bf764d97 be8b9507 bf76167a be8d17c0     .Mv.....z.v.....
    fe54:	bf75dec6 be8e9a22 bf75a67b be901c2c     ..u."...{.u.,...
    fe64:	bf756d97 be919ddd bf75341d be931f35     .mu......4u.5...
    fe74:	bf74fa0b be94a031 bf74bf62 be9620d2     ..t.1...b.t.. ..
    fe84:	bf748422 be97a117 bf74484b be9920fe     ".t.....KHt.. ..
    fe94:	bf740bdd be9aa086 bf73ced9 be9c1faf     ..t.......s.....
    fea4:	bf73913f be9d9e78 bf73530e be9f1cdf     ?.s.x....Ss.....
    feb4:	bf731447 bea09ae5 bf72d4eb bea21887     G.s.......r.....
    fec4:	bf7294f8 bea395c5 bf725470 bea5129f     ..r.....pTr.....
    fed4:	bf721352 bea68f12 bf71d19f bea80b1f     R.r.......q.....
    fee4:	bf718f57 bea986c4 bf714c7a beab0201     W.q.....zLq.....
    fef4:	bf710908 beac7cd4 bf70c502 beadf73c     ..q..|....p.<...
    ff04:	bf708066 beaf713a bf703b37 beb0eacb     f.p.:q..7;p.....
    ff14:	bf6ff573 beb263ef bf6faf1b beb3dca5     s.o..c....o.....
    ff24:	bf6f6830 beb554ec bf6f20b0 beb6ccc3     0ho..T... o.....
    ff34:	bf6ed89e beb8442a bf6e8ff8 beb9bb1e     ..n.*D....n.....
    ff44:	bf6e46be bebb31a0 bf6dfcf2 bebca7af     .Fn..1....m.....
    ff54:	bf6db293 bebe1d4a bf6d67a1 bebf926f     ..m.J....gm.o...
    ff64:	bf6d1c1d bec1071e bf6cd007 bec27b55     ..m.......l.U{..
    ff74:	bf6c835e bec3ef15 bf6c3624 bec5625c     ^.l.....$6l.\b..
    ff84:	bf6be858 bec6d529 bf6b99fb bec8477c     X.k.).....k.|G..
    ff94:	bf6b4b0c bec9b953 bf6afb8c becb2aae     .Kk.S.....j..*..
    ffa4:	bf6aab7b becc9b8b bf6a5ad9 bece0bea     {.j......Zj.....
    ffb4:	bf6a09a7 becf7bca bf69b7e4 bed0eb2a     ..j..{....i.*...
    ffc4:	bf696591 bed25a09 bf6912ae bed3c867     .ei..Z....i.g...
    ffd4:	bf68bf3c bed53641 bf686b39 bed6a399     <.h.A6..9kh.....
    ffe4:	bf6816a8 bed8106b bf67c187 bed97cb9     ..h.k.....g..|..
    fff4:	bf676bd8 bedae880 bf671599 bedc53c1     .kg.......g..S..
   10004:	bf66becc beddbe79 bf666771 bedf28a9     ..f.y...qgf..(..
   10014:	bf660f88 bee0924f bf65b710 bee1fb6a     ..f.O.....e.j...
   10024:	bf655e0b bee363fa bf650479 bee4cbfe     .^e..c..y.e.....
   10034:	bf64aa59 bee63375 bf644fac bee79a5d     Y.d.u3...Od.]...
   10044:	bf63f473 bee900b7 bf6398ac beea6681     s.c.......c..f..
   10054:	bf633c5a beebcbbb bf62df7b beed3063     Z<c.....{.b.c0..
   10064:	bf628210 beee9479 bf62241a beeff7fb     ..b.y....$b.....
   10074:	bf61c598 bef15aea bf61668a bef2bd43     ..a..Z...fa.C...
   10084:	bf6106f2 bef41f07 bf60a6cf bef58035     ..a.......`.5...
   10094:	bf604621 bef6e0cb bf5fe4e9 bef840c8     !F`......._..@..
   100a4:	bf5f8327 bef9a02d bf5f20db befafef7     '._.-.... _.....
   100b4:	bf5ebe05 befc5d27 bf5e5aa6 befdbabb     ..^.']...Z^.....
   100c4:	bf5df6be beff17b2 bf5d924d bf003a06     ..].....M.]..:..
   100d4:	bf5d2d53 bf00e7e4 bf5cc7d1 bf019573     S-].......\.s...
   100e4:	bf5c61c7 bf0242b1 bf5bfb34 bf02ef9f     .a\..B..4.[.....
   100f4:	bf5b941a bf039c3d bf5b2c79 bf044889     ..[.=...y,[..H..
   10104:	bf5ac450 bf04f484 bf5a5ba0 bf05a02c     P.Z......[Z.,...
   10114:	bf59f26a bf064b82 bf5988ad bf06f686     j.Y..K....Y.....
   10124:	bf591e6a bf07a136 bf58b3a1 bf084b92     j.Y.6.....X..K..
   10134:	bf584853 bf08f59b bf57dc7f bf099f4e     SHX.......W.N...
   10144:	bf577026 bf0a48ad bf570348 bf0af1b7     &pW..H..H.W.....
   10154:	bf5695e5 bf0b9a6b bf5627fe bf0c42c9     ..V.k....'V..B..
   10164:	bf55b993 bf0cead0 bf554aa4 bf0d9281     ..U......JU.....
   10174:	bf54db31 bf0e39da bf546b3b bf0ee0db     1.T..9..;kT.....
   10184:	bf53fac3 bf0f8784 bf5389c7 bf102dd5     ..S.......S..-..
   10194:	bf531849 bf10d3cd bf52a649 bf11796b     I.S.....I.R.ky..
   101a4:	bf5233c6 bf121eb0 bf51c0c2 bf12c39a     .3R.......Q.....
   101b4:	bf514d3d bf13682a bf50d937 bf140c5f     =MQ.*h..7.P._...
   101c4:	bf5064af bf14b039 bf4fefa8 bf1553b7     .dP.9.....O..S..
   101d4:	bf4f7a1f bf15f6d9 bf4f0417 bf16999f     .zO.......O.....
   101e4:	bf4e8d90 bf173c07 bf4e1689 bf17de12     ..N..<....N.....
   101f4:	bf4d9f02 bf187fc0 bf4d26fd bf19210f     ..M......&M..!..
   10204:	bf4cae79 bf19c200 bf4c3578 bf1a6293     y.L.....x5L..b..
   10214:	bf4bbbf8 bf1b02c6 bf4b41fa bf1ba299     ..K......AK.....
   10224:	bf4ac77f bf1c420c bf4a4c87 bf1ce11f     ..J..B...LJ.....
   10234:	bf49d112 bf1d7fd1 bf495521 bf1e1e22     ..I.....!UI."...
   10244:	bf48d8b3 bf1ebc12 bf485bca bf1f599f     ..H......[H..Y..
   10254:	bf47de65 bf1ff6cb bf476085 bf209393     e.G......`G... .
   10264:	bf46e22a bf212ff9 bf466354 bf21cbfb     *.F../!.TcF...!.
   10274:	bf45e403 bf226799 bf456439 bf2302d3     ..E..g".9dE...#.
   10284:	bf44e3f5 bf239da9 bf446337 bf24381a     ..D...#.7cD..8$.
   10294:	bf43e200 bf24d225 bf436051 bf256bcb     ..C.%.$.Q`C..k%.
   102a4:	bf42de29 bf26050a bf425b89 bf269de3     ).B...&..[B...&.
   102b4:	bf41d870 bf273656 bf4154e1 bf27ce61     p.A.V6'..TA.a.'.
   102c4:	bf40d0da bf286605 bf404c5c bf28fd41     ..@..f(.\L@.A.(.
   102d4:	bf3fc767 bf299415 bf3f41fc bf2a2a80     g.?...)..A?..**.
   102e4:	bf3ebc1b bf2ac082 bf3e35c5 bf2b561b     ..>...*..5>..V+.
   102f4:	bf3daef9 bf2beb4a bf3d27b8 bf2c800f     ..=.J.+..'=...,.
   10304:	bf3ca003 bf2d1469 bf3c17d9 bf2da859     ..<.i.-...<.Y.-.
   10314:	bf3b8f3b bf2e3bde bf3b0629 bf2ecef7     ;.;..;..).;.....
   10324:	bf3a7ca4 bf2f61a5 bf39f2ac bf2ff3e6     .|:..a/...9.../.
   10334:	bf396842 bf3085bb bf38dd65 bf311722     Bh9...0.e.8.".1.
   10344:	bf385216 bf31a81d bf37c655 bf3238aa     .R8...1.U.7..82.
   10354:	bf373a23 bf32c8c9 bf36ad7f bf33587a     #:7...2...6.zX3.
   10364:	bf36206c bf33e7bc bf3592e7 bf34768f     l 6...3...5..v4.
   10374:	bf3504f3 bf3504f3 bf34768f bf3592e7     ..5...5..v4...5.
   10384:	bf33e7bc bf36206c bf33587a bf36ad7f     ..3.l 6.zX3...6.
   10394:	bf32c8c9 bf373a23 bf3238aa bf37c655     ..2.#:7..82.U.7.
   103a4:	bf31a81d bf385216 bf311722 bf38dd65     ..1..R8.".1.e.8.
   103b4:	bf3085bb bf396842 bf2ff3e6 bf39f2ac     ..0.Bh9.../...9.
   103c4:	bf2f61a5 bf3a7ca4 bf2ecef7 bf3b0629     .a/..|:.....).;.
   103d4:	bf2e3bde bf3b8f3b bf2da859 bf3c17d9     .;..;.;.Y.-...<.
   103e4:	bf2d1469 bf3ca003 bf2c800f bf3d27b8     i.-...<...,..'=.
   103f4:	bf2beb4a bf3daef9 bf2b561b bf3e35c5     J.+...=..V+..5>.
   10404:	bf2ac082 bf3ebc1b bf2a2a80 bf3f41fc     ..*...>..**..A?.
   10414:	bf299415 bf3fc767 bf28fd41 bf404c5c     ..).g.?.A.(.\L@.
   10424:	bf286605 bf40d0da bf27ce61 bf4154e1     .f(...@.a.'..TA.
   10434:	bf273656 bf41d870 bf269de3 bf425b89     V6'.p.A...&..[B.
   10444:	bf26050a bf42de29 bf256bcb bf436051     ..&.).B..k%.Q`C.
   10454:	bf24d225 bf43e200 bf24381a bf446337     %.$...C..8$.7cD.
   10464:	bf239da9 bf44e3f5 bf2302d3 bf456439     ..#...D...#.9dE.
   10474:	bf226799 bf45e403 bf21cbfb bf466354     .g"...E...!.TcF.
   10484:	bf212ff9 bf46e22a bf209393 bf476085     ./!.*.F... ..`G.
   10494:	bf1ff6cb bf47de65 bf1f599f bf485bca     ....e.G..Y...[H.
   104a4:	bf1ebc12 bf48d8b3 bf1e1e22 bf495521     ......H."...!UI.
   104b4:	bf1d7fd1 bf49d112 bf1ce11f bf4a4c87     ......I......LJ.
   104c4:	bf1c420c bf4ac77f bf1ba299 bf4b41fa     .B....J......AK.
   104d4:	bf1b02c6 bf4bbbf8 bf1a6293 bf4c3578     ......K..b..x5L.
   104e4:	bf19c200 bf4cae79 bf19210f bf4d26fd     ....y.L..!...&M.
   104f4:	bf187fc0 bf4d9f02 bf17de12 bf4e1689     ......M.......N.
   10504:	bf173c07 bf4e8d90 bf16999f bf4f0417     .<....N.......O.
   10514:	bf15f6d9 bf4f7a1f bf1553b7 bf4fefa8     .....zO..S....O.
   10524:	bf14b039 bf5064af bf140c5f bf50d937     9....dP._...7.P.
   10534:	bf13682a bf514d3d bf12c39a bf51c0c2     *h..=MQ.......Q.
   10544:	bf121eb0 bf5233c6 bf11796b bf52a649     .....3R.ky..I.R.
   10554:	bf10d3cd bf531849 bf102dd5 bf5389c7     ....I.S..-....S.
   10564:	bf0f8784 bf53fac3 bf0ee0db bf546b3b     ......S.....;kT.
   10574:	bf0e39da bf54db31 bf0d9281 bf554aa4     .9..1.T......JU.
   10584:	bf0cead0 bf55b993 bf0c42c9 bf5627fe     ......U..B...'V.
   10594:	bf0b9a6b bf5695e5 bf0af1b7 bf570348     k.....V.....H.W.
   105a4:	bf0a48ad bf577026 bf099f4e bf57dc7f     .H..&pW.N.....W.
   105b4:	bf08f59b bf584853 bf084b92 bf58b3a1     ....SHX..K....X.
   105c4:	bf07a136 bf591e6a bf06f686 bf5988ad     6...j.Y.......Y.
   105d4:	bf064b82 bf59f26a bf05a02c bf5a5ba0     .K..j.Y.,....[Z.
   105e4:	bf04f484 bf5ac450 bf044889 bf5b2c79     ....P.Z..H..y,[.
   105f4:	bf039c3d bf5b941a bf02ef9f bf5bfb34     =.....[.....4.[.
   10604:	bf0242b1 bf5c61c7 bf019573 bf5cc7d1     .B...a\.s.....\.
   10614:	bf00e7e4 bf5d2d53 bf003a06 bf5d924d     ....S-]..:..M.].
   10624:	beff17b2 bf5df6be befdbabb bf5e5aa6     ......]......Z^.
   10634:	befc5d27 bf5ebe05 befafef7 bf5f20db     ']....^...... _.
   10644:	bef9a02d bf5f8327 bef840c8 bf5fe4e9     -...'._..@...._.
   10654:	bef6e0cb bf604621 bef58035 bf60a6cf     ....!F`.5.....`.
   10664:	bef41f07 bf6106f2 bef2bd43 bf61668a     ......a.C....fa.
   10674:	bef15aea bf61c598 beeff7fb bf62241a     .Z....a......$b.
   10684:	beee9479 bf628210 beed3063 bf62df7b     y.....b.c0..{.b.
   10694:	beebcbbb bf633c5a beea6681 bf6398ac     ....Z<c..f....c.
   106a4:	bee900b7 bf63f473 bee79a5d bf644fac     ....s.c.]....Od.
   106b4:	bee63375 bf64aa59 bee4cbfe bf650479     u3..Y.d.....y.e.
   106c4:	bee363fa bf655e0b bee1fb6a bf65b710     .c...^e.j.....e.
   106d4:	bee0924f bf660f88 bedf28a9 bf666771     O.....f..(..qgf.
   106e4:	beddbe79 bf66becc bedc53c1 bf671599     y.....f..S....g.
   106f4:	bedae880 bf676bd8 bed97cb9 bf67c187     .....kg..|....g.
   10704:	bed8106b bf6816a8 bed6a399 bf686b39     k.....h.....9kh.
   10714:	bed53641 bf68bf3c bed3c867 bf6912ae     A6..<.h.g.....i.
   10724:	bed25a09 bf696591 bed0eb2a bf69b7e4     .Z...ei.*.....i.
   10734:	becf7bca bf6a09a7 bece0bea bf6a5ad9     .{....j......Zj.
   10744:	becc9b8b bf6aab7b becb2aae bf6afb8c     ....{.j..*....j.
   10754:	bec9b953 bf6b4b0c bec8477c bf6b99fb     S....Kk.|G....k.
   10764:	bec6d529 bf6be858 bec5625c bf6c3624     )...X.k.\b..$6l.
   10774:	bec3ef15 bf6c835e bec27b55 bf6cd007     ....^.l.U{....l.
   10784:	bec1071e bf6d1c1d bebf926f bf6d67a1     ......m.o....gm.
   10794:	bebe1d4a bf6db293 bebca7af bf6dfcf2     J.....m.......m.
   107a4:	bebb31a0 bf6e46be beb9bb1e bf6e8ff8     .1...Fn.......n.
   107b4:	beb8442a bf6ed89e beb6ccc3 bf6f20b0     *D....n...... o.
   107c4:	beb554ec bf6f6830 beb3dca5 bf6faf1b     .T..0ho.......o.
   107d4:	beb263ef bf6ff573 beb0eacb bf703b37     .c..s.o.....7;p.
   107e4:	beaf713a bf708066 beadf73c bf70c502     :q..f.p.<.....p.
   107f4:	beac7cd4 bf710908 beab0201 bf714c7a     .|....q.....zLq.
   10804:	bea986c4 bf718f57 bea80b1f bf71d19f     ....W.q.......q.
   10814:	bea68f12 bf721352 bea5129f bf725470     ....R.r.....pTr.
   10824:	bea395c5 bf7294f8 bea21887 bf72d4eb     ......r.......r.
   10834:	bea09ae5 bf731447 be9f1cdf bf73530e     ....G.s......Ss.
   10844:	be9d9e78 bf73913f be9c1faf bf73ced9     x...?.s.......s.
   10854:	be9aa086 bf740bdd be9920fe bf74484b     ......t.. ..KHt.
   10864:	be97a117 bf748422 be9620d2 bf74bf62     ....".t.. ..b.t.
   10874:	be94a031 bf74fa0b be931f35 bf75341d     1.....t.5....4u.
   10884:	be919ddd bf756d97 be901c2c bf75a67b     .....mu.,...{.u.
   10894:	be8e9a22 bf75dec6 be8d17c0 bf76167a     ".....u.....z.v.
   108a4:	be8b9507 bf764d97 be8a11f8 bf76841b     .....Mv.......v.
   108b4:	be888e93 bf76ba07 be870ada bf76ef5b     ......v.....[.v.
   108c4:	be8586ce bf772417 be840270 bf77583a     .....$w.p...:Xw.
   108d4:	be827dc0 bf778bc5 be80f8c0 bf77beb7     .}....w.......w.
   108e4:	be7ee6e1 bf77f110 be7bdba4 bf7822d1     ..~...w...{.."x.
   108f4:	be78cfcc bf7853f8 be75c35a bf788486     ..x..Sx.Z.u...x.
   10904:	be72b651 bf78b47b be6fa8b2 bf78e3d6     Q.r.{.x...o...x.
   10914:	be6c9a7f bf791298 be698bba bf7940c0     ..l...y...i..@y.
   10924:	be667c66 bf796e4e be636c83 bf799b43     f|f.Nny..lc.C.y.
   10934:	be605c13 bf79c79d be5d4b1a bf79f35e     .\`...y..K].^.y.
   10944:	be5a3997 bf7a1e84 be57278f bf7a4910     .9Z...z..'W..Iz.
   10954:	be541501 bf7a7302 be5101f1 bf7a9c59     ..T..sz...Q.Y.z.
   10964:	be4dee60 bf7ac516 be4ada4f bf7aed37     `.M...z.O.J.7.z.
   10974:	be47c5c2 bf7b14be be44b0b9 bf7b3bab     ..G...{...D..;{.
   10984:	be419b37 bf7b61fc be3e853e bf7b87b2     7.A..a{.>.>...{.
   10994:	be3b6ecf bf7baccd be3857ec bf7bd14d     .n;...{..W8.M.{.
   109a4:	be354098 bf7bf531 be3228d4 bf7c187a     .@5.1.{..(2.z.|.
   109b4:	be2f10a2 bf7c3b28 be2bf804 bf7c5d3a     ../.(;|...+.:]|.
   109c4:	be28defc bf7c7eb0 be25c58c bf7c9f8a     ..(..~|...%...|.
   109d4:	be22abb6 bf7cbfc9 be1f917b bf7cdf6c     .."...|.{...l.|.
   109e4:	be1c76de bf7cfe73 be195be0 bf7d1cdd     .v..s.|..[....}.
   109f4:	be164083 bf7d3aac be1324ca bf7d57de     .@...:}..$...W}.
   10a04:	be1008b7 bf7d7474 be0cec4a bf7d906e     ....tt}.J...n.}.
   10a14:	be09cf86 bf7dabcc be06b26e bf7dc68c     ......}.n.....}.
   10a24:	be039502 bf7de0b1 be007745 bf7dfa38     ......}.Ew..8.}.
   10a34:	bdfab273 bf7e1324 bdf475c0 bf7e2b72     s...$.~..u..r+~.
   10a44:	bdee3876 bf7e4323 bde7fa9a bf7e5a38     v8..#C~.....8Z~.
   10a54:	bde1bc2e bf7e70b0 bddb7d37 bf7e868b     .....p~.7}....~.
   10a64:	bdd53db9 bf7e9bc9 bdcefdb7 bf7eb069     .=....~.....i.~.
   10a74:	bdc8bd36 bf7ec46d bdc27c39 bf7ed7d4     6...m.~.9|....~.
   10a84:	bdbc3ac3 bf7eea9d bdb5f8da bf7efcc9     .:....~.......~.
   10a94:	bdafb680 bf7f0e58 bda973ba bf7f1f49     ....X....s..I...
   10aa4:	bda3308c bf7f2f9d bd9cecf9 bf7f3f54     .0.../......T?..
   10ab4:	bd96a905 bf7f4e6d bd9064b4 bf7f5ce9     ....mN...d...\..
   10ac4:	bd8a200a bf7f6ac7 bd83db0a bf7f7808     . ...j.......x..
   10ad4:	bd7b2b74 bf7f84ab bd6ea038 bf7f90b1     t+{.....8.n.....
   10ae4:	bd621468 bf7f9c18 bd55880e bf7fa6e3     h.b.......U.....
   10af4:	bd48fb2f bf7fb10f bd3c6dd5 bf7fba9e     /.H......m<.....
   10b04:	bd2fe007 bf7fc38f bd2351cc bf7fcbe2     ../......Q#.....
   10b14:	bd16c32c bf7fd398 bd0a342f bf7fdaaf     ,......./4......
   10b24:	bcfb49b9 bf7fe129 bce22a7b bf7fe705     .I..)...{*......
   10b34:	bcc90ab0 bf7fec43 bcafea69 bf7ff0e3     ....C...i.......
   10b44:	bc96c9b6 bf7ff4e6 bc7b514b bf7ff84a     ........KQ{.J...
   10b54:	bc490e90 bf7ffb11 bc16cb59 bf7ffd39     ..I.....Y...9...
   10b64:	bbc90f89 bf7ffec4 bb490fc7 bf7fffb1     ..........I.....
   10b74:	80000000 bf800000 3b490fc7 bf7fffb1     ..........I;....
   10b84:	3bc90f89 bf7ffec4 3c16cb59 bf7ffd39     ...;....Y..<9...
   10b94:	3c490e90 bf7ffb11 3c7b514b bf7ff84a     ..I<....KQ{<J...
   10ba4:	3c96c9b6 bf7ff4e6 3cafea69 bf7ff0e3     ...<....i..<....
   10bb4:	3cc90ab0 bf7fec43 3ce22a7b bf7fe705     ...<C...{*.<....
   10bc4:	3cfb49b9 bf7fe129 3d0a342f bf7fdaaf     .I.<).../4.=....
   10bd4:	3d16c32c bf7fd398 3d2351cc bf7fcbe2     ,..=.....Q#=....
   10be4:	3d2fe007 bf7fc38f 3d3c6dd5 bf7fba9e     ../=.....m<=....
   10bf4:	3d48fb2f bf7fb10f 3d55880e bf7fa6e3     /.H=......U=....
   10c04:	3d621468 bf7f9c18 3d6ea038 bf7f90b1     h.b=....8.n=....
   10c14:	3d7b2b74 bf7f84ab 3d83db0a bf7f7808     t+{=.......=.x..
   10c24:	3d8a200a bf7f6ac7 3d9064b4 bf7f5ce9     . .=.j...d.=.\..
   10c34:	3d96a905 bf7f4e6d 3d9cecf9 bf7f3f54     ...=mN.....=T?..
   10c44:	3da3308c bf7f2f9d 3da973ba bf7f1f49     .0.=./...s.=I...
   10c54:	3dafb680 bf7f0e58 3db5f8da bf7efcc9     ...=X......=..~.
   10c64:	3dbc3ac3 bf7eea9d 3dc27c39 bf7ed7d4     .:.=..~.9|.=..~.
   10c74:	3dc8bd36 bf7ec46d 3dcefdb7 bf7eb069     6..=m.~....=i.~.
   10c84:	3dd53db9 bf7e9bc9 3ddb7d37 bf7e868b     .=.=..~.7}.=..~.
   10c94:	3de1bc2e bf7e70b0 3de7fa9a bf7e5a38     ...=.p~....=8Z~.
   10ca4:	3dee3876 bf7e4323 3df475c0 bf7e2b72     v8.=#C~..u.=r+~.
   10cb4:	3dfab273 bf7e1324 3e007745 bf7dfa38     s..=$.~.Ew.>8.}.
   10cc4:	3e039502 bf7de0b1 3e06b26e bf7dc68c     ...>..}.n..>..}.
   10cd4:	3e09cf86 bf7dabcc 3e0cec4a bf7d906e     ...>..}.J..>n.}.
   10ce4:	3e1008b7 bf7d7474 3e1324ca bf7d57de     ...>tt}..$.>.W}.
   10cf4:	3e164083 bf7d3aac 3e195be0 bf7d1cdd     .@.>.:}..[.>..}.
   10d04:	3e1c76de bf7cfe73 3e1f917b bf7cdf6c     .v.>s.|.{..>l.|.
   10d14:	3e22abb6 bf7cbfc9 3e25c58c bf7c9f8a     ..">..|...%>..|.
   10d24:	3e28defc bf7c7eb0 3e2bf804 bf7c5d3a     ..(>.~|...+>:]|.
   10d34:	3e2f10a2 bf7c3b28 3e3228d4 bf7c187a     ../>(;|..(2>z.|.
   10d44:	3e354098 bf7bf531 3e3857ec bf7bd14d     .@5>1.{..W8>M.{.
   10d54:	3e3b6ecf bf7baccd 3e3e853e bf7b87b2     .n;>..{.>.>>..{.
   10d64:	3e419b37 bf7b61fc 3e44b0b9 bf7b3bab     7.A>.a{...D>.;{.
   10d74:	3e47c5c2 bf7b14be 3e4ada4f bf7aed37     ..G>..{.O.J>7.z.
   10d84:	3e4dee60 bf7ac516 3e5101f1 bf7a9c59     `.M>..z...Q>Y.z.
   10d94:	3e541501 bf7a7302 3e57278f bf7a4910     ..T>.sz..'W>.Iz.
   10da4:	3e5a3997 bf7a1e84 3e5d4b1a bf79f35e     .9Z>..z..K]>^.y.
   10db4:	3e605c13 bf79c79d 3e636c83 bf799b43     .\`>..y..lc>C.y.
   10dc4:	3e667c66 bf796e4e 3e698bba bf7940c0     f|f>Nny...i>.@y.
   10dd4:	3e6c9a7f bf791298 3e6fa8b2 bf78e3d6     ..l>..y...o>..x.
   10de4:	3e72b651 bf78b47b 3e75c35a bf788486     Q.r>{.x.Z.u>..x.
   10df4:	3e78cfcc bf7853f8 3e7bdba4 bf7822d1     ..x>.Sx...{>."x.
   10e04:	3e7ee6e1 bf77f110 3e80f8c0 bf77beb7     ..~>..w....>..w.
   10e14:	3e827dc0 bf778bc5 3e840270 bf77583a     .}.>..w.p..>:Xw.
   10e24:	3e8586ce bf772417 3e870ada bf76ef5b     ...>.$w....>[.v.
   10e34:	3e888e93 bf76ba07 3e8a11f8 bf76841b     ...>..v....>..v.
   10e44:	3e8b9507 bf764d97 3e8d17c0 bf76167a     ...>.Mv....>z.v.
   10e54:	3e8e9a22 bf75dec6 3e901c2c bf75a67b     "..>..u.,..>{.u.
   10e64:	3e919ddd bf756d97 3e931f35 bf75341d     ...>.mu.5..>.4u.
   10e74:	3e94a031 bf74fa0b 3e9620d2 bf74bf62     1..>..t.. .>b.t.
   10e84:	3e97a117 bf748422 3e9920fe bf74484b     ...>".t.. .>KHt.
   10e94:	3e9aa086 bf740bdd 3e9c1faf bf73ced9     ...>..t....>..s.
   10ea4:	3e9d9e78 bf73913f 3e9f1cdf bf73530e     x..>?.s....>.Ss.
   10eb4:	3ea09ae5 bf731447 3ea21887 bf72d4eb     ...>G.s....>..r.
   10ec4:	3ea395c5 bf7294f8 3ea5129f bf725470     ...>..r....>pTr.
   10ed4:	3ea68f12 bf721352 3ea80b1f bf71d19f     ...>R.r....>..q.
   10ee4:	3ea986c4 bf718f57 3eab0201 bf714c7a     ...>W.q....>zLq.
   10ef4:	3eac7cd4 bf710908 3eadf73c bf70c502     .|.>..q.<..>..p.
   10f04:	3eaf713a bf708066 3eb0eacb bf703b37     :q.>f.p....>7;p.
   10f14:	3eb263ef bf6ff573 3eb3dca5 bf6faf1b     .c.>s.o....>..o.
   10f24:	3eb554ec bf6f6830 3eb6ccc3 bf6f20b0     .T.>0ho....>. o.
   10f34:	3eb8442a bf6ed89e 3eb9bb1e bf6e8ff8     *D.>..n....>..n.
   10f44:	3ebb31a0 bf6e46be 3ebca7af bf6dfcf2     .1.>.Fn....>..m.
   10f54:	3ebe1d4a bf6db293 3ebf926f bf6d67a1     J..>..m.o..>.gm.
   10f64:	3ec1071e bf6d1c1d 3ec27b55 bf6cd007     ...>..m.U{.>..l.
   10f74:	3ec3ef15 bf6c835e 3ec5625c bf6c3624     ...>^.l.\b.>$6l.
   10f84:	3ec6d529 bf6be858 3ec8477c bf6b99fb     )..>X.k.|G.>..k.
   10f94:	3ec9b953 bf6b4b0c 3ecb2aae bf6afb8c     S..>.Kk..*.>..j.
   10fa4:	3ecc9b8b bf6aab7b 3ece0bea bf6a5ad9     ...>{.j....>.Zj.
   10fb4:	3ecf7bca bf6a09a7 3ed0eb2a bf69b7e4     .{.>..j.*..>..i.
   10fc4:	3ed25a09 bf696591 3ed3c867 bf6912ae     .Z.>.ei.g..>..i.
   10fd4:	3ed53641 bf68bf3c 3ed6a399 bf686b39     A6.><.h....>9kh.
   10fe4:	3ed8106b bf6816a8 3ed97cb9 bf67c187     k..>..h..|.>..g.
   10ff4:	3edae880 bf676bd8 3edc53c1 bf671599     ...>.kg..S.>..g.
   11004:	3eddbe79 bf66becc 3edf28a9 bf666771     y..>..f..(.>qgf.
   11014:	3ee0924f bf660f88 3ee1fb6a bf65b710     O..>..f.j..>..e.
   11024:	3ee363fa bf655e0b 3ee4cbfe bf650479     .c.>.^e....>y.e.
   11034:	3ee63375 bf64aa59 3ee79a5d bf644fac     u3.>Y.d.]..>.Od.
   11044:	3ee900b7 bf63f473 3eea6681 bf6398ac     ...>s.c..f.>..c.
   11054:	3eebcbbb bf633c5a 3eed3063 bf62df7b     ...>Z<c.c0.>{.b.
   11064:	3eee9479 bf628210 3eeff7fb bf62241a     y..>..b....>.$b.
   11074:	3ef15aea bf61c598 3ef2bd43 bf61668a     .Z.>..a.C..>.fa.
   11084:	3ef41f07 bf6106f2 3ef58035 bf60a6cf     ...>..a.5..>..`.
   11094:	3ef6e0cb bf604621 3ef840c8 bf5fe4e9     ...>!F`..@.>.._.
   110a4:	3ef9a02d bf5f8327 3efafef7 bf5f20db     -..>'._....>. _.
   110b4:	3efc5d27 bf5ebe05 3efdbabb bf5e5aa6     '].>..^....>.Z^.
   110c4:	3eff17b2 bf5df6be 3f003a06 bf5d924d     ...>..]..:.?M.].
   110d4:	3f00e7e4 bf5d2d53 3f019573 bf5cc7d1     ...?S-].s..?..\.
   110e4:	3f0242b1 bf5c61c7 3f02ef9f bf5bfb34     .B.?.a\....?4.[.
   110f4:	3f039c3d bf5b941a 3f044889 bf5b2c79     =..?..[..H.?y,[.
   11104:	3f04f484 bf5ac450 3f05a02c bf5a5ba0     ...?P.Z.,..?.[Z.
   11114:	3f064b82 bf59f26a 3f06f686 bf5988ad     .K.?j.Y....?..Y.
   11124:	3f07a136 bf591e6a 3f084b92 bf58b3a1     6..?j.Y..K.?..X.
   11134:	3f08f59b bf584853 3f099f4e bf57dc7f     ...?SHX.N..?..W.
   11144:	3f0a48ad bf577026 3f0af1b7 bf570348     .H.?&pW....?H.W.
   11154:	3f0b9a6b bf5695e5 3f0c42c9 bf5627fe     k..?..V..B.?.'V.
   11164:	3f0cead0 bf55b993 3f0d9281 bf554aa4     ...?..U....?.JU.
   11174:	3f0e39da bf54db31 3f0ee0db bf546b3b     .9.?1.T....?;kT.
   11184:	3f0f8784 bf53fac3 3f102dd5 bf5389c7     ...?..S..-.?..S.
   11194:	3f10d3cd bf531849 3f11796b bf52a649     ...?I.S.ky.?I.R.
   111a4:	3f121eb0 bf5233c6 3f12c39a bf51c0c2     ...?.3R....?..Q.
   111b4:	3f13682a bf514d3d 3f140c5f bf50d937     *h.?=MQ._..?7.P.
   111c4:	3f14b039 bf5064af 3f1553b7 bf4fefa8     9..?.dP..S.?..O.
   111d4:	3f15f6d9 bf4f7a1f 3f16999f bf4f0417     ...?.zO....?..O.
   111e4:	3f173c07 bf4e8d90 3f17de12 bf4e1689     .<.?..N....?..N.
   111f4:	3f187fc0 bf4d9f02 3f19210f bf4d26fd     ...?..M..!.?.&M.
   11204:	3f19c200 bf4cae79 3f1a6293 bf4c3578     ...?y.L..b.?x5L.
   11214:	3f1b02c6 bf4bbbf8 3f1ba299 bf4b41fa     ...?..K....?.AK.
   11224:	3f1c420c bf4ac77f 3f1ce11f bf4a4c87     .B.?..J....?.LJ.
   11234:	3f1d7fd1 bf49d112 3f1e1e22 bf495521     ...?..I."..?!UI.
   11244:	3f1ebc12 bf48d8b3 3f1f599f bf485bca     ...?..H..Y.?.[H.
   11254:	3f1ff6cb bf47de65 3f209393 bf476085     ...?e.G... ?.`G.
   11264:	3f212ff9 bf46e22a 3f21cbfb bf466354     ./!?*.F...!?TcF.
   11274:	3f226799 bf45e403 3f2302d3 bf456439     .g"?..E...#?9dE.
   11284:	3f239da9 bf44e3f5 3f24381a bf446337     ..#?..D..8$?7cD.
   11294:	3f24d225 bf43e200 3f256bcb bf436051     %.$?..C..k%?Q`C.
   112a4:	3f26050a bf42de29 3f269de3 bf425b89     ..&?).B...&?.[B.
   112b4:	3f273656 bf41d870 3f27ce61 bf4154e1     V6'?p.A.a.'?.TA.
   112c4:	3f286605 bf40d0da 3f28fd41 bf404c5c     .f(?..@.A.(?\L@.
   112d4:	3f299415 bf3fc767 3f2a2a80 bf3f41fc     ..)?g.?..**?.A?.
   112e4:	3f2ac082 bf3ebc1b 3f2b561b bf3e35c5     ..*?..>..V+?.5>.
   112f4:	3f2beb4a bf3daef9 3f2c800f bf3d27b8     J.+?..=...,?.'=.
   11304:	3f2d1469 bf3ca003 3f2da859 bf3c17d9     i.-?..<.Y.-?..<.
   11314:	3f2e3bde bf3b8f3b 3f2ecef7 bf3b0629     .;.?;.;....?).;.
   11324:	3f2f61a5 bf3a7ca4 3f2ff3e6 bf39f2ac     .a/?.|:.../?..9.
   11334:	3f3085bb bf396842 3f311722 bf38dd65     ..0?Bh9.".1?e.8.
   11344:	3f31a81d bf385216 3f3238aa bf37c655     ..1?.R8..82?U.7.
   11354:	3f32c8c9 bf373a23 3f33587a bf36ad7f     ..2?#:7.zX3?..6.
   11364:	3f33e7bc bf36206c 3f34768f bf3592e7     ..3?l 6..v4?..5.
   11374:	3f3504f3 bf3504f3 3f3592e7 bf34768f     ..5?..5...5?.v4.
   11384:	3f36206c bf33e7bc 3f36ad7f bf33587a     l 6?..3...6?zX3.
   11394:	3f373a23 bf32c8c9 3f37c655 bf3238aa     #:7?..2.U.7?.82.
   113a4:	3f385216 bf31a81d 3f38dd65 bf311722     .R8?..1.e.8?".1.
   113b4:	3f396842 bf3085bb 3f39f2ac bf2ff3e6     Bh9?..0...9?../.
   113c4:	3f3a7ca4 bf2f61a5 3f3b0629 bf2ecef7     .|:?.a/.).;?....
   113d4:	3f3b8f3b bf2e3bde 3f3c17d9 bf2da859     ;.;?.;....<?Y.-.
   113e4:	3f3ca003 bf2d1469 3f3d27b8 bf2c800f     ..<?i.-..'=?..,.
   113f4:	3f3daef9 bf2beb4a 3f3e35c5 bf2b561b     ..=?J.+..5>?.V+.
   11404:	3f3ebc1b bf2ac082 3f3f41fc bf2a2a80     ..>?..*..A??.**.
   11414:	3f3fc767 bf299415 3f404c5c bf28fd41     g.??..).\L@?A.(.
   11424:	3f40d0da bf286605 3f4154e1 bf27ce61     ..@?.f(..TA?a.'.
   11434:	3f41d870 bf273656 3f425b89 bf269de3     p.A?V6'..[B?..&.
   11444:	3f42de29 bf26050a 3f436051 bf256bcb     ).B?..&.Q`C?.k%.
   11454:	3f43e200 bf24d225 3f446337 bf24381a     ..C?%.$.7cD?.8$.
   11464:	3f44e3f5 bf239da9 3f456439 bf2302d3     ..D?..#.9dE?..#.
   11474:	3f45e403 bf226799 3f466354 bf21cbfb     ..E?.g".TcF?..!.
   11484:	3f46e22a bf212ff9 3f476085 bf209393     *.F?./!..`G?.. .
   11494:	3f47de65 bf1ff6cb 3f485bca bf1f599f     e.G?.....[H?.Y..
   114a4:	3f48d8b3 bf1ebc12 3f495521 bf1e1e22     ..H?....!UI?"...
   114b4:	3f49d112 bf1d7fd1 3f4a4c87 bf1ce11f     ..I?.....LJ?....
   114c4:	3f4ac77f bf1c420c 3f4b41fa bf1ba299     ..J?.B...AK?....
   114d4:	3f4bbbf8 bf1b02c6 3f4c3578 bf1a6293     ..K?....x5L?.b..
   114e4:	3f4cae79 bf19c200 3f4d26fd bf19210f     y.L?.....&M?.!..
   114f4:	3f4d9f02 bf187fc0 3f4e1689 bf17de12     ..M?......N?....
   11504:	3f4e8d90 bf173c07 3f4f0417 bf16999f     ..N?.<....O?....
   11514:	3f4f7a1f bf15f6d9 3f4fefa8 bf1553b7     .zO?......O?.S..
   11524:	3f5064af bf14b039 3f50d937 bf140c5f     .dP?9...7.P?_...
   11534:	3f514d3d bf13682a 3f51c0c2 bf12c39a     =MQ?*h....Q?....
   11544:	3f5233c6 bf121eb0 3f52a649 bf11796b     .3R?....I.R?ky..
   11554:	3f531849 bf10d3cd 3f5389c7 bf102dd5     I.S?......S?.-..
   11564:	3f53fac3 bf0f8784 3f546b3b bf0ee0db     ..S?....;kT?....
   11574:	3f54db31 bf0e39da 3f554aa4 bf0d9281     1.T?.9...JU?....
   11584:	3f55b993 bf0cead0 3f5627fe bf0c42c9     ..U?.....'V?.B..
   11594:	3f5695e5 bf0b9a6b 3f570348 bf0af1b7     ..V?k...H.W?....
   115a4:	3f577026 bf0a48ad 3f57dc7f bf099f4e     &pW?.H....W?N...
   115b4:	3f584853 bf08f59b 3f58b3a1 bf084b92     SHX?......X?.K..
   115c4:	3f591e6a bf07a136 3f5988ad bf06f686     j.Y?6.....Y?....
   115d4:	3f59f26a bf064b82 3f5a5ba0 bf05a02c     j.Y?.K...[Z?,...
   115e4:	3f5ac450 bf04f484 3f5b2c79 bf044889     P.Z?....y,[?.H..
   115f4:	3f5b941a bf039c3d 3f5bfb34 bf02ef9f     ..[?=...4.[?....
   11604:	3f5c61c7 bf0242b1 3f5cc7d1 bf019573     .a\?.B....\?s...
   11614:	3f5d2d53 bf00e7e4 3f5d924d bf003a06     S-]?....M.]?.:..
   11624:	3f5df6be beff17b2 3f5e5aa6 befdbabb     ..]?.....Z^?....
   11634:	3f5ebe05 befc5d27 3f5f20db befafef7     ..^?']... _?....
   11644:	3f5f8327 bef9a02d 3f5fe4e9 bef840c8     '._?-....._?.@..
   11654:	3f604621 bef6e0cb 3f60a6cf bef58035     !F`?......`?5...
   11664:	3f6106f2 bef41f07 3f61668a bef2bd43     ..a?.....fa?C...
   11674:	3f61c598 bef15aea 3f62241a beeff7fb     ..a?.Z...$b?....
   11684:	3f628210 beee9479 3f62df7b beed3063     ..b?y...{.b?c0..
   11694:	3f633c5a beebcbbb 3f6398ac beea6681     Z<c?......c?.f..
   116a4:	3f63f473 bee900b7 3f644fac bee79a5d     s.c?.....Od?]...
   116b4:	3f64aa59 bee63375 3f650479 bee4cbfe     Y.d?u3..y.e?....
   116c4:	3f655e0b bee363fa 3f65b710 bee1fb6a     .^e?.c....e?j...
   116d4:	3f660f88 bee0924f 3f666771 bedf28a9     ..f?O...qgf?.(..
   116e4:	3f66becc beddbe79 3f671599 bedc53c1     ..f?y.....g?.S..
   116f4:	3f676bd8 bedae880 3f67c187 bed97cb9     .kg?......g?.|..
   11704:	3f6816a8 bed8106b 3f686b39 bed6a399     ..h?k...9kh?....
   11714:	3f68bf3c bed53641 3f6912ae bed3c867     <.h?A6....i?g...
   11724:	3f696591 bed25a09 3f69b7e4 bed0eb2a     .ei?.Z....i?*...
   11734:	3f6a09a7 becf7bca 3f6a5ad9 bece0bea     ..j?.{...Zj?....
   11744:	3f6aab7b becc9b8b 3f6afb8c becb2aae     {.j?......j?.*..
   11754:	3f6b4b0c bec9b953 3f6b99fb bec8477c     .Kk?S.....k?|G..
   11764:	3f6be858 bec6d529 3f6c3624 bec5625c     X.k?)...$6l?\b..
   11774:	3f6c835e bec3ef15 3f6cd007 bec27b55     ^.l?......l?U{..
   11784:	3f6d1c1d bec1071e 3f6d67a1 bebf926f     ..m?.....gm?o...
   11794:	3f6db293 bebe1d4a 3f6dfcf2 bebca7af     ..m?J.....m?....
   117a4:	3f6e46be bebb31a0 3f6e8ff8 beb9bb1e     .Fn?.1....n?....
   117b4:	3f6ed89e beb8442a 3f6f20b0 beb6ccc3     ..n?*D... o?....
   117c4:	3f6f6830 beb554ec 3f6faf1b beb3dca5     0ho?.T....o?....
   117d4:	3f6ff573 beb263ef 3f703b37 beb0eacb     s.o?.c..7;p?....
   117e4:	3f708066 beaf713a 3f70c502 beadf73c     f.p?:q....p?<...
   117f4:	3f710908 beac7cd4 3f714c7a beab0201     ..q?.|..zLq?....
   11804:	3f718f57 bea986c4 3f71d19f bea80b1f     W.q?......q?....
   11814:	3f721352 bea68f12 3f725470 bea5129f     R.r?....pTr?....
   11824:	3f7294f8 bea395c5 3f72d4eb bea21887     ..r?......r?....
   11834:	3f731447 bea09ae5 3f73530e be9f1cdf     G.s?.....Ss?....
   11844:	3f73913f be9d9e78 3f73ced9 be9c1faf     ?.s?x.....s?....
   11854:	3f740bdd be9aa086 3f74484b be9920fe     ..t?....KHt?. ..
   11864:	3f748422 be97a117 3f74bf62 be9620d2     ".t?....b.t?. ..
   11874:	3f74fa0b be94a031 3f75341d be931f35     ..t?1....4u?5...
   11884:	3f756d97 be919ddd 3f75a67b be901c2c     .mu?....{.u?,...
   11894:	3f75dec6 be8e9a22 3f76167a be8d17c0     ..u?"...z.v?....
   118a4:	3f764d97 be8b9507 3f76841b be8a11f8     .Mv?......v?....
   118b4:	3f76ba07 be888e93 3f76ef5b be870ada     ..v?....[.v?....
   118c4:	3f772417 be8586ce 3f77583a be840270     .$w?....:Xw?p...
   118d4:	3f778bc5 be827dc0 3f77beb7 be80f8c0     ..w?.}....w?....
   118e4:	3f77f110 be7ee6e1 3f7822d1 be7bdba4     ..w?..~.."x?..{.
   118f4:	3f7853f8 be78cfcc 3f788486 be75c35a     .Sx?..x...x?Z.u.
   11904:	3f78b47b be72b651 3f78e3d6 be6fa8b2     {.x?Q.r...x?..o.
   11914:	3f791298 be6c9a7f 3f7940c0 be698bba     ..y?..l..@y?..i.
   11924:	3f796e4e be667c66 3f799b43 be636c83     Nny?f|f.C.y?.lc.
   11934:	3f79c79d be605c13 3f79f35e be5d4b1a     ..y?.\`.^.y?.K].
   11944:	3f7a1e84 be5a3997 3f7a4910 be57278f     ..z?.9Z..Iz?.'W.
   11954:	3f7a7302 be541501 3f7a9c59 be5101f1     .sz?..T.Y.z?..Q.
   11964:	3f7ac516 be4dee60 3f7aed37 be4ada4f     ..z?`.M.7.z?O.J.
   11974:	3f7b14be be47c5c2 3f7b3bab be44b0b9     ..{?..G..;{?..D.
   11984:	3f7b61fc be419b37 3f7b87b2 be3e853e     .a{?7.A...{?>.>.
   11994:	3f7baccd be3b6ecf 3f7bd14d be3857ec     ..{?.n;.M.{?.W8.
   119a4:	3f7bf531 be354098 3f7c187a be3228d4     1.{?.@5.z.|?.(2.
   119b4:	3f7c3b28 be2f10a2 3f7c5d3a be2bf804     (;|?../.:]|?..+.
   119c4:	3f7c7eb0 be28defc 3f7c9f8a be25c58c     .~|?..(...|?..%.
   119d4:	3f7cbfc9 be22abb6 3f7cdf6c be1f917b     ..|?..".l.|?{...
   119e4:	3f7cfe73 be1c76de 3f7d1cdd be195be0     s.|?.v....}?.[..
   119f4:	3f7d3aac be164083 3f7d57de be1324ca     .:}?.@...W}?.$..
   11a04:	3f7d7474 be1008b7 3f7d906e be0cec4a     tt}?....n.}?J...
   11a14:	3f7dabcc be09cf86 3f7dc68c be06b26e     ..}?......}?n...
   11a24:	3f7de0b1 be039502 3f7dfa38 be007745     ..}?....8.}?Ew..
   11a34:	3f7e1324 bdfab273 3f7e2b72 bdf475c0     $.~?s...r+~?.u..
   11a44:	3f7e4323 bdee3876 3f7e5a38 bde7fa9a     #C~?v8..8Z~?....
   11a54:	3f7e70b0 bde1bc2e 3f7e868b bddb7d37     .p~?......~?7}..
   11a64:	3f7e9bc9 bdd53db9 3f7eb069 bdcefdb7     ..~?.=..i.~?....
   11a74:	3f7ec46d bdc8bd36 3f7ed7d4 bdc27c39     m.~?6.....~?9|..
   11a84:	3f7eea9d bdbc3ac3 3f7efcc9 bdb5f8da     ..~?.:....~?....
   11a94:	3f7f0e58 bdafb680 3f7f1f49 bda973ba     X..?....I..?.s..
   11aa4:	3f7f2f9d bda3308c 3f7f3f54 bd9cecf9     ./.?.0..T?.?....
   11ab4:	3f7f4e6d bd96a905 3f7f5ce9 bd9064b4     mN.?.....\.?.d..
   11ac4:	3f7f6ac7 bd8a200a 3f7f7808 bd83db0a     .j.?. ...x.?....
   11ad4:	3f7f84ab bd7b2b74 3f7f90b1 bd6ea038     ...?t+{....?8.n.
   11ae4:	3f7f9c18 bd621468 3f7fa6e3 bd55880e     ...?h.b....?..U.
   11af4:	3f7fb10f bd48fb2f 3f7fba9e bd3c6dd5     ...?/.H....?.m<.
   11b04:	3f7fc38f bd2fe007 3f7fcbe2 bd2351cc     ...?../....?.Q#.
   11b14:	3f7fd398 bd16c32c 3f7fdaaf bd0a342f     ...?,......?/4..
   11b24:	3f7fe129 bcfb49b9 3f7fe705 bce22a7b     )..?.I.....?{*..
   11b34:	3f7fec43 bcc90ab0 3f7ff0e3 bcafea69     C..?.......?i...
   11b44:	3f7ff4e6 bc96c9b6 3f7ff84a bc7b514b     ...?....J..?KQ{.
   11b54:	3f7ffb11 bc490e90 3f7ffd39 bc16cb59     ...?..I.9..?Y...
   11b64:	3f7ffec4 bbc90f89 3f7fffb1 bb490fc7     ...?.......?..I.

00011b74 <twiddleCoef_4096>:
   11b74:	3f800000 00000000 3f7fffec 3ac90fd4     ...?.......?...:
   11b84:	3f7fffb1 3b490fc7 3f7fff4e 3b96cbc1     ...?..I;N..?...;
   11b94:	3f7ffec4 3bc90f89 3f7ffe13 3bfb5330     ...?...;...?0S.;
   11ba4:	3f7ffd39 3c16cb59 3f7ffc39 3c2fed02     9..?Y..<9..?../<
   11bb4:	3f7ffb11 3c490e90 3f7ff9c1 3c623000     ...?..I<...?.0b<
   11bc4:	3f7ff84a 3c7b514b 3f7ff6ac 3c8a3938     J..?KQ{<...?89.<
   11bd4:	3f7ff4e6 3c96c9b6 3f7ff2f8 3ca35a1c     ...?...<...?.Z.<
   11be4:	3f7ff0e3 3cafea69 3f7feea7 3cbc7a9b     ...?i..<...?.z.<
   11bf4:	3f7fec43 3cc90ab0 3f7fe9b8 3cd59aa6     C..?...<...?...<
   11c04:	3f7fe705 3ce22a7b 3f7fe42b 3ceeba2d     ...?{*.<+..?-..<
   11c14:	3f7fe129 3cfb49b9 3f7fde00 3d03ec90     )..?.I.<...?...=
   11c24:	3f7fdaaf 3d0a342f 3f7fd737 3d107bb8     ...?/4.=7..?.{.=
   11c34:	3f7fd398 3d16c32c 3f7fcfd1 3d1d0a88     ...?,..=...?...=
   11c44:	3f7fcbe2 3d2351cc 3f7fc7cc 3d2998f6     ...?.Q#=...?..)=
   11c54:	3f7fc38f 3d2fe007 3f7fbf2a 3d3626fc     ...?../=*..?.&6=
   11c64:	3f7fba9e 3d3c6dd5 3f7fb5ea 3d42b491     ...?.m<=...?..B=
   11c74:	3f7fb10f 3d48fb2f 3f7fac0d 3d4f41af     ...?/.H=...?.AO=
   11c84:	3f7fa6e3 3d55880e 3f7fa191 3d5bce4c     ...?..U=...?L.[=
   11c94:	3f7f9c18 3d621468 3f7f9678 3d685a62     ...?h.b=x..?bZh=
   11ca4:	3f7f90b1 3d6ea038 3f7f8ac2 3d74e5e9     ...?8.n=...?..t=
   11cb4:	3f7f84ab 3d7b2b74 3f7f7e6d 3d80b86c     ...?t+{=m~.?l..=
   11cc4:	3f7f7808 3d83db0a 3f7f717b 3d86fd94     .x.?...={q.?...=
   11cd4:	3f7f6ac7 3d8a200a 3f7f63ec 3d8d426a     .j.?. .=.c.?jB.=
   11ce4:	3f7f5ce9 3d9064b4 3f7f55bf 3d9386e7     .\.?.d.=.U.?...=
   11cf4:	3f7f4e6d 3d96a905 3f7f46f4 3d99cb0a     mN.?...=.F.?...=
   11d04:	3f7f3f54 3d9cecf9 3f7f378d 3da00ecf     T?.?...=.7.?...=
   11d14:	3f7f2f9d 3da3308c 3f7f2787 3da65230     ./.?.0.=.'.?0R.=
   11d24:	3f7f1f49 3da973ba 3f7f16e4 3dac952b     I..?.s.=...?+..=
   11d34:	3f7f0e58 3dafb680 3f7f05a4 3db2d7bb     X..?...=...?...=
   11d44:	3f7efcc9 3db5f8da 3f7ef3c7 3db919dd     ..~?...=..~?...=
   11d54:	3f7eea9d 3dbc3ac3 3f7ee14c 3dbf5b8d     ..~?.:.=L.~?.[.=
   11d64:	3f7ed7d4 3dc27c39 3f7ece34 3dc59cc6     ..~?9|.=4.~?...=
   11d74:	3f7ec46d 3dc8bd36 3f7eba7f 3dcbdd86     m.~?6..=..~?...=
   11d84:	3f7eb069 3dcefdb7 3f7ea62d 3dd21dc8     i.~?...=-.~?...=
   11d94:	3f7e9bc9 3dd53db9 3f7e913d 3dd85d89     ..~?.=.==.~?.].=
   11da4:	3f7e868b 3ddb7d37 3f7e7bb1 3dde9cc4     ..~?7}.=.{~?...=
   11db4:	3f7e70b0 3de1bc2e 3f7e6588 3de4db76     .p~?...=.e~?v..=
   11dc4:	3f7e5a38 3de7fa9a 3f7e4ec1 3deb199a     8Z~?...=.N~?...=
   11dd4:	3f7e4323 3dee3876 3f7e375e 3df1572e     #C~?v8.=^7~?.W.=
   11de4:	3f7e2b72 3df475c0 3f7e1f5e 3df7942c     r+~?.u.=^.~?,..=
   11df4:	3f7e1324 3dfab273 3f7e06c2 3dfdd092     $.~?s..=..~?...=
   11e04:	3f7dfa38 3e007745 3f7ded88 3e02062e     8.}?Ew.>..}?...>
   11e14:	3f7de0b1 3e039502 3f7dd3b2 3e0523c2     ..}?...>..}?.#.>
   11e24:	3f7dc68c 3e06b26e 3f7db940 3e084105     ..}?n..>@.}?.A.>
   11e34:	3f7dabcc 3e09cf86 3f7d9e30 3e0b5df3     ..}?...>0.}?.].>
   11e44:	3f7d906e 3e0cec4a 3f7d8285 3e0e7a8b     n.}?J..>..}?.z.>
   11e54:	3f7d7474 3e1008b7 3f7d663d 3e1196cc     tt}?...>=f}?...>
   11e64:	3f7d57de 3e1324ca 3f7d4959 3e14b2b2     .W}?.$.>YI}?...>
   11e74:	3f7d3aac 3e164083 3f7d2bd8 3e17ce3d     .:}?.@.>.+}?=..>
   11e84:	3f7d1cdd 3e195be0 3f7d0dbc 3e1ae96b     ..}?.[.>..}?k..>
   11e94:	3f7cfe73 3e1c76de 3f7cef03 3e1e0438     s.|?.v.>..|?8..>
   11ea4:	3f7cdf6c 3e1f917b 3f7ccfae 3e211ea5     l.|?{..>..|?..!>
   11eb4:	3f7cbfc9 3e22abb6 3f7cafbd 3e2438ad     ..|?..">..|?.8$>
   11ec4:	3f7c9f8a 3e25c58c 3f7c8f31 3e275251     ..|?..%>1.|?QR'>
   11ed4:	3f7c7eb0 3e28defc 3f7c6e08 3e2a6b8d     .~|?..(>.n|?.k*>
   11ee4:	3f7c5d3a 3e2bf804 3f7c4c44 3e2d8461     :]|?..+>DL|?a.->
   11ef4:	3f7c3b28 3e2f10a2 3f7c29e5 3e309cc9     (;|?../>.)|?..0>
   11f04:	3f7c187a 3e3228d4 3f7c06e9 3e33b4c4     z.|?.(2>..|?..3>
   11f14:	3f7bf531 3e354098 3f7be353 3e36cc50     1.{?.@5>S.{?P.6>
   11f24:	3f7bd14d 3e3857ec 3f7bbf20 3e39e36c     M.{?.W8> .{?l.9>
   11f34:	3f7baccd 3e3b6ecf 3f7b9a53 3e3cfa15     ..{?.n;>S.{?..<>
   11f44:	3f7b87b2 3e3e853e 3f7b74ea 3e401049     ..{?>.>>.t{?I.@>
   11f54:	3f7b61fc 3e419b37 3f7b4ee7 3e432607     .a{?7.A>.N{?.&C>
   11f64:	3f7b3bab 3e44b0b9 3f7b2848 3e463b4d     .;{?..D>H({?M;F>
   11f74:	3f7b14be 3e47c5c2 3f7b010e 3e495018     ..{?..G>..{?.PI>
   11f84:	3f7aed37 3e4ada4f 3f7ad93a 3e4c6467     7.z?O.J>:.z?gdL>
   11f94:	3f7ac516 3e4dee60 3f7ab0cb 3e4f7838     ..z?`.M>..z?8xO>
   11fa4:	3f7a9c59 3e5101f1 3f7a87c1 3e528b89     Y.z?..Q>..z?..R>
   11fb4:	3f7a7302 3e541501 3f7a5e1c 3e559e58     .sz?..T>.^z?X.U>
   11fc4:	3f7a4910 3e57278f 3f7a33dd 3e58b0a4     .Iz?.'W>.3z?..X>
   11fd4:	3f7a1e84 3e5a3997 3f7a0904 3e5bc26a     ..z?.9Z>..z?j.[>
   11fe4:	3f79f35e 3e5d4b1a 3f79dd91 3e5ed3a8     ^.y?.K]>..y?..^>
   11ff4:	3f79c79d 3e605c13 3f79b183 3e61e45c     ..y?.\`>..y?\.a>
   12004:	3f799b43 3e636c83 3f7984dc 3e64f486     C.y?.lc>..y?..d>
   12014:	3f796e4e 3e667c66 3f79579a 3e680422     Nny?f|f>.Wy?".h>
   12024:	3f7940c0 3e698bba 3f7929bf 3e6b132f     .@y?..i>.)y?/.k>
   12034:	3f791298 3e6c9a7f 3f78fb4a 3e6e21ab     ..y?..l>J.x?.!n>
   12044:	3f78e3d6 3e6fa8b2 3f78cc3b 3e712f94     ..x?..o>;.x?./q>
   12054:	3f78b47b 3e72b651 3f789c93 3e743ce8     {.x?Q.r>..x?.<t>
   12064:	3f788486 3e75c35a 3f786c52 3e7749a6     ..x?Z.u>Rlx?.Iw>
   12074:	3f7853f8 3e78cfcc 3f783b77 3e7a55cb     .Sx?..x>w;x?.Uz>
   12084:	3f7822d1 3e7bdba4 3f780a04 3e7d6156     ."x?..{>..x?Va}>
   12094:	3f77f110 3e7ee6e1 3f77d7f7 3e803622     ..w?..~>..w?"6.>
   120a4:	3f77beb7 3e80f8c0 3f77a551 3e81bb4a     ..w?...>Q.w?J..>
   120b4:	3f778bc5 3e827dc0 3f777213 3e834022     ..w?.}.>.rw?"@.>
   120c4:	3f77583a 3e840270 3f773e3c 3e84c4aa     :Xw?p..><>w?...>
   120d4:	3f772417 3e8586ce 3f7709cc 3e8648df     .$w?...>..w?.H.>
   120e4:	3f76ef5b 3e870ada 3f76d4c4 3e87ccc1     [.v?...>..v?...>
   120f4:	3f76ba07 3e888e93 3f769f24 3e895050     ..v?...>$.v?PP.>
   12104:	3f76841b 3e8a11f8 3f7668ec 3e8ad38a     ..v?...>.hv?...>
   12114:	3f764d97 3e8b9507 3f76321b 3e8c566e     .Mv?...>.2v?nV.>
   12124:	3f76167a 3e8d17c0 3f75fab3 3e8dd8fc     z.v?...>..u?...>
   12134:	3f75dec6 3e8e9a22 3f75c2b3 3e8f5b32     ..u?"..>..u?2[.>
   12144:	3f75a67b 3e901c2c 3f758a1c 3e90dd10     {.u?,..>..u?...>
   12154:	3f756d97 3e919ddd 3f7550ed 3e925e94     .mu?...>.Pu?.^.>
   12164:	3f75341d 3e931f35 3f751727 3e93dfbf     .4u?5..>'.u?...>
   12174:	3f74fa0b 3e94a031 3f74dcc9 3e95608d     ..t?1..>..t?.`.>
   12184:	3f74bf62 3e9620d2 3f74a1d5 3e96e100     b.t?. .>..t?...>
   12194:	3f748422 3e97a117 3f746649 3e986116     ".t?...>Ift?.a.>
   121a4:	3f74484b 3e9920fe 3f742a27 3e99e0ce     KHt?. .>'*t?...>
   121b4:	3f740bdd 3e9aa086 3f73ed6e 3e9b6027     ..t?...>n.s?'`.>
   121c4:	3f73ced9 3e9c1faf 3f73b01f 3e9cdf20     ..s?...>..s? ..>
   121d4:	3f73913f 3e9d9e78 3f737239 3e9e5db8     ?.s?x..>9rs?.].>
   121e4:	3f73530e 3e9f1cdf 3f7333be 3e9fdbee     .Ss?...>.3s?...>
   121f4:	3f731447 3ea09ae5 3f72f4ac 3ea159c2     G.s?...>..r?.Y.>
   12204:	3f72d4eb 3ea21887 3f72b504 3ea2d733     ..r?...>..r?3..>
   12214:	3f7294f8 3ea395c5 3f7274c7 3ea4543f     ..r?...>.tr??T.>
   12224:	3f725470 3ea5129f 3f7233f4 3ea5d0e5     pTr?...>.3r?...>
   12234:	3f721352 3ea68f12 3f71f28c 3ea74d25     R.r?...>..q?%M.>
   12244:	3f71d19f 3ea80b1f 3f71b08e 3ea8c8fe     ..q?...>..q?...>
   12254:	3f718f57 3ea986c4 3f716dfb 3eaa446f     W.q?...>.mq?oD.>
   12264:	3f714c7a 3eab0201 3f712ad4 3eabbf77     zLq?...>.*q?w..>
   12274:	3f710908 3eac7cd4 3f70e717 3ead3a15     ..q?.|.>..p?.:.>
   12284:	3f70c502 3eadf73c 3f70a2c6 3eaeb449     ..p?<..>..p?I..>
   12294:	3f708066 3eaf713a 3f705de1 3eb02e10     f.p?:q.>.]p?...>
   122a4:	3f703b37 3eb0eacb 3f701867 3eb1a76b     7;p?...>g.p?k..>
   122b4:	3f6ff573 3eb263ef 3f6fd25a 3eb32058     s.o?.c.>Z.o?X .>
   122c4:	3f6faf1b 3eb3dca5 3f6f8bb8 3eb498d6     ..o?...>..o?...>
   122d4:	3f6f6830 3eb554ec 3f6f4483 3eb610e6     0ho?.T.>.Do?...>
   122e4:	3f6f20b0 3eb6ccc3 3f6efcba 3eb78884     . o?...>..n?...>
   122f4:	3f6ed89e 3eb8442a 3f6eb45d 3eb8ffb2     ..n?*D.>].n?...>
   12304:	3f6e8ff8 3eb9bb1e 3f6e6b6d 3eba766e     ..n?...>mkn?nv.>
   12314:	3f6e46be 3ebb31a0 3f6e21eb 3ebbecb6     .Fn?.1.>.!n?...>
   12324:	3f6dfcf2 3ebca7af 3f6dd7d5 3ebd628b     ..m?...>..m?.b.>
   12334:	3f6db293 3ebe1d4a 3f6d8d2d 3ebed7eb     ..m?J..>-.m?...>
   12344:	3f6d67a1 3ebf926f 3f6d41f2 3ec04cd5     .gm?o..>.Am?.L.>
   12354:	3f6d1c1d 3ec1071e 3f6cf624 3ec1c148     ..m?...>$.l?H..>
   12364:	3f6cd007 3ec27b55 3f6ca9c5 3ec33544     ..l?U{.>..l?D5.>
   12374:	3f6c835e 3ec3ef15 3f6c5cd4 3ec4a8c8     ^.l?...>.\l?...>
   12384:	3f6c3624 3ec5625c 3f6c0f50 3ec61bd2     $6l?\b.>P.l?...>
   12394:	3f6be858 3ec6d529 3f6bc13b 3ec78e62     X.k?)..>;.k?b..>
   123a4:	3f6b99fb 3ec8477c 3f6b7295 3ec90077     ..k?|G.>.rk?w..>
   123b4:	3f6b4b0c 3ec9b953 3f6b235e 3eca7210     .Kk?S..>^#k?.r.>
   123c4:	3f6afb8c 3ecb2aae 3f6ad395 3ecbe32c     ..j?.*.>..j?,..>
   123d4:	3f6aab7b 3ecc9b8b 3f6a833c 3ecd53ca     {.j?...><.j?.S.>
   123e4:	3f6a5ad9 3ece0bea 3f6a3252 3ecec3ea     .Zj?...>R2j?...>
   123f4:	3f6a09a7 3ecf7bca 3f69e0d7 3ed0338a     ..j?.{.>..i?.3.>
   12404:	3f69b7e4 3ed0eb2a 3f698ecc 3ed1a2aa     ..i?*..>..i?...>
   12414:	3f696591 3ed25a09 3f693c32 3ed31148     .ei?.Z.>2<i?H..>
   12424:	3f6912ae 3ed3c867 3f68e907 3ed47f64     ..i?g..>..h?d..>
   12434:	3f68bf3c 3ed53641 3f68954c 3ed5ecfd     <.h?A6.>L.h?...>
   12444:	3f686b39 3ed6a399 3f684103 3ed75a13     9kh?...>.Ah?.Z.>
   12454:	3f6816a8 3ed8106b 3f67ec2a 3ed8c6a3     ..h?k..>*.g?...>
   12464:	3f67c187 3ed97cb9 3f6796c1 3eda32ad     ..g?.|.>..g?.2.>
   12474:	3f676bd8 3edae880 3f6740ca 3edb9e31     .kg?...>.@g?1..>
   12484:	3f671599 3edc53c1 3f66ea45 3edd092e     ..g?.S.>E.f?...>
   12494:	3f66becc 3eddbe79 3f669330 3ede73a2     ..f?y..>0.f?.s.>
   124a4:	3f666771 3edf28a9 3f663b8e 3edfdd8d     qgf?.(.>.;f?...>
   124b4:	3f660f88 3ee0924f 3f65e35e 3ee146ee     ..f?O..>^.e?.F.>
   124c4:	3f65b710 3ee1fb6a 3f658aa0 3ee2afc4     ..e?j..>..e?...>
   124d4:	3f655e0b 3ee363fa 3f653154 3ee4180e     .^e?.c.>T1e?...>
   124e4:	3f650479 3ee4cbfe 3f64d77b 3ee57fcb     y.e?...>{.d?...>
   124f4:	3f64aa59 3ee63375 3f647d14 3ee6e6fb     Y.d?u3.>.}d?...>
   12504:	3f644fac 3ee79a5d 3f642221 3ee84d9c     .Od?]..>!"d?.M.>
   12514:	3f63f473 3ee900b7 3f63c6a1 3ee9b3ae     s.c?...>..c?...>
   12524:	3f6398ac 3eea6681 3f636a95 3eeb1930     ..c?.f.>.jc?0..>
   12534:	3f633c5a 3eebcbbb 3f630dfc 3eec7e21     Z<c?...>..c?!~.>
   12544:	3f62df7b 3eed3063 3f62b0d7 3eede280     {.b?c0.>..b?...>
   12554:	3f628210 3eee9479 3f625326 3eef464c     ..b?y..>&Sb?LF.>
   12564:	3f62241a 3eeff7fb 3f61f4ea 3ef0a985     .$b?...>..a?...>
   12574:	3f61c598 3ef15aea 3f619622 3ef20c29     ..a?.Z.>".a?)..>
   12584:	3f61668a 3ef2bd43 3f6136d0 3ef36e38     .fa?C..>.6a?8n.>
   12594:	3f6106f2 3ef41f07 3f60d6f2 3ef4cfb1     ..a?...>..`?...>
   125a4:	3f60a6cf 3ef58035 3f607689 3ef63093     ..`?5..>.v`?.0.>
   125b4:	3f604621 3ef6e0cb 3f601596 3ef790dc     !F`?...>..`?...>
   125c4:	3f5fe4e9 3ef840c8 3f5fb419 3ef8f08e     .._?.@.>.._?...>
   125d4:	3f5f8327 3ef9a02d 3f5f5212 3efa4fa5     '._?-..>.R_?.O.>
   125e4:	3f5f20db 3efafef7 3f5eef81 3efbae22     . _?...>..^?"..>
   125f4:	3f5ebe05 3efc5d27 3f5e8c67 3efd0c04     ..^?'].>g.^?...>
   12604:	3f5e5aa6 3efdbabb 3f5e28c3 3efe694a     .Z^?...>.(^?Ji.>
   12614:	3f5df6be 3eff17b2 3f5dc497 3effc5f3     ..]?...>..]?...>
   12624:	3f5d924d 3f003a06 3f5d5fe1 3f0090ff     M.]?.:.?._]?...?
   12634:	3f5d2d53 3f00e7e4 3f5cfaa3 3f013eb5     S-]?...?..\?.>.?
   12644:	3f5cc7d1 3f019573 3f5c94dd 3f01ec1c     ..\?s..?..\?...?
   12654:	3f5c61c7 3f0242b1 3f5c2e8e 3f029932     .a\?.B.?..\?2..?
   12664:	3f5bfb34 3f02ef9f 3f5bc7b8 3f0345f8     4.[?...?..[?.E.?
   12674:	3f5b941a 3f039c3d 3f5b605a 3f03f26d     ..[?=..?Z`[?m..?
   12684:	3f5b2c79 3f044889 3f5af875 3f049e91     y,[?.H.?u.Z?...?
   12694:	3f5ac450 3f04f484 3f5a9009 3f054a62     P.Z?...?..Z?bJ.?
   126a4:	3f5a5ba0 3f05a02c 3f5a2716 3f05f5e2     .[Z?,..?.'Z?...?
   126b4:	3f59f26a 3f064b82 3f59bd9c 3f06a10e     j.Y?.K.?..Y?...?
   126c4:	3f5988ad 3f06f686 3f59539c 3f074be8     ..Y?...?.SY?.K.?
   126d4:	3f591e6a 3f07a136 3f58e917 3f07f66f     j.Y?6..?..X?o..?
   126e4:	3f58b3a1 3f084b92 3f587e0b 3f08a0a1     ..X?.K.?.~X?...?
   126f4:	3f584853 3f08f59b 3f581279 3f094a7f     SHX?...?y.X?.J.?
   12704:	3f57dc7f 3f099f4e 3f57a663 3f09f409     ..W?N..?c.W?...?
   12714:	3f577026 3f0a48ad 3f5739c7 3f0a9d3d     &pW?.H.?.9W?=..?
   12724:	3f570348 3f0af1b7 3f56cca7 3f0b461c     H.W?...?..V?.F.?
   12734:	3f5695e5 3f0b9a6b 3f565f02 3f0beea5     ..V?k..?._V?...?
   12744:	3f5627fe 3f0c42c9 3f55f0d9 3f0c96d7     .'V?.B.?..U?...?
   12754:	3f55b993 3f0cead0 3f55822c 3f0d3eb3     ..U?...?,.U?.>.?
   12764:	3f554aa4 3f0d9281 3f5512fb 3f0de638     .JU?...?..U?8..?
   12774:	3f54db31 3f0e39da 3f54a347 3f0e8d65     1.T?.9.?G.T?e..?
   12784:	3f546b3b 3f0ee0db 3f54330f 3f0f343b     ;kT?...?.3T?;4.?
   12794:	3f53fac3 3f0f8784 3f53c255 3f0fdab8     ..S?...?U.S?...?
   127a4:	3f5389c7 3f102dd5 3f535118 3f1080dc     ..S?.-.?.QS?...?
   127b4:	3f531849 3f10d3cd 3f52df59 3f1126a7     I.S?...?Y.R?.&.?
   127c4:	3f52a649 3f11796b 3f526d18 3f11cc19     I.R?ky.?.mR?...?
   127d4:	3f5233c6 3f121eb0 3f51fa54 3f127130     .3R?...?T.Q?0q.?
   127e4:	3f51c0c2 3f12c39a 3f518710 3f1315ee     ..Q?...?..Q?...?
   127f4:	3f514d3d 3f13682a 3f51134a 3f13ba50     =MQ?*h.?J.Q?P..?
   12804:	3f50d937 3f140c5f 3f509f03 3f145e58     7.P?_..?..P?X^.?
   12814:	3f5064af 3f14b039 3f502a3b 3f150204     .dP?9..?;*P?...?
   12824:	3f4fefa8 3f1553b7 3f4fb4f4 3f15a554     ..O?.S.?..O?T..?
   12834:	3f4f7a1f 3f15f6d9 3f4f3f2b 3f164847     .zO?...?+?O?GH.?
   12844:	3f4f0417 3f16999f 3f4ec8e4 3f16eadf     ..O?...?..N?...?
   12854:	3f4e8d90 3f173c07 3f4e521c 3f178d18     ..N?.<.?.RN?...?
   12864:	3f4e1689 3f17de12 3f4ddad5 3f182ef5     ..N?...?..M?...?
   12874:	3f4d9f02 3f187fc0 3f4d6310 3f18d073     ..M?...?.cM?s..?
   12884:	3f4d26fd 3f19210f 3f4ceacb 3f197194     .&M?.!.?..L?.q.?
   12894:	3f4cae79 3f19c200 3f4c7208 3f1a1255     y.L?...?.rL?U..?
   128a4:	3f4c3578 3f1a6293 3f4bf8c7 3f1ab2b8     x5L?.b.?..K?...?
   128b4:	3f4bbbf8 3f1b02c6 3f4b7f09 3f1b52bb     ..K?...?..K?.R.?
   128c4:	3f4b41fa 3f1ba299 3f4b04cc 3f1bf25f     .AK?...?..K?_..?
   128d4:	3f4ac77f 3f1c420c 3f4a8a13 3f1c91a2     ..J?.B.?..J?...?
   128e4:	3f4a4c87 3f1ce11f 3f4a0edc 3f1d3084     .LJ?...?..J?.0.?
   128f4:	3f49d112 3f1d7fd1 3f499329 3f1dcf06     ..I?...?).I?...?
   12904:	3f495521 3f1e1e22 3f4916fa 3f1e6d26     !UI?"..?..I?&m.?
   12914:	3f48d8b3 3f1ebc12 3f489a4e 3f1f0ae5     ..H?...?N.H?...?
   12924:	3f485bca 3f1f599f 3f481d27 3f1fa841     .[H?.Y.?'.H?A..?
   12934:	3f47de65 3f1ff6cb 3f479f84 3f20453b     e.G?...?..G?;E ?
   12944:	3f476085 3f209393 3f472167 3f20e1d2     .`G?.. ?g!G?.. ?
   12954:	3f46e22a 3f212ff9 3f46a2ce 3f217e06     *.F?./!?..F?.~!?
   12964:	3f466354 3f21cbfb 3f4623bb 3f2219d7     TcF?..!?.#F?.."?
   12974:	3f45e403 3f226799 3f45a42d 3f22b543     ..E?.g"?-.E?C."?
   12984:	3f456439 3f2302d3 3f452426 3f23504b     9dE?..#?&$E?KP#?
   12994:	3f44e3f5 3f239da9 3f44a3a5 3f23eaee     ..D?..#?..D?..#?
   129a4:	3f446337 3f24381a 3f4422ab 3f24852c     7cD?.8$?."D?,.$?
   129b4:	3f43e200 3f24d225 3f43a138 3f251f04     ..C?%.$?8.C?..%?
   129c4:	3f436051 3f256bcb 3f431f4c 3f25b877     Q`C?.k%?L.C?w.%?
   129d4:	3f42de29 3f26050a 3f429ce8 3f265184     ).B?..&?..B?.Q&?
   129e4:	3f425b89 3f269de3 3f421a0b 3f26ea2a     .[B?..&?..B?*.&?
   129f4:	3f41d870 3f273656 3f4196b7 3f278268     p.A?V6'?..A?h.'?
   12a04:	3f4154e1 3f27ce61 3f4112ec 3f281a40     .TA?a.'?..A?@.(?
   12a14:	3f40d0da 3f286605 3f408ea9 3f28b1b0     ..@?.f(?..@?..(?
   12a24:	3f404c5c 3f28fd41 3f4009f0 3f2948b8     \L@?A.(?..@?.H)?
   12a34:	3f3fc767 3f299415 3f3f84c0 3f29df57     g.??..)?..??W.)?
   12a44:	3f3f41fc 3f2a2a80 3f3eff1b 3f2a758e     .A??.**?..>?.u*?
   12a54:	3f3ebc1b 3f2ac082 3f3e78ff 3f2b0b5b     ..>?..*?.x>?[.+?
   12a64:	3f3e35c5 3f2b561b 3f3df26e 3f2ba0bf     .5>?.V+?n.=?..+?
   12a74:	3f3daef9 3f2beb4a 3f3d6b67 3f2c35b9     ..=?J.+?gk=?.5,?
   12a84:	3f3d27b8 3f2c800f 3f3ce3ec 3f2cca49     .'=?..,?..<?I.,?
   12a94:	3f3ca003 3f2d1469 3f3c5bfc 3f2d5e6f     ..<?i.-?.[<?o^-?
   12aa4:	3f3c17d9 3f2da859 3f3bd398 3f2df229     ..<?Y.-?..;?).-?
   12ab4:	3f3b8f3b 3f2e3bde 3f3b4ac1 3f2e8578     ;.;?.;.?.J;?x..?
   12ac4:	3f3b0629 3f2ecef7 3f3ac175 3f2f185b     ).;?...?u.:?[./?
   12ad4:	3f3a7ca4 3f2f61a5 3f3a37b7 3f2faad3     .|:?.a/?.7:?../?
   12ae4:	3f39f2ac 3f2ff3e6 3f39ad85 3f303cde     ..9?../?..9?.<0?
   12af4:	3f396842 3f3085bb 3f3922e1 3f30ce7c     Bh9?..0?."9?|.0?
   12b04:	3f38dd65 3f311722 3f3897cb 3f315fad     e.8?".1?..8?._1?
   12b14:	3f385216 3f31a81d 3f380c43 3f31f071     .R8?..1?C.8?q.1?
   12b24:	3f37c655 3f3238aa 3f37804a 3f3280c7     U.7?.82?J.7?..2?
   12b34:	3f373a23 3f32c8c9 3f36f3df 3f3310af     #:7?..2?..6?..3?
   12b44:	3f36ad7f 3f33587a 3f366704 3f33a029     ..6?zX3?.g6?).3?
   12b54:	3f36206c 3f33e7bc 3f35d9b8 3f342f34     l 6?..3?..5?4/4?
   12b64:	3f3592e7 3f34768f 3f354bfb 3f34bdcf     ..5?.v4?.K5?..4?
   12b74:	3f3504f3 3f3504f3 3f34bdcf 3f354bfb     ..5?..5?..4?.K5?
   12b84:	3f34768f 3f3592e7 3f342f34 3f35d9b8     .v4?..5?4/4?..5?
   12b94:	3f33e7bc 3f36206c 3f33a029 3f366704     ..3?l 6?).3?.g6?
   12ba4:	3f33587a 3f36ad7f 3f3310af 3f36f3df     zX3?..6?..3?..6?
   12bb4:	3f32c8c9 3f373a23 3f3280c7 3f37804a     ..2?#:7?..2?J.7?
   12bc4:	3f3238aa 3f37c655 3f31f071 3f380c43     .82?U.7?q.1?C.8?
   12bd4:	3f31a81d 3f385216 3f315fad 3f3897cb     ..1?.R8?._1?..8?
   12be4:	3f311722 3f38dd65 3f30ce7c 3f3922e1     ".1?e.8?|.0?."9?
   12bf4:	3f3085bb 3f396842 3f303cde 3f39ad85     ..0?Bh9?.<0?..9?
   12c04:	3f2ff3e6 3f39f2ac 3f2faad3 3f3a37b7     ../?..9?../?.7:?
   12c14:	3f2f61a5 3f3a7ca4 3f2f185b 3f3ac175     .a/?.|:?[./?u.:?
   12c24:	3f2ecef7 3f3b0629 3f2e8578 3f3b4ac1     ...?).;?x..?.J;?
   12c34:	3f2e3bde 3f3b8f3b 3f2df229 3f3bd398     .;.?;.;?).-?..;?
   12c44:	3f2da859 3f3c17d9 3f2d5e6f 3f3c5bfc     Y.-?..<?o^-?.[<?
   12c54:	3f2d1469 3f3ca003 3f2cca49 3f3ce3ec     i.-?..<?I.,?..<?
   12c64:	3f2c800f 3f3d27b8 3f2c35b9 3f3d6b67     ..,?.'=?.5,?gk=?
   12c74:	3f2beb4a 3f3daef9 3f2ba0bf 3f3df26e     J.+?..=?..+?n.=?
   12c84:	3f2b561b 3f3e35c5 3f2b0b5b 3f3e78ff     .V+?.5>?[.+?.x>?
   12c94:	3f2ac082 3f3ebc1b 3f2a758e 3f3eff1b     ..*?..>?.u*?..>?
   12ca4:	3f2a2a80 3f3f41fc 3f29df57 3f3f84c0     .**?.A??W.)?..??
   12cb4:	3f299415 3f3fc767 3f2948b8 3f4009f0     ..)?g.??.H)?..@?
   12cc4:	3f28fd41 3f404c5c 3f28b1b0 3f408ea9     A.(?\L@?..(?..@?
   12cd4:	3f286605 3f40d0da 3f281a40 3f4112ec     .f(?..@?@.(?..A?
   12ce4:	3f27ce61 3f4154e1 3f278268 3f4196b7     a.'?.TA?h.'?..A?
   12cf4:	3f273656 3f41d870 3f26ea2a 3f421a0b     V6'?p.A?*.&?..B?
   12d04:	3f269de3 3f425b89 3f265184 3f429ce8     ..&?.[B?.Q&?..B?
   12d14:	3f26050a 3f42de29 3f25b877 3f431f4c     ..&?).B?w.%?L.C?
   12d24:	3f256bcb 3f436051 3f251f04 3f43a138     .k%?Q`C?..%?8.C?
   12d34:	3f24d225 3f43e200 3f24852c 3f4422ab     %.$?..C?,.$?."D?
   12d44:	3f24381a 3f446337 3f23eaee 3f44a3a5     .8$?7cD?..#?..D?
   12d54:	3f239da9 3f44e3f5 3f23504b 3f452426     ..#?..D?KP#?&$E?
   12d64:	3f2302d3 3f456439 3f22b543 3f45a42d     ..#?9dE?C."?-.E?
   12d74:	3f226799 3f45e403 3f2219d7 3f4623bb     .g"?..E?.."?.#F?
   12d84:	3f21cbfb 3f466354 3f217e06 3f46a2ce     ..!?TcF?.~!?..F?
   12d94:	3f212ff9 3f46e22a 3f20e1d2 3f472167     ./!?*.F?.. ?g!G?
   12da4:	3f209393 3f476085 3f20453b 3f479f84     .. ?.`G?;E ?..G?
   12db4:	3f1ff6cb 3f47de65 3f1fa841 3f481d27     ...?e.G?A..?'.H?
   12dc4:	3f1f599f 3f485bca 3f1f0ae5 3f489a4e     .Y.?.[H?...?N.H?
   12dd4:	3f1ebc12 3f48d8b3 3f1e6d26 3f4916fa     ...?..H?&m.?..I?
   12de4:	3f1e1e22 3f495521 3f1dcf06 3f499329     "..?!UI?...?).I?
   12df4:	3f1d7fd1 3f49d112 3f1d3084 3f4a0edc     ...?..I?.0.?..J?
   12e04:	3f1ce11f 3f4a4c87 3f1c91a2 3f4a8a13     ...?.LJ?...?..J?
   12e14:	3f1c420c 3f4ac77f 3f1bf25f 3f4b04cc     .B.?..J?_..?..K?
   12e24:	3f1ba299 3f4b41fa 3f1b52bb 3f4b7f09     ...?.AK?.R.?..K?
   12e34:	3f1b02c6 3f4bbbf8 3f1ab2b8 3f4bf8c7     ...?..K?...?..K?
   12e44:	3f1a6293 3f4c3578 3f1a1255 3f4c7208     .b.?x5L?U..?.rL?
   12e54:	3f19c200 3f4cae79 3f197194 3f4ceacb     ...?y.L?.q.?..L?
   12e64:	3f19210f 3f4d26fd 3f18d073 3f4d6310     .!.?.&M?s..?.cM?
   12e74:	3f187fc0 3f4d9f02 3f182ef5 3f4ddad5     ...?..M?...?..M?
   12e84:	3f17de12 3f4e1689 3f178d18 3f4e521c     ...?..N?...?.RN?
   12e94:	3f173c07 3f4e8d90 3f16eadf 3f4ec8e4     .<.?..N?...?..N?
   12ea4:	3f16999f 3f4f0417 3f164847 3f4f3f2b     ...?..O?GH.?+?O?
   12eb4:	3f15f6d9 3f4f7a1f 3f15a554 3f4fb4f4     ...?.zO?T..?..O?
   12ec4:	3f1553b7 3f4fefa8 3f150204 3f502a3b     .S.?..O?...?;*P?
   12ed4:	3f14b039 3f5064af 3f145e58 3f509f03     9..?.dP?X^.?..P?
   12ee4:	3f140c5f 3f50d937 3f13ba50 3f51134a     _..?7.P?P..?J.Q?
   12ef4:	3f13682a 3f514d3d 3f1315ee 3f518710     *h.?=MQ?...?..Q?
   12f04:	3f12c39a 3f51c0c2 3f127130 3f51fa54     ...?..Q?0q.?T.Q?
   12f14:	3f121eb0 3f5233c6 3f11cc19 3f526d18     ...?.3R?...?.mR?
   12f24:	3f11796b 3f52a649 3f1126a7 3f52df59     ky.?I.R?.&.?Y.R?
   12f34:	3f10d3cd 3f531849 3f1080dc 3f535118     ...?I.S?...?.QS?
   12f44:	3f102dd5 3f5389c7 3f0fdab8 3f53c255     .-.?..S?...?U.S?
   12f54:	3f0f8784 3f53fac3 3f0f343b 3f54330f     ...?..S?;4.?.3T?
   12f64:	3f0ee0db 3f546b3b 3f0e8d65 3f54a347     ...?;kT?e..?G.T?
   12f74:	3f0e39da 3f54db31 3f0de638 3f5512fb     .9.?1.T?8..?..U?
   12f84:	3f0d9281 3f554aa4 3f0d3eb3 3f55822c     ...?.JU?.>.?,.U?
   12f94:	3f0cead0 3f55b993 3f0c96d7 3f55f0d9     ...?..U?...?..U?
   12fa4:	3f0c42c9 3f5627fe 3f0beea5 3f565f02     .B.?.'V?...?._V?
   12fb4:	3f0b9a6b 3f5695e5 3f0b461c 3f56cca7     k..?..V?.F.?..V?
   12fc4:	3f0af1b7 3f570348 3f0a9d3d 3f5739c7     ...?H.W?=..?.9W?
   12fd4:	3f0a48ad 3f577026 3f09f409 3f57a663     .H.?&pW?...?c.W?
   12fe4:	3f099f4e 3f57dc7f 3f094a7f 3f581279     N..?..W?.J.?y.X?
   12ff4:	3f08f59b 3f584853 3f08a0a1 3f587e0b     ...?SHX?...?.~X?
   13004:	3f084b92 3f58b3a1 3f07f66f 3f58e917     .K.?..X?o..?..X?
   13014:	3f07a136 3f591e6a 3f074be8 3f59539c     6..?j.Y?.K.?.SY?
   13024:	3f06f686 3f5988ad 3f06a10e 3f59bd9c     ...?..Y?...?..Y?
   13034:	3f064b82 3f59f26a 3f05f5e2 3f5a2716     .K.?j.Y?...?.'Z?
   13044:	3f05a02c 3f5a5ba0 3f054a62 3f5a9009     ,..?.[Z?bJ.?..Z?
   13054:	3f04f484 3f5ac450 3f049e91 3f5af875     ...?P.Z?...?u.Z?
   13064:	3f044889 3f5b2c79 3f03f26d 3f5b605a     .H.?y,[?m..?Z`[?
   13074:	3f039c3d 3f5b941a 3f0345f8 3f5bc7b8     =..?..[?.E.?..[?
   13084:	3f02ef9f 3f5bfb34 3f029932 3f5c2e8e     ...?4.[?2..?..\?
   13094:	3f0242b1 3f5c61c7 3f01ec1c 3f5c94dd     .B.?.a\?...?..\?
   130a4:	3f019573 3f5cc7d1 3f013eb5 3f5cfaa3     s..?..\?.>.?..\?
   130b4:	3f00e7e4 3f5d2d53 3f0090ff 3f5d5fe1     ...?S-]?...?._]?
   130c4:	3f003a06 3f5d924d 3effc5f3 3f5dc497     .:.?M.]?...>..]?
   130d4:	3eff17b2 3f5df6be 3efe694a 3f5e28c3     ...>..]?Ji.>.(^?
   130e4:	3efdbabb 3f5e5aa6 3efd0c04 3f5e8c67     ...>.Z^?...>g.^?
   130f4:	3efc5d27 3f5ebe05 3efbae22 3f5eef81     '].>..^?"..>..^?
   13104:	3efafef7 3f5f20db 3efa4fa5 3f5f5212     ...>. _?.O.>.R_?
   13114:	3ef9a02d 3f5f8327 3ef8f08e 3f5fb419     -..>'._?...>.._?
   13124:	3ef840c8 3f5fe4e9 3ef790dc 3f601596     .@.>.._?...>..`?
   13134:	3ef6e0cb 3f604621 3ef63093 3f607689     ...>!F`?.0.>.v`?
   13144:	3ef58035 3f60a6cf 3ef4cfb1 3f60d6f2     5..>..`?...>..`?
   13154:	3ef41f07 3f6106f2 3ef36e38 3f6136d0     ...>..a?8n.>.6a?
   13164:	3ef2bd43 3f61668a 3ef20c29 3f619622     C..>.fa?)..>".a?
   13174:	3ef15aea 3f61c598 3ef0a985 3f61f4ea     .Z.>..a?...>..a?
   13184:	3eeff7fb 3f62241a 3eef464c 3f625326     ...>.$b?LF.>&Sb?
   13194:	3eee9479 3f628210 3eede280 3f62b0d7     y..>..b?...>..b?
   131a4:	3eed3063 3f62df7b 3eec7e21 3f630dfc     c0.>{.b?!~.>..c?
   131b4:	3eebcbbb 3f633c5a 3eeb1930 3f636a95     ...>Z<c?0..>.jc?
   131c4:	3eea6681 3f6398ac 3ee9b3ae 3f63c6a1     .f.>..c?...>..c?
   131d4:	3ee900b7 3f63f473 3ee84d9c 3f642221     ...>s.c?.M.>!"d?
   131e4:	3ee79a5d 3f644fac 3ee6e6fb 3f647d14     ]..>.Od?...>.}d?
   131f4:	3ee63375 3f64aa59 3ee57fcb 3f64d77b     u3.>Y.d?...>{.d?
   13204:	3ee4cbfe 3f650479 3ee4180e 3f653154     ...>y.e?...>T1e?
   13214:	3ee363fa 3f655e0b 3ee2afc4 3f658aa0     .c.>.^e?...>..e?
   13224:	3ee1fb6a 3f65b710 3ee146ee 3f65e35e     j..>..e?.F.>^.e?
   13234:	3ee0924f 3f660f88 3edfdd8d 3f663b8e     O..>..f?...>.;f?
   13244:	3edf28a9 3f666771 3ede73a2 3f669330     .(.>qgf?.s.>0.f?
   13254:	3eddbe79 3f66becc 3edd092e 3f66ea45     y..>..f?...>E.f?
   13264:	3edc53c1 3f671599 3edb9e31 3f6740ca     .S.>..g?1..>.@g?
   13274:	3edae880 3f676bd8 3eda32ad 3f6796c1     ...>.kg?.2.>..g?
   13284:	3ed97cb9 3f67c187 3ed8c6a3 3f67ec2a     .|.>..g?...>*.g?
   13294:	3ed8106b 3f6816a8 3ed75a13 3f684103     k..>..h?.Z.>.Ah?
   132a4:	3ed6a399 3f686b39 3ed5ecfd 3f68954c     ...>9kh?...>L.h?
   132b4:	3ed53641 3f68bf3c 3ed47f64 3f68e907     A6.><.h?d..>..h?
   132c4:	3ed3c867 3f6912ae 3ed31148 3f693c32     g..>..i?H..>2<i?
   132d4:	3ed25a09 3f696591 3ed1a2aa 3f698ecc     .Z.>.ei?...>..i?
   132e4:	3ed0eb2a 3f69b7e4 3ed0338a 3f69e0d7     *..>..i?.3.>..i?
   132f4:	3ecf7bca 3f6a09a7 3ecec3ea 3f6a3252     .{.>..j?...>R2j?
   13304:	3ece0bea 3f6a5ad9 3ecd53ca 3f6a833c     ...>.Zj?.S.><.j?
   13314:	3ecc9b8b 3f6aab7b 3ecbe32c 3f6ad395     ...>{.j?,..>..j?
   13324:	3ecb2aae 3f6afb8c 3eca7210 3f6b235e     .*.>..j?.r.>^#k?
   13334:	3ec9b953 3f6b4b0c 3ec90077 3f6b7295     S..>.Kk?w..>.rk?
   13344:	3ec8477c 3f6b99fb 3ec78e62 3f6bc13b     |G.>..k?b..>;.k?
   13354:	3ec6d529 3f6be858 3ec61bd2 3f6c0f50     )..>X.k?...>P.l?
   13364:	3ec5625c 3f6c3624 3ec4a8c8 3f6c5cd4     \b.>$6l?...>.\l?
   13374:	3ec3ef15 3f6c835e 3ec33544 3f6ca9c5     ...>^.l?D5.>..l?
   13384:	3ec27b55 3f6cd007 3ec1c148 3f6cf624     U{.>..l?H..>$.l?
   13394:	3ec1071e 3f6d1c1d 3ec04cd5 3f6d41f2     ...>..m?.L.>.Am?
   133a4:	3ebf926f 3f6d67a1 3ebed7eb 3f6d8d2d     o..>.gm?...>-.m?
   133b4:	3ebe1d4a 3f6db293 3ebd628b 3f6dd7d5     J..>..m?.b.>..m?
   133c4:	3ebca7af 3f6dfcf2 3ebbecb6 3f6e21eb     ...>..m?...>.!n?
   133d4:	3ebb31a0 3f6e46be 3eba766e 3f6e6b6d     .1.>.Fn?nv.>mkn?
   133e4:	3eb9bb1e 3f6e8ff8 3eb8ffb2 3f6eb45d     ...>..n?...>].n?
   133f4:	3eb8442a 3f6ed89e 3eb78884 3f6efcba     *D.>..n?...>..n?
   13404:	3eb6ccc3 3f6f20b0 3eb610e6 3f6f4483     ...>. o?...>.Do?
   13414:	3eb554ec 3f6f6830 3eb498d6 3f6f8bb8     .T.>0ho?...>..o?
   13424:	3eb3dca5 3f6faf1b 3eb32058 3f6fd25a     ...>..o?X .>Z.o?
   13434:	3eb263ef 3f6ff573 3eb1a76b 3f701867     .c.>s.o?k..>g.p?
   13444:	3eb0eacb 3f703b37 3eb02e10 3f705de1     ...>7;p?...>.]p?
   13454:	3eaf713a 3f708066 3eaeb449 3f70a2c6     :q.>f.p?I..>..p?
   13464:	3eadf73c 3f70c502 3ead3a15 3f70e717     <..>..p?.:.>..p?
   13474:	3eac7cd4 3f710908 3eabbf77 3f712ad4     .|.>..q?w..>.*q?
   13484:	3eab0201 3f714c7a 3eaa446f 3f716dfb     ...>zLq?oD.>.mq?
   13494:	3ea986c4 3f718f57 3ea8c8fe 3f71b08e     ...>W.q?...>..q?
   134a4:	3ea80b1f 3f71d19f 3ea74d25 3f71f28c     ...>..q?%M.>..q?
   134b4:	3ea68f12 3f721352 3ea5d0e5 3f7233f4     ...>R.r?...>.3r?
   134c4:	3ea5129f 3f725470 3ea4543f 3f7274c7     ...>pTr??T.>.tr?
   134d4:	3ea395c5 3f7294f8 3ea2d733 3f72b504     ...>..r?3..>..r?
   134e4:	3ea21887 3f72d4eb 3ea159c2 3f72f4ac     ...>..r?.Y.>..r?
   134f4:	3ea09ae5 3f731447 3e9fdbee 3f7333be     ...>G.s?...>.3s?
   13504:	3e9f1cdf 3f73530e 3e9e5db8 3f737239     ...>.Ss?.].>9rs?
   13514:	3e9d9e78 3f73913f 3e9cdf20 3f73b01f     x..>?.s? ..>..s?
   13524:	3e9c1faf 3f73ced9 3e9b6027 3f73ed6e     ...>..s?'`.>n.s?
   13534:	3e9aa086 3f740bdd 3e99e0ce 3f742a27     ...>..t?...>'*t?
   13544:	3e9920fe 3f74484b 3e986116 3f746649     . .>KHt?.a.>Ift?
   13554:	3e97a117 3f748422 3e96e100 3f74a1d5     ...>".t?...>..t?
   13564:	3e9620d2 3f74bf62 3e95608d 3f74dcc9     . .>b.t?.`.>..t?
   13574:	3e94a031 3f74fa0b 3e93dfbf 3f751727     1..>..t?...>'.u?
   13584:	3e931f35 3f75341d 3e925e94 3f7550ed     5..>.4u?.^.>.Pu?
   13594:	3e919ddd 3f756d97 3e90dd10 3f758a1c     ...>.mu?...>..u?
   135a4:	3e901c2c 3f75a67b 3e8f5b32 3f75c2b3     ,..>{.u?2[.>..u?
   135b4:	3e8e9a22 3f75dec6 3e8dd8fc 3f75fab3     "..>..u?...>..u?
   135c4:	3e8d17c0 3f76167a 3e8c566e 3f76321b     ...>z.v?nV.>.2v?
   135d4:	3e8b9507 3f764d97 3e8ad38a 3f7668ec     ...>.Mv?...>.hv?
   135e4:	3e8a11f8 3f76841b 3e895050 3f769f24     ...>..v?PP.>$.v?
   135f4:	3e888e93 3f76ba07 3e87ccc1 3f76d4c4     ...>..v?...>..v?
   13604:	3e870ada 3f76ef5b 3e8648df 3f7709cc     ...>[.v?.H.>..w?
   13614:	3e8586ce 3f772417 3e84c4aa 3f773e3c     ...>.$w?...><>w?
   13624:	3e840270 3f77583a 3e834022 3f777213     p..>:Xw?"@.>.rw?
   13634:	3e827dc0 3f778bc5 3e81bb4a 3f77a551     .}.>..w?J..>Q.w?
   13644:	3e80f8c0 3f77beb7 3e803622 3f77d7f7     ...>..w?"6.>..w?
   13654:	3e7ee6e1 3f77f110 3e7d6156 3f780a04     ..~>..w?Va}>..x?
   13664:	3e7bdba4 3f7822d1 3e7a55cb 3f783b77     ..{>."x?.Uz>w;x?
   13674:	3e78cfcc 3f7853f8 3e7749a6 3f786c52     ..x>.Sx?.Iw>Rlx?
   13684:	3e75c35a 3f788486 3e743ce8 3f789c93     Z.u>..x?.<t>..x?
   13694:	3e72b651 3f78b47b 3e712f94 3f78cc3b     Q.r>{.x?./q>;.x?
   136a4:	3e6fa8b2 3f78e3d6 3e6e21ab 3f78fb4a     ..o>..x?.!n>J.x?
   136b4:	3e6c9a7f 3f791298 3e6b132f 3f7929bf     ..l>..y?/.k>.)y?
   136c4:	3e698bba 3f7940c0 3e680422 3f79579a     ..i>.@y?".h>.Wy?
   136d4:	3e667c66 3f796e4e 3e64f486 3f7984dc     f|f>Nny?..d>..y?
   136e4:	3e636c83 3f799b43 3e61e45c 3f79b183     .lc>C.y?\.a>..y?
   136f4:	3e605c13 3f79c79d 3e5ed3a8 3f79dd91     .\`>..y?..^>..y?
   13704:	3e5d4b1a 3f79f35e 3e5bc26a 3f7a0904     .K]>^.y?j.[>..z?
   13714:	3e5a3997 3f7a1e84 3e58b0a4 3f7a33dd     .9Z>..z?..X>.3z?
   13724:	3e57278f 3f7a4910 3e559e58 3f7a5e1c     .'W>.Iz?X.U>.^z?
   13734:	3e541501 3f7a7302 3e528b89 3f7a87c1     ..T>.sz?..R>..z?
   13744:	3e5101f1 3f7a9c59 3e4f7838 3f7ab0cb     ..Q>Y.z?8xO>..z?
   13754:	3e4dee60 3f7ac516 3e4c6467 3f7ad93a     `.M>..z?gdL>:.z?
   13764:	3e4ada4f 3f7aed37 3e495018 3f7b010e     O.J>7.z?.PI>..{?
   13774:	3e47c5c2 3f7b14be 3e463b4d 3f7b2848     ..G>..{?M;F>H({?
   13784:	3e44b0b9 3f7b3bab 3e432607 3f7b4ee7     ..D>.;{?.&C>.N{?
   13794:	3e419b37 3f7b61fc 3e401049 3f7b74ea     7.A>.a{?I.@>.t{?
   137a4:	3e3e853e 3f7b87b2 3e3cfa15 3f7b9a53     >.>>..{?..<>S.{?
   137b4:	3e3b6ecf 3f7baccd 3e39e36c 3f7bbf20     .n;>..{?l.9> .{?
   137c4:	3e3857ec 3f7bd14d 3e36cc50 3f7be353     .W8>M.{?P.6>S.{?
   137d4:	3e354098 3f7bf531 3e33b4c4 3f7c06e9     .@5>1.{?..3>..|?
   137e4:	3e3228d4 3f7c187a 3e309cc9 3f7c29e5     .(2>z.|?..0>.)|?
   137f4:	3e2f10a2 3f7c3b28 3e2d8461 3f7c4c44     ../>(;|?a.->DL|?
   13804:	3e2bf804 3f7c5d3a 3e2a6b8d 3f7c6e08     ..+>:]|?.k*>.n|?
   13814:	3e28defc 3f7c7eb0 3e275251 3f7c8f31     ..(>.~|?QR'>1.|?
   13824:	3e25c58c 3f7c9f8a 3e2438ad 3f7cafbd     ..%>..|?.8$>..|?
   13834:	3e22abb6 3f7cbfc9 3e211ea5 3f7ccfae     ..">..|?..!>..|?
   13844:	3e1f917b 3f7cdf6c 3e1e0438 3f7cef03     {..>l.|?8..>..|?
   13854:	3e1c76de 3f7cfe73 3e1ae96b 3f7d0dbc     .v.>s.|?k..>..}?
   13864:	3e195be0 3f7d1cdd 3e17ce3d 3f7d2bd8     .[.>..}?=..>.+}?
   13874:	3e164083 3f7d3aac 3e14b2b2 3f7d4959     .@.>.:}?...>YI}?
   13884:	3e1324ca 3f7d57de 3e1196cc 3f7d663d     .$.>.W}?...>=f}?
   13894:	3e1008b7 3f7d7474 3e0e7a8b 3f7d8285     ...>tt}?.z.>..}?
   138a4:	3e0cec4a 3f7d906e 3e0b5df3 3f7d9e30     J..>n.}?.].>0.}?
   138b4:	3e09cf86 3f7dabcc 3e084105 3f7db940     ...>..}?.A.>@.}?
   138c4:	3e06b26e 3f7dc68c 3e0523c2 3f7dd3b2     n..>..}?.#.>..}?
   138d4:	3e039502 3f7de0b1 3e02062e 3f7ded88     ...>..}?...>..}?
   138e4:	3e007745 3f7dfa38 3dfdd092 3f7e06c2     Ew.>8.}?...=..~?
   138f4:	3dfab273 3f7e1324 3df7942c 3f7e1f5e     s..=$.~?,..=^.~?
   13904:	3df475c0 3f7e2b72 3df1572e 3f7e375e     .u.=r+~?.W.=^7~?
   13914:	3dee3876 3f7e4323 3deb199a 3f7e4ec1     v8.=#C~?...=.N~?
   13924:	3de7fa9a 3f7e5a38 3de4db76 3f7e6588     ...=8Z~?v..=.e~?
   13934:	3de1bc2e 3f7e70b0 3dde9cc4 3f7e7bb1     ...=.p~?...=.{~?
   13944:	3ddb7d37 3f7e868b 3dd85d89 3f7e913d     7}.=..~?.].==.~?
   13954:	3dd53db9 3f7e9bc9 3dd21dc8 3f7ea62d     .=.=..~?...=-.~?
   13964:	3dcefdb7 3f7eb069 3dcbdd86 3f7eba7f     ...=i.~?...=..~?
   13974:	3dc8bd36 3f7ec46d 3dc59cc6 3f7ece34     6..=m.~?...=4.~?
   13984:	3dc27c39 3f7ed7d4 3dbf5b8d 3f7ee14c     9|.=..~?.[.=L.~?
   13994:	3dbc3ac3 3f7eea9d 3db919dd 3f7ef3c7     .:.=..~?...=..~?
   139a4:	3db5f8da 3f7efcc9 3db2d7bb 3f7f05a4     ...=..~?...=...?
   139b4:	3dafb680 3f7f0e58 3dac952b 3f7f16e4     ...=X..?+..=...?
   139c4:	3da973ba 3f7f1f49 3da65230 3f7f2787     .s.=I..?0R.=.'.?
   139d4:	3da3308c 3f7f2f9d 3da00ecf 3f7f378d     .0.=./.?...=.7.?
   139e4:	3d9cecf9 3f7f3f54 3d99cb0a 3f7f46f4     ...=T?.?...=.F.?
   139f4:	3d96a905 3f7f4e6d 3d9386e7 3f7f55bf     ...=mN.?...=.U.?
   13a04:	3d9064b4 3f7f5ce9 3d8d426a 3f7f63ec     .d.=.\.?jB.=.c.?
   13a14:	3d8a200a 3f7f6ac7 3d86fd94 3f7f717b     . .=.j.?...={q.?
   13a24:	3d83db0a 3f7f7808 3d80b86c 3f7f7e6d     ...=.x.?l..=m~.?
   13a34:	3d7b2b74 3f7f84ab 3d74e5e9 3f7f8ac2     t+{=...?..t=...?
   13a44:	3d6ea038 3f7f90b1 3d685a62 3f7f9678     8.n=...?bZh=x..?
   13a54:	3d621468 3f7f9c18 3d5bce4c 3f7fa191     h.b=...?L.[=...?
   13a64:	3d55880e 3f7fa6e3 3d4f41af 3f7fac0d     ..U=...?.AO=...?
   13a74:	3d48fb2f 3f7fb10f 3d42b491 3f7fb5ea     /.H=...?..B=...?
   13a84:	3d3c6dd5 3f7fba9e 3d3626fc 3f7fbf2a     .m<=...?.&6=*..?
   13a94:	3d2fe007 3f7fc38f 3d2998f6 3f7fc7cc     ../=...?..)=...?
   13aa4:	3d2351cc 3f7fcbe2 3d1d0a88 3f7fcfd1     .Q#=...?...=...?
   13ab4:	3d16c32c 3f7fd398 3d107bb8 3f7fd737     ,..=...?.{.=7..?
   13ac4:	3d0a342f 3f7fdaaf 3d03ec90 3f7fde00     /4.=...?...=...?
   13ad4:	3cfb49b9 3f7fe129 3ceeba2d 3f7fe42b     .I.<)..?-..<+..?
   13ae4:	3ce22a7b 3f7fe705 3cd59aa6 3f7fe9b8     {*.<...?...<...?
   13af4:	3cc90ab0 3f7fec43 3cbc7a9b 3f7feea7     ...<C..?.z.<...?
   13b04:	3cafea69 3f7ff0e3 3ca35a1c 3f7ff2f8     i..<...?.Z.<...?
   13b14:	3c96c9b6 3f7ff4e6 3c8a3938 3f7ff6ac     ...<...?89.<...?
   13b24:	3c7b514b 3f7ff84a 3c623000 3f7ff9c1     KQ{<J..?.0b<...?
   13b34:	3c490e90 3f7ffb11 3c2fed02 3f7ffc39     ..I<...?../<9..?
   13b44:	3c16cb59 3f7ffd39 3bfb5330 3f7ffe13     Y..<9..?0S.;...?
   13b54:	3bc90f89 3f7ffec4 3b96cbc1 3f7fff4e     ...;...?...;N..?
   13b64:	3b490fc7 3f7fffb1 3ac90fd4 3f7fffec     ..I;...?...:...?
   13b74:	00000000 3f800000 bac90fd4 3f7fffec     .......?.......?
   13b84:	bb490fc7 3f7fffb1 bb96cbc1 3f7fff4e     ..I....?....N..?
   13b94:	bbc90f89 3f7ffec4 bbfb5330 3f7ffe13     .......?0S.....?
   13ba4:	bc16cb59 3f7ffd39 bc2fed02 3f7ffc39     Y...9..?../.9..?
   13bb4:	bc490e90 3f7ffb11 bc623000 3f7ff9c1     ..I....?.0b....?
   13bc4:	bc7b514b 3f7ff84a bc8a3938 3f7ff6ac     KQ{.J..?89.....?
   13bd4:	bc96c9b6 3f7ff4e6 bca35a1c 3f7ff2f8     .......?.Z.....?
   13be4:	bcafea69 3f7ff0e3 bcbc7a9b 3f7feea7     i......?.z.....?
   13bf4:	bcc90ab0 3f7fec43 bcd59aa6 3f7fe9b8     ....C..?.......?
   13c04:	bce22a7b 3f7fe705 bceeba2d 3f7fe42b     {*.....?-...+..?
   13c14:	bcfb49b9 3f7fe129 bd03ec90 3f7fde00     .I..)..?.......?
   13c24:	bd0a342f 3f7fdaaf bd107bb8 3f7fd737     /4.....?.{..7..?
   13c34:	bd16c32c 3f7fd398 bd1d0a88 3f7fcfd1     ,......?.......?
   13c44:	bd2351cc 3f7fcbe2 bd2998f6 3f7fc7cc     .Q#....?..)....?
   13c54:	bd2fe007 3f7fc38f bd3626fc 3f7fbf2a     ../....?.&6.*..?
   13c64:	bd3c6dd5 3f7fba9e bd42b491 3f7fb5ea     .m<....?..B....?
   13c74:	bd48fb2f 3f7fb10f bd4f41af 3f7fac0d     /.H....?.AO....?
   13c84:	bd55880e 3f7fa6e3 bd5bce4c 3f7fa191     ..U....?L.[....?
   13c94:	bd621468 3f7f9c18 bd685a62 3f7f9678     h.b....?bZh.x..?
   13ca4:	bd6ea038 3f7f90b1 bd74e5e9 3f7f8ac2     8.n....?..t....?
   13cb4:	bd7b2b74 3f7f84ab bd80b86c 3f7f7e6d     t+{....?l...m~.?
   13cc4:	bd83db0a 3f7f7808 bd86fd94 3f7f717b     .....x.?....{q.?
   13cd4:	bd8a200a 3f7f6ac7 bd8d426a 3f7f63ec     . ...j.?jB...c.?
   13ce4:	bd9064b4 3f7f5ce9 bd9386e7 3f7f55bf     .d...\.?.....U.?
   13cf4:	bd96a905 3f7f4e6d bd99cb0a 3f7f46f4     ....mN.?.....F.?
   13d04:	bd9cecf9 3f7f3f54 bda00ecf 3f7f378d     ....T?.?.....7.?
   13d14:	bda3308c 3f7f2f9d bda65230 3f7f2787     .0.../.?0R...'.?
   13d24:	bda973ba 3f7f1f49 bdac952b 3f7f16e4     .s..I..?+......?
   13d34:	bdafb680 3f7f0e58 bdb2d7bb 3f7f05a4     ....X..?.......?
   13d44:	bdb5f8da 3f7efcc9 bdb919dd 3f7ef3c7     ......~?......~?
   13d54:	bdbc3ac3 3f7eea9d bdbf5b8d 3f7ee14c     .:....~?.[..L.~?
   13d64:	bdc27c39 3f7ed7d4 bdc59cc6 3f7ece34     9|....~?....4.~?
   13d74:	bdc8bd36 3f7ec46d bdcbdd86 3f7eba7f     6...m.~?......~?
   13d84:	bdcefdb7 3f7eb069 bdd21dc8 3f7ea62d     ....i.~?....-.~?
   13d94:	bdd53db9 3f7e9bc9 bdd85d89 3f7e913d     .=....~?.]..=.~?
   13da4:	bddb7d37 3f7e868b bdde9cc4 3f7e7bb1     7}....~?.....{~?
   13db4:	bde1bc2e 3f7e70b0 bde4db76 3f7e6588     .....p~?v....e~?
   13dc4:	bde7fa9a 3f7e5a38 bdeb199a 3f7e4ec1     ....8Z~?.....N~?
   13dd4:	bdee3876 3f7e4323 bdf1572e 3f7e375e     v8..#C~?.W..^7~?
   13de4:	bdf475c0 3f7e2b72 bdf7942c 3f7e1f5e     .u..r+~?,...^.~?
   13df4:	bdfab273 3f7e1324 bdfdd092 3f7e06c2     s...$.~?......~?
   13e04:	be007745 3f7dfa38 be02062e 3f7ded88     Ew..8.}?......}?
   13e14:	be039502 3f7de0b1 be0523c2 3f7dd3b2     ......}?.#....}?
   13e24:	be06b26e 3f7dc68c be084105 3f7db940     n.....}?.A..@.}?
   13e34:	be09cf86 3f7dabcc be0b5df3 3f7d9e30     ......}?.]..0.}?
   13e44:	be0cec4a 3f7d906e be0e7a8b 3f7d8285     J...n.}?.z....}?
   13e54:	be1008b7 3f7d7474 be1196cc 3f7d663d     ....tt}?....=f}?
   13e64:	be1324ca 3f7d57de be14b2b2 3f7d4959     .$...W}?....YI}?
   13e74:	be164083 3f7d3aac be17ce3d 3f7d2bd8     .@...:}?=....+}?
   13e84:	be195be0 3f7d1cdd be1ae96b 3f7d0dbc     .[....}?k.....}?
   13e94:	be1c76de 3f7cfe73 be1e0438 3f7cef03     .v..s.|?8.....|?
   13ea4:	be1f917b 3f7cdf6c be211ea5 3f7ccfae     {...l.|?..!...|?
   13eb4:	be22abb6 3f7cbfc9 be2438ad 3f7cafbd     .."...|?.8$...|?
   13ec4:	be25c58c 3f7c9f8a be275251 3f7c8f31     ..%...|?QR'.1.|?
   13ed4:	be28defc 3f7c7eb0 be2a6b8d 3f7c6e08     ..(..~|?.k*..n|?
   13ee4:	be2bf804 3f7c5d3a be2d8461 3f7c4c44     ..+.:]|?a.-.DL|?
   13ef4:	be2f10a2 3f7c3b28 be309cc9 3f7c29e5     ../.(;|?..0..)|?
   13f04:	be3228d4 3f7c187a be33b4c4 3f7c06e9     .(2.z.|?..3...|?
   13f14:	be354098 3f7bf531 be36cc50 3f7be353     .@5.1.{?P.6.S.{?
   13f24:	be3857ec 3f7bd14d be39e36c 3f7bbf20     .W8.M.{?l.9. .{?
   13f34:	be3b6ecf 3f7baccd be3cfa15 3f7b9a53     .n;...{?..<.S.{?
   13f44:	be3e853e 3f7b87b2 be401049 3f7b74ea     >.>...{?I.@..t{?
   13f54:	be419b37 3f7b61fc be432607 3f7b4ee7     7.A..a{?.&C..N{?
   13f64:	be44b0b9 3f7b3bab be463b4d 3f7b2848     ..D..;{?M;F.H({?
   13f74:	be47c5c2 3f7b14be be495018 3f7b010e     ..G...{?.PI...{?
   13f84:	be4ada4f 3f7aed37 be4c6467 3f7ad93a     O.J.7.z?gdL.:.z?
   13f94:	be4dee60 3f7ac516 be4f7838 3f7ab0cb     `.M...z?8xO...z?
   13fa4:	be5101f1 3f7a9c59 be528b89 3f7a87c1     ..Q.Y.z?..R...z?
   13fb4:	be541501 3f7a7302 be559e58 3f7a5e1c     ..T..sz?X.U..^z?
   13fc4:	be57278f 3f7a4910 be58b0a4 3f7a33dd     .'W..Iz?..X..3z?
   13fd4:	be5a3997 3f7a1e84 be5bc26a 3f7a0904     .9Z...z?j.[...z?
   13fe4:	be5d4b1a 3f79f35e be5ed3a8 3f79dd91     .K].^.y?..^...y?
   13ff4:	be605c13 3f79c79d be61e45c 3f79b183     .\`...y?\.a...y?
   14004:	be636c83 3f799b43 be64f486 3f7984dc     .lc.C.y?..d...y?
   14014:	be667c66 3f796e4e be680422 3f79579a     f|f.Nny?".h..Wy?
   14024:	be698bba 3f7940c0 be6b132f 3f7929bf     ..i..@y?/.k..)y?
   14034:	be6c9a7f 3f791298 be6e21ab 3f78fb4a     ..l...y?.!n.J.x?
   14044:	be6fa8b2 3f78e3d6 be712f94 3f78cc3b     ..o...x?./q.;.x?
   14054:	be72b651 3f78b47b be743ce8 3f789c93     Q.r.{.x?.<t...x?
   14064:	be75c35a 3f788486 be7749a6 3f786c52     Z.u...x?.Iw.Rlx?
   14074:	be78cfcc 3f7853f8 be7a55cb 3f783b77     ..x..Sx?.Uz.w;x?
   14084:	be7bdba4 3f7822d1 be7d6156 3f780a04     ..{.."x?Va}...x?
   14094:	be7ee6e1 3f77f110 be803622 3f77d7f7     ..~...w?"6....w?
   140a4:	be80f8c0 3f77beb7 be81bb4a 3f77a551     ......w?J...Q.w?
   140b4:	be827dc0 3f778bc5 be834022 3f777213     .}....w?"@...rw?
   140c4:	be840270 3f77583a be84c4aa 3f773e3c     p...:Xw?....<>w?
   140d4:	be8586ce 3f772417 be8648df 3f7709cc     .....$w?.H....w?
   140e4:	be870ada 3f76ef5b be87ccc1 3f76d4c4     ....[.v?......v?
   140f4:	be888e93 3f76ba07 be895050 3f769f24     ......v?PP..$.v?
   14104:	be8a11f8 3f76841b be8ad38a 3f7668ec     ......v?.....hv?
   14114:	be8b9507 3f764d97 be8c566e 3f76321b     .....Mv?nV...2v?
   14124:	be8d17c0 3f76167a be8dd8fc 3f75fab3     ....z.v?......u?
   14134:	be8e9a22 3f75dec6 be8f5b32 3f75c2b3     ".....u?2[....u?
   14144:	be901c2c 3f75a67b be90dd10 3f758a1c     ,...{.u?......u?
   14154:	be919ddd 3f756d97 be925e94 3f7550ed     .....mu?.^...Pu?
   14164:	be931f35 3f75341d be93dfbf 3f751727     5....4u?....'.u?
   14174:	be94a031 3f74fa0b be95608d 3f74dcc9     1.....t?.`....t?
   14184:	be9620d2 3f74bf62 be96e100 3f74a1d5     . ..b.t?......t?
   14194:	be97a117 3f748422 be986116 3f746649     ....".t?.a..Ift?
   141a4:	be9920fe 3f74484b be99e0ce 3f742a27     . ..KHt?....'*t?
   141b4:	be9aa086 3f740bdd be9b6027 3f73ed6e     ......t?'`..n.s?
   141c4:	be9c1faf 3f73ced9 be9cdf20 3f73b01f     ......s? .....s?
   141d4:	be9d9e78 3f73913f be9e5db8 3f737239     x...?.s?.]..9rs?
   141e4:	be9f1cdf 3f73530e be9fdbee 3f7333be     .....Ss?.....3s?
   141f4:	bea09ae5 3f731447 bea159c2 3f72f4ac     ....G.s?.Y....r?
   14204:	bea21887 3f72d4eb bea2d733 3f72b504     ......r?3.....r?
   14214:	bea395c5 3f7294f8 bea4543f 3f7274c7     ......r??T...tr?
   14224:	bea5129f 3f725470 bea5d0e5 3f7233f4     ....pTr?.....3r?
   14234:	bea68f12 3f721352 bea74d25 3f71f28c     ....R.r?%M....q?
   14244:	bea80b1f 3f71d19f bea8c8fe 3f71b08e     ......q?......q?
   14254:	bea986c4 3f718f57 beaa446f 3f716dfb     ....W.q?oD...mq?
   14264:	beab0201 3f714c7a beabbf77 3f712ad4     ....zLq?w....*q?
   14274:	beac7cd4 3f710908 bead3a15 3f70e717     .|....q?.:....p?
   14284:	beadf73c 3f70c502 beaeb449 3f70a2c6     <.....p?I.....p?
   14294:	beaf713a 3f708066 beb02e10 3f705de1     :q..f.p?.....]p?
   142a4:	beb0eacb 3f703b37 beb1a76b 3f701867     ....7;p?k...g.p?
   142b4:	beb263ef 3f6ff573 beb32058 3f6fd25a     .c..s.o?X ..Z.o?
   142c4:	beb3dca5 3f6faf1b beb498d6 3f6f8bb8     ......o?......o?
   142d4:	beb554ec 3f6f6830 beb610e6 3f6f4483     .T..0ho?.....Do?
   142e4:	beb6ccc3 3f6f20b0 beb78884 3f6efcba     ..... o?......n?
   142f4:	beb8442a 3f6ed89e beb8ffb2 3f6eb45d     *D....n?....].n?
   14304:	beb9bb1e 3f6e8ff8 beba766e 3f6e6b6d     ......n?nv..mkn?
   14314:	bebb31a0 3f6e46be bebbecb6 3f6e21eb     .1...Fn?.....!n?
   14324:	bebca7af 3f6dfcf2 bebd628b 3f6dd7d5     ......m?.b....m?
   14334:	bebe1d4a 3f6db293 bebed7eb 3f6d8d2d     J.....m?....-.m?
   14344:	bebf926f 3f6d67a1 bec04cd5 3f6d41f2     o....gm?.L...Am?
   14354:	bec1071e 3f6d1c1d bec1c148 3f6cf624     ......m?H...$.l?
   14364:	bec27b55 3f6cd007 bec33544 3f6ca9c5     U{....l?D5....l?
   14374:	bec3ef15 3f6c835e bec4a8c8 3f6c5cd4     ....^.l?.....\l?
   14384:	bec5625c 3f6c3624 bec61bd2 3f6c0f50     \b..$6l?....P.l?
   14394:	bec6d529 3f6be858 bec78e62 3f6bc13b     )...X.k?b...;.k?
   143a4:	bec8477c 3f6b99fb bec90077 3f6b7295     |G....k?w....rk?
   143b4:	bec9b953 3f6b4b0c beca7210 3f6b235e     S....Kk?.r..^#k?
   143c4:	becb2aae 3f6afb8c becbe32c 3f6ad395     .*....j?,.....j?
   143d4:	becc9b8b 3f6aab7b becd53ca 3f6a833c     ....{.j?.S..<.j?
   143e4:	bece0bea 3f6a5ad9 becec3ea 3f6a3252     .....Zj?....R2j?
   143f4:	becf7bca 3f6a09a7 bed0338a 3f69e0d7     .{....j?.3....i?
   14404:	bed0eb2a 3f69b7e4 bed1a2aa 3f698ecc     *.....i?......i?
   14414:	bed25a09 3f696591 bed31148 3f693c32     .Z...ei?H...2<i?
   14424:	bed3c867 3f6912ae bed47f64 3f68e907     g.....i?d.....h?
   14434:	bed53641 3f68bf3c bed5ecfd 3f68954c     A6..<.h?....L.h?
   14444:	bed6a399 3f686b39 bed75a13 3f684103     ....9kh?.Z...Ah?
   14454:	bed8106b 3f6816a8 bed8c6a3 3f67ec2a     k.....h?....*.g?
   14464:	bed97cb9 3f67c187 beda32ad 3f6796c1     .|....g?.2....g?
   14474:	bedae880 3f676bd8 bedb9e31 3f6740ca     .....kg?1....@g?
   14484:	bedc53c1 3f671599 bedd092e 3f66ea45     .S....g?....E.f?
   14494:	beddbe79 3f66becc bede73a2 3f669330     y.....f?.s..0.f?
   144a4:	bedf28a9 3f666771 bedfdd8d 3f663b8e     .(..qgf?.....;f?
   144b4:	bee0924f 3f660f88 bee146ee 3f65e35e     O.....f?.F..^.e?
   144c4:	bee1fb6a 3f65b710 bee2afc4 3f658aa0     j.....e?......e?
   144d4:	bee363fa 3f655e0b bee4180e 3f653154     .c...^e?....T1e?
   144e4:	bee4cbfe 3f650479 bee57fcb 3f64d77b     ....y.e?....{.d?
   144f4:	bee63375 3f64aa59 bee6e6fb 3f647d14     u3..Y.d?.....}d?
   14504:	bee79a5d 3f644fac bee84d9c 3f642221     ]....Od?.M..!"d?
   14514:	bee900b7 3f63f473 bee9b3ae 3f63c6a1     ....s.c?......c?
   14524:	beea6681 3f6398ac beeb1930 3f636a95     .f....c?0....jc?
   14534:	beebcbbb 3f633c5a beec7e21 3f630dfc     ....Z<c?!~....c?
   14544:	beed3063 3f62df7b beede280 3f62b0d7     c0..{.b?......b?
   14554:	beee9479 3f628210 beef464c 3f625326     y.....b?LF..&Sb?
   14564:	beeff7fb 3f62241a bef0a985 3f61f4ea     .....$b?......a?
   14574:	bef15aea 3f61c598 bef20c29 3f619622     .Z....a?)...".a?
   14584:	bef2bd43 3f61668a bef36e38 3f6136d0     C....fa?8n...6a?
   14594:	bef41f07 3f6106f2 bef4cfb1 3f60d6f2     ......a?......`?
   145a4:	bef58035 3f60a6cf bef63093 3f607689     5.....`?.0...v`?
   145b4:	bef6e0cb 3f604621 bef790dc 3f601596     ....!F`?......`?
   145c4:	bef840c8 3f5fe4e9 bef8f08e 3f5fb419     .@...._?......_?
   145d4:	bef9a02d 3f5f8327 befa4fa5 3f5f5212     -...'._?.O...R_?
   145e4:	befafef7 3f5f20db befbae22 3f5eef81     ..... _?".....^?
   145f4:	befc5d27 3f5ebe05 befd0c04 3f5e8c67     ']....^?....g.^?
   14604:	befdbabb 3f5e5aa6 befe694a 3f5e28c3     .....Z^?Ji...(^?
   14614:	beff17b2 3f5df6be beffc5f3 3f5dc497     ......]?......]?
   14624:	bf003a06 3f5d924d bf0090ff 3f5d5fe1     .:..M.]?....._]?
   14634:	bf00e7e4 3f5d2d53 bf013eb5 3f5cfaa3     ....S-]?.>....\?
   14644:	bf019573 3f5cc7d1 bf01ec1c 3f5c94dd     s.....\?......\?
   14654:	bf0242b1 3f5c61c7 bf029932 3f5c2e8e     .B...a\?2.....\?
   14664:	bf02ef9f 3f5bfb34 bf0345f8 3f5bc7b8     ....4.[?.E....[?
   14674:	bf039c3d 3f5b941a bf03f26d 3f5b605a     =.....[?m...Z`[?
   14684:	bf044889 3f5b2c79 bf049e91 3f5af875     .H..y,[?....u.Z?
   14694:	bf04f484 3f5ac450 bf054a62 3f5a9009     ....P.Z?bJ....Z?
   146a4:	bf05a02c 3f5a5ba0 bf05f5e2 3f5a2716     ,....[Z?.....'Z?
   146b4:	bf064b82 3f59f26a bf06a10e 3f59bd9c     .K..j.Y?......Y?
   146c4:	bf06f686 3f5988ad bf074be8 3f59539c     ......Y?.K...SY?
   146d4:	bf07a136 3f591e6a bf07f66f 3f58e917     6...j.Y?o.....X?
   146e4:	bf084b92 3f58b3a1 bf08a0a1 3f587e0b     .K....X?.....~X?
   146f4:	bf08f59b 3f584853 bf094a7f 3f581279     ....SHX?.J..y.X?
   14704:	bf099f4e 3f57dc7f bf09f409 3f57a663     N.....W?....c.W?
   14714:	bf0a48ad 3f577026 bf0a9d3d 3f5739c7     .H..&pW?=....9W?
   14724:	bf0af1b7 3f570348 bf0b461c 3f56cca7     ....H.W?.F....V?
   14734:	bf0b9a6b 3f5695e5 bf0beea5 3f565f02     k.....V?....._V?
   14744:	bf0c42c9 3f5627fe bf0c96d7 3f55f0d9     .B...'V?......U?
   14754:	bf0cead0 3f55b993 bf0d3eb3 3f55822c     ......U?.>..,.U?
   14764:	bf0d9281 3f554aa4 bf0de638 3f5512fb     .....JU?8.....U?
   14774:	bf0e39da 3f54db31 bf0e8d65 3f54a347     .9..1.T?e...G.T?
   14784:	bf0ee0db 3f546b3b bf0f343b 3f54330f     ....;kT?;4...3T?
   14794:	bf0f8784 3f53fac3 bf0fdab8 3f53c255     ......S?....U.S?
   147a4:	bf102dd5 3f5389c7 bf1080dc 3f535118     .-....S?.....QS?
   147b4:	bf10d3cd 3f531849 bf1126a7 3f52df59     ....I.S?.&..Y.R?
   147c4:	bf11796b 3f52a649 bf11cc19 3f526d18     ky..I.R?.....mR?
   147d4:	bf121eb0 3f5233c6 bf127130 3f51fa54     .....3R?0q..T.Q?
   147e4:	bf12c39a 3f51c0c2 bf1315ee 3f518710     ......Q?......Q?
   147f4:	bf13682a 3f514d3d bf13ba50 3f51134a     *h..=MQ?P...J.Q?
   14804:	bf140c5f 3f50d937 bf145e58 3f509f03     _...7.P?X^....P?
   14814:	bf14b039 3f5064af bf150204 3f502a3b     9....dP?....;*P?
   14824:	bf1553b7 3f4fefa8 bf15a554 3f4fb4f4     .S....O?T.....O?
   14834:	bf15f6d9 3f4f7a1f bf164847 3f4f3f2b     .....zO?GH..+?O?
   14844:	bf16999f 3f4f0417 bf16eadf 3f4ec8e4     ......O?......N?
   14854:	bf173c07 3f4e8d90 bf178d18 3f4e521c     .<....N?.....RN?
   14864:	bf17de12 3f4e1689 bf182ef5 3f4ddad5     ......N?......M?
   14874:	bf187fc0 3f4d9f02 bf18d073 3f4d6310     ......M?s....cM?
   14884:	bf19210f 3f4d26fd bf197194 3f4ceacb     .!...&M?.q....L?
   14894:	bf19c200 3f4cae79 bf1a1255 3f4c7208     ....y.L?U....rL?
   148a4:	bf1a6293 3f4c3578 bf1ab2b8 3f4bf8c7     .b..x5L?......K?
   148b4:	bf1b02c6 3f4bbbf8 bf1b52bb 3f4b7f09     ......K?.R....K?
   148c4:	bf1ba299 3f4b41fa bf1bf25f 3f4b04cc     .....AK?_.....K?
   148d4:	bf1c420c 3f4ac77f bf1c91a2 3f4a8a13     .B....J?......J?
   148e4:	bf1ce11f 3f4a4c87 bf1d3084 3f4a0edc     .....LJ?.0....J?
   148f4:	bf1d7fd1 3f49d112 bf1dcf06 3f499329     ......I?....).I?
   14904:	bf1e1e22 3f495521 bf1e6d26 3f4916fa     "...!UI?&m....I?
   14914:	bf1ebc12 3f48d8b3 bf1f0ae5 3f489a4e     ......H?....N.H?
   14924:	bf1f599f 3f485bca bf1fa841 3f481d27     .Y...[H?A...'.H?
   14934:	bf1ff6cb 3f47de65 bf20453b 3f479f84     ....e.G?;E ...G?
   14944:	bf209393 3f476085 bf20e1d2 3f472167     .. ..`G?.. .g!G?
   14954:	bf212ff9 3f46e22a bf217e06 3f46a2ce     ./!.*.F?.~!...F?
   14964:	bf21cbfb 3f466354 bf2219d7 3f4623bb     ..!.TcF?.."..#F?
   14974:	bf226799 3f45e403 bf22b543 3f45a42d     .g"...E?C.".-.E?
   14984:	bf2302d3 3f456439 bf23504b 3f452426     ..#.9dE?KP#.&$E?
   14994:	bf239da9 3f44e3f5 bf23eaee 3f44a3a5     ..#...D?..#...D?
   149a4:	bf24381a 3f446337 bf24852c 3f4422ab     .8$.7cD?,.$.."D?
   149b4:	bf24d225 3f43e200 bf251f04 3f43a138     %.$...C?..%.8.C?
   149c4:	bf256bcb 3f436051 bf25b877 3f431f4c     .k%.Q`C?w.%.L.C?
   149d4:	bf26050a 3f42de29 bf265184 3f429ce8     ..&.).B?.Q&...B?
   149e4:	bf269de3 3f425b89 bf26ea2a 3f421a0b     ..&..[B?*.&...B?
   149f4:	bf273656 3f41d870 bf278268 3f4196b7     V6'.p.A?h.'...A?
   14a04:	bf27ce61 3f4154e1 bf281a40 3f4112ec     a.'..TA?@.(...A?
   14a14:	bf286605 3f40d0da bf28b1b0 3f408ea9     .f(...@?..(...@?
   14a24:	bf28fd41 3f404c5c bf2948b8 3f4009f0     A.(.\L@?.H)...@?
   14a34:	bf299415 3f3fc767 bf29df57 3f3f84c0     ..).g.??W.)...??
   14a44:	bf2a2a80 3f3f41fc bf2a758e 3f3eff1b     .**..A??.u*...>?
   14a54:	bf2ac082 3f3ebc1b bf2b0b5b 3f3e78ff     ..*...>?[.+..x>?
   14a64:	bf2b561b 3f3e35c5 bf2ba0bf 3f3df26e     .V+..5>?..+.n.=?
   14a74:	bf2beb4a 3f3daef9 bf2c35b9 3f3d6b67     J.+...=?.5,.gk=?
   14a84:	bf2c800f 3f3d27b8 bf2cca49 3f3ce3ec     ..,..'=?I.,...<?
   14a94:	bf2d1469 3f3ca003 bf2d5e6f 3f3c5bfc     i.-...<?o^-..[<?
   14aa4:	bf2da859 3f3c17d9 bf2df229 3f3bd398     Y.-...<?).-...;?
   14ab4:	bf2e3bde 3f3b8f3b bf2e8578 3f3b4ac1     .;..;.;?x....J;?
   14ac4:	bf2ecef7 3f3b0629 bf2f185b 3f3ac175     ....).;?[./.u.:?
   14ad4:	bf2f61a5 3f3a7ca4 bf2faad3 3f3a37b7     .a/..|:?../..7:?
   14ae4:	bf2ff3e6 3f39f2ac bf303cde 3f39ad85     ../...9?.<0...9?
   14af4:	bf3085bb 3f396842 bf30ce7c 3f3922e1     ..0.Bh9?|.0.."9?
   14b04:	bf311722 3f38dd65 bf315fad 3f3897cb     ".1.e.8?._1...8?
   14b14:	bf31a81d 3f385216 bf31f071 3f380c43     ..1..R8?q.1.C.8?
   14b24:	bf3238aa 3f37c655 bf3280c7 3f37804a     .82.U.7?..2.J.7?
   14b34:	bf32c8c9 3f373a23 bf3310af 3f36f3df     ..2.#:7?..3...6?
   14b44:	bf33587a 3f36ad7f bf33a029 3f366704     zX3...6?).3..g6?
   14b54:	bf33e7bc 3f36206c bf342f34 3f35d9b8     ..3.l 6?4/4...5?
   14b64:	bf34768f 3f3592e7 bf34bdcf 3f354bfb     .v4...5?..4..K5?
   14b74:	bf3504f3 3f3504f3 bf354bfb 3f34bdcf     ..5...5?.K5...4?
   14b84:	bf3592e7 3f34768f bf35d9b8 3f342f34     ..5..v4?..5.4/4?
   14b94:	bf36206c 3f33e7bc bf366704 3f33a029     l 6...3?.g6.).3?
   14ba4:	bf36ad7f 3f33587a bf36f3df 3f3310af     ..6.zX3?..6...3?
   14bb4:	bf373a23 3f32c8c9 bf37804a 3f3280c7     #:7...2?J.7...2?
   14bc4:	bf37c655 3f3238aa bf380c43 3f31f071     U.7..82?C.8.q.1?
   14bd4:	bf385216 3f31a81d bf3897cb 3f315fad     .R8...1?..8.._1?
   14be4:	bf38dd65 3f311722 bf3922e1 3f30ce7c     e.8.".1?."9.|.0?
   14bf4:	bf396842 3f3085bb bf39ad85 3f303cde     Bh9...0?..9..<0?
   14c04:	bf39f2ac 3f2ff3e6 bf3a37b7 3f2faad3     ..9.../?.7:.../?
   14c14:	bf3a7ca4 3f2f61a5 bf3ac175 3f2f185b     .|:..a/?u.:.[./?
   14c24:	bf3b0629 3f2ecef7 bf3b4ac1 3f2e8578     ).;....?.J;.x..?
   14c34:	bf3b8f3b 3f2e3bde bf3bd398 3f2df229     ;.;..;.?..;.).-?
   14c44:	bf3c17d9 3f2da859 bf3c5bfc 3f2d5e6f     ..<.Y.-?.[<.o^-?
   14c54:	bf3ca003 3f2d1469 bf3ce3ec 3f2cca49     ..<.i.-?..<.I.,?
   14c64:	bf3d27b8 3f2c800f bf3d6b67 3f2c35b9     .'=...,?gk=..5,?
   14c74:	bf3daef9 3f2beb4a bf3df26e 3f2ba0bf     ..=.J.+?n.=...+?
   14c84:	bf3e35c5 3f2b561b bf3e78ff 3f2b0b5b     .5>..V+?.x>.[.+?
   14c94:	bf3ebc1b 3f2ac082 bf3eff1b 3f2a758e     ..>...*?..>..u*?
   14ca4:	bf3f41fc 3f2a2a80 bf3f84c0 3f29df57     .A?..**?..?.W.)?
   14cb4:	bf3fc767 3f299415 bf4009f0 3f2948b8     g.?...)?..@..H)?
   14cc4:	bf404c5c 3f28fd41 bf408ea9 3f28b1b0     \L@.A.(?..@...(?
   14cd4:	bf40d0da 3f286605 bf4112ec 3f281a40     ..@..f(?..A.@.(?
   14ce4:	bf4154e1 3f27ce61 bf4196b7 3f278268     .TA.a.'?..A.h.'?
   14cf4:	bf41d870 3f273656 bf421a0b 3f26ea2a     p.A.V6'?..B.*.&?
   14d04:	bf425b89 3f269de3 bf429ce8 3f265184     .[B...&?..B..Q&?
   14d14:	bf42de29 3f26050a bf431f4c 3f25b877     ).B...&?L.C.w.%?
   14d24:	bf436051 3f256bcb bf43a138 3f251f04     Q`C..k%?8.C...%?
   14d34:	bf43e200 3f24d225 bf4422ab 3f24852c     ..C.%.$?."D.,.$?
   14d44:	bf446337 3f24381a bf44a3a5 3f23eaee     7cD..8$?..D...#?
   14d54:	bf44e3f5 3f239da9 bf452426 3f23504b     ..D...#?&$E.KP#?
   14d64:	bf456439 3f2302d3 bf45a42d 3f22b543     9dE...#?-.E.C."?
   14d74:	bf45e403 3f226799 bf4623bb 3f2219d7     ..E..g"?.#F..."?
   14d84:	bf466354 3f21cbfb bf46a2ce 3f217e06     TcF...!?..F..~!?
   14d94:	bf46e22a 3f212ff9 bf472167 3f20e1d2     *.F../!?g!G... ?
   14da4:	bf476085 3f209393 bf479f84 3f20453b     .`G... ?..G.;E ?
   14db4:	bf47de65 3f1ff6cb bf481d27 3f1fa841     e.G....?'.H.A..?
   14dc4:	bf485bca 3f1f599f bf489a4e 3f1f0ae5     .[H..Y.?N.H....?
   14dd4:	bf48d8b3 3f1ebc12 bf4916fa 3f1e6d26     ..H....?..I.&m.?
   14de4:	bf495521 3f1e1e22 bf499329 3f1dcf06     !UI."..?).I....?
   14df4:	bf49d112 3f1d7fd1 bf4a0edc 3f1d3084     ..I....?..J..0.?
   14e04:	bf4a4c87 3f1ce11f bf4a8a13 3f1c91a2     .LJ....?..J....?
   14e14:	bf4ac77f 3f1c420c bf4b04cc 3f1bf25f     ..J..B.?..K._..?
   14e24:	bf4b41fa 3f1ba299 bf4b7f09 3f1b52bb     .AK....?..K..R.?
   14e34:	bf4bbbf8 3f1b02c6 bf4bf8c7 3f1ab2b8     ..K....?..K....?
   14e44:	bf4c3578 3f1a6293 bf4c7208 3f1a1255     x5L..b.?.rL.U..?
   14e54:	bf4cae79 3f19c200 bf4ceacb 3f197194     y.L....?..L..q.?
   14e64:	bf4d26fd 3f19210f bf4d6310 3f18d073     .&M..!.?.cM.s..?
   14e74:	bf4d9f02 3f187fc0 bf4ddad5 3f182ef5     ..M....?..M....?
   14e84:	bf4e1689 3f17de12 bf4e521c 3f178d18     ..N....?.RN....?
   14e94:	bf4e8d90 3f173c07 bf4ec8e4 3f16eadf     ..N..<.?..N....?
   14ea4:	bf4f0417 3f16999f bf4f3f2b 3f164847     ..O....?+?O.GH.?
   14eb4:	bf4f7a1f 3f15f6d9 bf4fb4f4 3f15a554     .zO....?..O.T..?
   14ec4:	bf4fefa8 3f1553b7 bf502a3b 3f150204     ..O..S.?;*P....?
   14ed4:	bf5064af 3f14b039 bf509f03 3f145e58     .dP.9..?..P.X^.?
   14ee4:	bf50d937 3f140c5f bf51134a 3f13ba50     7.P._..?J.Q.P..?
   14ef4:	bf514d3d 3f13682a bf518710 3f1315ee     =MQ.*h.?..Q....?
   14f04:	bf51c0c2 3f12c39a bf51fa54 3f127130     ..Q....?T.Q.0q.?
   14f14:	bf5233c6 3f121eb0 bf526d18 3f11cc19     .3R....?.mR....?
   14f24:	bf52a649 3f11796b bf52df59 3f1126a7     I.R.ky.?Y.R..&.?
   14f34:	bf531849 3f10d3cd bf535118 3f1080dc     I.S....?.QS....?
   14f44:	bf5389c7 3f102dd5 bf53c255 3f0fdab8     ..S..-.?U.S....?
   14f54:	bf53fac3 3f0f8784 bf54330f 3f0f343b     ..S....?.3T.;4.?
   14f64:	bf546b3b 3f0ee0db bf54a347 3f0e8d65     ;kT....?G.T.e..?
   14f74:	bf54db31 3f0e39da bf5512fb 3f0de638     1.T..9.?..U.8..?
   14f84:	bf554aa4 3f0d9281 bf55822c 3f0d3eb3     .JU....?,.U..>.?
   14f94:	bf55b993 3f0cead0 bf55f0d9 3f0c96d7     ..U....?..U....?
   14fa4:	bf5627fe 3f0c42c9 bf565f02 3f0beea5     .'V..B.?._V....?
   14fb4:	bf5695e5 3f0b9a6b bf56cca7 3f0b461c     ..V.k..?..V..F.?
   14fc4:	bf570348 3f0af1b7 bf5739c7 3f0a9d3d     H.W....?.9W.=..?
   14fd4:	bf577026 3f0a48ad bf57a663 3f09f409     &pW..H.?c.W....?
   14fe4:	bf57dc7f 3f099f4e bf581279 3f094a7f     ..W.N..?y.X..J.?
   14ff4:	bf584853 3f08f59b bf587e0b 3f08a0a1     SHX....?.~X....?
   15004:	bf58b3a1 3f084b92 bf58e917 3f07f66f     ..X..K.?..X.o..?
   15014:	bf591e6a 3f07a136 bf59539c 3f074be8     j.Y.6..?.SY..K.?
   15024:	bf5988ad 3f06f686 bf59bd9c 3f06a10e     ..Y....?..Y....?
   15034:	bf59f26a 3f064b82 bf5a2716 3f05f5e2     j.Y..K.?.'Z....?
   15044:	bf5a5ba0 3f05a02c bf5a9009 3f054a62     .[Z.,..?..Z.bJ.?
   15054:	bf5ac450 3f04f484 bf5af875 3f049e91     P.Z....?u.Z....?
   15064:	bf5b2c79 3f044889 bf5b605a 3f03f26d     y,[..H.?Z`[.m..?
   15074:	bf5b941a 3f039c3d bf5bc7b8 3f0345f8     ..[.=..?..[..E.?
   15084:	bf5bfb34 3f02ef9f bf5c2e8e 3f029932     4.[....?..\.2..?
   15094:	bf5c61c7 3f0242b1 bf5c94dd 3f01ec1c     .a\..B.?..\....?
   150a4:	bf5cc7d1 3f019573 bf5cfaa3 3f013eb5     ..\.s..?..\..>.?
   150b4:	bf5d2d53 3f00e7e4 bf5d5fe1 3f0090ff     S-]....?._]....?
   150c4:	bf5d924d 3f003a06 bf5dc497 3effc5f3     M.]..:.?..]....>
   150d4:	bf5df6be 3eff17b2 bf5e28c3 3efe694a     ..]....>.(^.Ji.>
   150e4:	bf5e5aa6 3efdbabb bf5e8c67 3efd0c04     .Z^....>g.^....>
   150f4:	bf5ebe05 3efc5d27 bf5eef81 3efbae22     ..^.'].>..^."..>
   15104:	bf5f20db 3efafef7 bf5f5212 3efa4fa5     . _....>.R_..O.>
   15114:	bf5f8327 3ef9a02d bf5fb419 3ef8f08e     '._.-..>.._....>
   15124:	bf5fe4e9 3ef840c8 bf601596 3ef790dc     .._..@.>..`....>
   15134:	bf604621 3ef6e0cb bf607689 3ef63093     !F`....>.v`..0.>
   15144:	bf60a6cf 3ef58035 bf60d6f2 3ef4cfb1     ..`.5..>..`....>
   15154:	bf6106f2 3ef41f07 bf6136d0 3ef36e38     ..a....>.6a.8n.>
   15164:	bf61668a 3ef2bd43 bf619622 3ef20c29     .fa.C..>".a.)..>
   15174:	bf61c598 3ef15aea bf61f4ea 3ef0a985     ..a..Z.>..a....>
   15184:	bf62241a 3eeff7fb bf625326 3eef464c     .$b....>&Sb.LF.>
   15194:	bf628210 3eee9479 bf62b0d7 3eede280     ..b.y..>..b....>
   151a4:	bf62df7b 3eed3063 bf630dfc 3eec7e21     {.b.c0.>..c.!~.>
   151b4:	bf633c5a 3eebcbbb bf636a95 3eeb1930     Z<c....>.jc.0..>
   151c4:	bf6398ac 3eea6681 bf63c6a1 3ee9b3ae     ..c..f.>..c....>
   151d4:	bf63f473 3ee900b7 bf642221 3ee84d9c     s.c....>!"d..M.>
   151e4:	bf644fac 3ee79a5d bf647d14 3ee6e6fb     .Od.]..>.}d....>
   151f4:	bf64aa59 3ee63375 bf64d77b 3ee57fcb     Y.d.u3.>{.d....>
   15204:	bf650479 3ee4cbfe bf653154 3ee4180e     y.e....>T1e....>
   15214:	bf655e0b 3ee363fa bf658aa0 3ee2afc4     .^e..c.>..e....>
   15224:	bf65b710 3ee1fb6a bf65e35e 3ee146ee     ..e.j..>^.e..F.>
   15234:	bf660f88 3ee0924f bf663b8e 3edfdd8d     ..f.O..>.;f....>
   15244:	bf666771 3edf28a9 bf669330 3ede73a2     qgf..(.>0.f..s.>
   15254:	bf66becc 3eddbe79 bf66ea45 3edd092e     ..f.y..>E.f....>
   15264:	bf671599 3edc53c1 bf6740ca 3edb9e31     ..g..S.>.@g.1..>
   15274:	bf676bd8 3edae880 bf6796c1 3eda32ad     .kg....>..g..2.>
   15284:	bf67c187 3ed97cb9 bf67ec2a 3ed8c6a3     ..g..|.>*.g....>
   15294:	bf6816a8 3ed8106b bf684103 3ed75a13     ..h.k..>.Ah..Z.>
   152a4:	bf686b39 3ed6a399 bf68954c 3ed5ecfd     9kh....>L.h....>
   152b4:	bf68bf3c 3ed53641 bf68e907 3ed47f64     <.h.A6.>..h.d..>
   152c4:	bf6912ae 3ed3c867 bf693c32 3ed31148     ..i.g..>2<i.H..>
   152d4:	bf696591 3ed25a09 bf698ecc 3ed1a2aa     .ei..Z.>..i....>
   152e4:	bf69b7e4 3ed0eb2a bf69e0d7 3ed0338a     ..i.*..>..i..3.>
   152f4:	bf6a09a7 3ecf7bca bf6a3252 3ecec3ea     ..j..{.>R2j....>
   15304:	bf6a5ad9 3ece0bea bf6a833c 3ecd53ca     .Zj....><.j..S.>
   15314:	bf6aab7b 3ecc9b8b bf6ad395 3ecbe32c     {.j....>..j.,..>
   15324:	bf6afb8c 3ecb2aae bf6b235e 3eca7210     ..j..*.>^#k..r.>
   15334:	bf6b4b0c 3ec9b953 bf6b7295 3ec90077     .Kk.S..>.rk.w..>
   15344:	bf6b99fb 3ec8477c bf6bc13b 3ec78e62     ..k.|G.>;.k.b..>
   15354:	bf6be858 3ec6d529 bf6c0f50 3ec61bd2     X.k.)..>P.l....>
   15364:	bf6c3624 3ec5625c bf6c5cd4 3ec4a8c8     $6l.\b.>.\l....>
   15374:	bf6c835e 3ec3ef15 bf6ca9c5 3ec33544     ^.l....>..l.D5.>
   15384:	bf6cd007 3ec27b55 bf6cf624 3ec1c148     ..l.U{.>$.l.H..>
   15394:	bf6d1c1d 3ec1071e bf6d41f2 3ec04cd5     ..m....>.Am..L.>
   153a4:	bf6d67a1 3ebf926f bf6d8d2d 3ebed7eb     .gm.o..>-.m....>
   153b4:	bf6db293 3ebe1d4a bf6dd7d5 3ebd628b     ..m.J..>..m..b.>
   153c4:	bf6dfcf2 3ebca7af bf6e21eb 3ebbecb6     ..m....>.!n....>
   153d4:	bf6e46be 3ebb31a0 bf6e6b6d 3eba766e     .Fn..1.>mkn.nv.>
   153e4:	bf6e8ff8 3eb9bb1e bf6eb45d 3eb8ffb2     ..n....>].n....>
   153f4:	bf6ed89e 3eb8442a bf6efcba 3eb78884     ..n.*D.>..n....>
   15404:	bf6f20b0 3eb6ccc3 bf6f4483 3eb610e6     . o....>.Do....>
   15414:	bf6f6830 3eb554ec bf6f8bb8 3eb498d6     0ho..T.>..o....>
   15424:	bf6faf1b 3eb3dca5 bf6fd25a 3eb32058     ..o....>Z.o.X .>
   15434:	bf6ff573 3eb263ef bf701867 3eb1a76b     s.o..c.>g.p.k..>
   15444:	bf703b37 3eb0eacb bf705de1 3eb02e10     7;p....>.]p....>
   15454:	bf708066 3eaf713a bf70a2c6 3eaeb449     f.p.:q.>..p.I..>
   15464:	bf70c502 3eadf73c bf70e717 3ead3a15     ..p.<..>..p..:.>
   15474:	bf710908 3eac7cd4 bf712ad4 3eabbf77     ..q..|.>.*q.w..>
   15484:	bf714c7a 3eab0201 bf716dfb 3eaa446f     zLq....>.mq.oD.>
   15494:	bf718f57 3ea986c4 bf71b08e 3ea8c8fe     W.q....>..q....>
   154a4:	bf71d19f 3ea80b1f bf71f28c 3ea74d25     ..q....>..q.%M.>
   154b4:	bf721352 3ea68f12 bf7233f4 3ea5d0e5     R.r....>.3r....>
   154c4:	bf725470 3ea5129f bf7274c7 3ea4543f     pTr....>.tr.?T.>
   154d4:	bf7294f8 3ea395c5 bf72b504 3ea2d733     ..r....>..r.3..>
   154e4:	bf72d4eb 3ea21887 bf72f4ac 3ea159c2     ..r....>..r..Y.>
   154f4:	bf731447 3ea09ae5 bf7333be 3e9fdbee     G.s....>.3s....>
   15504:	bf73530e 3e9f1cdf bf737239 3e9e5db8     .Ss....>9rs..].>
   15514:	bf73913f 3e9d9e78 bf73b01f 3e9cdf20     ?.s.x..>..s. ..>
   15524:	bf73ced9 3e9c1faf bf73ed6e 3e9b6027     ..s....>n.s.'`.>
   15534:	bf740bdd 3e9aa086 bf742a27 3e99e0ce     ..t....>'*t....>
   15544:	bf74484b 3e9920fe bf746649 3e986116     KHt.. .>Ift..a.>
   15554:	bf748422 3e97a117 bf74a1d5 3e96e100     ".t....>..t....>
   15564:	bf74bf62 3e9620d2 bf74dcc9 3e95608d     b.t.. .>..t..`.>
   15574:	bf74fa0b 3e94a031 bf751727 3e93dfbf     ..t.1..>'.u....>
   15584:	bf75341d 3e931f35 bf7550ed 3e925e94     .4u.5..>.Pu..^.>
   15594:	bf756d97 3e919ddd bf758a1c 3e90dd10     .mu....>..u....>
   155a4:	bf75a67b 3e901c2c bf75c2b3 3e8f5b32     {.u.,..>..u.2[.>
   155b4:	bf75dec6 3e8e9a22 bf75fab3 3e8dd8fc     ..u."..>..u....>
   155c4:	bf76167a 3e8d17c0 bf76321b 3e8c566e     z.v....>.2v.nV.>
   155d4:	bf764d97 3e8b9507 bf7668ec 3e8ad38a     .Mv....>.hv....>
   155e4:	bf76841b 3e8a11f8 bf769f24 3e895050     ..v....>$.v.PP.>
   155f4:	bf76ba07 3e888e93 bf76d4c4 3e87ccc1     ..v....>..v....>
   15604:	bf76ef5b 3e870ada bf7709cc 3e8648df     [.v....>..w..H.>
   15614:	bf772417 3e8586ce bf773e3c 3e84c4aa     .$w....><>w....>
   15624:	bf77583a 3e840270 bf777213 3e834022     :Xw.p..>.rw."@.>
   15634:	bf778bc5 3e827dc0 bf77a551 3e81bb4a     ..w..}.>Q.w.J..>
   15644:	bf77beb7 3e80f8c0 bf77d7f7 3e803622     ..w....>..w."6.>
   15654:	bf77f110 3e7ee6e1 bf780a04 3e7d6156     ..w...~>..x.Va}>
   15664:	bf7822d1 3e7bdba4 bf783b77 3e7a55cb     ."x...{>w;x..Uz>
   15674:	bf7853f8 3e78cfcc bf786c52 3e7749a6     .Sx...x>Rlx..Iw>
   15684:	bf788486 3e75c35a bf789c93 3e743ce8     ..x.Z.u>..x..<t>
   15694:	bf78b47b 3e72b651 bf78cc3b 3e712f94     {.x.Q.r>;.x../q>
   156a4:	bf78e3d6 3e6fa8b2 bf78fb4a 3e6e21ab     ..x...o>J.x..!n>
   156b4:	bf791298 3e6c9a7f bf7929bf 3e6b132f     ..y...l>.)y./.k>
   156c4:	bf7940c0 3e698bba bf79579a 3e680422     .@y...i>.Wy.".h>
   156d4:	bf796e4e 3e667c66 bf7984dc 3e64f486     Nny.f|f>..y...d>
   156e4:	bf799b43 3e636c83 bf79b183 3e61e45c     C.y..lc>..y.\.a>
   156f4:	bf79c79d 3e605c13 bf79dd91 3e5ed3a8     ..y..\`>..y...^>
   15704:	bf79f35e 3e5d4b1a bf7a0904 3e5bc26a     ^.y..K]>..z.j.[>
   15714:	bf7a1e84 3e5a3997 bf7a33dd 3e58b0a4     ..z..9Z>.3z...X>
   15724:	bf7a4910 3e57278f bf7a5e1c 3e559e58     .Iz..'W>.^z.X.U>
   15734:	bf7a7302 3e541501 bf7a87c1 3e528b89     .sz...T>..z...R>
   15744:	bf7a9c59 3e5101f1 bf7ab0cb 3e4f7838     Y.z...Q>..z.8xO>
   15754:	bf7ac516 3e4dee60 bf7ad93a 3e4c6467     ..z.`.M>:.z.gdL>
   15764:	bf7aed37 3e4ada4f bf7b010e 3e495018     7.z.O.J>..{..PI>
   15774:	bf7b14be 3e47c5c2 bf7b2848 3e463b4d     ..{...G>H({.M;F>
   15784:	bf7b3bab 3e44b0b9 bf7b4ee7 3e432607     .;{...D>.N{..&C>
   15794:	bf7b61fc 3e419b37 bf7b74ea 3e401049     .a{.7.A>.t{.I.@>
   157a4:	bf7b87b2 3e3e853e bf7b9a53 3e3cfa15     ..{.>.>>S.{...<>
   157b4:	bf7baccd 3e3b6ecf bf7bbf20 3e39e36c     ..{..n;> .{.l.9>
   157c4:	bf7bd14d 3e3857ec bf7be353 3e36cc50     M.{..W8>S.{.P.6>
   157d4:	bf7bf531 3e354098 bf7c06e9 3e33b4c4     1.{..@5>..|...3>
   157e4:	bf7c187a 3e3228d4 bf7c29e5 3e309cc9     z.|..(2>.)|...0>
   157f4:	bf7c3b28 3e2f10a2 bf7c4c44 3e2d8461     (;|.../>DL|.a.->
   15804:	bf7c5d3a 3e2bf804 bf7c6e08 3e2a6b8d     :]|...+>.n|..k*>
   15814:	bf7c7eb0 3e28defc bf7c8f31 3e275251     .~|...(>1.|.QR'>
   15824:	bf7c9f8a 3e25c58c bf7cafbd 3e2438ad     ..|...%>..|..8$>
   15834:	bf7cbfc9 3e22abb6 bf7ccfae 3e211ea5     ..|...">..|...!>
   15844:	bf7cdf6c 3e1f917b bf7cef03 3e1e0438     l.|.{..>..|.8..>
   15854:	bf7cfe73 3e1c76de bf7d0dbc 3e1ae96b     s.|..v.>..}.k..>
   15864:	bf7d1cdd 3e195be0 bf7d2bd8 3e17ce3d     ..}..[.>.+}.=..>
   15874:	bf7d3aac 3e164083 bf7d4959 3e14b2b2     .:}..@.>YI}....>
   15884:	bf7d57de 3e1324ca bf7d663d 3e1196cc     .W}..$.>=f}....>
   15894:	bf7d7474 3e1008b7 bf7d8285 3e0e7a8b     tt}....>..}..z.>
   158a4:	bf7d906e 3e0cec4a bf7d9e30 3e0b5df3     n.}.J..>0.}..].>
   158b4:	bf7dabcc 3e09cf86 bf7db940 3e084105     ..}....>@.}..A.>
   158c4:	bf7dc68c 3e06b26e bf7dd3b2 3e0523c2     ..}.n..>..}..#.>
   158d4:	bf7de0b1 3e039502 bf7ded88 3e02062e     ..}....>..}....>
   158e4:	bf7dfa38 3e007745 bf7e06c2 3dfdd092     8.}.Ew.>..~....=
   158f4:	bf7e1324 3dfab273 bf7e1f5e 3df7942c     $.~.s..=^.~.,..=
   15904:	bf7e2b72 3df475c0 bf7e375e 3df1572e     r+~..u.=^7~..W.=
   15914:	bf7e4323 3dee3876 bf7e4ec1 3deb199a     #C~.v8.=.N~....=
   15924:	bf7e5a38 3de7fa9a bf7e6588 3de4db76     8Z~....=.e~.v..=
   15934:	bf7e70b0 3de1bc2e bf7e7bb1 3dde9cc4     .p~....=.{~....=
   15944:	bf7e868b 3ddb7d37 bf7e913d 3dd85d89     ..~.7}.==.~..].=
   15954:	bf7e9bc9 3dd53db9 bf7ea62d 3dd21dc8     ..~..=.=-.~....=
   15964:	bf7eb069 3dcefdb7 bf7eba7f 3dcbdd86     i.~....=..~....=
   15974:	bf7ec46d 3dc8bd36 bf7ece34 3dc59cc6     m.~.6..=4.~....=
   15984:	bf7ed7d4 3dc27c39 bf7ee14c 3dbf5b8d     ..~.9|.=L.~..[.=
   15994:	bf7eea9d 3dbc3ac3 bf7ef3c7 3db919dd     ..~..:.=..~....=
   159a4:	bf7efcc9 3db5f8da bf7f05a4 3db2d7bb     ..~....=.......=
   159b4:	bf7f0e58 3dafb680 bf7f16e4 3dac952b     X......=....+..=
   159c4:	bf7f1f49 3da973ba bf7f2787 3da65230     I....s.=.'..0R.=
   159d4:	bf7f2f9d 3da3308c bf7f378d 3da00ecf     ./...0.=.7.....=
   159e4:	bf7f3f54 3d9cecf9 bf7f46f4 3d99cb0a     T?.....=.F.....=
   159f4:	bf7f4e6d 3d96a905 bf7f55bf 3d9386e7     mN.....=.U.....=
   15a04:	bf7f5ce9 3d9064b4 bf7f63ec 3d8d426a     .\...d.=.c..jB.=
   15a14:	bf7f6ac7 3d8a200a bf7f717b 3d86fd94     .j... .={q.....=
   15a24:	bf7f7808 3d83db0a bf7f7e6d 3d80b86c     .x.....=m~..l..=
   15a34:	bf7f84ab 3d7b2b74 bf7f8ac2 3d74e5e9     ....t+{=......t=
   15a44:	bf7f90b1 3d6ea038 bf7f9678 3d685a62     ....8.n=x...bZh=
   15a54:	bf7f9c18 3d621468 bf7fa191 3d5bce4c     ....h.b=....L.[=
   15a64:	bf7fa6e3 3d55880e bf7fac0d 3d4f41af     ......U=.....AO=
   15a74:	bf7fb10f 3d48fb2f bf7fb5ea 3d42b491     ..../.H=......B=
   15a84:	bf7fba9e 3d3c6dd5 bf7fbf2a 3d3626fc     .....m<=*....&6=
   15a94:	bf7fc38f 3d2fe007 bf7fc7cc 3d2998f6     ....../=......)=
   15aa4:	bf7fcbe2 3d2351cc bf7fcfd1 3d1d0a88     .....Q#=.......=
   15ab4:	bf7fd398 3d16c32c bf7fd737 3d107bb8     ....,..=7....{.=
   15ac4:	bf7fdaaf 3d0a342f bf7fde00 3d03ec90     ..../4.=.......=
   15ad4:	bf7fe129 3cfb49b9 bf7fe42b 3ceeba2d     )....I.<+...-..<
   15ae4:	bf7fe705 3ce22a7b bf7fe9b8 3cd59aa6     ....{*.<.......<
   15af4:	bf7fec43 3cc90ab0 bf7feea7 3cbc7a9b     C......<.....z.<
   15b04:	bf7ff0e3 3cafea69 bf7ff2f8 3ca35a1c     ....i..<.....Z.<
   15b14:	bf7ff4e6 3c96c9b6 bf7ff6ac 3c8a3938     .......<....89.<
   15b24:	bf7ff84a 3c7b514b bf7ff9c1 3c623000     J...KQ{<.....0b<
   15b34:	bf7ffb11 3c490e90 bf7ffc39 3c2fed02     ......I<9...../<
   15b44:	bf7ffd39 3c16cb59 bf7ffe13 3bfb5330     9...Y..<....0S.;
   15b54:	bf7ffec4 3bc90f89 bf7fff4e 3b96cbc1     .......;N......;
   15b64:	bf7fffb1 3b490fc7 bf7fffec 3ac90fd4     ......I;.......:
   15b74:	bf800000 00000000 bf7fffec bac90fd4     ................
   15b84:	bf7fffb1 bb490fc7 bf7fff4e bb96cbc1     ......I.N.......
   15b94:	bf7ffec4 bbc90f89 bf7ffe13 bbfb5330     ............0S..
   15ba4:	bf7ffd39 bc16cb59 bf7ffc39 bc2fed02     9...Y...9...../.
   15bb4:	bf7ffb11 bc490e90 bf7ff9c1 bc623000     ......I......0b.
   15bc4:	bf7ff84a bc7b514b bf7ff6ac bc8a3938     J...KQ{.....89..
   15bd4:	bf7ff4e6 bc96c9b6 bf7ff2f8 bca35a1c     .............Z..
   15be4:	bf7ff0e3 bcafea69 bf7feea7 bcbc7a9b     ....i........z..
   15bf4:	bf7fec43 bcc90ab0 bf7fe9b8 bcd59aa6     C...............
   15c04:	bf7fe705 bce22a7b bf7fe42b bceeba2d     ....{*..+...-...
   15c14:	bf7fe129 bcfb49b9 bf7fde00 bd03ec90     )....I..........
   15c24:	bf7fdaaf bd0a342f bf7fd737 bd107bb8     ..../4..7....{..
   15c34:	bf7fd398 bd16c32c bf7fcfd1 bd1d0a88     ....,...........
   15c44:	bf7fcbe2 bd2351cc bf7fc7cc bd2998f6     .....Q#.......).
   15c54:	bf7fc38f bd2fe007 bf7fbf2a bd3626fc     ....../.*....&6.
   15c64:	bf7fba9e bd3c6dd5 bf7fb5ea bd42b491     .....m<.......B.
   15c74:	bf7fb10f bd48fb2f bf7fac0d bd4f41af     ..../.H......AO.
   15c84:	bf7fa6e3 bd55880e bf7fa191 bd5bce4c     ......U.....L.[.
   15c94:	bf7f9c18 bd621468 bf7f9678 bd685a62     ....h.b.x...bZh.
   15ca4:	bf7f90b1 bd6ea038 bf7f8ac2 bd74e5e9     ....8.n.......t.
   15cb4:	bf7f84ab bd7b2b74 bf7f7e6d bd80b86c     ....t+{.m~..l...
   15cc4:	bf7f7808 bd83db0a bf7f717b bd86fd94     .x......{q......
   15cd4:	bf7f6ac7 bd8a200a bf7f63ec bd8d426a     .j... ...c..jB..
   15ce4:	bf7f5ce9 bd9064b4 bf7f55bf bd9386e7     .\...d...U......
   15cf4:	bf7f4e6d bd96a905 bf7f46f4 bd99cb0a     mN.......F......
   15d04:	bf7f3f54 bd9cecf9 bf7f378d bda00ecf     T?.......7......
   15d14:	bf7f2f9d bda3308c bf7f2787 bda65230     ./...0...'..0R..
   15d24:	bf7f1f49 bda973ba bf7f16e4 bdac952b     I....s......+...
   15d34:	bf7f0e58 bdafb680 bf7f05a4 bdb2d7bb     X...............
   15d44:	bf7efcc9 bdb5f8da bf7ef3c7 bdb919dd     ..~.......~.....
   15d54:	bf7eea9d bdbc3ac3 bf7ee14c bdbf5b8d     ..~..:..L.~..[..
   15d64:	bf7ed7d4 bdc27c39 bf7ece34 bdc59cc6     ..~.9|..4.~.....
   15d74:	bf7ec46d bdc8bd36 bf7eba7f bdcbdd86     m.~.6.....~.....
   15d84:	bf7eb069 bdcefdb7 bf7ea62d bdd21dc8     i.~.....-.~.....
   15d94:	bf7e9bc9 bdd53db9 bf7e913d bdd85d89     ..~..=..=.~..]..
   15da4:	bf7e868b bddb7d37 bf7e7bb1 bdde9cc4     ..~.7}...{~.....
   15db4:	bf7e70b0 bde1bc2e bf7e6588 bde4db76     .p~......e~.v...
   15dc4:	bf7e5a38 bde7fa9a bf7e4ec1 bdeb199a     8Z~......N~.....
   15dd4:	bf7e4323 bdee3876 bf7e375e bdf1572e     #C~.v8..^7~..W..
   15de4:	bf7e2b72 bdf475c0 bf7e1f5e bdf7942c     r+~..u..^.~.,...
   15df4:	bf7e1324 bdfab273 bf7e06c2 bdfdd092     $.~.s.....~.....
   15e04:	bf7dfa38 be007745 bf7ded88 be02062e     8.}.Ew....}.....
   15e14:	bf7de0b1 be039502 bf7dd3b2 be0523c2     ..}.......}..#..
   15e24:	bf7dc68c be06b26e bf7db940 be084105     ..}.n...@.}..A..
   15e34:	bf7dabcc be09cf86 bf7d9e30 be0b5df3     ..}.....0.}..]..
   15e44:	bf7d906e be0cec4a bf7d8285 be0e7a8b     n.}.J.....}..z..
   15e54:	bf7d7474 be1008b7 bf7d663d be1196cc     tt}.....=f}.....
   15e64:	bf7d57de be1324ca bf7d4959 be14b2b2     .W}..$..YI}.....
   15e74:	bf7d3aac be164083 bf7d2bd8 be17ce3d     .:}..@...+}.=...
   15e84:	bf7d1cdd be195be0 bf7d0dbc be1ae96b     ..}..[....}.k...
   15e94:	bf7cfe73 be1c76de bf7cef03 be1e0438     s.|..v....|.8...
   15ea4:	bf7cdf6c be1f917b bf7ccfae be211ea5     l.|.{.....|...!.
   15eb4:	bf7cbfc9 be22abb6 bf7cafbd be2438ad     ..|..."...|..8$.
   15ec4:	bf7c9f8a be25c58c bf7c8f31 be275251     ..|...%.1.|.QR'.
   15ed4:	bf7c7eb0 be28defc bf7c6e08 be2a6b8d     .~|...(..n|..k*.
   15ee4:	bf7c5d3a be2bf804 bf7c4c44 be2d8461     :]|...+.DL|.a.-.
   15ef4:	bf7c3b28 be2f10a2 bf7c29e5 be309cc9     (;|.../..)|...0.
   15f04:	bf7c187a be3228d4 bf7c06e9 be33b4c4     z.|..(2...|...3.
   15f14:	bf7bf531 be354098 bf7be353 be36cc50     1.{..@5.S.{.P.6.
   15f24:	bf7bd14d be3857ec bf7bbf20 be39e36c     M.{..W8. .{.l.9.
   15f34:	bf7baccd be3b6ecf bf7b9a53 be3cfa15     ..{..n;.S.{...<.
   15f44:	bf7b87b2 be3e853e bf7b74ea be401049     ..{.>.>..t{.I.@.
   15f54:	bf7b61fc be419b37 bf7b4ee7 be432607     .a{.7.A..N{..&C.
   15f64:	bf7b3bab be44b0b9 bf7b2848 be463b4d     .;{...D.H({.M;F.
   15f74:	bf7b14be be47c5c2 bf7b010e be495018     ..{...G...{..PI.
   15f84:	bf7aed37 be4ada4f bf7ad93a be4c6467     7.z.O.J.:.z.gdL.
   15f94:	bf7ac516 be4dee60 bf7ab0cb be4f7838     ..z.`.M...z.8xO.
   15fa4:	bf7a9c59 be5101f1 bf7a87c1 be528b89     Y.z...Q...z...R.
   15fb4:	bf7a7302 be541501 bf7a5e1c be559e58     .sz...T..^z.X.U.
   15fc4:	bf7a4910 be57278f bf7a33dd be58b0a4     .Iz..'W..3z...X.
   15fd4:	bf7a1e84 be5a3997 bf7a0904 be5bc26a     ..z..9Z...z.j.[.
   15fe4:	bf79f35e be5d4b1a bf79dd91 be5ed3a8     ^.y..K]...y...^.
   15ff4:	bf79c79d be605c13 bf79b183 be61e45c     ..y..\`...y.\.a.
   16004:	bf799b43 be636c83 bf7984dc be64f486     C.y..lc...y...d.
   16014:	bf796e4e be667c66 bf79579a be680422     Nny.f|f..Wy.".h.
   16024:	bf7940c0 be698bba bf7929bf be6b132f     .@y...i..)y./.k.
   16034:	bf791298 be6c9a7f bf78fb4a be6e21ab     ..y...l.J.x..!n.
   16044:	bf78e3d6 be6fa8b2 bf78cc3b be712f94     ..x...o.;.x../q.
   16054:	bf78b47b be72b651 bf789c93 be743ce8     {.x.Q.r...x..<t.
   16064:	bf788486 be75c35a bf786c52 be7749a6     ..x.Z.u.Rlx..Iw.
   16074:	bf7853f8 be78cfcc bf783b77 be7a55cb     .Sx...x.w;x..Uz.
   16084:	bf7822d1 be7bdba4 bf780a04 be7d6156     ."x...{...x.Va}.
   16094:	bf77f110 be7ee6e1 bf77d7f7 be803622     ..w...~...w."6..
   160a4:	bf77beb7 be80f8c0 bf77a551 be81bb4a     ..w.....Q.w.J...
   160b4:	bf778bc5 be827dc0 bf777213 be834022     ..w..}...rw."@..
   160c4:	bf77583a be840270 bf773e3c be84c4aa     :Xw.p...<>w.....
   160d4:	bf772417 be8586ce bf7709cc be8648df     .$w.......w..H..
   160e4:	bf76ef5b be870ada bf76d4c4 be87ccc1     [.v.......v.....
   160f4:	bf76ba07 be888e93 bf769f24 be895050     ..v.....$.v.PP..
   16104:	bf76841b be8a11f8 bf7668ec be8ad38a     ..v......hv.....
   16114:	bf764d97 be8b9507 bf76321b be8c566e     .Mv......2v.nV..
   16124:	bf76167a be8d17c0 bf75fab3 be8dd8fc     z.v.......u.....
   16134:	bf75dec6 be8e9a22 bf75c2b3 be8f5b32     ..u.".....u.2[..
   16144:	bf75a67b be901c2c bf758a1c be90dd10     {.u.,.....u.....
   16154:	bf756d97 be919ddd bf7550ed be925e94     .mu......Pu..^..
   16164:	bf75341d be931f35 bf751727 be93dfbf     .4u.5...'.u.....
   16174:	bf74fa0b be94a031 bf74dcc9 be95608d     ..t.1.....t..`..
   16184:	bf74bf62 be9620d2 bf74a1d5 be96e100     b.t.. ....t.....
   16194:	bf748422 be97a117 bf746649 be986116     ".t.....Ift..a..
   161a4:	bf74484b be9920fe bf742a27 be99e0ce     KHt.. ..'*t.....
   161b4:	bf740bdd be9aa086 bf73ed6e be9b6027     ..t.....n.s.'`..
   161c4:	bf73ced9 be9c1faf bf73b01f be9cdf20     ..s.......s. ...
   161d4:	bf73913f be9d9e78 bf737239 be9e5db8     ?.s.x...9rs..]..
   161e4:	bf73530e be9f1cdf bf7333be be9fdbee     .Ss......3s.....
   161f4:	bf731447 bea09ae5 bf72f4ac bea159c2     G.s.......r..Y..
   16204:	bf72d4eb bea21887 bf72b504 bea2d733     ..r.......r.3...
   16214:	bf7294f8 bea395c5 bf7274c7 bea4543f     ..r......tr.?T..
   16224:	bf725470 bea5129f bf7233f4 bea5d0e5     pTr......3r.....
   16234:	bf721352 bea68f12 bf71f28c bea74d25     R.r.......q.%M..
   16244:	bf71d19f bea80b1f bf71b08e bea8c8fe     ..q.......q.....
   16254:	bf718f57 bea986c4 bf716dfb beaa446f     W.q......mq.oD..
   16264:	bf714c7a beab0201 bf712ad4 beabbf77     zLq......*q.w...
   16274:	bf710908 beac7cd4 bf70e717 bead3a15     ..q..|....p..:..
   16284:	bf70c502 beadf73c bf70a2c6 beaeb449     ..p.<.....p.I...
   16294:	bf708066 beaf713a bf705de1 beb02e10     f.p.:q...]p.....
   162a4:	bf703b37 beb0eacb bf701867 beb1a76b     7;p.....g.p.k...
   162b4:	bf6ff573 beb263ef bf6fd25a beb32058     s.o..c..Z.o.X ..
   162c4:	bf6faf1b beb3dca5 bf6f8bb8 beb498d6     ..o.......o.....
   162d4:	bf6f6830 beb554ec bf6f4483 beb610e6     0ho..T...Do.....
   162e4:	bf6f20b0 beb6ccc3 bf6efcba beb78884     . o.......n.....
   162f4:	bf6ed89e beb8442a bf6eb45d beb8ffb2     ..n.*D..].n.....
   16304:	bf6e8ff8 beb9bb1e bf6e6b6d beba766e     ..n.....mkn.nv..
   16314:	bf6e46be bebb31a0 bf6e21eb bebbecb6     .Fn..1...!n.....
   16324:	bf6dfcf2 bebca7af bf6dd7d5 bebd628b     ..m.......m..b..
   16334:	bf6db293 bebe1d4a bf6d8d2d bebed7eb     ..m.J...-.m.....
   16344:	bf6d67a1 bebf926f bf6d41f2 bec04cd5     .gm.o....Am..L..
   16354:	bf6d1c1d bec1071e bf6cf624 bec1c148     ..m.....$.l.H...
   16364:	bf6cd007 bec27b55 bf6ca9c5 bec33544     ..l.U{....l.D5..
   16374:	bf6c835e bec3ef15 bf6c5cd4 bec4a8c8     ^.l......\l.....
   16384:	bf6c3624 bec5625c bf6c0f50 bec61bd2     $6l.\b..P.l.....
   16394:	bf6be858 bec6d529 bf6bc13b bec78e62     X.k.)...;.k.b...
   163a4:	bf6b99fb bec8477c bf6b7295 bec90077     ..k.|G...rk.w...
   163b4:	bf6b4b0c bec9b953 bf6b235e beca7210     .Kk.S...^#k..r..
   163c4:	bf6afb8c becb2aae bf6ad395 becbe32c     ..j..*....j.,...
   163d4:	bf6aab7b becc9b8b bf6a833c becd53ca     {.j.....<.j..S..
   163e4:	bf6a5ad9 bece0bea bf6a3252 becec3ea     .Zj.....R2j.....
   163f4:	bf6a09a7 becf7bca bf69e0d7 bed0338a     ..j..{....i..3..
   16404:	bf69b7e4 bed0eb2a bf698ecc bed1a2aa     ..i.*.....i.....
   16414:	bf696591 bed25a09 bf693c32 bed31148     .ei..Z..2<i.H...
   16424:	bf6912ae bed3c867 bf68e907 bed47f64     ..i.g.....h.d...
   16434:	bf68bf3c bed53641 bf68954c bed5ecfd     <.h.A6..L.h.....
   16444:	bf686b39 bed6a399 bf684103 bed75a13     9kh......Ah..Z..
   16454:	bf6816a8 bed8106b bf67ec2a bed8c6a3     ..h.k...*.g.....
   16464:	bf67c187 bed97cb9 bf6796c1 beda32ad     ..g..|....g..2..
   16474:	bf676bd8 bedae880 bf6740ca bedb9e31     .kg......@g.1...
   16484:	bf671599 bedc53c1 bf66ea45 bedd092e     ..g..S..E.f.....
   16494:	bf66becc beddbe79 bf669330 bede73a2     ..f.y...0.f..s..
   164a4:	bf666771 bedf28a9 bf663b8e bedfdd8d     qgf..(...;f.....
   164b4:	bf660f88 bee0924f bf65e35e bee146ee     ..f.O...^.e..F..
   164c4:	bf65b710 bee1fb6a bf658aa0 bee2afc4     ..e.j.....e.....
   164d4:	bf655e0b bee363fa bf653154 bee4180e     .^e..c..T1e.....
   164e4:	bf650479 bee4cbfe bf64d77b bee57fcb     y.e.....{.d.....
   164f4:	bf64aa59 bee63375 bf647d14 bee6e6fb     Y.d.u3...}d.....
   16504:	bf644fac bee79a5d bf642221 bee84d9c     .Od.]...!"d..M..
   16514:	bf63f473 bee900b7 bf63c6a1 bee9b3ae     s.c.......c.....
   16524:	bf6398ac beea6681 bf636a95 beeb1930     ..c..f...jc.0...
   16534:	bf633c5a beebcbbb bf630dfc beec7e21     Z<c.......c.!~..
   16544:	bf62df7b beed3063 bf62b0d7 beede280     {.b.c0....b.....
   16554:	bf628210 beee9479 bf625326 beef464c     ..b.y...&Sb.LF..
   16564:	bf62241a beeff7fb bf61f4ea bef0a985     .$b.......a.....
   16574:	bf61c598 bef15aea bf619622 bef20c29     ..a..Z..".a.)...
   16584:	bf61668a bef2bd43 bf6136d0 bef36e38     .fa.C....6a.8n..
   16594:	bf6106f2 bef41f07 bf60d6f2 bef4cfb1     ..a.......`.....
   165a4:	bf60a6cf bef58035 bf607689 bef63093     ..`.5....v`..0..
   165b4:	bf604621 bef6e0cb bf601596 bef790dc     !F`.......`.....
   165c4:	bf5fe4e9 bef840c8 bf5fb419 bef8f08e     .._..@...._.....
   165d4:	bf5f8327 bef9a02d bf5f5212 befa4fa5     '._.-....R_..O..
   165e4:	bf5f20db befafef7 bf5eef81 befbae22     . _.......^."...
   165f4:	bf5ebe05 befc5d27 bf5e8c67 befd0c04     ..^.']..g.^.....
   16604:	bf5e5aa6 befdbabb bf5e28c3 befe694a     .Z^......(^.Ji..
   16614:	bf5df6be beff17b2 bf5dc497 beffc5f3     ..].......].....
   16624:	bf5d924d bf003a06 bf5d5fe1 bf0090ff     M.]..:..._].....
   16634:	bf5d2d53 bf00e7e4 bf5cfaa3 bf013eb5     S-].......\..>..
   16644:	bf5cc7d1 bf019573 bf5c94dd bf01ec1c     ..\.s.....\.....
   16654:	bf5c61c7 bf0242b1 bf5c2e8e bf029932     .a\..B....\.2...
   16664:	bf5bfb34 bf02ef9f bf5bc7b8 bf0345f8     4.[.......[..E..
   16674:	bf5b941a bf039c3d bf5b605a bf03f26d     ..[.=...Z`[.m...
   16684:	bf5b2c79 bf044889 bf5af875 bf049e91     y,[..H..u.Z.....
   16694:	bf5ac450 bf04f484 bf5a9009 bf054a62     P.Z.......Z.bJ..
   166a4:	bf5a5ba0 bf05a02c bf5a2716 bf05f5e2     .[Z.,....'Z.....
   166b4:	bf59f26a bf064b82 bf59bd9c bf06a10e     j.Y..K....Y.....
   166c4:	bf5988ad bf06f686 bf59539c bf074be8     ..Y......SY..K..
   166d4:	bf591e6a bf07a136 bf58e917 bf07f66f     j.Y.6.....X.o...
   166e4:	bf58b3a1 bf084b92 bf587e0b bf08a0a1     ..X..K...~X.....
   166f4:	bf584853 bf08f59b bf581279 bf094a7f     SHX.....y.X..J..
   16704:	bf57dc7f bf099f4e bf57a663 bf09f409     ..W.N...c.W.....
   16714:	bf577026 bf0a48ad bf5739c7 bf0a9d3d     &pW..H...9W.=...
   16724:	bf570348 bf0af1b7 bf56cca7 bf0b461c     H.W.......V..F..
   16734:	bf5695e5 bf0b9a6b bf565f02 bf0beea5     ..V.k...._V.....
   16744:	bf5627fe bf0c42c9 bf55f0d9 bf0c96d7     .'V..B....U.....
   16754:	bf55b993 bf0cead0 bf55822c bf0d3eb3     ..U.....,.U..>..
   16764:	bf554aa4 bf0d9281 bf5512fb bf0de638     .JU.......U.8...
   16774:	bf54db31 bf0e39da bf54a347 bf0e8d65     1.T..9..G.T.e...
   16784:	bf546b3b bf0ee0db bf54330f bf0f343b     ;kT......3T.;4..
   16794:	bf53fac3 bf0f8784 bf53c255 bf0fdab8     ..S.....U.S.....
   167a4:	bf5389c7 bf102dd5 bf535118 bf1080dc     ..S..-...QS.....
   167b4:	bf531849 bf10d3cd bf52df59 bf1126a7     I.S.....Y.R..&..
   167c4:	bf52a649 bf11796b bf526d18 bf11cc19     I.R.ky...mR.....
   167d4:	bf5233c6 bf121eb0 bf51fa54 bf127130     .3R.....T.Q.0q..
   167e4:	bf51c0c2 bf12c39a bf518710 bf1315ee     ..Q.......Q.....
   167f4:	bf514d3d bf13682a bf51134a bf13ba50     =MQ.*h..J.Q.P...
   16804:	bf50d937 bf140c5f bf509f03 bf145e58     7.P._.....P.X^..
   16814:	bf5064af bf14b039 bf502a3b bf150204     .dP.9...;*P.....
   16824:	bf4fefa8 bf1553b7 bf4fb4f4 bf15a554     ..O..S....O.T...
   16834:	bf4f7a1f bf15f6d9 bf4f3f2b bf164847     .zO.....+?O.GH..
   16844:	bf4f0417 bf16999f bf4ec8e4 bf16eadf     ..O.......N.....
   16854:	bf4e8d90 bf173c07 bf4e521c bf178d18     ..N..<...RN.....
   16864:	bf4e1689 bf17de12 bf4ddad5 bf182ef5     ..N.......M.....
   16874:	bf4d9f02 bf187fc0 bf4d6310 bf18d073     ..M......cM.s...
   16884:	bf4d26fd bf19210f bf4ceacb bf197194     .&M..!....L..q..
   16894:	bf4cae79 bf19c200 bf4c7208 bf1a1255     y.L......rL.U...
   168a4:	bf4c3578 bf1a6293 bf4bf8c7 bf1ab2b8     x5L..b....K.....
   168b4:	bf4bbbf8 bf1b02c6 bf4b7f09 bf1b52bb     ..K.......K..R..
   168c4:	bf4b41fa bf1ba299 bf4b04cc bf1bf25f     .AK.......K._...
   168d4:	bf4ac77f bf1c420c bf4a8a13 bf1c91a2     ..J..B....J.....
   168e4:	bf4a4c87 bf1ce11f bf4a0edc bf1d3084     .LJ.......J..0..
   168f4:	bf49d112 bf1d7fd1 bf499329 bf1dcf06     ..I.....).I.....
   16904:	bf495521 bf1e1e22 bf4916fa bf1e6d26     !UI.".....I.&m..
   16914:	bf48d8b3 bf1ebc12 bf489a4e bf1f0ae5     ..H.....N.H.....
   16924:	bf485bca bf1f599f bf481d27 bf1fa841     .[H..Y..'.H.A...
   16934:	bf47de65 bf1ff6cb bf479f84 bf20453b     e.G.......G.;E .
   16944:	bf476085 bf209393 bf472167 bf20e1d2     .`G... .g!G... .
   16954:	bf46e22a bf212ff9 bf46a2ce bf217e06     *.F../!...F..~!.
   16964:	bf466354 bf21cbfb bf4623bb bf2219d7     TcF...!..#F...".
   16974:	bf45e403 bf226799 bf45a42d bf22b543     ..E..g".-.E.C.".
   16984:	bf456439 bf2302d3 bf452426 bf23504b     9dE...#.&$E.KP#.
   16994:	bf44e3f5 bf239da9 bf44a3a5 bf23eaee     ..D...#...D...#.
   169a4:	bf446337 bf24381a bf4422ab bf24852c     7cD..8$.."D.,.$.
   169b4:	bf43e200 bf24d225 bf43a138 bf251f04     ..C.%.$.8.C...%.
   169c4:	bf436051 bf256bcb bf431f4c bf25b877     Q`C..k%.L.C.w.%.
   169d4:	bf42de29 bf26050a bf429ce8 bf265184     ).B...&...B..Q&.
   169e4:	bf425b89 bf269de3 bf421a0b bf26ea2a     .[B...&...B.*.&.
   169f4:	bf41d870 bf273656 bf4196b7 bf278268     p.A.V6'...A.h.'.
   16a04:	bf4154e1 bf27ce61 bf4112ec bf281a40     .TA.a.'...A.@.(.
   16a14:	bf40d0da bf286605 bf408ea9 bf28b1b0     ..@..f(...@...(.
   16a24:	bf404c5c bf28fd41 bf4009f0 bf2948b8     \L@.A.(...@..H).
   16a34:	bf3fc767 bf299415 bf3f84c0 bf29df57     g.?...)...?.W.).
   16a44:	bf3f41fc bf2a2a80 bf3eff1b bf2a758e     .A?..**...>..u*.
   16a54:	bf3ebc1b bf2ac082 bf3e78ff bf2b0b5b     ..>...*..x>.[.+.
   16a64:	bf3e35c5 bf2b561b bf3df26e bf2ba0bf     .5>..V+.n.=...+.
   16a74:	bf3daef9 bf2beb4a bf3d6b67 bf2c35b9     ..=.J.+.gk=..5,.
   16a84:	bf3d27b8 bf2c800f bf3ce3ec bf2cca49     .'=...,...<.I.,.
   16a94:	bf3ca003 bf2d1469 bf3c5bfc bf2d5e6f     ..<.i.-..[<.o^-.
   16aa4:	bf3c17d9 bf2da859 bf3bd398 bf2df229     ..<.Y.-...;.).-.
   16ab4:	bf3b8f3b bf2e3bde bf3b4ac1 bf2e8578     ;.;..;...J;.x...
   16ac4:	bf3b0629 bf2ecef7 bf3ac175 bf2f185b     ).;.....u.:.[./.
   16ad4:	bf3a7ca4 bf2f61a5 bf3a37b7 bf2faad3     .|:..a/..7:.../.
   16ae4:	bf39f2ac bf2ff3e6 bf39ad85 bf303cde     ..9.../...9..<0.
   16af4:	bf396842 bf3085bb bf3922e1 bf30ce7c     Bh9...0.."9.|.0.
   16b04:	bf38dd65 bf311722 bf3897cb bf315fad     e.8.".1...8.._1.
   16b14:	bf385216 bf31a81d bf380c43 bf31f071     .R8...1.C.8.q.1.
   16b24:	bf37c655 bf3238aa bf37804a bf3280c7     U.7..82.J.7...2.
   16b34:	bf373a23 bf32c8c9 bf36f3df bf3310af     #:7...2...6...3.
   16b44:	bf36ad7f bf33587a bf366704 bf33a029     ..6.zX3..g6.).3.
   16b54:	bf36206c bf33e7bc bf35d9b8 bf342f34     l 6...3...5.4/4.
   16b64:	bf3592e7 bf34768f bf354bfb bf34bdcf     ..5..v4..K5...4.
   16b74:	bf3504f3 bf3504f3 bf34bdcf bf354bfb     ..5...5...4..K5.
   16b84:	bf34768f bf3592e7 bf342f34 bf35d9b8     .v4...5.4/4...5.
   16b94:	bf33e7bc bf36206c bf33a029 bf366704     ..3.l 6.).3..g6.
   16ba4:	bf33587a bf36ad7f bf3310af bf36f3df     zX3...6...3...6.
   16bb4:	bf32c8c9 bf373a23 bf3280c7 bf37804a     ..2.#:7...2.J.7.
   16bc4:	bf3238aa bf37c655 bf31f071 bf380c43     .82.U.7.q.1.C.8.
   16bd4:	bf31a81d bf385216 bf315fad bf3897cb     ..1..R8.._1...8.
   16be4:	bf311722 bf38dd65 bf30ce7c bf3922e1     ".1.e.8.|.0.."9.
   16bf4:	bf3085bb bf396842 bf303cde bf39ad85     ..0.Bh9..<0...9.
   16c04:	bf2ff3e6 bf39f2ac bf2faad3 bf3a37b7     ../...9.../..7:.
   16c14:	bf2f61a5 bf3a7ca4 bf2f185b bf3ac175     .a/..|:.[./.u.:.
   16c24:	bf2ecef7 bf3b0629 bf2e8578 bf3b4ac1     ....).;.x....J;.
   16c34:	bf2e3bde bf3b8f3b bf2df229 bf3bd398     .;..;.;.).-...;.
   16c44:	bf2da859 bf3c17d9 bf2d5e6f bf3c5bfc     Y.-...<.o^-..[<.
   16c54:	bf2d1469 bf3ca003 bf2cca49 bf3ce3ec     i.-...<.I.,...<.
   16c64:	bf2c800f bf3d27b8 bf2c35b9 bf3d6b67     ..,..'=..5,.gk=.
   16c74:	bf2beb4a bf3daef9 bf2ba0bf bf3df26e     J.+...=...+.n.=.
   16c84:	bf2b561b bf3e35c5 bf2b0b5b bf3e78ff     .V+..5>.[.+..x>.
   16c94:	bf2ac082 bf3ebc1b bf2a758e bf3eff1b     ..*...>..u*...>.
   16ca4:	bf2a2a80 bf3f41fc bf29df57 bf3f84c0     .**..A?.W.)...?.
   16cb4:	bf299415 bf3fc767 bf2948b8 bf4009f0     ..).g.?..H)...@.
   16cc4:	bf28fd41 bf404c5c bf28b1b0 bf408ea9     A.(.\L@...(...@.
   16cd4:	bf286605 bf40d0da bf281a40 bf4112ec     .f(...@.@.(...A.
   16ce4:	bf27ce61 bf4154e1 bf278268 bf4196b7     a.'..TA.h.'...A.
   16cf4:	bf273656 bf41d870 bf26ea2a bf421a0b     V6'.p.A.*.&...B.
   16d04:	bf269de3 bf425b89 bf265184 bf429ce8     ..&..[B..Q&...B.
   16d14:	bf26050a bf42de29 bf25b877 bf431f4c     ..&.).B.w.%.L.C.
   16d24:	bf256bcb bf436051 bf251f04 bf43a138     .k%.Q`C...%.8.C.
   16d34:	bf24d225 bf43e200 bf24852c bf4422ab     %.$...C.,.$.."D.
   16d44:	bf24381a bf446337 bf23eaee bf44a3a5     .8$.7cD...#...D.
   16d54:	bf239da9 bf44e3f5 bf23504b bf452426     ..#...D.KP#.&$E.
   16d64:	bf2302d3 bf456439 bf22b543 bf45a42d     ..#.9dE.C.".-.E.
   16d74:	bf226799 bf45e403 bf2219d7 bf4623bb     .g"...E..."..#F.
   16d84:	bf21cbfb bf466354 bf217e06 bf46a2ce     ..!.TcF..~!...F.
   16d94:	bf212ff9 bf46e22a bf20e1d2 bf472167     ./!.*.F... .g!G.
   16da4:	bf209393 bf476085 bf20453b bf479f84     .. ..`G.;E ...G.
   16db4:	bf1ff6cb bf47de65 bf1fa841 bf481d27     ....e.G.A...'.H.
   16dc4:	bf1f599f bf485bca bf1f0ae5 bf489a4e     .Y...[H.....N.H.
   16dd4:	bf1ebc12 bf48d8b3 bf1e6d26 bf4916fa     ......H.&m....I.
   16de4:	bf1e1e22 bf495521 bf1dcf06 bf499329     "...!UI.....).I.
   16df4:	bf1d7fd1 bf49d112 bf1d3084 bf4a0edc     ......I..0....J.
   16e04:	bf1ce11f bf4a4c87 bf1c91a2 bf4a8a13     .....LJ.......J.
   16e14:	bf1c420c bf4ac77f bf1bf25f bf4b04cc     .B....J._.....K.
   16e24:	bf1ba299 bf4b41fa bf1b52bb bf4b7f09     .....AK..R....K.
   16e34:	bf1b02c6 bf4bbbf8 bf1ab2b8 bf4bf8c7     ......K.......K.
   16e44:	bf1a6293 bf4c3578 bf1a1255 bf4c7208     .b..x5L.U....rL.
   16e54:	bf19c200 bf4cae79 bf197194 bf4ceacb     ....y.L..q....L.
   16e64:	bf19210f bf4d26fd bf18d073 bf4d6310     .!...&M.s....cM.
   16e74:	bf187fc0 bf4d9f02 bf182ef5 bf4ddad5     ......M.......M.
   16e84:	bf17de12 bf4e1689 bf178d18 bf4e521c     ......N......RN.
   16e94:	bf173c07 bf4e8d90 bf16eadf bf4ec8e4     .<....N.......N.
   16ea4:	bf16999f bf4f0417 bf164847 bf4f3f2b     ......O.GH..+?O.
   16eb4:	bf15f6d9 bf4f7a1f bf15a554 bf4fb4f4     .....zO.T.....O.
   16ec4:	bf1553b7 bf4fefa8 bf150204 bf502a3b     .S....O.....;*P.
   16ed4:	bf14b039 bf5064af bf145e58 bf509f03     9....dP.X^....P.
   16ee4:	bf140c5f bf50d937 bf13ba50 bf51134a     _...7.P.P...J.Q.
   16ef4:	bf13682a bf514d3d bf1315ee bf518710     *h..=MQ.......Q.
   16f04:	bf12c39a bf51c0c2 bf127130 bf51fa54     ......Q.0q..T.Q.
   16f14:	bf121eb0 bf5233c6 bf11cc19 bf526d18     .....3R......mR.
   16f24:	bf11796b bf52a649 bf1126a7 bf52df59     ky..I.R..&..Y.R.
   16f34:	bf10d3cd bf531849 bf1080dc bf535118     ....I.S......QS.
   16f44:	bf102dd5 bf5389c7 bf0fdab8 bf53c255     .-....S.....U.S.
   16f54:	bf0f8784 bf53fac3 bf0f343b bf54330f     ......S.;4...3T.
   16f64:	bf0ee0db bf546b3b bf0e8d65 bf54a347     ....;kT.e...G.T.
   16f74:	bf0e39da bf54db31 bf0de638 bf5512fb     .9..1.T.8.....U.
   16f84:	bf0d9281 bf554aa4 bf0d3eb3 bf55822c     .....JU..>..,.U.
   16f94:	bf0cead0 bf55b993 bf0c96d7 bf55f0d9     ......U.......U.
   16fa4:	bf0c42c9 bf5627fe bf0beea5 bf565f02     .B...'V......_V.
   16fb4:	bf0b9a6b bf5695e5 bf0b461c bf56cca7     k.....V..F....V.
   16fc4:	bf0af1b7 bf570348 bf0a9d3d bf5739c7     ....H.W.=....9W.
   16fd4:	bf0a48ad bf577026 bf09f409 bf57a663     .H..&pW.....c.W.
   16fe4:	bf099f4e bf57dc7f bf094a7f bf581279     N.....W..J..y.X.
   16ff4:	bf08f59b bf584853 bf08a0a1 bf587e0b     ....SHX......~X.
   17004:	bf084b92 bf58b3a1 bf07f66f bf58e917     .K....X.o.....X.
   17014:	bf07a136 bf591e6a bf074be8 bf59539c     6...j.Y..K...SY.
   17024:	bf06f686 bf5988ad bf06a10e bf59bd9c     ......Y.......Y.
   17034:	bf064b82 bf59f26a bf05f5e2 bf5a2716     .K..j.Y......'Z.
   17044:	bf05a02c bf5a5ba0 bf054a62 bf5a9009     ,....[Z.bJ....Z.
   17054:	bf04f484 bf5ac450 bf049e91 bf5af875     ....P.Z.....u.Z.
   17064:	bf044889 bf5b2c79 bf03f26d bf5b605a     .H..y,[.m...Z`[.
   17074:	bf039c3d bf5b941a bf0345f8 bf5bc7b8     =.....[..E....[.
   17084:	bf02ef9f bf5bfb34 bf029932 bf5c2e8e     ....4.[.2.....\.
   17094:	bf0242b1 bf5c61c7 bf01ec1c bf5c94dd     .B...a\.......\.
   170a4:	bf019573 bf5cc7d1 bf013eb5 bf5cfaa3     s.....\..>....\.
   170b4:	bf00e7e4 bf5d2d53 bf0090ff bf5d5fe1     ....S-]......_].
   170c4:	bf003a06 bf5d924d beffc5f3 bf5dc497     .:..M.].......].
   170d4:	beff17b2 bf5df6be befe694a bf5e28c3     ......].Ji...(^.
   170e4:	befdbabb bf5e5aa6 befd0c04 bf5e8c67     .....Z^.....g.^.
   170f4:	befc5d27 bf5ebe05 befbae22 bf5eef81     ']....^.".....^.
   17104:	befafef7 bf5f20db befa4fa5 bf5f5212     ..... _..O...R_.
   17114:	bef9a02d bf5f8327 bef8f08e bf5fb419     -...'._......._.
   17124:	bef840c8 bf5fe4e9 bef790dc bf601596     .@...._.......`.
   17134:	bef6e0cb bf604621 bef63093 bf607689     ....!F`..0...v`.
   17144:	bef58035 bf60a6cf bef4cfb1 bf60d6f2     5.....`.......`.
   17154:	bef41f07 bf6106f2 bef36e38 bf6136d0     ......a.8n...6a.
   17164:	bef2bd43 bf61668a bef20c29 bf619622     C....fa.)...".a.
   17174:	bef15aea bf61c598 bef0a985 bf61f4ea     .Z....a.......a.
   17184:	beeff7fb bf62241a beef464c bf625326     .....$b.LF..&Sb.
   17194:	beee9479 bf628210 beede280 bf62b0d7     y.....b.......b.
   171a4:	beed3063 bf62df7b beec7e21 bf630dfc     c0..{.b.!~....c.
   171b4:	beebcbbb bf633c5a beeb1930 bf636a95     ....Z<c.0....jc.
   171c4:	beea6681 bf6398ac bee9b3ae bf63c6a1     .f....c.......c.
   171d4:	bee900b7 bf63f473 bee84d9c bf642221     ....s.c..M..!"d.
   171e4:	bee79a5d bf644fac bee6e6fb bf647d14     ]....Od......}d.
   171f4:	bee63375 bf64aa59 bee57fcb bf64d77b     u3..Y.d.....{.d.
   17204:	bee4cbfe bf650479 bee4180e bf653154     ....y.e.....T1e.
   17214:	bee363fa bf655e0b bee2afc4 bf658aa0     .c...^e.......e.
   17224:	bee1fb6a bf65b710 bee146ee bf65e35e     j.....e..F..^.e.
   17234:	bee0924f bf660f88 bedfdd8d bf663b8e     O.....f......;f.
   17244:	bedf28a9 bf666771 bede73a2 bf669330     .(..qgf..s..0.f.
   17254:	beddbe79 bf66becc bedd092e bf66ea45     y.....f.....E.f.
   17264:	bedc53c1 bf671599 bedb9e31 bf6740ca     .S....g.1....@g.
   17274:	bedae880 bf676bd8 beda32ad bf6796c1     .....kg..2....g.
   17284:	bed97cb9 bf67c187 bed8c6a3 bf67ec2a     .|....g.....*.g.
   17294:	bed8106b bf6816a8 bed75a13 bf684103     k.....h..Z...Ah.
   172a4:	bed6a399 bf686b39 bed5ecfd bf68954c     ....9kh.....L.h.
   172b4:	bed53641 bf68bf3c bed47f64 bf68e907     A6..<.h.d.....h.
   172c4:	bed3c867 bf6912ae bed31148 bf693c32     g.....i.H...2<i.
   172d4:	bed25a09 bf696591 bed1a2aa bf698ecc     .Z...ei.......i.
   172e4:	bed0eb2a bf69b7e4 bed0338a bf69e0d7     *.....i..3....i.
   172f4:	becf7bca bf6a09a7 becec3ea bf6a3252     .{....j.....R2j.
   17304:	bece0bea bf6a5ad9 becd53ca bf6a833c     .....Zj..S..<.j.
   17314:	becc9b8b bf6aab7b becbe32c bf6ad395     ....{.j.,.....j.
   17324:	becb2aae bf6afb8c beca7210 bf6b235e     .*....j..r..^#k.
   17334:	bec9b953 bf6b4b0c bec90077 bf6b7295     S....Kk.w....rk.
   17344:	bec8477c bf6b99fb bec78e62 bf6bc13b     |G....k.b...;.k.
   17354:	bec6d529 bf6be858 bec61bd2 bf6c0f50     )...X.k.....P.l.
   17364:	bec5625c bf6c3624 bec4a8c8 bf6c5cd4     \b..$6l......\l.
   17374:	bec3ef15 bf6c835e bec33544 bf6ca9c5     ....^.l.D5....l.
   17384:	bec27b55 bf6cd007 bec1c148 bf6cf624     U{....l.H...$.l.
   17394:	bec1071e bf6d1c1d bec04cd5 bf6d41f2     ......m..L...Am.
   173a4:	bebf926f bf6d67a1 bebed7eb bf6d8d2d     o....gm.....-.m.
   173b4:	bebe1d4a bf6db293 bebd628b bf6dd7d5     J.....m..b....m.
   173c4:	bebca7af bf6dfcf2 bebbecb6 bf6e21eb     ......m......!n.
   173d4:	bebb31a0 bf6e46be beba766e bf6e6b6d     .1...Fn.nv..mkn.
   173e4:	beb9bb1e bf6e8ff8 beb8ffb2 bf6eb45d     ......n.....].n.
   173f4:	beb8442a bf6ed89e beb78884 bf6efcba     *D....n.......n.
   17404:	beb6ccc3 bf6f20b0 beb610e6 bf6f4483     ..... o......Do.
   17414:	beb554ec bf6f6830 beb498d6 bf6f8bb8     .T..0ho.......o.
   17424:	beb3dca5 bf6faf1b beb32058 bf6fd25a     ......o.X ..Z.o.
   17434:	beb263ef bf6ff573 beb1a76b bf701867     .c..s.o.k...g.p.
   17444:	beb0eacb bf703b37 beb02e10 bf705de1     ....7;p......]p.
   17454:	beaf713a bf708066 beaeb449 bf70a2c6     :q..f.p.I.....p.
   17464:	beadf73c bf70c502 bead3a15 bf70e717     <.....p..:....p.
   17474:	beac7cd4 bf710908 beabbf77 bf712ad4     .|....q.w....*q.
   17484:	beab0201 bf714c7a beaa446f bf716dfb     ....zLq.oD...mq.
   17494:	bea986c4 bf718f57 bea8c8fe bf71b08e     ....W.q.......q.
   174a4:	bea80b1f bf71d19f bea74d25 bf71f28c     ......q.%M....q.
   174b4:	bea68f12 bf721352 bea5d0e5 bf7233f4     ....R.r......3r.
   174c4:	bea5129f bf725470 bea4543f bf7274c7     ....pTr.?T...tr.
   174d4:	bea395c5 bf7294f8 bea2d733 bf72b504     ......r.3.....r.
   174e4:	bea21887 bf72d4eb bea159c2 bf72f4ac     ......r..Y....r.
   174f4:	bea09ae5 bf731447 be9fdbee bf7333be     ....G.s......3s.
   17504:	be9f1cdf bf73530e be9e5db8 bf737239     .....Ss..]..9rs.
   17514:	be9d9e78 bf73913f be9cdf20 bf73b01f     x...?.s. .....s.
   17524:	be9c1faf bf73ced9 be9b6027 bf73ed6e     ......s.'`..n.s.
   17534:	be9aa086 bf740bdd be99e0ce bf742a27     ......t.....'*t.
   17544:	be9920fe bf74484b be986116 bf746649     . ..KHt..a..Ift.
   17554:	be97a117 bf748422 be96e100 bf74a1d5     ....".t.......t.
   17564:	be9620d2 bf74bf62 be95608d bf74dcc9     . ..b.t..`....t.
   17574:	be94a031 bf74fa0b be93dfbf bf751727     1.....t.....'.u.
   17584:	be931f35 bf75341d be925e94 bf7550ed     5....4u..^...Pu.
   17594:	be919ddd bf756d97 be90dd10 bf758a1c     .....mu.......u.
   175a4:	be901c2c bf75a67b be8f5b32 bf75c2b3     ,...{.u.2[....u.
   175b4:	be8e9a22 bf75dec6 be8dd8fc bf75fab3     ".....u.......u.
   175c4:	be8d17c0 bf76167a be8c566e bf76321b     ....z.v.nV...2v.
   175d4:	be8b9507 bf764d97 be8ad38a bf7668ec     .....Mv......hv.
   175e4:	be8a11f8 bf76841b be895050 bf769f24     ......v.PP..$.v.
   175f4:	be888e93 bf76ba07 be87ccc1 bf76d4c4     ......v.......v.
   17604:	be870ada bf76ef5b be8648df bf7709cc     ....[.v..H....w.
   17614:	be8586ce bf772417 be84c4aa bf773e3c     .....$w.....<>w.
   17624:	be840270 bf77583a be834022 bf777213     p...:Xw."@...rw.
   17634:	be827dc0 bf778bc5 be81bb4a bf77a551     .}....w.J...Q.w.
   17644:	be80f8c0 bf77beb7 be803622 bf77d7f7     ......w."6....w.
   17654:	be7ee6e1 bf77f110 be7d6156 bf780a04     ..~...w.Va}...x.
   17664:	be7bdba4 bf7822d1 be7a55cb bf783b77     ..{.."x..Uz.w;x.
   17674:	be78cfcc bf7853f8 be7749a6 bf786c52     ..x..Sx..Iw.Rlx.
   17684:	be75c35a bf788486 be743ce8 bf789c93     Z.u...x..<t...x.
   17694:	be72b651 bf78b47b be712f94 bf78cc3b     Q.r.{.x../q.;.x.
   176a4:	be6fa8b2 bf78e3d6 be6e21ab bf78fb4a     ..o...x..!n.J.x.
   176b4:	be6c9a7f bf791298 be6b132f bf7929bf     ..l...y./.k..)y.
   176c4:	be698bba bf7940c0 be680422 bf79579a     ..i..@y.".h..Wy.
   176d4:	be667c66 bf796e4e be64f486 bf7984dc     f|f.Nny...d...y.
   176e4:	be636c83 bf799b43 be61e45c bf79b183     .lc.C.y.\.a...y.
   176f4:	be605c13 bf79c79d be5ed3a8 bf79dd91     .\`...y...^...y.
   17704:	be5d4b1a bf79f35e be5bc26a bf7a0904     .K].^.y.j.[...z.
   17714:	be5a3997 bf7a1e84 be58b0a4 bf7a33dd     .9Z...z...X..3z.
   17724:	be57278f bf7a4910 be559e58 bf7a5e1c     .'W..Iz.X.U..^z.
   17734:	be541501 bf7a7302 be528b89 bf7a87c1     ..T..sz...R...z.
   17744:	be5101f1 bf7a9c59 be4f7838 bf7ab0cb     ..Q.Y.z.8xO...z.
   17754:	be4dee60 bf7ac516 be4c6467 bf7ad93a     `.M...z.gdL.:.z.
   17764:	be4ada4f bf7aed37 be495018 bf7b010e     O.J.7.z..PI...{.
   17774:	be47c5c2 bf7b14be be463b4d bf7b2848     ..G...{.M;F.H({.
   17784:	be44b0b9 bf7b3bab be432607 bf7b4ee7     ..D..;{..&C..N{.
   17794:	be419b37 bf7b61fc be401049 bf7b74ea     7.A..a{.I.@..t{.
   177a4:	be3e853e bf7b87b2 be3cfa15 bf7b9a53     >.>...{...<.S.{.
   177b4:	be3b6ecf bf7baccd be39e36c bf7bbf20     .n;...{.l.9. .{.
   177c4:	be3857ec bf7bd14d be36cc50 bf7be353     .W8.M.{.P.6.S.{.
   177d4:	be354098 bf7bf531 be33b4c4 bf7c06e9     .@5.1.{...3...|.
   177e4:	be3228d4 bf7c187a be309cc9 bf7c29e5     .(2.z.|...0..)|.
   177f4:	be2f10a2 bf7c3b28 be2d8461 bf7c4c44     ../.(;|.a.-.DL|.
   17804:	be2bf804 bf7c5d3a be2a6b8d bf7c6e08     ..+.:]|..k*..n|.
   17814:	be28defc bf7c7eb0 be275251 bf7c8f31     ..(..~|.QR'.1.|.
   17824:	be25c58c bf7c9f8a be2438ad bf7cafbd     ..%...|..8$...|.
   17834:	be22abb6 bf7cbfc9 be211ea5 bf7ccfae     .."...|...!...|.
   17844:	be1f917b bf7cdf6c be1e0438 bf7cef03     {...l.|.8.....|.
   17854:	be1c76de bf7cfe73 be1ae96b bf7d0dbc     .v..s.|.k.....}.
   17864:	be195be0 bf7d1cdd be17ce3d bf7d2bd8     .[....}.=....+}.
   17874:	be164083 bf7d3aac be14b2b2 bf7d4959     .@...:}.....YI}.
   17884:	be1324ca bf7d57de be1196cc bf7d663d     .$...W}.....=f}.
   17894:	be1008b7 bf7d7474 be0e7a8b bf7d8285     ....tt}..z....}.
   178a4:	be0cec4a bf7d906e be0b5df3 bf7d9e30     J...n.}..]..0.}.
   178b4:	be09cf86 bf7dabcc be084105 bf7db940     ......}..A..@.}.
   178c4:	be06b26e bf7dc68c be0523c2 bf7dd3b2     n.....}..#....}.
   178d4:	be039502 bf7de0b1 be02062e bf7ded88     ......}.......}.
   178e4:	be007745 bf7dfa38 bdfdd092 bf7e06c2     Ew..8.}.......~.
   178f4:	bdfab273 bf7e1324 bdf7942c bf7e1f5e     s...$.~.,...^.~.
   17904:	bdf475c0 bf7e2b72 bdf1572e bf7e375e     .u..r+~..W..^7~.
   17914:	bdee3876 bf7e4323 bdeb199a bf7e4ec1     v8..#C~......N~.
   17924:	bde7fa9a bf7e5a38 bde4db76 bf7e6588     ....8Z~.v....e~.
   17934:	bde1bc2e bf7e70b0 bdde9cc4 bf7e7bb1     .....p~......{~.
   17944:	bddb7d37 bf7e868b bdd85d89 bf7e913d     7}....~..]..=.~.
   17954:	bdd53db9 bf7e9bc9 bdd21dc8 bf7ea62d     .=....~.....-.~.
   17964:	bdcefdb7 bf7eb069 bdcbdd86 bf7eba7f     ....i.~.......~.
   17974:	bdc8bd36 bf7ec46d bdc59cc6 bf7ece34     6...m.~.....4.~.
   17984:	bdc27c39 bf7ed7d4 bdbf5b8d bf7ee14c     9|....~..[..L.~.
   17994:	bdbc3ac3 bf7eea9d bdb919dd bf7ef3c7     .:....~.......~.
   179a4:	bdb5f8da bf7efcc9 bdb2d7bb bf7f05a4     ......~.........
   179b4:	bdafb680 bf7f0e58 bdac952b bf7f16e4     ....X...+.......
   179c4:	bda973ba bf7f1f49 bda65230 bf7f2787     .s..I...0R...'..
   179d4:	bda3308c bf7f2f9d bda00ecf bf7f378d     .0.../.......7..
   179e4:	bd9cecf9 bf7f3f54 bd99cb0a bf7f46f4     ....T?.......F..
   179f4:	bd96a905 bf7f4e6d bd9386e7 bf7f55bf     ....mN.......U..
   17a04:	bd9064b4 bf7f5ce9 bd8d426a bf7f63ec     .d...\..jB...c..
   17a14:	bd8a200a bf7f6ac7 bd86fd94 bf7f717b     . ...j......{q..
   17a24:	bd83db0a bf7f7808 bd80b86c bf7f7e6d     .....x..l...m~..
   17a34:	bd7b2b74 bf7f84ab bd74e5e9 bf7f8ac2     t+{.......t.....
   17a44:	bd6ea038 bf7f90b1 bd685a62 bf7f9678     8.n.....bZh.x...
   17a54:	bd621468 bf7f9c18 bd5bce4c bf7fa191     h.b.....L.[.....
   17a64:	bd55880e bf7fa6e3 bd4f41af bf7fac0d     ..U......AO.....
   17a74:	bd48fb2f bf7fb10f bd42b491 bf7fb5ea     /.H.......B.....
   17a84:	bd3c6dd5 bf7fba9e bd3626fc bf7fbf2a     .m<......&6.*...
   17a94:	bd2fe007 bf7fc38f bd2998f6 bf7fc7cc     ../.......).....
   17aa4:	bd2351cc bf7fcbe2 bd1d0a88 bf7fcfd1     .Q#.............
   17ab4:	bd16c32c bf7fd398 bd107bb8 bf7fd737     ,........{..7...
   17ac4:	bd0a342f bf7fdaaf bd03ec90 bf7fde00     /4..............
   17ad4:	bcfb49b9 bf7fe129 bceeba2d bf7fe42b     .I..)...-...+...
   17ae4:	bce22a7b bf7fe705 bcd59aa6 bf7fe9b8     {*..............
   17af4:	bcc90ab0 bf7fec43 bcbc7a9b bf7feea7     ....C....z......
   17b04:	bcafea69 bf7ff0e3 bca35a1c bf7ff2f8     i........Z......
   17b14:	bc96c9b6 bf7ff4e6 bc8a3938 bf7ff6ac     ........89......
   17b24:	bc7b514b bf7ff84a bc623000 bf7ff9c1     KQ{.J....0b.....
   17b34:	bc490e90 bf7ffb11 bc2fed02 bf7ffc39     ..I......./.9...
   17b44:	bc16cb59 bf7ffd39 bbfb5330 bf7ffe13     Y...9...0S......
   17b54:	bbc90f89 bf7ffec4 bb96cbc1 bf7fff4e     ............N...
   17b64:	bb490fc7 bf7fffb1 bac90fd4 bf7fffec     ..I.............
   17b74:	80000000 bf800000 3ac90fd4 bf7fffec     ...........:....
   17b84:	3b490fc7 bf7fffb1 3b96cbc1 bf7fff4e     ..I;.......;N...
   17b94:	3bc90f89 bf7ffec4 3bfb5330 bf7ffe13     ...;....0S.;....
   17ba4:	3c16cb59 bf7ffd39 3c2fed02 bf7ffc39     Y..<9...../<9...
   17bb4:	3c490e90 bf7ffb11 3c623000 bf7ff9c1     ..I<.....0b<....
   17bc4:	3c7b514b bf7ff84a 3c8a3938 bf7ff6ac     KQ{<J...89.<....
   17bd4:	3c96c9b6 bf7ff4e6 3ca35a1c bf7ff2f8     ...<.....Z.<....
   17be4:	3cafea69 bf7ff0e3 3cbc7a9b bf7feea7     i..<.....z.<....
   17bf4:	3cc90ab0 bf7fec43 3cd59aa6 bf7fe9b8     ...<C......<....
   17c04:	3ce22a7b bf7fe705 3ceeba2d bf7fe42b     {*.<....-..<+...
   17c14:	3cfb49b9 bf7fe129 3d03ec90 bf7fde00     .I.<)......=....
   17c24:	3d0a342f bf7fdaaf 3d107bb8 bf7fd737     /4.=.....{.=7...
   17c34:	3d16c32c bf7fd398 3d1d0a88 bf7fcfd1     ,..=.......=....
   17c44:	3d2351cc bf7fcbe2 3d2998f6 bf7fc7cc     .Q#=......)=....
   17c54:	3d2fe007 bf7fc38f 3d3626fc bf7fbf2a     ../=.....&6=*...
   17c64:	3d3c6dd5 bf7fba9e 3d42b491 bf7fb5ea     .m<=......B=....
   17c74:	3d48fb2f bf7fb10f 3d4f41af bf7fac0d     /.H=.....AO=....
   17c84:	3d55880e bf7fa6e3 3d5bce4c bf7fa191     ..U=....L.[=....
   17c94:	3d621468 bf7f9c18 3d685a62 bf7f9678     h.b=....bZh=x...
   17ca4:	3d6ea038 bf7f90b1 3d74e5e9 bf7f8ac2     8.n=......t=....
   17cb4:	3d7b2b74 bf7f84ab 3d80b86c bf7f7e6d     t+{=....l..=m~..
   17cc4:	3d83db0a bf7f7808 3d86fd94 bf7f717b     ...=.x.....={q..
   17cd4:	3d8a200a bf7f6ac7 3d8d426a bf7f63ec     . .=.j..jB.=.c..
   17ce4:	3d9064b4 bf7f5ce9 3d9386e7 bf7f55bf     .d.=.\.....=.U..
   17cf4:	3d96a905 bf7f4e6d 3d99cb0a bf7f46f4     ...=mN.....=.F..
   17d04:	3d9cecf9 bf7f3f54 3da00ecf bf7f378d     ...=T?.....=.7..
   17d14:	3da3308c bf7f2f9d 3da65230 bf7f2787     .0.=./..0R.=.'..
   17d24:	3da973ba bf7f1f49 3dac952b bf7f16e4     .s.=I...+..=....
   17d34:	3dafb680 bf7f0e58 3db2d7bb bf7f05a4     ...=X......=....
   17d44:	3db5f8da bf7efcc9 3db919dd bf7ef3c7     ...=..~....=..~.
   17d54:	3dbc3ac3 bf7eea9d 3dbf5b8d bf7ee14c     .:.=..~..[.=L.~.
   17d64:	3dc27c39 bf7ed7d4 3dc59cc6 bf7ece34     9|.=..~....=4.~.
   17d74:	3dc8bd36 bf7ec46d 3dcbdd86 bf7eba7f     6..=m.~....=..~.
   17d84:	3dcefdb7 bf7eb069 3dd21dc8 bf7ea62d     ...=i.~....=-.~.
   17d94:	3dd53db9 bf7e9bc9 3dd85d89 bf7e913d     .=.=..~..].==.~.
   17da4:	3ddb7d37 bf7e868b 3dde9cc4 bf7e7bb1     7}.=..~....=.{~.
   17db4:	3de1bc2e bf7e70b0 3de4db76 bf7e6588     ...=.p~.v..=.e~.
   17dc4:	3de7fa9a bf7e5a38 3deb199a bf7e4ec1     ...=8Z~....=.N~.
   17dd4:	3dee3876 bf7e4323 3df1572e bf7e375e     v8.=#C~..W.=^7~.
   17de4:	3df475c0 bf7e2b72 3df7942c bf7e1f5e     .u.=r+~.,..=^.~.
   17df4:	3dfab273 bf7e1324 3dfdd092 bf7e06c2     s..=$.~....=..~.
   17e04:	3e007745 bf7dfa38 3e02062e bf7ded88     Ew.>8.}....>..}.
   17e14:	3e039502 bf7de0b1 3e0523c2 bf7dd3b2     ...>..}..#.>..}.
   17e24:	3e06b26e bf7dc68c 3e084105 bf7db940     n..>..}..A.>@.}.
   17e34:	3e09cf86 bf7dabcc 3e0b5df3 bf7d9e30     ...>..}..].>0.}.
   17e44:	3e0cec4a bf7d906e 3e0e7a8b bf7d8285     J..>n.}..z.>..}.
   17e54:	3e1008b7 bf7d7474 3e1196cc bf7d663d     ...>tt}....>=f}.
   17e64:	3e1324ca bf7d57de 3e14b2b2 bf7d4959     .$.>.W}....>YI}.
   17e74:	3e164083 bf7d3aac 3e17ce3d bf7d2bd8     .@.>.:}.=..>.+}.
   17e84:	3e195be0 bf7d1cdd 3e1ae96b bf7d0dbc     .[.>..}.k..>..}.
   17e94:	3e1c76de bf7cfe73 3e1e0438 bf7cef03     .v.>s.|.8..>..|.
   17ea4:	3e1f917b bf7cdf6c 3e211ea5 bf7ccfae     {..>l.|...!>..|.
   17eb4:	3e22abb6 bf7cbfc9 3e2438ad bf7cafbd     ..">..|..8$>..|.
   17ec4:	3e25c58c bf7c9f8a 3e275251 bf7c8f31     ..%>..|.QR'>1.|.
   17ed4:	3e28defc bf7c7eb0 3e2a6b8d bf7c6e08     ..(>.~|..k*>.n|.
   17ee4:	3e2bf804 bf7c5d3a 3e2d8461 bf7c4c44     ..+>:]|.a.->DL|.
   17ef4:	3e2f10a2 bf7c3b28 3e309cc9 bf7c29e5     ../>(;|...0>.)|.
   17f04:	3e3228d4 bf7c187a 3e33b4c4 bf7c06e9     .(2>z.|...3>..|.
   17f14:	3e354098 bf7bf531 3e36cc50 bf7be353     .@5>1.{.P.6>S.{.
   17f24:	3e3857ec bf7bd14d 3e39e36c bf7bbf20     .W8>M.{.l.9> .{.
   17f34:	3e3b6ecf bf7baccd 3e3cfa15 bf7b9a53     .n;>..{...<>S.{.
   17f44:	3e3e853e bf7b87b2 3e401049 bf7b74ea     >.>>..{.I.@>.t{.
   17f54:	3e419b37 bf7b61fc 3e432607 bf7b4ee7     7.A>.a{..&C>.N{.
   17f64:	3e44b0b9 bf7b3bab 3e463b4d bf7b2848     ..D>.;{.M;F>H({.
   17f74:	3e47c5c2 bf7b14be 3e495018 bf7b010e     ..G>..{..PI>..{.
   17f84:	3e4ada4f bf7aed37 3e4c6467 bf7ad93a     O.J>7.z.gdL>:.z.
   17f94:	3e4dee60 bf7ac516 3e4f7838 bf7ab0cb     `.M>..z.8xO>..z.
   17fa4:	3e5101f1 bf7a9c59 3e528b89 bf7a87c1     ..Q>Y.z...R>..z.
   17fb4:	3e541501 bf7a7302 3e559e58 bf7a5e1c     ..T>.sz.X.U>.^z.
   17fc4:	3e57278f bf7a4910 3e58b0a4 bf7a33dd     .'W>.Iz...X>.3z.
   17fd4:	3e5a3997 bf7a1e84 3e5bc26a bf7a0904     .9Z>..z.j.[>..z.
   17fe4:	3e5d4b1a bf79f35e 3e5ed3a8 bf79dd91     .K]>^.y...^>..y.
   17ff4:	3e605c13 bf79c79d 3e61e45c bf79b183     .\`>..y.\.a>..y.
   18004:	3e636c83 bf799b43 3e64f486 bf7984dc     .lc>C.y...d>..y.
   18014:	3e667c66 bf796e4e 3e680422 bf79579a     f|f>Nny.".h>.Wy.
   18024:	3e698bba bf7940c0 3e6b132f bf7929bf     ..i>.@y./.k>.)y.
   18034:	3e6c9a7f bf791298 3e6e21ab bf78fb4a     ..l>..y..!n>J.x.
   18044:	3e6fa8b2 bf78e3d6 3e712f94 bf78cc3b     ..o>..x../q>;.x.
   18054:	3e72b651 bf78b47b 3e743ce8 bf789c93     Q.r>{.x..<t>..x.
   18064:	3e75c35a bf788486 3e7749a6 bf786c52     Z.u>..x..Iw>Rlx.
   18074:	3e78cfcc bf7853f8 3e7a55cb bf783b77     ..x>.Sx..Uz>w;x.
   18084:	3e7bdba4 bf7822d1 3e7d6156 bf780a04     ..{>."x.Va}>..x.
   18094:	3e7ee6e1 bf77f110 3e803622 bf77d7f7     ..~>..w."6.>..w.
   180a4:	3e80f8c0 bf77beb7 3e81bb4a bf77a551     ...>..w.J..>Q.w.
   180b4:	3e827dc0 bf778bc5 3e834022 bf777213     .}.>..w."@.>.rw.
   180c4:	3e840270 bf77583a 3e84c4aa bf773e3c     p..>:Xw....><>w.
   180d4:	3e8586ce bf772417 3e8648df bf7709cc     ...>.$w..H.>..w.
   180e4:	3e870ada bf76ef5b 3e87ccc1 bf76d4c4     ...>[.v....>..v.
   180f4:	3e888e93 bf76ba07 3e895050 bf769f24     ...>..v.PP.>$.v.
   18104:	3e8a11f8 bf76841b 3e8ad38a bf7668ec     ...>..v....>.hv.
   18114:	3e8b9507 bf764d97 3e8c566e bf76321b     ...>.Mv.nV.>.2v.
   18124:	3e8d17c0 bf76167a 3e8dd8fc bf75fab3     ...>z.v....>..u.
   18134:	3e8e9a22 bf75dec6 3e8f5b32 bf75c2b3     "..>..u.2[.>..u.
   18144:	3e901c2c bf75a67b 3e90dd10 bf758a1c     ,..>{.u....>..u.
   18154:	3e919ddd bf756d97 3e925e94 bf7550ed     ...>.mu..^.>.Pu.
   18164:	3e931f35 bf75341d 3e93dfbf bf751727     5..>.4u....>'.u.
   18174:	3e94a031 bf74fa0b 3e95608d bf74dcc9     1..>..t..`.>..t.
   18184:	3e9620d2 bf74bf62 3e96e100 bf74a1d5     . .>b.t....>..t.
   18194:	3e97a117 bf748422 3e986116 bf746649     ...>".t..a.>Ift.
   181a4:	3e9920fe bf74484b 3e99e0ce bf742a27     . .>KHt....>'*t.
   181b4:	3e9aa086 bf740bdd 3e9b6027 bf73ed6e     ...>..t.'`.>n.s.
   181c4:	3e9c1faf bf73ced9 3e9cdf20 bf73b01f     ...>..s. ..>..s.
   181d4:	3e9d9e78 bf73913f 3e9e5db8 bf737239     x..>?.s..].>9rs.
   181e4:	3e9f1cdf bf73530e 3e9fdbee bf7333be     ...>.Ss....>.3s.
   181f4:	3ea09ae5 bf731447 3ea159c2 bf72f4ac     ...>G.s..Y.>..r.
   18204:	3ea21887 bf72d4eb 3ea2d733 bf72b504     ...>..r.3..>..r.
   18214:	3ea395c5 bf7294f8 3ea4543f bf7274c7     ...>..r.?T.>.tr.
   18224:	3ea5129f bf725470 3ea5d0e5 bf7233f4     ...>pTr....>.3r.
   18234:	3ea68f12 bf721352 3ea74d25 bf71f28c     ...>R.r.%M.>..q.
   18244:	3ea80b1f bf71d19f 3ea8c8fe bf71b08e     ...>..q....>..q.
   18254:	3ea986c4 bf718f57 3eaa446f bf716dfb     ...>W.q.oD.>.mq.
   18264:	3eab0201 bf714c7a 3eabbf77 bf712ad4     ...>zLq.w..>.*q.
   18274:	3eac7cd4 bf710908 3ead3a15 bf70e717     .|.>..q..:.>..p.
   18284:	3eadf73c bf70c502 3eaeb449 bf70a2c6     <..>..p.I..>..p.
   18294:	3eaf713a bf708066 3eb02e10 bf705de1     :q.>f.p....>.]p.
   182a4:	3eb0eacb bf703b37 3eb1a76b bf701867     ...>7;p.k..>g.p.
   182b4:	3eb263ef bf6ff573 3eb32058 bf6fd25a     .c.>s.o.X .>Z.o.
   182c4:	3eb3dca5 bf6faf1b 3eb498d6 bf6f8bb8     ...>..o....>..o.
   182d4:	3eb554ec bf6f6830 3eb610e6 bf6f4483     .T.>0ho....>.Do.
   182e4:	3eb6ccc3 bf6f20b0 3eb78884 bf6efcba     ...>. o....>..n.
   182f4:	3eb8442a bf6ed89e 3eb8ffb2 bf6eb45d     *D.>..n....>].n.
   18304:	3eb9bb1e bf6e8ff8 3eba766e bf6e6b6d     ...>..n.nv.>mkn.
   18314:	3ebb31a0 bf6e46be 3ebbecb6 bf6e21eb     .1.>.Fn....>.!n.
   18324:	3ebca7af bf6dfcf2 3ebd628b bf6dd7d5     ...>..m..b.>..m.
   18334:	3ebe1d4a bf6db293 3ebed7eb bf6d8d2d     J..>..m....>-.m.
   18344:	3ebf926f bf6d67a1 3ec04cd5 bf6d41f2     o..>.gm..L.>.Am.
   18354:	3ec1071e bf6d1c1d 3ec1c148 bf6cf624     ...>..m.H..>$.l.
   18364:	3ec27b55 bf6cd007 3ec33544 bf6ca9c5     U{.>..l.D5.>..l.
   18374:	3ec3ef15 bf6c835e 3ec4a8c8 bf6c5cd4     ...>^.l....>.\l.
   18384:	3ec5625c bf6c3624 3ec61bd2 bf6c0f50     \b.>$6l....>P.l.
   18394:	3ec6d529 bf6be858 3ec78e62 bf6bc13b     )..>X.k.b..>;.k.
   183a4:	3ec8477c bf6b99fb 3ec90077 bf6b7295     |G.>..k.w..>.rk.
   183b4:	3ec9b953 bf6b4b0c 3eca7210 bf6b235e     S..>.Kk..r.>^#k.
   183c4:	3ecb2aae bf6afb8c 3ecbe32c bf6ad395     .*.>..j.,..>..j.
   183d4:	3ecc9b8b bf6aab7b 3ecd53ca bf6a833c     ...>{.j..S.><.j.
   183e4:	3ece0bea bf6a5ad9 3ecec3ea bf6a3252     ...>.Zj....>R2j.
   183f4:	3ecf7bca bf6a09a7 3ed0338a bf69e0d7     .{.>..j..3.>..i.
   18404:	3ed0eb2a bf69b7e4 3ed1a2aa bf698ecc     *..>..i....>..i.
   18414:	3ed25a09 bf696591 3ed31148 bf693c32     .Z.>.ei.H..>2<i.
   18424:	3ed3c867 bf6912ae 3ed47f64 bf68e907     g..>..i.d..>..h.
   18434:	3ed53641 bf68bf3c 3ed5ecfd bf68954c     A6.><.h....>L.h.
   18444:	3ed6a399 bf686b39 3ed75a13 bf684103     ...>9kh..Z.>.Ah.
   18454:	3ed8106b bf6816a8 3ed8c6a3 bf67ec2a     k..>..h....>*.g.
   18464:	3ed97cb9 bf67c187 3eda32ad bf6796c1     .|.>..g..2.>..g.
   18474:	3edae880 bf676bd8 3edb9e31 bf6740ca     ...>.kg.1..>.@g.
   18484:	3edc53c1 bf671599 3edd092e bf66ea45     .S.>..g....>E.f.
   18494:	3eddbe79 bf66becc 3ede73a2 bf669330     y..>..f..s.>0.f.
   184a4:	3edf28a9 bf666771 3edfdd8d bf663b8e     .(.>qgf....>.;f.
   184b4:	3ee0924f bf660f88 3ee146ee bf65e35e     O..>..f..F.>^.e.
   184c4:	3ee1fb6a bf65b710 3ee2afc4 bf658aa0     j..>..e....>..e.
   184d4:	3ee363fa bf655e0b 3ee4180e bf653154     .c.>.^e....>T1e.
   184e4:	3ee4cbfe bf650479 3ee57fcb bf64d77b     ...>y.e....>{.d.
   184f4:	3ee63375 bf64aa59 3ee6e6fb bf647d14     u3.>Y.d....>.}d.
   18504:	3ee79a5d bf644fac 3ee84d9c bf642221     ]..>.Od..M.>!"d.
   18514:	3ee900b7 bf63f473 3ee9b3ae bf63c6a1     ...>s.c....>..c.
   18524:	3eea6681 bf6398ac 3eeb1930 bf636a95     .f.>..c.0..>.jc.
   18534:	3eebcbbb bf633c5a 3eec7e21 bf630dfc     ...>Z<c.!~.>..c.
   18544:	3eed3063 bf62df7b 3eede280 bf62b0d7     c0.>{.b....>..b.
   18554:	3eee9479 bf628210 3eef464c bf625326     y..>..b.LF.>&Sb.
   18564:	3eeff7fb bf62241a 3ef0a985 bf61f4ea     ...>.$b....>..a.
   18574:	3ef15aea bf61c598 3ef20c29 bf619622     .Z.>..a.)..>".a.
   18584:	3ef2bd43 bf61668a 3ef36e38 bf6136d0     C..>.fa.8n.>.6a.
   18594:	3ef41f07 bf6106f2 3ef4cfb1 bf60d6f2     ...>..a....>..`.
   185a4:	3ef58035 bf60a6cf 3ef63093 bf607689     5..>..`..0.>.v`.
   185b4:	3ef6e0cb bf604621 3ef790dc bf601596     ...>!F`....>..`.
   185c4:	3ef840c8 bf5fe4e9 3ef8f08e bf5fb419     .@.>.._....>.._.
   185d4:	3ef9a02d bf5f8327 3efa4fa5 bf5f5212     -..>'._..O.>.R_.
   185e4:	3efafef7 bf5f20db 3efbae22 bf5eef81     ...>. _."..>..^.
   185f4:	3efc5d27 bf5ebe05 3efd0c04 bf5e8c67     '].>..^....>g.^.
   18604:	3efdbabb bf5e5aa6 3efe694a bf5e28c3     ...>.Z^.Ji.>.(^.
   18614:	3eff17b2 bf5df6be 3effc5f3 bf5dc497     ...>..]....>..].
   18624:	3f003a06 bf5d924d 3f0090ff bf5d5fe1     .:.?M.]....?._].
   18634:	3f00e7e4 bf5d2d53 3f013eb5 bf5cfaa3     ...?S-]..>.?..\.
   18644:	3f019573 bf5cc7d1 3f01ec1c bf5c94dd     s..?..\....?..\.
   18654:	3f0242b1 bf5c61c7 3f029932 bf5c2e8e     .B.?.a\.2..?..\.
   18664:	3f02ef9f bf5bfb34 3f0345f8 bf5bc7b8     ...?4.[..E.?..[.
   18674:	3f039c3d bf5b941a 3f03f26d bf5b605a     =..?..[.m..?Z`[.
   18684:	3f044889 bf5b2c79 3f049e91 bf5af875     .H.?y,[....?u.Z.
   18694:	3f04f484 bf5ac450 3f054a62 bf5a9009     ...?P.Z.bJ.?..Z.
   186a4:	3f05a02c bf5a5ba0 3f05f5e2 bf5a2716     ,..?.[Z....?.'Z.
   186b4:	3f064b82 bf59f26a 3f06a10e bf59bd9c     .K.?j.Y....?..Y.
   186c4:	3f06f686 bf5988ad 3f074be8 bf59539c     ...?..Y..K.?.SY.
   186d4:	3f07a136 bf591e6a 3f07f66f bf58e917     6..?j.Y.o..?..X.
   186e4:	3f084b92 bf58b3a1 3f08a0a1 bf587e0b     .K.?..X....?.~X.
   186f4:	3f08f59b bf584853 3f094a7f bf581279     ...?SHX..J.?y.X.
   18704:	3f099f4e bf57dc7f 3f09f409 bf57a663     N..?..W....?c.W.
   18714:	3f0a48ad bf577026 3f0a9d3d bf5739c7     .H.?&pW.=..?.9W.
   18724:	3f0af1b7 bf570348 3f0b461c bf56cca7     ...?H.W..F.?..V.
   18734:	3f0b9a6b bf5695e5 3f0beea5 bf565f02     k..?..V....?._V.
   18744:	3f0c42c9 bf5627fe 3f0c96d7 bf55f0d9     .B.?.'V....?..U.
   18754:	3f0cead0 bf55b993 3f0d3eb3 bf55822c     ...?..U..>.?,.U.
   18764:	3f0d9281 bf554aa4 3f0de638 bf5512fb     ...?.JU.8..?..U.
   18774:	3f0e39da bf54db31 3f0e8d65 bf54a347     .9.?1.T.e..?G.T.
   18784:	3f0ee0db bf546b3b 3f0f343b bf54330f     ...?;kT.;4.?.3T.
   18794:	3f0f8784 bf53fac3 3f0fdab8 bf53c255     ...?..S....?U.S.
   187a4:	3f102dd5 bf5389c7 3f1080dc bf535118     .-.?..S....?.QS.
   187b4:	3f10d3cd bf531849 3f1126a7 bf52df59     ...?I.S..&.?Y.R.
   187c4:	3f11796b bf52a649 3f11cc19 bf526d18     ky.?I.R....?.mR.
   187d4:	3f121eb0 bf5233c6 3f127130 bf51fa54     ...?.3R.0q.?T.Q.
   187e4:	3f12c39a bf51c0c2 3f1315ee bf518710     ...?..Q....?..Q.
   187f4:	3f13682a bf514d3d 3f13ba50 bf51134a     *h.?=MQ.P..?J.Q.
   18804:	3f140c5f bf50d937 3f145e58 bf509f03     _..?7.P.X^.?..P.
   18814:	3f14b039 bf5064af 3f150204 bf502a3b     9..?.dP....?;*P.
   18824:	3f1553b7 bf4fefa8 3f15a554 bf4fb4f4     .S.?..O.T..?..O.
   18834:	3f15f6d9 bf4f7a1f 3f164847 bf4f3f2b     ...?.zO.GH.?+?O.
   18844:	3f16999f bf4f0417 3f16eadf bf4ec8e4     ...?..O....?..N.
   18854:	3f173c07 bf4e8d90 3f178d18 bf4e521c     .<.?..N....?.RN.
   18864:	3f17de12 bf4e1689 3f182ef5 bf4ddad5     ...?..N....?..M.
   18874:	3f187fc0 bf4d9f02 3f18d073 bf4d6310     ...?..M.s..?.cM.
   18884:	3f19210f bf4d26fd 3f197194 bf4ceacb     .!.?.&M..q.?..L.
   18894:	3f19c200 bf4cae79 3f1a1255 bf4c7208     ...?y.L.U..?.rL.
   188a4:	3f1a6293 bf4c3578 3f1ab2b8 bf4bf8c7     .b.?x5L....?..K.
   188b4:	3f1b02c6 bf4bbbf8 3f1b52bb bf4b7f09     ...?..K..R.?..K.
   188c4:	3f1ba299 bf4b41fa 3f1bf25f bf4b04cc     ...?.AK._..?..K.
   188d4:	3f1c420c bf4ac77f 3f1c91a2 bf4a8a13     .B.?..J....?..J.
   188e4:	3f1ce11f bf4a4c87 3f1d3084 bf4a0edc     ...?.LJ..0.?..J.
   188f4:	3f1d7fd1 bf49d112 3f1dcf06 bf499329     ...?..I....?).I.
   18904:	3f1e1e22 bf495521 3f1e6d26 bf4916fa     "..?!UI.&m.?..I.
   18914:	3f1ebc12 bf48d8b3 3f1f0ae5 bf489a4e     ...?..H....?N.H.
   18924:	3f1f599f bf485bca 3f1fa841 bf481d27     .Y.?.[H.A..?'.H.
   18934:	3f1ff6cb bf47de65 3f20453b bf479f84     ...?e.G.;E ?..G.
   18944:	3f209393 bf476085 3f20e1d2 bf472167     .. ?.`G... ?g!G.
   18954:	3f212ff9 bf46e22a 3f217e06 bf46a2ce     ./!?*.F..~!?..F.
   18964:	3f21cbfb bf466354 3f2219d7 bf4623bb     ..!?TcF..."?.#F.
   18974:	3f226799 bf45e403 3f22b543 bf45a42d     .g"?..E.C."?-.E.
   18984:	3f2302d3 bf456439 3f23504b bf452426     ..#?9dE.KP#?&$E.
   18994:	3f239da9 bf44e3f5 3f23eaee bf44a3a5     ..#?..D...#?..D.
   189a4:	3f24381a bf446337 3f24852c bf4422ab     .8$?7cD.,.$?."D.
   189b4:	3f24d225 bf43e200 3f251f04 bf43a138     %.$?..C...%?8.C.
   189c4:	3f256bcb bf436051 3f25b877 bf431f4c     .k%?Q`C.w.%?L.C.
   189d4:	3f26050a bf42de29 3f265184 bf429ce8     ..&?).B..Q&?..B.
   189e4:	3f269de3 bf425b89 3f26ea2a bf421a0b     ..&?.[B.*.&?..B.
   189f4:	3f273656 bf41d870 3f278268 bf4196b7     V6'?p.A.h.'?..A.
   18a04:	3f27ce61 bf4154e1 3f281a40 bf4112ec     a.'?.TA.@.(?..A.
   18a14:	3f286605 bf40d0da 3f28b1b0 bf408ea9     .f(?..@...(?..@.
   18a24:	3f28fd41 bf404c5c 3f2948b8 bf4009f0     A.(?\L@..H)?..@.
   18a34:	3f299415 bf3fc767 3f29df57 bf3f84c0     ..)?g.?.W.)?..?.
   18a44:	3f2a2a80 bf3f41fc 3f2a758e bf3eff1b     .**?.A?..u*?..>.
   18a54:	3f2ac082 bf3ebc1b 3f2b0b5b bf3e78ff     ..*?..>.[.+?.x>.
   18a64:	3f2b561b bf3e35c5 3f2ba0bf bf3df26e     .V+?.5>...+?n.=.
   18a74:	3f2beb4a bf3daef9 3f2c35b9 bf3d6b67     J.+?..=..5,?gk=.
   18a84:	3f2c800f bf3d27b8 3f2cca49 bf3ce3ec     ..,?.'=.I.,?..<.
   18a94:	3f2d1469 bf3ca003 3f2d5e6f bf3c5bfc     i.-?..<.o^-?.[<.
   18aa4:	3f2da859 bf3c17d9 3f2df229 bf3bd398     Y.-?..<.).-?..;.
   18ab4:	3f2e3bde bf3b8f3b 3f2e8578 bf3b4ac1     .;.?;.;.x..?.J;.
   18ac4:	3f2ecef7 bf3b0629 3f2f185b bf3ac175     ...?).;.[./?u.:.
   18ad4:	3f2f61a5 bf3a7ca4 3f2faad3 bf3a37b7     .a/?.|:.../?.7:.
   18ae4:	3f2ff3e6 bf39f2ac 3f303cde bf39ad85     ../?..9..<0?..9.
   18af4:	3f3085bb bf396842 3f30ce7c bf3922e1     ..0?Bh9.|.0?."9.
   18b04:	3f311722 bf38dd65 3f315fad bf3897cb     ".1?e.8.._1?..8.
   18b14:	3f31a81d bf385216 3f31f071 bf380c43     ..1?.R8.q.1?C.8.
   18b24:	3f3238aa bf37c655 3f3280c7 bf37804a     .82?U.7...2?J.7.
   18b34:	3f32c8c9 bf373a23 3f3310af bf36f3df     ..2?#:7...3?..6.
   18b44:	3f33587a bf36ad7f 3f33a029 bf366704     zX3?..6.).3?.g6.
   18b54:	3f33e7bc bf36206c 3f342f34 bf35d9b8     ..3?l 6.4/4?..5.
   18b64:	3f34768f bf3592e7 3f34bdcf bf354bfb     .v4?..5...4?.K5.
   18b74:	3f3504f3 bf3504f3 3f354bfb bf34bdcf     ..5?..5..K5?..4.
   18b84:	3f3592e7 bf34768f 3f35d9b8 bf342f34     ..5?.v4...5?4/4.
   18b94:	3f36206c bf33e7bc 3f366704 bf33a029     l 6?..3..g6?).3.
   18ba4:	3f36ad7f bf33587a 3f36f3df bf3310af     ..6?zX3...6?..3.
   18bb4:	3f373a23 bf32c8c9 3f37804a bf3280c7     #:7?..2.J.7?..2.
   18bc4:	3f37c655 bf3238aa 3f380c43 bf31f071     U.7?.82.C.8?q.1.
   18bd4:	3f385216 bf31a81d 3f3897cb bf315fad     .R8?..1...8?._1.
   18be4:	3f38dd65 bf311722 3f3922e1 bf30ce7c     e.8?".1.."9?|.0.
   18bf4:	3f396842 bf3085bb 3f39ad85 bf303cde     Bh9?..0...9?.<0.
   18c04:	3f39f2ac bf2ff3e6 3f3a37b7 bf2faad3     ..9?../..7:?../.
   18c14:	3f3a7ca4 bf2f61a5 3f3ac175 bf2f185b     .|:?.a/.u.:?[./.
   18c24:	3f3b0629 bf2ecef7 3f3b4ac1 bf2e8578     ).;?.....J;?x...
   18c34:	3f3b8f3b bf2e3bde 3f3bd398 bf2df229     ;.;?.;....;?).-.
   18c44:	3f3c17d9 bf2da859 3f3c5bfc bf2d5e6f     ..<?Y.-..[<?o^-.
   18c54:	3f3ca003 bf2d1469 3f3ce3ec bf2cca49     ..<?i.-...<?I.,.
   18c64:	3f3d27b8 bf2c800f 3f3d6b67 bf2c35b9     .'=?..,.gk=?.5,.
   18c74:	3f3daef9 bf2beb4a 3f3df26e bf2ba0bf     ..=?J.+.n.=?..+.
   18c84:	3f3e35c5 bf2b561b 3f3e78ff bf2b0b5b     .5>?.V+..x>?[.+.
   18c94:	3f3ebc1b bf2ac082 3f3eff1b bf2a758e     ..>?..*...>?.u*.
   18ca4:	3f3f41fc bf2a2a80 3f3f84c0 bf29df57     .A??.**...??W.).
   18cb4:	3f3fc767 bf299415 3f4009f0 bf2948b8     g.??..)...@?.H).
   18cc4:	3f404c5c bf28fd41 3f408ea9 bf28b1b0     \L@?A.(...@?..(.
   18cd4:	3f40d0da bf286605 3f4112ec bf281a40     ..@?.f(...A?@.(.
   18ce4:	3f4154e1 bf27ce61 3f4196b7 bf278268     .TA?a.'...A?h.'.
   18cf4:	3f41d870 bf273656 3f421a0b bf26ea2a     p.A?V6'...B?*.&.
   18d04:	3f425b89 bf269de3 3f429ce8 bf265184     .[B?..&...B?.Q&.
   18d14:	3f42de29 bf26050a 3f431f4c bf25b877     ).B?..&.L.C?w.%.
   18d24:	3f436051 bf256bcb 3f43a138 bf251f04     Q`C?.k%.8.C?..%.
   18d34:	3f43e200 bf24d225 3f4422ab bf24852c     ..C?%.$.."D?,.$.
   18d44:	3f446337 bf24381a 3f44a3a5 bf23eaee     7cD?.8$...D?..#.
   18d54:	3f44e3f5 bf239da9 3f452426 bf23504b     ..D?..#.&$E?KP#.
   18d64:	3f456439 bf2302d3 3f45a42d bf22b543     9dE?..#.-.E?C.".
   18d74:	3f45e403 bf226799 3f4623bb bf2219d7     ..E?.g"..#F?..".
   18d84:	3f466354 bf21cbfb 3f46a2ce bf217e06     TcF?..!...F?.~!.
   18d94:	3f46e22a bf212ff9 3f472167 bf20e1d2     *.F?./!.g!G?.. .
   18da4:	3f476085 bf209393 3f479f84 bf20453b     .`G?.. ...G?;E .
   18db4:	3f47de65 bf1ff6cb 3f481d27 bf1fa841     e.G?....'.H?A...
   18dc4:	3f485bca bf1f599f 3f489a4e bf1f0ae5     .[H?.Y..N.H?....
   18dd4:	3f48d8b3 bf1ebc12 3f4916fa bf1e6d26     ..H?......I?&m..
   18de4:	3f495521 bf1e1e22 3f499329 bf1dcf06     !UI?"...).I?....
   18df4:	3f49d112 bf1d7fd1 3f4a0edc bf1d3084     ..I?......J?.0..
   18e04:	3f4a4c87 bf1ce11f 3f4a8a13 bf1c91a2     .LJ?......J?....
   18e14:	3f4ac77f bf1c420c 3f4b04cc bf1bf25f     ..J?.B....K?_...
   18e24:	3f4b41fa bf1ba299 3f4b7f09 bf1b52bb     .AK?......K?.R..
   18e34:	3f4bbbf8 bf1b02c6 3f4bf8c7 bf1ab2b8     ..K?......K?....
   18e44:	3f4c3578 bf1a6293 3f4c7208 bf1a1255     x5L?.b...rL?U...
   18e54:	3f4cae79 bf19c200 3f4ceacb bf197194     y.L?......L?.q..
   18e64:	3f4d26fd bf19210f 3f4d6310 bf18d073     .&M?.!...cM?s...
   18e74:	3f4d9f02 bf187fc0 3f4ddad5 bf182ef5     ..M?......M?....
   18e84:	3f4e1689 bf17de12 3f4e521c bf178d18     ..N?.....RN?....
   18e94:	3f4e8d90 bf173c07 3f4ec8e4 bf16eadf     ..N?.<....N?....
   18ea4:	3f4f0417 bf16999f 3f4f3f2b bf164847     ..O?....+?O?GH..
   18eb4:	3f4f7a1f bf15f6d9 3f4fb4f4 bf15a554     .zO?......O?T...
   18ec4:	3f4fefa8 bf1553b7 3f502a3b bf150204     ..O?.S..;*P?....
   18ed4:	3f5064af bf14b039 3f509f03 bf145e58     .dP?9.....P?X^..
   18ee4:	3f50d937 bf140c5f 3f51134a bf13ba50     7.P?_...J.Q?P...
   18ef4:	3f514d3d bf13682a 3f518710 bf1315ee     =MQ?*h....Q?....
   18f04:	3f51c0c2 bf12c39a 3f51fa54 bf127130     ..Q?....T.Q?0q..
   18f14:	3f5233c6 bf121eb0 3f526d18 bf11cc19     .3R?.....mR?....
   18f24:	3f52a649 bf11796b 3f52df59 bf1126a7     I.R?ky..Y.R?.&..
   18f34:	3f531849 bf10d3cd 3f535118 bf1080dc     I.S?.....QS?....
   18f44:	3f5389c7 bf102dd5 3f53c255 bf0fdab8     ..S?.-..U.S?....
   18f54:	3f53fac3 bf0f8784 3f54330f bf0f343b     ..S?.....3T?;4..
   18f64:	3f546b3b bf0ee0db 3f54a347 bf0e8d65     ;kT?....G.T?e...
   18f74:	3f54db31 bf0e39da 3f5512fb bf0de638     1.T?.9....U?8...
   18f84:	3f554aa4 bf0d9281 3f55822c bf0d3eb3     .JU?....,.U?.>..
   18f94:	3f55b993 bf0cead0 3f55f0d9 bf0c96d7     ..U?......U?....
   18fa4:	3f5627fe bf0c42c9 3f565f02 bf0beea5     .'V?.B..._V?....
   18fb4:	3f5695e5 bf0b9a6b 3f56cca7 bf0b461c     ..V?k.....V?.F..
   18fc4:	3f570348 bf0af1b7 3f5739c7 bf0a9d3d     H.W?.....9W?=...
   18fd4:	3f577026 bf0a48ad 3f57a663 bf09f409     &pW?.H..c.W?....
   18fe4:	3f57dc7f bf099f4e 3f581279 bf094a7f     ..W?N...y.X?.J..
   18ff4:	3f584853 bf08f59b 3f587e0b bf08a0a1     SHX?.....~X?....
   19004:	3f58b3a1 bf084b92 3f58e917 bf07f66f     ..X?.K....X?o...
   19014:	3f591e6a bf07a136 3f59539c bf074be8     j.Y?6....SY?.K..
   19024:	3f5988ad bf06f686 3f59bd9c bf06a10e     ..Y?......Y?....
   19034:	3f59f26a bf064b82 3f5a2716 bf05f5e2     j.Y?.K...'Z?....
   19044:	3f5a5ba0 bf05a02c 3f5a9009 bf054a62     .[Z?,.....Z?bJ..
   19054:	3f5ac450 bf04f484 3f5af875 bf049e91     P.Z?....u.Z?....
   19064:	3f5b2c79 bf044889 3f5b605a bf03f26d     y,[?.H..Z`[?m...
   19074:	3f5b941a bf039c3d 3f5bc7b8 bf0345f8     ..[?=.....[?.E..
   19084:	3f5bfb34 bf02ef9f 3f5c2e8e bf029932     4.[?......\?2...
   19094:	3f5c61c7 bf0242b1 3f5c94dd bf01ec1c     .a\?.B....\?....
   190a4:	3f5cc7d1 bf019573 3f5cfaa3 bf013eb5     ..\?s.....\?.>..
   190b4:	3f5d2d53 bf00e7e4 3f5d5fe1 bf0090ff     S-]?....._]?....
   190c4:	3f5d924d bf003a06 3f5dc497 beffc5f3     M.]?.:....]?....
   190d4:	3f5df6be beff17b2 3f5e28c3 befe694a     ..]?.....(^?Ji..
   190e4:	3f5e5aa6 befdbabb 3f5e8c67 befd0c04     .Z^?....g.^?....
   190f4:	3f5ebe05 befc5d27 3f5eef81 befbae22     ..^?']....^?"...
   19104:	3f5f20db befafef7 3f5f5212 befa4fa5     . _?.....R_?.O..
   19114:	3f5f8327 bef9a02d 3f5fb419 bef8f08e     '._?-....._?....
   19124:	3f5fe4e9 bef840c8 3f601596 bef790dc     .._?.@....`?....
   19134:	3f604621 bef6e0cb 3f607689 bef63093     !F`?.....v`?.0..
   19144:	3f60a6cf bef58035 3f60d6f2 bef4cfb1     ..`?5.....`?....
   19154:	3f6106f2 bef41f07 3f6136d0 bef36e38     ..a?.....6a?8n..
   19164:	3f61668a bef2bd43 3f619622 bef20c29     .fa?C...".a?)...
   19174:	3f61c598 bef15aea 3f61f4ea bef0a985     ..a?.Z....a?....
   19184:	3f62241a beeff7fb 3f625326 beef464c     .$b?....&Sb?LF..
   19194:	3f628210 beee9479 3f62b0d7 beede280     ..b?y.....b?....
   191a4:	3f62df7b beed3063 3f630dfc beec7e21     {.b?c0....c?!~..
   191b4:	3f633c5a beebcbbb 3f636a95 beeb1930     Z<c?.....jc?0...
   191c4:	3f6398ac beea6681 3f63c6a1 bee9b3ae     ..c?.f....c?....
   191d4:	3f63f473 bee900b7 3f642221 bee84d9c     s.c?....!"d?.M..
   191e4:	3f644fac bee79a5d 3f647d14 bee6e6fb     .Od?]....}d?....
   191f4:	3f64aa59 bee63375 3f64d77b bee57fcb     Y.d?u3..{.d?....
   19204:	3f650479 bee4cbfe 3f653154 bee4180e     y.e?....T1e?....
   19214:	3f655e0b bee363fa 3f658aa0 bee2afc4     .^e?.c....e?....
   19224:	3f65b710 bee1fb6a 3f65e35e bee146ee     ..e?j...^.e?.F..
   19234:	3f660f88 bee0924f 3f663b8e bedfdd8d     ..f?O....;f?....
   19244:	3f666771 bedf28a9 3f669330 bede73a2     qgf?.(..0.f?.s..
   19254:	3f66becc beddbe79 3f66ea45 bedd092e     ..f?y...E.f?....
   19264:	3f671599 bedc53c1 3f6740ca bedb9e31     ..g?.S...@g?1...
   19274:	3f676bd8 bedae880 3f6796c1 beda32ad     .kg?......g?.2..
   19284:	3f67c187 bed97cb9 3f67ec2a bed8c6a3     ..g?.|..*.g?....
   19294:	3f6816a8 bed8106b 3f684103 bed75a13     ..h?k....Ah?.Z..
   192a4:	3f686b39 bed6a399 3f68954c bed5ecfd     9kh?....L.h?....
   192b4:	3f68bf3c bed53641 3f68e907 bed47f64     <.h?A6....h?d...
   192c4:	3f6912ae bed3c867 3f693c32 bed31148     ..i?g...2<i?H...
   192d4:	3f696591 bed25a09 3f698ecc bed1a2aa     .ei?.Z....i?....
   192e4:	3f69b7e4 bed0eb2a 3f69e0d7 bed0338a     ..i?*.....i?.3..
   192f4:	3f6a09a7 becf7bca 3f6a3252 becec3ea     ..j?.{..R2j?....
   19304:	3f6a5ad9 bece0bea 3f6a833c becd53ca     .Zj?....<.j?.S..
   19314:	3f6aab7b becc9b8b 3f6ad395 becbe32c     {.j?......j?,...
   19324:	3f6afb8c becb2aae 3f6b235e beca7210     ..j?.*..^#k?.r..
   19334:	3f6b4b0c bec9b953 3f6b7295 bec90077     .Kk?S....rk?w...
   19344:	3f6b99fb bec8477c 3f6bc13b bec78e62     ..k?|G..;.k?b...
   19354:	3f6be858 bec6d529 3f6c0f50 bec61bd2     X.k?)...P.l?....
   19364:	3f6c3624 bec5625c 3f6c5cd4 bec4a8c8     $6l?\b...\l?....
   19374:	3f6c835e bec3ef15 3f6ca9c5 bec33544     ^.l?......l?D5..
   19384:	3f6cd007 bec27b55 3f6cf624 bec1c148     ..l?U{..$.l?H...
   19394:	3f6d1c1d bec1071e 3f6d41f2 bec04cd5     ..m?.....Am?.L..
   193a4:	3f6d67a1 bebf926f 3f6d8d2d bebed7eb     .gm?o...-.m?....
   193b4:	3f6db293 bebe1d4a 3f6dd7d5 bebd628b     ..m?J.....m?.b..
   193c4:	3f6dfcf2 bebca7af 3f6e21eb bebbecb6     ..m?.....!n?....
   193d4:	3f6e46be bebb31a0 3f6e6b6d beba766e     .Fn?.1..mkn?nv..
   193e4:	3f6e8ff8 beb9bb1e 3f6eb45d beb8ffb2     ..n?....].n?....
   193f4:	3f6ed89e beb8442a 3f6efcba beb78884     ..n?*D....n?....
   19404:	3f6f20b0 beb6ccc3 3f6f4483 beb610e6     . o?.....Do?....
   19414:	3f6f6830 beb554ec 3f6f8bb8 beb498d6     0ho?.T....o?....
   19424:	3f6faf1b beb3dca5 3f6fd25a beb32058     ..o?....Z.o?X ..
   19434:	3f6ff573 beb263ef 3f701867 beb1a76b     s.o?.c..g.p?k...
   19444:	3f703b37 beb0eacb 3f705de1 beb02e10     7;p?.....]p?....
   19454:	3f708066 beaf713a 3f70a2c6 beaeb449     f.p?:q....p?I...
   19464:	3f70c502 beadf73c 3f70e717 bead3a15     ..p?<.....p?.:..
   19474:	3f710908 beac7cd4 3f712ad4 beabbf77     ..q?.|...*q?w...
   19484:	3f714c7a beab0201 3f716dfb beaa446f     zLq?.....mq?oD..
   19494:	3f718f57 bea986c4 3f71b08e bea8c8fe     W.q?......q?....
   194a4:	3f71d19f bea80b1f 3f71f28c bea74d25     ..q?......q?%M..
   194b4:	3f721352 bea68f12 3f7233f4 bea5d0e5     R.r?.....3r?....
   194c4:	3f725470 bea5129f 3f7274c7 bea4543f     pTr?.....tr??T..
   194d4:	3f7294f8 bea395c5 3f72b504 bea2d733     ..r?......r?3...
   194e4:	3f72d4eb bea21887 3f72f4ac bea159c2     ..r?......r?.Y..
   194f4:	3f731447 bea09ae5 3f7333be be9fdbee     G.s?.....3s?....
   19504:	3f73530e be9f1cdf 3f737239 be9e5db8     .Ss?....9rs?.]..
   19514:	3f73913f be9d9e78 3f73b01f be9cdf20     ?.s?x.....s? ...
   19524:	3f73ced9 be9c1faf 3f73ed6e be9b6027     ..s?....n.s?'`..
   19534:	3f740bdd be9aa086 3f742a27 be99e0ce     ..t?....'*t?....
   19544:	3f74484b be9920fe 3f746649 be986116     KHt?. ..Ift?.a..
   19554:	3f748422 be97a117 3f74a1d5 be96e100     ".t?......t?....
   19564:	3f74bf62 be9620d2 3f74dcc9 be95608d     b.t?. ....t?.`..
   19574:	3f74fa0b be94a031 3f751727 be93dfbf     ..t?1...'.u?....
   19584:	3f75341d be931f35 3f7550ed be925e94     .4u?5....Pu?.^..
   19594:	3f756d97 be919ddd 3f758a1c be90dd10     .mu?......u?....
   195a4:	3f75a67b be901c2c 3f75c2b3 be8f5b32     {.u?,.....u?2[..
   195b4:	3f75dec6 be8e9a22 3f75fab3 be8dd8fc     ..u?".....u?....
   195c4:	3f76167a be8d17c0 3f76321b be8c566e     z.v?.....2v?nV..
   195d4:	3f764d97 be8b9507 3f7668ec be8ad38a     .Mv?.....hv?....
   195e4:	3f76841b be8a11f8 3f769f24 be895050     ..v?....$.v?PP..
   195f4:	3f76ba07 be888e93 3f76d4c4 be87ccc1     ..v?......v?....
   19604:	3f76ef5b be870ada 3f7709cc be8648df     [.v?......w?.H..
   19614:	3f772417 be8586ce 3f773e3c be84c4aa     .$w?....<>w?....
   19624:	3f77583a be840270 3f777213 be834022     :Xw?p....rw?"@..
   19634:	3f778bc5 be827dc0 3f77a551 be81bb4a     ..w?.}..Q.w?J...
   19644:	3f77beb7 be80f8c0 3f77d7f7 be803622     ..w?......w?"6..
   19654:	3f77f110 be7ee6e1 3f780a04 be7d6156     ..w?..~...x?Va}.
   19664:	3f7822d1 be7bdba4 3f783b77 be7a55cb     ."x?..{.w;x?.Uz.
   19674:	3f7853f8 be78cfcc 3f786c52 be7749a6     .Sx?..x.Rlx?.Iw.
   19684:	3f788486 be75c35a 3f789c93 be743ce8     ..x?Z.u...x?.<t.
   19694:	3f78b47b be72b651 3f78cc3b be712f94     {.x?Q.r.;.x?./q.
   196a4:	3f78e3d6 be6fa8b2 3f78fb4a be6e21ab     ..x?..o.J.x?.!n.
   196b4:	3f791298 be6c9a7f 3f7929bf be6b132f     ..y?..l..)y?/.k.
   196c4:	3f7940c0 be698bba 3f79579a be680422     .@y?..i..Wy?".h.
   196d4:	3f796e4e be667c66 3f7984dc be64f486     Nny?f|f...y?..d.
   196e4:	3f799b43 be636c83 3f79b183 be61e45c     C.y?.lc...y?\.a.
   196f4:	3f79c79d be605c13 3f79dd91 be5ed3a8     ..y?.\`...y?..^.
   19704:	3f79f35e be5d4b1a 3f7a0904 be5bc26a     ^.y?.K]...z?j.[.
   19714:	3f7a1e84 be5a3997 3f7a33dd be58b0a4     ..z?.9Z..3z?..X.
   19724:	3f7a4910 be57278f 3f7a5e1c be559e58     .Iz?.'W..^z?X.U.
   19734:	3f7a7302 be541501 3f7a87c1 be528b89     .sz?..T...z?..R.
   19744:	3f7a9c59 be5101f1 3f7ab0cb be4f7838     Y.z?..Q...z?8xO.
   19754:	3f7ac516 be4dee60 3f7ad93a be4c6467     ..z?`.M.:.z?gdL.
   19764:	3f7aed37 be4ada4f 3f7b010e be495018     7.z?O.J...{?.PI.
   19774:	3f7b14be be47c5c2 3f7b2848 be463b4d     ..{?..G.H({?M;F.
   19784:	3f7b3bab be44b0b9 3f7b4ee7 be432607     .;{?..D..N{?.&C.
   19794:	3f7b61fc be419b37 3f7b74ea be401049     .a{?7.A..t{?I.@.
   197a4:	3f7b87b2 be3e853e 3f7b9a53 be3cfa15     ..{?>.>.S.{?..<.
   197b4:	3f7baccd be3b6ecf 3f7bbf20 be39e36c     ..{?.n;. .{?l.9.
   197c4:	3f7bd14d be3857ec 3f7be353 be36cc50     M.{?.W8.S.{?P.6.
   197d4:	3f7bf531 be354098 3f7c06e9 be33b4c4     1.{?.@5...|?..3.
   197e4:	3f7c187a be3228d4 3f7c29e5 be309cc9     z.|?.(2..)|?..0.
   197f4:	3f7c3b28 be2f10a2 3f7c4c44 be2d8461     (;|?../.DL|?a.-.
   19804:	3f7c5d3a be2bf804 3f7c6e08 be2a6b8d     :]|?..+..n|?.k*.
   19814:	3f7c7eb0 be28defc 3f7c8f31 be275251     .~|?..(.1.|?QR'.
   19824:	3f7c9f8a be25c58c 3f7cafbd be2438ad     ..|?..%...|?.8$.
   19834:	3f7cbfc9 be22abb6 3f7ccfae be211ea5     ..|?.."...|?..!.
   19844:	3f7cdf6c be1f917b 3f7cef03 be1e0438     l.|?{.....|?8...
   19854:	3f7cfe73 be1c76de 3f7d0dbc be1ae96b     s.|?.v....}?k...
   19864:	3f7d1cdd be195be0 3f7d2bd8 be17ce3d     ..}?.[...+}?=...
   19874:	3f7d3aac be164083 3f7d4959 be14b2b2     .:}?.@..YI}?....
   19884:	3f7d57de be1324ca 3f7d663d be1196cc     .W}?.$..=f}?....
   19894:	3f7d7474 be1008b7 3f7d8285 be0e7a8b     tt}?......}?.z..
   198a4:	3f7d906e be0cec4a 3f7d9e30 be0b5df3     n.}?J...0.}?.]..
   198b4:	3f7dabcc be09cf86 3f7db940 be084105     ..}?....@.}?.A..
   198c4:	3f7dc68c be06b26e 3f7dd3b2 be0523c2     ..}?n.....}?.#..
   198d4:	3f7de0b1 be039502 3f7ded88 be02062e     ..}?......}?....
   198e4:	3f7dfa38 be007745 3f7e06c2 bdfdd092     8.}?Ew....~?....
   198f4:	3f7e1324 bdfab273 3f7e1f5e bdf7942c     $.~?s...^.~?,...
   19904:	3f7e2b72 bdf475c0 3f7e375e bdf1572e     r+~?.u..^7~?.W..
   19914:	3f7e4323 bdee3876 3f7e4ec1 bdeb199a     #C~?v8...N~?....
   19924:	3f7e5a38 bde7fa9a 3f7e6588 bde4db76     8Z~?.....e~?v...
   19934:	3f7e70b0 bde1bc2e 3f7e7bb1 bdde9cc4     .p~?.....{~?....
   19944:	3f7e868b bddb7d37 3f7e913d bdd85d89     ..~?7}..=.~?.]..
   19954:	3f7e9bc9 bdd53db9 3f7ea62d bdd21dc8     ..~?.=..-.~?....
   19964:	3f7eb069 bdcefdb7 3f7eba7f bdcbdd86     i.~?......~?....
   19974:	3f7ec46d bdc8bd36 3f7ece34 bdc59cc6     m.~?6...4.~?....
   19984:	3f7ed7d4 bdc27c39 3f7ee14c bdbf5b8d     ..~?9|..L.~?.[..
   19994:	3f7eea9d bdbc3ac3 3f7ef3c7 bdb919dd     ..~?.:....~?....
   199a4:	3f7efcc9 bdb5f8da 3f7f05a4 bdb2d7bb     ..~?.......?....
   199b4:	3f7f0e58 bdafb680 3f7f16e4 bdac952b     X..?.......?+...
   199c4:	3f7f1f49 bda973ba 3f7f2787 bda65230     I..?.s...'.?0R..
   199d4:	3f7f2f9d bda3308c 3f7f378d bda00ecf     ./.?.0...7.?....
   199e4:	3f7f3f54 bd9cecf9 3f7f46f4 bd99cb0a     T?.?.....F.?....
   199f4:	3f7f4e6d bd96a905 3f7f55bf bd9386e7     mN.?.....U.?....
   19a04:	3f7f5ce9 bd9064b4 3f7f63ec bd8d426a     .\.?.d...c.?jB..
   19a14:	3f7f6ac7 bd8a200a 3f7f717b bd86fd94     .j.?. ..{q.?....
   19a24:	3f7f7808 bd83db0a 3f7f7e6d bd80b86c     .x.?....m~.?l...
   19a34:	3f7f84ab bd7b2b74 3f7f8ac2 bd74e5e9     ...?t+{....?..t.
   19a44:	3f7f90b1 bd6ea038 3f7f9678 bd685a62     ...?8.n.x..?bZh.
   19a54:	3f7f9c18 bd621468 3f7fa191 bd5bce4c     ...?h.b....?L.[.
   19a64:	3f7fa6e3 bd55880e 3f7fac0d bd4f41af     ...?..U....?.AO.
   19a74:	3f7fb10f bd48fb2f 3f7fb5ea bd42b491     ...?/.H....?..B.
   19a84:	3f7fba9e bd3c6dd5 3f7fbf2a bd3626fc     ...?.m<.*..?.&6.
   19a94:	3f7fc38f bd2fe007 3f7fc7cc bd2998f6     ...?../....?..).
   19aa4:	3f7fcbe2 bd2351cc 3f7fcfd1 bd1d0a88     ...?.Q#....?....
   19ab4:	3f7fd398 bd16c32c 3f7fd737 bd107bb8     ...?,...7..?.{..
   19ac4:	3f7fdaaf bd0a342f 3f7fde00 bd03ec90     ...?/4.....?....
   19ad4:	3f7fe129 bcfb49b9 3f7fe42b bceeba2d     )..?.I..+..?-...
   19ae4:	3f7fe705 bce22a7b 3f7fe9b8 bcd59aa6     ...?{*.....?....
   19af4:	3f7fec43 bcc90ab0 3f7feea7 bcbc7a9b     C..?.......?.z..
   19b04:	3f7ff0e3 bcafea69 3f7ff2f8 bca35a1c     ...?i......?.Z..
   19b14:	3f7ff4e6 bc96c9b6 3f7ff6ac bc8a3938     ...?.......?89..
   19b24:	3f7ff84a bc7b514b 3f7ff9c1 bc623000     J..?KQ{....?.0b.
   19b34:	3f7ffb11 bc490e90 3f7ffc39 bc2fed02     ...?..I.9..?../.
   19b44:	3f7ffd39 bc16cb59 3f7ffe13 bbfb5330     9..?Y......?0S..
   19b54:	3f7ffec4 bbc90f89 3f7fff4e bb96cbc1     ...?....N..?....
   19b64:	3f7fffb1 bb490fc7 3f7fffec bac90fd4     ...?..I....?....

00019b74 <armBitRevIndexTable16>:
   19b74:	00400008 00480018 00400010 00500028     ..@...H...@.(.P.
   19b84:	00400020 00580038 00480030 00680058      .@.8.X.0.H.X.h.
   19b94:	00600048 00700068                       H.`.h.p.

00019b9c <armBitRevIndexTable32>:
   19b9c:	00400008 00800010 00c00018 00400020     ..@......... .@.
   19bac:	00480028 00880030 00c80038 00800040     (.H.0...8...@...
   19bbc:	00500048 00d00058 00900050 00c00060     H.P.X...P...`...
   19bcc:	00d00068 00980070 00d80078 00c00088     h...p...x.......
   19bdc:	00a00090 00d000a8 00e00098 00d000b0     ................
   19bec:	00e800b8 00f000d8 00e000c8 00f000e8     ................

00019bfc <armBitRevIndexTable64>:
   19bfc:	00400008 00800010 00c00018 01000020     ..@......... ...
   19c0c:	01400028 01800030 01c00038 00880050     (.@.0...8...P...
   19c1c:	00c80058 01080060 01480068 01880070     X...`...h.H.p...
   19c2c:	01c80078 00d00098 011000a0 015000a8     x.............P.
   19c3c:	019000b0 01d000b8 011800e0 015800e8     ..............X.
   19c4c:	019800f0 01d800f8 01600128 01a00130     ........(.`.0...
   19c5c:	01e00138 01a80170 01e80178 01f001b8     8...p...x.......

00019c6c <armBitRevIndexTable128>:
   19c6c:	02000008 00400010 02400018 00800020     ......@...@. ...
   19c7c:	02800028 00c00030 02c00038 01000040     (...0...8...@...
   19c8c:	03000048 01400050 03400058 01800060     H...P.@.X.@.`...
   19c9c:	03800068 01c00070 03c00078 02000080     h...p...x.......
   19cac:	02080088 03000090 02480098 020800a0     ..........H.....
   19cbc:	028800a8 00c800b0 02c800b8 010800c0     ................
   19ccc:	030800c8 014800d0 034800d8 018800e0     ......H...H.....
   19cdc:	038800e8 01c800f0 03c800f8 02100108     ................
   19cec:	01400110 02500118 03000120 02900128     ..@...P. ...(...
   19cfc:	01480130 02d00138 03100148 03500158     0.H.8...H...X.P.
   19d0c:	01900160 03900168 01d00170 03d00178     `...h...p...x...
   19d1c:	02400180 02180188 03400190 02580198     ..@.......@...X.
   19d2c:	024801a0 029801a8 034801b0 02d801b8     ..H.......H.....
   19d3c:	025001c0 031801c8 035001d0 035801d8     ..P.......P...X.
   19d4c:	025801e0 039801e8 035801f0 03d801f8     ..X.......X.....
   19d5c:	02200208 02400210 02600218 02a00228     .. ...@...`.(...
   19d6c:	02600230 02e00238 03000240 03200248     0.`.8...@...H. .
   19d7c:	03400250 03600258 03200260 03a00268     P.@.X.`.`. .h...
   19d8c:	03600270 03e00278 02a00288 03800290     p.`.x...........
   19d9c:	03a00298 038802b0 02e802b8 038002c0     ................
   19dac:	032802c8 039002d0 036802d8 03a002e0     ..(.......h.....
   19dbc:	03a802e8 039802f0 03e802f8 03200308     .............. .
   19dcc:	03400310 03600318 03880328 03600330     ..@...`.(...0.`.
   19ddc:	03980338 03600348 03700358 03b00368     8...H.`.X.p.h...
   19dec:	03f00378 03a00388 03c00390 03e00398     x...............
   19dfc:	03c803b0 03e803b8 03e003c8 03f003d8     ................

00019e0c <armBitRevIndexTable256>:
   19e0c:	02000008 04000010 06000018 00400020     ............ .@.
   19e1c:	02400028 04400030 06400038 00800040     (.@.0.@.8.@.@...
   19e2c:	02800048 04800050 06800058 00c00060     H...P...X...`...
   19e3c:	02c00068 04c00070 06c00078 01000080     h...p...x.......
   19e4c:	03000088 05000090 07000098 014000a0     ..............@.
   19e5c:	034000a8 054000b0 074000b8 018000c0     ..@...@...@.....
   19e6c:	038000c8 058000d0 078000d8 01c000e0     ................
   19e7c:	03c000e8 05c000f0 07c000f8 02000100     ................
   19e8c:	02080108 04080110 06080118 02800120     ............ ...
   19e9c:	02480128 04480130 06480138 03000140     (.H.0.H.8.H.@...
   19eac:	02880148 04880150 06880158 03800160     H...P...X...`...
   19ebc:	02c80168 04c80170 06c80178 02080180     h...p...x.......
   19ecc:	03080188 05080190 07080198 028801a0     ................
   19edc:	034801a8 054801b0 074801b8 030801c0     ..H...H...H.....
   19eec:	038801c8 058801d0 078801d8 038801e0     ................
   19efc:	03c801e8 05c801f0 07c801f8 02100208     ................
   19f0c:	04000200 04100210 06100218 04800220     ............ ...
   19f1c:	02500228 04500230 06500238 05000240     (.P.0.P.8.P.@...
   19f2c:	02900248 04900250 06900258 05800260     H...P...X...`...
   19f3c:	02d00268 04d00270 06d00278 04080280     h...p...x.......
   19f4c:	03100288 05100290 07100298 048802a0     ................
   19f5c:	035002a8 055002b0 075002b8 050802c0     ..P...P...P.....
   19f6c:	039002c8 059002d0 079002d8 058802e0     ................
   19f7c:	03d002e8 05d002f0 07d002f8 06000300     ................
   19f8c:	06100308 04180310 06180318 06800320     ............ ...
   19f9c:	06900328 04580330 06580338 07000340     (...0.X.8.X.@...
   19fac:	07100348 04980350 06980358 07800360     H...P...X...`...
   19fbc:	07900368 04d80370 06d80378 06080380     h...p...x.......
   19fcc:	06180388 05180390 07180398 068803a0     ................
   19fdc:	069803a8 055803b0 075803b8 070803c0     ......X...X.....
   19fec:	071803c8 059803d0 079803d8 078803e0     ................
   19ffc:	079803e8 05d803f0 07d803f8 04800408     ................
   1a00c:	04200410 06200418 05800428 04600430     .. ... .(...0.`.
   1a01c:	06600438 06000440 04880448 04a00450     8.`.@...H...P...
   1a02c:	06a00458 06100460 05880468 04e00470     X...`...h...p...
   1a03c:	06e00478 06800488 05200490 07200498     x......... ... .
   1a04c:	060804a0 078004a8 056004b0 076004b8     ..........`...`.
   1a05c:	062004c0 068804c8 05a004d0 07a004d8     .. .............
   1a06c:	061804e0 078804e8 05e004f0 07e004f8     ................
   1a07c:	05200508 05800510 06280518 05900528     .. .......(.(...
   1a08c:	05880530 06680538 07000540 07200548     0...8.h.@...H. .
   1a09c:	07800550 06a80558 07080560 05980568     P...X...`...h...
   1a0ac:	07880570 06e80578 06900588 07280598     p...x.........(.
   1a0bc:	062805a0 079005a8 072805b0 076805b8     ..(.......(...h.
   1a0cc:	071005c0 069805c8 079005d0 07a805d8     ................
   1a0dc:	071805e0 079805e8 079805f0 07e805f8     ................
   1a0ec:	06300618 06700638 07000640 07800648     ..0.8.p.@...H...
   1a0fc:	07080650 06b00658 07100660 07900668     P...X...`...h...
   1a10c:	07180670 06f00678 06a00688 07300698     p...x.........0.
   1a11c:	07a006a8 078806b0 077006b8 072006c0     ..........p... .
   1a12c:	07a006c8 072806d0 07b006d8 073006e0     ......(.......0.
   1a13c:	07a806e8 079806f0 07f006f8 07500748     ............H.P.
   1a14c:	07980738 07600750 07700758 07c00760     8...P.`.X.p.`...
   1a15c:	07d00768 07f00778 07e00770 07f007b8     h...x...p.......
   1a16c:	07b007a8 07f007d8 07e007c8 07f007e8     ................

0001a17c <armBitRevIndexTable512>:
   1a17c:	02000008 04000010 06000018 08000020     ............ ...
   1a18c:	0a000028 0c000030 0e000038 02400048     (...0...8...H.@.
   1a19c:	04400050 06400058 08400060 0a400068     P.@.X.@.`.@.h.@.
   1a1ac:	0c400070 0e400078 02800088 04800090     p.@.x.@.........
   1a1bc:	06800098 088000a0 0a8000a8 0c8000b0     ................
   1a1cc:	0e8000b8 02c000c8 04c000d0 06c000d8     ................
   1a1dc:	08c000e0 0ac000e8 0cc000f0 0ec000f8     ................
   1a1ec:	03000108 05000110 07000118 09000120     ............ ...
   1a1fc:	0b000128 0d000130 0f000138 03400148     (...0...8...H.@.
   1a20c:	05400150 07400158 09400160 0b400168     P.@.X.@.`.@.h.@.
   1a21c:	0d400170 0f400178 03800188 05800190     p.@.x.@.........
   1a22c:	07800198 098001a0 0b8001a8 0d8001b0     ................
   1a23c:	0f8001b8 03c001c8 05c001d0 07c001d8     ................
   1a24c:	09c001e0 0bc001e8 0dc001f0 0fc001f8     ................
   1a25c:	04080210 06080218 08080220 0a080228     ........ ...(...
   1a26c:	0c080230 0e080238 04480250 06480258     0...8...P.H.X.H.
   1a27c:	08480260 0a480268 0c480270 0e480278     `.H.h.H.p.H.x.H.
   1a28c:	04880290 06880298 088802a0 0a8802a8     ................
   1a29c:	0c8802b0 0e8802b8 04c802d0 06c802d8     ................
   1a2ac:	08c802e0 0ac802e8 0cc802f0 0ec802f8     ................
   1a2bc:	05080310 07080318 09080320 0b080328     ........ ...(...
   1a2cc:	0d080330 0f080338 05480350 07480358     0...8...P.H.X.H.
   1a2dc:	09480360 0b480368 0d480370 0f480378     `.H.h.H.p.H.x.H.
   1a2ec:	05880390 07880398 098803a0 0b8803a8     ................
   1a2fc:	0d8803b0 0f8803b8 05c803d0 07c803d8     ................
   1a30c:	09c803e0 0bc803e8 0dc803f0 0fc803f8     ................
   1a31c:	06100418 08100420 0a100428 0c100430     .... ...(...0...
   1a32c:	0e100438 06500458 08500460 0a500468     8...X.P.`.P.h.P.
   1a33c:	0c500470 0e500478 06900498 089004a0     p.P.x.P.........
   1a34c:	0a9004a8 0c9004b0 0e9004b8 06d004d8     ................
   1a35c:	08d004e0 0ad004e8 0cd004f0 0ed004f8     ................
   1a36c:	07100518 09100520 0b100528 0d100530     .... ...(...0...
   1a37c:	0f100538 07500558 09500560 0b500568     8...X.P.`.P.h.P.
   1a38c:	0d500570 0f500578 07900598 099005a0     p.P.x.P.........
   1a39c:	0b9005a8 0d9005b0 0f9005b8 07d005d8     ................
   1a3ac:	09d005e0 0bd005e8 0dd005f0 0fd005f8     ................
   1a3bc:	08180620 0a180628 0c180630 0e180638      ...(...0...8...
   1a3cc:	08580660 0a580668 0c580670 0e580678     `.X.h.X.p.X.x.X.
   1a3dc:	089806a0 0a9806a8 0c9806b0 0e9806b8     ................
   1a3ec:	08d806e0 0ad806e8 0cd806f0 0ed806f8     ................
   1a3fc:	09180720 0b180728 0d180730 0f180738      ...(...0...8...
   1a40c:	09580760 0b580768 0d580770 0f580778     `.X.h.X.p.X.x.X.
   1a41c:	099807a0 0b9807a8 0d9807b0 0f9807b8     ................
   1a42c:	09d807e0 0bd807e8 0dd807f0 0fd807f8     ................
   1a43c:	0a200828 0c200830 0e200838 0a600868     (. .0. .8. .h.`.
   1a44c:	0c600870 0e600878 0aa008a8 0ca008b0     p.`.x.`.........
   1a45c:	0ea008b8 0ae008e8 0ce008f0 0ee008f8     ................
   1a46c:	0b200928 0d200930 0f200938 0b600968     (. .0. .8. .h.`.
   1a47c:	0d600970 0f600978 0ba009a8 0da009b0     p.`.x.`.........
   1a48c:	0fa009b8 0be009e8 0de009f0 0fe009f8     ................
   1a49c:	0c280a30 0e280a38 0c680a70 0e680a78     0.(.8.(.p.h.x.h.
   1a4ac:	0ca80ab0 0ea80ab8 0ce80af0 0ee80af8     ................
   1a4bc:	0d280b30 0f280b38 0d680b70 0f680b78     0.(.8.(.p.h.x.h.
   1a4cc:	0da80bb0 0fa80bb8 0de80bf0 0fe80bf8     ................
   1a4dc:	0e300c38 0e700c78 0eb00cb8 0ef00cf8     8.0.x.p.........
   1a4ec:	0f300d38 0f700d78 0fb00db8 0ff00df8     8.0.x.p.........

0001a4fc <armBitRevIndexTable1024>:
   1a4fc:	10000008 02000010 12000018 04000020     ............ ...
   1a50c:	14000028 06000030 16000038 08000040     (...0...8...@...
   1a51c:	18000048 0a000050 1a000058 0c000060     H...P...X...`...
   1a52c:	1c000068 0e000070 1e000078 08000080     h...p...x.......
   1a53c:	10400088 02400090 12400098 044000a0     ..@...@...@...@.
   1a54c:	144000a8 064000b0 164000b8 084000c0     ..@...@...@...@.
   1a55c:	184000c8 0a4000d0 1a4000d8 0c4000e0     ..@...@...@...@.
   1a56c:	1c4000e8 0e4000f0 1e4000f8 08000100     ..@...@...@.....
   1a57c:	10800108 02800110 12800118 04800120     ............ ...
   1a58c:	14800128 06800130 16800138 08800140     (...0...8...@...
   1a59c:	18800148 0a800150 1a800158 0c800160     H...P...X...`...
   1a5ac:	1c800168 0e800170 1e800178 08400180     h...p...x.....@.
   1a5bc:	10c00188 02c00190 12c00198 04c001a0     ................
   1a5cc:	14c001a8 06c001b0 16c001b8 08c001c0     ................
   1a5dc:	18c001c8 0ac001d0 1ac001d8 0cc001e0     ................
   1a5ec:	1cc001e8 0ec001f0 1ec001f8 08000200     ................
   1a5fc:	11000208 03000210 13000218 05000220     ............ ...
   1a60c:	15000228 07000230 17000238 09000240     (...0...8...@...
   1a61c:	19000248 0b000250 1b000258 0d000260     H...P...X...`...
   1a62c:	1d000268 0f000270 1f000278 08800280     h...p...x.......
   1a63c:	11400288 03400290 13400298 054002a0     ..@...@...@...@.
   1a64c:	154002a8 074002b0 174002b8 094002c0     ..@...@...@...@.
   1a65c:	194002c8 0b4002d0 1b4002d8 0d4002e0     ..@...@...@...@.
   1a66c:	1d4002e8 0f4002f0 1f4002f8 08400300     ..@...@...@...@.
   1a67c:	11800308 03800310 13800318 05800320     ............ ...
   1a68c:	15800328 07800330 17800338 09800340     (...0...8...@...
   1a69c:	19800348 0b800350 1b800358 0d800360     H...P...X...`...
   1a6ac:	1d800368 0f800370 1f800378 08c00380     h...p...x.......
   1a6bc:	11c00388 03c00390 13c00398 05c003a0     ................
   1a6cc:	15c003a8 07c003b0 17c003b8 09c003c0     ................
   1a6dc:	19c003c8 0bc003d0 1bc003d8 0dc003e0     ................
   1a6ec:	1dc003e8 0fc003f0 1fc003f8 10000400     ................
   1a6fc:	10080408 11000410 12080418 10080420     ............ ...
   1a70c:	14080428 06080430 16080438 08080440     (...0...8...@...
   1a71c:	18080448 0a080450 1a080458 0c080460     H...P...X...`...
   1a72c:	1c080468 0e080470 1e080478 18000480     h...p...x.......
   1a73c:	10480488 19000490 12480498 180804a0     ..H.......H.....
   1a74c:	144804a8 064804b0 164804b8 084804c0     ..H...H...H...H.
   1a75c:	184804c8 0a4804d0 1a4804d8 0c4804e0     ..H...H...H...H.
   1a76c:	1c4804e8 0e4804f0 1e4804f8 10400500     ..H...H...H...@.
   1a77c:	10880508 11400510 12880518 10480520     ......@..... .H.
   1a78c:	14880528 06880530 16880538 08880540     (...0...8...@...
   1a79c:	18880548 0a880550 1a880558 0c880560     H...P...X...`...
   1a7ac:	1c880568 0e880570 1e880578 18400580     h...p...x.....@.
   1a7bc:	10c80588 19400590 12c80598 184805a0     ......@.......H.
   1a7cc:	14c805a8 06c805b0 16c805b8 08c805c0     ................
   1a7dc:	18c805c8 0ac805d0 1ac805d8 0cc805e0     ................
   1a7ec:	1cc805e8 0ec805f0 1ec805f8 10800600     ................
   1a7fc:	11080608 11800610 13080618 10880620     ............ ...
   1a80c:	15080628 07080630 17080638 09080640     (...0...8...@...
   1a81c:	19080648 0b080650 1b080658 0d080660     H...P...X...`...
   1a82c:	1d080668 0f080670 1f080678 18800680     h...p...x.......
   1a83c:	11480688 19800690 13480698 188806a0     ..H.......H.....
   1a84c:	154806a8 074806b0 174806b8 094806c0     ..H...H...H...H.
   1a85c:	194806c8 0b4806d0 1b4806d8 0d4806e0     ..H...H...H...H.
   1a86c:	1d4806e8 0f4806f0 1f4806f8 10c00700     ..H...H...H.....
   1a87c:	11880708 11c00710 13880718 10c80720     ............ ...
   1a88c:	15880728 07880730 17880738 09880740     (...0...8...@...
   1a89c:	19880748 0b880750 1b880758 0d880760     H...P...X...`...
   1a8ac:	1d880768 0f880770 1f880778 18c00780     h...p...x.......
   1a8bc:	11c80788 19c00790 13c80798 18c807a0     ................
   1a8cc:	15c807a8 07c807b0 17c807b8 09c807c0     ................
   1a8dc:	19c807c8 0bc807d0 1bc807d8 0dc807e0     ................
   1a8ec:	1dc807e8 0fc807f0 1fc807f8 10100808     ................
   1a8fc:	08400810 12100818 11000820 14100828     ..@..... ...(...
   1a90c:	11800830 16100838 18100848 0a100850     0...8...H...P...
   1a91c:	1a100858 0c100860 1c100868 0e100870     X...`...h...p...
   1a92c:	1e100878 0a000880 10500888 0b000890     x.........P.....
   1a93c:	12500898 0a0808a0 145008a8 0b0808b0     ..P.......P.....
   1a94c:	165008b8 0a1008c0 185008c8 0a5008d0     ..P.......P...P.
   1a95c:	1a5008d8 0c5008e0 1c5008e8 0e5008f0     ..P...P...P...P.
   1a96c:	1e5008f8 10900908 09800910 12900918     ..P.............
   1a97c:	19000920 14900928 19800930 16900938      ...(...0...8...
   1a98c:	0b000940 18900948 0a900950 1a900958     @...H...P...X...
   1a99c:	0c900960 1c900968 0e900970 1e900978     `...h...p...x...
   1a9ac:	0a400980 10d00988 0b400990 12d00998     ..@.......@.....
   1a9bc:	0a4809a0 14d009a8 0b4809b0 16d009b8     ..H.......H.....
   1a9cc:	0a5009c0 18d009c8 0ad009d0 1ad009d8     ..P.............
   1a9dc:	0cd009e0 1cd009e8 0ed009f0 1ed009f8     ................
   1a9ec:	11100a08 13100a18 11400a20 15100a28     ........ .@.(...
   1a9fc:	11c00a30 17100a38 19100a48 0b100a50     0...8...H...P...
   1aa0c:	1b100a58 0d100a60 1d100a68 0f100a70     X...`...h...p...
   1aa1c:	1f100a78 11500a88 0b800a90 13500a98     x.....P.......P.
   1aa2c:	11500aa0 15500aa8 0b880ab0 17500ab8     ..P...P.......P.
   1aa3c:	0b800ac0 19500ac8 0b500ad0 1b500ad8     ......P...P...P.
   1aa4c:	0d500ae0 1d500ae8 0f500af0 1f500af8     ..P...P...P...P.
   1aa5c:	11900b08 13900b18 19400b20 15900b28     ........ .@.(...
   1aa6c:	19c00b30 17900b38 19900b48 0b900b50     0...8...H...P...
   1aa7c:	1b900b58 0d900b60 1d900b68 0f900b70     X...`...h...p...
   1aa8c:	1f900b78 11d00b88 0bc00b90 13d00b98     x...............
   1aa9c:	19500ba0 15d00ba8 0bc80bb0 17d00bb8     ..P.............
   1aaac:	19d00bc8 1bd00bd8 0dd00be0 1dd00be8     ................
   1aabc:	0fd00bf0 1fd00bf8 12000c00 10180c08     ................
   1aacc:	13000c10 12180c18 12080c20 14180c28     ........ ...(...
   1aadc:	13080c30 16180c38 12100c40 18180c48     0...8...@...H...
   1aaec:	13100c50 1a180c58 12180c60 1c180c68     P...X...`...h...
   1aafc:	0e180c70 1e180c78 1a000c80 10580c88     p...x.........X.
   1ab0c:	1b000c90 12580c98 1a080ca0 14580ca8     ......X.......X.
   1ab1c:	1b080cb0 16580cb8 1a100cc0 18580cc8     ......X.......X.
   1ab2c:	1b100cd0 1a580cd8 1a180ce0 1c580ce8     ......X.......X.
   1ab3c:	0e580cf0 1e580cf8 12400d00 10980d08     ..X...X...@.....
   1ab4c:	13400d10 12980d18 12480d20 14980d28     ..@..... .H.(...
   1ab5c:	13480d30 16980d38 12500d40 18980d48     0.H.8...@.P.H...
   1ab6c:	13500d50 1a980d58 12580d60 1c980d68     P.P.X...`.X.h...
   1ab7c:	0e980d70 1e980d78 1a400d80 10d80d88     p...x.....@.....
   1ab8c:	1b400d90 12d80d98 1a480da0 14d80da8     ..@.......H.....
   1ab9c:	1b480db0 16d80db8 1a500dc0 18d80dc8     ..H.......P.....
   1abac:	1b500dd0 1ad80dd8 1a580de0 1cd80de8     ..P.......X.....
   1abbc:	0ed80df0 1ed80df8 12800e00 11180e08     ................
   1abcc:	13800e10 13180e18 12880e20 15180e28     ........ ...(...
   1abdc:	13880e30 17180e38 12900e40 19180e48     0...8...@...H...
   1abec:	13900e50 1b180e58 12980e60 1d180e68     P...X...`...h...
   1abfc:	0f180e70 1f180e78 1a800e80 11580e88     p...x.........X.
   1ac0c:	1b800e90 13580e98 1a880ea0 15580ea8     ......X.......X.
   1ac1c:	1b880eb0 17580eb8 1a900ec0 19580ec8     ......X.......X.
   1ac2c:	1b900ed0 1b580ed8 1a980ee0 1d580ee8     ......X.......X.
   1ac3c:	0f580ef0 1f580ef8 12c00f00 11980f08     ..X...X.........
   1ac4c:	13c00f10 13980f18 12c80f20 15980f28     ........ ...(...
   1ac5c:	13c80f30 17980f38 12d00f40 19980f48     0...8...@...H...
   1ac6c:	13d00f50 1b980f58 12d80f60 1d980f68     P...X...`...h...
   1ac7c:	0f980f70 1f980f78 1ac00f80 11d80f88     p...x...........
   1ac8c:	1bc00f90 13d80f98 1ac80fa0 15d80fa8     ................
   1ac9c:	1bc80fb0 17d80fb8 1ad00fc0 19d80fc8     ................
   1acac:	1bd00fd0 1bd80fd8 1ad80fe0 1dd80fe8     ................
   1acbc:	1bd80ff0 1fd80ff8 10201008 10401010     .......... ...@.
   1accc:	12201018 14201028 10881030 16201038     .. .(. .0...8. .
   1acdc:	11001040 18201048 11401050 1a201058     @...H. .P.@.X. .
   1acec:	12081060 1c201068 12881070 1e201078     `...h. .p...x. .
   1acfc:	12001080 12081088 12401090 12601098     ..........@...`.
   1ad0c:	122010a0 146010a8 126010b0 166010b8     .. ...`...`...`.
   1ad1c:	130010c0 186010c8 134010d0 1a6010d8     ......`...@...`.
   1ad2c:	121810e0 1c6010e8 129810f0 1e6010f8     ......`.......`.
   1ad3c:	12201108 11401110 12a01118 18081120     .. ...@..... ...
   1ad4c:	14a01128 18881130 16a01138 18a01148     (...0...8...H...
   1ad5c:	1aa01158 1a081160 1ca01168 1a881170     X...`...h...p...
   1ad6c:	1ea01178 12101180 12181188 12501190     x.............P.
   1ad7c:	12e01198 181811a0 14e011a8 189811b0     ................
   1ad8c:	16e011b8 131011c0 18e011c8 135011d0     ..............P.
   1ad9c:	1ae011d8 1a1811e0 1ce011e8 1a9811f0     ................
   1adac:	1ee011f8 18001200 18081208 18401210     ..............@.
   1adbc:	13201218 18201220 15201228 18601230     .. . . .(. .0.`.
   1adcc:	17201238 19001240 19201248 19401250     8. .@...H. .P.@.
   1addc:	1b201258 19201260 1d201268 12c81270     X. .`. .h. .p...
   1adec:	1f201278 1a001280 1a081288 1a401290     x. ...........@.
   1adfc:	13601298 1a2012a0 156012a8 1a6012b0     ..`... ...`...`.
   1ae0c:	176012b8 1b0012c0 196012c8 1b4012d0     ..`.......`...@.
   1ae1c:	1b6012d8 1b2012e0 1d6012e8 1b6012f0     ..`... ...`...`.
   1ae2c:	1f6012f8 18101300 18181308 18501310     ..`...........P.
   1ae3c:	13a01318 18481320 15a01328 18c81330     .... .H.(...0...
   1ae4c:	17a01338 19101340 19a01348 19501350     8...@...H...P.P.
   1ae5c:	1ba01358 1a481360 1da01368 1ac81370     X...`.H.h...p...
   1ae6c:	1fa01378 1a101380 1a181388 1a501390     x.............P.
   1ae7c:	13e01398 185813a0 15e013a8 18d813b0     ......X.........
   1ae8c:	17e013b8 1b1013c0 19e013c8 1b5013d0     ..............P.
   1ae9c:	1be013d8 1a5813e0 1de013e8 1ad813f0     ......X.........
   1aeac:	1fe013f8 14201408 15001410 15201418     ...... ....... .
   1aebc:	15081430 16281438 15001440 18281448     0...8.(.@...H.(.
   1aecc:	15101450 1a281458 15201460 1c281468     P...X.(.`. .h.(.
   1aedc:	15181470 1e281478 1c001480 1c201488     p...x.(....... .
   1aeec:	1d001490 1d201498 1c0814a0 1c2814a8     ...... .......(.
   1aefc:	1d0814b0 166814b8 1c1014c0 186814c8     ......h.......h.
   1af0c:	1d1014d0 1a6814d8 1c1814e0 1c6814e8     ......h.......h.
   1af1c:	1d1814f0 1e6814f8 15201508 15401510     ......h... ...@.
   1af2c:	15601518 18281520 1c281528 15481530     ..`. .(.(.(.0.H.
   1af3c:	16a81538 18a81548 1aa81558 1a281560     8...H...X...`.(.
   1af4c:	1ca81568 1aa81570 1ea81578 1c401580     h...p...x.....@.
   1af5c:	1c601588 1d401590 1d601598 1c4815a0     ..`...@...`...H.
   1af6c:	1c6815a8 1d4815b0 16e815b8 1c5015c0     ..h...H.......P.
   1af7c:	18e815c8 1d5015d0 1ae815d8 1c5815e0     ......P.......X.
   1af8c:	1ce815e8 1d5815f0 1ee815f8 1c001600     ......X.........
   1af9c:	1c081608 1c401610 1c481618 1c201620     ......@...H. . .
   1afac:	1c281628 1c601630 17281638 1d001640     (.(.0.`.8.(.@...
   1afbc:	19281648 1d401650 1b281658 1d201660     H.(.P.@.X.(.`. .
   1afcc:	1d281668 1d601670 1f281678 1c801680     h.(.p.`.x.(.....
   1afdc:	1ca01688 1d801690 1da01698 1c8816a0     ................
   1afec:	1ca816a8 1d8816b0 176816b8 1c9016c0     ..........h.....
   1affc:	196816c8 1d9016d0 1b6816d8 1c9816e0     ..h.......h.....
   1b00c:	1d6816e8 1d9816f0 1f6816f8 1c101700     ..h.......h.....
   1b01c:	1c181708 1c501710 1c581718 18681720     ......P...X. .h.
   1b02c:	1c681728 18e81730 17a81738 1d101740     (.h.0...8...@...
   1b03c:	19a81748 1d501750 1ba81758 1a681760     H...P.P.X...`.h.
   1b04c:	1da81768 1ae81770 1fa81778 1cc01780     h...p...x.......
   1b05c:	1ce01788 1dc01790 1de01798 1cc817a0     ................
   1b06c:	1ce817a8 1dc817b0 17e817b8 1cd017c0     ................
   1b07c:	19e817c8 1dd017d0 1be817d8 1cd817e0     ................
   1b08c:	1de817e8 1dd817f0 1fe817f8 18601818     ..............`.
   1b09c:	18481830 1c601838 1a301858 1c301868     0.H.8.`.X.0.h.0.
   1b0ac:	1a181870 1e301878 1a001880 1a081888     p...x.0.........
   1b0bc:	1b001890 19601898 1a2018a0 1a2818a8     ......`... ...(.
   1b0cc:	1b2018b0 1d6018b8 1a1018c0 1a1818c8     .. ...`.........
   1b0dc:	1b1018d0 1a7018d8 1a3018e0 1c7018e8     ......p...0...p.
   1b0ec:	1a5818f0 1e7018f8 19201908 1a601918     ..X...p... ...`.
   1b0fc:	1d081928 19881930 1d881938 1b201948     (...0...8...H. .
   1b10c:	1ab01958 1b081960 1cb01968 1b881970     X...`...h...p...
   1b11c:	1eb01978 1a401980 1a481988 1b401990     x.....@...H...@.
   1b12c:	1b601998 1a6019a0 1d1819a8 1b6019b0     ..`...`.......`.
   1b13c:	1d9819b8 1a5019c0 1a5819c8 1b5019d0     ......P...X...P.
   1b14c:	1af019d8 1b1819e0 1cf019e8 1b9819f0     ................
   1b15c:	1ef019f8 1c701a38 1b301a58 1d301a68     ....8.p.X.0.h.0.
   1b16c:	1b181a70 1f301a78 1ac01a90 1ac81a98     p...x.0.........
   1b17c:	1ae01ab0 1ae81ab8 1b801ac0 1b881ac8     ................
   1b18c:	1bc01ad0 1b701ad8 1ba01ae0 1d701ae8     ......p.......p.
   1b19c:	1be01af0 1f701af8 1d481b28 1dc81b38     ......p.(.H.8...
   1b1ac:	1b601b48 1bb01b58 1db01b68 1bc81b70     H.`.X...h...p...
   1b1bc:	1fb01b78 1bc01b90 1bc81b98 1d581ba8     x.............X.
   1b1cc:	1be01bb0 1dd81bb8 1bf01bd8 1df01be8     ................
   1b1dc:	1ff01bf8 1c201c08 1c301c18 1c681c38     ...... ...0.8.h.
   1b1ec:	1c601c48 1c701c58 1e381c78 1e001c80     H.`.X.p.x.8.....
   1b1fc:	1e201c88 1f001c90 1f201c98 1e081ca0     .. ....... .....
   1b20c:	1e281ca8 1f081cb0 1f281cb8 1e101cc0     ..(.......(.....
   1b21c:	1e301cc8 1f101cd0 1f301cd8 1e181ce0     ..0.......0.....
   1b22c:	1e381ce8 1f181cf0 1e781cf8 1d201d08     ..8.......x... .
   1b23c:	1d301d18 1da81d38 1d601d48 1d701d58     ..0.8...H.`.X.p.
   1b24c:	1f281d68 1eb81d78 1e401d80 1e601d88     h.(.x.....@...`.
   1b25c:	1f401d90 1f601d98 1e481da0 1e681da8     ..@...`...H...h.
   1b26c:	1f481db0 1f681db8 1e501dc0 1e701dc8     ..H...h...P...p.
   1b27c:	1f501dd0 1f701dd8 1e581de0 1e781de8     ..P...p...X...x.
   1b28c:	1f581df0 1ef81df8 1e201e08 1e301e18     ..X....... ...0.
   1b29c:	1e601e48 1e701e58 1f381e78 1ea01e88     H.`.X.p.x.8.....
   1b2ac:	1f801e90 1fa01e98 1f881eb0 1fa81eb8     ................
   1b2bc:	1f801ec0 1f881ec8 1f901ed0 1fb01ed8     ................
   1b2cc:	1fa01ee0 1fa81ee8 1f981ef0 1f781ef8     ..............x.
   1b2dc:	1f201f08 1f301f18 1f601f48 1f701f58     .. ...0.H.`.X.p.
   1b2ec:	1fb81f78 1fa01f88 1fc01f90 1fe01f98     x...............
   1b2fc:	1fc81fb0 1fe81fb8 1fe01fc8 1ff01fd8     ................

0001b30c <armBitRevIndexTable2048>:
   1b30c:	10000008 20000010 30000018 02000020     ....... ...0 ...
   1b31c:	12000028 22000030 32000038 04000040     (...0.."8..2@...
   1b32c:	14000048 24000050 34000058 06000060     H...P..$X..4`...
   1b33c:	16000068 26000070 36000078 08000080     h...p..&x..6....
   1b34c:	18000088 28000090 38000098 0a0000a0     .......(...8....
   1b35c:	1a0000a8 2a0000b0 3a0000b8 0c0000c0     .......*...:....
   1b36c:	1c0000c8 2c0000d0 3c0000d8 0e0000e0     .......,...<....
   1b37c:	1e0000e8 2e0000f0 3e0000f8 04000100     ...........>....
   1b38c:	10400108 20400110 30400118 02400120     ..@...@ ..@0 .@.
   1b39c:	12400128 22400130 32400138 04400140     (.@.0.@"8.@2@.@.
   1b3ac:	14400148 24400150 34400158 06400160     H.@.P.@$X.@4`.@.
   1b3bc:	16400168 26400170 36400178 08400180     h.@.p.@&x.@6..@.
   1b3cc:	18400188 28400190 38400198 0a4001a0     ..@...@(..@8..@.
   1b3dc:	1a4001a8 2a4001b0 3a4001b8 0c4001c0     ..@...@*..@:..@.
   1b3ec:	1c4001c8 2c4001d0 3c4001d8 0e4001e0     ..@...@,..@<..@.
   1b3fc:	1e4001e8 2e4001f0 3e4001f8 08000200     ..@...@...@>....
   1b40c:	10800208 20800210 30800218 02800220     ....... ...0 ...
   1b41c:	12800228 22800230 32800238 04800240     (...0.."8..2@...
   1b42c:	14800248 24800250 34800258 06800260     H...P..$X..4`...
   1b43c:	16800268 26800270 36800278 08800280     h...p..&x..6....
   1b44c:	18800288 28800290 38800298 0a8002a0     .......(...8....
   1b45c:	1a8002a8 2a8002b0 3a8002b8 0c8002c0     .......*...:....
   1b46c:	1c8002c8 2c8002d0 3c8002d8 0e8002e0     .......,...<....
   1b47c:	1e8002e8 2e8002f0 3e8002f8 0c000300     ...........>....
   1b48c:	10c00308 20c00310 30c00318 0c800320     ....... ...0 ...
   1b49c:	12c00328 22c00330 32c00338 04c00340     (...0.."8..2@...
   1b4ac:	14c00348 24c00350 34c00358 06c00360     H...P..$X..4`...
   1b4bc:	16c00368 26c00370 36c00378 08c00380     h...p..&x..6....
   1b4cc:	18c00388 28c00390 38c00398 0ac003a0     .......(...8....
   1b4dc:	1ac003a8 2ac003b0 3ac003b8 0cc003c0     .......*...:....
   1b4ec:	1cc003c8 2cc003d0 3cc003d8 0ec003e0     .......,...<....
   1b4fc:	1ec003e8 2ec003f0 3ec003f8 11000408     ...........>....
   1b50c:	21000410 31000418 0c000420 13000428     ...!...1 ...(...
   1b51c:	23000430 33000438 05000440 15000448     0..#8..3@...H...
   1b52c:	25000450 35000458 07000460 17000468     P..%X..5`...h...
   1b53c:	27000470 37000478 09000480 19000488     p..'x..7........
   1b54c:	29000490 39000498 0b0004a0 1b0004a8     ...)...9........
   1b55c:	2b0004b0 3b0004b8 0d0004c0 1d0004c8     ...+...;........
   1b56c:	2d0004d0 3d0004d8 0f0004e0 1f0004e8     ...-...=........
   1b57c:	2f0004f0 3f0004f8 11400508 21400510     .../...?..@...@!
   1b58c:	31400518 0d000520 13400528 23400530     ..@1 ...(.@.0.@#
   1b59c:	33400538 15400548 25400550 35400558     8.@3H.@.P.@%X.@5
   1b5ac:	07400560 17400568 27400570 37400578     `.@.h.@.p.@'x.@7
   1b5bc:	09400580 19400588 29400590 39400598     ..@...@...@)..@9
   1b5cc:	0b4005a0 1b4005a8 2b4005b0 3b4005b8     ..@...@...@+..@;
   1b5dc:	0d4005c0 1d4005c8 2d4005d0 3d4005d8     ..@...@...@-..@=
   1b5ec:	0f4005e0 1f4005e8 2f4005f0 3f4005f8     ..@...@...@/..@?
   1b5fc:	08400600 11800608 21800610 31800618     ..@........!...1
   1b60c:	08c00620 13800628 23800630 33800638      ...(...0..#8..3
   1b61c:	09400640 15800648 25800650 35800658     @.@.H...P..%X..5
   1b62c:	07800660 17800668 27800670 37800678     `...h...p..'x..7
   1b63c:	09800680 19800688 29800690 39800698     ...........)...9
   1b64c:	0b8006a0 1b8006a8 2b8006b0 3b8006b8     ...........+...;
   1b65c:	0d8006c0 1d8006c8 2d8006d0 3d8006d8     ...........-...=
   1b66c:	0f8006e0 1f8006e8 2f8006f0 3f8006f8     .........../...?
   1b67c:	0c400700 11c00708 21c00710 31c00718     ..@........!...1
   1b68c:	0cc00720 13c00728 23c00730 33c00738      ...(...0..#8..3
   1b69c:	0d400740 15c00748 25c00750 35c00758     @.@.H...P..%X..5
   1b6ac:	07c00760 17c00768 27c00770 37c00778     `...h...p..'x..7
   1b6bc:	09c00780 19c00788 29c00790 39c00798     ...........)...9
   1b6cc:	0bc007a0 1bc007a8 2bc007b0 3bc007b8     ...........+...;
   1b6dc:	0dc007c0 1dc007c8 2dc007d0 3dc007d8     ...........-...=
   1b6ec:	0fc007e0 1fc007e8 2fc007f0 3fc007f8     .........../...?
   1b6fc:	10000800 10080808 20080810 30080818     ........... ...0
   1b70c:	10800820 12080828 22080830 32080838      ...(...0.."8..2
   1b71c:	11000840 14080848 24080850 34080858     @...H...P..$X..4
   1b72c:	11800860 16080868 26080870 36080878     `...h...p..&x..6
   1b73c:	10080880 18080888 28080890 38080898     ...........(...8
   1b74c:	0a0808a0 1a0808a8 2a0808b0 3a0808b8     ...........*...:
   1b75c:	0c0808c0 1c0808c8 2c0808d0 3c0808d8     ...........,...<
   1b76c:	0e0808e0 1e0808e8 2e0808f0 3e0808f8     ...............>
   1b77c:	14000900 10480908 20480910 30480918     ......H...H ..H0
   1b78c:	14800920 12480928 22480930 32480938      ...(.H.0.H"8.H2
   1b79c:	15000940 14480948 24480950 34480958     @...H.H.P.H$X.H4
   1b7ac:	15800960 16480968 26480970 36480978     `...h.H.p.H&x.H6
   1b7bc:	14080980 18480988 28480990 38480998     ......H...H(..H8
   1b7cc:	0a4809a0 1a4809a8 2a4809b0 3a4809b8     ..H...H...H*..H:
   1b7dc:	0c4809c0 1c4809c8 2c4809d0 3c4809d8     ..H...H...H,..H<
   1b7ec:	0e4809e0 1e4809e8 2e4809f0 3e4809f8     ..H...H...H...H>
   1b7fc:	18000a00 10880a08 20880a10 30880a18     ........... ...0
   1b80c:	18800a20 12880a28 22880a30 32880a38      ...(...0.."8..2
   1b81c:	19000a40 14880a48 24880a50 34880a58     @...H...P..$X..4
   1b82c:	19800a60 16880a68 26880a70 36880a78     `...h...p..&x..6
   1b83c:	18080a80 18880a88 28880a90 38880a98     ...........(...8
   1b84c:	18880aa0 1a880aa8 2a880ab0 3a880ab8     ...........*...:
   1b85c:	0c880ac0 1c880ac8 2c880ad0 3c880ad8     ...........,...<
   1b86c:	0e880ae0 1e880ae8 2e880af0 3e880af8     ...............>
   1b87c:	1c000b00 10c80b08 20c80b10 30c80b18     ........... ...0
   1b88c:	1c800b20 12c80b28 22c80b30 32c80b38      ...(...0.."8..2
   1b89c:	1d000b40 14c80b48 24c80b50 34c80b58     @...H...P..$X..4
   1b8ac:	1d800b60 16c80b68 26c80b70 36c80b78     `...h...p..&x..6
   1b8bc:	1c080b80 18c80b88 28c80b90 38c80b98     ...........(...8
   1b8cc:	1c880ba0 1ac80ba8 2ac80bb0 3ac80bb8     ...........*...:
   1b8dc:	0cc80bc0 1cc80bc8 2cc80bd0 3cc80bd8     ...........,...<
   1b8ec:	0ec80be0 1ec80be8 2ec80bf0 3ec80bf8     ...............>
   1b8fc:	10400c00 11080c08 21080c10 31080c18     ..@........!...1
   1b90c:	10c00c20 13080c28 23080c30 33080c38      ...(...0..#8..3
   1b91c:	11400c40 15080c48 25080c50 35080c58     @.@.H...P..%X..5
   1b92c:	11c00c60 17080c68 27080c70 37080c78     `...h...p..'x..7
   1b93c:	10480c80 19080c88 29080c90 39080c98     ..H........)...9
   1b94c:	10c80ca0 1b080ca8 2b080cb0 3b080cb8     ...........+...;
   1b95c:	0d080cc0 1d080cc8 2d080cd0 3d080cd8     ...........-...=
   1b96c:	0f080ce0 1f080ce8 2f080cf0 3f080cf8     .........../...?
   1b97c:	14400d00 11480d08 21480d10 31480d18     ..@...H...H!..H1
   1b98c:	14c00d20 13480d28 23480d30 33480d38      ...(.H.0.H#8.H3
   1b99c:	15400d40 15480d48 25480d50 35480d58     @.@.H.H.P.H%X.H5
   1b9ac:	15c00d60 17480d68 27480d70 37480d78     `...h.H.p.H'x.H7
   1b9bc:	14480d80 19480d88 29480d90 39480d98     ..H...H...H)..H9
   1b9cc:	14c80da0 1b480da8 2b480db0 3b480db8     ......H...H+..H;
   1b9dc:	15480dc0 1d480dc8 2d480dd0 3d480dd8     ..H...H...H-..H=
   1b9ec:	0f480de0 1f480de8 2f480df0 3f480df8     ..H...H...H/..H?
   1b9fc:	18400e00 11880e08 21880e10 31880e18     ..@........!...1
   1ba0c:	18c00e20 13880e28 23880e30 33880e38      ...(...0..#8..3
   1ba1c:	19400e40 15880e48 25880e50 35880e58     @.@.H...P..%X..5
   1ba2c:	19c00e60 17880e68 27880e70 37880e78     `...h...p..'x..7
   1ba3c:	18480e80 19880e88 29880e90 39880e98     ..H........)...9
   1ba4c:	18c80ea0 1b880ea8 2b880eb0 3b880eb8     ...........+...;
   1ba5c:	19480ec0 1d880ec8 2d880ed0 3d880ed8     ..H........-...=
   1ba6c:	0f880ee0 1f880ee8 2f880ef0 3f880ef8     .........../...?
   1ba7c:	1c400f00 11c80f08 21c80f10 31c80f18     ..@........!...1
   1ba8c:	1cc00f20 13c80f28 23c80f30 33c80f38      ...(...0..#8..3
   1ba9c:	1d400f40 15c80f48 25c80f50 35c80f58     @.@.H...P..%X..5
   1baac:	1dc00f60 17c80f68 27c80f70 37c80f78     `...h...p..'x..7
   1babc:	1c480f80 19c80f88 29c80f90 39c80f98     ..H........)...9
   1bacc:	1cc80fa0 1bc80fa8 2bc80fb0 3bc80fb8     ...........+...;
   1badc:	1d480fc0 1dc80fc8 2dc80fd0 3dc80fd8     ..H........-...=
   1baec:	1dc80fe0 1fc80fe8 2fc80ff0 3fc80ff8     .........../...?
   1bafc:	20001000 10101008 20101010 30101018     ... ....... ...0
   1bb0c:	20801020 12101028 22101030 32101038      .. (...0.."8..2
   1bb1c:	21001040 14101048 24101050 34101058     @..!H...P..$X..4
   1bb2c:	21801060 16101068 26101070 36101078     `..!h...p..&x..6
   1bb3c:	20081080 18101088 28101090 38101098     ... .......(...8
   1bb4c:	208810a0 1a1010a8 2a1010b0 3a1010b8     ... .......*...:
   1bb5c:	210810c0 1c1010c8 2c1010d0 3c1010d8     ...!.......,...<
   1bb6c:	218810e0 1e1010e8 2e1010f0 3e1010f8     ...!...........>
   1bb7c:	24001100 24101108 20501110 30501118     ...$...$..P ..P0
   1bb8c:	24801120 12501128 22501130 32501138      ..$(.P.0.P"8.P2
   1bb9c:	25001140 14501148 24501150 34501158     @..%H.P.P.P$X.P4
   1bbac:	25801160 16501168 26501170 36501178     `..%h.P.p.P&x.P6
   1bbbc:	24081180 18501188 28501190 38501198     ...$..P...P(..P8
   1bbcc:	248811a0 1a5011a8 2a5011b0 3a5011b8     ...$..P...P*..P:
   1bbdc:	250811c0 1c5011c8 2c5011d0 3c5011d8     ...%..P...P,..P<
   1bbec:	258811e0 1e5011e8 2e5011f0 3e5011f8     ...%..P...P...P>
   1bbfc:	28001200 28101208 20901210 30901218     ...(...(... ...0
   1bc0c:	28801220 12901228 22901230 32901238      ..((...0.."8..2
   1bc1c:	29001240 14901248 24901250 34901258     @..)H...P..$X..4
   1bc2c:	29801260 16901268 26901270 36901278     `..)h...p..&x..6
   1bc3c:	28081280 18901288 28901290 38901298     ...(.......(...8
   1bc4c:	288812a0 1a9012a8 2a9012b0 3a9012b8     ...(.......*...:
   1bc5c:	290812c0 1c9012c8 2c9012d0 3c9012d8     ...).......,...<
   1bc6c:	298812e0 1e9012e8 2e9012f0 3e9012f8     ...)...........>
   1bc7c:	2c001300 2c101308 20d01310 30d01318     ...,...,... ...0
   1bc8c:	2c801320 2c901328 22d01330 32d01338      ..,(..,0.."8..2
   1bc9c:	2d001340 14d01348 24d01350 34d01358     @..-H...P..$X..4
   1bcac:	2d801360 16d01368 26d01370 36d01378     `..-h...p..&x..6
   1bcbc:	2c081380 18d01388 28d01390 38d01398     ...,.......(...8
   1bccc:	2c8813a0 1ad013a8 2ad013b0 3ad013b8     ...,.......*...:
   1bcdc:	2d0813c0 1cd013c8 2cd013d0 3cd013d8     ...-.......,...<
   1bcec:	2d8813e0 1ed013e8 2ed013f0 3ed013f8     ...-...........>
   1bcfc:	20401400 20501408 21101410 31101418     ..@ ..P ...!...1
   1bd0c:	20c01420 20d01428 23101430 33101438      .. (.. 0..#8..3
   1bd1c:	21401440 15101448 25101450 35101458     @.@!H...P..%X..5
   1bd2c:	21c01460 17101468 27101470 37101478     `..!h...p..'x..7
   1bd3c:	20481480 19101488 29101490 39101498     ..H .......)...9
   1bd4c:	20c814a0 1b1014a8 2b1014b0 3b1014b8     ... .......+...;
   1bd5c:	214814c0 1d1014c8 2d1014d0 3d1014d8     ..H!.......-...=
   1bd6c:	21c814e0 1f1014e8 2f1014f0 3f1014f8     ...!......./...?
   1bd7c:	24401500 24501508 21501510 31501518     ..@$..P$..P!..P1
   1bd8c:	24c01520 24d01528 23501530 33501538      ..$(..$0.P#8.P3
   1bd9c:	25401540 15501548 25501550 35501558     @.@%H.P.P.P%X.P5
   1bdac:	25c01560 17501568 27501570 37501578     `..%h.P.p.P'x.P7
   1bdbc:	24481580 19501588 29501590 39501598     ..H$..P...P)..P9
   1bdcc:	24c815a0 1b5015a8 2b5015b0 3b5015b8     ...$..P...P+..P;
   1bddc:	254815c0 1d5015c8 2d5015d0 3d5015d8     ..H%..P...P-..P=
   1bdec:	25c815e0 1f5015e8 2f5015f0 3f5015f8     ...%..P...P/..P?
   1bdfc:	28401600 28501608 21901610 31901618     ..@(..P(...!...1
   1be0c:	28c01620 28d01628 23901630 33901638      ..((..(0..#8..3
   1be1c:	29401640 29501648 25901650 35901658     @.@)H.P)P..%X..5
   1be2c:	29c01660 17901668 27901670 37901678     `..)h...p..'x..7
   1be3c:	28481680 19901688 29901690 39901698     ..H(.......)...9
   1be4c:	28c816a0 1b9016a8 2b9016b0 3b9016b8     ...(.......+...;
   1be5c:	294816c0 1d9016c8 2d9016d0 3d9016d8     ..H).......-...=
   1be6c:	29c816e0 1f9016e8 2f9016f0 3f9016f8     ...)......./...?
   1be7c:	2c401700 2c501708 21d01710 31d01718     ..@,..P,...!...1
   1be8c:	2cc01720 2cd01728 23d01730 33d01738      ..,(..,0..#8..3
   1be9c:	2d401740 2d501748 25d01750 35d01758     @.@-H.P-P..%X..5
   1beac:	2dc01760 17d01768 27d01770 37d01778     `..-h...p..'x..7
   1bebc:	2c481780 19d01788 29d01790 39d01798     ..H,.......)...9
   1becc:	2cc817a0 1bd017a8 2bd017b0 3bd017b8     ...,.......+...;
   1bedc:	2d4817c0 1dd017c8 2dd017d0 3dd017d8     ..H-.......-...=
   1beec:	2dc817e0 1fd017e8 2fd017f0 3fd017f8     ...-......./...?
   1befc:	30001800 30101808 20181810 30181818     ...0...0... ...0
   1bf0c:	30801820 30901828 22181830 32181838      ..0(..00.."8..2
   1bf1c:	31001840 31101848 24181850 34181858     @..1H..1P..$X..4
   1bf2c:	31801860 31901868 26181870 36181878     `..1h..1p..&x..6
   1bf3c:	30081880 30181888 28181890 38181898     ...0...0...(...8
   1bf4c:	308818a0 1a1818a8 2a1818b0 3a1818b8     ...0.......*...:
   1bf5c:	310818c0 1c1818c8 2c1818d0 3c1818d8     ...1.......,...<
   1bf6c:	318818e0 1e1818e8 2e1818f0 3e1818f8     ...1...........>
   1bf7c:	34001900 34101908 20581910 30581918     ...4...4..X ..X0
   1bf8c:	34801920 34901928 22581930 32581938      ..4(..40.X"8.X2
   1bf9c:	35001940 35101948 24581950 34581958     @..5H..5P.X$X.X4
   1bfac:	35801960 35901968 26581970 36581978     `..5h..5p.X&x.X6
   1bfbc:	34081980 34181988 28581990 38581998     ...4...4..X(..X8
   1bfcc:	348819a0 1a5819a8 2a5819b0 3a5819b8     ...4..X...X*..X:
   1bfdc:	350819c0 1c5819c8 2c5819d0 3c5819d8     ...5..X...X,..X<
   1bfec:	358819e0 1e5819e8 2e5819f0 3e5819f8     ...5..X...X...X>
   1bffc:	38001a00 38101a08 20981a10 30981a18     ...8...8... ...0
   1c00c:	38801a20 38901a28 22981a30 32981a38      ..8(..80.."8..2
   1c01c:	39001a40 39101a48 24981a50 34981a58     @..9H..9P..$X..4
   1c02c:	39801a60 39901a68 26981a70 36981a78     `..9h..9p..&x..6
   1c03c:	38081a80 38181a88 28981a90 38981a98     ...8...8...(...8
   1c04c:	38881aa0 38981aa8 2a981ab0 3a981ab8     ...8...8...*...:
   1c05c:	39081ac0 1c981ac8 2c981ad0 3c981ad8     ...9.......,...<
   1c06c:	39881ae0 1e981ae8 2e981af0 3e981af8     ...9...........>
   1c07c:	3c001b00 3c101b08 20d81b10 30d81b18     ...<...<... ...0
   1c08c:	3c801b20 3c901b28 22d81b30 32d81b38      ..<(..<0.."8..2
   1c09c:	3d001b40 3d101b48 24d81b50 34d81b58     @..=H..=P..$X..4
   1c0ac:	3d801b60 3d901b68 26d81b70 36d81b78     `..=h..=p..&x..6
   1c0bc:	3c081b80 3c181b88 28d81b90 38d81b98     ...<...<...(...8
   1c0cc:	3c881ba0 3c981ba8 2ad81bb0 3ad81bb8     ...<...<...*...:
   1c0dc:	3d081bc0 1cd81bc8 2cd81bd0 3cd81bd8     ...=.......,...<
   1c0ec:	3d881be0 1ed81be8 2ed81bf0 3ed81bf8     ...=...........>
   1c0fc:	30401c00 30501c08 21181c10 31181c18     ..@0..P0...!...1
   1c10c:	30c01c20 30d01c28 23181c30 33181c38      ..0(..00..#8..3
   1c11c:	31401c40 31501c48 25181c50 35181c58     @.@1H.P1P..%X..5
   1c12c:	31c01c60 31d01c68 27181c70 37181c78     `..1h..1p..'x..7
   1c13c:	30481c80 30581c88 29181c90 39181c98     ..H0..X0...)...9
   1c14c:	30c81ca0 30d81ca8 2b181cb0 3b181cb8     ...0...0...+...;
   1c15c:	31481cc0 1d181cc8 2d181cd0 3d181cd8     ..H1.......-...=
   1c16c:	31c81ce0 1f181ce8 2f181cf0 3f181cf8     ...1......./...?
   1c17c:	34401d00 34501d08 21581d10 31581d18     ..@4..P4..X!..X1
   1c18c:	34c01d20 34d01d28 23581d30 33581d38      ..4(..40.X#8.X3
   1c19c:	35401d40 35501d48 25581d50 35581d58     @.@5H.P5P.X%X.X5
   1c1ac:	35c01d60 35d01d68 27581d70 37581d78     `..5h..5p.X'x.X7
   1c1bc:	34481d80 34581d88 29581d90 39581d98     ..H4..X4..X)..X9
   1c1cc:	34c81da0 34d81da8 2b581db0 3b581db8     ...4...4..X+..X;
   1c1dc:	35481dc0 35581dc8 2d581dd0 3d581dd8     ..H5..X5..X-..X=
   1c1ec:	35c81de0 1f581de8 2f581df0 3f581df8     ...5..X...X/..X?
   1c1fc:	38401e00 38501e08 21981e10 31981e18     ..@8..P8...!...1
   1c20c:	38c01e20 38d01e28 23981e30 33981e38      ..8(..80..#8..3
   1c21c:	39401e40 39501e48 25981e50 35981e58     @.@9H.P9P..%X..5
   1c22c:	39c01e60 39d01e68 27981e70 37981e78     `..9h..9p..'x..7
   1c23c:	38481e80 38581e88 29981e90 39981e98     ..H8..X8...)...9
   1c24c:	38c81ea0 38d81ea8 2b981eb0 3b981eb8     ...8...8...+...;
   1c25c:	39481ec0 39581ec8 2d981ed0 3d981ed8     ..H9..X9...-...=
   1c26c:	39c81ee0 1f981ee8 2f981ef0 3f981ef8     ...9......./...?
   1c27c:	3c401f00 3c501f08 21d81f10 31d81f18     ..@<..P<...!...1
   1c28c:	3cc01f20 3cd01f28 23d81f30 33d81f38      ..<(..<0..#8..3
   1c29c:	3d401f40 3d501f48 25d81f50 35d81f58     @.@=H.P=P..%X..5
   1c2ac:	3dc01f60 3dd01f68 27d81f70 37d81f78     `..=h..=p..'x..7
   1c2bc:	3c481f80 3c581f88 29d81f90 39d81f98     ..H<..X<...)...9
   1c2cc:	3cc81fa0 3cd81fa8 2bd81fb0 3bd81fb8     ...<...<...+...;
   1c2dc:	3d481fc0 3d581fc8 2dd81fd0 3dd81fd8     ..H=..X=...-...=
   1c2ec:	3dc81fe0 3dd81fe8 2fd81ff0 3fd81ff8     ...=...=.../...?
   1c2fc:	20802008 20202010 30202018 28802028     . . .   .  0( .(
   1c30c:	22202030 32202038 21002040 20c02048     0  "8  2@ .!H . 
   1c31c:	24202050 34202058 24102060 28c02068     P  $X  4` .$h .(
   1c32c:	26202070 36202078 30802088 28202090     p  &x  6. .0.  (
   1c33c:	38202098 300820a0 388020a8 2a2020b0     .  8. .0. .8.  *
   1c34c:	3a2020b8 210820c0 30c020c8 2c2020d0     .  :. .!. .0.  ,
   1c35c:	3c2020d8 310820e0 38c020e8 2e2020f0     .  <. .1. .8.  .
   1c36c:	3e2020f8 24002100 21802108 24102110     .  >.!.$.!.!.!.$
   1c37c:	30602118 24202120 29802128 22602130     .!`0 ! $(!.)0!`"
   1c38c:	32602138 25002140 21c02148 24602150     8!`2@!.%H!.!P!`$
   1c39c:	34602158 24502160 29c02168 26602170     X!`4`!P$h!.)p!`&
   1c3ac:	36602178 24082180 31802188 28602190     x!`6.!.$.!.1.!`(
   1c3bc:	38602198 340821a0 398021a8 2a6021b0     .!`8.!.4.!.9.!`*
   1c3cc:	3a6021b8 250821c0 31c021c8 2c6021d0     .!`:.!.%.!.1.!`,
   1c3dc:	3c6021d8 350821e0 39c021e8 2e6021f0     .!`<.!.5.!.9.!`.
   1c3ec:	3e6021f8 30002200 30802208 30082210     .!`>.".0.".0.".0
   1c3fc:	30a02218 30102220 28882228 22a02230     .".0 ".0(".(0"."
   1c40c:	32a02238 30402240 30c02248 24a02250     8".2@"@0H".0P".$
   1c41c:	34a02258 30502260 28c82268 26a02270     X".4`"P0h".(p".&
   1c42c:	36a02278 30202280 30882288 28a02290     x".6." 0.".0.".(
   1c43c:	38a02298 301822a0 388822a8 2aa022b0     .".8.".0.".8.".*
   1c44c:	3aa022b8 306022c0 30c822c8 2ca022d0     .".:."`0.".0.".,
   1c45c:	3ca022d8 311822e0 38c822e8 2ea022f0     .".<.".1.".8."..
   1c46c:	3ea022f8 31002300 31802308 31082310     .".>.#.1.#.1.#.1
   1c47c:	30e02318 31102320 29882328 31182330     .#.0 #.1(#.)0#.1
   1c48c:	32e02338 31402340 31c02348 24e02350     8#.2@#@1H#.1P#.$
   1c49c:	34e02358 31502360 29c82368 26e02370     X#.4`#P1h#.)p#.&
   1c4ac:	36e02378 24182380 31882388 28e02390     x#.6.#.$.#.1.#.(
   1c4bc:	38e02398 341823a0 398823a8 2ae023b0     .#.8.#.4.#.9.#.*
   1c4cc:	3ae023b8 251823c0 31c823c8 2ce023d0     .#.:.#.%.#.1.#.,
   1c4dc:	3ce023d8 351823e0 39c823e8 2ee023f0     .#.<.#.5.#.9.#..
   1c4ec:	3ee023f8 24802408 24202410 31202418     .#.>.$.$.$ $.$ 1
   1c4fc:	2c802428 31102430 33202438 25002440     ($.,0$.18$ 3@$.%
   1c50c:	24c02448 25202450 35202458 25102460     H$.$P$ %X$ 5`$.%
   1c51c:	2cc02468 27202470 37202478 34802488     h$.,p$ 'x$ 7.$.4
   1c52c:	29202490 39202498 304824a0 3c8024a8     .$ ).$ 9.$H0.$.<
   1c53c:	2b2024b0 3b2024b8 250824c0 34c024c8     .$ +.$ ;.$.%.$.4
   1c54c:	2d2024d0 3d2024d8 314824e0 3cc024e8     .$ -.$ =.$H1.$.<
   1c55c:	2f2024f0 3f2024f8 25802508 25202510     .$ /.$ ?.%.%.% %
   1c56c:	31602518 2d802528 31502530 33602538     .%`1(%.-0%P18%`3
   1c57c:	25c02548 25602550 35602558 2dc02568     H%.%P%`%X%`5h%.-
   1c58c:	27602570 37602578 35802588 29602590     p%`'x%`7.%.5.%`)
   1c59c:	39602598 344825a0 3d8025a8 2b6025b0     .%`9.%H4.%.=.%`+
   1c5ac:	3b6025b8 35c025c8 2d6025d0 3d6025d8     .%`;.%.5.%`-.%`=
   1c5bc:	354825e0 3dc025e8 2f6025f0 3f6025f8     .%H5.%.=.%`/.%`?
   1c5cc:	34002600 34802608 34082610 31a02618     .&.4.&.4.&.4.&.1
   1c5dc:	34102620 2c882628 34182630 33a02638      &.4(&.,0&.48&.3
   1c5ec:	34402640 34c02648 34482650 35a02658     @&@4H&.4P&H4X&.5
   1c5fc:	34502660 2cc82668 27a02670 37a02678     `&P4h&.,p&.'x&.7
   1c60c:	34202680 34882688 29a02690 39a02698     .& 4.&.4.&.).&.9
   1c61c:	305826a0 3c8826a8 2ba026b0 3ba026b8     .&X0.&.<.&.+.&.;
   1c62c:	346026c0 34c826c8 2da026d0 3da026d8     .&`4.&.4.&.-.&.=
   1c63c:	315826e0 3cc826e8 2fa026f0 3fa026f8     .&X1.&.<.&./.&.?
   1c64c:	35002700 35802708 35082710 31e02718     .'.5.'.5.'.5.'.1
   1c65c:	35102720 2d882728 35182730 33e02738      '.5('.-0'.58'.3
   1c66c:	35402740 35c02748 35482750 35e02758     @'@5H'.5P'H5X'.5
   1c67c:	35502760 2dc82768 27e02770 37e02778     `'P5h'.-p'.'x'.7
   1c68c:	35202780 35882788 29e02790 39e02798     .' 5.'.5.'.).'.9
   1c69c:	345827a0 3d8827a8 2be027b0 3be027b8     .'X4.'.=.'.+.'.;
   1c6ac:	356027c0 35c827c8 2de027d0 3de027d8     .'`5.'.5.'.-.'.=
   1c6bc:	355827e0 3dc827e8 2fe027f0 3fe027f8     .'X5.'.=.'./.'.?
   1c6cc:	28202808 28802810 30282818 28902828     .( (.(.(.((0((.(
   1c6dc:	28882830 32282838 2c002840 2c202848     0(.(8((2@(.,H( ,
   1c6ec:	2c802850 34282858 2c082860 28d02868     P(.,X((4`(.,h(.(
   1c6fc:	2c882870 36282878 30902888 38282898     p(.,x((6.(.0.((8
   1c70c:	302828a0 389028a8 2a2828b0 3a2828b8     .((0.(.8.((*.((:
   1c71c:	2c1028c0 30d028c8 2c2828d0 3c2828d8     .(.,.(.0.((,.((<
   1c72c:	2c1828e0 38d028e8 2e2828f0 3e2828f8     .(.,.(.8.((..((>
   1c73c:	2c002900 2c082908 2c102910 30682918     .).,.).,.).,.)h0
   1c74c:	2c202920 29902928 30d02930 32682938      ) ,().)0).08)h2
   1c75c:	2c402940 2c602948 2cc02950 34682958     @)@,H)`,P).,X)h4
   1c76c:	2c482960 29d02968 2cc82970 36682978     `)H,h).)p).,x)h6
   1c77c:	2c802980 31902988 2c282990 38682998     .).,.).1.)(,.)h8
   1c78c:	342829a0 399029a8 2a6829b0 3a6829b8     .)(4.).9.)h*.)h:
   1c79c:	2c5029c0 31d029c8 2c6829d0 3c6829d8     .)P,.).1.)h,.)h<
   1c7ac:	2c5829e0 39d029e8 2e6829f0 3e6829f8     .)X,.).9.)h..)h>
   1c7bc:	38002a00 38202a08 38802a10 30a82a18     .*.8.* 8.*.8.*.0
   1c7cc:	38082a20 38282a28 38882a30 32a82a38      *.8(*(80*.88*.2
   1c7dc:	3c002a40 3c202a48 3c802a50 34a82a58     @*.<H* <P*.<X*.4
   1c7ec:	3c082a60 3c282a68 3c882a70 36a82a78     `*.<h*(<p*.<x*.6
   1c7fc:	38102a80 30982a88 38902a90 38a82a98     .*.8.*.0.*.8.*.8
   1c80c:	38182aa0 38982aa8 38982ab0 3aa82ab8     .*.8.*.8.*.8.*.:
   1c81c:	3c102ac0 30d82ac8 2ca82ad0 3ca82ad8     .*.<.*.0.*.,.*.<
   1c82c:	3c182ae0 38d82ae8 2ea82af0 3ea82af8     .*.<.*.8.*...*.>
   1c83c:	38402b00 38602b08 38c02b10 30e82b18     .+@8.+`8.+.8.+.0
   1c84c:	38482b20 38682b28 38c82b30 32e82b38      +H8(+h80+.88+.2
   1c85c:	3c402b40 3c602b48 3cc02b50 34e82b58     @+@<H+`<P+.<X+.4
   1c86c:	3c482b60 3c682b68 3cc82b70 36e82b78     `+H<h+h<p+.<x+.6
   1c87c:	38502b80 31982b88 38d02b90 38e82b98     .+P8.+.1.+.8.+.8
   1c88c:	38582ba0 39982ba8 38d82bb0 3ae82bb8     .+X8.+.9.+.8.+.:
   1c89c:	3c502bc0 31d82bc8 2ce82bd0 3ce82bd8     .+P<.+.1.+.,.+.<
   1c8ac:	3c582be0 39d82be8 2ee82bf0 3ee82bf8     .+X<.+.9.+...+.>
   1c8bc:	2c202c08 2c802c10 31282c18 2c902c28     ., ,.,.,.,(1(,.,
   1c8cc:	31902c30 33282c38 2d002c40 2d202c48     0,.18,(3@,.-H, -
   1c8dc:	2d802c50 35282c58 2d082c60 2cd02c68     P,.-X,(5`,.-h,.,
   1c8ec:	2d882c70 37282c78 34902c88 39282c98     p,.-x,(7.,.4.,(9
   1c8fc:	30682ca0 3c902ca8 38682cb0 3b282cb8     .,h0.,.<.,h8.,(;
   1c90c:	2d102cc0 34d02cc8 2d282cd0 3d282cd8     .,.-.,.4.,(-.,(=
   1c91c:	2d182ce0 3cd02ce8 2f282cf0 3f282cf8     .,.-.,.<.,(/.,(?
   1c92c:	2d202d08 2d802d10 31682d18 2d902d28     .- -.-.-.-h1(-.-
   1c93c:	31d02d30 33682d38 2d602d48 2dc02d50     0-.18-h3H-`-P-.-
   1c94c:	35682d58 2dd02d68 2dc82d70 37682d78     X-h5h-.-p-.-x-h7
   1c95c:	35902d88 39682d98 34682da0 3d902da8     .-.5.-h9.-h4.-.=
   1c96c:	3c682db0 3b682db8 35d02dc8 3d682dd8     .-h<.-h;.-.5.-h=
   1c97c:	35682de0 3dd02de8 2f682df0 3f682df8     .-h5.-.=.-h/.-h?
   1c98c:	39002e00 39202e08 39802e10 31a82e18     ...9.. 9...9...1
   1c99c:	39082e20 39282e28 39882e30 33a82e38      ..9(.(90..98..3
   1c9ac:	3d002e40 3d202e48 3d802e50 35a82e58     @..=H. =P..=X..5
   1c9bc:	3d082e60 3d282e68 3d882e70 37a82e78     `..=h.(=p..=x..7
   1c9cc:	39102e80 34982e88 39902e90 39a82e98     ...9...4...9...9
   1c9dc:	39182ea0 3c982ea8 39982eb0 3ba82eb8     ...9...<...9...;
   1c9ec:	3d102ec0 34d82ec8 3d902ed0 3da82ed8     ...=...4...=...=
   1c9fc:	3d182ee0 3cd82ee8 2fa82ef0 3fa82ef8     ...=...<.../...?
   1ca0c:	39402f00 39602f08 39c02f10 31e82f18     ./@9./`9./.9./.1
   1ca1c:	39482f20 39682f28 39c82f30 33e82f38      /H9(/h90/.98/.3
   1ca2c:	3d402f40 3d602f48 3dc02f50 35e82f58     @/@=H/`=P/.=X/.5
   1ca3c:	3d482f60 3d682f68 3dc82f70 37e82f78     `/H=h/h=p/.=x/.7
   1ca4c:	39502f80 35982f88 39d02f90 39e82f98     ./P9./.5./.9./.9
   1ca5c:	39582fa0 3d982fa8 39d82fb0 3be82fb8     ./X9./.=./.9./.;
   1ca6c:	3d502fc0 35d82fc8 3dd02fd0 3de82fd8     ./P=./.5./.=./.=
   1ca7c:	3d582fe0 3dd82fe8 3dd82ff0 3fe82ff8     ./X=./.=./.=./.?
   1ca8c:	30303018 32303038 31003040 31083048     .0008002@0.1H0.1
   1ca9c:	31103050 34303058 31203060 31283068     P0.1X004`0 1h0(1
   1caac:	34183070 36303078 30a03088 38303098     p0.4x006.0.0.008
   1cabc:	38a030a8 388830b0 3a3030b8 318030c0     .0.8.0.8.00:.0.1
   1cacc:	30e030c8 319030d0 3c3030d8 318830e0     .0.0.0.1.00<.0.1
   1cadc:	38e030e8 398830f0 3e3030f8 34003100     .0.8.0.9.00>.1.4
   1caec:	34083108 34103110 34183118 34203120     .1.4.1.4.1.4 1 4
   1cafc:	34283128 34303130 32703138 35003140     (1(4010481p2@1.5
   1cb0c:	35083148 35103150 34703158 35203160     H1.5P1.5X1p4`1 5
   1cb1c:	35283168 34583170 36703178 34803180     h1(5p1X4x1p6.1.4
   1cb2c:	31a03188 34903190 38703198 348831a0     .1.1.1.4.1p8.1.4
   1cb3c:	39a031a8 3c8831b0 3a7031b8 358031c0     .1.9.1.<.1p:.1.5
   1cb4c:	31e031c8 359031d0 3c7031d8 358831e0     .1.1.1.5.1p<.1.5
   1cb5c:	39e031e8 3d8831f0 3e7031f8 38003200     .1.9.1.=.1p>.2.8
   1cb6c:	38803208 38083210 38883218 38103220     .2.8.2.8.2.8 2.8
   1cb7c:	38903228 38183230 32b03238 38403240     (2.802.882.2@2@8
   1cb8c:	38c03248 38483250 34b03258 38503260     H2.8P2H8X2.4`2P8
   1cb9c:	38d03268 38583270 36b03278 38203280     h2.8p2X8x2.6.2 8
   1cbac:	38a03288 38283290 38b03298 383032a0     .2.8.2(8.2.8.208
   1cbbc:	38a832a8 389832b0 3ab032b8 386032c0     .2.8.2.8.2.:.2`8
   1cbcc:	38e032c8 386832d0 3cb032d8 387032e0     .2.8.2h8.2.<.2p8
   1cbdc:	38e832e8 399832f0 3eb032f8 39003300     .2.8.2.9.2.>.3.9
   1cbec:	39803308 39083310 39883318 39103320     .3.9.3.9.3.9 3.9
   1cbfc:	39903328 39183330 39983338 39403340     (3.903.983.9@3@9
   1cc0c:	39c03348 39483350 34f03358 39503360     H3.9P3H9X3.4`3P9
   1cc1c:	39d03368 39583370 36f03378 39203380     h3.9p3X9x3.6.3 9
   1cc2c:	39a03388 39283390 38f03398 349833a0     .3.9.3(9.3.8.3.4
   1cc3c:	39a833a8 3c9833b0 3af033b8 396033c0     .3.9.3.<.3.:.3`9
   1cc4c:	39e033c8 396833d0 3cf033d8 359833e0     .3.9.3h9.3.<.3.5
   1cc5c:	39e833e8 3d9833f0 3ef033f8 34303418     .3.9.3.=.3.>.404
   1cc6c:	39183438 35003440 35083448 35103450     84.9@4.5H4.5P4.5
   1cc7c:	35303458 35203460 35283468 35183470     X405`4 5h4(5p4.5
   1cc8c:	37303478 34a03488 39303498 3ca034a8     x407.4.4.409.4.<
   1cc9c:	38c834b0 3b3034b8 358034c0 34e034c8     .4.8.40;.4.5.4.4
   1ccac:	359034d0 3d3034d8 358834e0 3ce034e8     .4.5.40=.4.5.4.<
   1ccbc:	39c834f0 3f3034f8 35303518 39583538     .4.9.40?.50585X9
   1cccc:	35703558 37703578 35a03588 39703598     X5p5x5p7.5.5.5p9
   1ccdc:	3da035a8 3cc835b0 3b7035b8 35e035c8     .5.=.5.<.5p;.5.5
   1ccec:	3d7035d8 3de035e8 3dc835f0 3f7035f8     .5p=.5.=.5.=.5p?
   1ccfc:	3c003600 3c803608 3c083610 3c883618     .6.<.6.<.6.<.6.<
   1cd0c:	3c103620 3c903628 3c183630 3c983638      6.<(6.<06.<86.<
   1cd1c:	3c403640 3cc03648 3c483650 3cc83658     @6@<H6.<P6H<X6.<
   1cd2c:	3c503660 3cd03668 3c583670 37b03678     `6P<h6.<p6X<x6.7
   1cd3c:	3c203680 3ca03688 3c283690 39b03698     .6 <.6.<.6(<.6.9
   1cd4c:	3c3036a0 3ca836a8 38d836b0 3bb036b8     .60<.6.<.6.8.6.;
   1cd5c:	3c6036c0 3ce036c8 3c6836d0 3db036d8     .6`<.6.<.6h<.6.=
   1cd6c:	3c7036e0 3ce836e8 39d836f0 3fb036f8     .6p<.6.<.6.9.6.?
   1cd7c:	3d003700 3d803708 3d083710 3d883718     .7.=.7.=.7.=.7.=
   1cd8c:	3d103720 3d903728 3d183730 3d983738      7.=(7.=07.=87.=
   1cd9c:	3d403740 3dc03748 3d483750 3dc83758     @7@=H7.=P7H=X7.=
   1cdac:	3d503760 3dd03768 3d583770 37f03778     `7P=h7.=p7X=x7.7
   1cdbc:	3d203780 3da03788 3d283790 39f03798     .7 =.7.=.7(=.7.9
   1cdcc:	3d3037a0 3da837a8 3cd837b0 3bf037b8     .70=.7.=.7.<.7.;
   1cddc:	3d6037c0 3de037c8 3d6837d0 3df037d8     .7`=.7.=.7h=.7.=
   1cdec:	3d7037e0 3de837e8 3dd837f0 3ff037f8     .7p=.7.=.7.=.7.?
   1cdfc:	38983838 39003840 39083848 39103850     88.8@8.9H8.9P8.9
   1ce0c:	39183858 39203860 39283868 39303870     X8.9`8 9h8(9p809
   1ce1c:	3c983878 38b038a8 3a3838b8 398038c0     x8.<.8.8.88:.8.9
   1ce2c:	398838c8 399038d0 3c3838d8 39a038e0     .8.9.8.9.88<.8.9
   1ce3c:	38f038e8 3e3838f8 39a838f0 3c003900     .8.8.88>.8.9.9.<
   1ce4c:	3c083908 3c103910 3c183918 3c203920     .9.<.9.<.9.< 9 <
   1ce5c:	3c283928 3c303930 3c383938 3d003940     (9(<090<898<@9.=
   1ce6c:	3d083948 3d103950 3d183958 3d203960     H9.=P9.=X9.=`9 =
   1ce7c:	3d283968 3d303970 3cd83978 3c803980     h9(=p90=x9.<.9.<
   1ce8c:	3c883988 3c903990 3c983998 3ca039a0     .9.<.9.<.9.<.9.<
   1ce9c:	39b039a8 3a7839b8 3ca839b0 3d8039c0     .9.9.9x:.9.<.9.=
   1ceac:	3d8839c8 3d9039d0 3c7839d8 3da039e0     .9.=.9.=.9x<.9.=
   1cebc:	39f039e8 3e7839f8 3da839f0 3a103a08     .9.9.9x>.9.=.:.:
   1cecc:	3a203a10 3a303a18 3a803a20 3a903a28     .: :.:0: :.:(:.:
   1cedc:	3aa03a30 3ab03a38 3b003a40 3b103a48     0:.:8:.:@:.;H:.;
   1ceec:	3b203a50 3b303a58 3b803a60 3b903a68     P: ;X:0;`:.;h:.;
   1cefc:	3ba03a70 3bb03a78 3aa03a88 3ab03a98     p:.;x:.;.:.:.:.:
   1cf0c:	3ab03aa8 3b083ac0 3b183ac8 3b283ad0     .:.:.:.;.:.;.:(;
   1cf1c:	3cb83ad8 3b883ae0 3b983ae8 3ba83af0     .:.<.:.;.:.;.:.;
   1cf2c:	3eb83af8 3e003b00 3e103b08 3e203b10     .:.>.;.>.;.>.; >
   1cf3c:	3e303b18 3e803b20 3e903b28 3ea03b30     .;0> ;.>(;.>0;.>
   1cf4c:	3eb03b38 3f003b40 3f103b48 3f203b50     8;.>@;.?H;.?P; ?
   1cf5c:	3f303b58 3f803b60 3f903b68 3fa03b70     X;0?`;.?h;.?p;.?
   1cf6c:	3fb03b78 3e083b80 3e183b88 3e283b90     x;.?.;.>.;.>.;(>
   1cf7c:	3e383b98 3e883ba0 3e983ba8 3ea83bb0     .;8>.;.>.;.>.;.>
   1cf8c:	3eb83bb8 3f083bc0 3f183bc8 3f283bd0     .;.>.;.?.;.?.;(?
   1cf9c:	3cf83bd8 3f883be0 3f983be8 3fa83bf0     .;.<.;.?.;.?.;.?
   1cfac:	3ef83bf8 3c983c38 3d003c40 3d083c48     .;.>8<.<@<.=H<.=
   1cfbc:	3d103c50 3d183c58 3d203c60 3d283c68     P<.=X<.=`< =h<(=
   1cfcc:	3d303c70 3d983c78 3cb03ca8 3eb03cb8     p<0=x<.=.<.<.<.>
   1cfdc:	3d803cc0 3d883cc8 3d903cd0 3d383cd8     .<.=.<.=.<.=.<8=
   1cfec:	3da03ce0 3cf03ce8 3da83cf0 3f383cf8     .<.=.<.<.<.=.<8?
   1cffc:	3d983d38 3dd83d78 3db03da8 3fb03db8     8=.=x=.=.=.=.=.?
   1d00c:	3df03de8 3e803e08 3f783df8 3e803e10     .=.=.>.>.=x?.>.>
   1d01c:	3e883e18 3e803e20 3e903e28 3e883e30     .>.> >.>(>.>0>.>
   1d02c:	3e983e38 3f003e40 3f203e48 3f803e50     8>.>@>.?H> ?P>.?
   1d03c:	3fa03e58 3f083e60 3f283e68 3f883e70     X>.?`>.?h>(?p>.?
   1d04c:	3fa83e78 3ea03e88 3ea83e98 3f103ec0     x>.?.>.>.>.>.>.?
   1d05c:	3eb03ea8 3f303ec8 3f903ed0 3fb03ed8     .>.>.>0?.>.?.>.?
   1d06c:	3f183ee0 3f383ee8 3f983ef0 3f803f08     .>.?.>8?.>.?.?.?
   1d07c:	3fb83ef8 3f803f10 3f883f18 3f803f20     .>.?.?.?.?.? ?.?
   1d08c:	3f903f28 3f883f30 3f983f38 3f503f48     (?.?0?.?8?.?H?P?
   1d09c:	3f603f50 3f703f58 3fc03f60 3fd03f68     P?`?X?p?`?.?h?.?
   1d0ac:	3fe03f70 3ff03f78 3fa03f88 3fa83f98     p?.?x?.?.?.?.?.?
   1d0bc:	3fb03fa8 3ff03fd8 3fe03fc8 3ff03fe8     .?.?.?.?.?.?.?.?

0001d0cc <armBitRevIndexTable4096>:
   1d0cc:	10000008 20000010 30000018 40000020     ....... ...0 ..@
   1d0dc:	50000028 60000030 70000038 02000040     (..P0..`8..p@...
   1d0ec:	12000048 22000050 32000058 42000060     H...P.."X..2`..B
   1d0fc:	52000068 62000070 72000078 04000080     h..Rp..bx..r....
   1d10c:	14000088 24000090 34000098 440000a0     .......$...4...D
   1d11c:	540000a8 640000b0 740000b8 060000c0     ...T...d...t....
   1d12c:	160000c8 260000d0 360000d8 460000e0     .......&...6...F
   1d13c:	560000e8 660000f0 760000f8 08000100     ...V...f...v....
   1d14c:	18000108 28000110 38000118 48000120     .......(...8 ..H
   1d15c:	58000128 68000130 78000138 0a000140     (..X0..h8..x@...
   1d16c:	1a000148 2a000150 3a000158 4a000160     H...P..*X..:`..J
   1d17c:	5a000168 6a000170 7a000178 0c000180     h..Zp..jx..z....
   1d18c:	1c000188 2c000190 3c000198 4c0001a0     .......,...<...L
   1d19c:	5c0001a8 6c0001b0 7c0001b8 0e0001c0     ...\...l...|....
   1d1ac:	1e0001c8 2e0001d0 3e0001d8 4e0001e0     ...........>...N
   1d1bc:	5e0001e8 6e0001f0 7e0001f8 10400208     ...^...n...~..@.
   1d1cc:	20400210 30400218 40400220 50400228     ..@ ..@0 .@@(.@P
   1d1dc:	60400230 70400238 12400248 22400250     0.@`8.@pH.@.P.@"
   1d1ec:	32400258 42400260 52400268 62400270     X.@2`.@Bh.@Rp.@b
   1d1fc:	72400278 04400280 14400288 24400290     x.@r..@...@...@$
   1d20c:	34400298 444002a0 544002a8 644002b0     ..@4..@D..@T..@d
   1d21c:	744002b8 064002c0 164002c8 264002d0     ..@t..@...@...@&
   1d22c:	364002d8 464002e0 564002e8 664002f0     ..@6..@F..@V..@f
   1d23c:	764002f8 08400300 18400308 28400310     ..@v..@...@...@(
   1d24c:	38400318 48400320 58400328 68400330     ..@8 .@H(.@X0.@h
   1d25c:	78400338 0a400340 1a400348 2a400350     8.@x@.@.H.@.P.@*
   1d26c:	3a400358 4a400360 5a400368 6a400370     X.@:`.@Jh.@Zp.@j
   1d27c:	7a400378 0c400380 1c400388 2c400390     x.@z..@...@...@,
   1d28c:	3c400398 4c4003a0 5c4003a8 6c4003b0     ..@<..@L..@\..@l
   1d29c:	7c4003b8 0e4003c0 1e4003c8 2e4003d0     ..@|..@...@...@.
   1d2ac:	3e4003d8 4e4003e0 5e4003e8 6e4003f0     ..@>..@N..@^..@n
   1d2bc:	7e4003f8 10800408 20800410 30800418     ..@~....... ...0
   1d2cc:	40800420 50800428 60800430 70800438      ..@(..P0..`8..p
   1d2dc:	12800448 22800450 32800458 42800460     H...P.."X..2`..B
   1d2ec:	52800468 62800470 72800478 14800488     h..Rp..bx..r....
   1d2fc:	24800490 34800498 448004a0 548004a8     ...$...4...D...T
   1d30c:	648004b0 748004b8 068004c0 168004c8     ...d...t........
   1d31c:	268004d0 368004d8 468004e0 568004e8     ...&...6...F...V
   1d32c:	668004f0 768004f8 08800500 18800508     ...f...v........
   1d33c:	28800510 38800518 48800520 58800528     ...(...8 ..H(..X
   1d34c:	68800530 78800538 0a800540 1a800548     0..h8..x@...H...
   1d35c:	2a800550 3a800558 4a800560 5a800568     P..*X..:`..Jh..Z
   1d36c:	6a800570 7a800578 0c800580 1c800588     p..jx..z........
   1d37c:	2c800590 3c800598 4c8005a0 5c8005a8     ...,...<...L...\
   1d38c:	6c8005b0 7c8005b8 0e8005c0 1e8005c8     ...l...|........
   1d39c:	2e8005d0 3e8005d8 4e8005e0 5e8005e8     .......>...N...^
   1d3ac:	6e8005f0 7e8005f8 10c00608 20c00610     ...n...~....... 
   1d3bc:	30c00618 40c00620 50c00628 60c00630     ...0 ..@(..P0..`
   1d3cc:	70c00638 12c00648 22c00650 32c00658     8..pH...P.."X..2
   1d3dc:	42c00660 52c00668 62c00670 72c00678     `..Bh..Rp..bx..r
   1d3ec:	14c00688 24c00690 34c00698 44c006a0     .......$...4...D
   1d3fc:	54c006a8 64c006b0 74c006b8 16c006c8     ...T...d...t....
   1d40c:	26c006d0 36c006d8 46c006e0 56c006e8     ...&...6...F...V
   1d41c:	66c006f0 76c006f8 08c00700 18c00708     ...f...v........
   1d42c:	28c00710 38c00718 48c00720 58c00728     ...(...8 ..H(..X
   1d43c:	68c00730 78c00738 0ac00740 1ac00748     0..h8..x@...H...
   1d44c:	2ac00750 3ac00758 4ac00760 5ac00768     P..*X..:`..Jh..Z
   1d45c:	6ac00770 7ac00778 0cc00780 1cc00788     p..jx..z........
   1d46c:	2cc00790 3cc00798 4cc007a0 5cc007a8     ...,...<...L...\
   1d47c:	6cc007b0 7cc007b8 0ec007c0 1ec007c8     ...l...|........
   1d48c:	2ec007d0 3ec007d8 4ec007e0 5ec007e8     .......>...N...^
   1d49c:	6ec007f0 7ec007f8 11000808 21000810     ...n...~.......!
   1d4ac:	31000818 41000820 51000828 61000830     ...1 ..A(..Q0..a
   1d4bc:	71000838 13000848 23000850 33000858     8..qH...P..#X..3
   1d4cc:	43000860 53000868 63000870 73000878     `..Ch..Sp..cx..s
   1d4dc:	15000888 25000890 35000898 450008a0     .......%...5...E
   1d4ec:	550008a8 650008b0 750008b8 170008c8     ...U...e...u....
   1d4fc:	270008d0 370008d8 470008e0 570008e8     ...'...7...G...W
   1d50c:	670008f0 770008f8 19000908 29000910     ...g...w.......)
   1d51c:	39000918 49000920 59000928 69000930     ...9 ..I(..Y0..i
   1d52c:	79000938 0b000940 1b000948 2b000950     8..y@...H...P..+
   1d53c:	3b000958 4b000960 5b000968 6b000970     X..;`..Kh..[p..k
   1d54c:	7b000978 0d000980 1d000988 2d000990     x..{...........-
   1d55c:	3d000998 4d0009a0 5d0009a8 6d0009b0     ...=...M...]...m
   1d56c:	7d0009b8 0f0009c0 1f0009c8 2f0009d0     ...}.........../
   1d57c:	3f0009d8 4f0009e0 5f0009e8 6f0009f0     ...?...O..._...o
   1d58c:	7f0009f8 11400a08 21400a10 31400a18     ......@...@!..@1
   1d59c:	41400a20 51400a28 61400a30 71400a38      .@A(.@Q0.@a8.@q
   1d5ac:	13400a48 23400a50 33400a58 43400a60     H.@.P.@#X.@3`.@C
   1d5bc:	53400a68 63400a70 73400a78 15400a88     h.@Sp.@cx.@s..@.
   1d5cc:	25400a90 35400a98 45400aa0 55400aa8     ..@%..@5..@E..@U
   1d5dc:	65400ab0 75400ab8 17400ac8 27400ad0     ..@e..@u..@...@'
   1d5ec:	37400ad8 47400ae0 57400ae8 67400af0     ..@7..@G..@W..@g
   1d5fc:	77400af8 19400b08 29400b10 39400b18     ..@w..@...@)..@9
   1d60c:	49400b20 59400b28 69400b30 79400b38      .@I(.@Y0.@i8.@y
   1d61c:	1b400b48 2b400b50 3b400b58 4b400b60     H.@.P.@+X.@;`.@K
   1d62c:	5b400b68 6b400b70 7b400b78 0d400b80     h.@[p.@kx.@{..@.
   1d63c:	1d400b88 2d400b90 3d400b98 4d400ba0     ..@...@-..@=..@M
   1d64c:	5d400ba8 6d400bb0 7d400bb8 0f400bc0     ..@]..@m..@}..@.
   1d65c:	1f400bc8 2f400bd0 3f400bd8 4f400be0     ..@...@/..@?..@O
   1d66c:	5f400be8 6f400bf0 7f400bf8 11800c08     ..@_..@o..@.....
   1d67c:	21800c10 31800c18 41800c20 51800c28     ...!...1 ..A(..Q
   1d68c:	61800c30 71800c38 13800c48 23800c50     0..a8..qH...P..#
   1d69c:	33800c58 43800c60 53800c68 63800c70     X..3`..Ch..Sp..c
   1d6ac:	73800c78 15800c88 25800c90 35800c98     x..s.......%...5
   1d6bc:	45800ca0 55800ca8 65800cb0 75800cb8     ...E...U...e...u
   1d6cc:	17800cc8 27800cd0 37800cd8 47800ce0     .......'...7...G
   1d6dc:	57800ce8 67800cf0 77800cf8 19800d08     ...W...g...w....
   1d6ec:	29800d10 39800d18 49800d20 59800d28     ...)...9 ..I(..Y
   1d6fc:	69800d30 79800d38 1b800d48 2b800d50     0..i8..yH...P..+
   1d70c:	3b800d58 4b800d60 5b800d68 6b800d70     X..;`..Kh..[p..k
   1d71c:	7b800d78 1d800d88 2d800d90 3d800d98     x..{.......-...=
   1d72c:	4d800da0 5d800da8 6d800db0 7d800db8     ...M...]...m...}
   1d73c:	0f800dc0 1f800dc8 2f800dd0 3f800dd8     .........../...?
   1d74c:	4f800de0 5f800de8 6f800df0 7f800df8     ...O..._...o....
   1d75c:	11c00e08 21c00e10 31c00e18 41c00e20     .......!...1 ..A
   1d76c:	51c00e28 61c00e30 71c00e38 13c00e48     (..Q0..a8..qH...
   1d77c:	23c00e50 33c00e58 43c00e60 53c00e68     P..#X..3`..Ch..S
   1d78c:	63c00e70 73c00e78 15c00e88 25c00e90     p..cx..s.......%
   1d79c:	35c00e98 45c00ea0 55c00ea8 65c00eb0     ...5...E...U...e
   1d7ac:	75c00eb8 17c00ec8 27c00ed0 37c00ed8     ...u.......'...7
   1d7bc:	47c00ee0 57c00ee8 67c00ef0 77c00ef8     ...G...W...g...w
   1d7cc:	19c00f08 29c00f10 39c00f18 49c00f20     .......)...9 ..I
   1d7dc:	59c00f28 69c00f30 79c00f38 1bc00f48     (..Y0..i8..yH...
   1d7ec:	2bc00f50 3bc00f58 4bc00f60 5bc00f68     P..+X..;`..Kh..[
   1d7fc:	6bc00f70 7bc00f78 1dc00f88 2dc00f90     p..kx..{.......-
   1d80c:	3dc00f98 4dc00fa0 5dc00fa8 6dc00fb0     ...=...M...]...m
   1d81c:	7dc00fb8 1fc00fc8 2fc00fd0 3fc00fd8     ...}......./...?
   1d82c:	4fc00fe0 5fc00fe8 6fc00ff0 7fc00ff8     ...O..._...o....
   1d83c:	20081010 30081018 40081020 50081028     ... ...0 ..@(..P
   1d84c:	60081030 70081038 12081048 22081050     0..`8..pH...P.."
   1d85c:	32081058 42081060 52081068 62081070     X..2`..Bh..Rp..b
   1d86c:	72081078 14081088 24081090 34081098     x..r.......$...4
   1d87c:	440810a0 540810a8 640810b0 740810b8     ...D...T...d...t
   1d88c:	160810c8 260810d0 360810d8 460810e0     .......&...6...F
   1d89c:	560810e8 660810f0 760810f8 18081108     ...V...f...v....
   1d8ac:	28081110 38081118 48081120 58081128     ...(...8 ..H(..X
   1d8bc:	68081130 78081138 1a081148 2a081150     0..h8..xH...P..*
   1d8cc:	3a081158 4a081160 5a081168 6a081170     X..:`..Jh..Zp..j
   1d8dc:	7a081178 1c081188 2c081190 3c081198     x..z.......,...<
   1d8ec:	4c0811a0 5c0811a8 6c0811b0 7c0811b8     ...L...\...l...|
   1d8fc:	1e0811c8 2e0811d0 3e0811d8 4e0811e0     ...........>...N
   1d90c:	5e0811e8 6e0811f0 7e0811f8 20481210     ...^...n...~..H 
   1d91c:	30481218 40481220 50481228 60481230     ..H0 .H@(.HP0.H`
   1d92c:	70481238 22481250 32481258 42481260     8.HpP.H"X.H2`.HB
   1d93c:	52481268 62481270 72481278 14481288     h.HRp.Hbx.Hr..H.
   1d94c:	24481290 34481298 444812a0 544812a8     ..H$..H4..HD..HT
   1d95c:	644812b0 744812b8 164812c8 264812d0     ..Hd..Ht..H...H&
   1d96c:	364812d8 464812e0 564812e8 664812f0     ..H6..HF..HV..Hf
   1d97c:	764812f8 18481308 28481310 38481318     ..Hv..H...H(..H8
   1d98c:	48481320 58481328 68481330 78481338      .HH(.HX0.Hh8.Hx
   1d99c:	1a481348 2a481350 3a481358 4a481360     H.H.P.H*X.H:`.HJ
   1d9ac:	5a481368 6a481370 7a481378 1c481388     h.HZp.Hjx.Hz..H.
   1d9bc:	2c481390 3c481398 4c4813a0 5c4813a8     ..H,..H<..HL..H\
   1d9cc:	6c4813b0 7c4813b8 1e4813c8 2e4813d0     ..Hl..H|..H...H.
   1d9dc:	3e4813d8 4e4813e0 5e4813e8 6e4813f0     ..H>..HN..H^..Hn
   1d9ec:	7e4813f8 20881410 30881418 40881420     ..H~... ...0 ..@
   1d9fc:	50881428 60881430 70881438 22881450     (..P0..`8..pP.."
   1da0c:	32881458 42881460 52881468 62881470     X..2`..Bh..Rp..b
   1da1c:	72881478 24881490 34881498 448814a0     x..r...$...4...D
   1da2c:	548814a8 648814b0 748814b8 168814c8     ...T...d...t....
   1da3c:	268814d0 368814d8 468814e0 568814e8     ...&...6...F...V
   1da4c:	668814f0 768814f8 18881508 28881510     ...f...v.......(
   1da5c:	38881518 48881520 58881528 68881530     ...8 ..H(..X0..h
   1da6c:	78881538 1a881548 2a881550 3a881558     8..xH...P..*X..:
   1da7c:	4a881560 5a881568 6a881570 7a881578     `..Jh..Zp..jx..z
   1da8c:	1c881588 2c881590 3c881598 4c8815a0     .......,...<...L
   1da9c:	5c8815a8 6c8815b0 7c8815b8 1e8815c8     ...\...l...|....
   1daac:	2e8815d0 3e8815d8 4e8815e0 5e8815e8     .......>...N...^
   1dabc:	6e8815f0 7e8815f8 20c81610 30c81618     ...n...~... ...0
   1dacc:	40c81620 50c81628 60c81630 70c81638      ..@(..P0..`8..p
   1dadc:	22c81650 32c81658 42c81660 52c81668     P.."X..2`..Bh..R
   1daec:	62c81670 72c81678 24c81690 34c81698     p..bx..r...$...4
   1dafc:	44c816a0 54c816a8 64c816b0 74c816b8     ...D...T...d...t
   1db0c:	26c816d0 36c816d8 46c816e0 56c816e8     ...&...6...F...V
   1db1c:	66c816f0 76c816f8 18c81708 28c81710     ...f...v.......(
   1db2c:	38c81718 48c81720 58c81728 68c81730     ...8 ..H(..X0..h
   1db3c:	78c81738 1ac81748 2ac81750 3ac81758     8..xH...P..*X..:
   1db4c:	4ac81760 5ac81768 6ac81770 7ac81778     `..Jh..Zp..jx..z
   1db5c:	1cc81788 2cc81790 3cc81798 4cc817a0     .......,...<...L
   1db6c:	5cc817a8 6cc817b0 7cc817b8 1ec817c8     ...\...l...|....
   1db7c:	2ec817d0 3ec817d8 4ec817e0 5ec817e8     .......>...N...^
   1db8c:	6ec817f0 7ec817f8 21081810 31081818     ...n...~...!...1
   1db9c:	41081820 51081828 61081830 71081838      ..A(..Q0..a8..q
   1dbac:	23081850 33081858 43081860 53081868     P..#X..3`..Ch..S
   1dbbc:	63081870 73081878 25081890 35081898     p..cx..s...%...5
   1dbcc:	450818a0 550818a8 650818b0 750818b8     ...E...U...e...u
   1dbdc:	270818d0 370818d8 470818e0 570818e8     ...'...7...G...W
   1dbec:	670818f0 770818f8 29081910 39081918     ...g...w...)...9
   1dbfc:	49081920 59081928 69081930 79081938      ..I(..Y0..i8..y
   1dc0c:	1b081948 2b081950 3b081958 4b081960     H...P..+X..;`..K
   1dc1c:	5b081968 6b081970 7b081978 1d081988     h..[p..kx..{....
   1dc2c:	2d081990 3d081998 4d0819a0 5d0819a8     ...-...=...M...]
   1dc3c:	6d0819b0 7d0819b8 1f0819c8 2f0819d0     ...m...}......./
   1dc4c:	3f0819d8 4f0819e0 5f0819e8 6f0819f0     ...?...O..._...o
   1dc5c:	7f0819f8 21481a10 31481a18 41481a20     ......H!..H1 .HA
   1dc6c:	51481a28 61481a30 71481a38 23481a50     (.HQ0.Ha8.HqP.H#
   1dc7c:	33481a58 43481a60 53481a68 63481a70     X.H3`.HCh.HSp.Hc
   1dc8c:	73481a78 25481a90 35481a98 45481aa0     x.Hs..H%..H5..HE
   1dc9c:	55481aa8 65481ab0 75481ab8 27481ad0     ..HU..He..Hu..H'
   1dcac:	37481ad8 47481ae0 57481ae8 67481af0     ..H7..HG..HW..Hg
   1dcbc:	77481af8 29481b10 39481b18 49481b20     ..Hw..H)..H9 .HI
   1dccc:	59481b28 69481b30 79481b38 2b481b50     (.HY0.Hi8.HyP.H+
   1dcdc:	3b481b58 4b481b60 5b481b68 6b481b70     X.H;`.HKh.H[p.Hk
   1dcec:	7b481b78 1d481b88 2d481b90 3d481b98     x.H{..H...H-..H=
   1dcfc:	4d481ba0 5d481ba8 6d481bb0 7d481bb8     ..HM..H]..Hm..H}
   1dd0c:	1f481bc8 2f481bd0 3f481bd8 4f481be0     ..H...H/..H?..HO
   1dd1c:	5f481be8 6f481bf0 7f481bf8 21881c10     ..H_..Ho..H....!
   1dd2c:	31881c18 41881c20 51881c28 61881c30     ...1 ..A(..Q0..a
   1dd3c:	71881c38 23881c50 33881c58 43881c60     8..qP..#X..3`..C
   1dd4c:	53881c68 63881c70 73881c78 25881c90     h..Sp..cx..s...%
   1dd5c:	35881c98 45881ca0 55881ca8 65881cb0     ...5...E...U...e
   1dd6c:	75881cb8 27881cd0 37881cd8 47881ce0     ...u...'...7...G
   1dd7c:	57881ce8 67881cf0 77881cf8 29881d10     ...W...g...w...)
   1dd8c:	39881d18 49881d20 59881d28 69881d30     ...9 ..I(..Y0..i
   1dd9c:	79881d38 2b881d50 3b881d58 4b881d60     8..yP..+X..;`..K
   1ddac:	5b881d68 6b881d70 7b881d78 2d881d90     h..[p..kx..{...-
   1ddbc:	3d881d98 4d881da0 5d881da8 6d881db0     ...=...M...]...m
   1ddcc:	7d881db8 1f881dc8 2f881dd0 3f881dd8     ...}......./...?
   1dddc:	4f881de0 5f881de8 6f881df0 7f881df8     ...O..._...o....
   1ddec:	21c81e10 31c81e18 41c81e20 51c81e28     ...!...1 ..A(..Q
   1ddfc:	61c81e30 71c81e38 23c81e50 33c81e58     0..a8..qP..#X..3
   1de0c:	43c81e60 53c81e68 63c81e70 73c81e78     `..Ch..Sp..cx..s
   1de1c:	25c81e90 35c81e98 45c81ea0 55c81ea8     ...%...5...E...U
   1de2c:	65c81eb0 75c81eb8 27c81ed0 37c81ed8     ...e...u...'...7
   1de3c:	47c81ee0 57c81ee8 67c81ef0 77c81ef8     ...G...W...g...w
   1de4c:	29c81f10 39c81f18 49c81f20 59c81f28     ...)...9 ..I(..Y
   1de5c:	69c81f30 79c81f38 2bc81f50 3bc81f58     0..i8..yP..+X..;
   1de6c:	4bc81f60 5bc81f68 6bc81f70 7bc81f78     `..Kh..[p..kx..{
   1de7c:	2dc81f90 3dc81f98 4dc81fa0 5dc81fa8     ...-...=...M...]
   1de8c:	6dc81fb0 7dc81fb8 2fc81fd0 3fc81fd8     ...m...}.../...?
   1de9c:	4fc81fe0 5fc81fe8 6fc81ff0 7fc81ff8     ...O..._...o....
   1deac:	30102018 40102020 50102028 60102030     . .0  .@( .P0 .`
   1debc:	70102038 22102050 32102058 42102060     8 .pP ."X .2` .B
   1decc:	52102068 62102070 72102078 24102090     h .Rp .bx .r. .$
   1dedc:	34102098 441020a0 541020a8 641020b0     . .4. .D. .T. .d
   1deec:	741020b8 261020d0 361020d8 461020e0     . .t. .&. .6. .F
   1defc:	561020e8 661020f0 761020f8 28102110     . .V. .f. .v.!.(
   1df0c:	38102118 48102120 58102128 68102130     .!.8 !.H(!.X0!.h
   1df1c:	78102138 2a102150 3a102158 4a102160     8!.xP!.*X!.:`!.J
   1df2c:	5a102168 6a102170 7a102178 2c102190     h!.Zp!.jx!.z.!.,
   1df3c:	3c102198 4c1021a0 5c1021a8 6c1021b0     .!.<.!.L.!.\.!.l
   1df4c:	7c1021b8 2e1021d0 3e1021d8 4e1021e0     .!.|.!...!.>.!.N
   1df5c:	5e1021e8 6e1021f0 7e1021f8 30502218     .!.^.!.n.!.~."P0
   1df6c:	40502220 50502228 60502230 70502238      "P@("PP0"P`8"Pp
   1df7c:	32502258 42502260 52502268 62502270     X"P2`"PBh"PRp"Pb
   1df8c:	72502278 24502290 34502298 445022a0     x"Pr."P$."P4."PD
   1df9c:	545022a8 645022b0 745022b8 265022d0     ."PT."Pd."Pt."P&
   1dfac:	365022d8 465022e0 565022e8 665022f0     ."P6."PF."PV."Pf
   1dfbc:	765022f8 28502310 38502318 48502320     ."Pv.#P(.#P8 #PH
   1dfcc:	58502328 68502330 78502338 2a502350     (#PX0#Ph8#PxP#P*
   1dfdc:	3a502358 4a502360 5a502368 6a502370     X#P:`#PJh#PZp#Pj
   1dfec:	7a502378 2c502390 3c502398 4c5023a0     x#Pz.#P,.#P<.#PL
   1dffc:	5c5023a8 6c5023b0 7c5023b8 2e5023d0     .#P\.#Pl.#P|.#P.
   1e00c:	3e5023d8 4e5023e0 5e5023e8 6e5023f0     .#P>.#PN.#P^.#Pn
   1e01c:	7e5023f8 30902418 40902420 50902428     .#P~.$.0 $.@($.P
   1e02c:	60902430 70902438 32902458 42902460     0$.`8$.pX$.2`$.B
   1e03c:	52902468 62902470 72902478 34902498     h$.Rp$.bx$.r.$.4
   1e04c:	449024a0 549024a8 649024b0 749024b8     .$.D.$.T.$.d.$.t
   1e05c:	269024d0 369024d8 469024e0 569024e8     .$.&.$.6.$.F.$.V
   1e06c:	669024f0 769024f8 28902510 38902518     .$.f.$.v.%.(.%.8
   1e07c:	48902520 58902528 68902530 78902538      %.H(%.X0%.h8%.x
   1e08c:	2a902550 3a902558 4a902560 5a902568     P%.*X%.:`%.Jh%.Z
   1e09c:	6a902570 7a902578 2c902590 3c902598     p%.jx%.z.%.,.%.<
   1e0ac:	4c9025a0 5c9025a8 6c9025b0 7c9025b8     .%.L.%.\.%.l.%.|
   1e0bc:	2e9025d0 3e9025d8 4e9025e0 5e9025e8     .%...%.>.%.N.%.^
   1e0cc:	6e9025f0 7e9025f8 30d02618 40d02620     .%.n.%.~.&.0 &.@
   1e0dc:	50d02628 60d02630 70d02638 32d02658     (&.P0&.`8&.pX&.2
   1e0ec:	42d02660 52d02668 62d02670 72d02678     `&.Bh&.Rp&.bx&.r
   1e0fc:	34d02698 44d026a0 54d026a8 64d026b0     .&.4.&.D.&.T.&.d
   1e10c:	74d026b8 36d026d8 46d026e0 56d026e8     .&.t.&.6.&.F.&.V
   1e11c:	66d026f0 76d026f8 28d02710 38d02718     .&.f.&.v.'.(.'.8
   1e12c:	48d02720 58d02728 68d02730 78d02738      '.H('.X0'.h8'.x
   1e13c:	2ad02750 3ad02758 4ad02760 5ad02768     P'.*X'.:`'.Jh'.Z
   1e14c:	6ad02770 7ad02778 2cd02790 3cd02798     p'.jx'.z.'.,.'.<
   1e15c:	4cd027a0 5cd027a8 6cd027b0 7cd027b8     .'.L.'.\.'.l.'.|
   1e16c:	2ed027d0 3ed027d8 4ed027e0 5ed027e8     .'...'.>.'.N.'.^
   1e17c:	6ed027f0 7ed027f8 31102818 41102820     .'.n.'.~.(.1 (.A
   1e18c:	51102828 61102830 71102838 33102858     ((.Q0(.a8(.qX(.3
   1e19c:	43102860 53102868 63102870 73102878     `(.Ch(.Sp(.cx(.s
   1e1ac:	35102898 451028a0 551028a8 651028b0     .(.5.(.E.(.U.(.e
   1e1bc:	751028b8 371028d8 471028e0 571028e8     .(.u.(.7.(.G.(.W
   1e1cc:	671028f0 771028f8 39102918 49102920     .(.g.(.w.).9 ).I
   1e1dc:	59102928 69102930 79102938 2b102950     ().Y0).i8).yP).+
   1e1ec:	3b102958 4b102960 5b102968 6b102970     X).;`).Kh).[p).k
   1e1fc:	7b102978 2d102990 3d102998 4d1029a0     x).{.).-.).=.).M
   1e20c:	5d1029a8 6d1029b0 7d1029b8 2f1029d0     .).].).m.).}.)./
   1e21c:	3f1029d8 4f1029e0 5f1029e8 6f1029f0     .).?.).O.)._.).o
   1e22c:	7f1029f8 31502a18 41502a20 51502a28     .)...*P1 *PA(*PQ
   1e23c:	61502a30 71502a38 33502a58 43502a60     0*Pa8*PqX*P3`*PC
   1e24c:	53502a68 63502a70 73502a78 35502a98     h*PSp*Pcx*Ps.*P5
   1e25c:	45502aa0 55502aa8 65502ab0 75502ab8     .*PE.*PU.*Pe.*Pu
   1e26c:	37502ad8 47502ae0 57502ae8 67502af0     .*P7.*PG.*PW.*Pg
   1e27c:	77502af8 39502b18 49502b20 59502b28     .*Pw.+P9 +PI(+PY
   1e28c:	69502b30 79502b38 3b502b58 4b502b60     0+Pi8+PyX+P;`+PK
   1e29c:	5b502b68 6b502b70 7b502b78 2d502b90     h+P[p+Pkx+P{.+P-
   1e2ac:	3d502b98 4d502ba0 5d502ba8 6d502bb0     .+P=.+PM.+P].+Pm
   1e2bc:	7d502bb8 2f502bd0 3f502bd8 4f502be0     .+P}.+P/.+P?.+PO
   1e2cc:	5f502be8 6f502bf0 7f502bf8 31902c18     .+P_.+Po.+P..,.1
   1e2dc:	41902c20 51902c28 61902c30 71902c38      ,.A(,.Q0,.a8,.q
   1e2ec:	33902c58 43902c60 53902c68 63902c70     X,.3`,.Ch,.Sp,.c
   1e2fc:	73902c78 35902c98 45902ca0 55902ca8     x,.s.,.5.,.E.,.U
   1e30c:	65902cb0 75902cb8 37902cd8 47902ce0     .,.e.,.u.,.7.,.G
   1e31c:	57902ce8 67902cf0 77902cf8 39902d18     .,.W.,.g.,.w.-.9
   1e32c:	49902d20 59902d28 69902d30 79902d38      -.I(-.Y0-.i8-.y
   1e33c:	3b902d58 4b902d60 5b902d68 6b902d70     X-.;`-.Kh-.[p-.k
   1e34c:	7b902d78 3d902d98 4d902da0 5d902da8     x-.{.-.=.-.M.-.]
   1e35c:	6d902db0 7d902db8 2f902dd0 3f902dd8     .-.m.-.}.-./.-.?
   1e36c:	4f902de0 5f902de8 6f902df0 7f902df8     .-.O.-._.-.o.-..
   1e37c:	31d02e18 41d02e20 51d02e28 61d02e30     ...1 ..A(..Q0..a
   1e38c:	71d02e38 33d02e58 43d02e60 53d02e68     8..qX..3`..Ch..S
   1e39c:	63d02e70 73d02e78 35d02e98 45d02ea0     p..cx..s...5...E
   1e3ac:	55d02ea8 65d02eb0 75d02eb8 37d02ed8     ...U...e...u...7
   1e3bc:	47d02ee0 57d02ee8 67d02ef0 77d02ef8     ...G...W...g...w
   1e3cc:	39d02f18 49d02f20 59d02f28 69d02f30     ./.9 /.I(/.Y0/.i
   1e3dc:	79d02f38 3bd02f58 4bd02f60 5bd02f68     8/.yX/.;`/.Kh/.[
   1e3ec:	6bd02f70 7bd02f78 3dd02f98 4dd02fa0     p/.kx/.{./.=./.M
   1e3fc:	5dd02fa8 6dd02fb0 7dd02fb8 3fd02fd8     ./.]./.m./.}./.?
   1e40c:	4fd02fe0 5fd02fe8 6fd02ff0 7fd02ff8     ./.O./._./.o./..
   1e41c:	40183020 50183028 60183030 70183038      0.@(0.P00.`80.p
   1e42c:	32183058 42183060 52183068 62183070     X0.2`0.Bh0.Rp0.b
   1e43c:	72183078 34183098 441830a0 541830a8     x0.r.0.4.0.D.0.T
   1e44c:	641830b0 741830b8 361830d8 461830e0     .0.d.0.t.0.6.0.F
   1e45c:	561830e8 661830f0 761830f8 38183118     .0.V.0.f.0.v.1.8
   1e46c:	48183120 58183128 68183130 78183138      1.H(1.X01.h81.x
   1e47c:	3a183158 4a183160 5a183168 6a183170     X1.:`1.Jh1.Zp1.j
   1e48c:	7a183178 3c183198 4c1831a0 5c1831a8     x1.z.1.<.1.L.1.\
   1e49c:	6c1831b0 7c1831b8 3e1831d8 4e1831e0     .1.l.1.|.1.>.1.N
   1e4ac:	5e1831e8 6e1831f0 7e1831f8 40583220     .1.^.1.n.1.~ 2X@
   1e4bc:	50583228 60583230 70583238 42583260     (2XP02X`82Xp`2XB
   1e4cc:	52583268 62583270 72583278 34583298     h2XRp2Xbx2Xr.2X4
   1e4dc:	445832a0 545832a8 645832b0 745832b8     .2XD.2XT.2Xd.2Xt
   1e4ec:	365832d8 465832e0 565832e8 665832f0     .2X6.2XF.2XV.2Xf
   1e4fc:	765832f8 38583318 48583320 58583328     .2Xv.3X8 3XH(3XX
   1e50c:	68583330 78583338 3a583358 4a583360     03Xh83XxX3X:`3XJ
   1e51c:	5a583368 6a583370 7a583378 3c583398     h3XZp3Xjx3Xz.3X<
   1e52c:	4c5833a0 5c5833a8 6c5833b0 7c5833b8     .3XL.3X\.3Xl.3X|
   1e53c:	3e5833d8 4e5833e0 5e5833e8 6e5833f0     .3X>.3XN.3X^.3Xn
   1e54c:	7e5833f8 40983420 50983428 60983430     .3X~ 4.@(4.P04.`
   1e55c:	70983438 42983460 52983468 62983470     84.p`4.Bh4.Rp4.b
   1e56c:	72983478 449834a0 549834a8 649834b0     x4.r.4.D.4.T.4.d
   1e57c:	749834b8 369834d8 469834e0 569834e8     .4.t.4.6.4.F.4.V
   1e58c:	669834f0 769834f8 38983518 48983520     .4.f.4.v.5.8 5.H
   1e59c:	58983528 68983530 78983538 3a983558     (5.X05.h85.xX5.:
   1e5ac:	4a983560 5a983568 6a983570 7a983578     `5.Jh5.Zp5.jx5.z
   1e5bc:	3c983598 4c9835a0 5c9835a8 6c9835b0     .5.<.5.L.5.\.5.l
   1e5cc:	7c9835b8 3e9835d8 4e9835e0 5e9835e8     .5.|.5.>.5.N.5.^
   1e5dc:	6e9835f0 7e9835f8 40d83620 50d83628     .5.n.5.~ 6.@(6.P
   1e5ec:	60d83630 70d83638 42d83660 52d83668     06.`86.p`6.Bh6.R
   1e5fc:	62d83670 72d83678 44d836a0 54d836a8     p6.bx6.r.6.D.6.T
   1e60c:	64d836b0 74d836b8 46d836e0 56d836e8     .6.d.6.t.6.F.6.V
   1e61c:	66d836f0 76d836f8 38d83718 48d83720     .6.f.6.v.7.8 7.H
   1e62c:	58d83728 68d83730 78d83738 3ad83758     (7.X07.h87.xX7.:
   1e63c:	4ad83760 5ad83768 6ad83770 7ad83778     `7.Jh7.Zp7.jx7.z
   1e64c:	3cd83798 4cd837a0 5cd837a8 6cd837b0     .7.<.7.L.7.\.7.l
   1e65c:	7cd837b8 3ed837d8 4ed837e0 5ed837e8     .7.|.7.>.7.N.7.^
   1e66c:	6ed837f0 7ed837f8 41183820 51183828     .7.n.7.~ 8.A(8.Q
   1e67c:	61183830 71183838 43183860 53183868     08.a88.q`8.Ch8.S
   1e68c:	63183870 73183878 451838a0 551838a8     p8.cx8.s.8.E.8.U
   1e69c:	651838b0 751838b8 471838e0 571838e8     .8.e.8.u.8.G.8.W
   1e6ac:	671838f0 771838f8 49183920 59183928     .8.g.8.w 9.I(9.Y
   1e6bc:	69183930 79183938 3b183958 4b183960     09.i89.yX9.;`9.K
   1e6cc:	5b183968 6b183970 7b183978 3d183998     h9.[p9.kx9.{.9.=
   1e6dc:	4d1839a0 5d1839a8 6d1839b0 7d1839b8     .9.M.9.].9.m.9.}
   1e6ec:	3f1839d8 4f1839e0 5f1839e8 6f1839f0     .9.?.9.O.9._.9.o
   1e6fc:	7f1839f8 41583a20 51583a28 61583a30     .9.. :XA(:XQ0:Xa
   1e70c:	71583a38 43583a60 53583a68 63583a70     8:Xq`:XCh:XSp:Xc
   1e71c:	73583a78 45583aa0 55583aa8 65583ab0     x:Xs.:XE.:XU.:Xe
   1e72c:	75583ab8 47583ae0 57583ae8 67583af0     .:Xu.:XG.:XW.:Xg
   1e73c:	77583af8 49583b20 59583b28 69583b30     .:Xw ;XI(;XY0;Xi
   1e74c:	79583b38 4b583b60 5b583b68 6b583b70     8;Xy`;XKh;X[p;Xk
   1e75c:	7b583b78 3d583b98 4d583ba0 5d583ba8     x;X{.;X=.;XM.;X]
   1e76c:	6d583bb0 7d583bb8 3f583bd8 4f583be0     .;Xm.;X}.;X?.;XO
   1e77c:	5f583be8 6f583bf0 7f583bf8 41983c20     .;X_.;Xo.;X. <.A
   1e78c:	51983c28 61983c30 71983c38 43983c60     (<.Q0<.a8<.q`<.C
   1e79c:	53983c68 63983c70 73983c78 45983ca0     h<.Sp<.cx<.s.<.E
   1e7ac:	55983ca8 65983cb0 75983cb8 47983ce0     .<.U.<.e.<.u.<.G
   1e7bc:	57983ce8 67983cf0 77983cf8 49983d20     .<.W.<.g.<.w =.I
   1e7cc:	59983d28 69983d30 79983d38 4b983d60     (=.Y0=.i8=.y`=.K
   1e7dc:	5b983d68 6b983d70 7b983d78 4d983da0     h=.[p=.kx=.{.=.M
   1e7ec:	5d983da8 6d983db0 7d983db8 3f983dd8     .=.].=.m.=.}.=.?
   1e7fc:	4f983de0 5f983de8 6f983df0 7f983df8     .=.O.=._.=.o.=..
   1e80c:	41d83e20 51d83e28 61d83e30 71d83e38      >.A(>.Q0>.a8>.q
   1e81c:	43d83e60 53d83e68 63d83e70 73d83e78     `>.Ch>.Sp>.cx>.s
   1e82c:	45d83ea0 55d83ea8 65d83eb0 75d83eb8     .>.E.>.U.>.e.>.u
   1e83c:	47d83ee0 57d83ee8 67d83ef0 77d83ef8     .>.G.>.W.>.g.>.w
   1e84c:	49d83f20 59d83f28 69d83f30 79d83f38      ?.I(?.Y0?.i8?.y
   1e85c:	4bd83f60 5bd83f68 6bd83f70 7bd83f78     `?.Kh?.[p?.kx?.{
   1e86c:	4dd83fa0 5dd83fa8 6dd83fb0 7dd83fb8     .?.M.?.].?.m.?.}
   1e87c:	4fd83fe0 5fd83fe8 6fd83ff0 7fd83ff8     .?.O.?._.?.o.?..
   1e88c:	50204028 60204030 70204038 42204060     (@ P0@ `8@ p`@ B
   1e89c:	52204068 62204070 72204078 442040a0     h@ Rp@ bx@ r.@ D
   1e8ac:	542040a8 642040b0 742040b8 462040e0     .@ T.@ d.@ t.@ F
   1e8bc:	562040e8 662040f0 762040f8 48204120     .@ V.@ f.@ v A H
   1e8cc:	58204128 68204130 78204138 4a204160     (A X0A h8A x`A J
   1e8dc:	5a204168 6a204170 7a204178 4c2041a0     hA ZpA jxA z.A L
   1e8ec:	5c2041a8 6c2041b0 7c2041b8 4e2041e0     .A \.A l.A |.A N
   1e8fc:	5e2041e8 6e2041f0 7e2041f8 50604228     .A ^.A n.A ~(B`P
   1e90c:	60604230 70604238 52604268 62604270     0B``8B`phB`RpB`b
   1e91c:	72604278 446042a0 546042a8 646042b0     xB`r.B`D.B`T.B`d
   1e92c:	746042b8 466042e0 566042e8 666042f0     .B`t.B`F.B`V.B`f
   1e93c:	766042f8 48604320 58604328 68604330     .B`v C`H(C`X0C`h
   1e94c:	78604338 4a604360 5a604368 6a604370     8C`x`C`JhC`ZpC`j
   1e95c:	7a604378 4c6043a0 5c6043a8 6c6043b0     xC`z.C`L.C`\.C`l
   1e96c:	7c6043b8 4e6043e0 5e6043e8 6e6043f0     .C`|.C`N.C`^.C`n
   1e97c:	7e6043f8 50a04428 60a04430 70a04438     .C`~(D.P0D.`8D.p
   1e98c:	52a04468 62a04470 72a04478 54a044a8     hD.RpD.bxD.r.D.T
   1e99c:	64a044b0 74a044b8 46a044e0 56a044e8     .D.d.D.t.D.F.D.V
   1e9ac:	66a044f0 76a044f8 48a04520 58a04528     .D.f.D.v E.H(E.X
   1e9bc:	68a04530 78a04538 4aa04560 5aa04568     0E.h8E.x`E.JhE.Z
   1e9cc:	6aa04570 7aa04578 4ca045a0 5ca045a8     pE.jxE.z.E.L.E.\
   1e9dc:	6ca045b0 7ca045b8 4ea045e0 5ea045e8     .E.l.E.|.E.N.E.^
   1e9ec:	6ea045f0 7ea045f8 50e04628 60e04630     .E.n.E.~(F.P0F.`
   1e9fc:	70e04638 52e04668 62e04670 72e04678     8F.phF.RpF.bxF.r
   1ea0c:	54e046a8 64e046b0 74e046b8 56e046e8     .F.T.F.d.F.t.F.V
   1ea1c:	66e046f0 76e046f8 48e04720 58e04728     .F.f.F.v G.H(G.X
   1ea2c:	68e04730 78e04738 4ae04760 5ae04768     0G.h8G.x`G.JhG.Z
   1ea3c:	6ae04770 7ae04778 4ce047a0 5ce047a8     pG.jxG.z.G.L.G.\
   1ea4c:	6ce047b0 7ce047b8 4ee047e0 5ee047e8     .G.l.G.|.G.N.G.^
   1ea5c:	6ee047f0 7ee047f8 51204828 61204830     .G.n.G.~(H Q0H a
   1ea6c:	71204838 53204868 63204870 73204878     8H qhH SpH cxH s
   1ea7c:	552048a8 652048b0 752048b8 572048e8     .H U.H e.H u.H W
   1ea8c:	672048f0 772048f8 59204928 69204930     .H g.H w(I Y0I i
   1ea9c:	79204938 4b204960 5b204968 6b204970     8I y`I KhI [pI k
   1eaac:	7b204978 4d2049a0 5d2049a8 6d2049b0     xI {.I M.I ].I m
   1eabc:	7d2049b8 4f2049e0 5f2049e8 6f2049f0     .I }.I O.I _.I o
   1eacc:	7f2049f8 51604a28 61604a30 71604a38     .I .(J`Q0J`a8J`q
   1eadc:	53604a68 63604a70 73604a78 55604aa8     hJ`SpJ`cxJ`s.J`U
   1eaec:	65604ab0 75604ab8 57604ae8 67604af0     .J`e.J`u.J`W.J`g
   1eafc:	77604af8 59604b28 69604b30 79604b38     .J`w(K`Y0K`i8K`y
   1eb0c:	5b604b68 6b604b70 7b604b78 4d604ba0     hK`[pK`kxK`{.K`M
   1eb1c:	5d604ba8 6d604bb0 7d604bb8 4f604be0     .K`].K`m.K`}.K`O
   1eb2c:	5f604be8 6f604bf0 7f604bf8 51a04c28     .K`_.K`o.K`.(L.Q
   1eb3c:	61a04c30 71a04c38 53a04c68 63a04c70     0L.a8L.qhL.SpL.c
   1eb4c:	73a04c78 55a04ca8 65a04cb0 75a04cb8     xL.s.L.U.L.e.L.u
   1eb5c:	57a04ce8 67a04cf0 77a04cf8 59a04d28     .L.W.L.g.L.w(M.Y
   1eb6c:	69a04d30 79a04d38 5ba04d68 6ba04d70     0M.i8M.yhM.[pM.k
   1eb7c:	7ba04d78 5da04da8 6da04db0 7da04db8     xM.{.M.].M.m.M.}
   1eb8c:	4fa04de0 5fa04de8 6fa04df0 7fa04df8     .M.O.M._.M.o.M..
   1eb9c:	51e04e28 61e04e30 71e04e38 53e04e68     (N.Q0N.a8N.qhN.S
   1ebac:	63e04e70 73e04e78 55e04ea8 65e04eb0     pN.cxN.s.N.U.N.e
   1ebbc:	75e04eb8 57e04ee8 67e04ef0 77e04ef8     .N.u.N.W.N.g.N.w
   1ebcc:	59e04f28 69e04f30 79e04f38 5be04f68     (O.Y0O.i8O.yhO.[
   1ebdc:	6be04f70 7be04f78 5de04fa8 6de04fb0     pO.kxO.{.O.].O.m
   1ebec:	7de04fb8 5fe04fe8 6fe04ff0 7fe04ff8     .O.}.O._.O.o.O..
   1ebfc:	60285030 70285038 52285068 62285070     0P(`8P(phP(RpP(b
   1ec0c:	72285078 542850a8 642850b0 742850b8     xP(r.P(T.P(d.P(t
   1ec1c:	562850e8 662850f0 762850f8 58285128     .P(V.P(f.P(v(Q(X
   1ec2c:	68285130 78285138 5a285168 6a285170     0Q(h8Q(xhQ(ZpQ(j
   1ec3c:	7a285178 5c2851a8 6c2851b0 7c2851b8     xQ(z.Q(\.Q(l.Q(|
   1ec4c:	5e2851e8 6e2851f0 7e2851f8 60685230     .Q(^.Q(n.Q(~0Rh`
   1ec5c:	70685238 62685270 72685278 546852a8     8RhppRhbxRhr.RhT
   1ec6c:	646852b0 746852b8 566852e8 666852f0     .Rhd.Rht.RhV.Rhf
   1ec7c:	766852f8 58685328 68685330 78685338     .Rhv(ShX0Shh8Shx
   1ec8c:	5a685368 6a685370 7a685378 5c6853a8     hShZpShjxShz.Sh\
   1ec9c:	6c6853b0 7c6853b8 5e6853e8 6e6853f0     .Shl.Sh|.Sh^.Shn
   1ecac:	7e6853f8 60a85430 70a85438 62a85470     .Sh~0T.`8T.ppT.b
   1ecbc:	72a85478 64a854b0 74a854b8 56a854e8     xT.r.T.d.T.t.T.V
   1eccc:	66a854f0 76a854f8 58a85528 68a85530     .T.f.T.v(U.X0U.h
   1ecdc:	78a85538 5aa85568 6aa85570 7aa85578     8U.xhU.ZpU.jxU.z
   1ecec:	5ca855a8 6ca855b0 7ca855b8 5ea855e8     .U.\.U.l.U.|.U.^
   1ecfc:	6ea855f0 7ea855f8 60e85630 70e85638     .U.n.U.~0V.`8V.p
   1ed0c:	62e85670 72e85678 64e856b0 74e856b8     pV.bxV.r.V.d.V.t
   1ed1c:	66e856f0 76e856f8 58e85728 68e85730     .V.f.V.v(W.X0W.h
   1ed2c:	78e85738 5ae85768 6ae85770 7ae85778     8W.xhW.ZpW.jxW.z
   1ed3c:	5ce857a8 6ce857b0 7ce857b8 5ee857e8     .W.\.W.l.W.|.W.^
   1ed4c:	6ee857f0 7ee857f8 61285830 71285838     .W.n.W.~0X(a8X(q
   1ed5c:	63285870 73285878 652858b0 752858b8     pX(cxX(s.X(e.X(u
   1ed6c:	672858f0 772858f8 69285930 79285938     .X(g.X(w0Y(i8Y(y
   1ed7c:	5b285968 6b285970 7b285978 5d2859a8     hY([pY(kxY({.Y(]
   1ed8c:	6d2859b0 7d2859b8 5f2859e8 6f2859f0     .Y(m.Y(}.Y(_.Y(o
   1ed9c:	7f2859f8 61685a30 71685a38 63685a70     .Y(.0Zha8ZhqpZhc
   1edac:	73685a78 65685ab0 75685ab8 67685af0     xZhs.Zhe.Zhu.Zhg
   1edbc:	77685af8 69685b30 79685b38 6b685b70     .Zhw0[hi8[hyp[hk
   1edcc:	7b685b78 5d685ba8 6d685bb0 7d685bb8     x[h{.[h].[hm.[h}
   1eddc:	5f685be8 6f685bf0 7f685bf8 61a85c30     .[h_.[ho.[h.0\.a
   1edec:	71a85c38 63a85c70 73a85c78 65a85cb0     8\.qp\.cx\.s.\.e
   1edfc:	75a85cb8 67a85cf0 77a85cf8 69a85d30     .\.u.\.g.\.w0].i
   1ee0c:	79a85d38 6ba85d70 7ba85d78 6da85db0     8].yp].kx].{.].m
   1ee1c:	7da85db8 5fa85de8 6fa85df0 7fa85df8     .].}.]._.].o.]..
   1ee2c:	61e85e30 71e85e38 63e85e70 73e85e78     0^.a8^.qp^.cx^.s
   1ee3c:	65e85eb0 75e85eb8 67e85ef0 77e85ef8     .^.e.^.u.^.g.^.w
   1ee4c:	69e85f30 79e85f38 6be85f70 7be85f78     0_.i8_.yp_.kx_.{
   1ee5c:	6de85fb0 7de85fb8 6fe85ff0 7fe85ff8     ._.m._.}._.o._..
   1ee6c:	70306038 62306070 72306078 643060b0     8`0pp`0bx`0r.`0d
   1ee7c:	743060b8 663060f0 763060f8 68306130     .`0t.`0f.`0v0a0h
   1ee8c:	78306138 6a306170 7a306178 6c3061b0     8a0xpa0jxa0z.a0l
   1ee9c:	7c3061b8 6e3061f0 7e3061f8 70706238     .a0|.a0n.a0~8bpp
   1eeac:	72706278 647062b0 747062b8 667062f0     xbpr.bpd.bpt.bpf
   1eebc:	767062f8 68706330 78706338 6a706370     .bpv0cph8cpxpcpj
   1eecc:	7a706378 6c7063b0 7c7063b8 6e7063f0     xcpz.cpl.cp|.cpn
   1eedc:	7e7063f8 70b06438 72b06478 74b064b8     .cp~8d.pxd.r.d.t
   1eeec:	66b064f0 76b064f8 68b06530 78b06538     .d.f.d.v0e.h8e.x
   1eefc:	6ab06570 7ab06578 6cb065b0 7cb065b8     pe.jxe.z.e.l.e.|
   1ef0c:	6eb065f0 7eb065f8 70f06638 72f06678     .e.n.e.~8f.pxf.r
   1ef1c:	74f066b8 76f066f8 68f06730 78f06738     .f.t.f.v0g.h8g.x
   1ef2c:	6af06770 7af06778 6cf067b0 7cf067b8     pg.jxg.z.g.l.g.|
   1ef3c:	6ef067f0 7ef067f8 71306838 73306878     .g.n.g.~8h0qxh0s
   1ef4c:	753068b8 773068f8 79306938 6b306970     .h0u.h0w8i0ypi0k
   1ef5c:	7b306978 6d3069b0 7d3069b8 6f3069f0     xi0{.i0m.i0}.i0o
   1ef6c:	7f3069f8 71706a38 73706a78 75706ab8     .i0.8jpqxjps.jpu
   1ef7c:	77706af8 79706b38 7b706b78 6d706bb0     .jpw8kpyxkp{.kpm
   1ef8c:	7d706bb8 6f706bf0 7f706bf8 71b06c38     .kp}.kpo.kp.8l.q
   1ef9c:	73b06c78 75b06cb8 77b06cf8 79b06d38     xl.s.l.u.l.w8m.y
   1efac:	7bb06d78 7db06db8 6fb06df0 7fb06df8     xm.{.m.}.m.o.m..
   1efbc:	71f06e38 73f06e78 75f06eb8 77f06ef8     8n.qxn.s.n.u.n.w
   1efcc:	79f06f38 7bf06f78 7df06fb8 7ff06ff8     8o.yxo.{.o.}.o..
   1efdc:	72387078 743870b8 763870f8 78387138     xp8r.p8t.p8v8q8x
   1efec:	7a387178 7c3871b8 7e3871f8 747872b8     xq8z.q8|.q8~.rxt
   1effc:	767872f8 78787338 7a787378 7c7873b8     .rxv8sxxxsxz.sx|
   1f00c:	7e7873f8 76b874f8 78b87538 7ab87578     .sx~.t.v8u.xxu.z
   1f01c:	7cb875b8 7eb875f8 78f87738 7af87778     .u.|.u.~8w.xxw.z
   1f02c:	7cf877b8 7ef877f8 7b387978 7d3879b8     .w.|.w.~xy8{.y8}
   1f03c:	7f3879f8 7d787bb8 7f787bf8 7fb87df8     .y8..{x}.{x..}..
   1f04c:	281e0f00 5a50463c 82786e64 a096918c     ...(<FPZdnx.....
   1f05c:	b9b4aaa5 d2cdc8be ebe6e1dc 2b00f5f0     ...............+
   1f06c:	30002000 70632578 30006425 50632558     . .0x%cp%d.0X%cP
   1f07c:	30006425 2e632578 6c2a2e25 2570786c     %d.0x%c.%.*llxp%
   1f08c:	58300064 252e6325 6c6c2a2e 64255058     d.0X%c.%.*llXP%d
   1f09c:	72002d00 28007700 6c6c756e 58300029     .-.r.w.(null).0X
   1f0ac:	00783000 31300030 35343332 39383736     .0x.0.0123456789
   1f0bc:	44434241 30004645 34333231 38373635     ABCDEF.012345678
   1f0cc:	63626139 00666564 ffffffff              9abcdef.....

0001f0d8 <__huge_vall>:
   1f0d8:	ffffffff 7fefffff 202a2a2a 7973435f     ........*** _Csy
   1f0e8:	6c615f73 20636f6c 6c696166 000a6465     s_alloc failed..
