
C:\Users\emh203\Documents\GitHub\ESC-M4\CM4_TEST\PROJECTS\LPCXPRESSO\CM4_TEST_XPRESSO54114\-O3 HARD\CM4_TEST_LPC54110_O3_HARD.axf:     file format elf32-littlearm
C:\Users\emh203\Documents\GitHub\ESC-M4\CM4_TEST\PROJECTS\LPCXPRESSO\CM4_TEST_XPRESSO54114\-O3 HARD\CM4_TEST_LPC54110_O3_HARD.axf
architecture: arm, flags 0x00000112:
EXEC_P, HAS_SYMS, D_PAGED
start address 0x0000018d

Program Header:
    LOAD off    0x00010000 vaddr 0x00000000 paddr 0x00000000 align 2**16
         filesz 0x0001c6e8 memsz 0x0001c6e8 flags r-x
    LOAD off    0x00030000 vaddr 0x20000000 paddr 0x0001c6e8 align 2**16
         filesz 0x000000f8 memsz 0x000000f8 flags rw-
    LOAD off    0x000300f8 vaddr 0x200000f8 paddr 0x200000f8 align 2**16
         filesz 0x00000000 memsz 0x00002410 flags rw-
    LOAD off    0x00040000 vaddr 0x20010000 paddr 0x20010000 align 2**16
         filesz 0x00000000 memsz 0x00008000 flags rw-
private flags = 5000400: [Version5 EABI] [hard-float ABI]

Sections:
Idx Name          Size      VMA       LMA       File off  Algn
  0 .text         0001c6e8  00000000  00000000  00010000  2**3
                  CONTENTS, ALLOC, LOAD, READONLY, CODE
  1 .data         000000f8  20000000  0001c6e8  00030000  2**2
                  CONTENTS, ALLOC, LOAD, DATA
  2 .data_RAM2    00000000  20010000  20010000  000300f8  2**2
                  CONTENTS
  3 .data_RAM3    00000000  20020000  20020000  000300f8  2**2
                  CONTENTS
  4 .data_RAM4    00000000  04000000  04000000  000300f8  2**2
                  CONTENTS
  5 .bss          00002410  200000f8  200000f8  000300f8  2**3
                  ALLOC
  6 .bss_RAM2     00008000  20010000  20010000  00040000  2**2
                  ALLOC
  7 .uninit_RESERVED 00000000  20000000  20000000  000300f8  2**2
                  CONTENTS
  8 .noinit_RAM2  00000000  20018000  20018000  000300f8  2**2
                  CONTENTS
  9 .noinit_RAM3  00000000  20020000  20020000  000300f8  2**2
                  CONTENTS
 10 .noinit_RAM4  00000000  04000000  04000000  000300f8  2**2
                  CONTENTS
 11 .noinit       00000000  20002508  20002508  000300f8  2**2
                  CONTENTS
 12 .debug_info   00012720  00000000  00000000  000300f8  2**0
                  CONTENTS, READONLY, DEBUGGING
 13 .debug_abbrev 00002bac  00000000  00000000  00042818  2**0
                  CONTENTS, READONLY, DEBUGGING
 14 .debug_loc    00005b72  00000000  00000000  000453c4  2**0
                  CONTENTS, READONLY, DEBUGGING
 15 .debug_aranges 000008e0  00000000  00000000  0004af38  2**3
                  CONTENTS, READONLY, DEBUGGING
 16 .debug_ranges 00000830  00000000  00000000  0004b818  2**0
                  CONTENTS, READONLY, DEBUGGING
 17 .debug_macro  0000865b  00000000  00000000  0004c048  2**0
                  CONTENTS, READONLY, DEBUGGING
 18 .debug_line   00008209  00000000  00000000  000546a3  2**0
                  CONTENTS, READONLY, DEBUGGING
 19 .debug_str    0001a73b  00000000  00000000  0005c8ac  2**0
                  CONTENTS, READONLY, DEBUGGING
 20 .comment      0000014c  00000000  00000000  00076fe7  2**0
                  CONTENTS, READONLY
 21 .ARM.attributes 00000037  00000000  00000000  00077133  2**0
                  CONTENTS, READONLY
 22 .debug_frame  00001c44  00000000  00000000  0007716c  2**2
                  CONTENTS, READONLY, DEBUGGING
SYMBOL TABLE:
00000000 l    d  .text	00000000 .text
20000000 l    d  .data	00000000 .data
20010000 l    d  .data_RAM2	00000000 .data_RAM2
20020000 l    d  .data_RAM3	00000000 .data_RAM3
04000000 l    d  .data_RAM4	00000000 .data_RAM4
200000f8 l    d  .bss	00000000 .bss
20010000 l    d  .bss_RAM2	00000000 .bss_RAM2
20000000 l    d  .uninit_RESERVED	00000000 .uninit_RESERVED
20018000 l    d  .noinit_RAM2	00000000 .noinit_RAM2
20020000 l    d  .noinit_RAM3	00000000 .noinit_RAM3
04000000 l    d  .noinit_RAM4	00000000 .noinit_RAM4
20002508 l    d  .noinit	00000000 .noinit
00000000 l    d  .debug_info	00000000 .debug_info
00000000 l    d  .debug_abbrev	00000000 .debug_abbrev
00000000 l    d  .debug_loc	00000000 .debug_loc
00000000 l    d  .debug_aranges	00000000 .debug_aranges
00000000 l    d  .debug_ranges	00000000 .debug_ranges
00000000 l    d  .debug_macro	00000000 .debug_macro
00000000 l    d  .debug_line	00000000 .debug_line
00000000 l    d  .debug_str	00000000 .debug_str
00000000 l    d  .comment	00000000 .comment
00000000 l    d  .ARM.attributes	00000000 .ARM.attributes
00000000 l    d  .debug_frame	00000000 .debug_frame
00000000 l    df *ABS*	00000000 cr_startup_lpc5411x.c
00000000 l    df *ABS*	00000000 crp.c
00000000 l    df *ABS*	00000000 CM_TEST.c
00000000 l    df *ABS*	00000000 Goertzel.c
00000000 l    df *ABS*	00000000 IIR.c
00000000 l    df *ABS*	00000000 sysinit.c
00000000 l    df *ABS*	00000000 board.c
0000161c l     F .text	00000040 Board_LED_Init
0000165c l     F .text	00000040 Board_TestIO_Init
0000169c l     F .text	0000003c Board_Button_Init
000016d8 l     F .text	0000003c Board_UART_Init
00007110 l     O .text	00000004 tstBits
00007114 l     O .text	00000006 btnBits
0000711c l     O .text	00000006 ledBits
00000000 l    df *ABS*	00000000 board_sysinit.c
000017d4 l     F .text	00000094 ConfigureBridgeSSEL
00007124 l     O .text	00000030 pinmuxing
00000000 l    df *ABS*	00000000 chip_5411x.c
00000000 l    df *ABS*	00000000 clock_5411x.c
00001a64 l     F .text	00000018 Chip_Clock_GetExtClockInRate
00001a7c l     F .text	00000012 Chip_Clock_GetRTCOscRate
00001a90 l     F .text	0000002c Chip_Clock_GetFROHFRate
00001abc l     F .text	0000001e Chip_Clock_GetMain_A_ClockSource
00001adc l     F .text	00000018 Chip_Clock_GetMain_B_ClockSource
00001af4 l     F .text	0000001e Chip_Clock_GetFRGClockSource
00000000 l    df *ABS*	00000000 fpu_init.c
00000000 l    df *ABS*	00000000 pll_5411x.c
00001da0 l     F .text	00000018 Chip_Clock_GetExtClockInRate
00001db8 l     F .text	00000012 Chip_Clock_GetRTCOscRate
20000108 l     O .bss	00000004 curPllRate
00001dcc l     F .text	000000a0 pllDecodeN
00001e6c l     F .text	00000088 pllDecodeP
00001ef4 l     F .text	000000a0 pllDecodeM
00002050 l     F .text	00000020 Chip_Clock_GetSystemPLLOutFromSetupUpdate
00000000 l    df *ABS*	00000000 syscon_5411x.c
00000000 l    df *ABS*	00000000 sysinit_5411x.c
0000233c l     F .text	00000034 Chip_SYSCON_SetFLASHAccess
00002370 l     F .text	00000020 Chip_Clock_SetMain_A_ClockSource
00002390 l     F .text	00000020 Chip_Clock_SetMain_B_ClockSource
000023b0 l     F .text	00000020 Chip_Clock_SetAsyncSysconClockSource
000023d0 l     F .text	0000003c Chip_Clock_SetMainClockSource
0000240c l     F .text	00000068 setupFlashClocks
00000000 l    df *ABS*	00000000 timer_5411x.c
00000000 l    df *ABS*	00000000 uart_5411x.c
0000251c l     F .text	0000002c Chip_SYSCON_SetUSARTFRGCtrl
00002548 l     F .text	00000026 Chip_Clock_SetFLEXCOMMClockSource
00002570 l     F .text	00000020 Chip_Clock_SetFRGClockSource
00002590 l     F .text	0000001e Chip_Clock_GetFRGClockSource
000025b0 l     F .text	00000020 Chip_UART_SendByte
000025d0 l     F .text	0000001a Chip_UART_GetFIFOStatus
000025ec l     F .text	00000030 Chip_UART_SetFIFOCfg
0000261c l     F .text	0000001a Chip_UART_FlushFIFOs
00002638 l     F .text	00000064 _UART_DivClk
0000269c l     F .text	00000052 _UART_GetHighDiv
000026f0 l     F .text	00000070 _CalcErr
00002760 l     F .text	000000e4 _UART_CalcDiv
00002844 l     F .text	000000c8 _UART_CalcMul
00000000 l    df *ABS*	00000000 flexcomm_5411x.c
00002a94 l     F .text	00000088 Chip_SYSCON_PeriphReset
00002b1c l     F .text	00000038 Chip_SYSCON_EnableWakeup
00002b54 l     F .text	00000026 Chip_Clock_SetFLEXCOMMClockSource
00000000 l    df *ABS*	00000000 arm_cfft_f32.c
00000000 l    df *ABS*	00000000 arm_cfft_radix8_f32.c
00000000 l    df *ABS*	00000000 arm_biquad_cascade_df1_f32.c
00000000 l    df *ABS*	00000000 arm_biquad_cascade_df1_init_f32.c
00000000 l    df *ABS*	00000000 arm_biquad_cascade_df2T_f32.c
00000000 l    df *ABS*	00000000 arm_biquad_cascade_df2T_init_f32.c
00000000 l    df *ABS*	00000000 arm_fir_f32.c
00000000 l    df *ABS*	00000000 arm_fir_init_f32.c
00000000 l    df *ABS*	00000000 arm_pid_init_f32.c
00000000 l    df *ABS*	00000000 arm_cmplx_mag_f32.c
00000000 l    df *ABS*	00000000 arm_cmplx_mag_squared_f32.c
00000000 l    df *ABS*	00000000 arm_bitreversal2.o
000042cc l       .text	00000000 arm_bitreversal_32_0
00004336 l       .text	00000000 arm_bitreversal_16_0
00000000 l    df *ABS*	00000000 _cr__main.c
00000000 l    df *ABS*	00000000 cosf.c
00000000 l    df *ABS*	00000000 sinf.c
00000000 l    df *ABS*	00000000 sqrtf_m4_hardfp.o
00000000 l    df *ABS*	00000000 memset.c
00000000 l    df *ABS*	00000000 fpprintf.c
000043f0 l     F .text	0000004e fp_round
0000443e l     F .text	00000026 pr_dec.constprop.1
000044d0 l     F .text	000008fe fp_display
00000000 l    df *ABS*	00000000 initio.c
00000000 l    df *ABS*	00000000 printf.c
00000000 l    df *ABS*	00000000 setvbuf.c
00000000 l    df *ABS*	00000000 stdlib.c
20000014 l     O .data	000000dc _random_number_seed
200000f0 l     O .data	00000004 _random_j
200000f4 l     O .data	00000004 _random_k
00000000 l    df *ABS*	00000000 strlen.c
00000000 l    df *ABS*	00000000 _sincosf.c
00000000 l    df *ABS*	00000000 fabsf.c
00000000 l    df *ABS*	00000000 _deferredlazyseek.c
00000000 l    df *ABS*	00000000 _fdopen.c
00000000 l    df *ABS*	00000000 _fflush.c
00000000 l    df *ABS*	00000000 _frexpl.c
00000000 l    df *ABS*	00000000 _ldexpl.c
00000000 l    df *ABS*	00000000 _writebuf.c
00000000 l    df *ABS*	00000000 alloc.c
00000000 l    df *ABS*	00000000 fclose.c
00000000 l    df *ABS*	00000000 fflush.c
00000000 l    df *ABS*	00000000 fseek.c
00000000 l    df *ABS*	00000000 ftell.c
00000000 l    df *ABS*	00000000 remove.c
00000000 l    df *ABS*	00000000 _cr_sbrk.c
00000000 l    df *ABS*	00000000 _do_fflush.c
00000000 l    df *ABS*	00000000 _cr_check_heap.c
00000000 l    df *ABS*	00000000 division_64.o
00006608 l       .text	00000000 ldiv64
000066a6 l       .text	00000000 ldiv_divzero
000065d8 l       .text	00000000 ldiv32
000066b2 l       .text	00000000 udiv6432
000065e0 l       .text	00000000 ldiv_return
000065f6 l       .text	00000000 ldiv_sign
00006690 l       .text	00000000 ldiv_res01
000066ce l       .text	00000000 udiv6432_entry
000066ba l       .text	00000000 udiv6432_loop1
000066d0 l       .text	00000000 udiv6432_loop
00000000 l    df *ABS*	00000000 division_idiv0.o
00000000 l    df *ABS*	00000000 double.c
00000000 l    df *ABS*	00000000 float.c
00000000 l    df *ABS*	00000000 memcpy.o
00006ec2 l       .text	00000000 memset1a
00006eb0 l       .text	00000000 __bhs_memset4
00006eb2 l       .text	00000000 memset4
00006ebe l       .text	00000000 memset1
00000000 l    df *ABS*	00000000 __sys_appexit.o
00000000 l    df *ABS*	00000000 __sys_close.o
00000000 l    df *ABS*	00000000 __sys_flen.o
00000000 l    df *ABS*	00000000 __sys_istty.o
00000000 l    df *ABS*	00000000 __sys_remove.o
00000000 l    df *ABS*	00000000 __sys_seek.o
00000000 l    df *ABS*	00000000 __sys_tmpnam.o
00000000 l    df *ABS*	00000000 arm_const_structs.c
00000000 l    df *ABS*	00000000 arm_common_tables.c
00000000 l    df *ABS*	00000000 _hugeval.c
20000260 g     O .bss	00000040 FIR_Coef_q15
00006dba g     F .text	00000054 __aeabi_dcmple
0001465c g     O .text	00008000 twiddleCoef_4096
00000154  w    F .text	00000002 SCT0_IRQHandler
0000437c g     F .text	00000014 __main
00000148  w    F .text	00000002 DebugMon_Handler
00005e78 g     F .text	00000044 _deferredlazyseek
00000000 g       *ABS*	00000000 __base_MFlash256
0000331c g     F .text	000000f2 arm_cfft_f32
000000e0 g       .text	00000000 __section_table_start
00006ed0 g     F .text	00000000 __exit
00002280 g     F .text	0000002e Chip_SYSCON_Enable_ASYNC_Syscon
00006f18 g     F .text	00000000 __sys_tmpnam
00004e2c g     F .text	00000054 printf
000071b4 g     O .text	00000010 arm_cfft_sR_f32_len64
00000134  w    F .text	00000002 HardFault_Handler
00000154  w    F .text	00000002 WDT_BOD_IRQHandler
00000154  w    F .text	00000002 FLEXCOMM5_IRQHandler
00000000 g       *ABS*	00000000 __vectors_start__
00000154  w    F .text	00000002 FLEXCOMM7_IRQHandler
00000150  w    F .text	00000002 SysTick_Handler
04008000 g       *ABS*	00000000 __top_RAM4
00002a04 g     F .text	0000008e Chip_UART_SetBaud
00002474 g     F .text	0000006c Chip_SetupFROClocking
20010000 g       *ABS*	00000000 __base_RAM2
0000014c  w    F .text	00000002 PendSV_Handler
00002010 g     F .text	00000040 findPllMMult
00000130  w    F .text	00000002 NMI_Handler
00001c3c g     F .text	0000001e Chip_Clock_GetSystemClockRate
0001c6e8 g       .text	00000000 __exidx_end
00000110 g       .text	00000000 __data_section_table_end
00000154  w    F .text	00000002 MRT_IRQHandler
04008000 g       *ABS*	00000000 __top_RamX_32
00005ebc g     F .text	00000140 __flsbuf
000015a0 g     F .text	0000000e Init_f32_IIR
0000daf4 g     O .text	00000100 twiddleCoef_32
dffef856 g       *ABS*	00000000 __valid_user_code_checksum
20002500 g     O .bss	00000004 __SWVtrace_Enabled
20000250 g     O .bss	00000004 errno
0001c6e8 g       .text	00000000 _etext
00006130 g     F .text	00000060 _ldexpl
2000010c g     O .bss	00000004 _extra
000043e6 g     F .text	00000000 sqrtf
0000437c  w    F .text	00000014 __CR_SEMIHOST
000060c0 g     F .text	00000070 _frexpl
00000154  w    F .text	00000002 ADC_SEQB_IRQHandler
00001544 g     F .text	0000005c ProcessGoertzel_f32_Power
00000174 g     F .text	00000018 bss_init
000024e0 g     F .text	0000003c Chip_TIMER_Reset
00003c98 g     F .text	000003f8 arm_fir_f32
00003c80 g     F .text	00000018 arm_biquad_cascade_df2T_init_f32
00005c6c g     F .text	00000040 setvbuf
00004326 g       .text	00000000 arm_bitreversal_16
00011c4c g     O .text	00000200 twiddleCoef_64
000065b8 g     F .text	00000174 __aeabi_uldivmod
20002508 g       .noinit	00000000 _noinit
20002504 g     O .bss	00000004 SystemCoreClock
00001fd0 g     F .text	0000003e findPllPostDiv
0000290c g     F .text	00000032 Chip_UART_Init
00000154  w    F .text	00000002 HWVAD_IRQHandler
000061f8 g     F .text	000000c8 malloc
00006508 g     F .text	00000014 remove
000029dc g     F .text	00000026 Chip_UART_CalculateBaud
0000ba74 g     O .text	00000080 twiddleCoef_16
20000000 g     O .data	00000014 IIR_Coef_f32
00007194 g     O .text	00000010 arm_cfft_sR_f32_len16
00000140  w    F .text	00000002 UsageFault_Handler
20010000 g       *ABS*	00000000 __top_RAM
00000154  w    F .text	00000002 FLEXCOMM3_IRQHandler
00004dd0 g     F .text	0000005c vsnprintf
00003b0c g     F .text	00000018 arm_biquad_cascade_df1_init_f32
000018a0 g     F .text	00000028 Board_SetupClocking
00006ee8 g     F .text	00000000 __sys_flen
000040ec g     F .text	00000132 arm_cmplx_mag_f32
00002070 g     F .text	00000064 Chip_Clock_GetSystemPLLInClockRate
00000154  w    F .text	00000002 CT32B2_IRQHandler
00000154  w    F .text	00000002 PIN_INT6_IRQHandler
00000154  w    F .text	00000002 IntDefaultHandler
00000300 g       .text	00000000 __CRP_WORD_END__
20020000 g       *ABS*	00000000 __top_RAM2
00005e68 g     F .text	00000010 fabsf
00000154  w    F .text	00000002 PIN_INT4_IRQHandler
00000000  w      *UND*	00000000 _pvHeapLimit
00006d62 g     F .text	00000058 __aeabi_dcmplt
0000637c g     F .text	00000030 fflush
00006840 g     F .text	0000013c __aeabi_ddiv
00000154  w    F .text	00000002 FLEXCOMM6_IRQHandler
0001c6e8 g       .text	00000000 __exidx_start
00006730 g     F .text	00000110 __aeabi_dmul
000002fc g     O .text	00000004 CRP_WORD
0000ea2c g     O .text	00000060 armBitRevIndexTable32
0000710c g     O .text	00000004 ExtClockIn
00005ffc g     F .text	0000006a _fdopen
00001f94 g     F .text	0000003a findPllPreDiv
00006e9c g     F .text	00000032 __aeabi_lowlevel_memset
000039c8 g     F .text	00000144 arm_biquad_cascade_df1_f32
0001414c g     O .text	00000370 armBitRevIndexTable256
0000651c g     F .text	00000040 _sbrk
200002a0 g     O .bss	00000050 E_IIR
200002f0 g     O .bss	00002084 FIR_State
0000177c g     F .text	00000058 Board_Init
200000f8 g     O .bss	00000010 IIR_State_f32
000000e0 g       .text	00000000 __data_section_table
00004390 g     F .text	00000030 cosf
00006c44 g     F .text	00000058 __aeabi_d2f
00000154  w    F .text	00000002 RTC_IRQHandler
20002508 g       .bss	00000000 _ebss
00000154  w    F .text	00000002 FLEXCOMM0_IRQHandler
00004f24 g     F .text	00000d46 __vfprintf
00001c14 g     F .text	00000028 Chip_Clock_GetMainClockRate
00000154  w    F .text	00000002 USB_NEEDCLK_IRQHandler
00013dcc g     O .text	00000380 armBitRevIndexTable512
20020000 g       *ABS*	00000000 __base_RAM3
00000154  w    F .text	00000002 CT32B3_IRQHandler
0000fe8c g     O .text	00001dc0 armBitRevIndexTable2048
20000000 g       *ABS*	00000000 __base_Ram0_64
00006b30 g     F .text	00000114 __aeabi_dadd
00000158 g     F .text	0000001c data_init
000020d4 g     F .text	00000144 Chip_Clock_GetSystemPLLOutFromSetup
00003410 g     F .text	000005b6 arm_radix8_butterfly_f32
00007174 g     O .text	00000010 arm_cfft_sR_f32_len256
00011e4c g     O .text	00001f80 armBitRevIndexTable4096
000018e8 g     F .text	0000004c Chip_POWER_SetFROHFRate
000063ac g     F .text	00000110 fseek
20002374 g     O .bss	0000003c E_IIRf
00000000 g       *ABS*	00000000 __base_Flash
00000154  w    F .text	00000002 CT32B1_IRQHandler
000144bc g     O .text	000001a0 armBitRevIndexTable128
00006066 g     F .text	00000058 _fflush
00000154  w    F .text	00000002 PIN_INT5_IRQHandler
00006cdc g     F .text	00000046 __bhs_ui2d
00040000 g       *ABS*	00000000 __top_MFlash256
00006e0e g     F .text	00000054 __aeabi_dcmpge
04000000 g       *ABS*	00000000 __base_RamX_32
00000154  w    F .text	00000002 PIN_INT2_IRQHandler
00005d38 g     F .text	00000130 _sincosf
00000154  w    F .text	00000002 FLEXCOMM2_IRQHandler
200000f8 g       .bss	00000000 _bss
0000697c g     F .text	000001b4 __aeabi_dsub
200023b0 g     O .bss	00000024 PID_Inst
00001bb4 g     F .text	00000060 Chip_Clock_EnablePeriphClock
00005cac g     F .text	0000003c rand
000071c4 g     O .text	00000010 arm_cfft_sR_f32_len1024
00040000 g       *ABS*	00000000 __top_Flash
20002508 g       .noinit	00000000 _end_noinit
20010000 g       *ABS*	00000000 _vStackTop
0000ea8c g     O .text	00000400 twiddleCoef_128
200023d4 g     O .bss	00000010 G
0000b274 g     O .text	00000800 twiddleCoef_256
00007204 g     O .text	00004000 twiddleCoef_2048
00000154  w    F .text	00000002 PIN_INT7_IRQHandler
00000130 g       .text	00000000 __bss_section_table_end
000065a0 g     F .text	00000018 __check_heap_overflow
00006d22 g     F .text	00000010 __aeabi_i2d
00000154  w    F .text	00000002 ADC_THCMP_IRQHandler
00000154  w    F .text	00000002 PIN_INT1_IRQHandler
20020000 g       *ABS*	00000000 __top_Ram1_64
00000154  w    F .text	00000002 USB_IRQHandler
20010000 g     O .bss_RAM2	00004000 InputData
00001934 g     F .text	00000118 Chip_POWER_SetVoltage
0000173c g     F .text	0000001c Board_UARTPutChar
00007184 g     O .text	00000010 arm_cfft_sR_f32_len2048
00002940 g     F .text	00000050 Chip_UART_Send
00000154  w    F .text	00000002 CT32B4_IRQHandler
00002218 g     F .text	00000068 Chip_Clock_GetSystemPLLOutClockRate
00000154  w    F .text	00000002 IOH_IRQHandler
000002fc g       .text	00000000 __CRP_WORD_START__
00001758 g     F .text	0000001a __sys_write
000040b4 g     F .text	00000036 arm_pid_init_f32
000043ec g     F .text	00000004 memset
00000138  w    F .text	00000002 MemManage_Handler
00000300 g     F .text	00001204 main
0000655c g     F .text	00000044 _do_fflush
000064bc g     F .text	0000004c ftell
20010000 g       *ABS*	00000000 __base_Ram1_64
20028000 g       *ABS*	00000000 __top_Ram2_32
00000154  w    F .text	00000002 MAILBOX_IRQHandler
00000144  w    F .text	00000002 SVC_Handler
00006310 g     F .text	0000006c fclose
00001c5c g     F .text	00000060 Chip_Clock_GetFRGInClockRate
04000000 g       *ABS*	00000000 __base_RAM4
0000ee8c g     O .text	00001000 twiddleCoef_512
0000dbf4 g     O .text	00000e10 armBitRevIndexTable1024
000015b0 g     F .text	0000004e Compute_f32_IIR
00000154  w    F .text	00000002 ADC_SEQA_IRQHandler
00006f0c g     F .text	00000000 __sys_seek
000065bc g     F .text	00000000 __bhs_ldivmod1
00001d2c g     F .text	00000074 fpuInit
00000154  w    F .text	00000002 PIN_INT0_IRQHandler
000042bc g       .text	00000000 arm_bitreversal_32
00001b74 g     F .text	00000040 Chip_Clock_GetMain_B_ClockRate
00001600 g     F .text	0000001c SystemInit
00000154  w    F .text	00000002 SPIFI_IRQHandler
00000110 g       .text	00000000 __bss_section_table
00001cbc g     F .text	00000070 Chip_Clock_GetWDTOSCRate
0001c6c8 g     O .text	00000008 __huge_vall
20010000 g       *ABS*	00000000 __top_Ram0_64
00006edc g     F .text	00000000 __sys_close
00002990 g     F .text	0000004a Chip_UART_SendBlocking
00004464 g     F .text	0000006c sprintf
00003b24 g     F .text	0000015a arm_biquad_cascade_df2T_f32
00001868 g     F .text	00000038 Board_SetupMuxing
00001b14 g     F .text	00000060 Chip_Clock_GetMain_A_ClockRate
00000154  w    F .text	00000002 UTICK_IRQHandler
00000154  w    F .text	00000002 CT32B0_IRQHandler
000022b0 g     F .text	0000008c Chip_SYSCON_PowerUp
200023e4 g     O .bss	00000080 FIR_Coef_f32
20000000 g       .uninit_RESERVED	00000000 _end_uninit_RESERVED
00006190 g     F .text	00000068 _Cwritebuf
00001504 g     F .text	0000003e InitGoertzel_f32
20000000 g       .data	00000000 _data
20002508 g       .bss	00000000 _pvHeapStart
00000130 g       .text	00000000 __section_table_end
00004090 g     F .text	00000022 arm_fir_init_f32
000043c0 g     F .text	00000026 sinf
000071e4 g     O .text	00000010 arm_cfft_sR_f32_len512
00000154  w    F .text	00000002 GINT0_IRQHandler
00000154  w    F .text	00000002 FLEXCOMM4_IRQHandler
20002464 g     O .bss	0000000c FIR_Inst
00001774 g     F .text	00000008 Board_Debug_Init
00006f00 g     F .text	00000000 __sys_remove
20020000 g       *ABS*	00000000 __base_Ram2_32
00006d32 g     F .text	00000030 __aeabi_dcmpeq
200000f8 g       .data	00000000 _edata
00002c8c g     F .text	0000008e Chip_FLEXCOMM_SetPeriph
000071d4 g     O .text	00000010 arm_cfft_sR_f32_len128
00002e9c g     F .text	00000480 arm_cfft_radix8by4_f32
00000154  w    F .text	00000002 FLEXCOMM1_IRQHandler
0000b204 g     O .text	00000070 armBitRevIndexTable64
20000254 g     O .bss	00000004 __heaps
00006ed0 g     F .text	00000000 __sys_appexit
000071f4 g     O .text	00000010 arm_cfft_sR_f32_len4096
20000000 g       *ABS*	00000000 __base_RAM
00000000 g     O .text	000000e0 g_pfnVectors
0000018c g     F .text	000000a4 ResetISR
00001a4c g     F .text	00000018 SystemCoreClockUpdate
00002c18 g     F .text	00000074 Chip_FLEXCOMM_Init
00006c9c g     F .text	00000040 __aeabi_d2iz
00002b7c g     F .text	0000009c Chip_FLEXCOMM_GetIndex
20000258 g     O .bss	00000004 __end_of_heap
0000baf4 g     O .text	00002000 twiddleCoef_1024
00000154  w    F .text	00000002 DMA_IRQHandler
000062f0 g     F .text	00000020 _Csys_alloc
0000672c g     F .text	00000002 __aeabi_idiv0
00000154  w    F .text	00000002 Reserved38_IRQHandler
00000154  w    F .text	00000002 PIN_INT3_IRQHandler
20028000 g       *ABS*	00000000 __top_RAM3
0000013c  w    F .text	00000002 BusFault_Handler
00005ce8 g     F .text	0000004a strlen
000071a4 g     O .text	00000010 arm_cfft_sR_f32_len32
20002470 g     O .bss	00000080 FIR_Coef_q31
00001714 g     F .text	00000028 Board_LED_Set
00006e64 g     F .text	00000038 __aeabi_f2d
00004e80 g     F .text	000000a4 _initio
20014000 g     O .bss_RAM2	00004000 OutputData
00000154  w    F .text	00000002 GINT1_IRQHandler
20000110 g     O .bss	00000140 __Ciob
00006ef4 g     F .text	00000000 __sys_istty
0000ea04 g     O .text	00000028 armBitRevIndexTable16
00002d1c g     F .text	00000180 arm_cfft_radix8by2_f32
00000154  w    F .text	00000002 DMIC_IRQHandler
00004220 g     F .text	0000009c arm_cmplx_mag_squared_f32
000062c0 g     F .text	00000030 free
000018c8 g     F .text	00000020 Board_SystemInit
200024f0 g     O .bss	00000010 IIR_Inst



Disassembly of section .text:

00000000 <g_pfnVectors>:
       0:	00 00 01 20 8d 01 00 00 31 01 00 00 35 01 00 00     ... ....1...5...
      10:	39 01 00 00 3d 01 00 00 41 01 00 00 56 f8 fe df     9...=...A...V...
	...
      2c:	45 01 00 00 49 01 00 00 00 00 00 00 4d 01 00 00     E...I.......M...
      3c:	51 01 00 00 55 01 00 00 55 01 00 00 55 01 00 00     Q...U...U...U...
      4c:	55 01 00 00 55 01 00 00 55 01 00 00 55 01 00 00     U...U...U...U...
      5c:	55 01 00 00 55 01 00 00 55 01 00 00 55 01 00 00     U...U...U...U...
      6c:	55 01 00 00 55 01 00 00 55 01 00 00 55 01 00 00     U...U...U...U...
      7c:	55 01 00 00 55 01 00 00 55 01 00 00 55 01 00 00     U...U...U...U...
      8c:	55 01 00 00 55 01 00 00 55 01 00 00 55 01 00 00     U...U...U...U...
      9c:	55 01 00 00 55 01 00 00 55 01 00 00 55 01 00 00     U...U...U...U...
      ac:	55 01 00 00 55 01 00 00 55 01 00 00 55 01 00 00     U...U...U...U...
      bc:	55 01 00 00 55 01 00 00 55 01 00 00 55 01 00 00     U...U...U...U...
      cc:	55 01 00 00 55 01 00 00 55 01 00 00 55 01 00 00     U...U...U...U...
      dc:	55 01 00 00                                         U...

000000e0 <__data_section_table>:
      e0:	0001c6e8 	.word	0x0001c6e8
      e4:	20000000 	.word	0x20000000
      e8:	000000f8 	.word	0x000000f8
      ec:	0001c6e8 	.word	0x0001c6e8
      f0:	20010000 	.word	0x20010000
      f4:	00000000 	.word	0x00000000
      f8:	0001c6e8 	.word	0x0001c6e8
      fc:	20020000 	.word	0x20020000
     100:	00000000 	.word	0x00000000
     104:	0001c6e8 	.word	0x0001c6e8
     108:	04000000 	.word	0x04000000
     10c:	00000000 	.word	0x00000000

00000110 <__bss_section_table>:
     110:	200000f8 	.word	0x200000f8
     114:	00002410 	.word	0x00002410
     118:	20010000 	.word	0x20010000
     11c:	00008000 	.word	0x00008000
     120:	20020000 	.word	0x20020000
     124:	00000000 	.word	0x00000000
     128:	04000000 	.word	0x04000000
     12c:	00000000 	.word	0x00000000

00000130 <NMI_Handler>:
     130:	e7fe      	b.n	130 <NMI_Handler>
     132:	bf00      	nop

00000134 <HardFault_Handler>:
     134:	e7fe      	b.n	134 <HardFault_Handler>
     136:	bf00      	nop

00000138 <MemManage_Handler>:
     138:	e7fe      	b.n	138 <MemManage_Handler>
     13a:	bf00      	nop

0000013c <BusFault_Handler>:
     13c:	e7fe      	b.n	13c <BusFault_Handler>
     13e:	bf00      	nop

00000140 <UsageFault_Handler>:
     140:	e7fe      	b.n	140 <UsageFault_Handler>
     142:	bf00      	nop

00000144 <SVC_Handler>:
     144:	e7fe      	b.n	144 <SVC_Handler>
     146:	bf00      	nop

00000148 <DebugMon_Handler>:
     148:	e7fe      	b.n	148 <DebugMon_Handler>
     14a:	bf00      	nop

0000014c <PendSV_Handler>:
     14c:	e7fe      	b.n	14c <PendSV_Handler>
     14e:	bf00      	nop

00000150 <SysTick_Handler>:
     150:	e7fe      	b.n	150 <SysTick_Handler>
     152:	bf00      	nop

00000154 <ADC_SEQA_IRQHandler>:
     154:	e7fe      	b.n	154 <ADC_SEQA_IRQHandler>
     156:	bf00      	nop

00000158 <data_init>:
     158:	b15a      	cbz	r2, 172 <data_init+0x1a>
     15a:	b410      	push	{r4}
     15c:	3904      	subs	r1, #4
     15e:	2300      	movs	r3, #0
     160:	3304      	adds	r3, #4
     162:	f850 4b04 	ldr.w	r4, [r0], #4
     166:	f841 4f04 	str.w	r4, [r1, #4]!
     16a:	429a      	cmp	r2, r3
     16c:	d8f8      	bhi.n	160 <data_init+0x8>
     16e:	f85d 4b04 	ldr.w	r4, [sp], #4
     172:	4770      	bx	lr

00000174 <bss_init>:
     174:	b149      	cbz	r1, 18a <bss_init+0x16>
     176:	b410      	push	{r4}
     178:	4603      	mov	r3, r0
     17a:	2400      	movs	r4, #0
     17c:	f843 4b04 	str.w	r4, [r3], #4
     180:	1a1a      	subs	r2, r3, r0
     182:	4291      	cmp	r1, r2
     184:	d8fa      	bhi.n	17c <bss_init+0x8>
     186:	f85d 4b04 	ldr.w	r4, [sp], #4
     18a:	4770      	bx	lr

0000018c <ResetISR>:
     18c:	4b21      	ldr	r3, [pc, #132]	; (214 <ResetISR+0x88>)
     18e:	b570      	push	{r4, r5, r6, lr}
     190:	2210      	movs	r2, #16
     192:	4c21      	ldr	r4, [pc, #132]	; (218 <ResetISR+0x8c>)
     194:	4e21      	ldr	r6, [pc, #132]	; (21c <ResetISR+0x90>)
     196:	601a      	str	r2, [r3, #0]
     198:	42b4      	cmp	r4, r6
     19a:	d211      	bcs.n	1c0 <ResetISR+0x34>
     19c:	e894 0006 	ldmia.w	r4, {r1, r2}
     1a0:	340c      	adds	r4, #12
     1a2:	f854 5c04 	ldr.w	r5, [r4, #-4]
     1a6:	2d00      	cmp	r5, #0
     1a8:	d0f6      	beq.n	198 <ResetISR+0xc>
     1aa:	3a04      	subs	r2, #4
     1ac:	2300      	movs	r3, #0
     1ae:	3304      	adds	r3, #4
     1b0:	f851 0b04 	ldr.w	r0, [r1], #4
     1b4:	f842 0f04 	str.w	r0, [r2, #4]!
     1b8:	429d      	cmp	r5, r3
     1ba:	d8f8      	bhi.n	1ae <ResetISR+0x22>
     1bc:	42b4      	cmp	r4, r6
     1be:	d3ed      	bcc.n	19c <ResetISR+0x10>
     1c0:	4b17      	ldr	r3, [pc, #92]	; (220 <ResetISR+0x94>)
     1c2:	429c      	cmp	r4, r3
     1c4:	d214      	bcs.n	1f0 <ResetISR+0x64>
     1c6:	f104 0608 	add.w	r6, r4, #8
     1ca:	3307      	adds	r3, #7
     1cc:	1b9b      	subs	r3, r3, r6
     1ce:	f023 0307 	bic.w	r3, r3, #7
     1d2:	3310      	adds	r3, #16
     1d4:	441c      	add	r4, r3
     1d6:	2500      	movs	r5, #0
     1d8:	e916 0003 	ldmdb	r6, {r0, r1}
     1dc:	4603      	mov	r3, r0
     1de:	b121      	cbz	r1, 1ea <ResetISR+0x5e>
     1e0:	f843 5b04 	str.w	r5, [r3], #4
     1e4:	1a1a      	subs	r2, r3, r0
     1e6:	4291      	cmp	r1, r2
     1e8:	d8fa      	bhi.n	1e0 <ResetISR+0x54>
     1ea:	3608      	adds	r6, #8
     1ec:	42a6      	cmp	r6, r4
     1ee:	d1f3      	bne.n	1d8 <ResetISR+0x4c>
     1f0:	4908      	ldr	r1, [pc, #32]	; (214 <ResetISR+0x88>)
     1f2:	4c0c      	ldr	r4, [pc, #48]	; (224 <ResetISR+0x98>)
     1f4:	4b0c      	ldr	r3, [pc, #48]	; (228 <ResetISR+0x9c>)
     1f6:	4a0d      	ldr	r2, [pc, #52]	; (22c <ResetISR+0xa0>)
     1f8:	f44f 5000 	mov.w	r0, #8192	; 0x2000
     1fc:	2500      	movs	r5, #0
     1fe:	6025      	str	r5, [r4, #0]
     200:	6008      	str	r0, [r1, #0]
     202:	681b      	ldr	r3, [r3, #0]
     204:	f3c3 3340 	ubfx	r3, r3, #13, #1
     208:	6013      	str	r3, [r2, #0]
     20a:	f001 f9f9 	bl	1600 <SystemInit>
     20e:	f004 f8b5 	bl	437c <__main>
     212:	e7fe      	b.n	212 <ResetISR+0x86>
     214:	40000220 	.word	0x40000220
     218:	000000e0 	.word	0x000000e0
     21c:	00000110 	.word	0x00000110
     220:	00000130 	.word	0x00000130
     224:	40000304 	.word	0x40000304
     228:	40000200 	.word	0x40000200
     22c:	20002500 	.word	0x20002500
     230:	ffffffff 	.word	0xffffffff
     234:	ffffffff 	.word	0xffffffff
     238:	ffffffff 	.word	0xffffffff
     23c:	ffffffff 	.word	0xffffffff
     240:	ffffffff 	.word	0xffffffff
     244:	ffffffff 	.word	0xffffffff
     248:	ffffffff 	.word	0xffffffff
     24c:	ffffffff 	.word	0xffffffff
     250:	ffffffff 	.word	0xffffffff
     254:	ffffffff 	.word	0xffffffff
     258:	ffffffff 	.word	0xffffffff
     25c:	ffffffff 	.word	0xffffffff
     260:	ffffffff 	.word	0xffffffff
     264:	ffffffff 	.word	0xffffffff
     268:	ffffffff 	.word	0xffffffff
     26c:	ffffffff 	.word	0xffffffff
     270:	ffffffff 	.word	0xffffffff
     274:	ffffffff 	.word	0xffffffff
     278:	ffffffff 	.word	0xffffffff
     27c:	ffffffff 	.word	0xffffffff
     280:	ffffffff 	.word	0xffffffff
     284:	ffffffff 	.word	0xffffffff
     288:	ffffffff 	.word	0xffffffff
     28c:	ffffffff 	.word	0xffffffff
     290:	ffffffff 	.word	0xffffffff
     294:	ffffffff 	.word	0xffffffff
     298:	ffffffff 	.word	0xffffffff
     29c:	ffffffff 	.word	0xffffffff
     2a0:	ffffffff 	.word	0xffffffff
     2a4:	ffffffff 	.word	0xffffffff
     2a8:	ffffffff 	.word	0xffffffff
     2ac:	ffffffff 	.word	0xffffffff
     2b0:	ffffffff 	.word	0xffffffff
     2b4:	ffffffff 	.word	0xffffffff
     2b8:	ffffffff 	.word	0xffffffff
     2bc:	ffffffff 	.word	0xffffffff
     2c0:	ffffffff 	.word	0xffffffff
     2c4:	ffffffff 	.word	0xffffffff
     2c8:	ffffffff 	.word	0xffffffff
     2cc:	ffffffff 	.word	0xffffffff
     2d0:	ffffffff 	.word	0xffffffff
     2d4:	ffffffff 	.word	0xffffffff
     2d8:	ffffffff 	.word	0xffffffff
     2dc:	ffffffff 	.word	0xffffffff
     2e0:	ffffffff 	.word	0xffffffff
     2e4:	ffffffff 	.word	0xffffffff
     2e8:	ffffffff 	.word	0xffffffff
     2ec:	ffffffff 	.word	0xffffffff
     2f0:	ffffffff 	.word	0xffffffff
     2f4:	ffffffff 	.word	0xffffffff
     2f8:	ffffffff 	.word	0xffffffff

000002fc <CRP_WORD>:
     2fc:	ffffffff                                ....

00000300 <main>:
     300:	e92d 4ff0 	stmdb	sp!, {r4, r5, r6, r7, r8, r9, sl, fp, lr}
     304:	b085      	sub	sp, #20
     306:	f04f 537e 	mov.w	r3, #1065353216	; 0x3f800000
     30a:	9303      	str	r3, [sp, #12]
     30c:	f001 fb9e 	bl	1a4c <SystemCoreClockUpdate>
     310:	f001 fa34 	bl	177c <Board_Init>
     314:	2101      	movs	r1, #1
     316:	2000      	movs	r0, #0
     318:	f001 f9fc 	bl	1714 <Board_LED_Set>
     31c:	f001 fd06 	bl	1d2c <fpuInit>
     320:	48bc      	ldr	r0, [pc, #752]	; (614 <main+0x314>)
     322:	49bd      	ldr	r1, [pc, #756]	; (618 <main+0x318>)
     324:	4abd      	ldr	r2, [pc, #756]	; (61c <main+0x31c>)
     326:	ed9f 7abe 	vldr	s14, [pc, #760]	; 620 <main+0x320>
     32a:	2300      	movs	r3, #0
     32c:	ee07 3a90 	vmov	s15, r3
     330:	eef8 7ae7 	vcvt.f32.s32	s15, s15
     334:	069d      	lsls	r5, r3, #26
     336:	029c      	lsls	r4, r3, #10
     338:	ee67 7a87 	vmul.f32	s15, s15, s14
     33c:	3301      	adds	r3, #1
     33e:	2b20      	cmp	r3, #32
     340:	ece0 7a01 	vstmia	r0!, {s15}
     344:	f841 5f04 	str.w	r5, [r1, #4]!
     348:	f822 4f02 	strh.w	r4, [r2, #2]!
     34c:	d1ee      	bne.n	32c <main+0x2c>
     34e:	203a      	movs	r0, #58	; 0x3a
     350:	f001 fc30 	bl	1bb4 <Chip_Clock_EnablePeriphClock>
     354:	f04f 4380 	mov.w	r3, #1073741824	; 0x40000000
     358:	f04f 7280 	mov.w	r2, #16777216	; 0x1000000
     35c:	f8c3 2124 	str.w	r2, [r3, #292]	; 0x124
     360:	bf00      	nop
     362:	bf00      	nop
     364:	bf00      	nop
     366:	bf00      	nop
     368:	4dae      	ldr	r5, [pc, #696]	; (624 <main+0x324>)
     36a:	f8c3 2144 	str.w	r2, [r3, #324]	; 0x144
     36e:	4628      	mov	r0, r5
     370:	4cad      	ldr	r4, [pc, #692]	; (628 <main+0x328>)
     372:	f002 f8b5 	bl	24e0 <Chip_TIMER_Reset>
     376:	2300      	movs	r3, #0
     378:	606b      	str	r3, [r5, #4]
     37a:	f504 4580 	add.w	r5, r4, #16384	; 0x4000
     37e:	f005 fc95 	bl	5cac <rand>
     382:	f844 0f04 	str.w	r0, [r4, #4]!
     386:	42a5      	cmp	r5, r4
     388:	d1f9      	bne.n	37e <main+0x7e>
     38a:	48a8      	ldr	r0, [pc, #672]	; (62c <main+0x32c>)
     38c:	4ca5      	ldr	r4, [pc, #660]	; (624 <main+0x324>)
     38e:	f8df 82fc 	ldr.w	r8, [pc, #764]	; 68c <main+0x38c>
     392:	f8df 92fc 	ldr.w	r9, [pc, #764]	; 690 <main+0x390>
     396:	f004 fd49 	bl	4e2c <printf>
     39a:	2301      	movs	r3, #1
     39c:	2204      	movs	r2, #4
     39e:	2105      	movs	r1, #5
     3a0:	48a3      	ldr	r0, [pc, #652]	; (630 <main+0x330>)
     3a2:	f004 fd43 	bl	4e2c <printf>
     3a6:	4ba3      	ldr	r3, [pc, #652]	; (634 <main+0x334>)
     3a8:	4aa3      	ldr	r2, [pc, #652]	; (638 <main+0x338>)
     3aa:	49a4      	ldr	r1, [pc, #656]	; (63c <main+0x33c>)
     3ac:	48a4      	ldr	r0, [pc, #656]	; (640 <main+0x340>)
     3ae:	2500      	movs	r5, #0
     3b0:	2601      	movs	r6, #1
     3b2:	f004 fd3b 	bl	4e2c <printf>
     3b6:	4620      	mov	r0, r4
     3b8:	f002 f892 	bl	24e0 <Chip_TIMER_Reset>
     3bc:	6066      	str	r6, [r4, #4]
     3be:	6065      	str	r5, [r4, #4]
     3c0:	68a7      	ldr	r7, [r4, #8]
     3c2:	48a0      	ldr	r0, [pc, #640]	; (644 <main+0x344>)
     3c4:	4639      	mov	r1, r7
     3c6:	f004 fd31 	bl	4e2c <printf>
     3ca:	4639      	mov	r1, r7
     3cc:	489e      	ldr	r0, [pc, #632]	; (648 <main+0x348>)
     3ce:	f004 fd2d 	bl	4e2c <printf>
     3d2:	489e      	ldr	r0, [pc, #632]	; (64c <main+0x34c>)
     3d4:	f004 fd2a 	bl	4e2c <printf>
     3d8:	489d      	ldr	r0, [pc, #628]	; (650 <main+0x350>)
     3da:	f004 fd27 	bl	4e2c <printf>
     3de:	489d      	ldr	r0, [pc, #628]	; (654 <main+0x354>)
     3e0:	f004 fd24 	bl	4e2c <printf>
     3e4:	4620      	mov	r0, r4
     3e6:	f002 f87b 	bl	24e0 <Chip_TIMER_Reset>
     3ea:	462a      	mov	r2, r5
     3ec:	4633      	mov	r3, r6
     3ee:	6066      	str	r6, [r4, #4]
     3f0:	4999      	ldr	r1, [pc, #612]	; (658 <main+0x358>)
     3f2:	489a      	ldr	r0, [pc, #616]	; (65c <main+0x35c>)
     3f4:	f002 ff92 	bl	331c <arm_cfft_f32>
     3f8:	6065      	str	r5, [r4, #4]
     3fa:	68a1      	ldr	r1, [r4, #8]
     3fc:	4898      	ldr	r0, [pc, #608]	; (660 <main+0x360>)
     3fe:	1bc9      	subs	r1, r1, r7
     400:	f004 fd14 	bl	4e2c <printf>
     404:	4897      	ldr	r0, [pc, #604]	; (664 <main+0x364>)
     406:	f004 fd11 	bl	4e2c <printf>
     40a:	4620      	mov	r0, r4
     40c:	f002 f868 	bl	24e0 <Chip_TIMER_Reset>
     410:	462a      	mov	r2, r5
     412:	4633      	mov	r3, r6
     414:	6066      	str	r6, [r4, #4]
     416:	4990      	ldr	r1, [pc, #576]	; (658 <main+0x358>)
     418:	4893      	ldr	r0, [pc, #588]	; (668 <main+0x368>)
     41a:	f002 ff7f 	bl	331c <arm_cfft_f32>
     41e:	6065      	str	r5, [r4, #4]
     420:	68a1      	ldr	r1, [r4, #8]
     422:	488f      	ldr	r0, [pc, #572]	; (660 <main+0x360>)
     424:	1bc9      	subs	r1, r1, r7
     426:	f004 fd01 	bl	4e2c <printf>
     42a:	488e      	ldr	r0, [pc, #568]	; (664 <main+0x364>)
     42c:	f004 fcfe 	bl	4e2c <printf>
     430:	4620      	mov	r0, r4
     432:	f002 f855 	bl	24e0 <Chip_TIMER_Reset>
     436:	462a      	mov	r2, r5
     438:	4633      	mov	r3, r6
     43a:	6066      	str	r6, [r4, #4]
     43c:	4986      	ldr	r1, [pc, #536]	; (658 <main+0x358>)
     43e:	488b      	ldr	r0, [pc, #556]	; (66c <main+0x36c>)
     440:	f002 ff6c 	bl	331c <arm_cfft_f32>
     444:	6065      	str	r5, [r4, #4]
     446:	68a1      	ldr	r1, [r4, #8]
     448:	4885      	ldr	r0, [pc, #532]	; (660 <main+0x360>)
     44a:	1bc9      	subs	r1, r1, r7
     44c:	f004 fcee 	bl	4e2c <printf>
     450:	4884      	ldr	r0, [pc, #528]	; (664 <main+0x364>)
     452:	f004 fceb 	bl	4e2c <printf>
     456:	4620      	mov	r0, r4
     458:	f002 f842 	bl	24e0 <Chip_TIMER_Reset>
     45c:	462a      	mov	r2, r5
     45e:	4633      	mov	r3, r6
     460:	6066      	str	r6, [r4, #4]
     462:	497d      	ldr	r1, [pc, #500]	; (658 <main+0x358>)
     464:	4882      	ldr	r0, [pc, #520]	; (670 <main+0x370>)
     466:	f002 ff59 	bl	331c <arm_cfft_f32>
     46a:	6065      	str	r5, [r4, #4]
     46c:	68a1      	ldr	r1, [r4, #8]
     46e:	487c      	ldr	r0, [pc, #496]	; (660 <main+0x360>)
     470:	1bc9      	subs	r1, r1, r7
     472:	f004 fcdb 	bl	4e2c <printf>
     476:	487b      	ldr	r0, [pc, #492]	; (664 <main+0x364>)
     478:	f004 fcd8 	bl	4e2c <printf>
     47c:	4620      	mov	r0, r4
     47e:	f002 f82f 	bl	24e0 <Chip_TIMER_Reset>
     482:	462a      	mov	r2, r5
     484:	4633      	mov	r3, r6
     486:	6066      	str	r6, [r4, #4]
     488:	4973      	ldr	r1, [pc, #460]	; (658 <main+0x358>)
     48a:	487a      	ldr	r0, [pc, #488]	; (674 <main+0x374>)
     48c:	f002 ff46 	bl	331c <arm_cfft_f32>
     490:	6065      	str	r5, [r4, #4]
     492:	68a1      	ldr	r1, [r4, #8]
     494:	4872      	ldr	r0, [pc, #456]	; (660 <main+0x360>)
     496:	1bc9      	subs	r1, r1, r7
     498:	f004 fcc8 	bl	4e2c <printf>
     49c:	4871      	ldr	r0, [pc, #452]	; (664 <main+0x364>)
     49e:	f004 fcc5 	bl	4e2c <printf>
     4a2:	4620      	mov	r0, r4
     4a4:	f002 f81c 	bl	24e0 <Chip_TIMER_Reset>
     4a8:	462a      	mov	r2, r5
     4aa:	4633      	mov	r3, r6
     4ac:	6066      	str	r6, [r4, #4]
     4ae:	496a      	ldr	r1, [pc, #424]	; (658 <main+0x358>)
     4b0:	4871      	ldr	r0, [pc, #452]	; (678 <main+0x378>)
     4b2:	f002 ff33 	bl	331c <arm_cfft_f32>
     4b6:	6065      	str	r5, [r4, #4]
     4b8:	68a1      	ldr	r1, [r4, #8]
     4ba:	4869      	ldr	r0, [pc, #420]	; (660 <main+0x360>)
     4bc:	1bc9      	subs	r1, r1, r7
     4be:	f004 fcb5 	bl	4e2c <printf>
     4c2:	4868      	ldr	r0, [pc, #416]	; (664 <main+0x364>)
     4c4:	f004 fcb2 	bl	4e2c <printf>
     4c8:	4620      	mov	r0, r4
     4ca:	f002 f809 	bl	24e0 <Chip_TIMER_Reset>
     4ce:	462a      	mov	r2, r5
     4d0:	4633      	mov	r3, r6
     4d2:	6066      	str	r6, [r4, #4]
     4d4:	4960      	ldr	r1, [pc, #384]	; (658 <main+0x358>)
     4d6:	4869      	ldr	r0, [pc, #420]	; (67c <main+0x37c>)
     4d8:	f002 ff20 	bl	331c <arm_cfft_f32>
     4dc:	6065      	str	r5, [r4, #4]
     4de:	68a1      	ldr	r1, [r4, #8]
     4e0:	485f      	ldr	r0, [pc, #380]	; (660 <main+0x360>)
     4e2:	1bc9      	subs	r1, r1, r7
     4e4:	f004 fca2 	bl	4e2c <printf>
     4e8:	485e      	ldr	r0, [pc, #376]	; (664 <main+0x364>)
     4ea:	f004 fc9f 	bl	4e2c <printf>
     4ee:	4620      	mov	r0, r4
     4f0:	f001 fff6 	bl	24e0 <Chip_TIMER_Reset>
     4f4:	462a      	mov	r2, r5
     4f6:	4633      	mov	r3, r6
     4f8:	6066      	str	r6, [r4, #4]
     4fa:	4957      	ldr	r1, [pc, #348]	; (658 <main+0x358>)
     4fc:	4860      	ldr	r0, [pc, #384]	; (680 <main+0x380>)
     4fe:	f002 ff0d 	bl	331c <arm_cfft_f32>
     502:	6065      	str	r5, [r4, #4]
     504:	68a1      	ldr	r1, [r4, #8]
     506:	4856      	ldr	r0, [pc, #344]	; (660 <main+0x360>)
     508:	1bc9      	subs	r1, r1, r7
     50a:	f004 fc8f 	bl	4e2c <printf>
     50e:	4855      	ldr	r0, [pc, #340]	; (664 <main+0x364>)
     510:	f004 fc8c 	bl	4e2c <printf>
     514:	4620      	mov	r0, r4
     516:	f001 ffe3 	bl	24e0 <Chip_TIMER_Reset>
     51a:	462a      	mov	r2, r5
     51c:	4633      	mov	r3, r6
     51e:	6066      	str	r6, [r4, #4]
     520:	494d      	ldr	r1, [pc, #308]	; (658 <main+0x358>)
     522:	4858      	ldr	r0, [pc, #352]	; (684 <main+0x384>)
     524:	f002 fefa 	bl	331c <arm_cfft_f32>
     528:	6065      	str	r5, [r4, #4]
     52a:	68a1      	ldr	r1, [r4, #8]
     52c:	484c      	ldr	r0, [pc, #304]	; (660 <main+0x360>)
     52e:	1bc9      	subs	r1, r1, r7
     530:	f004 fc7c 	bl	4e2c <printf>
     534:	484b      	ldr	r0, [pc, #300]	; (664 <main+0x364>)
     536:	f004 fc79 	bl	4e2c <printf>
     53a:	4845      	ldr	r0, [pc, #276]	; (650 <main+0x350>)
     53c:	f004 fc76 	bl	4e2c <printf>
     540:	4851      	ldr	r0, [pc, #324]	; (688 <main+0x388>)
     542:	f004 fc73 	bl	4e2c <printf>
     546:	4620      	mov	r0, r4
     548:	f001 ffca 	bl	24e0 <Chip_TIMER_Reset>
     54c:	462b      	mov	r3, r5
     54e:	462a      	mov	r2, r5
     550:	6066      	str	r6, [r4, #4]
     552:	4941      	ldr	r1, [pc, #260]	; (658 <main+0x358>)
     554:	4841      	ldr	r0, [pc, #260]	; (65c <main+0x35c>)
     556:	f002 fee1 	bl	331c <arm_cfft_f32>
     55a:	6065      	str	r5, [r4, #4]
     55c:	68a1      	ldr	r1, [r4, #8]
     55e:	4840      	ldr	r0, [pc, #256]	; (660 <main+0x360>)
     560:	1bc9      	subs	r1, r1, r7
     562:	f004 fc63 	bl	4e2c <printf>
     566:	483f      	ldr	r0, [pc, #252]	; (664 <main+0x364>)
     568:	f004 fc60 	bl	4e2c <printf>
     56c:	4620      	mov	r0, r4
     56e:	f001 ffb7 	bl	24e0 <Chip_TIMER_Reset>
     572:	462b      	mov	r3, r5
     574:	462a      	mov	r2, r5
     576:	6066      	str	r6, [r4, #4]
     578:	4937      	ldr	r1, [pc, #220]	; (658 <main+0x358>)
     57a:	483b      	ldr	r0, [pc, #236]	; (668 <main+0x368>)
     57c:	f002 fece 	bl	331c <arm_cfft_f32>
     580:	6065      	str	r5, [r4, #4]
     582:	68a1      	ldr	r1, [r4, #8]
     584:	4836      	ldr	r0, [pc, #216]	; (660 <main+0x360>)
     586:	1bc9      	subs	r1, r1, r7
     588:	f004 fc50 	bl	4e2c <printf>
     58c:	4835      	ldr	r0, [pc, #212]	; (664 <main+0x364>)
     58e:	f004 fc4d 	bl	4e2c <printf>
     592:	4620      	mov	r0, r4
     594:	f001 ffa4 	bl	24e0 <Chip_TIMER_Reset>
     598:	462b      	mov	r3, r5
     59a:	462a      	mov	r2, r5
     59c:	6066      	str	r6, [r4, #4]
     59e:	492e      	ldr	r1, [pc, #184]	; (658 <main+0x358>)
     5a0:	4832      	ldr	r0, [pc, #200]	; (66c <main+0x36c>)
     5a2:	f002 febb 	bl	331c <arm_cfft_f32>
     5a6:	6065      	str	r5, [r4, #4]
     5a8:	68a1      	ldr	r1, [r4, #8]
     5aa:	482d      	ldr	r0, [pc, #180]	; (660 <main+0x360>)
     5ac:	1bc9      	subs	r1, r1, r7
     5ae:	f004 fc3d 	bl	4e2c <printf>
     5b2:	482c      	ldr	r0, [pc, #176]	; (664 <main+0x364>)
     5b4:	f004 fc3a 	bl	4e2c <printf>
     5b8:	4620      	mov	r0, r4
     5ba:	f001 ff91 	bl	24e0 <Chip_TIMER_Reset>
     5be:	462b      	mov	r3, r5
     5c0:	462a      	mov	r2, r5
     5c2:	6066      	str	r6, [r4, #4]
     5c4:	4924      	ldr	r1, [pc, #144]	; (658 <main+0x358>)
     5c6:	482a      	ldr	r0, [pc, #168]	; (670 <main+0x370>)
     5c8:	f002 fea8 	bl	331c <arm_cfft_f32>
     5cc:	6065      	str	r5, [r4, #4]
     5ce:	68a1      	ldr	r1, [r4, #8]
     5d0:	4823      	ldr	r0, [pc, #140]	; (660 <main+0x360>)
     5d2:	1bc9      	subs	r1, r1, r7
     5d4:	f004 fc2a 	bl	4e2c <printf>
     5d8:	4822      	ldr	r0, [pc, #136]	; (664 <main+0x364>)
     5da:	f004 fc27 	bl	4e2c <printf>
     5de:	4620      	mov	r0, r4
     5e0:	f001 ff7e 	bl	24e0 <Chip_TIMER_Reset>
     5e4:	462b      	mov	r3, r5
     5e6:	462a      	mov	r2, r5
     5e8:	6066      	str	r6, [r4, #4]
     5ea:	491b      	ldr	r1, [pc, #108]	; (658 <main+0x358>)
     5ec:	4821      	ldr	r0, [pc, #132]	; (674 <main+0x374>)
     5ee:	f002 fe95 	bl	331c <arm_cfft_f32>
     5f2:	6065      	str	r5, [r4, #4]
     5f4:	68a1      	ldr	r1, [r4, #8]
     5f6:	481a      	ldr	r0, [pc, #104]	; (660 <main+0x360>)
     5f8:	1bc9      	subs	r1, r1, r7
     5fa:	f004 fc17 	bl	4e2c <printf>
     5fe:	4819      	ldr	r0, [pc, #100]	; (664 <main+0x364>)
     600:	f004 fc14 	bl	4e2c <printf>
     604:	4620      	mov	r0, r4
     606:	f001 ff6b 	bl	24e0 <Chip_TIMER_Reset>
     60a:	462b      	mov	r3, r5
     60c:	462a      	mov	r2, r5
     60e:	6066      	str	r6, [r4, #4]
     610:	4911      	ldr	r1, [pc, #68]	; (658 <main+0x358>)
     612:	e03f      	b.n	694 <main+0x394>
     614:	200023e4 	.word	0x200023e4
     618:	2000246c 	.word	0x2000246c
     61c:	2000025e 	.word	0x2000025e
     620:	3d000000 	.word	0x3d000000
     624:	40008000 	.word	0x40008000
     628:	2000fffc 	.word	0x2000fffc
     62c:	00006f24 	.word	0x00006f24
     630:	00006f44 	.word	0x00006f44
     634:	00006f5c 	.word	0x00006f5c
     638:	00006f64 	.word	0x00006f64
     63c:	00006f68 	.word	0x00006f68
     640:	00006f74 	.word	0x00006f74
     644:	00006f80 	.word	0x00006f80
     648:	00006f94 	.word	0x00006f94
     64c:	00006fb4 	.word	0x00006fb4
     650:	00006f90 	.word	0x00006f90
     654:	00006fe0 	.word	0x00006fe0
     658:	20010000 	.word	0x20010000
     65c:	00007194 	.word	0x00007194
     660:	00006ff8 	.word	0x00006ff8
     664:	00007108 	.word	0x00007108
     668:	000071a4 	.word	0x000071a4
     66c:	000071b4 	.word	0x000071b4
     670:	000071d4 	.word	0x000071d4
     674:	00007174 	.word	0x00007174
     678:	000071e4 	.word	0x000071e4
     67c:	000071c4 	.word	0x000071c4
     680:	00007184 	.word	0x00007184
     684:	000071f4 	.word	0x000071f4
     688:	00006ffc 	.word	0x00006ffc
     68c:	200023d4 	.word	0x200023d4
     690:	200023b0 	.word	0x200023b0
     694:	48b8      	ldr	r0, [pc, #736]	; (978 <main+0x678>)
     696:	f002 fe41 	bl	331c <arm_cfft_f32>
     69a:	6065      	str	r5, [r4, #4]
     69c:	68a1      	ldr	r1, [r4, #8]
     69e:	48b7      	ldr	r0, [pc, #732]	; (97c <main+0x67c>)
     6a0:	1bc9      	subs	r1, r1, r7
     6a2:	f004 fbc3 	bl	4e2c <printf>
     6a6:	48b6      	ldr	r0, [pc, #728]	; (980 <main+0x680>)
     6a8:	f004 fbc0 	bl	4e2c <printf>
     6ac:	4620      	mov	r0, r4
     6ae:	f001 ff17 	bl	24e0 <Chip_TIMER_Reset>
     6b2:	462b      	mov	r3, r5
     6b4:	462a      	mov	r2, r5
     6b6:	6066      	str	r6, [r4, #4]
     6b8:	49b2      	ldr	r1, [pc, #712]	; (984 <main+0x684>)
     6ba:	48b3      	ldr	r0, [pc, #716]	; (988 <main+0x688>)
     6bc:	f002 fe2e 	bl	331c <arm_cfft_f32>
     6c0:	6065      	str	r5, [r4, #4]
     6c2:	68a1      	ldr	r1, [r4, #8]
     6c4:	48ad      	ldr	r0, [pc, #692]	; (97c <main+0x67c>)
     6c6:	1bc9      	subs	r1, r1, r7
     6c8:	f004 fbb0 	bl	4e2c <printf>
     6cc:	48ac      	ldr	r0, [pc, #688]	; (980 <main+0x680>)
     6ce:	f004 fbad 	bl	4e2c <printf>
     6d2:	4620      	mov	r0, r4
     6d4:	f001 ff04 	bl	24e0 <Chip_TIMER_Reset>
     6d8:	462b      	mov	r3, r5
     6da:	462a      	mov	r2, r5
     6dc:	6066      	str	r6, [r4, #4]
     6de:	49a9      	ldr	r1, [pc, #676]	; (984 <main+0x684>)
     6e0:	48aa      	ldr	r0, [pc, #680]	; (98c <main+0x68c>)
     6e2:	f002 fe1b 	bl	331c <arm_cfft_f32>
     6e6:	6065      	str	r5, [r4, #4]
     6e8:	68a1      	ldr	r1, [r4, #8]
     6ea:	48a4      	ldr	r0, [pc, #656]	; (97c <main+0x67c>)
     6ec:	1bc9      	subs	r1, r1, r7
     6ee:	f004 fb9d 	bl	4e2c <printf>
     6f2:	48a3      	ldr	r0, [pc, #652]	; (980 <main+0x680>)
     6f4:	f004 fb9a 	bl	4e2c <printf>
     6f8:	4620      	mov	r0, r4
     6fa:	f001 fef1 	bl	24e0 <Chip_TIMER_Reset>
     6fe:	462b      	mov	r3, r5
     700:	462a      	mov	r2, r5
     702:	6066      	str	r6, [r4, #4]
     704:	499f      	ldr	r1, [pc, #636]	; (984 <main+0x684>)
     706:	48a2      	ldr	r0, [pc, #648]	; (990 <main+0x690>)
     708:	f002 fe08 	bl	331c <arm_cfft_f32>
     70c:	6065      	str	r5, [r4, #4]
     70e:	68a1      	ldr	r1, [r4, #8]
     710:	489a      	ldr	r0, [pc, #616]	; (97c <main+0x67c>)
     712:	1bc9      	subs	r1, r1, r7
     714:	f004 fb8a 	bl	4e2c <printf>
     718:	4899      	ldr	r0, [pc, #612]	; (980 <main+0x680>)
     71a:	f004 fb87 	bl	4e2c <printf>
     71e:	489d      	ldr	r0, [pc, #628]	; (994 <main+0x694>)
     720:	f004 fb84 	bl	4e2c <printf>
     724:	489c      	ldr	r0, [pc, #624]	; (998 <main+0x698>)
     726:	f004 fb81 	bl	4e2c <printf>
     72a:	4620      	mov	r0, r4
     72c:	f001 fed8 	bl	24e0 <Chip_TIMER_Reset>
     730:	2210      	movs	r2, #16
     732:	6066      	str	r6, [r4, #4]
     734:	4999      	ldr	r1, [pc, #612]	; (99c <main+0x69c>)
     736:	4893      	ldr	r0, [pc, #588]	; (984 <main+0x684>)
     738:	f003 fcd8 	bl	40ec <arm_cmplx_mag_f32>
     73c:	6065      	str	r5, [r4, #4]
     73e:	68a1      	ldr	r1, [r4, #8]
     740:	488e      	ldr	r0, [pc, #568]	; (97c <main+0x67c>)
     742:	1bc9      	subs	r1, r1, r7
     744:	f004 fb72 	bl	4e2c <printf>
     748:	488d      	ldr	r0, [pc, #564]	; (980 <main+0x680>)
     74a:	f004 fb6f 	bl	4e2c <printf>
     74e:	4620      	mov	r0, r4
     750:	f001 fec6 	bl	24e0 <Chip_TIMER_Reset>
     754:	2220      	movs	r2, #32
     756:	6066      	str	r6, [r4, #4]
     758:	4990      	ldr	r1, [pc, #576]	; (99c <main+0x69c>)
     75a:	488a      	ldr	r0, [pc, #552]	; (984 <main+0x684>)
     75c:	f003 fcc6 	bl	40ec <arm_cmplx_mag_f32>
     760:	6065      	str	r5, [r4, #4]
     762:	68a1      	ldr	r1, [r4, #8]
     764:	4885      	ldr	r0, [pc, #532]	; (97c <main+0x67c>)
     766:	1bc9      	subs	r1, r1, r7
     768:	f004 fb60 	bl	4e2c <printf>
     76c:	4884      	ldr	r0, [pc, #528]	; (980 <main+0x680>)
     76e:	f004 fb5d 	bl	4e2c <printf>
     772:	4620      	mov	r0, r4
     774:	f001 feb4 	bl	24e0 <Chip_TIMER_Reset>
     778:	2240      	movs	r2, #64	; 0x40
     77a:	6066      	str	r6, [r4, #4]
     77c:	4987      	ldr	r1, [pc, #540]	; (99c <main+0x69c>)
     77e:	4881      	ldr	r0, [pc, #516]	; (984 <main+0x684>)
     780:	f003 fcb4 	bl	40ec <arm_cmplx_mag_f32>
     784:	6065      	str	r5, [r4, #4]
     786:	68a1      	ldr	r1, [r4, #8]
     788:	487c      	ldr	r0, [pc, #496]	; (97c <main+0x67c>)
     78a:	1bc9      	subs	r1, r1, r7
     78c:	f004 fb4e 	bl	4e2c <printf>
     790:	487b      	ldr	r0, [pc, #492]	; (980 <main+0x680>)
     792:	f004 fb4b 	bl	4e2c <printf>
     796:	4620      	mov	r0, r4
     798:	f001 fea2 	bl	24e0 <Chip_TIMER_Reset>
     79c:	2280      	movs	r2, #128	; 0x80
     79e:	6066      	str	r6, [r4, #4]
     7a0:	497e      	ldr	r1, [pc, #504]	; (99c <main+0x69c>)
     7a2:	4878      	ldr	r0, [pc, #480]	; (984 <main+0x684>)
     7a4:	f003 fca2 	bl	40ec <arm_cmplx_mag_f32>
     7a8:	6065      	str	r5, [r4, #4]
     7aa:	68a1      	ldr	r1, [r4, #8]
     7ac:	4873      	ldr	r0, [pc, #460]	; (97c <main+0x67c>)
     7ae:	1bc9      	subs	r1, r1, r7
     7b0:	f004 fb3c 	bl	4e2c <printf>
     7b4:	4872      	ldr	r0, [pc, #456]	; (980 <main+0x680>)
     7b6:	f004 fb39 	bl	4e2c <printf>
     7ba:	4620      	mov	r0, r4
     7bc:	f001 fe90 	bl	24e0 <Chip_TIMER_Reset>
     7c0:	f44f 7280 	mov.w	r2, #256	; 0x100
     7c4:	6066      	str	r6, [r4, #4]
     7c6:	4975      	ldr	r1, [pc, #468]	; (99c <main+0x69c>)
     7c8:	486e      	ldr	r0, [pc, #440]	; (984 <main+0x684>)
     7ca:	f003 fc8f 	bl	40ec <arm_cmplx_mag_f32>
     7ce:	6065      	str	r5, [r4, #4]
     7d0:	68a1      	ldr	r1, [r4, #8]
     7d2:	486a      	ldr	r0, [pc, #424]	; (97c <main+0x67c>)
     7d4:	1bc9      	subs	r1, r1, r7
     7d6:	f004 fb29 	bl	4e2c <printf>
     7da:	4869      	ldr	r0, [pc, #420]	; (980 <main+0x680>)
     7dc:	f004 fb26 	bl	4e2c <printf>
     7e0:	4620      	mov	r0, r4
     7e2:	f001 fe7d 	bl	24e0 <Chip_TIMER_Reset>
     7e6:	f44f 7200 	mov.w	r2, #512	; 0x200
     7ea:	6066      	str	r6, [r4, #4]
     7ec:	496b      	ldr	r1, [pc, #428]	; (99c <main+0x69c>)
     7ee:	4865      	ldr	r0, [pc, #404]	; (984 <main+0x684>)
     7f0:	f003 fc7c 	bl	40ec <arm_cmplx_mag_f32>
     7f4:	6065      	str	r5, [r4, #4]
     7f6:	68a1      	ldr	r1, [r4, #8]
     7f8:	4860      	ldr	r0, [pc, #384]	; (97c <main+0x67c>)
     7fa:	1bc9      	subs	r1, r1, r7
     7fc:	f004 fb16 	bl	4e2c <printf>
     800:	485f      	ldr	r0, [pc, #380]	; (980 <main+0x680>)
     802:	f004 fb13 	bl	4e2c <printf>
     806:	4620      	mov	r0, r4
     808:	f001 fe6a 	bl	24e0 <Chip_TIMER_Reset>
     80c:	f44f 6280 	mov.w	r2, #1024	; 0x400
     810:	6066      	str	r6, [r4, #4]
     812:	4962      	ldr	r1, [pc, #392]	; (99c <main+0x69c>)
     814:	485b      	ldr	r0, [pc, #364]	; (984 <main+0x684>)
     816:	f003 fc69 	bl	40ec <arm_cmplx_mag_f32>
     81a:	6065      	str	r5, [r4, #4]
     81c:	68a1      	ldr	r1, [r4, #8]
     81e:	4857      	ldr	r0, [pc, #348]	; (97c <main+0x67c>)
     820:	1bc9      	subs	r1, r1, r7
     822:	f004 fb03 	bl	4e2c <printf>
     826:	4856      	ldr	r0, [pc, #344]	; (980 <main+0x680>)
     828:	f004 fb00 	bl	4e2c <printf>
     82c:	4620      	mov	r0, r4
     82e:	f001 fe57 	bl	24e0 <Chip_TIMER_Reset>
     832:	f44f 6200 	mov.w	r2, #2048	; 0x800
     836:	6066      	str	r6, [r4, #4]
     838:	4958      	ldr	r1, [pc, #352]	; (99c <main+0x69c>)
     83a:	4852      	ldr	r0, [pc, #328]	; (984 <main+0x684>)
     83c:	f003 fc56 	bl	40ec <arm_cmplx_mag_f32>
     840:	6065      	str	r5, [r4, #4]
     842:	68a1      	ldr	r1, [r4, #8]
     844:	484d      	ldr	r0, [pc, #308]	; (97c <main+0x67c>)
     846:	1bc9      	subs	r1, r1, r7
     848:	f004 faf0 	bl	4e2c <printf>
     84c:	484c      	ldr	r0, [pc, #304]	; (980 <main+0x680>)
     84e:	f004 faed 	bl	4e2c <printf>
     852:	4620      	mov	r0, r4
     854:	f001 fe44 	bl	24e0 <Chip_TIMER_Reset>
     858:	f44f 5280 	mov.w	r2, #4096	; 0x1000
     85c:	6066      	str	r6, [r4, #4]
     85e:	494f      	ldr	r1, [pc, #316]	; (99c <main+0x69c>)
     860:	4848      	ldr	r0, [pc, #288]	; (984 <main+0x684>)
     862:	f003 fc43 	bl	40ec <arm_cmplx_mag_f32>
     866:	6065      	str	r5, [r4, #4]
     868:	68a1      	ldr	r1, [r4, #8]
     86a:	4844      	ldr	r0, [pc, #272]	; (97c <main+0x67c>)
     86c:	1bc9      	subs	r1, r1, r7
     86e:	f004 fadd 	bl	4e2c <printf>
     872:	4843      	ldr	r0, [pc, #268]	; (980 <main+0x680>)
     874:	f004 fada 	bl	4e2c <printf>
     878:	4846      	ldr	r0, [pc, #280]	; (994 <main+0x694>)
     87a:	f004 fad7 	bl	4e2c <printf>
     87e:	4848      	ldr	r0, [pc, #288]	; (9a0 <main+0x6a0>)
     880:	f004 fad4 	bl	4e2c <printf>
     884:	4620      	mov	r0, r4
     886:	f001 fe2b 	bl	24e0 <Chip_TIMER_Reset>
     88a:	2210      	movs	r2, #16
     88c:	6066      	str	r6, [r4, #4]
     88e:	4943      	ldr	r1, [pc, #268]	; (99c <main+0x69c>)
     890:	483c      	ldr	r0, [pc, #240]	; (984 <main+0x684>)
     892:	f003 fcc5 	bl	4220 <arm_cmplx_mag_squared_f32>
     896:	6065      	str	r5, [r4, #4]
     898:	68a1      	ldr	r1, [r4, #8]
     89a:	4838      	ldr	r0, [pc, #224]	; (97c <main+0x67c>)
     89c:	1bc9      	subs	r1, r1, r7
     89e:	f004 fac5 	bl	4e2c <printf>
     8a2:	4837      	ldr	r0, [pc, #220]	; (980 <main+0x680>)
     8a4:	f004 fac2 	bl	4e2c <printf>
     8a8:	4620      	mov	r0, r4
     8aa:	f001 fe19 	bl	24e0 <Chip_TIMER_Reset>
     8ae:	2220      	movs	r2, #32
     8b0:	6066      	str	r6, [r4, #4]
     8b2:	493a      	ldr	r1, [pc, #232]	; (99c <main+0x69c>)
     8b4:	4833      	ldr	r0, [pc, #204]	; (984 <main+0x684>)
     8b6:	f003 fcb3 	bl	4220 <arm_cmplx_mag_squared_f32>
     8ba:	6065      	str	r5, [r4, #4]
     8bc:	68a1      	ldr	r1, [r4, #8]
     8be:	482f      	ldr	r0, [pc, #188]	; (97c <main+0x67c>)
     8c0:	1bc9      	subs	r1, r1, r7
     8c2:	f004 fab3 	bl	4e2c <printf>
     8c6:	482e      	ldr	r0, [pc, #184]	; (980 <main+0x680>)
     8c8:	f004 fab0 	bl	4e2c <printf>
     8cc:	4620      	mov	r0, r4
     8ce:	f001 fe07 	bl	24e0 <Chip_TIMER_Reset>
     8d2:	2240      	movs	r2, #64	; 0x40
     8d4:	6066      	str	r6, [r4, #4]
     8d6:	4931      	ldr	r1, [pc, #196]	; (99c <main+0x69c>)
     8d8:	482a      	ldr	r0, [pc, #168]	; (984 <main+0x684>)
     8da:	f003 fca1 	bl	4220 <arm_cmplx_mag_squared_f32>
     8de:	6065      	str	r5, [r4, #4]
     8e0:	68a1      	ldr	r1, [r4, #8]
     8e2:	4826      	ldr	r0, [pc, #152]	; (97c <main+0x67c>)
     8e4:	1bc9      	subs	r1, r1, r7
     8e6:	f004 faa1 	bl	4e2c <printf>
     8ea:	4825      	ldr	r0, [pc, #148]	; (980 <main+0x680>)
     8ec:	f004 fa9e 	bl	4e2c <printf>
     8f0:	4620      	mov	r0, r4
     8f2:	f001 fdf5 	bl	24e0 <Chip_TIMER_Reset>
     8f6:	2280      	movs	r2, #128	; 0x80
     8f8:	6066      	str	r6, [r4, #4]
     8fa:	4928      	ldr	r1, [pc, #160]	; (99c <main+0x69c>)
     8fc:	4821      	ldr	r0, [pc, #132]	; (984 <main+0x684>)
     8fe:	f003 fc8f 	bl	4220 <arm_cmplx_mag_squared_f32>
     902:	6065      	str	r5, [r4, #4]
     904:	68a1      	ldr	r1, [r4, #8]
     906:	481d      	ldr	r0, [pc, #116]	; (97c <main+0x67c>)
     908:	1bc9      	subs	r1, r1, r7
     90a:	f004 fa8f 	bl	4e2c <printf>
     90e:	481c      	ldr	r0, [pc, #112]	; (980 <main+0x680>)
     910:	f004 fa8c 	bl	4e2c <printf>
     914:	4620      	mov	r0, r4
     916:	f001 fde3 	bl	24e0 <Chip_TIMER_Reset>
     91a:	f44f 7280 	mov.w	r2, #256	; 0x100
     91e:	6066      	str	r6, [r4, #4]
     920:	491e      	ldr	r1, [pc, #120]	; (99c <main+0x69c>)
     922:	4818      	ldr	r0, [pc, #96]	; (984 <main+0x684>)
     924:	f003 fc7c 	bl	4220 <arm_cmplx_mag_squared_f32>
     928:	6065      	str	r5, [r4, #4]
     92a:	68a1      	ldr	r1, [r4, #8]
     92c:	4813      	ldr	r0, [pc, #76]	; (97c <main+0x67c>)
     92e:	1bc9      	subs	r1, r1, r7
     930:	f004 fa7c 	bl	4e2c <printf>
     934:	4812      	ldr	r0, [pc, #72]	; (980 <main+0x680>)
     936:	f004 fa79 	bl	4e2c <printf>
     93a:	4620      	mov	r0, r4
     93c:	f001 fdd0 	bl	24e0 <Chip_TIMER_Reset>
     940:	f44f 7200 	mov.w	r2, #512	; 0x200
     944:	6066      	str	r6, [r4, #4]
     946:	4915      	ldr	r1, [pc, #84]	; (99c <main+0x69c>)
     948:	480e      	ldr	r0, [pc, #56]	; (984 <main+0x684>)
     94a:	f003 fc69 	bl	4220 <arm_cmplx_mag_squared_f32>
     94e:	6065      	str	r5, [r4, #4]
     950:	68a1      	ldr	r1, [r4, #8]
     952:	480a      	ldr	r0, [pc, #40]	; (97c <main+0x67c>)
     954:	1bc9      	subs	r1, r1, r7
     956:	f004 fa69 	bl	4e2c <printf>
     95a:	4809      	ldr	r0, [pc, #36]	; (980 <main+0x680>)
     95c:	f004 fa66 	bl	4e2c <printf>
     960:	4620      	mov	r0, r4
     962:	f001 fdbd 	bl	24e0 <Chip_TIMER_Reset>
     966:	f44f 6280 	mov.w	r2, #1024	; 0x400
     96a:	6066      	str	r6, [r4, #4]
     96c:	490b      	ldr	r1, [pc, #44]	; (99c <main+0x69c>)
     96e:	4805      	ldr	r0, [pc, #20]	; (984 <main+0x684>)
     970:	f003 fc56 	bl	4220 <arm_cmplx_mag_squared_f32>
     974:	6065      	str	r5, [r4, #4]
     976:	e015      	b.n	9a4 <main+0x6a4>
     978:	000071e4 	.word	0x000071e4
     97c:	00006ff8 	.word	0x00006ff8
     980:	00007108 	.word	0x00007108
     984:	20010000 	.word	0x20010000
     988:	000071c4 	.word	0x000071c4
     98c:	00007184 	.word	0x00007184
     990:	000071f4 	.word	0x000071f4
     994:	00006f90 	.word	0x00006f90
     998:	00007014 	.word	0x00007014
     99c:	20014000 	.word	0x20014000
     9a0:	00007024 	.word	0x00007024
     9a4:	68a1      	ldr	r1, [r4, #8]
     9a6:	48c8      	ldr	r0, [pc, #800]	; (cc8 <main+0x9c8>)
     9a8:	1bc9      	subs	r1, r1, r7
     9aa:	f004 fa3f 	bl	4e2c <printf>
     9ae:	48c7      	ldr	r0, [pc, #796]	; (ccc <main+0x9cc>)
     9b0:	f004 fa3c 	bl	4e2c <printf>
     9b4:	4620      	mov	r0, r4
     9b6:	f001 fd93 	bl	24e0 <Chip_TIMER_Reset>
     9ba:	f44f 6200 	mov.w	r2, #2048	; 0x800
     9be:	6066      	str	r6, [r4, #4]
     9c0:	49c3      	ldr	r1, [pc, #780]	; (cd0 <main+0x9d0>)
     9c2:	48c4      	ldr	r0, [pc, #784]	; (cd4 <main+0x9d4>)
     9c4:	f003 fc2c 	bl	4220 <arm_cmplx_mag_squared_f32>
     9c8:	6065      	str	r5, [r4, #4]
     9ca:	68a1      	ldr	r1, [r4, #8]
     9cc:	48be      	ldr	r0, [pc, #760]	; (cc8 <main+0x9c8>)
     9ce:	1bc9      	subs	r1, r1, r7
     9d0:	f004 fa2c 	bl	4e2c <printf>
     9d4:	48bd      	ldr	r0, [pc, #756]	; (ccc <main+0x9cc>)
     9d6:	f004 fa29 	bl	4e2c <printf>
     9da:	4620      	mov	r0, r4
     9dc:	f001 fd80 	bl	24e0 <Chip_TIMER_Reset>
     9e0:	f44f 5280 	mov.w	r2, #4096	; 0x1000
     9e4:	6066      	str	r6, [r4, #4]
     9e6:	49ba      	ldr	r1, [pc, #744]	; (cd0 <main+0x9d0>)
     9e8:	48ba      	ldr	r0, [pc, #744]	; (cd4 <main+0x9d4>)
     9ea:	f003 fc19 	bl	4220 <arm_cmplx_mag_squared_f32>
     9ee:	6065      	str	r5, [r4, #4]
     9f0:	68a1      	ldr	r1, [r4, #8]
     9f2:	48b5      	ldr	r0, [pc, #724]	; (cc8 <main+0x9c8>)
     9f4:	1bc9      	subs	r1, r1, r7
     9f6:	f004 fa19 	bl	4e2c <printf>
     9fa:	48b4      	ldr	r0, [pc, #720]	; (ccc <main+0x9cc>)
     9fc:	f004 fa16 	bl	4e2c <printf>
     a00:	48b5      	ldr	r0, [pc, #724]	; (cd8 <main+0x9d8>)
     a02:	f004 fa13 	bl	4e2c <printf>
     a06:	eddf 0ab5 	vldr	s1, [pc, #724]	; cdc <main+0x9dc>
     a0a:	ed9f 0ab5 	vldr	s0, [pc, #724]	; ce0 <main+0x9e0>
     a0e:	2120      	movs	r1, #32
     a10:	4640      	mov	r0, r8
     a12:	f000 fd77 	bl	1504 <InitGoertzel_f32>
     a16:	48b3      	ldr	r0, [pc, #716]	; (ce4 <main+0x9e4>)
     a18:	f004 fa08 	bl	4e2c <printf>
     a1c:	f04f 0b10 	mov.w	fp, #16
     a20:	4620      	mov	r0, r4
     a22:	f8c8 b008 	str.w	fp, [r8, #8]
     a26:	f001 fd5b 	bl	24e0 <Chip_TIMER_Reset>
     a2a:	4640      	mov	r0, r8
     a2c:	6066      	str	r6, [r4, #4]
     a2e:	49a9      	ldr	r1, [pc, #676]	; (cd4 <main+0x9d4>)
     a30:	f000 fd88 	bl	1544 <ProcessGoertzel_f32_Power>
     a34:	ed8d 0a03 	vstr	s0, [sp, #12]
     a38:	6065      	str	r5, [r4, #4]
     a3a:	68a1      	ldr	r1, [r4, #8]
     a3c:	48a2      	ldr	r0, [pc, #648]	; (cc8 <main+0x9c8>)
     a3e:	1bc9      	subs	r1, r1, r7
     a40:	f004 f9f4 	bl	4e2c <printf>
     a44:	48a1      	ldr	r0, [pc, #644]	; (ccc <main+0x9cc>)
     a46:	f004 f9f1 	bl	4e2c <printf>
     a4a:	eddd 7a03 	vldr	s15, [sp, #12]
     a4e:	ee77 7aa7 	vadd.f32	s15, s15, s15
     a52:	2320      	movs	r3, #32
     a54:	4620      	mov	r0, r4
     a56:	f8c8 3008 	str.w	r3, [r8, #8]
     a5a:	edcd 7a03 	vstr	s15, [sp, #12]
     a5e:	f001 fd3f 	bl	24e0 <Chip_TIMER_Reset>
     a62:	4640      	mov	r0, r8
     a64:	6066      	str	r6, [r4, #4]
     a66:	499b      	ldr	r1, [pc, #620]	; (cd4 <main+0x9d4>)
     a68:	f000 fd6c 	bl	1544 <ProcessGoertzel_f32_Power>
     a6c:	ed8d 0a03 	vstr	s0, [sp, #12]
     a70:	6065      	str	r5, [r4, #4]
     a72:	68a1      	ldr	r1, [r4, #8]
     a74:	4894      	ldr	r0, [pc, #592]	; (cc8 <main+0x9c8>)
     a76:	1bc9      	subs	r1, r1, r7
     a78:	f004 f9d8 	bl	4e2c <printf>
     a7c:	4893      	ldr	r0, [pc, #588]	; (ccc <main+0x9cc>)
     a7e:	f004 f9d5 	bl	4e2c <printf>
     a82:	eddd 7a03 	vldr	s15, [sp, #12]
     a86:	ee77 7aa7 	vadd.f32	s15, s15, s15
     a8a:	2340      	movs	r3, #64	; 0x40
     a8c:	4620      	mov	r0, r4
     a8e:	f8c8 3008 	str.w	r3, [r8, #8]
     a92:	edcd 7a03 	vstr	s15, [sp, #12]
     a96:	f001 fd23 	bl	24e0 <Chip_TIMER_Reset>
     a9a:	4640      	mov	r0, r8
     a9c:	6066      	str	r6, [r4, #4]
     a9e:	498d      	ldr	r1, [pc, #564]	; (cd4 <main+0x9d4>)
     aa0:	f000 fd50 	bl	1544 <ProcessGoertzel_f32_Power>
     aa4:	ed8d 0a03 	vstr	s0, [sp, #12]
     aa8:	6065      	str	r5, [r4, #4]
     aaa:	68a1      	ldr	r1, [r4, #8]
     aac:	4886      	ldr	r0, [pc, #536]	; (cc8 <main+0x9c8>)
     aae:	1bc9      	subs	r1, r1, r7
     ab0:	f004 f9bc 	bl	4e2c <printf>
     ab4:	4885      	ldr	r0, [pc, #532]	; (ccc <main+0x9cc>)
     ab6:	f004 f9b9 	bl	4e2c <printf>
     aba:	eddd 7a03 	vldr	s15, [sp, #12]
     abe:	ee77 7aa7 	vadd.f32	s15, s15, s15
     ac2:	2380      	movs	r3, #128	; 0x80
     ac4:	4620      	mov	r0, r4
     ac6:	f8c8 3008 	str.w	r3, [r8, #8]
     aca:	edcd 7a03 	vstr	s15, [sp, #12]
     ace:	f001 fd07 	bl	24e0 <Chip_TIMER_Reset>
     ad2:	4640      	mov	r0, r8
     ad4:	6066      	str	r6, [r4, #4]
     ad6:	497f      	ldr	r1, [pc, #508]	; (cd4 <main+0x9d4>)
     ad8:	f000 fd34 	bl	1544 <ProcessGoertzel_f32_Power>
     adc:	ed8d 0a03 	vstr	s0, [sp, #12]
     ae0:	6065      	str	r5, [r4, #4]
     ae2:	68a1      	ldr	r1, [r4, #8]
     ae4:	4878      	ldr	r0, [pc, #480]	; (cc8 <main+0x9c8>)
     ae6:	1bc9      	subs	r1, r1, r7
     ae8:	f004 f9a0 	bl	4e2c <printf>
     aec:	4877      	ldr	r0, [pc, #476]	; (ccc <main+0x9cc>)
     aee:	f004 f99d 	bl	4e2c <printf>
     af2:	eddd 7a03 	vldr	s15, [sp, #12]
     af6:	ee77 7aa7 	vadd.f32	s15, s15, s15
     afa:	f44f 7380 	mov.w	r3, #256	; 0x100
     afe:	4620      	mov	r0, r4
     b00:	f8c8 3008 	str.w	r3, [r8, #8]
     b04:	edcd 7a03 	vstr	s15, [sp, #12]
     b08:	f001 fcea 	bl	24e0 <Chip_TIMER_Reset>
     b0c:	4640      	mov	r0, r8
     b0e:	6066      	str	r6, [r4, #4]
     b10:	4970      	ldr	r1, [pc, #448]	; (cd4 <main+0x9d4>)
     b12:	f000 fd17 	bl	1544 <ProcessGoertzel_f32_Power>
     b16:	ed8d 0a03 	vstr	s0, [sp, #12]
     b1a:	6065      	str	r5, [r4, #4]
     b1c:	68a1      	ldr	r1, [r4, #8]
     b1e:	486a      	ldr	r0, [pc, #424]	; (cc8 <main+0x9c8>)
     b20:	1bc9      	subs	r1, r1, r7
     b22:	f004 f983 	bl	4e2c <printf>
     b26:	4869      	ldr	r0, [pc, #420]	; (ccc <main+0x9cc>)
     b28:	f004 f980 	bl	4e2c <printf>
     b2c:	eddd 7a03 	vldr	s15, [sp, #12]
     b30:	ee77 7aa7 	vadd.f32	s15, s15, s15
     b34:	f44f 7300 	mov.w	r3, #512	; 0x200
     b38:	4620      	mov	r0, r4
     b3a:	f8c8 3008 	str.w	r3, [r8, #8]
     b3e:	edcd 7a03 	vstr	s15, [sp, #12]
     b42:	f001 fccd 	bl	24e0 <Chip_TIMER_Reset>
     b46:	4640      	mov	r0, r8
     b48:	6066      	str	r6, [r4, #4]
     b4a:	4962      	ldr	r1, [pc, #392]	; (cd4 <main+0x9d4>)
     b4c:	f000 fcfa 	bl	1544 <ProcessGoertzel_f32_Power>
     b50:	ed8d 0a03 	vstr	s0, [sp, #12]
     b54:	6065      	str	r5, [r4, #4]
     b56:	68a1      	ldr	r1, [r4, #8]
     b58:	485b      	ldr	r0, [pc, #364]	; (cc8 <main+0x9c8>)
     b5a:	1bc9      	subs	r1, r1, r7
     b5c:	f004 f966 	bl	4e2c <printf>
     b60:	485a      	ldr	r0, [pc, #360]	; (ccc <main+0x9cc>)
     b62:	f004 f963 	bl	4e2c <printf>
     b66:	eddd 7a03 	vldr	s15, [sp, #12]
     b6a:	ee77 7aa7 	vadd.f32	s15, s15, s15
     b6e:	f44f 6380 	mov.w	r3, #1024	; 0x400
     b72:	4620      	mov	r0, r4
     b74:	f8c8 3008 	str.w	r3, [r8, #8]
     b78:	edcd 7a03 	vstr	s15, [sp, #12]
     b7c:	f001 fcb0 	bl	24e0 <Chip_TIMER_Reset>
     b80:	4640      	mov	r0, r8
     b82:	6066      	str	r6, [r4, #4]
     b84:	4953      	ldr	r1, [pc, #332]	; (cd4 <main+0x9d4>)
     b86:	f000 fcdd 	bl	1544 <ProcessGoertzel_f32_Power>
     b8a:	ed8d 0a03 	vstr	s0, [sp, #12]
     b8e:	6065      	str	r5, [r4, #4]
     b90:	68a1      	ldr	r1, [r4, #8]
     b92:	484d      	ldr	r0, [pc, #308]	; (cc8 <main+0x9c8>)
     b94:	1bc9      	subs	r1, r1, r7
     b96:	f004 f949 	bl	4e2c <printf>
     b9a:	484c      	ldr	r0, [pc, #304]	; (ccc <main+0x9cc>)
     b9c:	f004 f946 	bl	4e2c <printf>
     ba0:	eddd 7a03 	vldr	s15, [sp, #12]
     ba4:	ee77 7aa7 	vadd.f32	s15, s15, s15
     ba8:	f44f 6a00 	mov.w	sl, #2048	; 0x800
     bac:	4620      	mov	r0, r4
     bae:	edcd 7a03 	vstr	s15, [sp, #12]
     bb2:	f8c8 a008 	str.w	sl, [r8, #8]
     bb6:	f001 fc93 	bl	24e0 <Chip_TIMER_Reset>
     bba:	4640      	mov	r0, r8
     bbc:	6066      	str	r6, [r4, #4]
     bbe:	4945      	ldr	r1, [pc, #276]	; (cd4 <main+0x9d4>)
     bc0:	f000 fcc0 	bl	1544 <ProcessGoertzel_f32_Power>
     bc4:	ed8d 0a03 	vstr	s0, [sp, #12]
     bc8:	6065      	str	r5, [r4, #4]
     bca:	68a1      	ldr	r1, [r4, #8]
     bcc:	483e      	ldr	r0, [pc, #248]	; (cc8 <main+0x9c8>)
     bce:	1bc9      	subs	r1, r1, r7
     bd0:	f004 f92c 	bl	4e2c <printf>
     bd4:	483d      	ldr	r0, [pc, #244]	; (ccc <main+0x9cc>)
     bd6:	f004 f929 	bl	4e2c <printf>
     bda:	eddd 7a03 	vldr	s15, [sp, #12]
     bde:	ee77 7aa7 	vadd.f32	s15, s15, s15
     be2:	f44f 5380 	mov.w	r3, #4096	; 0x1000
     be6:	4620      	mov	r0, r4
     be8:	f8c8 3008 	str.w	r3, [r8, #8]
     bec:	edcd 7a03 	vstr	s15, [sp, #12]
     bf0:	f001 fc76 	bl	24e0 <Chip_TIMER_Reset>
     bf4:	4640      	mov	r0, r8
     bf6:	6066      	str	r6, [r4, #4]
     bf8:	4936      	ldr	r1, [pc, #216]	; (cd4 <main+0x9d4>)
     bfa:	f8df 80d8 	ldr.w	r8, [pc, #216]	; cd4 <main+0x9d4>
     bfe:	f000 fca1 	bl	1544 <ProcessGoertzel_f32_Power>
     c02:	ed8d 0a03 	vstr	s0, [sp, #12]
     c06:	6065      	str	r5, [r4, #4]
     c08:	68a1      	ldr	r1, [r4, #8]
     c0a:	482f      	ldr	r0, [pc, #188]	; (cc8 <main+0x9c8>)
     c0c:	1bc9      	subs	r1, r1, r7
     c0e:	f004 f90d 	bl	4e2c <printf>
     c12:	482e      	ldr	r0, [pc, #184]	; (ccc <main+0x9cc>)
     c14:	f004 f90a 	bl	4e2c <printf>
     c18:	eddd 7a03 	vldr	s15, [sp, #12]
     c1c:	482e      	ldr	r0, [pc, #184]	; (cd8 <main+0x9d8>)
     c1e:	ee77 7aa7 	vadd.f32	s15, s15, s15
     c22:	edcd 7a03 	vstr	s15, [sp, #12]
     c26:	f004 f901 	bl	4e2c <printf>
     c2a:	482f      	ldr	r0, [pc, #188]	; (ce8 <main+0x9e8>)
     c2c:	f004 f8fe 	bl	4e2c <printf>
     c30:	4631      	mov	r1, r6
     c32:	4b2e      	ldr	r3, [pc, #184]	; (cec <main+0x9ec>)
     c34:	4a2e      	ldr	r2, [pc, #184]	; (cf0 <main+0x9f0>)
     c36:	482f      	ldr	r0, [pc, #188]	; (cf4 <main+0x9f4>)
     c38:	f002 ff68 	bl	3b0c <arm_biquad_cascade_df1_init_f32>
     c3c:	4620      	mov	r0, r4
     c3e:	f001 fc4f 	bl	24e0 <Chip_TIMER_Reset>
     c42:	465b      	mov	r3, fp
     c44:	4a22      	ldr	r2, [pc, #136]	; (cd0 <main+0x9d0>)
     c46:	6066      	str	r6, [r4, #4]
     c48:	4922      	ldr	r1, [pc, #136]	; (cd4 <main+0x9d4>)
     c4a:	482a      	ldr	r0, [pc, #168]	; (cf4 <main+0x9f4>)
     c4c:	f002 febc 	bl	39c8 <arm_biquad_cascade_df1_f32>
     c50:	6065      	str	r5, [r4, #4]
     c52:	68a1      	ldr	r1, [r4, #8]
     c54:	481c      	ldr	r0, [pc, #112]	; (cc8 <main+0x9c8>)
     c56:	1bc9      	subs	r1, r1, r7
     c58:	f004 f8e8 	bl	4e2c <printf>
     c5c:	481b      	ldr	r0, [pc, #108]	; (ccc <main+0x9cc>)
     c5e:	f004 f8e5 	bl	4e2c <printf>
     c62:	4620      	mov	r0, r4
     c64:	f001 fc3c 	bl	24e0 <Chip_TIMER_Reset>
     c68:	2320      	movs	r3, #32
     c6a:	4a19      	ldr	r2, [pc, #100]	; (cd0 <main+0x9d0>)
     c6c:	6066      	str	r6, [r4, #4]
     c6e:	4919      	ldr	r1, [pc, #100]	; (cd4 <main+0x9d4>)
     c70:	4820      	ldr	r0, [pc, #128]	; (cf4 <main+0x9f4>)
     c72:	f002 fea9 	bl	39c8 <arm_biquad_cascade_df1_f32>
     c76:	6065      	str	r5, [r4, #4]
     c78:	68a1      	ldr	r1, [r4, #8]
     c7a:	4813      	ldr	r0, [pc, #76]	; (cc8 <main+0x9c8>)
     c7c:	1bc9      	subs	r1, r1, r7
     c7e:	f004 f8d5 	bl	4e2c <printf>
     c82:	4812      	ldr	r0, [pc, #72]	; (ccc <main+0x9cc>)
     c84:	f004 f8d2 	bl	4e2c <printf>
     c88:	4620      	mov	r0, r4
     c8a:	f001 fc29 	bl	24e0 <Chip_TIMER_Reset>
     c8e:	2340      	movs	r3, #64	; 0x40
     c90:	4a0f      	ldr	r2, [pc, #60]	; (cd0 <main+0x9d0>)
     c92:	6066      	str	r6, [r4, #4]
     c94:	490f      	ldr	r1, [pc, #60]	; (cd4 <main+0x9d4>)
     c96:	4817      	ldr	r0, [pc, #92]	; (cf4 <main+0x9f4>)
     c98:	f002 fe96 	bl	39c8 <arm_biquad_cascade_df1_f32>
     c9c:	6065      	str	r5, [r4, #4]
     c9e:	68a1      	ldr	r1, [r4, #8]
     ca0:	4809      	ldr	r0, [pc, #36]	; (cc8 <main+0x9c8>)
     ca2:	1bc9      	subs	r1, r1, r7
     ca4:	f004 f8c2 	bl	4e2c <printf>
     ca8:	4808      	ldr	r0, [pc, #32]	; (ccc <main+0x9cc>)
     caa:	f004 f8bf 	bl	4e2c <printf>
     cae:	4620      	mov	r0, r4
     cb0:	f001 fc16 	bl	24e0 <Chip_TIMER_Reset>
     cb4:	2380      	movs	r3, #128	; 0x80
     cb6:	4a06      	ldr	r2, [pc, #24]	; (cd0 <main+0x9d0>)
     cb8:	6066      	str	r6, [r4, #4]
     cba:	4906      	ldr	r1, [pc, #24]	; (cd4 <main+0x9d4>)
     cbc:	480d      	ldr	r0, [pc, #52]	; (cf4 <main+0x9f4>)
     cbe:	f002 fe83 	bl	39c8 <arm_biquad_cascade_df1_f32>
     cc2:	6065      	str	r5, [r4, #4]
     cc4:	68a1      	ldr	r1, [r4, #8]
     cc6:	e017      	b.n	cf8 <main+0x9f8>
     cc8:	00006ff8 	.word	0x00006ff8
     ccc:	00007108 	.word	0x00007108
     cd0:	20014000 	.word	0x20014000
     cd4:	20010000 	.word	0x20010000
     cd8:	00006f90 	.word	0x00006f90
     cdc:	49742400 	.word	0x49742400
     ce0:	482fc800 	.word	0x482fc800
     ce4:	0000703c 	.word	0x0000703c
     ce8:	0000704c 	.word	0x0000704c
     cec:	200000f8 	.word	0x200000f8
     cf0:	20000000 	.word	0x20000000
     cf4:	200024f0 	.word	0x200024f0
     cf8:	48b4      	ldr	r0, [pc, #720]	; (fcc <main+0xccc>)
     cfa:	1bc9      	subs	r1, r1, r7
     cfc:	f004 f896 	bl	4e2c <printf>
     d00:	48b3      	ldr	r0, [pc, #716]	; (fd0 <main+0xcd0>)
     d02:	f004 f893 	bl	4e2c <printf>
     d06:	4620      	mov	r0, r4
     d08:	f001 fbea 	bl	24e0 <Chip_TIMER_Reset>
     d0c:	f44f 7380 	mov.w	r3, #256	; 0x100
     d10:	4ab0      	ldr	r2, [pc, #704]	; (fd4 <main+0xcd4>)
     d12:	6066      	str	r6, [r4, #4]
     d14:	49b0      	ldr	r1, [pc, #704]	; (fd8 <main+0xcd8>)
     d16:	48b1      	ldr	r0, [pc, #708]	; (fdc <main+0xcdc>)
     d18:	f002 fe56 	bl	39c8 <arm_biquad_cascade_df1_f32>
     d1c:	6065      	str	r5, [r4, #4]
     d1e:	68a1      	ldr	r1, [r4, #8]
     d20:	48aa      	ldr	r0, [pc, #680]	; (fcc <main+0xccc>)
     d22:	1bc9      	subs	r1, r1, r7
     d24:	f004 f882 	bl	4e2c <printf>
     d28:	48a9      	ldr	r0, [pc, #676]	; (fd0 <main+0xcd0>)
     d2a:	f004 f87f 	bl	4e2c <printf>
     d2e:	4620      	mov	r0, r4
     d30:	f001 fbd6 	bl	24e0 <Chip_TIMER_Reset>
     d34:	f44f 7300 	mov.w	r3, #512	; 0x200
     d38:	4aa6      	ldr	r2, [pc, #664]	; (fd4 <main+0xcd4>)
     d3a:	6066      	str	r6, [r4, #4]
     d3c:	49a6      	ldr	r1, [pc, #664]	; (fd8 <main+0xcd8>)
     d3e:	48a7      	ldr	r0, [pc, #668]	; (fdc <main+0xcdc>)
     d40:	f002 fe42 	bl	39c8 <arm_biquad_cascade_df1_f32>
     d44:	6065      	str	r5, [r4, #4]
     d46:	68a1      	ldr	r1, [r4, #8]
     d48:	48a0      	ldr	r0, [pc, #640]	; (fcc <main+0xccc>)
     d4a:	1bc9      	subs	r1, r1, r7
     d4c:	f004 f86e 	bl	4e2c <printf>
     d50:	489f      	ldr	r0, [pc, #636]	; (fd0 <main+0xcd0>)
     d52:	f004 f86b 	bl	4e2c <printf>
     d56:	4620      	mov	r0, r4
     d58:	f001 fbc2 	bl	24e0 <Chip_TIMER_Reset>
     d5c:	f44f 6380 	mov.w	r3, #1024	; 0x400
     d60:	4a9c      	ldr	r2, [pc, #624]	; (fd4 <main+0xcd4>)
     d62:	6066      	str	r6, [r4, #4]
     d64:	499c      	ldr	r1, [pc, #624]	; (fd8 <main+0xcd8>)
     d66:	489d      	ldr	r0, [pc, #628]	; (fdc <main+0xcdc>)
     d68:	f002 fe2e 	bl	39c8 <arm_biquad_cascade_df1_f32>
     d6c:	6065      	str	r5, [r4, #4]
     d6e:	68a1      	ldr	r1, [r4, #8]
     d70:	4896      	ldr	r0, [pc, #600]	; (fcc <main+0xccc>)
     d72:	1bc9      	subs	r1, r1, r7
     d74:	f004 f85a 	bl	4e2c <printf>
     d78:	4895      	ldr	r0, [pc, #596]	; (fd0 <main+0xcd0>)
     d7a:	f004 f857 	bl	4e2c <printf>
     d7e:	4620      	mov	r0, r4
     d80:	f001 fbae 	bl	24e0 <Chip_TIMER_Reset>
     d84:	4653      	mov	r3, sl
     d86:	4a93      	ldr	r2, [pc, #588]	; (fd4 <main+0xcd4>)
     d88:	6066      	str	r6, [r4, #4]
     d8a:	4993      	ldr	r1, [pc, #588]	; (fd8 <main+0xcd8>)
     d8c:	4893      	ldr	r0, [pc, #588]	; (fdc <main+0xcdc>)
     d8e:	f002 fe1b 	bl	39c8 <arm_biquad_cascade_df1_f32>
     d92:	6065      	str	r5, [r4, #4]
     d94:	68a1      	ldr	r1, [r4, #8]
     d96:	488d      	ldr	r0, [pc, #564]	; (fcc <main+0xccc>)
     d98:	1bc9      	subs	r1, r1, r7
     d9a:	f004 f847 	bl	4e2c <printf>
     d9e:	488c      	ldr	r0, [pc, #560]	; (fd0 <main+0xcd0>)
     da0:	f004 f844 	bl	4e2c <printf>
     da4:	4620      	mov	r0, r4
     da6:	f001 fb9b 	bl	24e0 <Chip_TIMER_Reset>
     daa:	f44f 5380 	mov.w	r3, #4096	; 0x1000
     dae:	4a89      	ldr	r2, [pc, #548]	; (fd4 <main+0xcd4>)
     db0:	6066      	str	r6, [r4, #4]
     db2:	4989      	ldr	r1, [pc, #548]	; (fd8 <main+0xcd8>)
     db4:	4889      	ldr	r0, [pc, #548]	; (fdc <main+0xcdc>)
     db6:	f002 fe07 	bl	39c8 <arm_biquad_cascade_df1_f32>
     dba:	6065      	str	r5, [r4, #4]
     dbc:	68a1      	ldr	r1, [r4, #8]
     dbe:	4883      	ldr	r0, [pc, #524]	; (fcc <main+0xccc>)
     dc0:	1bc9      	subs	r1, r1, r7
     dc2:	f004 f833 	bl	4e2c <printf>
     dc6:	4882      	ldr	r0, [pc, #520]	; (fd0 <main+0xcd0>)
     dc8:	f004 f830 	bl	4e2c <printf>
     dcc:	4884      	ldr	r0, [pc, #528]	; (fe0 <main+0xce0>)
     dce:	f004 f82d 	bl	4e2c <printf>
     dd2:	4884      	ldr	r0, [pc, #528]	; (fe4 <main+0xce4>)
     dd4:	f004 f82a 	bl	4e2c <printf>
     dd8:	4631      	mov	r1, r6
     dda:	4b83      	ldr	r3, [pc, #524]	; (fe8 <main+0xce8>)
     ddc:	4a83      	ldr	r2, [pc, #524]	; (fec <main+0xcec>)
     dde:	487f      	ldr	r0, [pc, #508]	; (fdc <main+0xcdc>)
     de0:	f002 ff4e 	bl	3c80 <arm_biquad_cascade_df2T_init_f32>
     de4:	4620      	mov	r0, r4
     de6:	f001 fb7b 	bl	24e0 <Chip_TIMER_Reset>
     dea:	465b      	mov	r3, fp
     dec:	4a79      	ldr	r2, [pc, #484]	; (fd4 <main+0xcd4>)
     dee:	6066      	str	r6, [r4, #4]
     df0:	4979      	ldr	r1, [pc, #484]	; (fd8 <main+0xcd8>)
     df2:	487a      	ldr	r0, [pc, #488]	; (fdc <main+0xcdc>)
     df4:	f002 fe96 	bl	3b24 <arm_biquad_cascade_df2T_f32>
     df8:	6065      	str	r5, [r4, #4]
     dfa:	68a1      	ldr	r1, [r4, #8]
     dfc:	4873      	ldr	r0, [pc, #460]	; (fcc <main+0xccc>)
     dfe:	1bc9      	subs	r1, r1, r7
     e00:	f004 f814 	bl	4e2c <printf>
     e04:	4872      	ldr	r0, [pc, #456]	; (fd0 <main+0xcd0>)
     e06:	f004 f811 	bl	4e2c <printf>
     e0a:	4620      	mov	r0, r4
     e0c:	f001 fb68 	bl	24e0 <Chip_TIMER_Reset>
     e10:	2320      	movs	r3, #32
     e12:	4a70      	ldr	r2, [pc, #448]	; (fd4 <main+0xcd4>)
     e14:	6066      	str	r6, [r4, #4]
     e16:	4970      	ldr	r1, [pc, #448]	; (fd8 <main+0xcd8>)
     e18:	4870      	ldr	r0, [pc, #448]	; (fdc <main+0xcdc>)
     e1a:	f002 fe83 	bl	3b24 <arm_biquad_cascade_df2T_f32>
     e1e:	6065      	str	r5, [r4, #4]
     e20:	68a1      	ldr	r1, [r4, #8]
     e22:	486a      	ldr	r0, [pc, #424]	; (fcc <main+0xccc>)
     e24:	1bc9      	subs	r1, r1, r7
     e26:	f004 f801 	bl	4e2c <printf>
     e2a:	4869      	ldr	r0, [pc, #420]	; (fd0 <main+0xcd0>)
     e2c:	f003 fffe 	bl	4e2c <printf>
     e30:	4620      	mov	r0, r4
     e32:	f001 fb55 	bl	24e0 <Chip_TIMER_Reset>
     e36:	2340      	movs	r3, #64	; 0x40
     e38:	4a66      	ldr	r2, [pc, #408]	; (fd4 <main+0xcd4>)
     e3a:	6066      	str	r6, [r4, #4]
     e3c:	4966      	ldr	r1, [pc, #408]	; (fd8 <main+0xcd8>)
     e3e:	4867      	ldr	r0, [pc, #412]	; (fdc <main+0xcdc>)
     e40:	f002 fe70 	bl	3b24 <arm_biquad_cascade_df2T_f32>
     e44:	6065      	str	r5, [r4, #4]
     e46:	68a1      	ldr	r1, [r4, #8]
     e48:	4860      	ldr	r0, [pc, #384]	; (fcc <main+0xccc>)
     e4a:	1bc9      	subs	r1, r1, r7
     e4c:	f003 ffee 	bl	4e2c <printf>
     e50:	485f      	ldr	r0, [pc, #380]	; (fd0 <main+0xcd0>)
     e52:	f003 ffeb 	bl	4e2c <printf>
     e56:	4620      	mov	r0, r4
     e58:	f001 fb42 	bl	24e0 <Chip_TIMER_Reset>
     e5c:	2380      	movs	r3, #128	; 0x80
     e5e:	4a5d      	ldr	r2, [pc, #372]	; (fd4 <main+0xcd4>)
     e60:	6066      	str	r6, [r4, #4]
     e62:	495d      	ldr	r1, [pc, #372]	; (fd8 <main+0xcd8>)
     e64:	485d      	ldr	r0, [pc, #372]	; (fdc <main+0xcdc>)
     e66:	f002 fe5d 	bl	3b24 <arm_biquad_cascade_df2T_f32>
     e6a:	6065      	str	r5, [r4, #4]
     e6c:	68a1      	ldr	r1, [r4, #8]
     e6e:	4857      	ldr	r0, [pc, #348]	; (fcc <main+0xccc>)
     e70:	1bc9      	subs	r1, r1, r7
     e72:	f003 ffdb 	bl	4e2c <printf>
     e76:	4856      	ldr	r0, [pc, #344]	; (fd0 <main+0xcd0>)
     e78:	f003 ffd8 	bl	4e2c <printf>
     e7c:	4620      	mov	r0, r4
     e7e:	f001 fb2f 	bl	24e0 <Chip_TIMER_Reset>
     e82:	f44f 7380 	mov.w	r3, #256	; 0x100
     e86:	4a53      	ldr	r2, [pc, #332]	; (fd4 <main+0xcd4>)
     e88:	6066      	str	r6, [r4, #4]
     e8a:	4953      	ldr	r1, [pc, #332]	; (fd8 <main+0xcd8>)
     e8c:	4853      	ldr	r0, [pc, #332]	; (fdc <main+0xcdc>)
     e8e:	f002 fe49 	bl	3b24 <arm_biquad_cascade_df2T_f32>
     e92:	6065      	str	r5, [r4, #4]
     e94:	68a1      	ldr	r1, [r4, #8]
     e96:	484d      	ldr	r0, [pc, #308]	; (fcc <main+0xccc>)
     e98:	1bc9      	subs	r1, r1, r7
     e9a:	f003 ffc7 	bl	4e2c <printf>
     e9e:	484c      	ldr	r0, [pc, #304]	; (fd0 <main+0xcd0>)
     ea0:	f003 ffc4 	bl	4e2c <printf>
     ea4:	4620      	mov	r0, r4
     ea6:	f001 fb1b 	bl	24e0 <Chip_TIMER_Reset>
     eaa:	f44f 7300 	mov.w	r3, #512	; 0x200
     eae:	4a49      	ldr	r2, [pc, #292]	; (fd4 <main+0xcd4>)
     eb0:	6066      	str	r6, [r4, #4]
     eb2:	4949      	ldr	r1, [pc, #292]	; (fd8 <main+0xcd8>)
     eb4:	4849      	ldr	r0, [pc, #292]	; (fdc <main+0xcdc>)
     eb6:	f002 fe35 	bl	3b24 <arm_biquad_cascade_df2T_f32>
     eba:	6065      	str	r5, [r4, #4]
     ebc:	68a1      	ldr	r1, [r4, #8]
     ebe:	4843      	ldr	r0, [pc, #268]	; (fcc <main+0xccc>)
     ec0:	1bc9      	subs	r1, r1, r7
     ec2:	f003 ffb3 	bl	4e2c <printf>
     ec6:	4842      	ldr	r0, [pc, #264]	; (fd0 <main+0xcd0>)
     ec8:	f003 ffb0 	bl	4e2c <printf>
     ecc:	4620      	mov	r0, r4
     ece:	f001 fb07 	bl	24e0 <Chip_TIMER_Reset>
     ed2:	f44f 6380 	mov.w	r3, #1024	; 0x400
     ed6:	4a3f      	ldr	r2, [pc, #252]	; (fd4 <main+0xcd4>)
     ed8:	6066      	str	r6, [r4, #4]
     eda:	493f      	ldr	r1, [pc, #252]	; (fd8 <main+0xcd8>)
     edc:	483f      	ldr	r0, [pc, #252]	; (fdc <main+0xcdc>)
     ede:	f002 fe21 	bl	3b24 <arm_biquad_cascade_df2T_f32>
     ee2:	6065      	str	r5, [r4, #4]
     ee4:	68a1      	ldr	r1, [r4, #8]
     ee6:	4839      	ldr	r0, [pc, #228]	; (fcc <main+0xccc>)
     ee8:	1bc9      	subs	r1, r1, r7
     eea:	f003 ff9f 	bl	4e2c <printf>
     eee:	4838      	ldr	r0, [pc, #224]	; (fd0 <main+0xcd0>)
     ef0:	f003 ff9c 	bl	4e2c <printf>
     ef4:	4620      	mov	r0, r4
     ef6:	f001 faf3 	bl	24e0 <Chip_TIMER_Reset>
     efa:	4653      	mov	r3, sl
     efc:	4a35      	ldr	r2, [pc, #212]	; (fd4 <main+0xcd4>)
     efe:	6066      	str	r6, [r4, #4]
     f00:	4935      	ldr	r1, [pc, #212]	; (fd8 <main+0xcd8>)
     f02:	4836      	ldr	r0, [pc, #216]	; (fdc <main+0xcdc>)
     f04:	f002 fe0e 	bl	3b24 <arm_biquad_cascade_df2T_f32>
     f08:	6065      	str	r5, [r4, #4]
     f0a:	68a1      	ldr	r1, [r4, #8]
     f0c:	482f      	ldr	r0, [pc, #188]	; (fcc <main+0xccc>)
     f0e:	1bc9      	subs	r1, r1, r7
     f10:	f003 ff8c 	bl	4e2c <printf>
     f14:	482e      	ldr	r0, [pc, #184]	; (fd0 <main+0xcd0>)
     f16:	f003 ff89 	bl	4e2c <printf>
     f1a:	4620      	mov	r0, r4
     f1c:	f001 fae0 	bl	24e0 <Chip_TIMER_Reset>
     f20:	f44f 5380 	mov.w	r3, #4096	; 0x1000
     f24:	4a2b      	ldr	r2, [pc, #172]	; (fd4 <main+0xcd4>)
     f26:	6066      	str	r6, [r4, #4]
     f28:	492b      	ldr	r1, [pc, #172]	; (fd8 <main+0xcd8>)
     f2a:	482c      	ldr	r0, [pc, #176]	; (fdc <main+0xcdc>)
     f2c:	f002 fdfa 	bl	3b24 <arm_biquad_cascade_df2T_f32>
     f30:	6065      	str	r5, [r4, #4]
     f32:	68a1      	ldr	r1, [r4, #8]
     f34:	4825      	ldr	r0, [pc, #148]	; (fcc <main+0xccc>)
     f36:	1bc9      	subs	r1, r1, r7
     f38:	f003 ff78 	bl	4e2c <printf>
     f3c:	4824      	ldr	r0, [pc, #144]	; (fd0 <main+0xcd0>)
     f3e:	f003 ff75 	bl	4e2c <printf>
     f42:	4827      	ldr	r0, [pc, #156]	; (fe0 <main+0xce0>)
     f44:	f003 ff72 	bl	4e2c <printf>
     f48:	4829      	ldr	r0, [pc, #164]	; (ff0 <main+0xcf0>)
     f4a:	f003 ff6f 	bl	4e2c <printf>
     f4e:	4b29      	ldr	r3, [pc, #164]	; (ff4 <main+0xcf4>)
     f50:	4a29      	ldr	r2, [pc, #164]	; (ff8 <main+0xcf8>)
     f52:	f8cd a000 	str.w	sl, [sp]
     f56:	2108      	movs	r1, #8
     f58:	4828      	ldr	r0, [pc, #160]	; (ffc <main+0xcfc>)
     f5a:	f003 f899 	bl	4090 <arm_fir_init_f32>
     f5e:	4620      	mov	r0, r4
     f60:	f001 fabe 	bl	24e0 <Chip_TIMER_Reset>
     f64:	465b      	mov	r3, fp
     f66:	4a1b      	ldr	r2, [pc, #108]	; (fd4 <main+0xcd4>)
     f68:	6066      	str	r6, [r4, #4]
     f6a:	491b      	ldr	r1, [pc, #108]	; (fd8 <main+0xcd8>)
     f6c:	4823      	ldr	r0, [pc, #140]	; (ffc <main+0xcfc>)
     f6e:	f002 fe93 	bl	3c98 <arm_fir_f32>
     f72:	6065      	str	r5, [r4, #4]
     f74:	68a1      	ldr	r1, [r4, #8]
     f76:	4815      	ldr	r0, [pc, #84]	; (fcc <main+0xccc>)
     f78:	1bc9      	subs	r1, r1, r7
     f7a:	f003 ff57 	bl	4e2c <printf>
     f7e:	4814      	ldr	r0, [pc, #80]	; (fd0 <main+0xcd0>)
     f80:	f003 ff54 	bl	4e2c <printf>
     f84:	4620      	mov	r0, r4
     f86:	f001 faab 	bl	24e0 <Chip_TIMER_Reset>
     f8a:	2320      	movs	r3, #32
     f8c:	4a11      	ldr	r2, [pc, #68]	; (fd4 <main+0xcd4>)
     f8e:	6066      	str	r6, [r4, #4]
     f90:	4911      	ldr	r1, [pc, #68]	; (fd8 <main+0xcd8>)
     f92:	481a      	ldr	r0, [pc, #104]	; (ffc <main+0xcfc>)
     f94:	f002 fe80 	bl	3c98 <arm_fir_f32>
     f98:	6065      	str	r5, [r4, #4]
     f9a:	68a1      	ldr	r1, [r4, #8]
     f9c:	480b      	ldr	r0, [pc, #44]	; (fcc <main+0xccc>)
     f9e:	1bc9      	subs	r1, r1, r7
     fa0:	f003 ff44 	bl	4e2c <printf>
     fa4:	480a      	ldr	r0, [pc, #40]	; (fd0 <main+0xcd0>)
     fa6:	f003 ff41 	bl	4e2c <printf>
     faa:	4620      	mov	r0, r4
     fac:	f001 fa98 	bl	24e0 <Chip_TIMER_Reset>
     fb0:	2340      	movs	r3, #64	; 0x40
     fb2:	4a08      	ldr	r2, [pc, #32]	; (fd4 <main+0xcd4>)
     fb4:	6066      	str	r6, [r4, #4]
     fb6:	4908      	ldr	r1, [pc, #32]	; (fd8 <main+0xcd8>)
     fb8:	4810      	ldr	r0, [pc, #64]	; (ffc <main+0xcfc>)
     fba:	f002 fe6d 	bl	3c98 <arm_fir_f32>
     fbe:	6065      	str	r5, [r4, #4]
     fc0:	68a1      	ldr	r1, [r4, #8]
     fc2:	4802      	ldr	r0, [pc, #8]	; (fcc <main+0xccc>)
     fc4:	1bc9      	subs	r1, r1, r7
     fc6:	f003 ff31 	bl	4e2c <printf>
     fca:	e019      	b.n	1000 <main+0xd00>
     fcc:	00006ff8 	.word	0x00006ff8
     fd0:	00007108 	.word	0x00007108
     fd4:	20014000 	.word	0x20014000
     fd8:	20010000 	.word	0x20010000
     fdc:	200024f0 	.word	0x200024f0
     fe0:	00006f90 	.word	0x00006f90
     fe4:	00007060 	.word	0x00007060
     fe8:	200000f8 	.word	0x200000f8
     fec:	20000000 	.word	0x20000000
     ff0:	00007078 	.word	0x00007078
     ff4:	200002f0 	.word	0x200002f0
     ff8:	200023e4 	.word	0x200023e4
     ffc:	20002464 	.word	0x20002464
    1000:	48b3      	ldr	r0, [pc, #716]	; (12d0 <main+0xfd0>)
    1002:	f003 ff13 	bl	4e2c <printf>
    1006:	4620      	mov	r0, r4
    1008:	f001 fa6a 	bl	24e0 <Chip_TIMER_Reset>
    100c:	2380      	movs	r3, #128	; 0x80
    100e:	4ab1      	ldr	r2, [pc, #708]	; (12d4 <main+0xfd4>)
    1010:	6066      	str	r6, [r4, #4]
    1012:	49b1      	ldr	r1, [pc, #708]	; (12d8 <main+0xfd8>)
    1014:	48b1      	ldr	r0, [pc, #708]	; (12dc <main+0xfdc>)
    1016:	f002 fe3f 	bl	3c98 <arm_fir_f32>
    101a:	6065      	str	r5, [r4, #4]
    101c:	68a1      	ldr	r1, [r4, #8]
    101e:	48b0      	ldr	r0, [pc, #704]	; (12e0 <main+0xfe0>)
    1020:	1bc9      	subs	r1, r1, r7
    1022:	f003 ff03 	bl	4e2c <printf>
    1026:	48aa      	ldr	r0, [pc, #680]	; (12d0 <main+0xfd0>)
    1028:	f003 ff00 	bl	4e2c <printf>
    102c:	4620      	mov	r0, r4
    102e:	f001 fa57 	bl	24e0 <Chip_TIMER_Reset>
    1032:	f44f 7380 	mov.w	r3, #256	; 0x100
    1036:	4aa7      	ldr	r2, [pc, #668]	; (12d4 <main+0xfd4>)
    1038:	6066      	str	r6, [r4, #4]
    103a:	49a7      	ldr	r1, [pc, #668]	; (12d8 <main+0xfd8>)
    103c:	48a7      	ldr	r0, [pc, #668]	; (12dc <main+0xfdc>)
    103e:	f002 fe2b 	bl	3c98 <arm_fir_f32>
    1042:	6065      	str	r5, [r4, #4]
    1044:	68a1      	ldr	r1, [r4, #8]
    1046:	48a6      	ldr	r0, [pc, #664]	; (12e0 <main+0xfe0>)
    1048:	1bc9      	subs	r1, r1, r7
    104a:	f003 feef 	bl	4e2c <printf>
    104e:	48a0      	ldr	r0, [pc, #640]	; (12d0 <main+0xfd0>)
    1050:	f003 feec 	bl	4e2c <printf>
    1054:	4620      	mov	r0, r4
    1056:	f001 fa43 	bl	24e0 <Chip_TIMER_Reset>
    105a:	f44f 7300 	mov.w	r3, #512	; 0x200
    105e:	4a9d      	ldr	r2, [pc, #628]	; (12d4 <main+0xfd4>)
    1060:	6066      	str	r6, [r4, #4]
    1062:	499d      	ldr	r1, [pc, #628]	; (12d8 <main+0xfd8>)
    1064:	489d      	ldr	r0, [pc, #628]	; (12dc <main+0xfdc>)
    1066:	f002 fe17 	bl	3c98 <arm_fir_f32>
    106a:	6065      	str	r5, [r4, #4]
    106c:	68a1      	ldr	r1, [r4, #8]
    106e:	489c      	ldr	r0, [pc, #624]	; (12e0 <main+0xfe0>)
    1070:	1bc9      	subs	r1, r1, r7
    1072:	f003 fedb 	bl	4e2c <printf>
    1076:	4896      	ldr	r0, [pc, #600]	; (12d0 <main+0xfd0>)
    1078:	f003 fed8 	bl	4e2c <printf>
    107c:	4620      	mov	r0, r4
    107e:	f001 fa2f 	bl	24e0 <Chip_TIMER_Reset>
    1082:	f44f 6380 	mov.w	r3, #1024	; 0x400
    1086:	4a93      	ldr	r2, [pc, #588]	; (12d4 <main+0xfd4>)
    1088:	6066      	str	r6, [r4, #4]
    108a:	4993      	ldr	r1, [pc, #588]	; (12d8 <main+0xfd8>)
    108c:	4893      	ldr	r0, [pc, #588]	; (12dc <main+0xfdc>)
    108e:	f002 fe03 	bl	3c98 <arm_fir_f32>
    1092:	6065      	str	r5, [r4, #4]
    1094:	68a1      	ldr	r1, [r4, #8]
    1096:	4892      	ldr	r0, [pc, #584]	; (12e0 <main+0xfe0>)
    1098:	1bc9      	subs	r1, r1, r7
    109a:	f003 fec7 	bl	4e2c <printf>
    109e:	488c      	ldr	r0, [pc, #560]	; (12d0 <main+0xfd0>)
    10a0:	f003 fec4 	bl	4e2c <printf>
    10a4:	4620      	mov	r0, r4
    10a6:	f001 fa1b 	bl	24e0 <Chip_TIMER_Reset>
    10aa:	4653      	mov	r3, sl
    10ac:	4a89      	ldr	r2, [pc, #548]	; (12d4 <main+0xfd4>)
    10ae:	6066      	str	r6, [r4, #4]
    10b0:	4989      	ldr	r1, [pc, #548]	; (12d8 <main+0xfd8>)
    10b2:	488a      	ldr	r0, [pc, #552]	; (12dc <main+0xfdc>)
    10b4:	f002 fdf0 	bl	3c98 <arm_fir_f32>
    10b8:	6065      	str	r5, [r4, #4]
    10ba:	68a1      	ldr	r1, [r4, #8]
    10bc:	4888      	ldr	r0, [pc, #544]	; (12e0 <main+0xfe0>)
    10be:	1bc9      	subs	r1, r1, r7
    10c0:	f003 feb4 	bl	4e2c <printf>
    10c4:	4882      	ldr	r0, [pc, #520]	; (12d0 <main+0xfd0>)
    10c6:	f003 feb1 	bl	4e2c <printf>
    10ca:	4886      	ldr	r0, [pc, #536]	; (12e4 <main+0xfe4>)
    10cc:	f003 feae 	bl	4e2c <printf>
    10d0:	4885      	ldr	r0, [pc, #532]	; (12e8 <main+0xfe8>)
    10d2:	f003 feab 	bl	4e2c <printf>
    10d6:	4885      	ldr	r0, [pc, #532]	; (12ec <main+0xfec>)
    10d8:	f003 fea8 	bl	4e2c <printf>
    10dc:	4b84      	ldr	r3, [pc, #528]	; (12f0 <main+0xff0>)
    10de:	4a85      	ldr	r2, [pc, #532]	; (12f4 <main+0xff4>)
    10e0:	f8cd a000 	str.w	sl, [sp]
    10e4:	4659      	mov	r1, fp
    10e6:	487d      	ldr	r0, [pc, #500]	; (12dc <main+0xfdc>)
    10e8:	f002 ffd2 	bl	4090 <arm_fir_init_f32>
    10ec:	4620      	mov	r0, r4
    10ee:	f001 f9f7 	bl	24e0 <Chip_TIMER_Reset>
    10f2:	465b      	mov	r3, fp
    10f4:	4a77      	ldr	r2, [pc, #476]	; (12d4 <main+0xfd4>)
    10f6:	6066      	str	r6, [r4, #4]
    10f8:	4977      	ldr	r1, [pc, #476]	; (12d8 <main+0xfd8>)
    10fa:	4878      	ldr	r0, [pc, #480]	; (12dc <main+0xfdc>)
    10fc:	f002 fdcc 	bl	3c98 <arm_fir_f32>
    1100:	6065      	str	r5, [r4, #4]
    1102:	68a1      	ldr	r1, [r4, #8]
    1104:	4876      	ldr	r0, [pc, #472]	; (12e0 <main+0xfe0>)
    1106:	1bc9      	subs	r1, r1, r7
    1108:	f003 fe90 	bl	4e2c <printf>
    110c:	4870      	ldr	r0, [pc, #448]	; (12d0 <main+0xfd0>)
    110e:	f003 fe8d 	bl	4e2c <printf>
    1112:	4620      	mov	r0, r4
    1114:	f001 f9e4 	bl	24e0 <Chip_TIMER_Reset>
    1118:	2320      	movs	r3, #32
    111a:	4a6e      	ldr	r2, [pc, #440]	; (12d4 <main+0xfd4>)
    111c:	6066      	str	r6, [r4, #4]
    111e:	496e      	ldr	r1, [pc, #440]	; (12d8 <main+0xfd8>)
    1120:	486e      	ldr	r0, [pc, #440]	; (12dc <main+0xfdc>)
    1122:	f002 fdb9 	bl	3c98 <arm_fir_f32>
    1126:	6065      	str	r5, [r4, #4]
    1128:	68a1      	ldr	r1, [r4, #8]
    112a:	486d      	ldr	r0, [pc, #436]	; (12e0 <main+0xfe0>)
    112c:	1bc9      	subs	r1, r1, r7
    112e:	f003 fe7d 	bl	4e2c <printf>
    1132:	4867      	ldr	r0, [pc, #412]	; (12d0 <main+0xfd0>)
    1134:	f003 fe7a 	bl	4e2c <printf>
    1138:	4620      	mov	r0, r4
    113a:	f001 f9d1 	bl	24e0 <Chip_TIMER_Reset>
    113e:	2340      	movs	r3, #64	; 0x40
    1140:	4a64      	ldr	r2, [pc, #400]	; (12d4 <main+0xfd4>)
    1142:	6066      	str	r6, [r4, #4]
    1144:	4964      	ldr	r1, [pc, #400]	; (12d8 <main+0xfd8>)
    1146:	4865      	ldr	r0, [pc, #404]	; (12dc <main+0xfdc>)
    1148:	f002 fda6 	bl	3c98 <arm_fir_f32>
    114c:	6065      	str	r5, [r4, #4]
    114e:	68a1      	ldr	r1, [r4, #8]
    1150:	4863      	ldr	r0, [pc, #396]	; (12e0 <main+0xfe0>)
    1152:	1bc9      	subs	r1, r1, r7
    1154:	f003 fe6a 	bl	4e2c <printf>
    1158:	485d      	ldr	r0, [pc, #372]	; (12d0 <main+0xfd0>)
    115a:	f003 fe67 	bl	4e2c <printf>
    115e:	4620      	mov	r0, r4
    1160:	f001 f9be 	bl	24e0 <Chip_TIMER_Reset>
    1164:	2380      	movs	r3, #128	; 0x80
    1166:	4a5b      	ldr	r2, [pc, #364]	; (12d4 <main+0xfd4>)
    1168:	6066      	str	r6, [r4, #4]
    116a:	495b      	ldr	r1, [pc, #364]	; (12d8 <main+0xfd8>)
    116c:	485b      	ldr	r0, [pc, #364]	; (12dc <main+0xfdc>)
    116e:	f002 fd93 	bl	3c98 <arm_fir_f32>
    1172:	6065      	str	r5, [r4, #4]
    1174:	68a1      	ldr	r1, [r4, #8]
    1176:	485a      	ldr	r0, [pc, #360]	; (12e0 <main+0xfe0>)
    1178:	1bc9      	subs	r1, r1, r7
    117a:	f003 fe57 	bl	4e2c <printf>
    117e:	4854      	ldr	r0, [pc, #336]	; (12d0 <main+0xfd0>)
    1180:	f003 fe54 	bl	4e2c <printf>
    1184:	4620      	mov	r0, r4
    1186:	f001 f9ab 	bl	24e0 <Chip_TIMER_Reset>
    118a:	f44f 7380 	mov.w	r3, #256	; 0x100
    118e:	4a51      	ldr	r2, [pc, #324]	; (12d4 <main+0xfd4>)
    1190:	6066      	str	r6, [r4, #4]
    1192:	4951      	ldr	r1, [pc, #324]	; (12d8 <main+0xfd8>)
    1194:	4851      	ldr	r0, [pc, #324]	; (12dc <main+0xfdc>)
    1196:	f002 fd7f 	bl	3c98 <arm_fir_f32>
    119a:	6065      	str	r5, [r4, #4]
    119c:	68a1      	ldr	r1, [r4, #8]
    119e:	4850      	ldr	r0, [pc, #320]	; (12e0 <main+0xfe0>)
    11a0:	1bc9      	subs	r1, r1, r7
    11a2:	f003 fe43 	bl	4e2c <printf>
    11a6:	484a      	ldr	r0, [pc, #296]	; (12d0 <main+0xfd0>)
    11a8:	f003 fe40 	bl	4e2c <printf>
    11ac:	4620      	mov	r0, r4
    11ae:	f001 f997 	bl	24e0 <Chip_TIMER_Reset>
    11b2:	f44f 7300 	mov.w	r3, #512	; 0x200
    11b6:	4a47      	ldr	r2, [pc, #284]	; (12d4 <main+0xfd4>)
    11b8:	6066      	str	r6, [r4, #4]
    11ba:	4947      	ldr	r1, [pc, #284]	; (12d8 <main+0xfd8>)
    11bc:	4847      	ldr	r0, [pc, #284]	; (12dc <main+0xfdc>)
    11be:	f002 fd6b 	bl	3c98 <arm_fir_f32>
    11c2:	6065      	str	r5, [r4, #4]
    11c4:	68a1      	ldr	r1, [r4, #8]
    11c6:	4846      	ldr	r0, [pc, #280]	; (12e0 <main+0xfe0>)
    11c8:	1bc9      	subs	r1, r1, r7
    11ca:	f003 fe2f 	bl	4e2c <printf>
    11ce:	4840      	ldr	r0, [pc, #256]	; (12d0 <main+0xfd0>)
    11d0:	f003 fe2c 	bl	4e2c <printf>
    11d4:	4620      	mov	r0, r4
    11d6:	f001 f983 	bl	24e0 <Chip_TIMER_Reset>
    11da:	f44f 6380 	mov.w	r3, #1024	; 0x400
    11de:	4a3d      	ldr	r2, [pc, #244]	; (12d4 <main+0xfd4>)
    11e0:	6066      	str	r6, [r4, #4]
    11e2:	493d      	ldr	r1, [pc, #244]	; (12d8 <main+0xfd8>)
    11e4:	483d      	ldr	r0, [pc, #244]	; (12dc <main+0xfdc>)
    11e6:	f002 fd57 	bl	3c98 <arm_fir_f32>
    11ea:	6065      	str	r5, [r4, #4]
    11ec:	68a1      	ldr	r1, [r4, #8]
    11ee:	483c      	ldr	r0, [pc, #240]	; (12e0 <main+0xfe0>)
    11f0:	1bc9      	subs	r1, r1, r7
    11f2:	f003 fe1b 	bl	4e2c <printf>
    11f6:	4836      	ldr	r0, [pc, #216]	; (12d0 <main+0xfd0>)
    11f8:	f003 fe18 	bl	4e2c <printf>
    11fc:	4620      	mov	r0, r4
    11fe:	f001 f96f 	bl	24e0 <Chip_TIMER_Reset>
    1202:	4653      	mov	r3, sl
    1204:	4a33      	ldr	r2, [pc, #204]	; (12d4 <main+0xfd4>)
    1206:	6066      	str	r6, [r4, #4]
    1208:	4933      	ldr	r1, [pc, #204]	; (12d8 <main+0xfd8>)
    120a:	4834      	ldr	r0, [pc, #208]	; (12dc <main+0xfdc>)
    120c:	f002 fd44 	bl	3c98 <arm_fir_f32>
    1210:	6065      	str	r5, [r4, #4]
    1212:	68a1      	ldr	r1, [r4, #8]
    1214:	4832      	ldr	r0, [pc, #200]	; (12e0 <main+0xfe0>)
    1216:	1bc9      	subs	r1, r1, r7
    1218:	f003 fe08 	bl	4e2c <printf>
    121c:	482c      	ldr	r0, [pc, #176]	; (12d0 <main+0xfd0>)
    121e:	f003 fe05 	bl	4e2c <printf>
    1222:	4830      	ldr	r0, [pc, #192]	; (12e4 <main+0xfe4>)
    1224:	f003 fe02 	bl	4e2c <printf>
    1228:	482f      	ldr	r0, [pc, #188]	; (12e8 <main+0xfe8>)
    122a:	f003 fdff 	bl	4e2c <printf>
    122e:	4832      	ldr	r0, [pc, #200]	; (12f8 <main+0xff8>)
    1230:	f003 fdfc 	bl	4e2c <printf>
    1234:	4b2e      	ldr	r3, [pc, #184]	; (12f0 <main+0xff0>)
    1236:	4a2f      	ldr	r2, [pc, #188]	; (12f4 <main+0xff4>)
    1238:	f8cd a000 	str.w	sl, [sp]
    123c:	2120      	movs	r1, #32
    123e:	4827      	ldr	r0, [pc, #156]	; (12dc <main+0xfdc>)
    1240:	f002 ff26 	bl	4090 <arm_fir_init_f32>
    1244:	4620      	mov	r0, r4
    1246:	f001 f94b 	bl	24e0 <Chip_TIMER_Reset>
    124a:	465b      	mov	r3, fp
    124c:	4a21      	ldr	r2, [pc, #132]	; (12d4 <main+0xfd4>)
    124e:	6066      	str	r6, [r4, #4]
    1250:	4921      	ldr	r1, [pc, #132]	; (12d8 <main+0xfd8>)
    1252:	4822      	ldr	r0, [pc, #136]	; (12dc <main+0xfdc>)
    1254:	f002 fd20 	bl	3c98 <arm_fir_f32>
    1258:	6065      	str	r5, [r4, #4]
    125a:	68a1      	ldr	r1, [r4, #8]
    125c:	4820      	ldr	r0, [pc, #128]	; (12e0 <main+0xfe0>)
    125e:	1bc9      	subs	r1, r1, r7
    1260:	f003 fde4 	bl	4e2c <printf>
    1264:	481a      	ldr	r0, [pc, #104]	; (12d0 <main+0xfd0>)
    1266:	f003 fde1 	bl	4e2c <printf>
    126a:	4620      	mov	r0, r4
    126c:	f001 f938 	bl	24e0 <Chip_TIMER_Reset>
    1270:	2320      	movs	r3, #32
    1272:	4a18      	ldr	r2, [pc, #96]	; (12d4 <main+0xfd4>)
    1274:	6066      	str	r6, [r4, #4]
    1276:	4918      	ldr	r1, [pc, #96]	; (12d8 <main+0xfd8>)
    1278:	4818      	ldr	r0, [pc, #96]	; (12dc <main+0xfdc>)
    127a:	f002 fd0d 	bl	3c98 <arm_fir_f32>
    127e:	6065      	str	r5, [r4, #4]
    1280:	68a1      	ldr	r1, [r4, #8]
    1282:	4817      	ldr	r0, [pc, #92]	; (12e0 <main+0xfe0>)
    1284:	1bc9      	subs	r1, r1, r7
    1286:	f003 fdd1 	bl	4e2c <printf>
    128a:	4811      	ldr	r0, [pc, #68]	; (12d0 <main+0xfd0>)
    128c:	f003 fdce 	bl	4e2c <printf>
    1290:	4620      	mov	r0, r4
    1292:	f001 f925 	bl	24e0 <Chip_TIMER_Reset>
    1296:	2340      	movs	r3, #64	; 0x40
    1298:	4a0e      	ldr	r2, [pc, #56]	; (12d4 <main+0xfd4>)
    129a:	6066      	str	r6, [r4, #4]
    129c:	490e      	ldr	r1, [pc, #56]	; (12d8 <main+0xfd8>)
    129e:	480f      	ldr	r0, [pc, #60]	; (12dc <main+0xfdc>)
    12a0:	f002 fcfa 	bl	3c98 <arm_fir_f32>
    12a4:	6065      	str	r5, [r4, #4]
    12a6:	68a1      	ldr	r1, [r4, #8]
    12a8:	480d      	ldr	r0, [pc, #52]	; (12e0 <main+0xfe0>)
    12aa:	1bc9      	subs	r1, r1, r7
    12ac:	f003 fdbe 	bl	4e2c <printf>
    12b0:	4807      	ldr	r0, [pc, #28]	; (12d0 <main+0xfd0>)
    12b2:	f003 fdbb 	bl	4e2c <printf>
    12b6:	4620      	mov	r0, r4
    12b8:	f001 f912 	bl	24e0 <Chip_TIMER_Reset>
    12bc:	2380      	movs	r3, #128	; 0x80
    12be:	4a05      	ldr	r2, [pc, #20]	; (12d4 <main+0xfd4>)
    12c0:	6066      	str	r6, [r4, #4]
    12c2:	4641      	mov	r1, r8
    12c4:	4805      	ldr	r0, [pc, #20]	; (12dc <main+0xfdc>)
    12c6:	f002 fce7 	bl	3c98 <arm_fir_f32>
    12ca:	6065      	str	r5, [r4, #4]
    12cc:	68a1      	ldr	r1, [r4, #8]
    12ce:	e015      	b.n	12fc <main+0xffc>
    12d0:	00007108 	.word	0x00007108
    12d4:	20014000 	.word	0x20014000
    12d8:	20010000 	.word	0x20010000
    12dc:	20002464 	.word	0x20002464
    12e0:	00006ff8 	.word	0x00006ff8
    12e4:	00007088 	.word	0x00007088
    12e8:	00006f90 	.word	0x00006f90
    12ec:	0000708c 	.word	0x0000708c
    12f0:	200002f0 	.word	0x200002f0
    12f4:	200023e4 	.word	0x200023e4
    12f8:	0000709c 	.word	0x0000709c
    12fc:	486f      	ldr	r0, [pc, #444]	; (14bc <main+0x11bc>)
    12fe:	1bc9      	subs	r1, r1, r7
    1300:	f003 fd94 	bl	4e2c <printf>
    1304:	486e      	ldr	r0, [pc, #440]	; (14c0 <main+0x11c0>)
    1306:	f003 fd91 	bl	4e2c <printf>
    130a:	4620      	mov	r0, r4
    130c:	f001 f8e8 	bl	24e0 <Chip_TIMER_Reset>
    1310:	f44f 7380 	mov.w	r3, #256	; 0x100
    1314:	4a6b      	ldr	r2, [pc, #428]	; (14c4 <main+0x11c4>)
    1316:	6066      	str	r6, [r4, #4]
    1318:	4641      	mov	r1, r8
    131a:	486b      	ldr	r0, [pc, #428]	; (14c8 <main+0x11c8>)
    131c:	f002 fcbc 	bl	3c98 <arm_fir_f32>
    1320:	6065      	str	r5, [r4, #4]
    1322:	68a1      	ldr	r1, [r4, #8]
    1324:	4865      	ldr	r0, [pc, #404]	; (14bc <main+0x11bc>)
    1326:	1bc9      	subs	r1, r1, r7
    1328:	f003 fd80 	bl	4e2c <printf>
    132c:	4864      	ldr	r0, [pc, #400]	; (14c0 <main+0x11c0>)
    132e:	f003 fd7d 	bl	4e2c <printf>
    1332:	4620      	mov	r0, r4
    1334:	f001 f8d4 	bl	24e0 <Chip_TIMER_Reset>
    1338:	f44f 7300 	mov.w	r3, #512	; 0x200
    133c:	4a61      	ldr	r2, [pc, #388]	; (14c4 <main+0x11c4>)
    133e:	6066      	str	r6, [r4, #4]
    1340:	4641      	mov	r1, r8
    1342:	4861      	ldr	r0, [pc, #388]	; (14c8 <main+0x11c8>)
    1344:	f002 fca8 	bl	3c98 <arm_fir_f32>
    1348:	6065      	str	r5, [r4, #4]
    134a:	68a1      	ldr	r1, [r4, #8]
    134c:	485b      	ldr	r0, [pc, #364]	; (14bc <main+0x11bc>)
    134e:	1bc9      	subs	r1, r1, r7
    1350:	f003 fd6c 	bl	4e2c <printf>
    1354:	485a      	ldr	r0, [pc, #360]	; (14c0 <main+0x11c0>)
    1356:	f003 fd69 	bl	4e2c <printf>
    135a:	4620      	mov	r0, r4
    135c:	f001 f8c0 	bl	24e0 <Chip_TIMER_Reset>
    1360:	f44f 6380 	mov.w	r3, #1024	; 0x400
    1364:	4a57      	ldr	r2, [pc, #348]	; (14c4 <main+0x11c4>)
    1366:	6066      	str	r6, [r4, #4]
    1368:	4641      	mov	r1, r8
    136a:	4857      	ldr	r0, [pc, #348]	; (14c8 <main+0x11c8>)
    136c:	f002 fc94 	bl	3c98 <arm_fir_f32>
    1370:	6065      	str	r5, [r4, #4]
    1372:	68a1      	ldr	r1, [r4, #8]
    1374:	4851      	ldr	r0, [pc, #324]	; (14bc <main+0x11bc>)
    1376:	1bc9      	subs	r1, r1, r7
    1378:	f003 fd58 	bl	4e2c <printf>
    137c:	4850      	ldr	r0, [pc, #320]	; (14c0 <main+0x11c0>)
    137e:	f003 fd55 	bl	4e2c <printf>
    1382:	4620      	mov	r0, r4
    1384:	f001 f8ac 	bl	24e0 <Chip_TIMER_Reset>
    1388:	f44f 6300 	mov.w	r3, #2048	; 0x800
    138c:	4a4d      	ldr	r2, [pc, #308]	; (14c4 <main+0x11c4>)
    138e:	6066      	str	r6, [r4, #4]
    1390:	4641      	mov	r1, r8
    1392:	484d      	ldr	r0, [pc, #308]	; (14c8 <main+0x11c8>)
    1394:	f002 fc80 	bl	3c98 <arm_fir_f32>
    1398:	6065      	str	r5, [r4, #4]
    139a:	68a1      	ldr	r1, [r4, #8]
    139c:	4847      	ldr	r0, [pc, #284]	; (14bc <main+0x11bc>)
    139e:	1bc9      	subs	r1, r1, r7
    13a0:	f003 fd44 	bl	4e2c <printf>
    13a4:	4846      	ldr	r0, [pc, #280]	; (14c0 <main+0x11c0>)
    13a6:	f003 fd41 	bl	4e2c <printf>
    13aa:	4848      	ldr	r0, [pc, #288]	; (14cc <main+0x11cc>)
    13ac:	f003 fd3e 	bl	4e2c <printf>
    13b0:	4847      	ldr	r0, [pc, #284]	; (14d0 <main+0x11d0>)
    13b2:	f003 fd3b 	bl	4e2c <printf>
    13b6:	4847      	ldr	r0, [pc, #284]	; (14d4 <main+0x11d4>)
    13b8:	f003 fd38 	bl	4e2c <printf>
    13bc:	4846      	ldr	r0, [pc, #280]	; (14d8 <main+0x11d8>)
    13be:	f003 fd35 	bl	4e2c <printf>
    13c2:	4846      	ldr	r0, [pc, #280]	; (14dc <main+0x11dc>)
    13c4:	f003 fd32 	bl	4e2c <printf>
    13c8:	4a45      	ldr	r2, [pc, #276]	; (14e0 <main+0x11e0>)
    13ca:	4b46      	ldr	r3, [pc, #280]	; (14e4 <main+0x11e4>)
    13cc:	f8c9 201c 	str.w	r2, [r9, #28]
    13d0:	4648      	mov	r0, r9
    13d2:	f04f 527c 	mov.w	r2, #1056964608	; 0x3f000000
    13d6:	4631      	mov	r1, r6
    13d8:	f8c9 2018 	str.w	r2, [r9, #24]
    13dc:	f8c9 3020 	str.w	r3, [r9, #32]
    13e0:	f002 fe68 	bl	40b4 <arm_pid_init_f32>
    13e4:	46a2      	mov	sl, r4
    13e6:	f108 0520 	add.w	r5, r8, #32
    13ea:	4644      	mov	r4, r8
    13ec:	483e      	ldr	r0, [pc, #248]	; (14e8 <main+0x11e8>)
    13ee:	f001 f877 	bl	24e0 <Chip_TIMER_Reset>
    13f2:	edd9 6a03 	vldr	s13, [r9, #12]
    13f6:	ed99 7a01 	vldr	s14, [r9, #4]
    13fa:	ecb4 6a01 	vldmia	r4!, {s12}
    13fe:	edd9 4a00 	vldr	s9, [r9]
    1402:	edd9 5a04 	vldr	s11, [r9, #16]
    1406:	ed99 5a02 	vldr	s10, [r9, #8]
    140a:	edd9 7a05 	vldr	s15, [r9, #20]
    140e:	482b      	ldr	r0, [pc, #172]	; (14bc <main+0x11bc>)
    1410:	ee26 7a87 	vmul.f32	s14, s13, s14
    1414:	2301      	movs	r3, #1
    1416:	eea6 7a24 	vfma.f32	s14, s12, s9
    141a:	f8ca 3004 	str.w	r3, [sl, #4]
    141e:	2300      	movs	r3, #0
    1420:	ed89 6a03 	vstr	s12, [r9, #12]
    1424:	eea5 7a25 	vfma.f32	s14, s10, s11
    1428:	edc9 6a04 	vstr	s13, [r9, #16]
    142c:	ee77 7a27 	vadd.f32	s15, s14, s15
    1430:	edcd 7a03 	vstr	s15, [sp, #12]
    1434:	f8ca 3004 	str.w	r3, [sl, #4]
    1438:	f8da 1008 	ldr.w	r1, [sl, #8]
    143c:	edc9 7a05 	vstr	s15, [r9, #20]
    1440:	1bc9      	subs	r1, r1, r7
    1442:	f003 fcf3 	bl	4e2c <printf>
    1446:	481e      	ldr	r0, [pc, #120]	; (14c0 <main+0x11c0>)
    1448:	f003 fcf0 	bl	4e2c <printf>
    144c:	eddd 7a03 	vldr	s15, [sp, #12]
    1450:	ee77 7aa7 	vadd.f32	s15, s15, s15
    1454:	42a5      	cmp	r5, r4
    1456:	edcd 7a03 	vstr	s15, [sp, #12]
    145a:	d1c7      	bne.n	13ec <main+0x10ec>
    145c:	481e      	ldr	r0, [pc, #120]	; (14d8 <main+0x11d8>)
    145e:	4c23      	ldr	r4, [pc, #140]	; (14ec <main+0x11ec>)
    1460:	4d21      	ldr	r5, [pc, #132]	; (14e8 <main+0x11e8>)
    1462:	f003 fce3 	bl	4e2c <printf>
    1466:	4822      	ldr	r0, [pc, #136]	; (14f0 <main+0x11f0>)
    1468:	f003 fce0 	bl	4e2c <printf>
    146c:	4b21      	ldr	r3, [pc, #132]	; (14f4 <main+0x11f4>)
    146e:	4822      	ldr	r0, [pc, #136]	; (14f8 <main+0x11f8>)
    1470:	4a22      	ldr	r2, [pc, #136]	; (14fc <main+0x11fc>)
    1472:	4923      	ldr	r1, [pc, #140]	; (1500 <main+0x1200>)
    1474:	6018      	str	r0, [r3, #0]
    1476:	4618      	mov	r0, r3
    1478:	605c      	str	r4, [r3, #4]
    147a:	6099      	str	r1, [r3, #8]
    147c:	60da      	str	r2, [r3, #12]
    147e:	611a      	str	r2, [r3, #16]
    1480:	f000 f88e 	bl	15a0 <Init_f32_IIR>
    1484:	2408      	movs	r4, #8
    1486:	4818      	ldr	r0, [pc, #96]	; (14e8 <main+0x11e8>)
    1488:	f001 f82a 	bl	24e0 <Chip_TIMER_Reset>
    148c:	2301      	movs	r3, #1
    148e:	606b      	str	r3, [r5, #4]
    1490:	ed98 0a00 	vldr	s0, [r8]
    1494:	490b      	ldr	r1, [pc, #44]	; (14c4 <main+0x11c4>)
    1496:	4817      	ldr	r0, [pc, #92]	; (14f4 <main+0x11f4>)
    1498:	f000 f88a 	bl	15b0 <Compute_f32_IIR>
    149c:	2300      	movs	r3, #0
    149e:	606b      	str	r3, [r5, #4]
    14a0:	68a9      	ldr	r1, [r5, #8]
    14a2:	4806      	ldr	r0, [pc, #24]	; (14bc <main+0x11bc>)
    14a4:	1bc9      	subs	r1, r1, r7
    14a6:	f003 fcc1 	bl	4e2c <printf>
    14aa:	4805      	ldr	r0, [pc, #20]	; (14c0 <main+0x11c0>)
    14ac:	f003 fcbe 	bl	4e2c <printf>
    14b0:	3c01      	subs	r4, #1
    14b2:	d1e8      	bne.n	1486 <main+0x1186>
    14b4:	4808      	ldr	r0, [pc, #32]	; (14d8 <main+0x11d8>)
    14b6:	f003 fcb9 	bl	4e2c <printf>
    14ba:	e7fe      	b.n	14ba <main+0x11ba>
    14bc:	00006ff8 	.word	0x00006ff8
    14c0:	00007108 	.word	0x00007108
    14c4:	20014000 	.word	0x20014000
    14c8:	20002464 	.word	0x20002464
    14cc:	00007088 	.word	0x00007088
    14d0:	000070ac 	.word	0x000070ac
    14d4:	000070c8 	.word	0x000070c8
    14d8:	00006f90 	.word	0x00006f90
    14dc:	000070e8 	.word	0x000070e8
    14e0:	3dcccccd 	.word	0x3dcccccd
    14e4:	3d4ccccd 	.word	0x3d4ccccd
    14e8:	40008000 	.word	0x40008000
    14ec:	be4ccccd 	.word	0xbe4ccccd
    14f0:	000070f4 	.word	0x000070f4
    14f4:	20002374 	.word	0x20002374
    14f8:	bdcccccd 	.word	0xbdcccccd
    14fc:	becccccd 	.word	0xbecccccd
    1500:	be99999a 	.word	0xbe99999a

00001504 <InitGoertzel_f32>:
    1504:	ee80 0a20 	vdiv.f32	s0, s0, s1
    1508:	b538      	push	{r3, r4, r5, lr}
    150a:	4604      	mov	r4, r0
    150c:	460d      	mov	r5, r1
    150e:	ed2d 8b02 	vpush	{d8}
    1512:	ee30 8a00 	vadd.f32	s16, s0, s0
    1516:	eef0 8a60 	vmov.f32	s17, s1
    151a:	eeb0 0a48 	vmov.f32	s0, s16
    151e:	f002 ff37 	bl	4390 <cosf>
    1522:	ed84 0a00 	vstr	s0, [r4]
    1526:	eeb0 0a48 	vmov.f32	s0, s16
    152a:	f002 ff49 	bl	43c0 <sinf>
    152e:	edc4 8a03 	vstr	s17, [r4, #12]
    1532:	ecbd 8b02 	vpop	{d8}
    1536:	eeb1 0a40 	vneg.f32	s0, s0
    153a:	ed84 0a01 	vstr	s0, [r4, #4]
    153e:	60a5      	str	r5, [r4, #8]
    1540:	bd38      	pop	{r3, r4, r5, pc}
    1542:	bf00      	nop

00001544 <ProcessGoertzel_f32_Power>:
    1544:	6883      	ldr	r3, [r0, #8]
    1546:	b30b      	cbz	r3, 158c <ProcessGoertzel_f32_Power+0x48>
    1548:	edd0 5a00 	vldr	s11, [r0]
    154c:	eddf 6a13 	vldr	s13, [pc, #76]	; 159c <ProcessGoertzel_f32_Power+0x58>
    1550:	eb01 0383 	add.w	r3, r1, r3, lsl #2
    1554:	ee35 6aa5 	vadd.f32	s12, s11, s11
    1558:	eeb0 7a66 	vmov.f32	s14, s13
    155c:	e001      	b.n	1562 <ProcessGoertzel_f32_Power+0x1e>
    155e:	eeb0 7a67 	vmov.f32	s14, s15
    1562:	ecf1 7a01 	vldmia	r1!, {s15}
    1566:	eee7 7a06 	vfma.f32	s15, s14, s12
    156a:	428b      	cmp	r3, r1
    156c:	ee77 7ae6 	vsub.f32	s15, s15, s13
    1570:	eef0 6a47 	vmov.f32	s13, s14
    1574:	d1f3      	bne.n	155e <ProcessGoertzel_f32_Power+0x1a>
    1576:	ed90 0a01 	vldr	s0, [r0, #4]
    157a:	ee97 7aa5 	vfnms.f32	s14, s15, s11
    157e:	ee67 7a80 	vmul.f32	s15, s15, s0
    1582:	ee27 0aa7 	vmul.f32	s0, s15, s15
    1586:	eea7 0a07 	vfma.f32	s0, s14, s14
    158a:	4770      	bx	lr
    158c:	ed9f 7a03 	vldr	s14, [pc, #12]	; 159c <ProcessGoertzel_f32_Power+0x58>
    1590:	edd0 5a00 	vldr	s11, [r0]
    1594:	eef0 7a47 	vmov.f32	s15, s14
    1598:	e7ed      	b.n	1576 <ProcessGoertzel_f32_Power+0x32>
    159a:	bf00      	nop
    159c:	00000000 	.word	0x00000000

000015a0 <Init_f32_IIR>:
    15a0:	2300      	movs	r3, #0
    15a2:	2200      	movs	r2, #0
    15a4:	f880 2038 	strb.w	r2, [r0, #56]	; 0x38
    15a8:	61c3      	str	r3, [r0, #28]
    15aa:	6203      	str	r3, [r0, #32]
    15ac:	4770      	bx	lr
    15ae:	bf00      	nop

000015b0 <Compute_f32_IIR>:
    15b0:	edd0 7a05 	vldr	s15, [r0, #20]
    15b4:	edd0 3a01 	vldr	s7, [r0, #4]
    15b8:	edd0 4a06 	vldr	s9, [r0, #24]
    15bc:	ed90 4a00 	vldr	s8, [r0]
    15c0:	edc0 7a06 	vstr	s15, [r0, #24]
    15c4:	ee67 7aa3 	vmul.f32	s15, s15, s7
    15c8:	ed90 5a02 	vldr	s10, [r0, #8]
    15cc:	ed90 7a07 	vldr	s14, [r0, #28]
    15d0:	edd0 5a03 	vldr	s11, [r0, #12]
    15d4:	ed90 6a08 	vldr	s12, [r0, #32]
    15d8:	edd0 6a04 	vldr	s13, [r0, #16]
    15dc:	ed80 0a05 	vstr	s0, [r0, #20]
    15e0:	eee4 7a00 	vfma.f32	s15, s8, s0
    15e4:	ed80 7a08 	vstr	s14, [r0, #32]
    15e8:	eee4 7a85 	vfma.f32	s15, s9, s10
    15ec:	eee7 7a25 	vfma.f32	s15, s14, s11
    15f0:	eee6 7a26 	vfma.f32	s15, s12, s13
    15f4:	edc0 7a07 	vstr	s15, [r0, #28]
    15f8:	edc1 7a00 	vstr	s15, [r1]
    15fc:	4770      	bx	lr
    15fe:	bf00      	nop

00001600 <SystemInit>:
    1600:	b508      	push	{r3, lr}
    1602:	4b04      	ldr	r3, [pc, #16]	; (1614 <SystemInit+0x14>)
    1604:	4a04      	ldr	r2, [pc, #16]	; (1618 <SystemInit+0x18>)
    1606:	609a      	str	r2, [r3, #8]
    1608:	f000 fb90 	bl	1d2c <fpuInit>
    160c:	e8bd 4008 	ldmia.w	sp!, {r3, lr}
    1610:	f000 b95a 	b.w	18c8 <Board_SystemInit>
    1614:	e000ed00 	.word	0xe000ed00
    1618:	00000000 	.word	0x00000000

0000161c <Board_LED_Init>:
    161c:	b4f0      	push	{r4, r5, r6, r7}
    161e:	2200      	movs	r2, #0
    1620:	e014      	b.n	164c <Board_LED_Init+0x30>
    1622:	490c      	ldr	r1, [pc, #48]	; (1654 <Board_LED_Init+0x38>)
    1624:	f811 5012 	ldrb.w	r5, [r1, r2, lsl #1]
    1628:	eb01 0142 	add.w	r1, r1, r2, lsl #1
    162c:	7848      	ldrb	r0, [r1, #1]
    162e:	4b0a      	ldr	r3, [pc, #40]	; (1658 <Board_LED_Init+0x3c>)
    1630:	f505 6600 	add.w	r6, r5, #2048	; 0x800
    1634:	f853 7026 	ldr.w	r7, [r3, r6, lsl #2]
    1638:	2401      	movs	r4, #1
    163a:	fa04 f100 	lsl.w	r1, r4, r0
    163e:	4339      	orrs	r1, r7
    1640:	f843 1026 	str.w	r1, [r3, r6, lsl #2]
    1644:	eb03 1345 	add.w	r3, r3, r5, lsl #5
    1648:	541c      	strb	r4, [r3, r0]
    164a:	4422      	add	r2, r4
    164c:	2a02      	cmp	r2, #2
    164e:	d9e8      	bls.n	1622 <Board_LED_Init+0x6>
    1650:	bcf0      	pop	{r4, r5, r6, r7}
    1652:	4770      	bx	lr
    1654:	0000711c 	.word	0x0000711c
    1658:	4008c000 	.word	0x4008c000

0000165c <Board_TestIO_Init>:
    165c:	b470      	push	{r4, r5, r6}
    165e:	2300      	movs	r3, #0
    1660:	e014      	b.n	168c <Board_TestIO_Init+0x30>
    1662:	490c      	ldr	r1, [pc, #48]	; (1694 <Board_TestIO_Init+0x38>)
    1664:	f811 4013 	ldrb.w	r4, [r1, r3, lsl #1]
    1668:	eb01 0143 	add.w	r1, r1, r3, lsl #1
    166c:	7848      	ldrb	r0, [r1, #1]
    166e:	4a0a      	ldr	r2, [pc, #40]	; (1698 <Board_TestIO_Init+0x3c>)
    1670:	f504 6500 	add.w	r5, r4, #2048	; 0x800
    1674:	f852 6025 	ldr.w	r6, [r2, r5, lsl #2]
    1678:	2101      	movs	r1, #1
    167a:	4081      	lsls	r1, r0
    167c:	4331      	orrs	r1, r6
    167e:	f842 1025 	str.w	r1, [r2, r5, lsl #2]
    1682:	eb02 1244 	add.w	r2, r2, r4, lsl #5
    1686:	2100      	movs	r1, #0
    1688:	5411      	strb	r1, [r2, r0]
    168a:	3301      	adds	r3, #1
    168c:	2b01      	cmp	r3, #1
    168e:	d9e8      	bls.n	1662 <Board_TestIO_Init+0x6>
    1690:	bc70      	pop	{r4, r5, r6}
    1692:	4770      	bx	lr
    1694:	00007110 	.word	0x00007110
    1698:	4008c000 	.word	0x4008c000

0000169c <Board_Button_Init>:
    169c:	b430      	push	{r4, r5}
    169e:	2300      	movs	r3, #0
    16a0:	e011      	b.n	16c6 <Board_Button_Init+0x2a>
    16a2:	490b      	ldr	r1, [pc, #44]	; (16d0 <Board_Button_Init+0x34>)
    16a4:	f811 2013 	ldrb.w	r2, [r1, r3, lsl #1]
    16a8:	eb01 0143 	add.w	r1, r1, r3, lsl #1
    16ac:	784d      	ldrb	r5, [r1, #1]
    16ae:	4c09      	ldr	r4, [pc, #36]	; (16d4 <Board_Button_Init+0x38>)
    16b0:	f502 6200 	add.w	r2, r2, #2048	; 0x800
    16b4:	f854 0022 	ldr.w	r0, [r4, r2, lsl #2]
    16b8:	2101      	movs	r1, #1
    16ba:	40a9      	lsls	r1, r5
    16bc:	ea20 0101 	bic.w	r1, r0, r1
    16c0:	f844 1022 	str.w	r1, [r4, r2, lsl #2]
    16c4:	3301      	adds	r3, #1
    16c6:	2b02      	cmp	r3, #2
    16c8:	d9eb      	bls.n	16a2 <Board_Button_Init+0x6>
    16ca:	bc30      	pop	{r4, r5}
    16cc:	4770      	bx	lr
    16ce:	bf00      	nop
    16d0:	00007114 	.word	0x00007114
    16d4:	4008c000 	.word	0x4008c000

000016d8 <Board_UART_Init>:
    16d8:	b510      	push	{r4, lr}
    16da:	4c0c      	ldr	r4, [pc, #48]	; (170c <Board_UART_Init+0x34>)
    16dc:	4620      	mov	r0, r4
    16de:	f001 f915 	bl	290c <Chip_UART_Init>
    16e2:	f44f 31e1 	mov.w	r1, #115200	; 0x1c200
    16e6:	4620      	mov	r0, r4
    16e8:	f001 f98c 	bl	2a04 <Chip_UART_SetBaud>
    16ec:	6822      	ldr	r2, [r4, #0]
    16ee:	4b08      	ldr	r3, [pc, #32]	; (1710 <Board_UART_Init+0x38>)
    16f0:	4013      	ands	r3, r2
    16f2:	f043 0304 	orr.w	r3, r3, #4
    16f6:	6023      	str	r3, [r4, #0]
    16f8:	6823      	ldr	r3, [r4, #0]
    16fa:	f043 0301 	orr.w	r3, r3, #1
    16fe:	6023      	str	r3, [r4, #0]
    1700:	6863      	ldr	r3, [r4, #4]
    1702:	f023 0340 	bic.w	r3, r3, #64	; 0x40
    1706:	6063      	str	r3, [r4, #4]
    1708:	bd10      	pop	{r4, pc}
    170a:	bf00      	nop
    170c:	40086000 	.word	0x40086000
    1710:	00fddbfd 	.word	0x00fddbfd

00001714 <Board_LED_Set>:
    1714:	2802      	cmp	r0, #2
    1716:	d80d      	bhi.n	1734 <Board_LED_Set+0x20>
    1718:	4a07      	ldr	r2, [pc, #28]	; (1738 <Board_LED_Set+0x24>)
    171a:	f812 3010 	ldrb.w	r3, [r2, r0, lsl #1]
    171e:	eb02 0040 	add.w	r0, r2, r0, lsl #1
    1722:	7842      	ldrb	r2, [r0, #1]
    1724:	f081 0101 	eor.w	r1, r1, #1
    1728:	015b      	lsls	r3, r3, #5
    172a:	f103 4380 	add.w	r3, r3, #1073741824	; 0x40000000
    172e:	f503 230c 	add.w	r3, r3, #573440	; 0x8c000
    1732:	5499      	strb	r1, [r3, r2]
    1734:	4770      	bx	lr
    1736:	bf00      	nop
    1738:	0000711c 	.word	0x0000711c

0000173c <Board_UARTPutChar>:
    173c:	b500      	push	{lr}
    173e:	b083      	sub	sp, #12
    1740:	a902      	add	r1, sp, #8
    1742:	f801 0d01 	strb.w	r0, [r1, #-1]!
    1746:	2201      	movs	r2, #1
    1748:	4802      	ldr	r0, [pc, #8]	; (1754 <Board_UARTPutChar+0x18>)
    174a:	f001 f921 	bl	2990 <Chip_UART_SendBlocking>
    174e:	b003      	add	sp, #12
    1750:	f85d fb04 	ldr.w	pc, [sp], #4
    1754:	40086000 	.word	0x40086000

00001758 <__sys_write>:
    1758:	b570      	push	{r4, r5, r6, lr}
    175a:	460e      	mov	r6, r1
    175c:	4615      	mov	r5, r2
    175e:	2400      	movs	r4, #0
    1760:	e003      	b.n	176a <__sys_write+0x12>
    1762:	5d30      	ldrb	r0, [r6, r4]
    1764:	f7ff ffea 	bl	173c <Board_UARTPutChar>
    1768:	3401      	adds	r4, #1
    176a:	42ac      	cmp	r4, r5
    176c:	d3f9      	bcc.n	1762 <__sys_write+0xa>
    176e:	4628      	mov	r0, r5
    1770:	bd70      	pop	{r4, r5, r6, pc}
    1772:	bf00      	nop

00001774 <Board_Debug_Init>:
    1774:	b508      	push	{r3, lr}
    1776:	f7ff ffaf 	bl	16d8 <Board_UART_Init>
    177a:	bd08      	pop	{r3, pc}

0000177c <Board_Init>:
    177c:	b508      	push	{r3, lr}
    177e:	200b      	movs	r0, #11
    1780:	f000 fa18 	bl	1bb4 <Chip_Clock_EnablePeriphClock>
    1784:	200d      	movs	r0, #13
    1786:	f000 fa15 	bl	1bb4 <Chip_Clock_EnablePeriphClock>
    178a:	f7ff fff3 	bl	1774 <Board_Debug_Init>
    178e:	200e      	movs	r0, #14
    1790:	f000 fa10 	bl	1bb4 <Chip_Clock_EnablePeriphClock>
    1794:	200f      	movs	r0, #15
    1796:	f000 fa0d 	bl	1bb4 <Chip_Clock_EnablePeriphClock>
    179a:	f04f 4380 	mov.w	r3, #1073741824	; 0x40000000
    179e:	f44f 4280 	mov.w	r2, #16384	; 0x4000
    17a2:	f8c3 2120 	str.w	r2, [r3, #288]	; 0x120
    17a6:	bf00      	nop
    17a8:	bf00      	nop
    17aa:	bf00      	nop
    17ac:	bf00      	nop
    17ae:	f8c3 2140 	str.w	r2, [r3, #320]	; 0x140
    17b2:	f44f 4200 	mov.w	r2, #32768	; 0x8000
    17b6:	f8c3 2120 	str.w	r2, [r3, #288]	; 0x120
    17ba:	bf00      	nop
    17bc:	bf00      	nop
    17be:	bf00      	nop
    17c0:	bf00      	nop
    17c2:	f8c3 2140 	str.w	r2, [r3, #320]	; 0x140
    17c6:	f7ff ff29 	bl	161c <Board_LED_Init>
    17ca:	f7ff ff47 	bl	165c <Board_TestIO_Init>
    17ce:	f7ff ff65 	bl	169c <Board_Button_Init>
    17d2:	bd08      	pop	{r3, pc}

000017d4 <ConfigureBridgeSSEL>:
    17d4:	b410      	push	{r4}
    17d6:	b083      	sub	sp, #12
    17d8:	2300      	movs	r3, #0
    17da:	f88d 3004 	strb.w	r3, [sp, #4]
    17de:	220e      	movs	r2, #14
    17e0:	f88d 2005 	strb.w	r2, [sp, #5]
    17e4:	2280      	movs	r2, #128	; 0x80
    17e6:	f8ad 2006 	strh.w	r2, [sp, #6]
    17ea:	e00c      	b.n	1806 <ConfigureBridgeSSEL+0x32>
    17ec:	aa01      	add	r2, sp, #4
    17ee:	eb02 0183 	add.w	r1, r2, r3, lsl #2
    17f2:	f812 4023 	ldrb.w	r4, [r2, r3, lsl #2]
    17f6:	784a      	ldrb	r2, [r1, #1]
    17f8:	8848      	ldrh	r0, [r1, #2]
    17fa:	eb02 1244 	add.w	r2, r2, r4, lsl #5
    17fe:	4918      	ldr	r1, [pc, #96]	; (1860 <ConfigureBridgeSSEL+0x8c>)
    1800:	f841 0022 	str.w	r0, [r1, r2, lsl #2]
    1804:	3301      	adds	r3, #1
    1806:	2b00      	cmp	r3, #0
    1808:	d0f0      	beq.n	17ec <ConfigureBridgeSSEL+0x18>
    180a:	4a16      	ldr	r2, [pc, #88]	; (1864 <ConfigureBridgeSSEL+0x90>)
    180c:	f502 5300 	add.w	r3, r2, #8192	; 0x2000
    1810:	6819      	ldr	r1, [r3, #0]
    1812:	f441 4180 	orr.w	r1, r1, #16384	; 0x4000
    1816:	6019      	str	r1, [r3, #0]
    1818:	2100      	movs	r1, #0
    181a:	7391      	strb	r1, [r2, #14]
    181c:	6819      	ldr	r1, [r3, #0]
    181e:	f421 4180 	bic.w	r1, r1, #16384	; 0x4000
    1822:	6019      	str	r1, [r3, #0]
    1824:	7b93      	ldrb	r3, [r2, #14]
    1826:	f013 0fff 	tst.w	r3, #255	; 0xff
    182a:	d101      	bne.n	1830 <ConfigureBridgeSSEL+0x5c>
    182c:	2389      	movs	r3, #137	; 0x89
    182e:	e000      	b.n	1832 <ConfigureBridgeSSEL+0x5e>
    1830:	2381      	movs	r3, #129	; 0x81
    1832:	f8ad 3006 	strh.w	r3, [sp, #6]
    1836:	2300      	movs	r3, #0
    1838:	e00c      	b.n	1854 <ConfigureBridgeSSEL+0x80>
    183a:	aa01      	add	r2, sp, #4
    183c:	eb02 0183 	add.w	r1, r2, r3, lsl #2
    1840:	f812 4023 	ldrb.w	r4, [r2, r3, lsl #2]
    1844:	784a      	ldrb	r2, [r1, #1]
    1846:	8848      	ldrh	r0, [r1, #2]
    1848:	eb02 1244 	add.w	r2, r2, r4, lsl #5
    184c:	4904      	ldr	r1, [pc, #16]	; (1860 <ConfigureBridgeSSEL+0x8c>)
    184e:	f841 0022 	str.w	r0, [r1, r2, lsl #2]
    1852:	3301      	adds	r3, #1
    1854:	2b00      	cmp	r3, #0
    1856:	d0f0      	beq.n	183a <ConfigureBridgeSSEL+0x66>
    1858:	b003      	add	sp, #12
    185a:	f85d 4b04 	ldr.w	r4, [sp], #4
    185e:	4770      	bx	lr
    1860:	40001000 	.word	0x40001000
    1864:	4008c000 	.word	0x4008c000

00001868 <Board_SetupMuxing>:
    1868:	b510      	push	{r4, lr}
    186a:	200d      	movs	r0, #13
    186c:	f000 f9a2 	bl	1bb4 <Chip_Clock_EnablePeriphClock>
    1870:	2300      	movs	r3, #0
    1872:	e00c      	b.n	188e <Board_SetupMuxing+0x26>
    1874:	4a08      	ldr	r2, [pc, #32]	; (1898 <Board_SetupMuxing+0x30>)
    1876:	eb02 0183 	add.w	r1, r2, r3, lsl #2
    187a:	f812 4023 	ldrb.w	r4, [r2, r3, lsl #2]
    187e:	784a      	ldrb	r2, [r1, #1]
    1880:	8848      	ldrh	r0, [r1, #2]
    1882:	eb02 1244 	add.w	r2, r2, r4, lsl #5
    1886:	4905      	ldr	r1, [pc, #20]	; (189c <Board_SetupMuxing+0x34>)
    1888:	f841 0022 	str.w	r0, [r1, r2, lsl #2]
    188c:	3301      	adds	r3, #1
    188e:	2b0b      	cmp	r3, #11
    1890:	d9f0      	bls.n	1874 <Board_SetupMuxing+0xc>
    1892:	f7ff ff9f 	bl	17d4 <ConfigureBridgeSSEL>
    1896:	bd10      	pop	{r4, pc}
    1898:	00007124 	.word	0x00007124
    189c:	40001000 	.word	0x40001000

000018a0 <Board_SetupClocking>:
    18a0:	b510      	push	{r4, lr}
    18a2:	4c08      	ldr	r4, [pc, #32]	; (18c4 <Board_SetupClocking+0x24>)
    18a4:	4620      	mov	r0, r4
    18a6:	f000 f845 	bl	1934 <Chip_POWER_SetVoltage>
    18aa:	4620      	mov	r0, r4
    18ac:	f000 fde2 	bl	2474 <Chip_SetupFROClocking>
    18b0:	f04f 4380 	mov.w	r3, #1073741824	; 0x40000000
    18b4:	2200      	movs	r2, #0
    18b6:	f8c3 2380 	str.w	r2, [r3, #896]	; 0x380
    18ba:	f8c3 2288 	str.w	r2, [r3, #648]	; 0x288
    18be:	f8c3 2384 	str.w	r2, [r3, #900]	; 0x384
    18c2:	bd10      	pop	{r4, pc}
    18c4:	02dc6c00 	.word	0x02dc6c00

000018c8 <Board_SystemInit>:
    18c8:	b508      	push	{r3, lr}
    18ca:	f44f 4060 	mov.w	r0, #57344	; 0xe000
    18ce:	f000 fcef 	bl	22b0 <Chip_SYSCON_PowerUp>
    18d2:	2003      	movs	r0, #3
    18d4:	f000 f96e 	bl	1bb4 <Chip_Clock_EnablePeriphClock>
    18d8:	2004      	movs	r0, #4
    18da:	f000 f96b 	bl	1bb4 <Chip_Clock_EnablePeriphClock>
    18de:	f7ff ffc3 	bl	1868 <Board_SetupMuxing>
    18e2:	f7ff ffdd 	bl	18a0 <Board_SetupClocking>
    18e6:	bd08      	pop	{r3, pc}

000018e8 <Chip_POWER_SetFROHFRate>:
    18e8:	42984b0e 	.word	0x42984b0e
    18ec:	4b0ed108 	.word	0x4b0ed108
    18f0:	f023681b 	.word	0xf023681b
    18f4:	f423437c 	.word	0xf423437c
    18f8:	f0434340 	.word	0xf0434340
    18fc:	e00c4340 	.word	0xe00c4340
    1900:	42984b0a 	.word	0x42984b0a
    1904:	4b0ad10d 	.word	0x4b0ad10d
    1908:	f023681b 	.word	0xf023681b
    190c:	f423437c 	.word	0xf423437c
    1910:	f0434340 	.word	0xf0434340
    1914:	f4434340 	.word	0xf4434340
    1918:	f04f4380 	.word	0xf04f4380
    191c:	f8c24280 	.word	0xf8c24280
    1920:	47703500 	.word	0x47703500
    1924:	02dc6c00 	.word	0x02dc6c00
    1928:	01000444 	.word	0x01000444
    192c:	05b8d800 	.word	0x05b8d800
    1930:	01000430 	.word	0x01000430

00001934 <Chip_POWER_SetVoltage>:
    1934:	42984b33 	.word	0x42984b33
    1938:	d860b570 	.word	0xd860b570
    193c:	4380f04f 	.word	0x4380f04f
    1940:	f8c34a31 	.word	0xf8c34a31
    1944:	f8d32630 	.word	0xf8d32630
    1948:	4b305400 	.word	0x4b305400
    194c:	f4254298 	.word	0xf4254298
    1950:	d9224570 	.word	0xd9224570
    1954:	42984b2e 	.word	0x42984b2e
    1958:	f503d921 	.word	0xf503d921
    195c:	f5030337 	.word	0xf5030337
    1960:	429853d8 	.word	0x429853d8
    1964:	4b2bd91d 	.word	0x4b2bd91d
    1968:	d91c4298 	.word	0xd91c4298
    196c:	42984b2a 	.word	0x42984b2a
    1970:	f503d91b 	.word	0xf503d91b
    1974:	f5030337 	.word	0xf5030337
    1978:	429853d8 	.word	0x429853d8
    197c:	f503d917 	.word	0xf503d917
    1980:	f5030337 	.word	0xf5030337
    1984:	429853d8 	.word	0x429853d8
    1988:	4b24d913 	.word	0x4b24d913
    198c:	4c254a24 	.word	0x4c254a24
    1990:	bf9442a0 	.word	0xbf9442a0
    1994:	461c4614 	.word	0x461c4614
    1998:	4c23e00c 	.word	0x4c23e00c
    199c:	4c23e00a 	.word	0x4c23e00a
    19a0:	4c23e008 	.word	0x4c23e008
    19a4:	4c23e006 	.word	0x4c23e006
    19a8:	4c23e004 	.word	0x4c23e004
    19ac:	4c23e002 	.word	0x4c23e002
    19b0:	4c23e000 	.word	0x4c23e000
    19b4:	68334e23 	.word	0x68334e23
    19b8:	f004689b 	.word	0xf004689b
    19bc:	691b010f 	.word	0x691b010f
    19c0:	47982000 	.word	0x47982000
    19c4:	689b6833 	.word	0x689b6833
    19c8:	691b2001 	.word	0x691b2001
    19cc:	4798210b 	.word	0x4798210b
    19d0:	689b6833 	.word	0x689b6833
    19d4:	3103f3c4 	.word	0x3103f3c4
    19d8:	2002691b 	.word	0x2002691b
    19dc:	68334798 	.word	0x68334798
    19e0:	f3c4689b 	.word	0xf3c4689b
    19e4:	691b4183 	.word	0x691b4183
    19e8:	47982003 	.word	0x47982003
    19ec:	f04f0e24 	.word	0xf04f0e24
    19f0:	ea454380 	.word	0xea454380
    19f4:	f8c33404 	.word	0xf8c33404
    19f8:	20004400 	.word	0x20004400
    19fc:	4812bd70 	.word	0x4812bd70
    1a00:	bf00bd70 	.word	0xbf00bd70
    1a04:	05f5e4e7 	.word	0x05f5e4e7
    1a08:	38000004 	.word	0x38000004
    1a0c:	00b71b00 	.word	0x00b71b00
    1a10:	016e3600 	.word	0x016e3600
    1a14:	02dc6c00 	.word	0x02dc6c00
    1a18:	03938700 	.word	0x03938700
    1a1c:	0534d2cd 	.word	0x0534d2cd
    1a20:	0530c2cc 	.word	0x0530c2cc
    1a24:	05b8d800 	.word	0x05b8d800
    1a28:	0018b2c6 	.word	0x0018b2c6
    1a2c:	011cb2c7 	.word	0x011cb2c7
    1a30:	0220b2c8 	.word	0x0220b2c8
    1a34:	0224b2c9 	.word	0x0224b2c9
    1a38:	0328b2ca 	.word	0x0328b2ca
    1a3c:	032cb2cb 	.word	0x032cb2cb
    1a40:	042cb2cb 	.word	0x042cb2cb
    1a44:	03000200 	.word	0x03000200
    1a48:	000b0002 	.word	0x000b0002

00001a4c <SystemCoreClockUpdate>:
    1a4c:	b580      	push	{r7, lr}
    1a4e:	af00      	add	r7, sp, #0
    1a50:	f000 f8f4 	bl	1c3c <Chip_Clock_GetSystemClockRate>
    1a54:	4602      	mov	r2, r0
    1a56:	4b02      	ldr	r3, [pc, #8]	; (1a60 <SystemCoreClockUpdate+0x14>)
    1a58:	601a      	str	r2, [r3, #0]
    1a5a:	bf00      	nop
    1a5c:	bd80      	pop	{r7, pc}
    1a5e:	bf00      	nop
    1a60:	20002504 	.word	0x20002504

00001a64 <Chip_Clock_GetExtClockInRate>:
    1a64:	b480      	push	{r7}
    1a66:	af00      	add	r7, sp, #0
    1a68:	4b03      	ldr	r3, [pc, #12]	; (1a78 <Chip_Clock_GetExtClockInRate+0x14>)
    1a6a:	681b      	ldr	r3, [r3, #0]
    1a6c:	4618      	mov	r0, r3
    1a6e:	46bd      	mov	sp, r7
    1a70:	f85d 7b04 	ldr.w	r7, [sp], #4
    1a74:	4770      	bx	lr
    1a76:	bf00      	nop
    1a78:	0000710c 	.word	0x0000710c

00001a7c <Chip_Clock_GetRTCOscRate>:
    1a7c:	b480      	push	{r7}
    1a7e:	af00      	add	r7, sp, #0
    1a80:	f44f 4300 	mov.w	r3, #32768	; 0x8000
    1a84:	4618      	mov	r0, r3
    1a86:	46bd      	mov	sp, r7
    1a88:	f85d 7b04 	ldr.w	r7, [sp], #4
    1a8c:	4770      	bx	lr
    1a8e:	bf00      	nop

00001a90 <Chip_Clock_GetFROHFRate>:
    1a90:	b480      	push	{r7}
    1a92:	af00      	add	r7, sp, #0
    1a94:	f04f 4380 	mov.w	r3, #1073741824	; 0x40000000
    1a98:	f8d3 3500 	ldr.w	r3, [r3, #1280]	; 0x500
    1a9c:	f403 4380 	and.w	r3, r3, #16384	; 0x4000
    1aa0:	2b00      	cmp	r3, #0
    1aa2:	d001      	beq.n	1aa8 <Chip_Clock_GetFROHFRate+0x18>
    1aa4:	4b03      	ldr	r3, [pc, #12]	; (1ab4 <Chip_Clock_GetFROHFRate+0x24>)
    1aa6:	e000      	b.n	1aaa <Chip_Clock_GetFROHFRate+0x1a>
    1aa8:	4b03      	ldr	r3, [pc, #12]	; (1ab8 <Chip_Clock_GetFROHFRate+0x28>)
    1aaa:	4618      	mov	r0, r3
    1aac:	46bd      	mov	sp, r7
    1aae:	f85d 7b04 	ldr.w	r7, [sp], #4
    1ab2:	4770      	bx	lr
    1ab4:	05b8d800 	.word	0x05b8d800
    1ab8:	02dc6c00 	.word	0x02dc6c00

00001abc <Chip_Clock_GetMain_A_ClockSource>:
    1abc:	b480      	push	{r7}
    1abe:	af00      	add	r7, sp, #0
    1ac0:	f04f 4380 	mov.w	r3, #1073741824	; 0x40000000
    1ac4:	f8d3 3280 	ldr.w	r3, [r3, #640]	; 0x280
    1ac8:	b2db      	uxtb	r3, r3
    1aca:	f003 0303 	and.w	r3, r3, #3
    1ace:	b2db      	uxtb	r3, r3
    1ad0:	4618      	mov	r0, r3
    1ad2:	46bd      	mov	sp, r7
    1ad4:	f85d 7b04 	ldr.w	r7, [sp], #4
    1ad8:	4770      	bx	lr
    1ada:	bf00      	nop

00001adc <Chip_Clock_GetMain_B_ClockSource>:
    1adc:	b480      	push	{r7}
    1ade:	af00      	add	r7, sp, #0
    1ae0:	f04f 4380 	mov.w	r3, #1073741824	; 0x40000000
    1ae4:	f8d3 3284 	ldr.w	r3, [r3, #644]	; 0x284
    1ae8:	b2db      	uxtb	r3, r3
    1aea:	4618      	mov	r0, r3
    1aec:	46bd      	mov	sp, r7
    1aee:	f85d 7b04 	ldr.w	r7, [sp], #4
    1af2:	4770      	bx	lr

00001af4 <Chip_Clock_GetFRGClockSource>:
    1af4:	b480      	push	{r7}
    1af6:	af00      	add	r7, sp, #0
    1af8:	f04f 4380 	mov.w	r3, #1073741824	; 0x40000000
    1afc:	f8d3 32e8 	ldr.w	r3, [r3, #744]	; 0x2e8
    1b00:	b2db      	uxtb	r3, r3
    1b02:	f003 0307 	and.w	r3, r3, #7
    1b06:	b2db      	uxtb	r3, r3
    1b08:	4618      	mov	r0, r3
    1b0a:	46bd      	mov	sp, r7
    1b0c:	f85d 7b04 	ldr.w	r7, [sp], #4
    1b10:	4770      	bx	lr
    1b12:	bf00      	nop

00001b14 <Chip_Clock_GetMain_A_ClockRate>:
    1b14:	b580      	push	{r7, lr}
    1b16:	b082      	sub	sp, #8
    1b18:	af00      	add	r7, sp, #0
    1b1a:	2300      	movs	r3, #0
    1b1c:	607b      	str	r3, [r7, #4]
    1b1e:	f7ff ffcd 	bl	1abc <Chip_Clock_GetMain_A_ClockSource>
    1b22:	4603      	mov	r3, r0
    1b24:	2b03      	cmp	r3, #3
    1b26:	d81a      	bhi.n	1b5e <Chip_Clock_GetMain_A_ClockRate+0x4a>
    1b28:	a201      	add	r2, pc, #4	; (adr r2, 1b30 <Chip_Clock_GetMain_A_ClockRate+0x1c>)
    1b2a:	f852 f023 	ldr.w	pc, [r2, r3, lsl #2]
    1b2e:	bf00      	nop
    1b30:	00001b41 	.word	0x00001b41
    1b34:	00001b47 	.word	0x00001b47
    1b38:	00001b4f 	.word	0x00001b4f
    1b3c:	00001b57 	.word	0x00001b57
    1b40:	4b0b      	ldr	r3, [pc, #44]	; (1b70 <Chip_Clock_GetMain_A_ClockRate+0x5c>)
    1b42:	607b      	str	r3, [r7, #4]
    1b44:	e00e      	b.n	1b64 <Chip_Clock_GetMain_A_ClockRate+0x50>
    1b46:	f7ff ff8d 	bl	1a64 <Chip_Clock_GetExtClockInRate>
    1b4a:	6078      	str	r0, [r7, #4]
    1b4c:	e00a      	b.n	1b64 <Chip_Clock_GetMain_A_ClockRate+0x50>
    1b4e:	f000 f8b5 	bl	1cbc <Chip_Clock_GetWDTOSCRate>
    1b52:	6078      	str	r0, [r7, #4]
    1b54:	e006      	b.n	1b64 <Chip_Clock_GetMain_A_ClockRate+0x50>
    1b56:	f7ff ff9b 	bl	1a90 <Chip_Clock_GetFROHFRate>
    1b5a:	6078      	str	r0, [r7, #4]
    1b5c:	e002      	b.n	1b64 <Chip_Clock_GetMain_A_ClockRate+0x50>
    1b5e:	2300      	movs	r3, #0
    1b60:	607b      	str	r3, [r7, #4]
    1b62:	bf00      	nop
    1b64:	687b      	ldr	r3, [r7, #4]
    1b66:	4618      	mov	r0, r3
    1b68:	3708      	adds	r7, #8
    1b6a:	46bd      	mov	sp, r7
    1b6c:	bd80      	pop	{r7, pc}
    1b6e:	bf00      	nop
    1b70:	00b71b00 	.word	0x00b71b00

00001b74 <Chip_Clock_GetMain_B_ClockRate>:
    1b74:	b580      	push	{r7, lr}
    1b76:	b082      	sub	sp, #8
    1b78:	af00      	add	r7, sp, #0
    1b7a:	2300      	movs	r3, #0
    1b7c:	607b      	str	r3, [r7, #4]
    1b7e:	f7ff ffad 	bl	1adc <Chip_Clock_GetMain_B_ClockSource>
    1b82:	4603      	mov	r3, r0
    1b84:	2b02      	cmp	r3, #2
    1b86:	d007      	beq.n	1b98 <Chip_Clock_GetMain_B_ClockRate+0x24>
    1b88:	2b03      	cmp	r3, #3
    1b8a:	d00a      	beq.n	1ba2 <Chip_Clock_GetMain_B_ClockRate+0x2e>
    1b8c:	2b00      	cmp	r3, #0
    1b8e:	d10c      	bne.n	1baa <Chip_Clock_GetMain_B_ClockRate+0x36>
    1b90:	f7ff ffc0 	bl	1b14 <Chip_Clock_GetMain_A_ClockRate>
    1b94:	6078      	str	r0, [r7, #4]
    1b96:	e008      	b.n	1baa <Chip_Clock_GetMain_B_ClockRate+0x36>
    1b98:	2000      	movs	r0, #0
    1b9a:	f000 fb3d 	bl	2218 <Chip_Clock_GetSystemPLLOutClockRate>
    1b9e:	6078      	str	r0, [r7, #4]
    1ba0:	e003      	b.n	1baa <Chip_Clock_GetMain_B_ClockRate+0x36>
    1ba2:	f7ff ff6b 	bl	1a7c <Chip_Clock_GetRTCOscRate>
    1ba6:	6078      	str	r0, [r7, #4]
    1ba8:	bf00      	nop
    1baa:	687b      	ldr	r3, [r7, #4]
    1bac:	4618      	mov	r0, r3
    1bae:	3708      	adds	r7, #8
    1bb0:	46bd      	mov	sp, r7
    1bb2:	bd80      	pop	{r7, pc}

00001bb4 <Chip_Clock_EnablePeriphClock>:
    1bb4:	b480      	push	{r7}
    1bb6:	b085      	sub	sp, #20
    1bb8:	af00      	add	r7, sp, #0
    1bba:	4603      	mov	r3, r0
    1bbc:	71fb      	strb	r3, [r7, #7]
    1bbe:	79fb      	ldrb	r3, [r7, #7]
    1bc0:	60fb      	str	r3, [r7, #12]
    1bc2:	68fb      	ldr	r3, [r7, #12]
    1bc4:	2b7f      	cmp	r3, #127	; 0x7f
    1bc6:	d907      	bls.n	1bd8 <Chip_Clock_EnablePeriphClock+0x24>
    1bc8:	4a11      	ldr	r2, [pc, #68]	; (1c10 <Chip_Clock_EnablePeriphClock+0x5c>)
    1bca:	68fb      	ldr	r3, [r7, #12]
    1bcc:	3b80      	subs	r3, #128	; 0x80
    1bce:	2101      	movs	r1, #1
    1bd0:	fa01 f303 	lsl.w	r3, r1, r3
    1bd4:	6153      	str	r3, [r2, #20]
    1bd6:	e014      	b.n	1c02 <Chip_Clock_EnablePeriphClock+0x4e>
    1bd8:	68fb      	ldr	r3, [r7, #12]
    1bda:	2b1f      	cmp	r3, #31
    1bdc:	d909      	bls.n	1bf2 <Chip_Clock_EnablePeriphClock+0x3e>
    1bde:	f04f 4280 	mov.w	r2, #1073741824	; 0x40000000
    1be2:	68fb      	ldr	r3, [r7, #12]
    1be4:	3b20      	subs	r3, #32
    1be6:	2101      	movs	r1, #1
    1be8:	fa01 f303 	lsl.w	r3, r1, r3
    1bec:	f8c2 3224 	str.w	r3, [r2, #548]	; 0x224
    1bf0:	e007      	b.n	1c02 <Chip_Clock_EnablePeriphClock+0x4e>
    1bf2:	f04f 4280 	mov.w	r2, #1073741824	; 0x40000000
    1bf6:	2101      	movs	r1, #1
    1bf8:	68fb      	ldr	r3, [r7, #12]
    1bfa:	fa01 f303 	lsl.w	r3, r1, r3
    1bfe:	f8c2 3220 	str.w	r3, [r2, #544]	; 0x220
    1c02:	bf00      	nop
    1c04:	3714      	adds	r7, #20
    1c06:	46bd      	mov	sp, r7
    1c08:	f85d 7b04 	ldr.w	r7, [sp], #4
    1c0c:	4770      	bx	lr
    1c0e:	bf00      	nop
    1c10:	40040000 	.word	0x40040000

00001c14 <Chip_Clock_GetMainClockRate>:
    1c14:	b580      	push	{r7, lr}
    1c16:	b082      	sub	sp, #8
    1c18:	af00      	add	r7, sp, #0
    1c1a:	f7ff ff5f 	bl	1adc <Chip_Clock_GetMain_B_ClockSource>
    1c1e:	4603      	mov	r3, r0
    1c20:	2b00      	cmp	r3, #0
    1c22:	d103      	bne.n	1c2c <Chip_Clock_GetMainClockRate+0x18>
    1c24:	f7ff ff76 	bl	1b14 <Chip_Clock_GetMain_A_ClockRate>
    1c28:	6078      	str	r0, [r7, #4]
    1c2a:	e002      	b.n	1c32 <Chip_Clock_GetMainClockRate+0x1e>
    1c2c:	f7ff ffa2 	bl	1b74 <Chip_Clock_GetMain_B_ClockRate>
    1c30:	6078      	str	r0, [r7, #4]
    1c32:	687b      	ldr	r3, [r7, #4]
    1c34:	4618      	mov	r0, r3
    1c36:	3708      	adds	r7, #8
    1c38:	46bd      	mov	sp, r7
    1c3a:	bd80      	pop	{r7, pc}

00001c3c <Chip_Clock_GetSystemClockRate>:
    1c3c:	b580      	push	{r7, lr}
    1c3e:	af00      	add	r7, sp, #0
    1c40:	f7ff ffe8 	bl	1c14 <Chip_Clock_GetMainClockRate>
    1c44:	4602      	mov	r2, r0
    1c46:	f04f 4380 	mov.w	r3, #1073741824	; 0x40000000
    1c4a:	f8d3 3380 	ldr.w	r3, [r3, #896]	; 0x380
    1c4e:	b2db      	uxtb	r3, r3
    1c50:	3301      	adds	r3, #1
    1c52:	fbb2 f3f3 	udiv	r3, r2, r3
    1c56:	4618      	mov	r0, r3
    1c58:	bd80      	pop	{r7, pc}
    1c5a:	bf00      	nop

00001c5c <Chip_Clock_GetFRGInClockRate>:
    1c5c:	b580      	push	{r7, lr}
    1c5e:	b082      	sub	sp, #8
    1c60:	af00      	add	r7, sp, #0
    1c62:	f7ff ff47 	bl	1af4 <Chip_Clock_GetFRGClockSource>
    1c66:	4603      	mov	r3, r0
    1c68:	70fb      	strb	r3, [r7, #3]
    1c6a:	78fb      	ldrb	r3, [r7, #3]
    1c6c:	2b03      	cmp	r3, #3
    1c6e:	d81b      	bhi.n	1ca8 <Chip_Clock_GetFRGInClockRate+0x4c>
    1c70:	a201      	add	r2, pc, #4	; (adr r2, 1c78 <Chip_Clock_GetFRGInClockRate+0x1c>)
    1c72:	f852 f023 	ldr.w	pc, [r2, r3, lsl #2]
    1c76:	bf00      	nop
    1c78:	00001c89 	.word	0x00001c89
    1c7c:	00001c91 	.word	0x00001c91
    1c80:	00001c9b 	.word	0x00001c9b
    1c84:	00001ca1 	.word	0x00001ca1
    1c88:	f7ff ffc4 	bl	1c14 <Chip_Clock_GetMainClockRate>
    1c8c:	6078      	str	r0, [r7, #4]
    1c8e:	e00d      	b.n	1cac <Chip_Clock_GetFRGInClockRate+0x50>
    1c90:	2000      	movs	r0, #0
    1c92:	f000 fac1 	bl	2218 <Chip_Clock_GetSystemPLLOutClockRate>
    1c96:	6078      	str	r0, [r7, #4]
    1c98:	e008      	b.n	1cac <Chip_Clock_GetFRGInClockRate+0x50>
    1c9a:	4b07      	ldr	r3, [pc, #28]	; (1cb8 <Chip_Clock_GetFRGInClockRate+0x5c>)
    1c9c:	607b      	str	r3, [r7, #4]
    1c9e:	e005      	b.n	1cac <Chip_Clock_GetFRGInClockRate+0x50>
    1ca0:	f7ff fef6 	bl	1a90 <Chip_Clock_GetFROHFRate>
    1ca4:	6078      	str	r0, [r7, #4]
    1ca6:	e001      	b.n	1cac <Chip_Clock_GetFRGInClockRate+0x50>
    1ca8:	2300      	movs	r3, #0
    1caa:	e000      	b.n	1cae <Chip_Clock_GetFRGInClockRate+0x52>
    1cac:	687b      	ldr	r3, [r7, #4]
    1cae:	4618      	mov	r0, r3
    1cb0:	3708      	adds	r7, #8
    1cb2:	46bd      	mov	sp, r7
    1cb4:	bd80      	pop	{r7, pc}
    1cb6:	bf00      	nop
    1cb8:	00b71b00 	.word	0x00b71b00

00001cbc <Chip_Clock_GetWDTOSCRate>:
    1cbc:	b480      	push	{r7}
    1cbe:	b085      	sub	sp, #20
    1cc0:	af00      	add	r7, sp, #0
    1cc2:	f04f 4380 	mov.w	r3, #1073741824	; 0x40000000
    1cc6:	f8d3 3508 	ldr.w	r3, [r3, #1288]	; 0x508
    1cca:	60fb      	str	r3, [r7, #12]
    1ccc:	68fb      	ldr	r3, [r7, #12]
    1cce:	095b      	lsrs	r3, r3, #5
    1cd0:	f003 031f 	and.w	r3, r3, #31
    1cd4:	60bb      	str	r3, [r7, #8]
    1cd6:	68bb      	ldr	r3, [r7, #8]
    1cd8:	2b00      	cmp	r3, #0
    1cda:	d101      	bne.n	1ce0 <Chip_Clock_GetWDTOSCRate+0x24>
    1cdc:	2300      	movs	r3, #0
    1cde:	e01a      	b.n	1d16 <Chip_Clock_GetWDTOSCRate+0x5a>
    1ce0:	68bb      	ldr	r3, [r7, #8]
    1ce2:	2b01      	cmp	r3, #1
    1ce4:	d00d      	beq.n	1d02 <Chip_Clock_GetWDTOSCRate+0x46>
    1ce6:	68bb      	ldr	r3, [r7, #8]
    1ce8:	3b02      	subs	r3, #2
    1cea:	4a0e      	ldr	r2, [pc, #56]	; (1d24 <Chip_Clock_GetWDTOSCRate+0x68>)
    1cec:	5cd3      	ldrb	r3, [r2, r3]
    1cee:	461a      	mov	r2, r3
    1cf0:	f242 7310 	movw	r3, #10000	; 0x2710
    1cf4:	fb03 f302 	mul.w	r3, r3, r2
    1cf8:	f503 2312 	add.w	r3, r3, #598016	; 0x92000
    1cfc:	f503 63f8 	add.w	r3, r3, #1984	; 0x7c0
    1d00:	e000      	b.n	1d04 <Chip_Clock_GetWDTOSCRate+0x48>
    1d02:	4b09      	ldr	r3, [pc, #36]	; (1d28 <Chip_Clock_GetWDTOSCRate+0x6c>)
    1d04:	607b      	str	r3, [r7, #4]
    1d06:	68fb      	ldr	r3, [r7, #12]
    1d08:	f003 031f 	and.w	r3, r3, #31
    1d0c:	3301      	adds	r3, #1
    1d0e:	005b      	lsls	r3, r3, #1
    1d10:	687a      	ldr	r2, [r7, #4]
    1d12:	fbb2 f3f3 	udiv	r3, r2, r3
    1d16:	4618      	mov	r0, r3
    1d18:	3714      	adds	r7, #20
    1d1a:	46bd      	mov	sp, r7
    1d1c:	f85d 7b04 	ldr.w	r7, [sp], #4
    1d20:	4770      	bx	lr
    1d22:	bf00      	nop
    1d24:	00007154 	.word	0x00007154
    1d28:	00061a80 	.word	0x00061a80

00001d2c <fpuInit>:
    1d2c:	b480      	push	{r7}
    1d2e:	b089      	sub	sp, #36	; 0x24
    1d30:	af00      	add	r7, sp, #0
    1d32:	4b16      	ldr	r3, [pc, #88]	; (1d8c <fpuInit+0x60>)
    1d34:	61fb      	str	r3, [r7, #28]
    1d36:	4b16      	ldr	r3, [pc, #88]	; (1d90 <fpuInit+0x64>)
    1d38:	61bb      	str	r3, [r7, #24]
    1d3a:	4b16      	ldr	r3, [pc, #88]	; (1d94 <fpuInit+0x68>)
    1d3c:	617b      	str	r3, [r7, #20]
    1d3e:	2300      	movs	r3, #0
    1d40:	74fb      	strb	r3, [r7, #19]
    1d42:	69bb      	ldr	r3, [r7, #24]
    1d44:	681b      	ldr	r3, [r3, #0]
    1d46:	60bb      	str	r3, [r7, #8]
    1d48:	697b      	ldr	r3, [r7, #20]
    1d4a:	681b      	ldr	r3, [r3, #0]
    1d4c:	607b      	str	r3, [r7, #4]
    1d4e:	68bb      	ldr	r3, [r7, #8]
    1d50:	4a11      	ldr	r2, [pc, #68]	; (1d98 <fpuInit+0x6c>)
    1d52:	4293      	cmp	r3, r2
    1d54:	d105      	bne.n	1d62 <fpuInit+0x36>
    1d56:	687b      	ldr	r3, [r7, #4]
    1d58:	4a10      	ldr	r2, [pc, #64]	; (1d9c <fpuInit+0x70>)
    1d5a:	4293      	cmp	r3, r2
    1d5c:	d101      	bne.n	1d62 <fpuInit+0x36>
    1d5e:	2301      	movs	r3, #1
    1d60:	e000      	b.n	1d64 <fpuInit+0x38>
    1d62:	2300      	movs	r3, #0
    1d64:	74fb      	strb	r3, [r7, #19]
    1d66:	7cfb      	ldrb	r3, [r7, #19]
    1d68:	2b00      	cmp	r3, #0
    1d6a:	d009      	beq.n	1d80 <fpuInit+0x54>
    1d6c:	69fb      	ldr	r3, [r7, #28]
    1d6e:	681b      	ldr	r3, [r3, #0]
    1d70:	60fb      	str	r3, [r7, #12]
    1d72:	68fb      	ldr	r3, [r7, #12]
    1d74:	f443 0370 	orr.w	r3, r3, #15728640	; 0xf00000
    1d78:	60fb      	str	r3, [r7, #12]
    1d7a:	68fa      	ldr	r2, [r7, #12]
    1d7c:	69fb      	ldr	r3, [r7, #28]
    1d7e:	601a      	str	r2, [r3, #0]
    1d80:	bf00      	nop
    1d82:	3724      	adds	r7, #36	; 0x24
    1d84:	46bd      	mov	sp, r7
    1d86:	f85d 7b04 	ldr.w	r7, [sp], #4
    1d8a:	4770      	bx	lr
    1d8c:	e000ed88 	.word	0xe000ed88
    1d90:	e000ef40 	.word	0xe000ef40
    1d94:	e000ef44 	.word	0xe000ef44
    1d98:	10110021 	.word	0x10110021
    1d9c:	11000011 	.word	0x11000011

00001da0 <Chip_Clock_GetExtClockInRate>:
    1da0:	b480      	push	{r7}
    1da2:	af00      	add	r7, sp, #0
    1da4:	4b03      	ldr	r3, [pc, #12]	; (1db4 <Chip_Clock_GetExtClockInRate+0x14>)
    1da6:	681b      	ldr	r3, [r3, #0]
    1da8:	4618      	mov	r0, r3
    1daa:	46bd      	mov	sp, r7
    1dac:	f85d 7b04 	ldr.w	r7, [sp], #4
    1db0:	4770      	bx	lr
    1db2:	bf00      	nop
    1db4:	0000710c 	.word	0x0000710c

00001db8 <Chip_Clock_GetRTCOscRate>:
    1db8:	b480      	push	{r7}
    1dba:	af00      	add	r7, sp, #0
    1dbc:	f44f 4300 	mov.w	r3, #32768	; 0x8000
    1dc0:	4618      	mov	r0, r3
    1dc2:	46bd      	mov	sp, r7
    1dc4:	f85d 7b04 	ldr.w	r7, [sp], #4
    1dc8:	4770      	bx	lr
    1dca:	bf00      	nop

00001dcc <pllDecodeN>:
    1dcc:	b480      	push	{r7}
    1dce:	b087      	sub	sp, #28
    1dd0:	af00      	add	r7, sp, #0
    1dd2:	6078      	str	r0, [r7, #4]
    1dd4:	687b      	ldr	r3, [r7, #4]
    1dd6:	f240 3202 	movw	r2, #770	; 0x302
    1dda:	4293      	cmp	r3, r2
    1ddc:	d00b      	beq.n	1df6 <pllDecodeN+0x2a>
    1dde:	f640 72ff 	movw	r2, #4095	; 0xfff
    1de2:	4293      	cmp	r3, r2
    1de4:	d004      	beq.n	1df0 <pllDecodeN+0x24>
    1de6:	f240 2202 	movw	r2, #514	; 0x202
    1dea:	4293      	cmp	r3, r2
    1dec:	d006      	beq.n	1dfc <pllDecodeN+0x30>
    1dee:	e008      	b.n	1e02 <pllDecodeN+0x36>
    1df0:	2300      	movs	r3, #0
    1df2:	617b      	str	r3, [r7, #20]
    1df4:	e033      	b.n	1e5e <pllDecodeN+0x92>
    1df6:	2301      	movs	r3, #1
    1df8:	617b      	str	r3, [r7, #20]
    1dfa:	e030      	b.n	1e5e <pllDecodeN+0x92>
    1dfc:	2302      	movs	r3, #2
    1dfe:	617b      	str	r3, [r7, #20]
    1e00:	e02d      	b.n	1e5e <pllDecodeN+0x92>
    1e02:	2380      	movs	r3, #128	; 0x80
    1e04:	613b      	str	r3, [r7, #16]
    1e06:	f04f 33ff 	mov.w	r3, #4294967295
    1e0a:	617b      	str	r3, [r7, #20]
    1e0c:	f44f 7380 	mov.w	r3, #256	; 0x100
    1e10:	60fb      	str	r3, [r7, #12]
    1e12:	e01c      	b.n	1e4e <pllDecodeN+0x82>
    1e14:	693b      	ldr	r3, [r7, #16]
    1e16:	089a      	lsrs	r2, r3, #2
    1e18:	693b      	ldr	r3, [r7, #16]
    1e1a:	405a      	eors	r2, r3
    1e1c:	693b      	ldr	r3, [r7, #16]
    1e1e:	08db      	lsrs	r3, r3, #3
    1e20:	405a      	eors	r2, r3
    1e22:	693b      	ldr	r3, [r7, #16]
    1e24:	091b      	lsrs	r3, r3, #4
    1e26:	4053      	eors	r3, r2
    1e28:	01db      	lsls	r3, r3, #7
    1e2a:	b2da      	uxtb	r2, r3
    1e2c:	693b      	ldr	r3, [r7, #16]
    1e2e:	085b      	lsrs	r3, r3, #1
    1e30:	f003 037f 	and.w	r3, r3, #127	; 0x7f
    1e34:	4313      	orrs	r3, r2
    1e36:	613b      	str	r3, [r7, #16]
    1e38:	693b      	ldr	r3, [r7, #16]
    1e3a:	f3c3 0209 	ubfx	r2, r3, #0, #10
    1e3e:	687b      	ldr	r3, [r7, #4]
    1e40:	429a      	cmp	r2, r3
    1e42:	d101      	bne.n	1e48 <pllDecodeN+0x7c>
    1e44:	68fb      	ldr	r3, [r7, #12]
    1e46:	617b      	str	r3, [r7, #20]
    1e48:	68fb      	ldr	r3, [r7, #12]
    1e4a:	3b01      	subs	r3, #1
    1e4c:	60fb      	str	r3, [r7, #12]
    1e4e:	68fb      	ldr	r3, [r7, #12]
    1e50:	2b02      	cmp	r3, #2
    1e52:	d903      	bls.n	1e5c <pllDecodeN+0x90>
    1e54:	697b      	ldr	r3, [r7, #20]
    1e56:	f1b3 3fff 	cmp.w	r3, #4294967295
    1e5a:	d0db      	beq.n	1e14 <pllDecodeN+0x48>
    1e5c:	bf00      	nop
    1e5e:	697b      	ldr	r3, [r7, #20]
    1e60:	4618      	mov	r0, r3
    1e62:	371c      	adds	r7, #28
    1e64:	46bd      	mov	sp, r7
    1e66:	f85d 7b04 	ldr.w	r7, [sp], #4
    1e6a:	4770      	bx	lr

00001e6c <pllDecodeP>:
    1e6c:	b480      	push	{r7}
    1e6e:	b087      	sub	sp, #28
    1e70:	af00      	add	r7, sp, #0
    1e72:	6078      	str	r0, [r7, #4]
    1e74:	687b      	ldr	r3, [r7, #4]
    1e76:	2b62      	cmp	r3, #98	; 0x62
    1e78:	d007      	beq.n	1e8a <pllDecodeP+0x1e>
    1e7a:	2bff      	cmp	r3, #255	; 0xff
    1e7c:	d002      	beq.n	1e84 <pllDecodeP+0x18>
    1e7e:	2b42      	cmp	r3, #66	; 0x42
    1e80:	d006      	beq.n	1e90 <pllDecodeP+0x24>
    1e82:	e008      	b.n	1e96 <pllDecodeP+0x2a>
    1e84:	2300      	movs	r3, #0
    1e86:	617b      	str	r3, [r7, #20]
    1e88:	e02d      	b.n	1ee6 <pllDecodeP+0x7a>
    1e8a:	2301      	movs	r3, #1
    1e8c:	617b      	str	r3, [r7, #20]
    1e8e:	e02a      	b.n	1ee6 <pllDecodeP+0x7a>
    1e90:	2302      	movs	r3, #2
    1e92:	617b      	str	r3, [r7, #20]
    1e94:	e027      	b.n	1ee6 <pllDecodeP+0x7a>
    1e96:	2310      	movs	r3, #16
    1e98:	613b      	str	r3, [r7, #16]
    1e9a:	f04f 33ff 	mov.w	r3, #4294967295
    1e9e:	617b      	str	r3, [r7, #20]
    1ea0:	2320      	movs	r3, #32
    1ea2:	60fb      	str	r3, [r7, #12]
    1ea4:	e017      	b.n	1ed6 <pllDecodeP+0x6a>
    1ea6:	693b      	ldr	r3, [r7, #16]
    1ea8:	089a      	lsrs	r2, r3, #2
    1eaa:	693b      	ldr	r3, [r7, #16]
    1eac:	4053      	eors	r3, r2
    1eae:	011b      	lsls	r3, r3, #4
    1eb0:	f003 0210 	and.w	r2, r3, #16
    1eb4:	693b      	ldr	r3, [r7, #16]
    1eb6:	085b      	lsrs	r3, r3, #1
    1eb8:	f003 030f 	and.w	r3, r3, #15
    1ebc:	4313      	orrs	r3, r2
    1ebe:	613b      	str	r3, [r7, #16]
    1ec0:	693b      	ldr	r3, [r7, #16]
    1ec2:	f3c3 0209 	ubfx	r2, r3, #0, #10
    1ec6:	687b      	ldr	r3, [r7, #4]
    1ec8:	429a      	cmp	r2, r3
    1eca:	d101      	bne.n	1ed0 <pllDecodeP+0x64>
    1ecc:	68fb      	ldr	r3, [r7, #12]
    1ece:	617b      	str	r3, [r7, #20]
    1ed0:	68fb      	ldr	r3, [r7, #12]
    1ed2:	3b01      	subs	r3, #1
    1ed4:	60fb      	str	r3, [r7, #12]
    1ed6:	68fb      	ldr	r3, [r7, #12]
    1ed8:	2b02      	cmp	r3, #2
    1eda:	d903      	bls.n	1ee4 <pllDecodeP+0x78>
    1edc:	697b      	ldr	r3, [r7, #20]
    1ede:	f1b3 3fff 	cmp.w	r3, #4294967295
    1ee2:	d0e0      	beq.n	1ea6 <pllDecodeP+0x3a>
    1ee4:	bf00      	nop
    1ee6:	697b      	ldr	r3, [r7, #20]
    1ee8:	4618      	mov	r0, r3
    1eea:	371c      	adds	r7, #28
    1eec:	46bd      	mov	sp, r7
    1eee:	f85d 7b04 	ldr.w	r7, [sp], #4
    1ef2:	4770      	bx	lr

00001ef4 <pllDecodeM>:
    1ef4:	b480      	push	{r7}
    1ef6:	b087      	sub	sp, #28
    1ef8:	af00      	add	r7, sp, #0
    1efa:	6078      	str	r0, [r7, #4]
    1efc:	687b      	ldr	r3, [r7, #4]
    1efe:	4a22      	ldr	r2, [pc, #136]	; (1f88 <pllDecodeM+0x94>)
    1f00:	4293      	cmp	r3, r2
    1f02:	d009      	beq.n	1f18 <pllDecodeM+0x24>
    1f04:	4a21      	ldr	r2, [pc, #132]	; (1f8c <pllDecodeM+0x98>)
    1f06:	4293      	cmp	r3, r2
    1f08:	d003      	beq.n	1f12 <pllDecodeM+0x1e>
    1f0a:	4a21      	ldr	r2, [pc, #132]	; (1f90 <pllDecodeM+0x9c>)
    1f0c:	4293      	cmp	r3, r2
    1f0e:	d006      	beq.n	1f1e <pllDecodeM+0x2a>
    1f10:	e008      	b.n	1f24 <pllDecodeM+0x30>
    1f12:	2300      	movs	r3, #0
    1f14:	617b      	str	r3, [r7, #20]
    1f16:	e02f      	b.n	1f78 <pllDecodeM+0x84>
    1f18:	2301      	movs	r3, #1
    1f1a:	617b      	str	r3, [r7, #20]
    1f1c:	e02c      	b.n	1f78 <pllDecodeM+0x84>
    1f1e:	2302      	movs	r3, #2
    1f20:	617b      	str	r3, [r7, #20]
    1f22:	e029      	b.n	1f78 <pllDecodeM+0x84>
    1f24:	f44f 4380 	mov.w	r3, #16384	; 0x4000
    1f28:	60fb      	str	r3, [r7, #12]
    1f2a:	f04f 33ff 	mov.w	r3, #4294967295
    1f2e:	617b      	str	r3, [r7, #20]
    1f30:	f44f 4300 	mov.w	r3, #32768	; 0x8000
    1f34:	613b      	str	r3, [r7, #16]
    1f36:	e017      	b.n	1f68 <pllDecodeM+0x74>
    1f38:	68fb      	ldr	r3, [r7, #12]
    1f3a:	085a      	lsrs	r2, r3, #1
    1f3c:	68fb      	ldr	r3, [r7, #12]
    1f3e:	4053      	eors	r3, r2
    1f40:	039b      	lsls	r3, r3, #14
    1f42:	f403 4280 	and.w	r2, r3, #16384	; 0x4000
    1f46:	68fb      	ldr	r3, [r7, #12]
    1f48:	085b      	lsrs	r3, r3, #1
    1f4a:	f3c3 030d 	ubfx	r3, r3, #0, #14
    1f4e:	4313      	orrs	r3, r2
    1f50:	60fb      	str	r3, [r7, #12]
    1f52:	68fb      	ldr	r3, [r7, #12]
    1f54:	f3c3 0210 	ubfx	r2, r3, #0, #17
    1f58:	687b      	ldr	r3, [r7, #4]
    1f5a:	429a      	cmp	r2, r3
    1f5c:	d101      	bne.n	1f62 <pllDecodeM+0x6e>
    1f5e:	693b      	ldr	r3, [r7, #16]
    1f60:	617b      	str	r3, [r7, #20]
    1f62:	693b      	ldr	r3, [r7, #16]
    1f64:	3b01      	subs	r3, #1
    1f66:	613b      	str	r3, [r7, #16]
    1f68:	693b      	ldr	r3, [r7, #16]
    1f6a:	2b02      	cmp	r3, #2
    1f6c:	d903      	bls.n	1f76 <pllDecodeM+0x82>
    1f6e:	697b      	ldr	r3, [r7, #20]
    1f70:	f1b3 3fff 	cmp.w	r3, #4294967295
    1f74:	d0e0      	beq.n	1f38 <pllDecodeM+0x44>
    1f76:	bf00      	nop
    1f78:	697b      	ldr	r3, [r7, #20]
    1f7a:	4618      	mov	r0, r3
    1f7c:	371c      	adds	r7, #28
    1f7e:	46bd      	mov	sp, r7
    1f80:	f85d 7b04 	ldr.w	r7, [sp], #4
    1f84:	4770      	bx	lr
    1f86:	bf00      	nop
    1f88:	00018003 	.word	0x00018003
    1f8c:	000fffff 	.word	0x000fffff
    1f90:	00010003 	.word	0x00010003

00001f94 <findPllPreDiv>:
    1f94:	b580      	push	{r7, lr}
    1f96:	b084      	sub	sp, #16
    1f98:	af00      	add	r7, sp, #0
    1f9a:	6078      	str	r0, [r7, #4]
    1f9c:	6039      	str	r1, [r7, #0]
    1f9e:	2301      	movs	r3, #1
    1fa0:	60fb      	str	r3, [r7, #12]
    1fa2:	687b      	ldr	r3, [r7, #4]
    1fa4:	f403 2300 	and.w	r3, r3, #524288	; 0x80000
    1fa8:	2b00      	cmp	r3, #0
    1faa:	d10b      	bne.n	1fc4 <findPllPreDiv+0x30>
    1fac:	683b      	ldr	r3, [r7, #0]
    1fae:	f3c3 0309 	ubfx	r3, r3, #0, #10
    1fb2:	4618      	mov	r0, r3
    1fb4:	f7ff ff0a 	bl	1dcc <pllDecodeN>
    1fb8:	60f8      	str	r0, [r7, #12]
    1fba:	68fb      	ldr	r3, [r7, #12]
    1fbc:	2b00      	cmp	r3, #0
    1fbe:	d101      	bne.n	1fc4 <findPllPreDiv+0x30>
    1fc0:	2301      	movs	r3, #1
    1fc2:	60fb      	str	r3, [r7, #12]
    1fc4:	68fb      	ldr	r3, [r7, #12]
    1fc6:	4618      	mov	r0, r3
    1fc8:	3710      	adds	r7, #16
    1fca:	46bd      	mov	sp, r7
    1fcc:	bd80      	pop	{r7, pc}
    1fce:	bf00      	nop

00001fd0 <findPllPostDiv>:
    1fd0:	b580      	push	{r7, lr}
    1fd2:	b084      	sub	sp, #16
    1fd4:	af00      	add	r7, sp, #0
    1fd6:	6078      	str	r0, [r7, #4]
    1fd8:	6039      	str	r1, [r7, #0]
    1fda:	2301      	movs	r3, #1
    1fdc:	60fb      	str	r3, [r7, #12]
    1fde:	687b      	ldr	r3, [r7, #4]
    1fe0:	f403 1380 	and.w	r3, r3, #1048576	; 0x100000
    1fe4:	2b00      	cmp	r3, #0
    1fe6:	d10d      	bne.n	2004 <findPllPostDiv+0x34>
    1fe8:	683b      	ldr	r3, [r7, #0]
    1fea:	f003 037f 	and.w	r3, r3, #127	; 0x7f
    1fee:	4618      	mov	r0, r3
    1ff0:	f7ff ff3c 	bl	1e6c <pllDecodeP>
    1ff4:	4603      	mov	r3, r0
    1ff6:	005b      	lsls	r3, r3, #1
    1ff8:	60fb      	str	r3, [r7, #12]
    1ffa:	68fb      	ldr	r3, [r7, #12]
    1ffc:	2b00      	cmp	r3, #0
    1ffe:	d101      	bne.n	2004 <findPllPostDiv+0x34>
    2000:	2302      	movs	r3, #2
    2002:	60fb      	str	r3, [r7, #12]
    2004:	68fb      	ldr	r3, [r7, #12]
    2006:	4618      	mov	r0, r3
    2008:	3710      	adds	r7, #16
    200a:	46bd      	mov	sp, r7
    200c:	bd80      	pop	{r7, pc}
    200e:	bf00      	nop

00002010 <findPllMMult>:
    2010:	b580      	push	{r7, lr}
    2012:	b084      	sub	sp, #16
    2014:	af00      	add	r7, sp, #0
    2016:	6078      	str	r0, [r7, #4]
    2018:	6039      	str	r1, [r7, #0]
    201a:	2301      	movs	r3, #1
    201c:	60fb      	str	r3, [r7, #12]
    201e:	683b      	ldr	r3, [r7, #0]
    2020:	f3c3 0310 	ubfx	r3, r3, #0, #17
    2024:	4618      	mov	r0, r3
    2026:	f7ff ff65 	bl	1ef4 <pllDecodeM>
    202a:	60f8      	str	r0, [r7, #12]
    202c:	687b      	ldr	r3, [r7, #4]
    202e:	f403 3380 	and.w	r3, r3, #65536	; 0x10000
    2032:	2b00      	cmp	r3, #0
    2034:	d102      	bne.n	203c <findPllMMult+0x2c>
    2036:	68fb      	ldr	r3, [r7, #12]
    2038:	005b      	lsls	r3, r3, #1
    203a:	60fb      	str	r3, [r7, #12]
    203c:	68fb      	ldr	r3, [r7, #12]
    203e:	2b00      	cmp	r3, #0
    2040:	d101      	bne.n	2046 <findPllMMult+0x36>
    2042:	2301      	movs	r3, #1
    2044:	60fb      	str	r3, [r7, #12]
    2046:	68fb      	ldr	r3, [r7, #12]
    2048:	4618      	mov	r0, r3
    204a:	3710      	adds	r7, #16
    204c:	46bd      	mov	sp, r7
    204e:	bd80      	pop	{r7, pc}

00002050 <Chip_Clock_GetSystemPLLOutFromSetupUpdate>:
    2050:	b580      	push	{r7, lr}
    2052:	b082      	sub	sp, #8
    2054:	af00      	add	r7, sp, #0
    2056:	6078      	str	r0, [r7, #4]
    2058:	6878      	ldr	r0, [r7, #4]
    205a:	f000 f83b 	bl	20d4 <Chip_Clock_GetSystemPLLOutFromSetup>
    205e:	4602      	mov	r2, r0
    2060:	4b02      	ldr	r3, [pc, #8]	; (206c <Chip_Clock_GetSystemPLLOutFromSetupUpdate+0x1c>)
    2062:	601a      	str	r2, [r3, #0]
    2064:	bf00      	nop
    2066:	3708      	adds	r7, #8
    2068:	46bd      	mov	sp, r7
    206a:	bd80      	pop	{r7, pc}
    206c:	20000108 	.word	0x20000108

00002070 <Chip_Clock_GetSystemPLLInClockRate>:
    2070:	b580      	push	{r7, lr}
    2072:	b082      	sub	sp, #8
    2074:	af00      	add	r7, sp, #0
    2076:	2300      	movs	r3, #0
    2078:	607b      	str	r3, [r7, #4]
    207a:	f04f 4380 	mov.w	r3, #1073741824	; 0x40000000
    207e:	f8d3 3290 	ldr.w	r3, [r3, #656]	; 0x290
    2082:	f003 0303 	and.w	r3, r3, #3
    2086:	2b03      	cmp	r3, #3
    2088:	d819      	bhi.n	20be <Chip_Clock_GetSystemPLLInClockRate+0x4e>
    208a:	a201      	add	r2, pc, #4	; (adr r2, 2090 <Chip_Clock_GetSystemPLLInClockRate+0x20>)
    208c:	f852 f023 	ldr.w	pc, [r2, r3, lsl #2]
    2090:	000020a1 	.word	0x000020a1
    2094:	000020a7 	.word	0x000020a7
    2098:	000020af 	.word	0x000020af
    209c:	000020b7 	.word	0x000020b7
    20a0:	4b0b      	ldr	r3, [pc, #44]	; (20d0 <Chip_Clock_GetSystemPLLInClockRate+0x60>)
    20a2:	607b      	str	r3, [r7, #4]
    20a4:	e00e      	b.n	20c4 <Chip_Clock_GetSystemPLLInClockRate+0x54>
    20a6:	f7ff fe7b 	bl	1da0 <Chip_Clock_GetExtClockInRate>
    20aa:	6078      	str	r0, [r7, #4]
    20ac:	e00a      	b.n	20c4 <Chip_Clock_GetSystemPLLInClockRate+0x54>
    20ae:	f7ff fe05 	bl	1cbc <Chip_Clock_GetWDTOSCRate>
    20b2:	6078      	str	r0, [r7, #4]
    20b4:	e006      	b.n	20c4 <Chip_Clock_GetSystemPLLInClockRate+0x54>
    20b6:	f7ff fe7f 	bl	1db8 <Chip_Clock_GetRTCOscRate>
    20ba:	6078      	str	r0, [r7, #4]
    20bc:	e002      	b.n	20c4 <Chip_Clock_GetSystemPLLInClockRate+0x54>
    20be:	2300      	movs	r3, #0
    20c0:	607b      	str	r3, [r7, #4]
    20c2:	bf00      	nop
    20c4:	687b      	ldr	r3, [r7, #4]
    20c6:	4618      	mov	r0, r3
    20c8:	3708      	adds	r7, #8
    20ca:	46bd      	mov	sp, r7
    20cc:	bd80      	pop	{r7, pc}
    20ce:	bf00      	nop
    20d0:	00b71b00 	.word	0x00b71b00

000020d4 <Chip_Clock_GetSystemPLLOutFromSetup>:
    20d4:	b5f0      	push	{r4, r5, r6, r7, lr}
    20d6:	b08b      	sub	sp, #44	; 0x2c
    20d8:	af00      	add	r7, sp, #0
    20da:	6078      	str	r0, [r7, #4]
    20dc:	f7ff ffc8 	bl	2070 <Chip_Clock_GetSystemPLLInClockRate>
    20e0:	61f8      	str	r0, [r7, #28]
    20e2:	687b      	ldr	r3, [r7, #4]
    20e4:	681b      	ldr	r3, [r3, #0]
    20e6:	f403 4300 	and.w	r3, r3, #32768	; 0x8000
    20ea:	2b00      	cmp	r3, #0
    20ec:	f040 808a 	bne.w	2204 <Chip_Clock_GetSystemPLLOutFromSetup+0x130>
    20f0:	687b      	ldr	r3, [r7, #4]
    20f2:	681a      	ldr	r2, [r3, #0]
    20f4:	687b      	ldr	r3, [r7, #4]
    20f6:	685b      	ldr	r3, [r3, #4]
    20f8:	4619      	mov	r1, r3
    20fa:	4610      	mov	r0, r2
    20fc:	f7ff ff4a 	bl	1f94 <findPllPreDiv>
    2100:	61b8      	str	r0, [r7, #24]
    2102:	687b      	ldr	r3, [r7, #4]
    2104:	681a      	ldr	r2, [r3, #0]
    2106:	687b      	ldr	r3, [r7, #4]
    2108:	689b      	ldr	r3, [r3, #8]
    210a:	4619      	mov	r1, r3
    210c:	4610      	mov	r0, r2
    210e:	f7ff ff5f 	bl	1fd0 <findPllPostDiv>
    2112:	6178      	str	r0, [r7, #20]
    2114:	69fa      	ldr	r2, [r7, #28]
    2116:	69bb      	ldr	r3, [r7, #24]
    2118:	fbb2 f3f3 	udiv	r3, r2, r3
    211c:	61fb      	str	r3, [r7, #28]
    211e:	687b      	ldr	r3, [r7, #4]
    2120:	691b      	ldr	r3, [r3, #16]
    2122:	f003 5380 	and.w	r3, r3, #268435456	; 0x10000000
    2126:	2b00      	cmp	r3, #0
    2128:	d01d      	beq.n	2166 <Chip_Clock_GetSystemPLLOutFromSetup+0x92>
    212a:	687b      	ldr	r3, [r7, #4]
    212c:	681a      	ldr	r2, [r3, #0]
    212e:	687b      	ldr	r3, [r7, #4]
    2130:	68db      	ldr	r3, [r3, #12]
    2132:	4619      	mov	r1, r3
    2134:	4610      	mov	r0, r2
    2136:	f7ff ff6b 	bl	2010 <findPllMMult>
    213a:	6138      	str	r0, [r7, #16]
    213c:	69fb      	ldr	r3, [r7, #28]
    213e:	4619      	mov	r1, r3
    2140:	f04f 0200 	mov.w	r2, #0
    2144:	693b      	ldr	r3, [r7, #16]
    2146:	f04f 0400 	mov.w	r4, #0
    214a:	fb03 f502 	mul.w	r5, r3, r2
    214e:	fb01 f004 	mul.w	r0, r1, r4
    2152:	4428      	add	r0, r5
    2154:	fba1 3403 	umull	r3, r4, r1, r3
    2158:	1902      	adds	r2, r0, r4
    215a:	4614      	mov	r4, r2
    215c:	e9c7 3408 	strd	r3, r4, [r7, #32]
    2160:	e9c7 3408 	strd	r3, r4, [r7, #32]
    2164:	e040      	b.n	21e8 <Chip_Clock_GetSystemPLLOutFromSetup+0x114>
    2166:	687b      	ldr	r3, [r7, #4]
    2168:	691b      	ldr	r3, [r3, #16]
    216a:	0adb      	lsrs	r3, r3, #11
    216c:	b2db      	uxtb	r3, r3
    216e:	613b      	str	r3, [r7, #16]
    2170:	69fb      	ldr	r3, [r7, #28]
    2172:	4619      	mov	r1, r3
    2174:	f04f 0200 	mov.w	r2, #0
    2178:	693b      	ldr	r3, [r7, #16]
    217a:	f04f 0400 	mov.w	r4, #0
    217e:	fb03 fe02 	mul.w	lr, r3, r2
    2182:	fb01 f004 	mul.w	r0, r1, r4
    2186:	4470      	add	r0, lr
    2188:	fba1 3403 	umull	r3, r4, r1, r3
    218c:	1902      	adds	r2, r0, r4
    218e:	4614      	mov	r4, r2
    2190:	e9c7 3408 	strd	r3, r4, [r7, #32]
    2194:	e9c7 3408 	strd	r3, r4, [r7, #32]
    2198:	687b      	ldr	r3, [r7, #4]
    219a:	691b      	ldr	r3, [r3, #16]
    219c:	f04f 0400 	mov.w	r4, #0
    21a0:	f240 71ff 	movw	r1, #2047	; 0x7ff
    21a4:	f04f 0200 	mov.w	r2, #0
    21a8:	ea03 0301 	and.w	r3, r3, r1
    21ac:	ea04 0402 	and.w	r4, r4, r2
    21b0:	e9c7 3402 	strd	r3, r4, [r7, #8]
    21b4:	69fb      	ldr	r3, [r7, #28]
    21b6:	f04f 0400 	mov.w	r4, #0
    21ba:	68ba      	ldr	r2, [r7, #8]
    21bc:	fb04 f102 	mul.w	r1, r4, r2
    21c0:	68fa      	ldr	r2, [r7, #12]
    21c2:	fb03 f202 	mul.w	r2, r3, r2
    21c6:	440a      	add	r2, r1
    21c8:	68b9      	ldr	r1, [r7, #8]
    21ca:	fba1 3403 	umull	r3, r4, r1, r3
    21ce:	4422      	add	r2, r4
    21d0:	4614      	mov	r4, r2
    21d2:	0add      	lsrs	r5, r3, #11
    21d4:	ea45 5544 	orr.w	r5, r5, r4, lsl #21
    21d8:	0ae6      	lsrs	r6, r4, #11
    21da:	e9d7 3408 	ldrd	r3, r4, [r7, #32]
    21de:	195b      	adds	r3, r3, r5
    21e0:	eb44 0406 	adc.w	r4, r4, r6
    21e4:	e9c7 3408 	strd	r3, r4, [r7, #32]
    21e8:	697b      	ldr	r3, [r7, #20]
    21ea:	f04f 0400 	mov.w	r4, #0
    21ee:	461a      	mov	r2, r3
    21f0:	4623      	mov	r3, r4
    21f2:	e9d7 0108 	ldrd	r0, r1, [r7, #32]
    21f6:	f004 f9df 	bl	65b8 <__aeabi_uldivmod>
    21fa:	4603      	mov	r3, r0
    21fc:	460c      	mov	r4, r1
    21fe:	e9c7 3408 	strd	r3, r4, [r7, #32]
    2202:	e004      	b.n	220e <Chip_Clock_GetSystemPLLOutFromSetup+0x13a>
    2204:	69fb      	ldr	r3, [r7, #28]
    2206:	f04f 0400 	mov.w	r4, #0
    220a:	e9c7 3408 	strd	r3, r4, [r7, #32]
    220e:	6a3b      	ldr	r3, [r7, #32]
    2210:	4618      	mov	r0, r3
    2212:	372c      	adds	r7, #44	; 0x2c
    2214:	46bd      	mov	sp, r7
    2216:	bdf0      	pop	{r4, r5, r6, r7, pc}

00002218 <Chip_Clock_GetSystemPLLOutClockRate>:
    2218:	b580      	push	{r7, lr}
    221a:	b08a      	sub	sp, #40	; 0x28
    221c:	af00      	add	r7, sp, #0
    221e:	4603      	mov	r3, r0
    2220:	71fb      	strb	r3, [r7, #7]
    2222:	79fb      	ldrb	r3, [r7, #7]
    2224:	2b00      	cmp	r3, #0
    2226:	d103      	bne.n	2230 <Chip_Clock_GetSystemPLLOutClockRate+0x18>
    2228:	4b14      	ldr	r3, [pc, #80]	; (227c <Chip_Clock_GetSystemPLLOutClockRate+0x64>)
    222a:	681b      	ldr	r3, [r3, #0]
    222c:	2b00      	cmp	r3, #0
    222e:	d11d      	bne.n	226c <Chip_Clock_GetSystemPLLOutClockRate+0x54>
    2230:	f04f 4380 	mov.w	r3, #1073741824	; 0x40000000
    2234:	f8d3 3580 	ldr.w	r3, [r3, #1408]	; 0x580
    2238:	60bb      	str	r3, [r7, #8]
    223a:	f04f 4380 	mov.w	r3, #1073741824	; 0x40000000
    223e:	f8d3 3588 	ldr.w	r3, [r3, #1416]	; 0x588
    2242:	60fb      	str	r3, [r7, #12]
    2244:	f04f 4380 	mov.w	r3, #1073741824	; 0x40000000
    2248:	f8d3 358c 	ldr.w	r3, [r3, #1420]	; 0x58c
    224c:	613b      	str	r3, [r7, #16]
    224e:	f04f 4380 	mov.w	r3, #1073741824	; 0x40000000
    2252:	f8d3 3590 	ldr.w	r3, [r3, #1424]	; 0x590
    2256:	617b      	str	r3, [r7, #20]
    2258:	f04f 4380 	mov.w	r3, #1073741824	; 0x40000000
    225c:	f8d3 3594 	ldr.w	r3, [r3, #1428]	; 0x594
    2260:	61bb      	str	r3, [r7, #24]
    2262:	f107 0308 	add.w	r3, r7, #8
    2266:	4618      	mov	r0, r3
    2268:	f7ff fef2 	bl	2050 <Chip_Clock_GetSystemPLLOutFromSetupUpdate>
    226c:	4b03      	ldr	r3, [pc, #12]	; (227c <Chip_Clock_GetSystemPLLOutClockRate+0x64>)
    226e:	681b      	ldr	r3, [r3, #0]
    2270:	627b      	str	r3, [r7, #36]	; 0x24
    2272:	6a7b      	ldr	r3, [r7, #36]	; 0x24
    2274:	4618      	mov	r0, r3
    2276:	3728      	adds	r7, #40	; 0x28
    2278:	46bd      	mov	sp, r7
    227a:	bd80      	pop	{r7, pc}
    227c:	20000108 	.word	0x20000108

00002280 <Chip_SYSCON_Enable_ASYNC_Syscon>:
    2280:	b480      	push	{r7}
    2282:	b083      	sub	sp, #12
    2284:	af00      	add	r7, sp, #0
    2286:	4603      	mov	r3, r0
    2288:	71fb      	strb	r3, [r7, #7]
    228a:	79fb      	ldrb	r3, [r7, #7]
    228c:	2b00      	cmp	r3, #0
    228e:	d004      	beq.n	229a <Chip_SYSCON_Enable_ASYNC_Syscon+0x1a>
    2290:	f04f 4380 	mov.w	r3, #1073741824	; 0x40000000
    2294:	2201      	movs	r2, #1
    2296:	64da      	str	r2, [r3, #76]	; 0x4c
    2298:	e003      	b.n	22a2 <Chip_SYSCON_Enable_ASYNC_Syscon+0x22>
    229a:	f04f 4380 	mov.w	r3, #1073741824	; 0x40000000
    229e:	2200      	movs	r2, #0
    22a0:	64da      	str	r2, [r3, #76]	; 0x4c
    22a2:	bf00      	nop
    22a4:	370c      	adds	r7, #12
    22a6:	46bd      	mov	sp, r7
    22a8:	f85d 7b04 	ldr.w	r7, [sp], #4
    22ac:	4770      	bx	lr
    22ae:	bf00      	nop

000022b0 <Chip_SYSCON_PowerUp>:
    22b0:	b480      	push	{r7}
    22b2:	b087      	sub	sp, #28
    22b4:	af00      	add	r7, sp, #0
    22b6:	6078      	str	r0, [r7, #4]
    22b8:	687b      	ldr	r3, [r7, #4]
    22ba:	f403 0380 	and.w	r3, r3, #4194304	; 0x400000
    22be:	2b00      	cmp	r3, #0
    22c0:	d02f      	beq.n	2322 <Chip_SYSCON_PowerUp+0x72>
    22c2:	4b1d      	ldr	r3, [pc, #116]	; (2338 <Chip_SYSCON_PowerUp+0x88>)
    22c4:	617b      	str	r3, [r7, #20]
    22c6:	f04f 4380 	mov.w	r3, #1073741824	; 0x40000000
    22ca:	f8d3 3590 	ldr.w	r3, [r3, #1424]	; 0x590
    22ce:	f423 3300 	bic.w	r3, r3, #131072	; 0x20000
    22d2:	613b      	str	r3, [r7, #16]
    22d4:	f04f 4280 	mov.w	r2, #1073741824	; 0x40000000
    22d8:	697b      	ldr	r3, [r7, #20]
    22da:	f8c2 3590 	str.w	r3, [r2, #1424]	; 0x590
    22de:	f04f 4380 	mov.w	r3, #1073741824	; 0x40000000
    22e2:	f44f 0280 	mov.w	r2, #4194304	; 0x400000
    22e6:	f8c3 2630 	str.w	r2, [r3, #1584]	; 0x630
    22ea:	f04f 4280 	mov.w	r2, #1073741824	; 0x40000000
    22ee:	697b      	ldr	r3, [r7, #20]
    22f0:	f443 3300 	orr.w	r3, r3, #131072	; 0x20000
    22f4:	f8c2 3590 	str.w	r3, [r2, #1424]	; 0x590
    22f8:	2300      	movs	r3, #0
    22fa:	60fb      	str	r3, [r7, #12]
    22fc:	e002      	b.n	2304 <Chip_SYSCON_PowerUp+0x54>
    22fe:	68fb      	ldr	r3, [r7, #12]
    2300:	3301      	adds	r3, #1
    2302:	60fb      	str	r3, [r7, #12]
    2304:	68fb      	ldr	r3, [r7, #12]
    2306:	2bab      	cmp	r3, #171	; 0xab
    2308:	d9f9      	bls.n	22fe <Chip_SYSCON_PowerUp+0x4e>
    230a:	f04f 4280 	mov.w	r2, #1073741824	; 0x40000000
    230e:	693b      	ldr	r3, [r7, #16]
    2310:	f8c2 3590 	str.w	r3, [r2, #1424]	; 0x590
    2314:	f04f 4280 	mov.w	r2, #1073741824	; 0x40000000
    2318:	693b      	ldr	r3, [r7, #16]
    231a:	f443 3300 	orr.w	r3, r3, #131072	; 0x20000
    231e:	f8c2 3590 	str.w	r3, [r2, #1424]	; 0x590
    2322:	f04f 4280 	mov.w	r2, #1073741824	; 0x40000000
    2326:	687b      	ldr	r3, [r7, #4]
    2328:	f8c2 3630 	str.w	r3, [r2, #1584]	; 0x630
    232c:	bf00      	nop
    232e:	371c      	adds	r7, #28
    2330:	46bd      	mov	sp, r7
    2332:	f85d 7b04 	ldr.w	r7, [sp], #4
    2336:	4770      	bx	lr
    2338:	00045dd2 	.word	0x00045dd2

0000233c <Chip_SYSCON_SetFLASHAccess>:
    233c:	b480      	push	{r7}
    233e:	b085      	sub	sp, #20
    2340:	af00      	add	r7, sp, #0
    2342:	4603      	mov	r3, r0
    2344:	71fb      	strb	r3, [r7, #7]
    2346:	f04f 4380 	mov.w	r3, #1073741824	; 0x40000000
    234a:	f8d3 3400 	ldr.w	r3, [r3, #1024]	; 0x400
    234e:	f423 4370 	bic.w	r3, r3, #61440	; 0xf000
    2352:	60fb      	str	r3, [r7, #12]
    2354:	f04f 4180 	mov.w	r1, #1073741824	; 0x40000000
    2358:	79fb      	ldrb	r3, [r7, #7]
    235a:	031a      	lsls	r2, r3, #12
    235c:	68fb      	ldr	r3, [r7, #12]
    235e:	4313      	orrs	r3, r2
    2360:	f8c1 3400 	str.w	r3, [r1, #1024]	; 0x400
    2364:	bf00      	nop
    2366:	3714      	adds	r7, #20
    2368:	46bd      	mov	sp, r7
    236a:	f85d 7b04 	ldr.w	r7, [sp], #4
    236e:	4770      	bx	lr

00002370 <Chip_Clock_SetMain_A_ClockSource>:
    2370:	b480      	push	{r7}
    2372:	b083      	sub	sp, #12
    2374:	af00      	add	r7, sp, #0
    2376:	4603      	mov	r3, r0
    2378:	71fb      	strb	r3, [r7, #7]
    237a:	f04f 4280 	mov.w	r2, #1073741824	; 0x40000000
    237e:	79fb      	ldrb	r3, [r7, #7]
    2380:	f8c2 3280 	str.w	r3, [r2, #640]	; 0x280
    2384:	bf00      	nop
    2386:	370c      	adds	r7, #12
    2388:	46bd      	mov	sp, r7
    238a:	f85d 7b04 	ldr.w	r7, [sp], #4
    238e:	4770      	bx	lr

00002390 <Chip_Clock_SetMain_B_ClockSource>:
    2390:	b480      	push	{r7}
    2392:	b083      	sub	sp, #12
    2394:	af00      	add	r7, sp, #0
    2396:	4603      	mov	r3, r0
    2398:	71fb      	strb	r3, [r7, #7]
    239a:	f04f 4280 	mov.w	r2, #1073741824	; 0x40000000
    239e:	79fb      	ldrb	r3, [r7, #7]
    23a0:	f8c2 3284 	str.w	r3, [r2, #644]	; 0x284
    23a4:	bf00      	nop
    23a6:	370c      	adds	r7, #12
    23a8:	46bd      	mov	sp, r7
    23aa:	f85d 7b04 	ldr.w	r7, [sp], #4
    23ae:	4770      	bx	lr

000023b0 <Chip_Clock_SetAsyncSysconClockSource>:
    23b0:	b480      	push	{r7}
    23b2:	b083      	sub	sp, #12
    23b4:	af00      	add	r7, sp, #0
    23b6:	4603      	mov	r3, r0
    23b8:	71fb      	strb	r3, [r7, #7]
    23ba:	4a04      	ldr	r2, [pc, #16]	; (23cc <Chip_Clock_SetAsyncSysconClockSource+0x1c>)
    23bc:	79fb      	ldrb	r3, [r7, #7]
    23be:	6213      	str	r3, [r2, #32]
    23c0:	bf00      	nop
    23c2:	370c      	adds	r7, #12
    23c4:	46bd      	mov	sp, r7
    23c6:	f85d 7b04 	ldr.w	r7, [sp], #4
    23ca:	4770      	bx	lr
    23cc:	40040000 	.word	0x40040000

000023d0 <Chip_Clock_SetMainClockSource>:
    23d0:	b580      	push	{r7, lr}
    23d2:	b084      	sub	sp, #16
    23d4:	af00      	add	r7, sp, #0
    23d6:	4603      	mov	r3, r0
    23d8:	71fb      	strb	r3, [r7, #7]
    23da:	79fb      	ldrb	r3, [r7, #7]
    23dc:	60fb      	str	r3, [r7, #12]
    23de:	68fb      	ldr	r3, [r7, #12]
    23e0:	2b03      	cmp	r3, #3
    23e2:	d907      	bls.n	23f4 <Chip_Clock_SetMainClockSource+0x24>
    23e4:	68fb      	ldr	r3, [r7, #12]
    23e6:	b2db      	uxtb	r3, r3
    23e8:	3b04      	subs	r3, #4
    23ea:	b2db      	uxtb	r3, r3
    23ec:	4618      	mov	r0, r3
    23ee:	f7ff ffcf 	bl	2390 <Chip_Clock_SetMain_B_ClockSource>
    23f2:	e007      	b.n	2404 <Chip_Clock_SetMainClockSource+0x34>
    23f4:	68fb      	ldr	r3, [r7, #12]
    23f6:	b2db      	uxtb	r3, r3
    23f8:	4618      	mov	r0, r3
    23fa:	f7ff ffb9 	bl	2370 <Chip_Clock_SetMain_A_ClockSource>
    23fe:	2000      	movs	r0, #0
    2400:	f7ff ffc6 	bl	2390 <Chip_Clock_SetMain_B_ClockSource>
    2404:	bf00      	nop
    2406:	3710      	adds	r7, #16
    2408:	46bd      	mov	sp, r7
    240a:	bd80      	pop	{r7, pc}

0000240c <setupFlashClocks>:
    240c:	b580      	push	{r7, lr}
    240e:	b082      	sub	sp, #8
    2410:	af00      	add	r7, sp, #0
    2412:	6078      	str	r0, [r7, #4]
    2414:	687b      	ldr	r3, [r7, #4]
    2416:	4a13      	ldr	r2, [pc, #76]	; (2464 <setupFlashClocks+0x58>)
    2418:	4293      	cmp	r3, r2
    241a:	d803      	bhi.n	2424 <setupFlashClocks+0x18>
    241c:	2000      	movs	r0, #0
    241e:	f7ff ff8d 	bl	233c <Chip_SYSCON_SetFLASHAccess>
    2422:	e01a      	b.n	245a <setupFlashClocks+0x4e>
    2424:	687b      	ldr	r3, [r7, #4]
    2426:	4a10      	ldr	r2, [pc, #64]	; (2468 <setupFlashClocks+0x5c>)
    2428:	4293      	cmp	r3, r2
    242a:	d803      	bhi.n	2434 <setupFlashClocks+0x28>
    242c:	2001      	movs	r0, #1
    242e:	f7ff ff85 	bl	233c <Chip_SYSCON_SetFLASHAccess>
    2432:	e012      	b.n	245a <setupFlashClocks+0x4e>
    2434:	687b      	ldr	r3, [r7, #4]
    2436:	4a0d      	ldr	r2, [pc, #52]	; (246c <setupFlashClocks+0x60>)
    2438:	4293      	cmp	r3, r2
    243a:	d803      	bhi.n	2444 <setupFlashClocks+0x38>
    243c:	2002      	movs	r0, #2
    243e:	f7ff ff7d 	bl	233c <Chip_SYSCON_SetFLASHAccess>
    2442:	e00a      	b.n	245a <setupFlashClocks+0x4e>
    2444:	687b      	ldr	r3, [r7, #4]
    2446:	4a0a      	ldr	r2, [pc, #40]	; (2470 <setupFlashClocks+0x64>)
    2448:	4293      	cmp	r3, r2
    244a:	d803      	bhi.n	2454 <setupFlashClocks+0x48>
    244c:	2003      	movs	r0, #3
    244e:	f7ff ff75 	bl	233c <Chip_SYSCON_SetFLASHAccess>
    2452:	e002      	b.n	245a <setupFlashClocks+0x4e>
    2454:	2004      	movs	r0, #4
    2456:	f7ff ff71 	bl	233c <Chip_SYSCON_SetFLASHAccess>
    245a:	bf00      	nop
    245c:	3708      	adds	r7, #8
    245e:	46bd      	mov	sp, r7
    2460:	bd80      	pop	{r7, pc}
    2462:	bf00      	nop
    2464:	00b71b00 	.word	0x00b71b00
    2468:	01c9c380 	.word	0x01c9c380
    246c:	03938700 	.word	0x03938700
    2470:	0510ff40 	.word	0x0510ff40

00002474 <Chip_SetupFROClocking>:
    2474:	b580      	push	{r7, lr}
    2476:	b082      	sub	sp, #8
    2478:	af00      	add	r7, sp, #0
    247a:	6078      	str	r0, [r7, #4]
    247c:	687b      	ldr	r3, [r7, #4]
    247e:	4a15      	ldr	r2, [pc, #84]	; (24d4 <Chip_SetupFROClocking+0x60>)
    2480:	4293      	cmp	r3, r2
    2482:	d007      	beq.n	2494 <Chip_SetupFROClocking+0x20>
    2484:	687b      	ldr	r3, [r7, #4]
    2486:	4a14      	ldr	r2, [pc, #80]	; (24d8 <Chip_SetupFROClocking+0x64>)
    2488:	4293      	cmp	r3, r2
    248a:	d003      	beq.n	2494 <Chip_SetupFROClocking+0x20>
    248c:	687b      	ldr	r3, [r7, #4]
    248e:	4a13      	ldr	r2, [pc, #76]	; (24dc <Chip_SetupFROClocking+0x68>)
    2490:	4293      	cmp	r3, r2
    2492:	d119      	bne.n	24c8 <Chip_SetupFROClocking+0x54>
    2494:	2010      	movs	r0, #16
    2496:	f7ff ff0b 	bl	22b0 <Chip_SYSCON_PowerUp>
    249a:	2000      	movs	r0, #0
    249c:	f7ff ff98 	bl	23d0 <Chip_Clock_SetMainClockSource>
    24a0:	6878      	ldr	r0, [r7, #4]
    24a2:	f7ff ffb3 	bl	240c <setupFlashClocks>
    24a6:	2001      	movs	r0, #1
    24a8:	f7ff feea 	bl	2280 <Chip_SYSCON_Enable_ASYNC_Syscon>
    24ac:	2001      	movs	r0, #1
    24ae:	f7ff ff7f 	bl	23b0 <Chip_Clock_SetAsyncSysconClockSource>
    24b2:	687b      	ldr	r3, [r7, #4]
    24b4:	4a07      	ldr	r2, [pc, #28]	; (24d4 <Chip_SetupFROClocking+0x60>)
    24b6:	4293      	cmp	r3, r2
    24b8:	d908      	bls.n	24cc <Chip_SetupFROClocking+0x58>
    24ba:	6878      	ldr	r0, [r7, #4]
    24bc:	f7ff fa14 	bl	18e8 <Chip_POWER_SetFROHFRate>
    24c0:	2003      	movs	r0, #3
    24c2:	f7ff ff85 	bl	23d0 <Chip_Clock_SetMainClockSource>
    24c6:	e002      	b.n	24ce <Chip_SetupFROClocking+0x5a>
    24c8:	bf00      	nop
    24ca:	e000      	b.n	24ce <Chip_SetupFROClocking+0x5a>
    24cc:	bf00      	nop
    24ce:	3708      	adds	r7, #8
    24d0:	46bd      	mov	sp, r7
    24d2:	bd80      	pop	{r7, pc}
    24d4:	00b71b00 	.word	0x00b71b00
    24d8:	02dc6c00 	.word	0x02dc6c00
    24dc:	05b8d800 	.word	0x05b8d800

000024e0 <Chip_TIMER_Reset>:
    24e0:	b480      	push	{r7}
    24e2:	b085      	sub	sp, #20
    24e4:	af00      	add	r7, sp, #0
    24e6:	6078      	str	r0, [r7, #4]
    24e8:	687b      	ldr	r3, [r7, #4]
    24ea:	685b      	ldr	r3, [r3, #4]
    24ec:	60fb      	str	r3, [r7, #12]
    24ee:	687b      	ldr	r3, [r7, #4]
    24f0:	2200      	movs	r2, #0
    24f2:	605a      	str	r2, [r3, #4]
    24f4:	687b      	ldr	r3, [r7, #4]
    24f6:	2201      	movs	r2, #1
    24f8:	609a      	str	r2, [r3, #8]
    24fa:	687b      	ldr	r3, [r7, #4]
    24fc:	2202      	movs	r2, #2
    24fe:	605a      	str	r2, [r3, #4]
    2500:	bf00      	nop
    2502:	687b      	ldr	r3, [r7, #4]
    2504:	689b      	ldr	r3, [r3, #8]
    2506:	2b00      	cmp	r3, #0
    2508:	d1fb      	bne.n	2502 <Chip_TIMER_Reset+0x22>
    250a:	687b      	ldr	r3, [r7, #4]
    250c:	68fa      	ldr	r2, [r7, #12]
    250e:	605a      	str	r2, [r3, #4]
    2510:	bf00      	nop
    2512:	3714      	adds	r7, #20
    2514:	46bd      	mov	sp, r7
    2516:	f85d 7b04 	ldr.w	r7, [sp], #4
    251a:	4770      	bx	lr

0000251c <Chip_SYSCON_SetUSARTFRGCtrl>:
    251c:	b480      	push	{r7}
    251e:	b083      	sub	sp, #12
    2520:	af00      	add	r7, sp, #0
    2522:	4603      	mov	r3, r0
    2524:	460a      	mov	r2, r1
    2526:	71fb      	strb	r3, [r7, #7]
    2528:	4613      	mov	r3, r2
    252a:	71bb      	strb	r3, [r7, #6]
    252c:	f04f 4180 	mov.w	r1, #1073741824	; 0x40000000
    2530:	79fb      	ldrb	r3, [r7, #7]
    2532:	021a      	lsls	r2, r3, #8
    2534:	79bb      	ldrb	r3, [r7, #6]
    2536:	4313      	orrs	r3, r2
    2538:	f8c1 33a0 	str.w	r3, [r1, #928]	; 0x3a0
    253c:	bf00      	nop
    253e:	370c      	adds	r7, #12
    2540:	46bd      	mov	sp, r7
    2542:	f85d 7b04 	ldr.w	r7, [sp], #4
    2546:	4770      	bx	lr

00002548 <Chip_Clock_SetFLEXCOMMClockSource>:
    2548:	b480      	push	{r7}
    254a:	b083      	sub	sp, #12
    254c:	af00      	add	r7, sp, #0
    254e:	6078      	str	r0, [r7, #4]
    2550:	460b      	mov	r3, r1
    2552:	70fb      	strb	r3, [r7, #3]
    2554:	f04f 4180 	mov.w	r1, #1073741824	; 0x40000000
    2558:	78fa      	ldrb	r2, [r7, #3]
    255a:	687b      	ldr	r3, [r7, #4]
    255c:	33ac      	adds	r3, #172	; 0xac
    255e:	f841 2023 	str.w	r2, [r1, r3, lsl #2]
    2562:	bf00      	nop
    2564:	370c      	adds	r7, #12
    2566:	46bd      	mov	sp, r7
    2568:	f85d 7b04 	ldr.w	r7, [sp], #4
    256c:	4770      	bx	lr
    256e:	bf00      	nop

00002570 <Chip_Clock_SetFRGClockSource>:
    2570:	b480      	push	{r7}
    2572:	b083      	sub	sp, #12
    2574:	af00      	add	r7, sp, #0
    2576:	4603      	mov	r3, r0
    2578:	71fb      	strb	r3, [r7, #7]
    257a:	f04f 4280 	mov.w	r2, #1073741824	; 0x40000000
    257e:	79fb      	ldrb	r3, [r7, #7]
    2580:	f8c2 32e8 	str.w	r3, [r2, #744]	; 0x2e8
    2584:	bf00      	nop
    2586:	370c      	adds	r7, #12
    2588:	46bd      	mov	sp, r7
    258a:	f85d 7b04 	ldr.w	r7, [sp], #4
    258e:	4770      	bx	lr

00002590 <Chip_Clock_GetFRGClockSource>:
    2590:	b480      	push	{r7}
    2592:	af00      	add	r7, sp, #0
    2594:	f04f 4380 	mov.w	r3, #1073741824	; 0x40000000
    2598:	f8d3 32e8 	ldr.w	r3, [r3, #744]	; 0x2e8
    259c:	b2db      	uxtb	r3, r3
    259e:	f003 0307 	and.w	r3, r3, #7
    25a2:	b2db      	uxtb	r3, r3
    25a4:	4618      	mov	r0, r3
    25a6:	46bd      	mov	sp, r7
    25a8:	f85d 7b04 	ldr.w	r7, [sp], #4
    25ac:	4770      	bx	lr
    25ae:	bf00      	nop

000025b0 <Chip_UART_SendByte>:
    25b0:	b480      	push	{r7}
    25b2:	b083      	sub	sp, #12
    25b4:	af00      	add	r7, sp, #0
    25b6:	6078      	str	r0, [r7, #4]
    25b8:	460b      	mov	r3, r1
    25ba:	70fb      	strb	r3, [r7, #3]
    25bc:	78fa      	ldrb	r2, [r7, #3]
    25be:	687b      	ldr	r3, [r7, #4]
    25c0:	f8c3 2e20 	str.w	r2, [r3, #3616]	; 0xe20
    25c4:	bf00      	nop
    25c6:	370c      	adds	r7, #12
    25c8:	46bd      	mov	sp, r7
    25ca:	f85d 7b04 	ldr.w	r7, [sp], #4
    25ce:	4770      	bx	lr

000025d0 <Chip_UART_GetFIFOStatus>:
    25d0:	b480      	push	{r7}
    25d2:	b083      	sub	sp, #12
    25d4:	af00      	add	r7, sp, #0
    25d6:	6078      	str	r0, [r7, #4]
    25d8:	687b      	ldr	r3, [r7, #4]
    25da:	f8d3 3e04 	ldr.w	r3, [r3, #3588]	; 0xe04
    25de:	4618      	mov	r0, r3
    25e0:	370c      	adds	r7, #12
    25e2:	46bd      	mov	sp, r7
    25e4:	f85d 7b04 	ldr.w	r7, [sp], #4
    25e8:	4770      	bx	lr
    25ea:	bf00      	nop

000025ec <Chip_UART_SetFIFOCfg>:
    25ec:	b480      	push	{r7}
    25ee:	b083      	sub	sp, #12
    25f0:	af00      	add	r7, sp, #0
    25f2:	6078      	str	r0, [r7, #4]
    25f4:	6039      	str	r1, [r7, #0]
    25f6:	687b      	ldr	r3, [r7, #4]
    25f8:	f8d3 2e00 	ldr.w	r2, [r3, #3584]	; 0xe00
    25fc:	4b06      	ldr	r3, [pc, #24]	; (2618 <Chip_UART_SetFIFOCfg+0x2c>)
    25fe:	4013      	ands	r3, r2
    2600:	683a      	ldr	r2, [r7, #0]
    2602:	431a      	orrs	r2, r3
    2604:	687b      	ldr	r3, [r7, #4]
    2606:	f8c3 2e00 	str.w	r2, [r3, #3584]	; 0xe00
    260a:	bf00      	nop
    260c:	370c      	adds	r7, #12
    260e:	46bd      	mov	sp, r7
    2610:	f85d 7b04 	ldr.w	r7, [sp], #4
    2614:	4770      	bx	lr
    2616:	bf00      	nop
    2618:	0007f033 	.word	0x0007f033

0000261c <Chip_UART_FlushFIFOs>:
    261c:	b580      	push	{r7, lr}
    261e:	b082      	sub	sp, #8
    2620:	af00      	add	r7, sp, #0
    2622:	6078      	str	r0, [r7, #4]
    2624:	f44f 3140 	mov.w	r1, #196608	; 0x30000
    2628:	6878      	ldr	r0, [r7, #4]
    262a:	f7ff ffdf 	bl	25ec <Chip_UART_SetFIFOCfg>
    262e:	bf00      	nop
    2630:	3708      	adds	r7, #8
    2632:	46bd      	mov	sp, r7
    2634:	bd80      	pop	{r7, pc}
    2636:	bf00      	nop

00002638 <_UART_DivClk>:
    2638:	b480      	push	{r7}
    263a:	b087      	sub	sp, #28
    263c:	af00      	add	r7, sp, #0
    263e:	6078      	str	r0, [r7, #4]
    2640:	6039      	str	r1, [r7, #0]
    2642:	687b      	ldr	r3, [r7, #4]
    2644:	0e1b      	lsrs	r3, r3, #24
    2646:	617b      	str	r3, [r7, #20]
    2648:	687b      	ldr	r3, [r7, #4]
    264a:	021b      	lsls	r3, r3, #8
    264c:	613b      	str	r3, [r7, #16]
    264e:	683b      	ldr	r3, [r7, #0]
    2650:	f503 7380 	add.w	r3, r3, #256	; 0x100
    2654:	603b      	str	r3, [r7, #0]
    2656:	f04f 7280 	mov.w	r2, #16777216	; 0x1000000
    265a:	683b      	ldr	r3, [r7, #0]
    265c:	fbb2 f3f3 	udiv	r3, r2, r3
    2660:	60fb      	str	r3, [r7, #12]
    2662:	68fb      	ldr	r3, [r7, #12]
    2664:	683a      	ldr	r2, [r7, #0]
    2666:	fb02 f303 	mul.w	r3, r2, r3
    266a:	f1c3 7380 	rsb	r3, r3, #16777216	; 0x1000000
    266e:	60bb      	str	r3, [r7, #8]
    2670:	68fb      	ldr	r3, [r7, #12]
    2672:	697a      	ldr	r2, [r7, #20]
    2674:	fb02 f303 	mul.w	r3, r2, r3
    2678:	021a      	lsls	r2, r3, #8
    267a:	68bb      	ldr	r3, [r7, #8]
    267c:	6979      	ldr	r1, [r7, #20]
    267e:	fb01 f303 	mul.w	r3, r1, r3
    2682:	0219      	lsls	r1, r3, #8
    2684:	693b      	ldr	r3, [r7, #16]
    2686:	4419      	add	r1, r3
    2688:	683b      	ldr	r3, [r7, #0]
    268a:	fbb1 f3f3 	udiv	r3, r1, r3
    268e:	4413      	add	r3, r2
    2690:	4618      	mov	r0, r3
    2692:	371c      	adds	r7, #28
    2694:	46bd      	mov	sp, r7
    2696:	f85d 7b04 	ldr.w	r7, [sp], #4
    269a:	4770      	bx	lr

0000269c <_UART_GetHighDiv>:
    269c:	b480      	push	{r7}
    269e:	b085      	sub	sp, #20
    26a0:	af00      	add	r7, sp, #0
    26a2:	6078      	str	r0, [r7, #4]
    26a4:	460b      	mov	r3, r1
    26a6:	70fb      	strb	r3, [r7, #3]
    26a8:	78fb      	ldrb	r3, [r7, #3]
    26aa:	2b00      	cmp	r3, #0
    26ac:	d001      	beq.n	26b2 <_UART_GetHighDiv+0x16>
    26ae:	2310      	movs	r3, #16
    26b0:	e000      	b.n	26b4 <_UART_GetHighDiv+0x18>
    26b2:	2305      	movs	r3, #5
    26b4:	60bb      	str	r3, [r7, #8]
    26b6:	2310      	movs	r3, #16
    26b8:	60fb      	str	r3, [r7, #12]
    26ba:	e00d      	b.n	26d8 <_UART_GetHighDiv+0x3c>
    26bc:	68fa      	ldr	r2, [r7, #12]
    26be:	687b      	ldr	r3, [r7, #4]
    26c0:	fbb3 f1f2 	udiv	r1, r3, r2
    26c4:	fb02 f201 	mul.w	r2, r2, r1
    26c8:	1a9b      	subs	r3, r3, r2
    26ca:	2b00      	cmp	r3, #0
    26cc:	d101      	bne.n	26d2 <_UART_GetHighDiv+0x36>
    26ce:	68fb      	ldr	r3, [r7, #12]
    26d0:	e007      	b.n	26e2 <_UART_GetHighDiv+0x46>
    26d2:	68fb      	ldr	r3, [r7, #12]
    26d4:	3b01      	subs	r3, #1
    26d6:	60fb      	str	r3, [r7, #12]
    26d8:	68fa      	ldr	r2, [r7, #12]
    26da:	68bb      	ldr	r3, [r7, #8]
    26dc:	429a      	cmp	r2, r3
    26de:	daed      	bge.n	26bc <_UART_GetHighDiv+0x20>
    26e0:	2300      	movs	r3, #0
    26e2:	4618      	mov	r0, r3
    26e4:	3714      	adds	r7, #20
    26e6:	46bd      	mov	sp, r7
    26e8:	f85d 7b04 	ldr.w	r7, [sp], #4
    26ec:	4770      	bx	lr
    26ee:	bf00      	nop

000026f0 <_CalcErr>:
    26f0:	b480      	push	{r7}
    26f2:	b087      	sub	sp, #28
    26f4:	af00      	add	r7, sp, #0
    26f6:	60f8      	str	r0, [r7, #12]
    26f8:	60b9      	str	r1, [r7, #8]
    26fa:	607a      	str	r2, [r7, #4]
    26fc:	68fb      	ldr	r3, [r7, #12]
    26fe:	68ba      	ldr	r2, [r7, #8]
    2700:	fbb3 f2f2 	udiv	r2, r3, r2
    2704:	68b9      	ldr	r1, [r7, #8]
    2706:	fb01 f202 	mul.w	r2, r1, r2
    270a:	1a9b      	subs	r3, r3, r2
    270c:	617b      	str	r3, [r7, #20]
    270e:	68fa      	ldr	r2, [r7, #12]
    2710:	68bb      	ldr	r3, [r7, #8]
    2712:	fbb2 f3f3 	udiv	r3, r2, r3
    2716:	3301      	adds	r3, #1
    2718:	68ba      	ldr	r2, [r7, #8]
    271a:	fb02 f203 	mul.w	r2, r2, r3
    271e:	68fb      	ldr	r3, [r7, #12]
    2720:	1ad3      	subs	r3, r2, r3
    2722:	613b      	str	r3, [r7, #16]
    2724:	693a      	ldr	r2, [r7, #16]
    2726:	697b      	ldr	r3, [r7, #20]
    2728:	429a      	cmp	r2, r3
    272a:	d201      	bcs.n	2730 <_CalcErr+0x40>
    272c:	693b      	ldr	r3, [r7, #16]
    272e:	617b      	str	r3, [r7, #20]
    2730:	687b      	ldr	r3, [r7, #4]
    2732:	681a      	ldr	r2, [r3, #0]
    2734:	697b      	ldr	r3, [r7, #20]
    2736:	429a      	cmp	r2, r3
    2738:	d801      	bhi.n	273e <_CalcErr+0x4e>
    273a:	2300      	movs	r3, #0
    273c:	e00a      	b.n	2754 <_CalcErr+0x64>
    273e:	687b      	ldr	r3, [r7, #4]
    2740:	697a      	ldr	r2, [r7, #20]
    2742:	601a      	str	r2, [r3, #0]
    2744:	693a      	ldr	r2, [r7, #16]
    2746:	697b      	ldr	r3, [r7, #20]
    2748:	429a      	cmp	r2, r3
    274a:	d101      	bne.n	2750 <_CalcErr+0x60>
    274c:	2302      	movs	r3, #2
    274e:	e000      	b.n	2752 <_CalcErr+0x62>
    2750:	2301      	movs	r3, #1
    2752:	bf00      	nop
    2754:	4618      	mov	r0, r3
    2756:	371c      	adds	r7, #28
    2758:	46bd      	mov	sp, r7
    275a:	f85d 7b04 	ldr.w	r7, [sp], #4
    275e:	4770      	bx	lr

00002760 <_UART_CalcDiv>:
    2760:	b580      	push	{r7, lr}
    2762:	b086      	sub	sp, #24
    2764:	af00      	add	r7, sp, #0
    2766:	6078      	str	r0, [r7, #4]
    2768:	2300      	movs	r3, #0
    276a:	617b      	str	r3, [r7, #20]
    276c:	f04f 33ff 	mov.w	r3, #4294967295
    2770:	60fb      	str	r3, [r7, #12]
    2772:	687b      	ldr	r3, [r7, #4]
    2774:	895b      	ldrh	r3, [r3, #10]
    2776:	2b00      	cmp	r3, #0
    2778:	d12e      	bne.n	27d8 <_UART_CalcDiv+0x78>
    277a:	687b      	ldr	r3, [r7, #4]
    277c:	7a1b      	ldrb	r3, [r3, #8]
    277e:	2b00      	cmp	r3, #0
    2780:	d002      	beq.n	2788 <_UART_CalcDiv+0x28>
    2782:	687b      	ldr	r3, [r7, #4]
    2784:	7a1b      	ldrb	r3, [r3, #8]
    2786:	e000      	b.n	278a <_UART_CalcDiv+0x2a>
    2788:	2310      	movs	r3, #16
    278a:	617b      	str	r3, [r7, #20]
    278c:	e024      	b.n	27d8 <_UART_CalcDiv+0x78>
    278e:	687b      	ldr	r3, [r7, #4]
    2790:	6818      	ldr	r0, [r3, #0]
    2792:	687b      	ldr	r3, [r7, #4]
    2794:	685b      	ldr	r3, [r3, #4]
    2796:	697a      	ldr	r2, [r7, #20]
    2798:	fb02 f303 	mul.w	r3, r2, r3
    279c:	f107 020c 	add.w	r2, r7, #12
    27a0:	4619      	mov	r1, r3
    27a2:	f7ff ffa5 	bl	26f0 <_CalcErr>
    27a6:	6138      	str	r0, [r7, #16]
    27a8:	693b      	ldr	r3, [r7, #16]
    27aa:	2b00      	cmp	r3, #0
    27ac:	d010      	beq.n	27d0 <_UART_CalcDiv+0x70>
    27ae:	693b      	ldr	r3, [r7, #16]
    27b0:	b29b      	uxth	r3, r3
    27b2:	3b01      	subs	r3, #1
    27b4:	b29a      	uxth	r2, r3
    27b6:	687b      	ldr	r3, [r7, #4]
    27b8:	815a      	strh	r2, [r3, #10]
    27ba:	687b      	ldr	r3, [r7, #4]
    27bc:	7a1b      	ldrb	r3, [r3, #8]
    27be:	461a      	mov	r2, r3
    27c0:	697b      	ldr	r3, [r7, #20]
    27c2:	429a      	cmp	r2, r3
    27c4:	d00c      	beq.n	27e0 <_UART_CalcDiv+0x80>
    27c6:	697b      	ldr	r3, [r7, #20]
    27c8:	b2da      	uxtb	r2, r3
    27ca:	687b      	ldr	r3, [r7, #4]
    27cc:	721a      	strb	r2, [r3, #8]
    27ce:	e000      	b.n	27d2 <_UART_CalcDiv+0x72>
    27d0:	bf00      	nop
    27d2:	697b      	ldr	r3, [r7, #20]
    27d4:	3b01      	subs	r3, #1
    27d6:	617b      	str	r3, [r7, #20]
    27d8:	697b      	ldr	r3, [r7, #20]
    27da:	2b04      	cmp	r3, #4
    27dc:	dcd7      	bgt.n	278e <_UART_CalcDiv+0x2e>
    27de:	e000      	b.n	27e2 <_UART_CalcDiv+0x82>
    27e0:	bf00      	nop
    27e2:	687b      	ldr	r3, [r7, #4]
    27e4:	7a1b      	ldrb	r3, [r3, #8]
    27e6:	2b00      	cmp	r3, #0
    27e8:	d101      	bne.n	27ee <_UART_CalcDiv+0x8e>
    27ea:	4b15      	ldr	r3, [pc, #84]	; (2840 <_UART_CalcDiv+0xe0>)
    27ec:	e024      	b.n	2838 <_UART_CalcDiv+0xd8>
    27ee:	687b      	ldr	r3, [r7, #4]
    27f0:	895a      	ldrh	r2, [r3, #10]
    27f2:	687b      	ldr	r3, [r7, #4]
    27f4:	6819      	ldr	r1, [r3, #0]
    27f6:	687b      	ldr	r3, [r7, #4]
    27f8:	685b      	ldr	r3, [r3, #4]
    27fa:	6878      	ldr	r0, [r7, #4]
    27fc:	7a00      	ldrb	r0, [r0, #8]
    27fe:	fb00 f303 	mul.w	r3, r0, r3
    2802:	fbb1 f3f3 	udiv	r3, r1, r3
    2806:	b29b      	uxth	r3, r3
    2808:	4413      	add	r3, r2
    280a:	b29a      	uxth	r2, r3
    280c:	687b      	ldr	r3, [r7, #4]
    280e:	815a      	strh	r2, [r3, #10]
    2810:	687b      	ldr	r3, [r7, #4]
    2812:	895b      	ldrh	r3, [r3, #10]
    2814:	2b00      	cmp	r3, #0
    2816:	d101      	bne.n	281c <_UART_CalcDiv+0xbc>
    2818:	4b09      	ldr	r3, [pc, #36]	; (2840 <_UART_CalcDiv+0xe0>)
    281a:	e00d      	b.n	2838 <_UART_CalcDiv+0xd8>
    281c:	687b      	ldr	r3, [r7, #4]
    281e:	681b      	ldr	r3, [r3, #0]
    2820:	687a      	ldr	r2, [r7, #4]
    2822:	8952      	ldrh	r2, [r2, #10]
    2824:	4611      	mov	r1, r2
    2826:	687a      	ldr	r2, [r7, #4]
    2828:	7a12      	ldrb	r2, [r2, #8]
    282a:	fb02 f201 	mul.w	r2, r2, r1
    282e:	fbb3 f2f2 	udiv	r2, r3, r2
    2832:	687b      	ldr	r3, [r7, #4]
    2834:	605a      	str	r2, [r3, #4]
    2836:	2300      	movs	r3, #0
    2838:	4618      	mov	r0, r3
    283a:	3718      	adds	r7, #24
    283c:	46bd      	mov	sp, r7
    283e:	bd80      	pop	{r7, pc}
    2840:	00080006 	.word	0x00080006

00002844 <_UART_CalcMul>:
    2844:	b580      	push	{r7, lr}
    2846:	b08a      	sub	sp, #40	; 0x28
    2848:	af00      	add	r7, sp, #0
    284a:	6078      	str	r0, [r7, #4]
    284c:	f04f 33ff 	mov.w	r3, #4294967295
    2850:	60bb      	str	r3, [r7, #8]
    2852:	687b      	ldr	r3, [r7, #4]
    2854:	681b      	ldr	r3, [r3, #0]
    2856:	61fb      	str	r3, [r7, #28]
    2858:	687b      	ldr	r3, [r7, #4]
    285a:	7a1b      	ldrb	r3, [r3, #8]
    285c:	61bb      	str	r3, [r7, #24]
    285e:	2300      	movs	r3, #0
    2860:	627b      	str	r3, [r7, #36]	; 0x24
    2862:	e04c      	b.n	28fe <_UART_CalcMul+0xba>
    2864:	69bb      	ldr	r3, [r7, #24]
    2866:	623b      	str	r3, [r7, #32]
    2868:	6a79      	ldr	r1, [r7, #36]	; 0x24
    286a:	69f8      	ldr	r0, [r7, #28]
    286c:	f7ff fee4 	bl	2638 <_UART_DivClk>
    2870:	6178      	str	r0, [r7, #20]
    2872:	687b      	ldr	r3, [r7, #4]
    2874:	685b      	ldr	r3, [r3, #4]
    2876:	f107 0208 	add.w	r2, r7, #8
    287a:	4619      	mov	r1, r3
    287c:	6978      	ldr	r0, [r7, #20]
    287e:	f7ff ff37 	bl	26f0 <_CalcErr>
    2882:	4603      	mov	r3, r0
    2884:	613b      	str	r3, [r7, #16]
    2886:	687b      	ldr	r3, [r7, #4]
    2888:	685b      	ldr	r3, [r3, #4]
    288a:	697a      	ldr	r2, [r7, #20]
    288c:	fbb2 f2f3 	udiv	r2, r2, r3
    2890:	693b      	ldr	r3, [r7, #16]
    2892:	4413      	add	r3, r2
    2894:	3b01      	subs	r3, #1
    2896:	60fb      	str	r3, [r7, #12]
    2898:	693b      	ldr	r3, [r7, #16]
    289a:	2b00      	cmp	r3, #0
    289c:	d02b      	beq.n	28f6 <_UART_CalcMul+0xb2>
    289e:	69bb      	ldr	r3, [r7, #24]
    28a0:	2b00      	cmp	r3, #0
    28a2:	d009      	beq.n	28b8 <_UART_CalcMul+0x74>
    28a4:	68fb      	ldr	r3, [r7, #12]
    28a6:	69ba      	ldr	r2, [r7, #24]
    28a8:	fbb3 f2f2 	udiv	r2, r3, r2
    28ac:	69b9      	ldr	r1, [r7, #24]
    28ae:	fb01 f202 	mul.w	r2, r1, r2
    28b2:	1a9b      	subs	r3, r3, r2
    28b4:	2b00      	cmp	r3, #0
    28b6:	d11e      	bne.n	28f6 <_UART_CalcMul+0xb2>
    28b8:	69bb      	ldr	r3, [r7, #24]
    28ba:	2b00      	cmp	r3, #0
    28bc:	d109      	bne.n	28d2 <_UART_CalcMul+0x8e>
    28be:	69bb      	ldr	r3, [r7, #24]
    28c0:	b2db      	uxtb	r3, r3
    28c2:	4619      	mov	r1, r3
    28c4:	68f8      	ldr	r0, [r7, #12]
    28c6:	f7ff fee9 	bl	269c <_UART_GetHighDiv>
    28ca:	6238      	str	r0, [r7, #32]
    28cc:	6a3b      	ldr	r3, [r7, #32]
    28ce:	2b00      	cmp	r3, #0
    28d0:	d011      	beq.n	28f6 <_UART_CalcMul+0xb2>
    28d2:	6a3b      	ldr	r3, [r7, #32]
    28d4:	b2da      	uxtb	r2, r3
    28d6:	687b      	ldr	r3, [r7, #4]
    28d8:	721a      	strb	r2, [r3, #8]
    28da:	6a7b      	ldr	r3, [r7, #36]	; 0x24
    28dc:	b2da      	uxtb	r2, r3
    28de:	687b      	ldr	r3, [r7, #4]
    28e0:	725a      	strb	r2, [r3, #9]
    28e2:	687b      	ldr	r3, [r7, #4]
    28e4:	697a      	ldr	r2, [r7, #20]
    28e6:	601a      	str	r2, [r3, #0]
    28e8:	693b      	ldr	r3, [r7, #16]
    28ea:	b29b      	uxth	r3, r3
    28ec:	3b01      	subs	r3, #1
    28ee:	b29a      	uxth	r2, r3
    28f0:	687b      	ldr	r3, [r7, #4]
    28f2:	815a      	strh	r2, [r3, #10]
    28f4:	e000      	b.n	28f8 <_UART_CalcMul+0xb4>
    28f6:	bf00      	nop
    28f8:	6a7b      	ldr	r3, [r7, #36]	; 0x24
    28fa:	3301      	adds	r3, #1
    28fc:	627b      	str	r3, [r7, #36]	; 0x24
    28fe:	6a7b      	ldr	r3, [r7, #36]	; 0x24
    2900:	2bff      	cmp	r3, #255	; 0xff
    2902:	d9af      	bls.n	2864 <_UART_CalcMul+0x20>
    2904:	bf00      	nop
    2906:	3728      	adds	r7, #40	; 0x28
    2908:	46bd      	mov	sp, r7
    290a:	bd80      	pop	{r7, pc}

0000290c <Chip_UART_Init>:
    290c:	b580      	push	{r7, lr}
    290e:	b084      	sub	sp, #16
    2910:	af00      	add	r7, sp, #0
    2912:	6078      	str	r0, [r7, #4]
    2914:	2101      	movs	r1, #1
    2916:	6878      	ldr	r0, [r7, #4]
    2918:	f000 f97e 	bl	2c18 <Chip_FLEXCOMM_Init>
    291c:	60f8      	str	r0, [r7, #12]
    291e:	68fb      	ldr	r3, [r7, #12]
    2920:	2b00      	cmp	r3, #0
    2922:	d107      	bne.n	2934 <Chip_UART_Init+0x28>
    2924:	2303      	movs	r3, #3
    2926:	4619      	mov	r1, r3
    2928:	6878      	ldr	r0, [r7, #4]
    292a:	f7ff fe5f 	bl	25ec <Chip_UART_SetFIFOCfg>
    292e:	6878      	ldr	r0, [r7, #4]
    2930:	f7ff fe74 	bl	261c <Chip_UART_FlushFIFOs>
    2934:	68fb      	ldr	r3, [r7, #12]
    2936:	4618      	mov	r0, r3
    2938:	3710      	adds	r7, #16
    293a:	46bd      	mov	sp, r7
    293c:	bd80      	pop	{r7, pc}
    293e:	bf00      	nop

00002940 <Chip_UART_Send>:
    2940:	b580      	push	{r7, lr}
    2942:	b086      	sub	sp, #24
    2944:	af00      	add	r7, sp, #0
    2946:	60f8      	str	r0, [r7, #12]
    2948:	60b9      	str	r1, [r7, #8]
    294a:	607a      	str	r2, [r7, #4]
    294c:	2300      	movs	r3, #0
    294e:	617b      	str	r3, [r7, #20]
    2950:	68bb      	ldr	r3, [r7, #8]
    2952:	613b      	str	r3, [r7, #16]
    2954:	e00b      	b.n	296e <Chip_UART_Send+0x2e>
    2956:	693b      	ldr	r3, [r7, #16]
    2958:	781b      	ldrb	r3, [r3, #0]
    295a:	4619      	mov	r1, r3
    295c:	68f8      	ldr	r0, [r7, #12]
    295e:	f7ff fe27 	bl	25b0 <Chip_UART_SendByte>
    2962:	693b      	ldr	r3, [r7, #16]
    2964:	3301      	adds	r3, #1
    2966:	613b      	str	r3, [r7, #16]
    2968:	697b      	ldr	r3, [r7, #20]
    296a:	3301      	adds	r3, #1
    296c:	617b      	str	r3, [r7, #20]
    296e:	697a      	ldr	r2, [r7, #20]
    2970:	687b      	ldr	r3, [r7, #4]
    2972:	429a      	cmp	r2, r3
    2974:	da07      	bge.n	2986 <Chip_UART_Send+0x46>
    2976:	68f8      	ldr	r0, [r7, #12]
    2978:	f7ff fe2a 	bl	25d0 <Chip_UART_GetFIFOStatus>
    297c:	4603      	mov	r3, r0
    297e:	f003 0320 	and.w	r3, r3, #32
    2982:	2b00      	cmp	r3, #0
    2984:	d1e7      	bne.n	2956 <Chip_UART_Send+0x16>
    2986:	697b      	ldr	r3, [r7, #20]
    2988:	4618      	mov	r0, r3
    298a:	3718      	adds	r7, #24
    298c:	46bd      	mov	sp, r7
    298e:	bd80      	pop	{r7, pc}

00002990 <Chip_UART_SendBlocking>:
    2990:	b580      	push	{r7, lr}
    2992:	b088      	sub	sp, #32
    2994:	af00      	add	r7, sp, #0
    2996:	60f8      	str	r0, [r7, #12]
    2998:	60b9      	str	r1, [r7, #8]
    299a:	607a      	str	r2, [r7, #4]
    299c:	2300      	movs	r3, #0
    299e:	61fb      	str	r3, [r7, #28]
    29a0:	68bb      	ldr	r3, [r7, #8]
    29a2:	61bb      	str	r3, [r7, #24]
    29a4:	e011      	b.n	29ca <Chip_UART_SendBlocking+0x3a>
    29a6:	687a      	ldr	r2, [r7, #4]
    29a8:	69b9      	ldr	r1, [r7, #24]
    29aa:	68f8      	ldr	r0, [r7, #12]
    29ac:	f7ff ffc8 	bl	2940 <Chip_UART_Send>
    29b0:	6178      	str	r0, [r7, #20]
    29b2:	687a      	ldr	r2, [r7, #4]
    29b4:	697b      	ldr	r3, [r7, #20]
    29b6:	1ad3      	subs	r3, r2, r3
    29b8:	607b      	str	r3, [r7, #4]
    29ba:	69fa      	ldr	r2, [r7, #28]
    29bc:	697b      	ldr	r3, [r7, #20]
    29be:	4413      	add	r3, r2
    29c0:	61fb      	str	r3, [r7, #28]
    29c2:	697b      	ldr	r3, [r7, #20]
    29c4:	69ba      	ldr	r2, [r7, #24]
    29c6:	4413      	add	r3, r2
    29c8:	61bb      	str	r3, [r7, #24]
    29ca:	687b      	ldr	r3, [r7, #4]
    29cc:	2b00      	cmp	r3, #0
    29ce:	dcea      	bgt.n	29a6 <Chip_UART_SendBlocking+0x16>
    29d0:	69fb      	ldr	r3, [r7, #28]
    29d2:	4618      	mov	r0, r3
    29d4:	3720      	adds	r7, #32
    29d6:	46bd      	mov	sp, r7
    29d8:	bd80      	pop	{r7, pc}
    29da:	bf00      	nop

000029dc <Chip_UART_CalculateBaud>:
    29dc:	b580      	push	{r7, lr}
    29de:	b082      	sub	sp, #8
    29e0:	af00      	add	r7, sp, #0
    29e2:	6078      	str	r0, [r7, #4]
    29e4:	687b      	ldr	r3, [r7, #4]
    29e6:	7a5b      	ldrb	r3, [r3, #9]
    29e8:	2b00      	cmp	r3, #0
    29ea:	d102      	bne.n	29f2 <Chip_UART_CalculateBaud+0x16>
    29ec:	6878      	ldr	r0, [r7, #4]
    29ee:	f7ff ff29 	bl	2844 <_UART_CalcMul>
    29f2:	6878      	ldr	r0, [r7, #4]
    29f4:	f7ff feb4 	bl	2760 <_UART_CalcDiv>
    29f8:	4603      	mov	r3, r0
    29fa:	4618      	mov	r0, r3
    29fc:	3708      	adds	r7, #8
    29fe:	46bd      	mov	sp, r7
    2a00:	bd80      	pop	{r7, pc}
    2a02:	bf00      	nop

00002a04 <Chip_UART_SetBaud>:
    2a04:	b580      	push	{r7, lr}
    2a06:	b086      	sub	sp, #24
    2a08:	af00      	add	r7, sp, #0
    2a0a:	6078      	str	r0, [r7, #4]
    2a0c:	6039      	str	r1, [r7, #0]
    2a0e:	6878      	ldr	r0, [r7, #4]
    2a10:	f000 f8b4 	bl	2b7c <Chip_FLEXCOMM_GetIndex>
    2a14:	6178      	str	r0, [r7, #20]
    2a16:	697b      	ldr	r3, [r7, #20]
    2a18:	2b00      	cmp	r3, #0
    2a1a:	da01      	bge.n	2a20 <Chip_UART_SetBaud+0x1c>
    2a1c:	697b      	ldr	r3, [r7, #20]
    2a1e:	e034      	b.n	2a8a <Chip_UART_SetBaud+0x86>
    2a20:	f7ff fdb6 	bl	2590 <Chip_Clock_GetFRGClockSource>
    2a24:	4603      	mov	r3, r0
    2a26:	2b07      	cmp	r3, #7
    2a28:	d102      	bne.n	2a30 <Chip_UART_SetBaud+0x2c>
    2a2a:	2002      	movs	r0, #2
    2a2c:	f7ff fda0 	bl	2570 <Chip_Clock_SetFRGClockSource>
    2a30:	683b      	ldr	r3, [r7, #0]
    2a32:	60fb      	str	r3, [r7, #12]
    2a34:	f7ff f912 	bl	1c5c <Chip_Clock_GetFRGInClockRate>
    2a38:	4603      	mov	r3, r0
    2a3a:	60bb      	str	r3, [r7, #8]
    2a3c:	2300      	movs	r3, #0
    2a3e:	743b      	strb	r3, [r7, #16]
    2a40:	7c3b      	ldrb	r3, [r7, #16]
    2a42:	747b      	strb	r3, [r7, #17]
    2a44:	7c7b      	ldrb	r3, [r7, #17]
    2a46:	b29b      	uxth	r3, r3
    2a48:	827b      	strh	r3, [r7, #18]
    2a4a:	f107 0308 	add.w	r3, r7, #8
    2a4e:	4618      	mov	r0, r3
    2a50:	f7ff ffc4 	bl	29dc <Chip_UART_CalculateBaud>
    2a54:	4603      	mov	r3, r0
    2a56:	2b00      	cmp	r3, #0
    2a58:	d001      	beq.n	2a5e <Chip_UART_SetBaud+0x5a>
    2a5a:	2300      	movs	r3, #0
    2a5c:	e015      	b.n	2a8a <Chip_UART_SetBaud+0x86>
    2a5e:	7c3b      	ldrb	r3, [r7, #16]
    2a60:	3b01      	subs	r3, #1
    2a62:	f003 020f 	and.w	r2, r3, #15
    2a66:	687b      	ldr	r3, [r7, #4]
    2a68:	629a      	str	r2, [r3, #40]	; 0x28
    2a6a:	8a7b      	ldrh	r3, [r7, #18]
    2a6c:	3b01      	subs	r3, #1
    2a6e:	b29a      	uxth	r2, r3
    2a70:	687b      	ldr	r3, [r7, #4]
    2a72:	621a      	str	r2, [r3, #32]
    2a74:	7c7b      	ldrb	r3, [r7, #17]
    2a76:	21ff      	movs	r1, #255	; 0xff
    2a78:	4618      	mov	r0, r3
    2a7a:	f7ff fd4f 	bl	251c <Chip_SYSCON_SetUSARTFRGCtrl>
    2a7e:	697b      	ldr	r3, [r7, #20]
    2a80:	2104      	movs	r1, #4
    2a82:	4618      	mov	r0, r3
    2a84:	f7ff fd60 	bl	2548 <Chip_Clock_SetFLEXCOMMClockSource>
    2a88:	68fb      	ldr	r3, [r7, #12]
    2a8a:	4618      	mov	r0, r3
    2a8c:	3718      	adds	r7, #24
    2a8e:	46bd      	mov	sp, r7
    2a90:	bd80      	pop	{r7, pc}
    2a92:	bf00      	nop

00002a94 <Chip_SYSCON_PeriphReset>:
    2a94:	b480      	push	{r7}
    2a96:	b085      	sub	sp, #20
    2a98:	af00      	add	r7, sp, #0
    2a9a:	4603      	mov	r3, r0
    2a9c:	71fb      	strb	r3, [r7, #7]
    2a9e:	79fb      	ldrb	r3, [r7, #7]
    2aa0:	60fb      	str	r3, [r7, #12]
    2aa2:	68fb      	ldr	r3, [r7, #12]
    2aa4:	2b7f      	cmp	r3, #127	; 0x7f
    2aa6:	d80d      	bhi.n	2ac4 <Chip_SYSCON_PeriphReset+0x30>
    2aa8:	f04f 4180 	mov.w	r1, #1073741824	; 0x40000000
    2aac:	68fb      	ldr	r3, [r7, #12]
    2aae:	095b      	lsrs	r3, r3, #5
    2ab0:	68fa      	ldr	r2, [r7, #12]
    2ab2:	f002 021f 	and.w	r2, r2, #31
    2ab6:	2001      	movs	r0, #1
    2ab8:	fa00 f202 	lsl.w	r2, r0, r2
    2abc:	3348      	adds	r3, #72	; 0x48
    2abe:	f841 2023 	str.w	r2, [r1, r3, lsl #2]
    2ac2:	e006      	b.n	2ad2 <Chip_SYSCON_PeriphReset+0x3e>
    2ac4:	4a14      	ldr	r2, [pc, #80]	; (2b18 <Chip_SYSCON_PeriphReset+0x84>)
    2ac6:	68fb      	ldr	r3, [r7, #12]
    2ac8:	3b80      	subs	r3, #128	; 0x80
    2aca:	2101      	movs	r1, #1
    2acc:	fa01 f303 	lsl.w	r3, r1, r3
    2ad0:	6053      	str	r3, [r2, #4]
    2ad2:	bf00      	nop
    2ad4:	bf00      	nop
    2ad6:	bf00      	nop
    2ad8:	bf00      	nop
    2ada:	68fb      	ldr	r3, [r7, #12]
    2adc:	2b7f      	cmp	r3, #127	; 0x7f
    2ade:	d80d      	bhi.n	2afc <Chip_SYSCON_PeriphReset+0x68>
    2ae0:	f04f 4180 	mov.w	r1, #1073741824	; 0x40000000
    2ae4:	68fb      	ldr	r3, [r7, #12]
    2ae6:	095b      	lsrs	r3, r3, #5
    2ae8:	68fa      	ldr	r2, [r7, #12]
    2aea:	f002 021f 	and.w	r2, r2, #31
    2aee:	2001      	movs	r0, #1
    2af0:	fa00 f202 	lsl.w	r2, r0, r2
    2af4:	3350      	adds	r3, #80	; 0x50
    2af6:	f841 2023 	str.w	r2, [r1, r3, lsl #2]
    2afa:	e006      	b.n	2b0a <Chip_SYSCON_PeriphReset+0x76>
    2afc:	4a06      	ldr	r2, [pc, #24]	; (2b18 <Chip_SYSCON_PeriphReset+0x84>)
    2afe:	68fb      	ldr	r3, [r7, #12]
    2b00:	3b80      	subs	r3, #128	; 0x80
    2b02:	2101      	movs	r1, #1
    2b04:	fa01 f303 	lsl.w	r3, r1, r3
    2b08:	6093      	str	r3, [r2, #8]
    2b0a:	bf00      	nop
    2b0c:	3714      	adds	r7, #20
    2b0e:	46bd      	mov	sp, r7
    2b10:	f85d 7b04 	ldr.w	r7, [sp], #4
    2b14:	4770      	bx	lr
    2b16:	bf00      	nop
    2b18:	40040000 	.word	0x40040000

00002b1c <Chip_SYSCON_EnableWakeup>:
    2b1c:	b480      	push	{r7}
    2b1e:	b083      	sub	sp, #12
    2b20:	af00      	add	r7, sp, #0
    2b22:	4603      	mov	r3, r0
    2b24:	71fb      	strb	r3, [r7, #7]
    2b26:	f04f 4280 	mov.w	r2, #1073741824	; 0x40000000
    2b2a:	79fb      	ldrb	r3, [r7, #7]
    2b2c:	095b      	lsrs	r3, r3, #5
    2b2e:	b2db      	uxtb	r3, r3
    2b30:	4618      	mov	r0, r3
    2b32:	79fb      	ldrb	r3, [r7, #7]
    2b34:	f003 031f 	and.w	r3, r3, #31
    2b38:	2101      	movs	r1, #1
    2b3a:	fa01 f303 	lsl.w	r3, r1, r3
    2b3e:	4619      	mov	r1, r3
    2b40:	f500 73d4 	add.w	r3, r0, #424	; 0x1a8
    2b44:	f842 1023 	str.w	r1, [r2, r3, lsl #2]
    2b48:	bf00      	nop
    2b4a:	370c      	adds	r7, #12
    2b4c:	46bd      	mov	sp, r7
    2b4e:	f85d 7b04 	ldr.w	r7, [sp], #4
    2b52:	4770      	bx	lr

00002b54 <Chip_Clock_SetFLEXCOMMClockSource>:
    2b54:	b480      	push	{r7}
    2b56:	b083      	sub	sp, #12
    2b58:	af00      	add	r7, sp, #0
    2b5a:	6078      	str	r0, [r7, #4]
    2b5c:	460b      	mov	r3, r1
    2b5e:	70fb      	strb	r3, [r7, #3]
    2b60:	f04f 4180 	mov.w	r1, #1073741824	; 0x40000000
    2b64:	78fa      	ldrb	r2, [r7, #3]
    2b66:	687b      	ldr	r3, [r7, #4]
    2b68:	33ac      	adds	r3, #172	; 0xac
    2b6a:	f841 2023 	str.w	r2, [r1, r3, lsl #2]
    2b6e:	bf00      	nop
    2b70:	370c      	adds	r7, #12
    2b72:	46bd      	mov	sp, r7
    2b74:	f85d 7b04 	ldr.w	r7, [sp], #4
    2b78:	4770      	bx	lr
    2b7a:	bf00      	nop

00002b7c <Chip_FLEXCOMM_GetIndex>:
    2b7c:	b480      	push	{r7}
    2b7e:	b083      	sub	sp, #12
    2b80:	af00      	add	r7, sp, #0
    2b82:	6078      	str	r0, [r7, #4]
    2b84:	687b      	ldr	r3, [r7, #4]
    2b86:	4a1c      	ldr	r2, [pc, #112]	; (2bf8 <Chip_FLEXCOMM_GetIndex+0x7c>)
    2b88:	4293      	cmp	r3, r2
    2b8a:	d023      	beq.n	2bd4 <Chip_FLEXCOMM_GetIndex+0x58>
    2b8c:	4a1a      	ldr	r2, [pc, #104]	; (2bf8 <Chip_FLEXCOMM_GetIndex+0x7c>)
    2b8e:	4293      	cmp	r3, r2
    2b90:	d809      	bhi.n	2ba6 <Chip_FLEXCOMM_GetIndex+0x2a>
    2b92:	4a1a      	ldr	r2, [pc, #104]	; (2bfc <Chip_FLEXCOMM_GetIndex+0x80>)
    2b94:	4293      	cmp	r3, r2
    2b96:	d019      	beq.n	2bcc <Chip_FLEXCOMM_GetIndex+0x50>
    2b98:	4a19      	ldr	r2, [pc, #100]	; (2c00 <Chip_FLEXCOMM_GetIndex+0x84>)
    2b9a:	4293      	cmp	r3, r2
    2b9c:	d018      	beq.n	2bd0 <Chip_FLEXCOMM_GetIndex+0x54>
    2b9e:	4a19      	ldr	r2, [pc, #100]	; (2c04 <Chip_FLEXCOMM_GetIndex+0x88>)
    2ba0:	4293      	cmp	r3, r2
    2ba2:	d011      	beq.n	2bc8 <Chip_FLEXCOMM_GetIndex+0x4c>
    2ba4:	e020      	b.n	2be8 <Chip_FLEXCOMM_GetIndex+0x6c>
    2ba6:	4a18      	ldr	r2, [pc, #96]	; (2c08 <Chip_FLEXCOMM_GetIndex+0x8c>)
    2ba8:	4293      	cmp	r3, r2
    2baa:	d017      	beq.n	2bdc <Chip_FLEXCOMM_GetIndex+0x60>
    2bac:	4a16      	ldr	r2, [pc, #88]	; (2c08 <Chip_FLEXCOMM_GetIndex+0x8c>)
    2bae:	4293      	cmp	r3, r2
    2bb0:	d803      	bhi.n	2bba <Chip_FLEXCOMM_GetIndex+0x3e>
    2bb2:	4a16      	ldr	r2, [pc, #88]	; (2c0c <Chip_FLEXCOMM_GetIndex+0x90>)
    2bb4:	4293      	cmp	r3, r2
    2bb6:	d00f      	beq.n	2bd8 <Chip_FLEXCOMM_GetIndex+0x5c>
    2bb8:	e016      	b.n	2be8 <Chip_FLEXCOMM_GetIndex+0x6c>
    2bba:	4a15      	ldr	r2, [pc, #84]	; (2c10 <Chip_FLEXCOMM_GetIndex+0x94>)
    2bbc:	4293      	cmp	r3, r2
    2bbe:	d00f      	beq.n	2be0 <Chip_FLEXCOMM_GetIndex+0x64>
    2bc0:	4a14      	ldr	r2, [pc, #80]	; (2c14 <Chip_FLEXCOMM_GetIndex+0x98>)
    2bc2:	4293      	cmp	r3, r2
    2bc4:	d00e      	beq.n	2be4 <Chip_FLEXCOMM_GetIndex+0x68>
    2bc6:	e00f      	b.n	2be8 <Chip_FLEXCOMM_GetIndex+0x6c>
    2bc8:	2300      	movs	r3, #0
    2bca:	e00f      	b.n	2bec <Chip_FLEXCOMM_GetIndex+0x70>
    2bcc:	2301      	movs	r3, #1
    2bce:	e00d      	b.n	2bec <Chip_FLEXCOMM_GetIndex+0x70>
    2bd0:	2302      	movs	r3, #2
    2bd2:	e00b      	b.n	2bec <Chip_FLEXCOMM_GetIndex+0x70>
    2bd4:	2303      	movs	r3, #3
    2bd6:	e009      	b.n	2bec <Chip_FLEXCOMM_GetIndex+0x70>
    2bd8:	2304      	movs	r3, #4
    2bda:	e007      	b.n	2bec <Chip_FLEXCOMM_GetIndex+0x70>
    2bdc:	2305      	movs	r3, #5
    2bde:	e005      	b.n	2bec <Chip_FLEXCOMM_GetIndex+0x70>
    2be0:	2306      	movs	r3, #6
    2be2:	e003      	b.n	2bec <Chip_FLEXCOMM_GetIndex+0x70>
    2be4:	2307      	movs	r3, #7
    2be6:	e001      	b.n	2bec <Chip_FLEXCOMM_GetIndex+0x70>
    2be8:	f06f 0302 	mvn.w	r3, #2
    2bec:	4618      	mov	r0, r3
    2bee:	370c      	adds	r7, #12
    2bf0:	46bd      	mov	sp, r7
    2bf2:	f85d 7b04 	ldr.w	r7, [sp], #4
    2bf6:	4770      	bx	lr
    2bf8:	40089000 	.word	0x40089000
    2bfc:	40087000 	.word	0x40087000
    2c00:	40088000 	.word	0x40088000
    2c04:	40086000 	.word	0x40086000
    2c08:	40096000 	.word	0x40096000
    2c0c:	4008a000 	.word	0x4008a000
    2c10:	40097000 	.word	0x40097000
    2c14:	40098000 	.word	0x40098000

00002c18 <Chip_FLEXCOMM_Init>:
    2c18:	b580      	push	{r7, lr}
    2c1a:	b084      	sub	sp, #16
    2c1c:	af00      	add	r7, sp, #0
    2c1e:	6078      	str	r0, [r7, #4]
    2c20:	460b      	mov	r3, r1
    2c22:	70fb      	strb	r3, [r7, #3]
    2c24:	6878      	ldr	r0, [r7, #4]
    2c26:	f7ff ffa9 	bl	2b7c <Chip_FLEXCOMM_GetIndex>
    2c2a:	60f8      	str	r0, [r7, #12]
    2c2c:	68fb      	ldr	r3, [r7, #12]
    2c2e:	2b00      	cmp	r3, #0
    2c30:	da01      	bge.n	2c36 <Chip_FLEXCOMM_Init+0x1e>
    2c32:	68fb      	ldr	r3, [r7, #12]
    2c34:	e026      	b.n	2c84 <Chip_FLEXCOMM_Init+0x6c>
    2c36:	68fb      	ldr	r3, [r7, #12]
    2c38:	b2db      	uxtb	r3, r3
    2c3a:	332b      	adds	r3, #43	; 0x2b
    2c3c:	b2db      	uxtb	r3, r3
    2c3e:	4618      	mov	r0, r3
    2c40:	f7fe ffb8 	bl	1bb4 <Chip_Clock_EnablePeriphClock>
    2c44:	68fb      	ldr	r3, [r7, #12]
    2c46:	b2db      	uxtb	r3, r3
    2c48:	332b      	adds	r3, #43	; 0x2b
    2c4a:	b2db      	uxtb	r3, r3
    2c4c:	4618      	mov	r0, r3
    2c4e:	f7ff ff21 	bl	2a94 <Chip_SYSCON_PeriphReset>
    2c52:	78fb      	ldrb	r3, [r7, #3]
    2c54:	2200      	movs	r2, #0
    2c56:	4619      	mov	r1, r3
    2c58:	6878      	ldr	r0, [r7, #4]
    2c5a:	f000 f817 	bl	2c8c <Chip_FLEXCOMM_SetPeriph>
    2c5e:	60b8      	str	r0, [r7, #8]
    2c60:	68bb      	ldr	r3, [r7, #8]
    2c62:	2b00      	cmp	r3, #0
    2c64:	d001      	beq.n	2c6a <Chip_FLEXCOMM_Init+0x52>
    2c66:	68bb      	ldr	r3, [r7, #8]
    2c68:	e00c      	b.n	2c84 <Chip_FLEXCOMM_Init+0x6c>
    2c6a:	68fb      	ldr	r3, [r7, #12]
    2c6c:	b2db      	uxtb	r3, r3
    2c6e:	330e      	adds	r3, #14
    2c70:	b2db      	uxtb	r3, r3
    2c72:	4618      	mov	r0, r3
    2c74:	f7ff ff52 	bl	2b1c <Chip_SYSCON_EnableWakeup>
    2c78:	68fb      	ldr	r3, [r7, #12]
    2c7a:	2100      	movs	r1, #0
    2c7c:	4618      	mov	r0, r3
    2c7e:	f7ff ff69 	bl	2b54 <Chip_Clock_SetFLEXCOMMClockSource>
    2c82:	2300      	movs	r3, #0
    2c84:	4618      	mov	r0, r3
    2c86:	3710      	adds	r7, #16
    2c88:	46bd      	mov	sp, r7
    2c8a:	bd80      	pop	{r7, pc}

00002c8c <Chip_FLEXCOMM_SetPeriph>:
    2c8c:	b480      	push	{r7}
    2c8e:	b087      	sub	sp, #28
    2c90:	af00      	add	r7, sp, #0
    2c92:	60f8      	str	r0, [r7, #12]
    2c94:	460b      	mov	r3, r1
    2c96:	607a      	str	r2, [r7, #4]
    2c98:	72fb      	strb	r3, [r7, #11]
    2c9a:	68fb      	ldr	r3, [r7, #12]
    2c9c:	f603 73f8 	addw	r3, r3, #4088	; 0xff8
    2ca0:	613b      	str	r3, [r7, #16]
    2ca2:	7afb      	ldrb	r3, [r7, #11]
    2ca4:	3b01      	subs	r3, #1
    2ca6:	617b      	str	r3, [r7, #20]
    2ca8:	7afb      	ldrb	r3, [r7, #11]
    2caa:	2b00      	cmp	r3, #0
    2cac:	d011      	beq.n	2cd2 <Chip_FLEXCOMM_SetPeriph+0x46>
    2cae:	697b      	ldr	r3, [r7, #20]
    2cb0:	2b04      	cmp	r3, #4
    2cb2:	d102      	bne.n	2cba <Chip_FLEXCOMM_SetPeriph+0x2e>
    2cb4:	697b      	ldr	r3, [r7, #20]
    2cb6:	3b01      	subs	r3, #1
    2cb8:	617b      	str	r3, [r7, #20]
    2cba:	693b      	ldr	r3, [r7, #16]
    2cbc:	681b      	ldr	r3, [r3, #0]
    2cbe:	2110      	movs	r1, #16
    2cc0:	697a      	ldr	r2, [r7, #20]
    2cc2:	fa01 f202 	lsl.w	r2, r1, r2
    2cc6:	4013      	ands	r3, r2
    2cc8:	2b00      	cmp	r3, #0
    2cca:	d102      	bne.n	2cd2 <Chip_FLEXCOMM_SetPeriph+0x46>
    2ccc:	f04f 33ff 	mov.w	r3, #4294967295
    2cd0:	e01d      	b.n	2d0e <Chip_FLEXCOMM_SetPeriph+0x82>
    2cd2:	693b      	ldr	r3, [r7, #16]
    2cd4:	681b      	ldr	r3, [r3, #0]
    2cd6:	f003 0308 	and.w	r3, r3, #8
    2cda:	2b00      	cmp	r3, #0
    2cdc:	d105      	bne.n	2cea <Chip_FLEXCOMM_SetPeriph+0x5e>
    2cde:	693b      	ldr	r3, [r7, #16]
    2ce0:	681b      	ldr	r3, [r3, #0]
    2ce2:	f003 0307 	and.w	r3, r3, #7
    2ce6:	2b00      	cmp	r3, #0
    2ce8:	d002      	beq.n	2cf0 <Chip_FLEXCOMM_SetPeriph+0x64>
    2cea:	f06f 0301 	mvn.w	r3, #1
    2cee:	e00e      	b.n	2d0e <Chip_FLEXCOMM_SetPeriph+0x82>
    2cf0:	687b      	ldr	r3, [r7, #4]
    2cf2:	2b00      	cmp	r3, #0
    2cf4:	d007      	beq.n	2d06 <Chip_FLEXCOMM_SetPeriph+0x7a>
    2cf6:	7afb      	ldrb	r3, [r7, #11]
    2cf8:	f043 0308 	orr.w	r3, r3, #8
    2cfc:	b2db      	uxtb	r3, r3
    2cfe:	461a      	mov	r2, r3
    2d00:	693b      	ldr	r3, [r7, #16]
    2d02:	601a      	str	r2, [r3, #0]
    2d04:	e002      	b.n	2d0c <Chip_FLEXCOMM_SetPeriph+0x80>
    2d06:	7afa      	ldrb	r2, [r7, #11]
    2d08:	693b      	ldr	r3, [r7, #16]
    2d0a:	601a      	str	r2, [r3, #0]
    2d0c:	2300      	movs	r3, #0
    2d0e:	4618      	mov	r0, r3
    2d10:	371c      	adds	r7, #28
    2d12:	46bd      	mov	sp, r7
    2d14:	f85d 7b04 	ldr.w	r7, [sp], #4
    2d18:	4770      	bx	lr
    2d1a:	bf00      	nop

00002d1c <arm_cfft_radix8by2_f32>:
    2d1c:	e92d 41f0 	stmdb	sp!, {r4, r5, r6, r7, r8, lr}
    2d20:	f8b0 c000 	ldrh.w	ip, [r0]
    2d24:	6842      	ldr	r2, [r0, #4]
    2d26:	4607      	mov	r7, r0
    2d28:	eb01 088c 	add.w	r8, r1, ip, lsl #2
    2d2c:	ea4f 005c 	mov.w	r0, ip, lsr #1
    2d30:	ea5f 0cdc 	movs.w	ip, ip, lsr #3
    2d34:	ed2d 8b08 	vpush	{d8-d11}
    2d38:	f000 80a0 	beq.w	2e7c <arm_cfft_radix8by2_f32+0x160>
    2d3c:	0083      	lsls	r3, r0, #2
    2d3e:	3310      	adds	r3, #16
    2d40:	18ce      	adds	r6, r1, r3
    2d42:	f101 0510 	add.w	r5, r1, #16
    2d46:	4443      	add	r3, r8
    2d48:	f102 0e10 	add.w	lr, r2, #16
    2d4c:	f108 0410 	add.w	r4, r8, #16
    2d50:	ed14 2a04 	vldr	s4, [r4, #-16]
    2d54:	ed54 2a03 	vldr	s5, [r4, #-12]
    2d58:	ed13 5a04 	vldr	s10, [r3, #-16]
    2d5c:	ed53 5a03 	vldr	s11, [r3, #-12]
    2d60:	ed54 8a02 	vldr	s17, [r4, #-8]
    2d64:	ed14 8a01 	vldr	s16, [r4, #-4]
    2d68:	ed16 3a04 	vldr	s6, [r6, #-16]
    2d6c:	ed56 3a03 	vldr	s7, [r6, #-12]
    2d70:	ed13 7a02 	vldr	s14, [r3, #-8]
    2d74:	ed53 7a01 	vldr	s15, [r3, #-4]
    2d78:	ed55 4a04 	vldr	s9, [r5, #-16]
    2d7c:	ed16 0a02 	vldr	s0, [r6, #-8]
    2d80:	ed56 0a01 	vldr	s1, [r6, #-4]
    2d84:	ed15 4a03 	vldr	s8, [r5, #-12]
    2d88:	ed55 6a02 	vldr	s13, [r5, #-8]
    2d8c:	ed15 6a01 	vldr	s12, [r5, #-4]
    2d90:	ee74 ba82 	vadd.f32	s23, s9, s4
    2d94:	ee34 ba22 	vadd.f32	s22, s8, s5
    2d98:	ee73 9a05 	vadd.f32	s19, s6, s10
    2d9c:	ee33 9aa5 	vadd.f32	s18, s7, s11
    2da0:	ee30 1a07 	vadd.f32	s2, s0, s14
    2da4:	ee70 1aa7 	vadd.f32	s3, s1, s15
    2da8:	ee76 aaa8 	vadd.f32	s21, s13, s17
    2dac:	ee36 aa08 	vadd.f32	s20, s12, s16
    2db0:	ed45 ba04 	vstr	s23, [r5, #-16]
    2db4:	ed05 ba03 	vstr	s22, [r5, #-12]
    2db8:	ed45 aa02 	vstr	s21, [r5, #-8]
    2dbc:	ed05 aa01 	vstr	s20, [r5, #-4]
    2dc0:	ed06 1a02 	vstr	s2, [r6, #-8]
    2dc4:	ed46 1a01 	vstr	s3, [r6, #-4]
    2dc8:	ed46 9a04 	vstr	s19, [r6, #-16]
    2dcc:	ed06 9a03 	vstr	s18, [r6, #-12]
    2dd0:	ee74 4ac2 	vsub.f32	s9, s9, s4
    2dd4:	ee34 4a62 	vsub.f32	s8, s8, s5
    2dd8:	ee35 5a43 	vsub.f32	s10, s10, s6
    2ddc:	ee75 5ae3 	vsub.f32	s11, s11, s7
    2de0:	ed1e 3a04 	vldr	s6, [lr, #-16]
    2de4:	ed5e 3a03 	vldr	s7, [lr, #-12]
    2de8:	ee23 2a65 	vnmul.f32	s4, s6, s11
    2dec:	ee64 1a23 	vmul.f32	s3, s8, s7
    2df0:	ee23 1ae4 	vnmul.f32	s2, s7, s9
    2df4:	ee65 2a03 	vmul.f32	s5, s10, s6
    2df8:	eea4 1a03 	vfma.f32	s2, s8, s6
    2dfc:	f1bc 0c01 	subs.w	ip, ip, #1
    2e00:	f105 0510 	add.w	r5, r5, #16
    2e04:	eee4 1a83 	vfma.f32	s3, s9, s6
    2e08:	f106 0610 	add.w	r6, r6, #16
    2e0c:	f10e 0e10 	add.w	lr, lr, #16
    2e10:	eea5 2a23 	vfma.f32	s4, s10, s7
    2e14:	f104 0410 	add.w	r4, r4, #16
    2e18:	f103 0310 	add.w	r3, r3, #16
    2e1c:	eee5 2aa3 	vfma.f32	s5, s11, s7
    2e20:	ed04 1a07 	vstr	s2, [r4, #-28]	; 0xffffffe4
    2e24:	ed44 1a08 	vstr	s3, [r4, #-32]	; 0xffffffe0
    2e28:	ed03 2a08 	vstr	s4, [r3, #-32]	; 0xffffffe0
    2e2c:	ed43 2a07 	vstr	s5, [r3, #-28]	; 0xffffffe4
    2e30:	ed5e 5a05 	vldr	s11, [lr, #-20]	; 0xffffffec
    2e34:	ed1e 5a06 	vldr	s10, [lr, #-24]	; 0xffffffe8
    2e38:	ee76 6ae8 	vsub.f32	s13, s13, s17
    2e3c:	ee36 6a48 	vsub.f32	s12, s12, s16
    2e40:	ee37 7a40 	vsub.f32	s14, s14, s0
    2e44:	ee77 7ae0 	vsub.f32	s15, s15, s1
    2e48:	ee26 3a25 	vmul.f32	s6, s12, s11
    2e4c:	ee65 3ae6 	vnmul.f32	s7, s11, s13
    2e50:	ee25 4a67 	vnmul.f32	s8, s10, s15
    2e54:	ee67 4a05 	vmul.f32	s9, s14, s10
    2e58:	eee6 3a05 	vfma.f32	s7, s12, s10
    2e5c:	eea6 3a85 	vfma.f32	s6, s13, s10
    2e60:	eea7 4a25 	vfma.f32	s8, s14, s11
    2e64:	eee7 4aa5 	vfma.f32	s9, s15, s11
    2e68:	ed04 3a06 	vstr	s6, [r4, #-24]	; 0xffffffe8
    2e6c:	ed44 3a05 	vstr	s7, [r4, #-20]	; 0xffffffec
    2e70:	ed03 4a06 	vstr	s8, [r3, #-24]	; 0xffffffe8
    2e74:	ed43 4a05 	vstr	s9, [r3, #-20]	; 0xffffffec
    2e78:	f47f af6a 	bne.w	2d50 <arm_cfft_radix8by2_f32+0x34>
    2e7c:	b284      	uxth	r4, r0
    2e7e:	2302      	movs	r3, #2
    2e80:	4608      	mov	r0, r1
    2e82:	4621      	mov	r1, r4
    2e84:	f000 fac4 	bl	3410 <arm_radix8_butterfly_f32>
    2e88:	ecbd 8b08 	vpop	{d8-d11}
    2e8c:	4621      	mov	r1, r4
    2e8e:	687a      	ldr	r2, [r7, #4]
    2e90:	4640      	mov	r0, r8
    2e92:	2302      	movs	r3, #2
    2e94:	e8bd 41f0 	ldmia.w	sp!, {r4, r5, r6, r7, r8, lr}
    2e98:	f000 baba 	b.w	3410 <arm_radix8_butterfly_f32>

00002e9c <arm_cfft_radix8by4_f32>:
    2e9c:	e92d 4ff0 	stmdb	sp!, {r4, r5, r6, r7, r8, r9, sl, fp, lr}
    2ea0:	ed2d 8b0a 	vpush	{d8-d12}
    2ea4:	8804      	ldrh	r4, [r0, #0]
    2ea6:	6843      	ldr	r3, [r0, #4]
    2ea8:	ed91 6a00 	vldr	s12, [r1]
    2eac:	ed91 7a01 	vldr	s14, [r1, #4]
    2eb0:	b08f      	sub	sp, #60	; 0x3c
    2eb2:	0864      	lsrs	r4, r4, #1
    2eb4:	9301      	str	r3, [sp, #4]
    2eb6:	460a      	mov	r2, r1
    2eb8:	00a3      	lsls	r3, r4, #2
    2eba:	441a      	add	r2, r3
    2ebc:	4615      	mov	r5, r2
    2ebe:	9208      	str	r2, [sp, #32]
    2ec0:	441a      	add	r2, r3
    2ec2:	edd2 6a00 	vldr	s13, [r2]
    2ec6:	ed95 4a00 	vldr	s8, [r5]
    2eca:	910c      	str	r1, [sp, #48]	; 0x30
    2ecc:	460e      	mov	r6, r1
    2ece:	ee76 5a26 	vadd.f32	s11, s12, s13
    2ed2:	4611      	mov	r1, r2
    2ed4:	900b      	str	r0, [sp, #44]	; 0x2c
    2ed6:	4608      	mov	r0, r1
    2ed8:	4419      	add	r1, r3
    2eda:	edd1 4a00 	vldr	s9, [r1]
    2ede:	edd5 2a01 	vldr	s5, [r5, #4]
    2ee2:	edd2 7a01 	vldr	s15, [r2, #4]
    2ee6:	9209      	str	r2, [sp, #36]	; 0x24
    2ee8:	ee35 5a84 	vadd.f32	s10, s11, s8
    2eec:	462a      	mov	r2, r5
    2eee:	ee35 5a24 	vadd.f32	s10, s10, s9
    2ef2:	4635      	mov	r5, r6
    2ef4:	ee15 ea10 	vmov	lr, s10
    2ef8:	ed91 3a01 	vldr	s6, [r1, #4]
    2efc:	f845 eb08 	str.w	lr, [r5], #8
    2f00:	ee76 6a66 	vsub.f32	s13, s12, s13
    2f04:	ed92 5a01 	vldr	s10, [r2, #4]
    2f08:	9100      	str	r1, [sp, #0]
    2f0a:	ee37 6a27 	vadd.f32	s12, s14, s15
    2f0e:	460f      	mov	r7, r1
    2f10:	ed97 2a01 	vldr	s4, [r7, #4]
    2f14:	9505      	str	r5, [sp, #20]
    2f16:	ee77 7a67 	vsub.f32	s15, s14, s15
    2f1a:	ee76 3aa2 	vadd.f32	s7, s13, s5
    2f1e:	ee36 7a05 	vadd.f32	s14, s12, s10
    2f22:	ee75 5ac4 	vsub.f32	s11, s11, s8
    2f26:	ee37 5ac4 	vsub.f32	s10, s15, s8
    2f2a:	ee37 7a02 	vadd.f32	s14, s14, s4
    2f2e:	ee77 7a84 	vadd.f32	s15, s15, s8
    2f32:	ee33 4ac3 	vsub.f32	s8, s7, s6
    2f36:	4611      	mov	r1, r2
    2f38:	ed86 7a01 	vstr	s14, [r6, #4]
    2f3c:	0862      	lsrs	r2, r4, #1
    2f3e:	4688      	mov	r8, r1
    2f40:	9c01      	ldr	r4, [sp, #4]
    2f42:	920a      	str	r2, [sp, #40]	; 0x28
    2f44:	46bc      	mov	ip, r7
    2f46:	ee35 5a24 	vadd.f32	s10, s10, s9
    2f4a:	4635      	mov	r5, r6
    2f4c:	1f3e      	subs	r6, r7, #4
    2f4e:	ee14 7a10 	vmov	r7, s8
    2f52:	468e      	mov	lr, r1
    2f54:	ee75 5ae4 	vsub.f32	s11, s11, s9
    2f58:	f848 7b08 	str.w	r7, [r8], #8
    2f5c:	ed8e 5a01 	vstr	s10, [lr, #4]
    2f60:	f1ae 0704 	sub.w	r7, lr, #4
    2f64:	f104 0e08 	add.w	lr, r4, #8
    2f68:	4601      	mov	r1, r0
    2f6a:	f8cd e010 	str.w	lr, [sp, #16]
    2f6e:	ee15 ea90 	vmov	lr, s11
    2f72:	f841 eb08 	str.w	lr, [r1], #8
    2f76:	ee36 6a62 	vsub.f32	s12, s12, s5
    2f7a:	9106      	str	r1, [sp, #24]
    2f7c:	ee76 6ae2 	vsub.f32	s13, s13, s5
    2f80:	9901      	ldr	r1, [sp, #4]
    2f82:	ee36 6a43 	vsub.f32	s12, s12, s6
    2f86:	f101 0e10 	add.w	lr, r1, #16
    2f8a:	ee76 6a83 	vadd.f32	s13, s13, s6
    2f8e:	f8cd e008 	str.w	lr, [sp, #8]
    2f92:	f101 0e18 	add.w	lr, r1, #24
    2f96:	ed80 6a01 	vstr	s12, [r0, #4]
    2f9a:	ee77 7ae4 	vsub.f32	s15, s15, s9
    2f9e:	3a02      	subs	r2, #2
    2fa0:	f8cd e00c 	str.w	lr, [sp, #12]
    2fa4:	9c00      	ldr	r4, [sp, #0]
    2fa6:	ee16 ea90 	vmov	lr, s13
    2faa:	0852      	lsrs	r2, r2, #1
    2fac:	f84c eb08 	str.w	lr, [ip], #8
    2fb0:	9207      	str	r2, [sp, #28]
    2fb2:	edc4 7a01 	vstr	s15, [r4, #4]
    2fb6:	f000 811b 	beq.w	31f0 <arm_cfft_radix8by4_f32+0x354>
    2fba:	4604      	mov	r4, r0
    2fbc:	3b08      	subs	r3, #8
    2fbe:	f8dd a008 	ldr.w	sl, [sp, #8]
    2fc2:	f8cd c034 	str.w	ip, [sp, #52]	; 0x34
    2fc6:	4693      	mov	fp, r2
    2fc8:	f101 0920 	add.w	r9, r1, #32
    2fcc:	f1a0 020c 	sub.w	r2, r0, #12
    2fd0:	f101 0e30 	add.w	lr, r1, #48	; 0x30
    2fd4:	4433      	add	r3, r6
    2fd6:	3510      	adds	r5, #16
    2fd8:	3410      	adds	r4, #16
    2fda:	4660      	mov	r0, ip
    2fdc:	4641      	mov	r1, r8
    2fde:	ed14 7a02 	vldr	s14, [r4, #-8]
    2fe2:	ed55 3a02 	vldr	s7, [r5, #-8]
    2fe6:	edd1 5a00 	vldr	s11, [r1]
    2fea:	ed90 6a00 	vldr	s12, [r0]
    2fee:	ed54 6a01 	vldr	s13, [r4, #-4]
    2ff2:	ed15 5a01 	vldr	s10, [r5, #-4]
    2ff6:	edd0 4a01 	vldr	s9, [r0, #4]
    2ffa:	ed91 4a01 	vldr	s8, [r1, #4]
    2ffe:	ee33 0a87 	vadd.f32	s0, s7, s14
    3002:	ee35 8a26 	vadd.f32	s16, s10, s13
    3006:	ee70 7a25 	vadd.f32	s15, s0, s11
    300a:	ee73 3ac7 	vsub.f32	s7, s7, s14
    300e:	ee77 7a86 	vadd.f32	s15, s15, s12
    3012:	ee35 5a66 	vsub.f32	s10, s10, s13
    3016:	ed45 7a02 	vstr	s15, [r5, #-8]
    301a:	edd1 7a01 	vldr	s15, [r1, #4]
    301e:	ed90 7a01 	vldr	s14, [r0, #4]
    3022:	ee78 7a27 	vadd.f32	s15, s16, s15
    3026:	ee35 aa65 	vsub.f32	s20, s10, s11
    302a:	ee77 7a87 	vadd.f32	s15, s15, s14
    302e:	ee3a aa06 	vadd.f32	s20, s20, s12
    3032:	ed45 7a01 	vstr	s15, [r5, #-4]
    3036:	ed96 2a00 	vldr	s4, [r6]
    303a:	ed97 1a00 	vldr	s2, [r7]
    303e:	edd2 7a02 	vldr	s15, [r2, #8]
    3042:	ed93 7a02 	vldr	s14, [r3, #8]
    3046:	edd3 2a01 	vldr	s5, [r3, #4]
    304a:	ed56 1a01 	vldr	s3, [r6, #-4]
    304e:	ed92 3a01 	vldr	s6, [r2, #4]
    3052:	ed57 9a01 	vldr	s19, [r7, #-4]
    3056:	ee71 6a02 	vadd.f32	s13, s2, s4
    305a:	ee79 0aa1 	vadd.f32	s1, s19, s3
    305e:	ee76 8aa7 	vadd.f32	s17, s13, s15
    3062:	ee31 2a42 	vsub.f32	s4, s2, s4
    3066:	ee78 8a87 	vadd.f32	s17, s17, s14
    306a:	ee73 aa84 	vadd.f32	s21, s7, s8
    306e:	ee18 ca90 	vmov	ip, s17
    3072:	f847 c908 	str.w	ip, [r7], #-8
    3076:	edd2 8a01 	vldr	s17, [r2, #4]
    307a:	ed93 9a01 	vldr	s18, [r3, #4]
    307e:	ee70 8aa8 	vadd.f32	s17, s1, s17
    3082:	ee37 1ac7 	vsub.f32	s2, s15, s14
    3086:	ee78 8a89 	vadd.f32	s17, s17, s18
    308a:	ee7a aae4 	vsub.f32	s21, s21, s9
    308e:	edc7 8a01 	vstr	s17, [r7, #4]
    3092:	ed5a 8a01 	vldr	s17, [sl, #-4]
    3096:	ee79 1ae1 	vsub.f32	s3, s19, s3
    309a:	ee2a ca28 	vmul.f32	s24, s20, s17
    309e:	ed5a 9a02 	vldr	s19, [sl, #-8]
    30a2:	ee32 9a43 	vsub.f32	s18, s4, s6
    30a6:	eeaa caa9 	vfma.f32	s24, s21, s19
    30aa:	f1bb 0b01 	subs.w	fp, fp, #1
    30ae:	f105 0508 	add.w	r5, r5, #8
    30b2:	ee39 9a22 	vadd.f32	s18, s18, s5
    30b6:	ee71 ca81 	vadd.f32	s25, s3, s2
    30ba:	ee68 baea 	vnmul.f32	s23, s17, s21
    30be:	ee29 baec 	vnmul.f32	s22, s19, s25
    30c2:	ee69 aa29 	vmul.f32	s21, s18, s19
    30c6:	eea9 ba28 	vfma.f32	s22, s18, s17
    30ca:	f10a 0a08 	add.w	sl, sl, #8
    30ce:	f1a2 0208 	sub.w	r2, r2, #8
    30d2:	eeea ba29 	vfma.f32	s23, s20, s19
    30d6:	f109 0910 	add.w	r9, r9, #16
    30da:	f104 0408 	add.w	r4, r4, #8
    30de:	ee1c ca10 	vmov	ip, s24
    30e2:	eeec aaa8 	vfma.f32	s21, s25, s17
    30e6:	f841 cb08 	str.w	ip, [r1], #8
    30ea:	ee70 0ac3 	vsub.f32	s1, s1, s6
    30ee:	ed41 ba01 	vstr	s23, [r1, #-4]
    30f2:	ed82 ba04 	vstr	s22, [r2, #16]
    30f6:	edc2 aa03 	vstr	s21, [r2, #12]
    30fa:	ee76 6ae7 	vsub.f32	s13, s13, s15
    30fe:	ee30 0a65 	vsub.f32	s0, s0, s11
    3102:	ed59 7a07 	vldr	s15, [r9, #-28]	; 0xffffffe4
    3106:	ed59 8a08 	vldr	s17, [r9, #-32]	; 0xffffffe0
    310a:	ee38 8a44 	vsub.f32	s16, s16, s8
    310e:	ee70 0ae2 	vsub.f32	s1, s1, s5
    3112:	ee36 7ac7 	vsub.f32	s14, s13, s14
    3116:	ee30 0a46 	vsub.f32	s0, s0, s12
    311a:	ee38 8a64 	vsub.f32	s16, s16, s9
    311e:	ee67 6ae0 	vnmul.f32	s13, s15, s1
    3122:	ee68 9a27 	vmul.f32	s19, s16, s15
    3126:	eee7 6a68 	vfms.f32	s13, s14, s17
    312a:	f10e 0e18 	add.w	lr, lr, #24
    312e:	f1a3 0308 	sub.w	r3, r3, #8
    3132:	ee27 9ac0 	vnmul.f32	s18, s15, s0
    3136:	eee0 9a28 	vfma.f32	s19, s0, s17
    313a:	ee67 7a27 	vmul.f32	s15, s14, s15
    313e:	eea8 9a28 	vfma.f32	s18, s16, s17
    3142:	ee16 ca90 	vmov	ip, s13
    3146:	eee0 7ae8 	vfms.f32	s15, s1, s17
    314a:	ed44 9a04 	vstr	s19, [r4, #-16]
    314e:	ed04 9a03 	vstr	s18, [r4, #-12]
    3152:	f846 c908 	str.w	ip, [r6], #-8
    3156:	ee75 5a25 	vadd.f32	s11, s10, s11
    315a:	edc6 7a01 	vstr	s15, [r6, #4]
    315e:	ed5e 6a0b 	vldr	s13, [lr, #-44]	; 0xffffffd4
    3162:	ee35 6ac6 	vsub.f32	s12, s11, s12
    3166:	ee33 4ac4 	vsub.f32	s8, s7, s8
    316a:	ee72 7ac3 	vsub.f32	s15, s5, s6
    316e:	ed5e 5a0c 	vldr	s11, [lr, #-48]	; 0xffffffd0
    3172:	ee74 4a24 	vadd.f32	s9, s8, s9
    3176:	ee31 7a61 	vsub.f32	s14, s2, s3
    317a:	ee66 3a26 	vmul.f32	s7, s12, s13
    317e:	ee77 7ac2 	vsub.f32	s15, s15, s4
    3182:	ee26 4ae4 	vnmul.f32	s8, s13, s9
    3186:	eee4 3aa5 	vfma.f32	s7, s9, s11
    318a:	ee65 4ac7 	vnmul.f32	s9, s11, s14
    318e:	ee27 5aa5 	vmul.f32	s10, s15, s11
    3192:	eea6 4a25 	vfma.f32	s8, s12, s11
    3196:	eeb0 6a64 	vmov.f32	s12, s9
    319a:	eea7 6aa6 	vfma.f32	s12, s15, s13
    319e:	eef0 7a45 	vmov.f32	s15, s10
    31a2:	ee13 ca90 	vmov	ip, s7
    31a6:	eee7 7a26 	vfma.f32	s15, s14, s13
    31aa:	f840 cb08 	str.w	ip, [r0], #8
    31ae:	ed00 4a01 	vstr	s8, [r0, #-4]
    31b2:	ed83 6a04 	vstr	s12, [r3, #16]
    31b6:	edc3 7a03 	vstr	s15, [r3, #12]
    31ba:	f47f af10 	bne.w	2fde <arm_cfft_radix8by4_f32+0x142>
    31be:	9907      	ldr	r1, [sp, #28]
    31c0:	9802      	ldr	r0, [sp, #8]
    31c2:	f8dd c034 	ldr.w	ip, [sp, #52]	; 0x34
    31c6:	00cb      	lsls	r3, r1, #3
    31c8:	eb01 0241 	add.w	r2, r1, r1, lsl #1
    31cc:	eb00 1101 	add.w	r1, r0, r1, lsl #4
    31d0:	9102      	str	r1, [sp, #8]
    31d2:	9905      	ldr	r1, [sp, #20]
    31d4:	4419      	add	r1, r3
    31d6:	9105      	str	r1, [sp, #20]
    31d8:	9904      	ldr	r1, [sp, #16]
    31da:	4419      	add	r1, r3
    31dc:	9104      	str	r1, [sp, #16]
    31de:	9906      	ldr	r1, [sp, #24]
    31e0:	4498      	add	r8, r3
    31e2:	4419      	add	r1, r3
    31e4:	449c      	add	ip, r3
    31e6:	9b03      	ldr	r3, [sp, #12]
    31e8:	9106      	str	r1, [sp, #24]
    31ea:	eb03 03c2 	add.w	r3, r3, r2, lsl #3
    31ee:	9303      	str	r3, [sp, #12]
    31f0:	9a05      	ldr	r2, [sp, #20]
    31f2:	9e06      	ldr	r6, [sp, #24]
    31f4:	edd2 3a00 	vldr	s7, [r2]
    31f8:	edd6 6a00 	vldr	s13, [r6]
    31fc:	edd8 7a00 	vldr	s15, [r8]
    3200:	eddc 4a00 	vldr	s9, [ip]
    3204:	ed96 4a01 	vldr	s8, [r6, #4]
    3208:	ed92 7a01 	vldr	s14, [r2, #4]
    320c:	edd8 2a01 	vldr	s5, [r8, #4]
    3210:	ed9c 3a01 	vldr	s6, [ip, #4]
    3214:	9d02      	ldr	r5, [sp, #8]
    3216:	f8bd 4028 	ldrh.w	r4, [sp, #40]	; 0x28
    321a:	980c      	ldr	r0, [sp, #48]	; 0x30
    321c:	ee73 5aa6 	vadd.f32	s11, s7, s13
    3220:	ee37 6a04 	vadd.f32	s12, s14, s8
    3224:	ee35 5aa7 	vadd.f32	s10, s11, s15
    3228:	ee73 6ae6 	vsub.f32	s13, s7, s13
    322c:	ee35 5a24 	vadd.f32	s10, s10, s9
    3230:	ee37 7a44 	vsub.f32	s14, s14, s8
    3234:	ed82 5a00 	vstr	s10, [r2]
    3238:	ed98 5a01 	vldr	s10, [r8, #4]
    323c:	eddc 3a01 	vldr	s7, [ip, #4]
    3240:	ee36 5a05 	vadd.f32	s10, s12, s10
    3244:	ee37 4a67 	vsub.f32	s8, s14, s15
    3248:	ee35 5a23 	vadd.f32	s10, s10, s7
    324c:	ee76 3aa2 	vadd.f32	s7, s13, s5
    3250:	ed82 5a01 	vstr	s10, [r2, #4]
    3254:	9a04      	ldr	r2, [sp, #16]
    3256:	ee34 4a24 	vadd.f32	s8, s8, s9
    325a:	ed92 5a01 	vldr	s10, [r2, #4]
    325e:	edd2 1a00 	vldr	s3, [r2]
    3262:	9a01      	ldr	r2, [sp, #4]
    3264:	ee73 3ac3 	vsub.f32	s7, s7, s6
    3268:	ee24 2a05 	vmul.f32	s4, s8, s10
    326c:	ee25 5a63 	vnmul.f32	s10, s10, s7
    3270:	eea3 2aa1 	vfma.f32	s4, s7, s3
    3274:	4621      	mov	r1, r4
    3276:	2304      	movs	r3, #4
    3278:	eea4 5a21 	vfma.f32	s10, s8, s3
    327c:	ee36 6a62 	vsub.f32	s12, s12, s5
    3280:	ee75 5ae7 	vsub.f32	s11, s11, s15
    3284:	ed88 2a00 	vstr	s4, [r8]
    3288:	ed88 5a01 	vstr	s10, [r8, #4]
    328c:	ee75 5ae4 	vsub.f32	s11, s11, s9
    3290:	ee36 6a43 	vsub.f32	s12, s12, s6
    3294:	ed95 5a01 	vldr	s10, [r5, #4]
    3298:	edd5 3a00 	vldr	s7, [r5]
    329c:	ee26 4a05 	vmul.f32	s8, s12, s10
    32a0:	ee25 5a65 	vnmul.f32	s10, s10, s11
    32a4:	eea5 4aa3 	vfma.f32	s8, s11, s7
    32a8:	4635      	mov	r5, r6
    32aa:	eea6 5a23 	vfma.f32	s10, s12, s7
    32ae:	ed85 4a00 	vstr	s8, [r5]
    32b2:	ee76 6ae2 	vsub.f32	s13, s13, s5
    32b6:	ed86 5a01 	vstr	s10, [r6, #4]
    32ba:	ee37 7a27 	vadd.f32	s14, s14, s15
    32be:	9e03      	ldr	r6, [sp, #12]
    32c0:	ee77 7a64 	vsub.f32	s15, s14, s9
    32c4:	ee36 7a83 	vadd.f32	s14, s13, s6
    32c8:	edd6 6a01 	vldr	s13, [r6, #4]
    32cc:	edd6 5a00 	vldr	s11, [r6]
    32d0:	ee27 6aa6 	vmul.f32	s12, s15, s13
    32d4:	ee66 6ac7 	vnmul.f32	s13, s13, s14
    32d8:	eea7 6a25 	vfma.f32	s12, s14, s11
    32dc:	eee7 6aa5 	vfma.f32	s13, s15, s11
    32e0:	ed8c 6a00 	vstr	s12, [ip]
    32e4:	edcc 6a01 	vstr	s13, [ip, #4]
    32e8:	f000 f892 	bl	3410 <arm_radix8_butterfly_f32>
    32ec:	9e0b      	ldr	r6, [sp, #44]	; 0x2c
    32ee:	9808      	ldr	r0, [sp, #32]
    32f0:	6872      	ldr	r2, [r6, #4]
    32f2:	4621      	mov	r1, r4
    32f4:	2304      	movs	r3, #4
    32f6:	f000 f88b 	bl	3410 <arm_radix8_butterfly_f32>
    32fa:	9809      	ldr	r0, [sp, #36]	; 0x24
    32fc:	6872      	ldr	r2, [r6, #4]
    32fe:	4621      	mov	r1, r4
    3300:	2304      	movs	r3, #4
    3302:	f000 f885 	bl	3410 <arm_radix8_butterfly_f32>
    3306:	6872      	ldr	r2, [r6, #4]
    3308:	9800      	ldr	r0, [sp, #0]
    330a:	4621      	mov	r1, r4
    330c:	2304      	movs	r3, #4
    330e:	b00f      	add	sp, #60	; 0x3c
    3310:	ecbd 8b0a 	vpop	{d8-d12}
    3314:	e8bd 4ff0 	ldmia.w	sp!, {r4, r5, r6, r7, r8, r9, sl, fp, lr}
    3318:	f000 b87a 	b.w	3410 <arm_radix8_butterfly_f32>

0000331c <arm_cfft_f32>:
    331c:	2a01      	cmp	r2, #1
    331e:	e92d 41f0 	stmdb	sp!, {r4, r5, r6, r7, r8, lr}
    3322:	4606      	mov	r6, r0
    3324:	4617      	mov	r7, r2
    3326:	460c      	mov	r4, r1
    3328:	4698      	mov	r8, r3
    332a:	8805      	ldrh	r5, [r0, #0]
    332c:	d054      	beq.n	33d8 <arm_cfft_f32+0xbc>
    332e:	f5b5 7f80 	cmp.w	r5, #256	; 0x100
    3332:	d04c      	beq.n	33ce <arm_cfft_f32+0xb2>
    3334:	d916      	bls.n	3364 <arm_cfft_f32+0x48>
    3336:	f5b5 6f80 	cmp.w	r5, #1024	; 0x400
    333a:	d01a      	beq.n	3372 <arm_cfft_f32+0x56>
    333c:	d95c      	bls.n	33f8 <arm_cfft_f32+0xdc>
    333e:	f5b5 6f00 	cmp.w	r5, #2048	; 0x800
    3342:	d044      	beq.n	33ce <arm_cfft_f32+0xb2>
    3344:	f5b5 5f80 	cmp.w	r5, #4096	; 0x1000
    3348:	d105      	bne.n	3356 <arm_cfft_f32+0x3a>
    334a:	2301      	movs	r3, #1
    334c:	6872      	ldr	r2, [r6, #4]
    334e:	4629      	mov	r1, r5
    3350:	4620      	mov	r0, r4
    3352:	f000 f85d 	bl	3410 <arm_radix8_butterfly_f32>
    3356:	f1b8 0f00 	cmp.w	r8, #0
    335a:	d111      	bne.n	3380 <arm_cfft_f32+0x64>
    335c:	2f01      	cmp	r7, #1
    335e:	d016      	beq.n	338e <arm_cfft_f32+0x72>
    3360:	e8bd 81f0 	ldmia.w	sp!, {r4, r5, r6, r7, r8, pc}
    3364:	2d20      	cmp	r5, #32
    3366:	d032      	beq.n	33ce <arm_cfft_f32+0xb2>
    3368:	d94a      	bls.n	3400 <arm_cfft_f32+0xe4>
    336a:	2d40      	cmp	r5, #64	; 0x40
    336c:	d0ed      	beq.n	334a <arm_cfft_f32+0x2e>
    336e:	2d80      	cmp	r5, #128	; 0x80
    3370:	d1f1      	bne.n	3356 <arm_cfft_f32+0x3a>
    3372:	4621      	mov	r1, r4
    3374:	4630      	mov	r0, r6
    3376:	f7ff fcd1 	bl	2d1c <arm_cfft_radix8by2_f32>
    337a:	f1b8 0f00 	cmp.w	r8, #0
    337e:	d0ed      	beq.n	335c <arm_cfft_f32+0x40>
    3380:	68b2      	ldr	r2, [r6, #8]
    3382:	89b1      	ldrh	r1, [r6, #12]
    3384:	4620      	mov	r0, r4
    3386:	f000 ff99 	bl	42bc <arm_bitreversal_32>
    338a:	2f01      	cmp	r7, #1
    338c:	d1e8      	bne.n	3360 <arm_cfft_f32+0x44>
    338e:	ee07 5a90 	vmov	s15, r5
    3392:	eef8 7a67 	vcvt.f32.u32	s15, s15
    3396:	eeb7 7a00 	vmov.f32	s14, #112	; 0x3f800000  1.0
    339a:	eec7 6a27 	vdiv.f32	s13, s14, s15
    339e:	2d00      	cmp	r5, #0
    33a0:	d0de      	beq.n	3360 <arm_cfft_f32+0x44>
    33a2:	f104 0108 	add.w	r1, r4, #8
    33a6:	2300      	movs	r3, #0
    33a8:	3301      	adds	r3, #1
    33aa:	429d      	cmp	r5, r3
    33ac:	f101 0108 	add.w	r1, r1, #8
    33b0:	ed11 7a04 	vldr	s14, [r1, #-16]
    33b4:	ed51 7a03 	vldr	s15, [r1, #-12]
    33b8:	ee27 7a26 	vmul.f32	s14, s14, s13
    33bc:	ee67 7ae6 	vnmul.f32	s15, s15, s13
    33c0:	ed01 7a04 	vstr	s14, [r1, #-16]
    33c4:	ed41 7a03 	vstr	s15, [r1, #-12]
    33c8:	d1ee      	bne.n	33a8 <arm_cfft_f32+0x8c>
    33ca:	e8bd 81f0 	ldmia.w	sp!, {r4, r5, r6, r7, r8, pc}
    33ce:	4621      	mov	r1, r4
    33d0:	4630      	mov	r0, r6
    33d2:	f7ff fd63 	bl	2e9c <arm_cfft_radix8by4_f32>
    33d6:	e7be      	b.n	3356 <arm_cfft_f32+0x3a>
    33d8:	b1ad      	cbz	r5, 3406 <arm_cfft_f32+0xea>
    33da:	f101 030c 	add.w	r3, r1, #12
    33de:	2200      	movs	r2, #0
    33e0:	ed53 7a02 	vldr	s15, [r3, #-8]
    33e4:	3201      	adds	r2, #1
    33e6:	eef1 7a67 	vneg.f32	s15, s15
    33ea:	4295      	cmp	r5, r2
    33ec:	ed43 7a02 	vstr	s15, [r3, #-8]
    33f0:	f103 0308 	add.w	r3, r3, #8
    33f4:	d1f4      	bne.n	33e0 <arm_cfft_f32+0xc4>
    33f6:	e79a      	b.n	332e <arm_cfft_f32+0x12>
    33f8:	f5b5 7f00 	cmp.w	r5, #512	; 0x200
    33fc:	d0a5      	beq.n	334a <arm_cfft_f32+0x2e>
    33fe:	e7aa      	b.n	3356 <arm_cfft_f32+0x3a>
    3400:	2d10      	cmp	r5, #16
    3402:	d0b6      	beq.n	3372 <arm_cfft_f32+0x56>
    3404:	e7a7      	b.n	3356 <arm_cfft_f32+0x3a>
    3406:	f5b5 7f80 	cmp.w	r5, #256	; 0x100
    340a:	d894      	bhi.n	3336 <arm_cfft_f32+0x1a>
    340c:	e7aa      	b.n	3364 <arm_cfft_f32+0x48>
    340e:	bf00      	nop

00003410 <arm_radix8_butterfly_f32>:
    3410:	e92d 4ff0 	stmdb	sp!, {r4, r5, r6, r7, r8, r9, sl, fp, lr}
    3414:	ed2d 8b10 	vpush	{d8-d15}
    3418:	461c      	mov	r4, r3
    341a:	b09d      	sub	sp, #116	; 0x74
    341c:	4603      	mov	r3, r0
    341e:	3304      	adds	r3, #4
    3420:	ed9f bac7 	vldr	s22, [pc, #796]	; 3740 <arm_radix8_butterfly_f32+0x330>
    3424:	9019      	str	r0, [sp, #100]	; 0x64
    3426:	921a      	str	r2, [sp, #104]	; 0x68
    3428:	468b      	mov	fp, r1
    342a:	931b      	str	r3, [sp, #108]	; 0x6c
    342c:	468a      	mov	sl, r1
    342e:	46a1      	mov	r9, r4
    3430:	4607      	mov	r7, r0
    3432:	ea4f 03db 	mov.w	r3, fp, lsr #3
    3436:	ea4f 0843 	mov.w	r8, r3, lsl #1
    343a:	eb03 0508 	add.w	r5, r3, r8
    343e:	195c      	adds	r4, r3, r5
    3440:	00de      	lsls	r6, r3, #3
    3442:	191a      	adds	r2, r3, r4
    3444:	9600      	str	r6, [sp, #0]
    3446:	1898      	adds	r0, r3, r2
    3448:	4619      	mov	r1, r3
    344a:	9e00      	ldr	r6, [sp, #0]
    344c:	9311      	str	r3, [sp, #68]	; 0x44
    344e:	4401      	add	r1, r0
    3450:	eb07 02c2 	add.w	r2, r7, r2, lsl #3
    3454:	eb07 01c1 	add.w	r1, r7, r1, lsl #3
    3458:	19be      	adds	r6, r7, r6
    345a:	eb07 05c5 	add.w	r5, r7, r5, lsl #3
    345e:	eb07 04c4 	add.w	r4, r7, r4, lsl #3
    3462:	eb07 00c0 	add.w	r0, r7, r0, lsl #3
    3466:	9f00      	ldr	r7, [sp, #0]
    3468:	011b      	lsls	r3, r3, #4
    346a:	eb06 0e07 	add.w	lr, r6, r7
    346e:	9f1b      	ldr	r7, [sp, #108]	; 0x6c
    3470:	9302      	str	r3, [sp, #8]
    3472:	3204      	adds	r2, #4
    3474:	3104      	adds	r1, #4
    3476:	ea4f 03cb 	mov.w	r3, fp, lsl #3
    347a:	f04f 0c00 	mov.w	ip, #0
    347e:	ed17 0a01 	vldr	s0, [r7, #-4]
    3482:	edde 0a00 	vldr	s1, [lr]
    3486:	edd6 4a00 	vldr	s9, [r6]
    348a:	ed12 6a01 	vldr	s12, [r2, #-4]
    348e:	ed95 3a00 	vldr	s6, [r5]
    3492:	ed51 1a01 	vldr	s3, [r1, #-4]
    3496:	ed94 2a00 	vldr	s4, [r4]
    349a:	edd0 2a00 	vldr	s5, [r0]
    349e:	ee30 1a02 	vadd.f32	s2, s0, s4
    34a2:	ee70 9aa2 	vadd.f32	s19, s1, s5
    34a6:	ee74 6a86 	vadd.f32	s13, s9, s12
    34aa:	ee33 9a21 	vadd.f32	s18, s6, s3
    34ae:	ee31 7a29 	vadd.f32	s14, s2, s19
    34b2:	ee76 7a89 	vadd.f32	s15, s13, s18
    34b6:	ee34 4ac6 	vsub.f32	s8, s9, s12
    34ba:	ee37 6a27 	vadd.f32	s12, s14, s15
    34be:	ee37 7a67 	vsub.f32	s14, s14, s15
    34c2:	ed07 6a01 	vstr	s12, [r7, #-4]
    34c6:	ed84 7a00 	vstr	s14, [r4]
    34ca:	edd6 5a01 	vldr	s11, [r6, #4]
    34ce:	ed92 6a00 	vldr	s12, [r2]
    34d2:	ed95 5a01 	vldr	s10, [r5, #4]
    34d6:	edd1 aa00 	vldr	s21, [r1]
    34da:	edde 3a01 	vldr	s7, [lr, #4]
    34de:	edd0 7a01 	vldr	s15, [r0, #4]
    34e2:	edd4 8a01 	vldr	s17, [r4, #4]
    34e6:	ed97 7a00 	vldr	s14, [r7]
    34ea:	ee73 4a61 	vsub.f32	s9, s6, s3
    34ee:	ee35 3ac6 	vsub.f32	s6, s11, s12
    34f2:	ee75 1a6a 	vsub.f32	s3, s10, s21
    34f6:	ee33 8ae7 	vsub.f32	s16, s7, s15
    34fa:	ee30 2a42 	vsub.f32	s4, s0, s4
    34fe:	ee70 2ae2 	vsub.f32	s5, s1, s5
    3502:	ee37 0a68 	vsub.f32	s0, s14, s17
    3506:	ee73 0a21 	vadd.f32	s1, s6, s3
    350a:	ee33 3a61 	vsub.f32	s6, s6, s3
    350e:	ee34 aa64 	vsub.f32	s20, s8, s9
    3512:	ee37 7a28 	vadd.f32	s14, s14, s17
    3516:	ee74 4a24 	vadd.f32	s9, s8, s9
    351a:	eef0 8a48 	vmov.f32	s17, s16
    351e:	ee75 1a86 	vadd.f32	s3, s11, s12
    3522:	ee73 7aa7 	vadd.f32	s15, s7, s15
    3526:	ee75 5a2a 	vadd.f32	s11, s10, s21
    352a:	eee0 8a8b 	vfma.f32	s17, s1, s22
    352e:	44dc      	add	ip, fp
    3530:	45e2      	cmp	sl, ip
    3532:	eea0 8acb 	vfms.f32	s16, s1, s22
    3536:	eef0 3a42 	vmov.f32	s7, s4
    353a:	eef0 0a42 	vmov.f32	s1, s4
    353e:	eeb0 4a62 	vmov.f32	s8, s5
    3542:	eeb0 2a40 	vmov.f32	s4, s0
    3546:	eeb0 5a62 	vmov.f32	s10, s5
    354a:	eea3 0a4b 	vfms.f32	s0, s6, s22
    354e:	eea3 2a0b 	vfma.f32	s4, s6, s22
    3552:	eea4 4a8b 	vfma.f32	s8, s9, s22
    3556:	eea4 5acb 	vfms.f32	s10, s9, s22
    355a:	eeea 0a0b 	vfma.f32	s1, s20, s22
    355e:	eeea 3a4b 	vfms.f32	s7, s20, s22
    3562:	ee71 2aa5 	vadd.f32	s5, s3, s11
    3566:	ee77 4a27 	vadd.f32	s9, s14, s15
    356a:	ee71 5ae5 	vsub.f32	s11, s3, s11
    356e:	ee76 6ac9 	vsub.f32	s13, s13, s18
    3572:	ee77 7a67 	vsub.f32	s15, s14, s15
    3576:	ee31 6a69 	vsub.f32	s12, s2, s19
    357a:	eeb0 3a40 	vmov.f32	s6, s0
    357e:	ee36 1a25 	vadd.f32	s2, s12, s11
    3582:	ee34 0aa2 	vadd.f32	s0, s9, s5
    3586:	ee77 1ae6 	vsub.f32	s3, s15, s13
    358a:	ee74 4ae2 	vsub.f32	s9, s9, s5
    358e:	ee36 6a65 	vsub.f32	s12, s12, s11
    3592:	ee76 7aa7 	vadd.f32	s15, s13, s15
    3596:	ee70 2aa8 	vadd.f32	s5, s1, s17
    359a:	ee73 5a88 	vadd.f32	s11, s7, s16
    359e:	ee72 6a44 	vsub.f32	s13, s4, s8
    35a2:	ee33 7a45 	vsub.f32	s14, s6, s10
    35a6:	ee70 0ae8 	vsub.f32	s1, s1, s17
    35aa:	ee73 3ac8 	vsub.f32	s7, s7, s16
    35ae:	ee34 4a02 	vadd.f32	s8, s8, s4
    35b2:	ee35 5a03 	vadd.f32	s10, s10, s6
    35b6:	ed87 0a00 	vstr	s0, [r7]
    35ba:	edc4 4a01 	vstr	s9, [r4, #4]
    35be:	441f      	add	r7, r3
    35c0:	ed8e 1a00 	vstr	s2, [lr]
    35c4:	441c      	add	r4, r3
    35c6:	ed80 6a00 	vstr	s12, [r0]
    35ca:	edce 1a01 	vstr	s3, [lr, #4]
    35ce:	edc0 7a01 	vstr	s15, [r0, #4]
    35d2:	449e      	add	lr, r3
    35d4:	edc6 2a00 	vstr	s5, [r6]
    35d8:	4418      	add	r0, r3
    35da:	ed41 0a01 	vstr	s1, [r1, #-4]
    35de:	ed42 5a01 	vstr	s11, [r2, #-4]
    35e2:	edc5 3a00 	vstr	s7, [r5]
    35e6:	edc6 6a01 	vstr	s13, [r6, #4]
    35ea:	ed81 4a00 	vstr	s8, [r1]
    35ee:	441e      	add	r6, r3
    35f0:	ed82 7a00 	vstr	s14, [r2]
    35f4:	4419      	add	r1, r3
    35f6:	ed85 5a01 	vstr	s10, [r5, #4]
    35fa:	441a      	add	r2, r3
    35fc:	441d      	add	r5, r3
    35fe:	f63f af3e 	bhi.w	347e <arm_radix8_butterfly_f32+0x6e>
    3602:	9a11      	ldr	r2, [sp, #68]	; 0x44
    3604:	2a07      	cmp	r2, #7
    3606:	f240 81d9 	bls.w	39bc <arm_radix8_butterfly_f32+0x5ac>
    360a:	f108 0101 	add.w	r1, r8, #1
    360e:	188f      	adds	r7, r1, r2
    3610:	eb09 0849 	add.w	r8, r9, r9, lsl #1
    3614:	19d6      	adds	r6, r2, r7
    3616:	eb08 0c09 	add.w	ip, r8, r9
    361a:	1994      	adds	r4, r2, r6
    361c:	eb0c 0e09 	add.w	lr, ip, r9
    3620:	4610      	mov	r0, r2
    3622:	9701      	str	r7, [sp, #4]
    3624:	4420      	add	r0, r4
    3626:	eb0e 0709 	add.w	r7, lr, r9
    362a:	1815      	adds	r5, r2, r0
    362c:	eb07 0209 	add.w	r2, r7, r9
    3630:	9203      	str	r2, [sp, #12]
    3632:	9a1a      	ldr	r2, [sp, #104]	; 0x68
    3634:	ea4f 01c9 	mov.w	r1, r9, lsl #3
    3638:	9117      	str	r1, [sp, #92]	; 0x5c
    363a:	440a      	add	r2, r1
    363c:	9900      	ldr	r1, [sp, #0]
    363e:	3108      	adds	r1, #8
    3640:	9100      	str	r1, [sp, #0]
    3642:	9902      	ldr	r1, [sp, #8]
    3644:	3108      	adds	r1, #8
    3646:	9102      	str	r1, [sp, #8]
    3648:	9919      	ldr	r1, [sp, #100]	; 0x64
    364a:	00ff      	lsls	r7, r7, #3
    364c:	9715      	str	r7, [sp, #84]	; 0x54
    364e:	eb01 04c4 	add.w	r4, r1, r4, lsl #3
    3652:	eb01 05c5 	add.w	r5, r1, r5, lsl #3
    3656:	eb01 00c0 	add.w	r0, r1, r0, lsl #3
    365a:	9f17      	ldr	r7, [sp, #92]	; 0x5c
    365c:	9903      	ldr	r1, [sp, #12]
    365e:	19d7      	adds	r7, r2, r7
    3660:	00c9      	lsls	r1, r1, #3
    3662:	9114      	str	r1, [sp, #80]	; 0x50
    3664:	9710      	str	r7, [sp, #64]	; 0x40
    3666:	9919      	ldr	r1, [sp, #100]	; 0x64
    3668:	9f00      	ldr	r7, [sp, #0]
    366a:	19cf      	adds	r7, r1, r7
    366c:	970d      	str	r7, [sp, #52]	; 0x34
    366e:	9f02      	ldr	r7, [sp, #8]
    3670:	19cf      	adds	r7, r1, r7
    3672:	ea4f 0ece 	mov.w	lr, lr, lsl #3
    3676:	970c      	str	r7, [sp, #48]	; 0x30
    3678:	9f01      	ldr	r7, [sp, #4]
    367a:	f8cd e058 	str.w	lr, [sp, #88]	; 0x58
    367e:	3504      	adds	r5, #4
    3680:	3004      	adds	r0, #4
    3682:	eb01 0ec7 	add.w	lr, r1, r7, lsl #3
    3686:	9508      	str	r5, [sp, #32]
    3688:	9009      	str	r0, [sp, #36]	; 0x24
    368a:	9d16      	ldr	r5, [sp, #88]	; 0x58
    368c:	981a      	ldr	r0, [sp, #104]	; 0x68
    368e:	f8cd e02c 	str.w	lr, [sp, #44]	; 0x2c
    3692:	ea4f 08c8 	mov.w	r8, r8, lsl #3
    3696:	eb01 0ec6 	add.w	lr, r1, r6, lsl #3
    369a:	9e14      	ldr	r6, [sp, #80]	; 0x50
    369c:	f8cd e038 	str.w	lr, [sp, #56]	; 0x38
    36a0:	1945      	adds	r5, r0, r5
    36a2:	ea4f 0ccc 	mov.w	ip, ip, lsl #3
    36a6:	460f      	mov	r7, r1
    36a8:	3404      	adds	r4, #4
    36aa:	4641      	mov	r1, r8
    36ac:	1841      	adds	r1, r0, r1
    36ae:	f8cd c048 	str.w	ip, [sp, #72]	; 0x48
    36b2:	940a      	str	r4, [sp, #40]	; 0x28
    36b4:	eb00 0c06 	add.w	ip, r0, r6
    36b8:	f8cd 804c 	str.w	r8, [sp, #76]	; 0x4c
    36bc:	9e15      	ldr	r6, [sp, #84]	; 0x54
    36be:	9506      	str	r5, [sp, #24]
    36c0:	9c12      	ldr	r4, [sp, #72]	; 0x48
    36c2:	9105      	str	r1, [sp, #20]
    36c4:	4639      	mov	r1, r7
    36c6:	1905      	adds	r5, r0, r4
    36c8:	3108      	adds	r1, #8
    36ca:	9c10      	ldr	r4, [sp, #64]	; 0x40
    36cc:	9507      	str	r5, [sp, #28]
    36ce:	910f      	str	r1, [sp, #60]	; 0x3c
    36d0:	ea4f 1509 	mov.w	r5, r9, lsl #4
    36d4:	2101      	movs	r1, #1
    36d6:	eb00 0e06 	add.w	lr, r0, r6
    36da:	9518      	str	r5, [sp, #96]	; 0x60
    36dc:	9404      	str	r4, [sp, #16]
    36de:	9103      	str	r1, [sp, #12]
    36e0:	4620      	mov	r0, r4
    36e2:	4689      	mov	r9, r1
    36e4:	9e06      	ldr	r6, [sp, #24]
    36e6:	edd0 ea00 	vldr	s29, [r0]
    36ea:	edd6 7a01 	vldr	s15, [r6, #4]
    36ee:	edd0 aa01 	vldr	s21, [r0, #4]
    36f2:	edcd 7a00 	vstr	s15, [sp]
    36f6:	a80d      	add	r0, sp, #52	; 0x34
    36f8:	edde 7a01 	vldr	s15, [lr, #4]
    36fc:	9c05      	ldr	r4, [sp, #20]
    36fe:	9d07      	ldr	r5, [sp, #28]
    3700:	ed92 fa00 	vldr	s30, [r2]
    3704:	edd2 ba01 	vldr	s23, [r2, #4]
    3708:	edcd 7a01 	vstr	s15, [sp, #4]
    370c:	c807      	ldmia	r0, {r0, r1, r2}
    370e:	eddc 7a01 	vldr	s15, [ip, #4]
    3712:	ed94 ea00 	vldr	s28, [r4]
    3716:	edd5 da00 	vldr	s27, [r5]
    371a:	ed96 da00 	vldr	s26, [r6]
    371e:	ed94 aa01 	vldr	s20, [r4, #4]
    3722:	edd5 9a01 	vldr	s19, [r5, #4]
    3726:	edde ca00 	vldr	s25, [lr]
    372a:	ed9c ca00 	vldr	s24, [ip]
    372e:	f8dd 8020 	ldr.w	r8, [sp, #32]
    3732:	9f09      	ldr	r7, [sp, #36]	; 0x24
    3734:	9e0a      	ldr	r6, [sp, #40]	; 0x28
    3736:	9d0b      	ldr	r5, [sp, #44]	; 0x2c
    3738:	9c0c      	ldr	r4, [sp, #48]	; 0x30
    373a:	edcd 7a02 	vstr	s15, [sp, #8]
    373e:	e001      	b.n	3744 <arm_radix8_butterfly_f32+0x334>
    3740:	3f3504f3 	.word	0x3f3504f3
    3744:	ed16 6a01 	vldr	s12, [r6, #-4]
    3748:	edd2 fa00 	vldr	s31, [r2]
    374c:	ed57 2a01 	vldr	s5, [r7, #-4]
    3750:	edd5 5a00 	vldr	s11, [r5]
    3754:	ed58 6a01 	vldr	s13, [r8, #-4]
    3758:	ed91 7a00 	vldr	s14, [r1]
    375c:	edd4 7a00 	vldr	s15, [r4]
    3760:	ed90 2a00 	vldr	s4, [r0]
    3764:	ed92 8a01 	vldr	s16, [r2, #4]
    3768:	ee7f 0a87 	vadd.f32	s1, s31, s14
    376c:	ee32 1a06 	vadd.f32	s2, s4, s12
    3770:	ee37 4aa2 	vadd.f32	s8, s15, s5
    3774:	ee75 4aa6 	vadd.f32	s9, s11, s13
    3778:	ee70 1a84 	vadd.f32	s3, s1, s8
    377c:	ee31 5a24 	vadd.f32	s10, s2, s9
    3780:	ee32 2a46 	vsub.f32	s4, s4, s12
    3784:	ee31 6a85 	vadd.f32	s12, s3, s10
    3788:	ee75 5ae6 	vsub.f32	s11, s11, s13
    378c:	ed82 6a00 	vstr	s12, [r2]
    3790:	edd5 8a01 	vldr	s17, [r5, #4]
    3794:	ed90 9a01 	vldr	s18, [r0, #4]
    3798:	ed96 3a00 	vldr	s6, [r6]
    379c:	ed98 6a00 	vldr	s12, [r8]
    37a0:	ed94 0a01 	vldr	s0, [r4, #4]
    37a4:	edd7 6a00 	vldr	s13, [r7]
    37a8:	edd1 3a01 	vldr	s7, [r1, #4]
    37ac:	ee3f 7ac7 	vsub.f32	s14, s31, s14
    37b0:	ee77 7ae2 	vsub.f32	s15, s15, s5
    37b4:	ee78 fac6 	vsub.f32	s31, s17, s12
    37b8:	ee79 2a43 	vsub.f32	s5, s18, s6
    37bc:	ee39 3a03 	vadd.f32	s6, s18, s6
    37c0:	ee30 9a66 	vsub.f32	s18, s0, s13
    37c4:	ee38 6a86 	vadd.f32	s12, s17, s12
    37c8:	ee70 6a26 	vadd.f32	s13, s0, s13
    37cc:	ee78 8a63 	vsub.f32	s17, s16, s7
    37d0:	ee32 0aef 	vsub.f32	s0, s5, s31
    37d4:	ee72 2aaf 	vadd.f32	s5, s5, s31
    37d8:	ee78 3a23 	vadd.f32	s7, s16, s7
    37dc:	ee30 4ac4 	vsub.f32	s8, s1, s8
    37e0:	ee32 8a25 	vadd.f32	s16, s4, s11
    37e4:	eef0 0a49 	vmov.f32	s1, s18
    37e8:	ee72 5a65 	vsub.f32	s11, s4, s11
    37ec:	eee2 0a8b 	vfma.f32	s1, s5, s22
    37f0:	44d9      	add	r9, fp
    37f2:	45ca      	cmp	sl, r9
    37f4:	eea2 9acb 	vfms.f32	s18, s5, s22
    37f8:	eeb0 2a68 	vmov.f32	s4, s17
    37fc:	eef0 2a47 	vmov.f32	s5, s14
    3800:	eee5 2a8b 	vfma.f32	s5, s11, s22
    3804:	eea5 7acb 	vfms.f32	s14, s11, s22
    3808:	eea0 2a0b 	vfma.f32	s4, s0, s22
    380c:	ee73 5a06 	vadd.f32	s11, s6, s12
    3810:	eee0 8a4b 	vfms.f32	s17, s0, s22
    3814:	eef0 fa67 	vmov.f32	s31, s15
    3818:	ee33 0aa6 	vadd.f32	s0, s7, s13
    381c:	eee8 7a4b 	vfms.f32	s15, s16, s22
    3820:	ee71 4a64 	vsub.f32	s9, s2, s9
    3824:	ee31 5ac5 	vsub.f32	s10, s3, s10
    3828:	eee8 fa0b 	vfma.f32	s31, s16, s22
    382c:	ee33 3a46 	vsub.f32	s6, s6, s12
    3830:	ee30 8a65 	vsub.f32	s16, s0, s11
    3834:	ee73 3ae6 	vsub.f32	s7, s7, s13
    3838:	ee34 6a03 	vadd.f32	s12, s8, s6
    383c:	ee72 6aa0 	vadd.f32	s13, s5, s1
    3840:	ee34 4a43 	vsub.f32	s8, s8, s6
    3844:	ee72 0ae0 	vsub.f32	s1, s5, s1
    3848:	ee33 3ae4 	vsub.f32	s6, s7, s9
    384c:	ee65 2a69 	vnmul.f32	s5, s10, s19
    3850:	ee74 3aa3 	vadd.f32	s7, s9, s7
    3854:	ee77 4a09 	vadd.f32	s9, s14, s18
    3858:	ee37 9a49 	vsub.f32	s18, s14, s18
    385c:	ee38 7ae7 	vsub.f32	s14, s17, s15
    3860:	ee77 8aa8 	vadd.f32	s17, s15, s17
    3864:	ee69 7a88 	vmul.f32	s15, s19, s16
    3868:	eeed 2a88 	vfma.f32	s5, s27, s16
    386c:	eeed 7a85 	vfma.f32	s15, s27, s10
    3870:	ed9d 8a01 	vldr	s16, [sp, #4]
    3874:	ee26 5a6a 	vnmul.f32	s10, s12, s21
    3878:	ee2a 1a83 	vmul.f32	s2, s21, s6
    387c:	ee72 1a6f 	vsub.f32	s3, s4, s31
    3880:	eeae 5a83 	vfma.f32	s10, s29, s6
    3884:	eeae 1a86 	vfma.f32	s2, s29, s12
    3888:	ee28 3a23 	vmul.f32	s6, s16, s7
    388c:	ee24 6a48 	vnmul.f32	s12, s8, s16
    3890:	ee3f 2a82 	vadd.f32	s4, s31, s4
    3894:	ed9d 8a02 	vldr	s16, [sp, #8]
    3898:	eeac 3a84 	vfma.f32	s6, s25, s8
    389c:	eeac 6aa3 	vfma.f32	s12, s25, s7
    38a0:	ee2b 4aa1 	vmul.f32	s8, s23, s3
    38a4:	ee66 3aeb 	vnmul.f32	s7, s13, s23
    38a8:	eeaf 4a26 	vfma.f32	s8, s30, s13
    38ac:	eeef 3a21 	vfma.f32	s7, s30, s3
    38b0:	ee68 6a02 	vmul.f32	s13, s16, s4
    38b4:	ee60 1ac8 	vnmul.f32	s3, s1, s16
    38b8:	ed9d 8a00 	vldr	s16, [sp]
    38bc:	eeec 6a20 	vfma.f32	s13, s24, s1
    38c0:	eeec 1a02 	vfma.f32	s3, s24, s4
    38c4:	ee64 0ac8 	vnmul.f32	s1, s9, s16
    38c8:	ee28 2a07 	vmul.f32	s4, s16, s14
    38cc:	eeed 0a07 	vfma.f32	s1, s26, s14
    38d0:	eead 2a24 	vfma.f32	s4, s26, s9
    38d4:	ee2a 7a28 	vmul.f32	s14, s20, s17
    38d8:	ee69 4a4a 	vnmul.f32	s9, s18, s20
    38dc:	eeae 7a09 	vfma.f32	s14, s28, s18
    38e0:	eeee 4a28 	vfma.f32	s9, s28, s17
    38e4:	ee70 5a25 	vadd.f32	s11, s0, s11
    38e8:	edc2 5a01 	vstr	s11, [r2, #4]
    38ec:	edc1 7a00 	vstr	s15, [r1]
    38f0:	edc1 2a01 	vstr	s5, [r1, #4]
    38f4:	441a      	add	r2, r3
    38f6:	ed84 1a00 	vstr	s2, [r4]
    38fa:	ed84 5a01 	vstr	s10, [r4, #4]
    38fe:	4419      	add	r1, r3
    3900:	ed07 3a01 	vstr	s6, [r7, #-4]
    3904:	ed87 6a00 	vstr	s12, [r7]
    3908:	441c      	add	r4, r3
    390a:	ed80 4a00 	vstr	s8, [r0]
    390e:	edc0 3a01 	vstr	s7, [r0, #4]
    3912:	441f      	add	r7, r3
    3914:	ed48 6a01 	vstr	s13, [r8, #-4]
    3918:	edc8 1a00 	vstr	s3, [r8]
    391c:	4418      	add	r0, r3
    391e:	ed06 2a01 	vstr	s4, [r6, #-4]
    3922:	4498      	add	r8, r3
    3924:	edc6 0a00 	vstr	s1, [r6]
    3928:	ed85 7a00 	vstr	s14, [r5]
    392c:	edc5 4a01 	vstr	s9, [r5, #4]
    3930:	441e      	add	r6, r3
    3932:	441d      	add	r5, r3
    3934:	f63f af06 	bhi.w	3744 <arm_radix8_butterfly_f32+0x334>
    3938:	9a03      	ldr	r2, [sp, #12]
    393a:	9818      	ldr	r0, [sp, #96]	; 0x60
    393c:	3201      	adds	r2, #1
    393e:	4611      	mov	r1, r2
    3940:	9203      	str	r2, [sp, #12]
    3942:	9a04      	ldr	r2, [sp, #16]
    3944:	4402      	add	r2, r0
    3946:	9204      	str	r2, [sp, #16]
    3948:	9813      	ldr	r0, [sp, #76]	; 0x4c
    394a:	9a05      	ldr	r2, [sp, #20]
    394c:	4402      	add	r2, r0
    394e:	9205      	str	r2, [sp, #20]
    3950:	9812      	ldr	r0, [sp, #72]	; 0x48
    3952:	9a07      	ldr	r2, [sp, #28]
    3954:	4402      	add	r2, r0
    3956:	9207      	str	r2, [sp, #28]
    3958:	9816      	ldr	r0, [sp, #88]	; 0x58
    395a:	9a06      	ldr	r2, [sp, #24]
    395c:	4402      	add	r2, r0
    395e:	9206      	str	r2, [sp, #24]
    3960:	9a15      	ldr	r2, [sp, #84]	; 0x54
    3962:	4496      	add	lr, r2
    3964:	9a14      	ldr	r2, [sp, #80]	; 0x50
    3966:	4494      	add	ip, r2
    3968:	9a0f      	ldr	r2, [sp, #60]	; 0x3c
    396a:	3208      	adds	r2, #8
    396c:	920f      	str	r2, [sp, #60]	; 0x3c
    396e:	9a0e      	ldr	r2, [sp, #56]	; 0x38
    3970:	3208      	adds	r2, #8
    3972:	920e      	str	r2, [sp, #56]	; 0x38
    3974:	9a0d      	ldr	r2, [sp, #52]	; 0x34
    3976:	3208      	adds	r2, #8
    3978:	920d      	str	r2, [sp, #52]	; 0x34
    397a:	9a0c      	ldr	r2, [sp, #48]	; 0x30
    397c:	3208      	adds	r2, #8
    397e:	920c      	str	r2, [sp, #48]	; 0x30
    3980:	9a0b      	ldr	r2, [sp, #44]	; 0x2c
    3982:	3208      	adds	r2, #8
    3984:	920b      	str	r2, [sp, #44]	; 0x2c
    3986:	9a0a      	ldr	r2, [sp, #40]	; 0x28
    3988:	3208      	adds	r2, #8
    398a:	920a      	str	r2, [sp, #40]	; 0x28
    398c:	9a09      	ldr	r2, [sp, #36]	; 0x24
    398e:	3208      	adds	r2, #8
    3990:	9209      	str	r2, [sp, #36]	; 0x24
    3992:	9a08      	ldr	r2, [sp, #32]
    3994:	3208      	adds	r2, #8
    3996:	9208      	str	r2, [sp, #32]
    3998:	9c10      	ldr	r4, [sp, #64]	; 0x40
