
C:\Users\Eli\Dropbox\Embedded System Conference\LPC-LINK-2\CM4_TEST\-O1 HARD\CM4_TEST_LPC4370_RAM_O1_HARD.axf:     file format elf32-littlearm
C:\Users\Eli\Dropbox\Embedded System Conference\LPC-LINK-2\CM4_TEST\-O1 HARD\CM4_TEST_LPC4370_RAM_O1_HARD.axf
architecture: arm, flags 0x00000112:
EXEC_P, HAS_SYMS, D_PAGED
start address 0x100003d1

Program Header:
    LOAD off    0x00008000 vaddr 0x10000000 paddr 0x10000000 align 2**15
         filesz 0x0000530c memsz 0x00005468 flags rwx
    LOAD off    0x00010000 vaddr 0x10080000 paddr 0x10080000 align 2**15
         filesz 0x00000000 memsz 0x00008018 flags rw-
private flags = 5000402: [Version5 EABI] [hard-float ABI] [has entry point]

Sections:
Idx Name          Size      VMA       LMA       File off  Algn
  0 .text         00005228  10000000  10000000  00008000  2**3
                  CONTENTS, ALLOC, LOAD, READONLY, CODE
  1 .data         000000e4  10005228  10005228  0000d228  2**2
                  CONTENTS, ALLOC, LOAD, DATA
  2 .bss          0000015c  1000530c  1000530c  0000d30c  2**2
                  ALLOC
  3 .bss_RAM2     00008018  10080000  10080000  00010000  2**2
                  ALLOC
  4 .debug_info   00005c5e  00000000  00000000  0000d30c  2**0
                  CONTENTS, READONLY, DEBUGGING
  5 .debug_abbrev 00001054  00000000  00000000  00012f6a  2**0
                  CONTENTS, READONLY, DEBUGGING
  6 .debug_loc    000001a3  00000000  00000000  00013fbe  2**0
                  CONTENTS, READONLY, DEBUGGING
  7 .debug_aranges 00000488  00000000  00000000  00014161  2**0
                  CONTENTS, READONLY, DEBUGGING
  8 .debug_ranges 000003c0  00000000  00000000  000145e9  2**0
                  CONTENTS, READONLY, DEBUGGING
  9 .debug_macro  00006ce3  00000000  00000000  000149a9  2**0
                  CONTENTS, READONLY, DEBUGGING
 10 .debug_line   000043da  00000000  00000000  0001b68c  2**0
                  CONTENTS, READONLY, DEBUGGING
 11 .debug_str    0001828b  00000000  00000000  0001fa66  2**0
                  CONTENTS, READONLY, DEBUGGING
 12 .comment      00000070  00000000  00000000  00037cf1  2**0
                  CONTENTS, READONLY
 13 .ARM.attributes 00000037  00000000  00000000  00037d61  2**0
                  CONTENTS, READONLY
 14 .debug_frame  00000f34  00000000  00000000  00037d98  2**2
                  CONTENTS, READONLY, DEBUGGING
SYMBOL TABLE:
10000000 l    d  .text	00000000 .text
10005228 l    d  .data	00000000 .data
1000530c l    d  .bss	00000000 .bss
10080000 l    d  .bss_RAM2	00000000 .bss_RAM2
00000000 l    d  .debug_info	00000000 .debug_info
00000000 l    d  .debug_abbrev	00000000 .debug_abbrev
00000000 l    d  .debug_loc	00000000 .debug_loc
00000000 l    d  .debug_aranges	00000000 .debug_aranges
00000000 l    d  .debug_ranges	00000000 .debug_ranges
00000000 l    d  .debug_macro	00000000 .debug_macro
00000000 l    d  .debug_line	00000000 .debug_line
00000000 l    d  .debug_str	00000000 .debug_str
00000000 l    d  .comment	00000000 .comment
00000000 l    d  .ARM.attributes	00000000 .ARM.attributes
00000000 l    d  .debug_frame	00000000 .debug_frame
00000000 l    df *ABS*	00000000 cr_startup_lpc43xx.c
00000000 l    df *ABS*	00000000 crp.c
00000000 l    df *ABS*	00000000 CM4_TEST.c
00000000 l    df *ABS*	00000000 sysinit.c
00000000 l    df *ABS*	00000000 board.c
10000484 l     F .text	00000036 Chip_GPIO_SetPinState
100004bc l     F .text	0000003c Chip_GPIO_SetPinDIROutput
100004f8 l     F .text	00000020 Board_LED_Init
00000000 l    df *ABS*	00000000 board_sysinit.c
10000558 l     F .text	00000030 Chip_SCU_PinMuxSet
10000588 l     F .text	00000048 Chip_SCU_SetPinMuxing
10005084 l     O .text	00000010 InitClkStates
10005094 l     O .text	00000018 spifipinmuxing
100050ac l     O .text	00000004 pinmuxing
00000000 l    df *ABS*	00000000 chip_18xx_43xx.c
00000000 l    df *ABS*	00000000 clock_18xx_43xx.c
100050b0 l     O .text	0000006c periph_to_base
1000530c l     O .bss	00000008 audio_usb_pll_freq
100006b0 l     F .text	00000048 Chip_Clock_TestMainPLLMultiplier
100006f8 l     F .text	00000040 Chip_Clock_GetDivRate
10000738 l     F .text	00000088 Chip_Clock_FindBaseClock
00000000 l    df *ABS*	00000000 fpu_init.c
00000000 l    df *ABS*	00000000 gpio_18xx_43xx.c
00000000 l    df *ABS*	00000000 sysinit_18xx_43xx.c
10005128 l     O .text	00000048 InitClkStates
00000000 l    df *ABS*	00000000 timer_18xx_43xx.c
1000109c l     F .text	00000050 Chip_TIMER_GetClockIndex
00000000 l    df *ABS*	00000000 _cr__main.c
00000000 l    df *ABS*	00000000 fpprintf.c
10001158 l     F .text	000000bc fp_round
10001214 l     F .text	00000060 pr_dec
10001278 l     F .text	0000079c fp_digits
10001a18 l     F .text	00000138 fp_addexp
10001b50 l     F .text	0000004c lose_trailing_zeros
10001b9c l     F .text	000006ea fp_display
00000000 l    df *ABS*	00000000 initio.c
00000000 l    df *ABS*	00000000 printf.c
100024d4 l     F .text	00000144 DivideBy10
10002618 l     F .text	0000063a printf_display
10002c54 l     F .text	00000028 pr_isdigit
00000000 l    df *ABS*	00000000 setvbuf.c
00000000 l    df *ABS*	00000000 stdlib.c
10005228 l     O .data	000000dc _random_number_seed
10005304 l     O .data	00000004 _random_j
10005308 l     O .data	00000004 _random_k
00000000 l    df *ABS*	00000000 strlen.c
00000000 l    df *ABS*	00000000 memset.c
00000000 l    df *ABS*	00000000 _deferredlazyseek.c
00000000 l    df *ABS*	00000000 _fdopen.c
00000000 l    df *ABS*	00000000 _fflush.c
00000000 l    df *ABS*	00000000 _frexpl.c
00000000 l    df *ABS*	00000000 _ldexpl.c
00000000 l    df *ABS*	00000000 _writebuf.c
00000000 l    df *ABS*	00000000 alloc.c
00000000 l    df *ABS*	00000000 fclose.c
00000000 l    df *ABS*	00000000 fflush.c
00000000 l    df *ABS*	00000000 fseek.c
00000000 l    df *ABS*	00000000 ftell.c
00000000 l    df *ABS*	00000000 remove.c
00000000 l    df *ABS*	00000000 _cr_sbrk.c
00000000 l    df *ABS*	00000000 _do_fflush.c
00000000 l    df *ABS*	00000000 _cr_check_heap.c
00000000 l    df *ABS*	00000000 double.c
00000000 l    df *ABS*	00000000 memcpy.o
10004faa l       .text	00000000 memset1a
10004f98 l       .text	00000000 __bhs_memset4
10004f9a l       .text	00000000 memset4
10004fa6 l       .text	00000000 memset1
00000000 l    df *ABS*	00000000 __sys_appexit.o
00000000 l    df *ABS*	00000000 __sys_close.o
00000000 l    df *ABS*	00000000 __sys_flen.o
00000000 l    df *ABS*	00000000 __sys_istty.o
00000000 l    df *ABS*	00000000 __sys_remove.o
00000000 l    df *ABS*	00000000 __sys_seek.o
00000000 l    df *ABS*	00000000 __sys_tmpnam.o
00000000 l    df *ABS*	00000000 __sys_write.o
00000000 l    df *ABS*	00000000 _hugeval.c
00000000 l    df *ABS*	00000000 
10020000 l       *ABS*	00000000 __top_RamLoc128
10005228 l       .text	00000000 __exidx_end
10005228 l       .text	00000000 _etext
20008000 l       *ABS*	00000000 __top_RamAHB32
18004800 l       *ABS*	00000000 __top_RamM0Sub2
10005228 l       .text	00000000 __exidx_start
20010000 l       *ABS*	00000000 __top_RamAHB_ETB16
10092000 l       *ABS*	00000000 __top_RamLoc72
2000c000 l       *ABS*	00000000 __top_RamAHB16
18004000 l       *ABS*	00000000 __top_RamM0Sub16
10000bb0 g     F .text	00000040 Chip_Clock_GetDividerSource
10004edc g     F .text	00000054 __aeabi_dcmple
10001144 g     F .text	00000014 __main
100001c4  w    F .text	00000002 TIMER2_IRQHandler
100001b8  w    F .text	00000002 DebugMon_Handler
100001c4  w    F .text	00000002 RIT_IRQHandler
10003b6c g     F .text	0000006c _deferredlazyseek
100001c4  w    F .text	00000002 ADCHS_IRQHandler
10000114 g       .text	00000000 __section_table_start
10004fb8 g     F .text	00000000 __exit
100001c4  w    F .text	00000002 I2C0_IRQHandler
10005000 g     F .text	00000000 __sys_tmpnam
10002288 g     F .text	00000078 printf
100001a4  w    F .text	00000002 HardFault_Handler
10000000 g       *ABS*	00000000 __vectors_start__
100001c0  w    F .text	00000002 SysTick_Handler
10000954 g     F .text	000000fc Chip_Clock_SetupMainPLLMult
100001c4  w    F .text	00000002 SDIO_IRQHandler
100001c4  w    F .text	00000002 ATIMER_IRQHandler
100001bc  w    F .text	00000002 PendSV_Handler
100001a0  w    F .text	00000002 NMI_Handler
10000168 g       .text	00000000 __data_section_table_end
100001c4  w    F .text	00000002 I2C1_IRQHandler
100001c4  w    F .text	00000002 UART1_IRQHandler
100001c4  w    F .text	00000002 GPIO5_IRQHandler
10003bd8 g     F .text	00000258 __flsbuf
1000500c g     F .text	00000000 __write
100001c4  w    F .text	00000002 CAN1_IRQHandler
10005314 g     O .bss	00000004 errno
10004038 g     F .text	0000009c _ldexpl
100001c4  w    F .text	00000002 USB1_IRQHandler
1000531c g     O .bss	00000004 _extra
100001c4  w    F .text	00000002 I2S0_IRQHandler
10001144  w    F .text	00000014 __CR_SEMIHOST
10003f7c g     F .text	000000bc _frexpl
100001c4  w    F .text	00000002 TIMER3_IRQHandler
10000d68 g     F .text	00000024 Chip_Clock_GetBaseClocktHz
100001c4  w    F .text	00000002 UART0_IRQHandler
100001e8 g     F .text	0000001a bss_init
10001108 g     F .text	0000003a Chip_TIMER_Reset
100001c4  w    F .text	00000002 SGPIO_IRQHandler
1000399c g     F .text	0000008c setvbuf
10005468 g       .debug_info	00000000 _noinit
10005318 g     O .bss	00000004 SystemCoreClock
100001c4  w    F .text	00000002 ADC0_IRQHandler
100041a0 g     F .text	000001b8 malloc
10004768 g     F .text	00000022 remove
100001b0  w    F .text	00000002 UsageFault_Handler
10002384 g     F .text	0000007c vsnprintf
10000ed4 g     F .text	00000088 Chip_Clock_GetRate
100001c4  w    F .text	00000002 GPIO6_IRQHandler
100005f0 g     F .text	00000098 Board_SetupClocking
10004fd0 g     F .text	00000000 __sys_flen
1000507c g     O .text	00000004 ExtRateIn
100001c4  w    F .text	00000002 IntDefaultHandler
10000300 g       .text	00000000 __CRP_WORD_END__
00000000  w      *UND*	00000000 _pvHeapLimit
10004e8a g     F .text	00000052 __aeabi_dcmplt
100001c4  w    F .text	00000002 GPIO1_IRQHandler
100044a8 g     F .text	0000005c fflush
100049a4 g     F .text	00000140 __aeabi_ddiv
100001c4  w    F .text	00000002 SSP0_IRQHandler
10004894 g     F .text	00000110 __aeabi_dmul
100002fc g     O .text	00000004 CRP_WORD
10003e30 g     F .text	000000ae _fdopen
10004f84 g     F .text	00000032 __aeabi_lowlevel_memset
100001c4  w    F .text	00000002 ADC1_IRQHandler
1000478c g     F .text	00000060 _sbrk
10000544 g     F .text	00000014 Board_Init
100001c4  w    F .text	00000002 FLASHEEPROM_IRQHandler
10000114 g       .text	00000000 __data_section_table
100001c4  w    F .text	00000002 RTC_IRQHandler
10005468 g       .bss	00000000 _ebss
100001c4  w    F .text	00000002 TIMER0_IRQHandler
10002c7c g     F .text	00000d20 __vfprintf
100001c4  w    F .text	00000002 SPI_IRQHandler
100001c4  w    F .text	00000002 LCD_IRQHandler
100007c0 g     F .text	0000006c Chip_Clock_EnableCrystal
10004c9c g     F .text	00000128 __aeabi_dadd
100001c8 g     F .text	0000001e data_init
100001c4  w    F .text	00000002 TIMER1_IRQHandler
10000b2c g     F .text	00000084 Chip_Clock_SetDivider
100001c4  w    F .text	00000002 UART2_IRQHandler
10000a50 g     F .text	000000c0 Chip_Clock_GetMainPLLHz
10004504 g     F .text	000001d4 fseek
100001c4  w    F .text	00000002 GPIO2_IRQHandler
10003ee0 g     F .text	0000009c _fflush
10004e04 g     F .text	00000046 __bhs_ui2d
10000e28 g     F .text	0000004c Chip_Clock_GetBaseClock
10004f30 g     F .text	00000054 __aeabi_dcmpge
1000530c g       .bss	00000000 _bss
10004ae4 g     F .text	000001b8 __aeabi_dsub
10003a28 g     F .text	0000007c rand
100001c4  w    F .text	00000002 I2S1_IRQHandler
1000082c g     F .text	00000128 Chip_Clock_SetupMainPLLHz
10000fd0 g     F .text	00000012 Chip_GPIO_Init
10005080 g     O .text	00000004 OscRateIn
10005468 g       .debug_info	00000000 _end_noinit
10020000 g       *ABS*	00000000 _vStackTop
100001c4  w    F .text	00000002 SSP1_IRQHandler
100010ec g     F .text	0000001c Chip_TIMER_Init
100001a0 g       .text	00000000 __bss_section_table_end
10004868 g     F .text	0000002c __check_heap_overflow
10004e4a g     F .text	00000010 __aeabi_i2d
10080000 g     O .bss_RAM2	00008000 InputData
100001c4  w    F .text	00000002 USB0_IRQHandler
100001c4  w    F .text	00000002 GPIO3_IRQHandler
100001c4  w    F .text	00000002 SCT_IRQHandler
10000bf0 g     F .text	00000038 Chip_Clock_GetDividerDivisor
100002fc g       .text	00000000 __CRP_WORD_START__
1000500c g     F .text	00000000 __sys_write
10003b4c g     F .text	00000020 memset
100001a8  w    F .text	00000002 MemManage_Handler
10000300 g     F .text	000000d0 main
100047ec g     F .text	0000007a _do_fflush
100046d8 g     F .text	00000090 ftell
100001c4  w    F .text	00000002 MX_CORE_IRQHandler
100001c4  w    F .text	00000002 WDT_IRQHandler
100001b4  w    F .text	00000002 SVC_Handler
10004400 g     F .text	000000a6 fclose
100001c4  w    F .text	00000002 GPIO7_IRQHandler
10004ff4 g     F .text	00000000 __sys_seek
10000c28 g     F .text	00000140 Chip_Clock_GetClockInputHz
10000f5c g     F .text	00000074 fpuInit
10000468 g     F .text	0000001c SystemInit
100001c4  w    F .text	00000002 SPIFI_IRQHandler
100001c4  w    F .text	00000002 QEI_IRQHandler
10000168 g       .text	00000000 __bss_section_table
10005220 g     O .text	00000008 __huge_vall
10004fc4 g     F .text	00000000 __sys_close
10002300 g     F .text	00000084 sprintf
100005d0 g     F .text	00000020 Board_SetupMuxing
100001c4  w    F .text	00000002 ETH_IRQHandler
10005228 g       .debug_info	00000000 _end_uninit_RESERVED
100040d4 g     F .text	000000cc _Cwritebuf
100001c4  w    F .text	00000002 CAN0_IRQHandler
10005228 g       .data	00000000 _data
10005468 g       .bss	00000000 _pvHeapStart
100001a0 g       .text	00000000 __section_table_end
10000b10 g     F .text	0000001c Chip_Clock_DisableMainPLL
100001c4  w    F .text	00000002 GINT0_IRQHandler
100001c4  w    F .text	00000002 DAC_IRQHandler
10004fe8 g     F .text	00000000 __sys_remove
10004e5a g     F .text	00000030 __aeabi_dcmpeq
1000530c g       .data	00000000 _edata
100001c4  w    F .text	00000002 M0SUB_IRQHandler
10000fe4 g     F .text	000000b8 Chip_SetupCoreClock
10005460 g     O .bss	00000004 __heaps
10004fb8 g     F .text	00000000 __sys_appexit
100001c4  w    F .text	00000002 GPIO0_IRQHandler
10000000 g     O .text	00000114 g_pfnVectors
100003d0 g     F .text	00000098 ResetISR
10000698 g     F .text	00000018 SystemCoreClockUpdate
10004dc4 g     F .text	00000040 __aeabi_d2iz
10005464 g     O .bss	00000004 __end_of_heap
100001c4  w    F .text	00000002 DMA_IRQHandler
100001c4  w    F .text	00000002 EVRT_IRQHandler
100043c8 g     F .text	00000038 _Csys_alloc
100001ac  w    F .text	00000002 BusFault_Handler
10003aa4 g     F .text	000000a8 strlen
10000e74 g     F .text	00000060 Chip_Clock_Enable
100001c4  w    F .text	00000002 UART3_IRQHandler
100001c4  w    F .text	00000002 MCPWM_IRQHandler
10000518 g     F .text	0000002c Board_LED_Set
10088000 g     O .bss_RAM2	00000018 Instance
10002400 g     F .text	000000d4 _initio
100001c4  w    F .text	00000002 GINT1_IRQHandler
10005320 g     O .bss	00000140 __Ciob
10004fdc g     F .text	00000000 __sys_istty
10000d8c g     F .text	0000009c Chip_Clock_SetBaseClock
100001c4  w    F .text	00000002 GPIO4_IRQHandler
10004358 g     F .text	00000070 free
10000688 g     F .text	0000000e Board_SystemInit



Disassembly of section .text:

10000000 <g_pfnVectors>:
10000000:	00 00 02 10 d1 03 00 10 a1 01 00 10 a5 01 00 10     ................
10000010:	a9 01 00 10 ad 01 00 10 b1 01 00 10 00 00 00 00     ................
	...
1000002c:	b5 01 00 10 b9 01 00 10 00 00 00 00 bd 01 00 10     ................
1000003c:	c1 01 00 10 c5 01 00 10 c5 01 00 10 c5 01 00 10     ................
1000004c:	00 00 00 00 c5 01 00 10 c5 01 00 10 c5 01 00 10     ................
1000005c:	c5 01 00 10 c5 01 00 10 c5 01 00 10 c5 01 00 10     ................
1000006c:	c5 01 00 10 c5 01 00 10 c5 01 00 10 c5 01 00 10     ................
1000007c:	c5 01 00 10 c5 01 00 10 c5 01 00 10 c5 01 00 10     ................
1000008c:	c5 01 00 10 c5 01 00 10 c5 01 00 10 c5 01 00 10     ................
1000009c:	c5 01 00 10 c5 01 00 10 c5 01 00 10 c5 01 00 10     ................
100000ac:	c5 01 00 10 c5 01 00 10 c5 01 00 10 c5 01 00 10     ................
100000bc:	c5 01 00 10 c5 01 00 10 c5 01 00 10 c5 01 00 10     ................
100000cc:	c5 01 00 10 c5 01 00 10 c5 01 00 10 c5 01 00 10     ................
100000dc:	c5 01 00 10 c5 01 00 10 c5 01 00 10 c5 01 00 10     ................
100000ec:	c5 01 00 10 00 00 00 00 c5 01 00 10 c5 01 00 10     ................
100000fc:	c5 01 00 10 00 00 00 00 c5 01 00 10 c5 01 00 10     ................
1000010c:	c5 01 00 10 c5 01 00 10                             ........

10000114 <__data_section_table>:
10000114:	10005228 	.word	0x10005228
10000118:	10005228 	.word	0x10005228
1000011c:	000000e4 	.word	0x000000e4
10000120:	10005228 	.word	0x10005228
10000124:	10080000 	.word	0x10080000
10000128:	00000000 	.word	0x00000000
1000012c:	10005228 	.word	0x10005228
10000130:	20000000 	.word	0x20000000
10000134:	00000000 	.word	0x00000000
10000138:	10005228 	.word	0x10005228
1000013c:	20008000 	.word	0x20008000
10000140:	00000000 	.word	0x00000000
10000144:	10005228 	.word	0x10005228
10000148:	2000c000 	.word	0x2000c000
1000014c:	00000000 	.word	0x00000000
10000150:	10005228 	.word	0x10005228
10000154:	18000000 	.word	0x18000000
10000158:	00000000 	.word	0x00000000
1000015c:	10005228 	.word	0x10005228
10000160:	18004000 	.word	0x18004000
10000164:	00000000 	.word	0x00000000

10000168 <__bss_section_table>:
10000168:	1000530c 	.word	0x1000530c
1000016c:	0000015c 	.word	0x0000015c
10000170:	10080000 	.word	0x10080000
10000174:	00008018 	.word	0x00008018
10000178:	20000000 	.word	0x20000000
1000017c:	00000000 	.word	0x00000000
10000180:	20008000 	.word	0x20008000
10000184:	00000000 	.word	0x00000000
10000188:	2000c000 	.word	0x2000c000
1000018c:	00000000 	.word	0x00000000
10000190:	18000000 	.word	0x18000000
10000194:	00000000 	.word	0x00000000
10000198:	18004000 	.word	0x18004000
1000019c:	00000000 	.word	0x00000000

100001a0 <NMI_Handler>:
100001a0:	e7fe      	b.n	100001a0 <NMI_Handler>
100001a2:	bf00      	nop

100001a4 <HardFault_Handler>:
100001a4:	e7fe      	b.n	100001a4 <HardFault_Handler>
100001a6:	bf00      	nop

100001a8 <MemManage_Handler>:
100001a8:	e7fe      	b.n	100001a8 <MemManage_Handler>
100001aa:	bf00      	nop

100001ac <BusFault_Handler>:
100001ac:	e7fe      	b.n	100001ac <BusFault_Handler>
100001ae:	bf00      	nop

100001b0 <UsageFault_Handler>:
100001b0:	e7fe      	b.n	100001b0 <UsageFault_Handler>
100001b2:	bf00      	nop

100001b4 <SVC_Handler>:
100001b4:	e7fe      	b.n	100001b4 <SVC_Handler>
100001b6:	bf00      	nop

100001b8 <DebugMon_Handler>:
100001b8:	e7fe      	b.n	100001b8 <DebugMon_Handler>
100001ba:	bf00      	nop

100001bc <PendSV_Handler>:
100001bc:	e7fe      	b.n	100001bc <PendSV_Handler>
100001be:	bf00      	nop

100001c0 <SysTick_Handler>:
100001c0:	e7fe      	b.n	100001c0 <SysTick_Handler>
100001c2:	bf00      	nop

100001c4 <ADC0_IRQHandler>:
100001c4:	e7fe      	b.n	100001c4 <ADC0_IRQHandler>
100001c6:	bf00      	nop

100001c8 <data_init>:
100001c8:	b162      	cbz	r2, 100001e4 <data_init+0x1c>
100001ca:	b410      	push	{r4}
100001cc:	4614      	mov	r4, r2
100001ce:	3904      	subs	r1, #4
100001d0:	2300      	movs	r3, #0
100001d2:	f850 2b04 	ldr.w	r2, [r0], #4
100001d6:	f841 2f04 	str.w	r2, [r1, #4]!
100001da:	3304      	adds	r3, #4
100001dc:	429c      	cmp	r4, r3
100001de:	d8f8      	bhi.n	100001d2 <data_init+0xa>
100001e0:	f85d 4b04 	ldr.w	r4, [sp], #4
100001e4:	4770      	bx	lr
100001e6:	bf00      	nop

100001e8 <bss_init>:
100001e8:	b151      	cbz	r1, 10000200 <bss_init+0x18>
100001ea:	b410      	push	{r4}
100001ec:	4603      	mov	r3, r0
100001ee:	460c      	mov	r4, r1
100001f0:	2100      	movs	r1, #0
100001f2:	f843 1b04 	str.w	r1, [r3], #4
100001f6:	1a1a      	subs	r2, r3, r0
100001f8:	42a2      	cmp	r2, r4
100001fa:	d3fa      	bcc.n	100001f2 <bss_init+0xa>
100001fc:	f85d 4b04 	ldr.w	r4, [sp], #4
10000200:	4770      	bx	lr
10000202:	bf00      	nop
10000204:	ffff ffff 			; <UNDEFINED> instruction: 0xffffffff
10000208:	ffff ffff 			; <UNDEFINED> instruction: 0xffffffff
1000020c:	ffff ffff 			; <UNDEFINED> instruction: 0xffffffff
10000210:	ffff ffff 			; <UNDEFINED> instruction: 0xffffffff
10000214:	ffff ffff 			; <UNDEFINED> instruction: 0xffffffff
10000218:	ffff ffff 			; <UNDEFINED> instruction: 0xffffffff
1000021c:	ffff ffff 			; <UNDEFINED> instruction: 0xffffffff
10000220:	ffff ffff 			; <UNDEFINED> instruction: 0xffffffff
10000224:	ffff ffff 			; <UNDEFINED> instruction: 0xffffffff
10000228:	ffff ffff 			; <UNDEFINED> instruction: 0xffffffff
1000022c:	ffff ffff 			; <UNDEFINED> instruction: 0xffffffff
10000230:	ffff ffff 			; <UNDEFINED> instruction: 0xffffffff
10000234:	ffff ffff 			; <UNDEFINED> instruction: 0xffffffff
10000238:	ffff ffff 			; <UNDEFINED> instruction: 0xffffffff
1000023c:	ffff ffff 			; <UNDEFINED> instruction: 0xffffffff
10000240:	ffff ffff 			; <UNDEFINED> instruction: 0xffffffff
10000244:	ffff ffff 			; <UNDEFINED> instruction: 0xffffffff
10000248:	ffff ffff 			; <UNDEFINED> instruction: 0xffffffff
1000024c:	ffff ffff 			; <UNDEFINED> instruction: 0xffffffff
10000250:	ffff ffff 			; <UNDEFINED> instruction: 0xffffffff
10000254:	ffff ffff 			; <UNDEFINED> instruction: 0xffffffff
10000258:	ffff ffff 			; <UNDEFINED> instruction: 0xffffffff
1000025c:	ffff ffff 			; <UNDEFINED> instruction: 0xffffffff
10000260:	ffff ffff 			; <UNDEFINED> instruction: 0xffffffff
10000264:	ffff ffff 			; <UNDEFINED> instruction: 0xffffffff
10000268:	ffff ffff 			; <UNDEFINED> instruction: 0xffffffff
1000026c:	ffff ffff 			; <UNDEFINED> instruction: 0xffffffff
10000270:	ffff ffff 			; <UNDEFINED> instruction: 0xffffffff
10000274:	ffff ffff 			; <UNDEFINED> instruction: 0xffffffff
10000278:	ffff ffff 			; <UNDEFINED> instruction: 0xffffffff
1000027c:	ffff ffff 			; <UNDEFINED> instruction: 0xffffffff
10000280:	ffff ffff 			; <UNDEFINED> instruction: 0xffffffff
10000284:	ffff ffff 			; <UNDEFINED> instruction: 0xffffffff
10000288:	ffff ffff 			; <UNDEFINED> instruction: 0xffffffff
1000028c:	ffff ffff 			; <UNDEFINED> instruction: 0xffffffff
10000290:	ffff ffff 			; <UNDEFINED> instruction: 0xffffffff
10000294:	ffff ffff 			; <UNDEFINED> instruction: 0xffffffff
10000298:	ffff ffff 			; <UNDEFINED> instruction: 0xffffffff
1000029c:	ffff ffff 			; <UNDEFINED> instruction: 0xffffffff
100002a0:	ffff ffff 			; <UNDEFINED> instruction: 0xffffffff
100002a4:	ffff ffff 			; <UNDEFINED> instruction: 0xffffffff
100002a8:	ffff ffff 			; <UNDEFINED> instruction: 0xffffffff
100002ac:	ffff ffff 			; <UNDEFINED> instruction: 0xffffffff
100002b0:	ffff ffff 			; <UNDEFINED> instruction: 0xffffffff
100002b4:	ffff ffff 			; <UNDEFINED> instruction: 0xffffffff
100002b8:	ffff ffff 			; <UNDEFINED> instruction: 0xffffffff
100002bc:	ffff ffff 			; <UNDEFINED> instruction: 0xffffffff
100002c0:	ffff ffff 			; <UNDEFINED> instruction: 0xffffffff
100002c4:	ffff ffff 			; <UNDEFINED> instruction: 0xffffffff
100002c8:	ffff ffff 			; <UNDEFINED> instruction: 0xffffffff
100002cc:	ffff ffff 			; <UNDEFINED> instruction: 0xffffffff
100002d0:	ffff ffff 			; <UNDEFINED> instruction: 0xffffffff
100002d4:	ffff ffff 			; <UNDEFINED> instruction: 0xffffffff
100002d8:	ffff ffff 			; <UNDEFINED> instruction: 0xffffffff
100002dc:	ffff ffff 			; <UNDEFINED> instruction: 0xffffffff
100002e0:	ffff ffff 			; <UNDEFINED> instruction: 0xffffffff
100002e4:	ffff ffff 			; <UNDEFINED> instruction: 0xffffffff
100002e8:	ffff ffff 			; <UNDEFINED> instruction: 0xffffffff
100002ec:	ffff ffff 			; <UNDEFINED> instruction: 0xffffffff
100002f0:	ffff ffff 			; <UNDEFINED> instruction: 0xffffffff
100002f4:	ffff ffff 			; <UNDEFINED> instruction: 0xffffffff
100002f8:	ffff ffff 			; <UNDEFINED> instruction: 0xffffffff

100002fc <CRP_WORD>:
100002fc:	ffff ffff                                   ....

10000300 <main>:
10000300:	e92d 43f8 	stmdb	sp!, {r3, r4, r5, r6, r7, r8, r9, lr}
10000304:	f000 f9c8 	bl	10000698 <SystemCoreClockUpdate>
10000308:	f000 f91c 	bl	10000544 <Board_Init>
1000030c:	2000      	movs	r0, #0
1000030e:	2101      	movs	r1, #1
10000310:	f000 f902 	bl	10000518 <Board_LED_Set>
10000314:	4c26      	ldr	r4, [pc, #152]	; (100003b0 <main+0xb0>)
10000316:	4620      	mov	r0, r4
10000318:	f000 fee8 	bl	100010ec <Chip_TIMER_Init>
1000031c:	4620      	mov	r0, r4
1000031e:	f000 fef3 	bl	10001108 <Chip_TIMER_Reset>
10000322:	2300      	movs	r3, #0
10000324:	6063      	str	r3, [r4, #4]
10000326:	4d23      	ldr	r5, [pc, #140]	; (100003b4 <main+0xb4>)
10000328:	1f2c      	subs	r4, r5, #4
1000032a:	f505 45ff 	add.w	r5, r5, #32640	; 0x7f80
1000032e:	357c      	adds	r5, #124	; 0x7c
10000330:	f003 fb7a 	bl	10003a28 <rand>
10000334:	f844 0f04 	str.w	r0, [r4, #4]!
10000338:	42ac      	cmp	r4, r5
1000033a:	d1f9      	bne.n	10000330 <main+0x30>
1000033c:	f44f 5500 	mov.w	r5, #8192	; 0x2000
10000340:	2600      	movs	r6, #0
10000342:	2700      	movs	r7, #0
10000344:	f003 fb70 	bl	10003a28 <rand>
10000348:	4604      	mov	r4, r0
1000034a:	f003 fb6d 	bl	10003a28 <rand>
1000034e:	17e3      	asrs	r3, r4, #31
10000350:	ea4f 79e0 	mov.w	r9, r0, asr #31
10000354:	fb04 f109 	mul.w	r1, r4, r9
10000358:	fb00 1103 	mla	r1, r0, r3, r1
1000035c:	fba4 2300 	umull	r2, r3, r4, r0
10000360:	440b      	add	r3, r1
10000362:	18b6      	adds	r6, r6, r2
10000364:	415f      	adcs	r7, r3
10000366:	3d01      	subs	r5, #1
10000368:	d1ec      	bne.n	10000344 <main+0x44>
1000036a:	4813      	ldr	r0, [pc, #76]	; (100003b8 <main+0xb8>)
1000036c:	4632      	mov	r2, r6
1000036e:	463b      	mov	r3, r7
10000370:	f001 ff8a 	bl	10002288 <printf>
10000374:	4811      	ldr	r0, [pc, #68]	; (100003bc <main+0xbc>)
10000376:	f001 ff87 	bl	10002288 <printf>
1000037a:	4811      	ldr	r0, [pc, #68]	; (100003c0 <main+0xc0>)
1000037c:	4911      	ldr	r1, [pc, #68]	; (100003c4 <main+0xc4>)
1000037e:	f001 ff83 	bl	10002288 <printf>
10000382:	2000      	movs	r0, #0
10000384:	f001 ff80 	bl	10002288 <printf>
10000388:	480f      	ldr	r0, [pc, #60]	; (100003c8 <main+0xc8>)
1000038a:	2104      	movs	r1, #4
1000038c:	2209      	movs	r2, #9
1000038e:	2303      	movs	r3, #3
10000390:	f001 ff7a 	bl	10002288 <printf>
10000394:	4c06      	ldr	r4, [pc, #24]	; (100003b0 <main+0xb0>)
10000396:	2601      	movs	r6, #1
10000398:	4d0c      	ldr	r5, [pc, #48]	; (100003cc <main+0xcc>)
1000039a:	4620      	mov	r0, r4
1000039c:	f000 feb4 	bl	10001108 <Chip_TIMER_Reset>
100003a0:	6066      	str	r6, [r4, #4]
100003a2:	2300      	movs	r3, #0
100003a4:	6063      	str	r3, [r4, #4]
100003a6:	68a1      	ldr	r1, [r4, #8]
100003a8:	4628      	mov	r0, r5
100003aa:	f001 ff6d 	bl	10002288 <printf>
100003ae:	e7f4      	b.n	1000039a <main+0x9a>
100003b0:	40084000 	.word	0x40084000
100003b4:	10080000 	.word	0x10080000
100003b8:	10005018 	.word	0x10005018
100003bc:	1000501c 	.word	0x1000501c
100003c0:	1000503c 	.word	0x1000503c
100003c4:	10005078 	.word	0x10005078
100003c8:	10005050 	.word	0x10005050
100003cc:	10005068 	.word	0x10005068

100003d0 <ResetISR>:
100003d0:	b538      	push	{r3, r4, r5, lr}
100003d2:	b672      	cpsid	i
100003d4:	4a1d      	ldr	r2, [pc, #116]	; (1000044c <ResetISR+0x7c>)
100003d6:	4b1e      	ldr	r3, [pc, #120]	; (10000450 <ResetISR+0x80>)
100003d8:	601a      	str	r2, [r3, #0]
100003da:	4a1e      	ldr	r2, [pc, #120]	; (10000454 <ResetISR+0x84>)
100003dc:	3304      	adds	r3, #4
100003de:	601a      	str	r2, [r3, #0]
100003e0:	f04f 33ff 	mov.w	r3, #4294967295
100003e4:	4a1c      	ldr	r2, [pc, #112]	; (10000458 <ResetISR+0x88>)
100003e6:	6013      	str	r3, [r2, #0]
100003e8:	3204      	adds	r2, #4
100003ea:	6013      	str	r3, [r2, #0]
100003ec:	3204      	adds	r2, #4
100003ee:	6013      	str	r3, [r2, #0]
100003f0:	3204      	adds	r2, #4
100003f2:	6013      	str	r3, [r2, #0]
100003f4:	3204      	adds	r2, #4
100003f6:	6013      	str	r3, [r2, #0]
100003f8:	3204      	adds	r2, #4
100003fa:	6013      	str	r3, [r2, #0]
100003fc:	3204      	adds	r2, #4
100003fe:	6013      	str	r3, [r2, #0]
10000400:	3204      	adds	r2, #4
10000402:	6013      	str	r3, [r2, #0]
10000404:	b662      	cpsie	i
10000406:	f000 f82f 	bl	10000468 <SystemInit>
1000040a:	4b14      	ldr	r3, [pc, #80]	; (1000045c <ResetISR+0x8c>)
1000040c:	4a14      	ldr	r2, [pc, #80]	; (10000460 <ResetISR+0x90>)
1000040e:	429a      	cmp	r2, r3
10000410:	d20b      	bcs.n	1000042a <ResetISR+0x5a>
10000412:	4614      	mov	r4, r2
10000414:	461d      	mov	r5, r3
10000416:	6820      	ldr	r0, [r4, #0]
10000418:	6861      	ldr	r1, [r4, #4]
1000041a:	340c      	adds	r4, #12
1000041c:	f854 2c04 	ldr.w	r2, [r4, #-4]
10000420:	f7ff fed2 	bl	100001c8 <data_init>
10000424:	42ac      	cmp	r4, r5
10000426:	d3f6      	bcc.n	10000416 <ResetISR+0x46>
10000428:	e000      	b.n	1000042c <ResetISR+0x5c>
1000042a:	4c0d      	ldr	r4, [pc, #52]	; (10000460 <ResetISR+0x90>)
1000042c:	4b0d      	ldr	r3, [pc, #52]	; (10000464 <ResetISR+0x94>)
1000042e:	429c      	cmp	r4, r3
10000430:	d208      	bcs.n	10000444 <ResetISR+0x74>
10000432:	461d      	mov	r5, r3
10000434:	f854 0b08 	ldr.w	r0, [r4], #8
10000438:	f854 1c04 	ldr.w	r1, [r4, #-4]
1000043c:	f7ff fed4 	bl	100001e8 <bss_init>
10000440:	42ac      	cmp	r4, r5
10000442:	d3f7      	bcc.n	10000434 <ResetISR+0x64>
10000444:	f000 fe7e 	bl	10001144 <__main>
10000448:	e7fe      	b.n	10000448 <ResetISR+0x78>
1000044a:	bf00      	nop
1000044c:	10df1000 	.word	0x10df1000
10000450:	40053100 	.word	0x40053100
10000454:	01dff7ff 	.word	0x01dff7ff
10000458:	e000e280 	.word	0xe000e280
1000045c:	10000168 	.word	0x10000168
10000460:	10000114 	.word	0x10000114
10000464:	100001a0 	.word	0x100001a0

10000468 <SystemInit>:
10000468:	b508      	push	{r3, lr}
1000046a:	4a04      	ldr	r2, [pc, #16]	; (1000047c <SystemInit+0x14>)
1000046c:	4b04      	ldr	r3, [pc, #16]	; (10000480 <SystemInit+0x18>)
1000046e:	601a      	str	r2, [r3, #0]
10000470:	f000 fd74 	bl	10000f5c <fpuInit>
10000474:	f000 f908 	bl	10000688 <Board_SystemInit>
10000478:	bd08      	pop	{r3, pc}
1000047a:	bf00      	nop
1000047c:	10000000 	.word	0x10000000
10000480:	e000ed08 	.word	0xe000ed08

10000484 <Chip_GPIO_SetPinState>:
10000484:	b480      	push	{r7}
10000486:	b083      	sub	sp, #12
10000488:	af00      	add	r7, sp, #0
1000048a:	6078      	str	r0, [r7, #4]
1000048c:	4608      	mov	r0, r1
1000048e:	4611      	mov	r1, r2
10000490:	461a      	mov	r2, r3
10000492:	4603      	mov	r3, r0
10000494:	70fb      	strb	r3, [r7, #3]
10000496:	460b      	mov	r3, r1
10000498:	70bb      	strb	r3, [r7, #2]
1000049a:	4613      	mov	r3, r2
1000049c:	707b      	strb	r3, [r7, #1]
1000049e:	78f9      	ldrb	r1, [r7, #3]
100004a0:	78bb      	ldrb	r3, [r7, #2]
100004a2:	7878      	ldrb	r0, [r7, #1]
100004a4:	687a      	ldr	r2, [r7, #4]
100004a6:	0149      	lsls	r1, r1, #5
100004a8:	440b      	add	r3, r1
100004aa:	4413      	add	r3, r2
100004ac:	4602      	mov	r2, r0
100004ae:	701a      	strb	r2, [r3, #0]
100004b0:	370c      	adds	r7, #12
100004b2:	46bd      	mov	sp, r7
100004b4:	f85d 7b04 	ldr.w	r7, [sp], #4
100004b8:	4770      	bx	lr
100004ba:	bf00      	nop

100004bc <Chip_GPIO_SetPinDIROutput>:
100004bc:	b480      	push	{r7}
100004be:	b083      	sub	sp, #12
100004c0:	af00      	add	r7, sp, #0
100004c2:	6078      	str	r0, [r7, #4]
100004c4:	460b      	mov	r3, r1
100004c6:	70fb      	strb	r3, [r7, #3]
100004c8:	4613      	mov	r3, r2
100004ca:	70bb      	strb	r3, [r7, #2]
100004cc:	78fa      	ldrb	r2, [r7, #3]
100004ce:	78f9      	ldrb	r1, [r7, #3]
100004d0:	687b      	ldr	r3, [r7, #4]
100004d2:	f501 6100 	add.w	r1, r1, #2048	; 0x800
100004d6:	f853 1021 	ldr.w	r1, [r3, r1, lsl #2]
100004da:	78bb      	ldrb	r3, [r7, #2]
100004dc:	2001      	movs	r0, #1
100004de:	fa00 f303 	lsl.w	r3, r0, r3
100004e2:	4319      	orrs	r1, r3
100004e4:	687b      	ldr	r3, [r7, #4]
100004e6:	f502 6200 	add.w	r2, r2, #2048	; 0x800
100004ea:	f843 1022 	str.w	r1, [r3, r2, lsl #2]
100004ee:	370c      	adds	r7, #12
100004f0:	46bd      	mov	sp, r7
100004f2:	f85d 7b04 	ldr.w	r7, [sp], #4
100004f6:	4770      	bx	lr

100004f8 <Board_LED_Init>:
100004f8:	b580      	push	{r7, lr}
100004fa:	af00      	add	r7, sp, #0
100004fc:	4805      	ldr	r0, [pc, #20]	; (10000514 <Board_LED_Init+0x1c>)
100004fe:	2100      	movs	r1, #0
10000500:	2208      	movs	r2, #8
10000502:	f7ff ffdb 	bl	100004bc <Chip_GPIO_SetPinDIROutput>
10000506:	4803      	ldr	r0, [pc, #12]	; (10000514 <Board_LED_Init+0x1c>)
10000508:	2100      	movs	r1, #0
1000050a:	2208      	movs	r2, #8
1000050c:	2300      	movs	r3, #0
1000050e:	f7ff ffb9 	bl	10000484 <Chip_GPIO_SetPinState>
10000512:	bd80      	pop	{r7, pc}
10000514:	400f4000 	.word	0x400f4000

10000518 <Board_LED_Set>:
10000518:	b580      	push	{r7, lr}
1000051a:	b082      	sub	sp, #8
1000051c:	af00      	add	r7, sp, #0
1000051e:	4603      	mov	r3, r0
10000520:	460a      	mov	r2, r1
10000522:	71fb      	strb	r3, [r7, #7]
10000524:	4613      	mov	r3, r2
10000526:	71bb      	strb	r3, [r7, #6]
10000528:	79fb      	ldrb	r3, [r7, #7]
1000052a:	2b00      	cmp	r3, #0
1000052c:	d105      	bne.n	1000053a <Board_LED_Set+0x22>
1000052e:	79bb      	ldrb	r3, [r7, #6]
10000530:	4803      	ldr	r0, [pc, #12]	; (10000540 <Board_LED_Set+0x28>)
10000532:	2100      	movs	r1, #0
10000534:	2208      	movs	r2, #8
10000536:	f7ff ffa5 	bl	10000484 <Chip_GPIO_SetPinState>
1000053a:	3708      	adds	r7, #8
1000053c:	46bd      	mov	sp, r7
1000053e:	bd80      	pop	{r7, pc}
10000540:	400f4000 	.word	0x400f4000

10000544 <Board_Init>:
10000544:	b580      	push	{r7, lr}
10000546:	af00      	add	r7, sp, #0
10000548:	4802      	ldr	r0, [pc, #8]	; (10000554 <Board_Init+0x10>)
1000054a:	f000 fd41 	bl	10000fd0 <Chip_GPIO_Init>
1000054e:	f7ff ffd3 	bl	100004f8 <Board_LED_Init>
10000552:	bd80      	pop	{r7, pc}
10000554:	400f4000 	.word	0x400f4000

10000558 <Chip_SCU_PinMuxSet>:
10000558:	b480      	push	{r7}
1000055a:	b083      	sub	sp, #12
1000055c:	af00      	add	r7, sp, #0
1000055e:	4603      	mov	r3, r0
10000560:	71fb      	strb	r3, [r7, #7]
10000562:	460b      	mov	r3, r1
10000564:	71bb      	strb	r3, [r7, #6]
10000566:	4613      	mov	r3, r2
10000568:	80bb      	strh	r3, [r7, #4]
1000056a:	4806      	ldr	r0, [pc, #24]	; (10000584 <Chip_SCU_PinMuxSet+0x2c>)
1000056c:	79f9      	ldrb	r1, [r7, #7]
1000056e:	79bb      	ldrb	r3, [r7, #6]
10000570:	88ba      	ldrh	r2, [r7, #4]
10000572:	0149      	lsls	r1, r1, #5
10000574:	440b      	add	r3, r1
10000576:	f840 2023 	str.w	r2, [r0, r3, lsl #2]
1000057a:	370c      	adds	r7, #12
1000057c:	46bd      	mov	sp, r7
1000057e:	f85d 7b04 	ldr.w	r7, [sp], #4
10000582:	4770      	bx	lr
10000584:	40086000 	.word	0x40086000

10000588 <Chip_SCU_SetPinMuxing>:
10000588:	b580      	push	{r7, lr}
1000058a:	b084      	sub	sp, #16
1000058c:	af00      	add	r7, sp, #0
1000058e:	6078      	str	r0, [r7, #4]
10000590:	6039      	str	r1, [r7, #0]
10000592:	2300      	movs	r3, #0
10000594:	60fb      	str	r3, [r7, #12]
10000596:	e014      	b.n	100005c2 <Chip_SCU_SetPinMuxing+0x3a>
10000598:	68fb      	ldr	r3, [r7, #12]
1000059a:	009b      	lsls	r3, r3, #2
1000059c:	687a      	ldr	r2, [r7, #4]
1000059e:	4413      	add	r3, r2
100005a0:	7818      	ldrb	r0, [r3, #0]
100005a2:	68fb      	ldr	r3, [r7, #12]
100005a4:	009b      	lsls	r3, r3, #2
100005a6:	687a      	ldr	r2, [r7, #4]
100005a8:	4413      	add	r3, r2
100005aa:	7859      	ldrb	r1, [r3, #1]
100005ac:	68fb      	ldr	r3, [r7, #12]
100005ae:	009b      	lsls	r3, r3, #2
100005b0:	687a      	ldr	r2, [r7, #4]
100005b2:	4413      	add	r3, r2
100005b4:	885b      	ldrh	r3, [r3, #2]
100005b6:	461a      	mov	r2, r3
100005b8:	f7ff ffce 	bl	10000558 <Chip_SCU_PinMuxSet>
100005bc:	68fb      	ldr	r3, [r7, #12]
100005be:	3301      	adds	r3, #1
100005c0:	60fb      	str	r3, [r7, #12]
100005c2:	68fa      	ldr	r2, [r7, #12]
100005c4:	683b      	ldr	r3, [r7, #0]
100005c6:	429a      	cmp	r2, r3
100005c8:	d3e6      	bcc.n	10000598 <Chip_SCU_SetPinMuxing+0x10>
100005ca:	3710      	adds	r7, #16
100005cc:	46bd      	mov	sp, r7
100005ce:	bd80      	pop	{r7, pc}

100005d0 <Board_SetupMuxing>:
100005d0:	b580      	push	{r7, lr}
100005d2:	af00      	add	r7, sp, #0
100005d4:	4804      	ldr	r0, [pc, #16]	; (100005e8 <Board_SetupMuxing+0x18>)
100005d6:	2101      	movs	r1, #1
100005d8:	f7ff ffd6 	bl	10000588 <Chip_SCU_SetPinMuxing>
100005dc:	4803      	ldr	r0, [pc, #12]	; (100005ec <Board_SetupMuxing+0x1c>)
100005de:	2106      	movs	r1, #6
100005e0:	f7ff ffd2 	bl	10000588 <Chip_SCU_SetPinMuxing>
100005e4:	bd80      	pop	{r7, pc}
100005e6:	bf00      	nop
100005e8:	100050ac 	.word	0x100050ac
100005ec:	10005094 	.word	0x10005094

100005f0 <Board_SetupClocking>:
100005f0:	b590      	push	{r4, r7, lr}
100005f2:	b083      	sub	sp, #12
100005f4:	af00      	add	r7, sp, #0
100005f6:	2006      	movs	r0, #6
100005f8:	4920      	ldr	r1, [pc, #128]	; (1000067c <Board_SetupClocking+0x8c>)
100005fa:	2201      	movs	r2, #1
100005fc:	f000 fcf2 	bl	10000fe4 <Chip_SetupCoreClock>
10000600:	2300      	movs	r3, #0
10000602:	607b      	str	r3, [r7, #4]
10000604:	e018      	b.n	10000638 <Board_SetupClocking+0x48>
10000606:	4a1e      	ldr	r2, [pc, #120]	; (10000680 <Board_SetupClocking+0x90>)
10000608:	687b      	ldr	r3, [r7, #4]
1000060a:	f812 0023 	ldrb.w	r0, [r2, r3, lsl #2]
1000060e:	4a1c      	ldr	r2, [pc, #112]	; (10000680 <Board_SetupClocking+0x90>)
10000610:	687b      	ldr	r3, [r7, #4]
10000612:	009b      	lsls	r3, r3, #2
10000614:	4413      	add	r3, r2
10000616:	7859      	ldrb	r1, [r3, #1]
10000618:	4a19      	ldr	r2, [pc, #100]	; (10000680 <Board_SetupClocking+0x90>)
1000061a:	687b      	ldr	r3, [r7, #4]
1000061c:	009b      	lsls	r3, r3, #2
1000061e:	4413      	add	r3, r2
10000620:	789c      	ldrb	r4, [r3, #2]
10000622:	4a17      	ldr	r2, [pc, #92]	; (10000680 <Board_SetupClocking+0x90>)
10000624:	687b      	ldr	r3, [r7, #4]
10000626:	009b      	lsls	r3, r3, #2
10000628:	4413      	add	r3, r2
1000062a:	78db      	ldrb	r3, [r3, #3]
1000062c:	4622      	mov	r2, r4
1000062e:	f000 fbad 	bl	10000d8c <Chip_Clock_SetBaseClock>
10000632:	687b      	ldr	r3, [r7, #4]
10000634:	3301      	adds	r3, #1
10000636:	607b      	str	r3, [r7, #4]
10000638:	687b      	ldr	r3, [r7, #4]
1000063a:	2b03      	cmp	r3, #3
1000063c:	d9e3      	bls.n	10000606 <Board_SetupClocking+0x16>
1000063e:	4a11      	ldr	r2, [pc, #68]	; (10000684 <Board_SetupClocking+0x94>)
10000640:	4b10      	ldr	r3, [pc, #64]	; (10000684 <Board_SetupClocking+0x94>)
10000642:	685b      	ldr	r3, [r3, #4]
10000644:	f023 030c 	bic.w	r3, r3, #12
10000648:	6053      	str	r3, [r2, #4]
1000064a:	4a0e      	ldr	r2, [pc, #56]	; (10000684 <Board_SetupClocking+0x94>)
1000064c:	4b0d      	ldr	r3, [pc, #52]	; (10000684 <Board_SetupClocking+0x94>)
1000064e:	685b      	ldr	r3, [r3, #4]
10000650:	f043 0303 	orr.w	r3, r3, #3
10000654:	6053      	str	r3, [r2, #4]
10000656:	2004      	movs	r0, #4
10000658:	2109      	movs	r1, #9
1000065a:	2205      	movs	r2, #5
1000065c:	f000 fa66 	bl	10000b2c <Chip_Clock_SetDivider>
10000660:	2005      	movs	r0, #5
10000662:	2110      	movs	r1, #16
10000664:	2201      	movs	r2, #1
10000666:	2300      	movs	r3, #0
10000668:	f000 fb90 	bl	10000d8c <Chip_Clock_SetBaseClock>
1000066c:	2002      	movs	r0, #2
1000066e:	2109      	movs	r1, #9
10000670:	2202      	movs	r2, #2
10000672:	f000 fa5b 	bl	10000b2c <Chip_Clock_SetDivider>
10000676:	370c      	adds	r7, #12
10000678:	46bd      	mov	sp, r7
1000067a:	bd90      	pop	{r4, r7, pc}
1000067c:	0c28cb00 	.word	0x0c28cb00
10000680:	10005084 	.word	0x10005084
10000684:	40043000 	.word	0x40043000

10000688 <Board_SystemInit>:
10000688:	b580      	push	{r7, lr}
1000068a:	af00      	add	r7, sp, #0
1000068c:	f7ff ffa0 	bl	100005d0 <Board_SetupMuxing>
10000690:	f7ff ffae 	bl	100005f0 <Board_SetupClocking>
10000694:	bd80      	pop	{r7, pc}
10000696:	bf00      	nop

10000698 <SystemCoreClockUpdate>:
10000698:	b580      	push	{r7, lr}
1000069a:	af00      	add	r7, sp, #0
1000069c:	2069      	movs	r0, #105	; 0x69
1000069e:	f000 fc19 	bl	10000ed4 <Chip_Clock_GetRate>
100006a2:	4602      	mov	r2, r0
100006a4:	4b01      	ldr	r3, [pc, #4]	; (100006ac <SystemCoreClockUpdate+0x14>)
100006a6:	601a      	str	r2, [r3, #0]
100006a8:	bd80      	pop	{r7, pc}
100006aa:	bf00      	nop
100006ac:	10005318 	.word	0x10005318

100006b0 <Chip_Clock_TestMainPLLMultiplier>:
100006b0:	b480      	push	{r7}
100006b2:	b087      	sub	sp, #28
100006b4:	af00      	add	r7, sp, #0
100006b6:	60f8      	str	r0, [r7, #12]
100006b8:	60b9      	str	r1, [r7, #8]
100006ba:	607a      	str	r2, [r7, #4]
100006bc:	603b      	str	r3, [r7, #0]
100006be:	68bb      	ldr	r3, [r7, #8]
100006c0:	68fa      	ldr	r2, [r7, #12]
100006c2:	fb02 f303 	mul.w	r3, r2, r3
100006c6:	617b      	str	r3, [r7, #20]
100006c8:	697a      	ldr	r2, [r7, #20]
100006ca:	687b      	ldr	r3, [r7, #4]
100006cc:	429a      	cmp	r2, r3
100006ce:	d307      	bcc.n	100006e0 <Chip_Clock_TestMainPLLMultiplier+0x30>
100006d0:	697b      	ldr	r3, [r7, #20]
100006d2:	4a08      	ldr	r2, [pc, #32]	; (100006f4 <Chip_Clock_TestMainPLLMultiplier+0x44>)
100006d4:	4293      	cmp	r3, r2
100006d6:	d803      	bhi.n	100006e0 <Chip_Clock_TestMainPLLMultiplier+0x30>
100006d8:	697a      	ldr	r2, [r7, #20]
100006da:	683b      	ldr	r3, [r7, #0]
100006dc:	429a      	cmp	r2, r3
100006de:	d901      	bls.n	100006e4 <Chip_Clock_TestMainPLLMultiplier+0x34>
100006e0:	2300      	movs	r3, #0
100006e2:	617b      	str	r3, [r7, #20]
100006e4:	697b      	ldr	r3, [r7, #20]
100006e6:	4618      	mov	r0, r3
100006e8:	371c      	adds	r7, #28
100006ea:	46bd      	mov	sp, r7
100006ec:	f85d 7b04 	ldr.w	r7, [sp], #4
100006f0:	4770      	bx	lr
100006f2:	bf00      	nop
100006f4:	0c28cb00 	.word	0x0c28cb00

100006f8 <Chip_Clock_GetDivRate>:
100006f8:	b580      	push	{r7, lr}
100006fa:	b084      	sub	sp, #16
100006fc:	af00      	add	r7, sp, #0
100006fe:	4603      	mov	r3, r0
10000700:	460a      	mov	r2, r1
10000702:	71fb      	strb	r3, [r7, #7]
10000704:	4613      	mov	r3, r2
10000706:	71bb      	strb	r3, [r7, #6]
10000708:	79bb      	ldrb	r3, [r7, #6]
1000070a:	4618      	mov	r0, r3
1000070c:	f000 fa50 	bl	10000bb0 <Chip_Clock_GetDividerSource>
10000710:	4603      	mov	r3, r0
10000712:	73fb      	strb	r3, [r7, #15]
10000714:	79bb      	ldrb	r3, [r7, #6]
10000716:	4618      	mov	r0, r3
10000718:	f000 fa6a 	bl	10000bf0 <Chip_Clock_GetDividerDivisor>
1000071c:	60b8      	str	r0, [r7, #8]
1000071e:	7bfb      	ldrb	r3, [r7, #15]
10000720:	4618      	mov	r0, r3
10000722:	f000 fa81 	bl	10000c28 <Chip_Clock_GetClockInputHz>
10000726:	4602      	mov	r2, r0
10000728:	68bb      	ldr	r3, [r7, #8]
1000072a:	3301      	adds	r3, #1
1000072c:	fbb2 f3f3 	udiv	r3, r2, r3
10000730:	4618      	mov	r0, r3
10000732:	3710      	adds	r7, #16
10000734:	46bd      	mov	sp, r7
10000736:	bd80      	pop	{r7, pc}

10000738 <Chip_Clock_FindBaseClock>:
10000738:	b480      	push	{r7}
1000073a:	b085      	sub	sp, #20
1000073c:	af00      	add	r7, sp, #0
1000073e:	4603      	mov	r3, r0
10000740:	80fb      	strh	r3, [r7, #6]
10000742:	231c      	movs	r3, #28
10000744:	73fb      	strb	r3, [r7, #15]
10000746:	2300      	movs	r3, #0
10000748:	60bb      	str	r3, [r7, #8]
1000074a:	e022      	b.n	10000792 <Chip_Clock_FindBaseClock+0x5a>
1000074c:	491b      	ldr	r1, [pc, #108]	; (100007bc <Chip_Clock_FindBaseClock+0x84>)
1000074e:	68ba      	ldr	r2, [r7, #8]
10000750:	4613      	mov	r3, r2
10000752:	005b      	lsls	r3, r3, #1
10000754:	4413      	add	r3, r2
10000756:	005b      	lsls	r3, r3, #1
10000758:	440b      	add	r3, r1
1000075a:	881b      	ldrh	r3, [r3, #0]
1000075c:	88fa      	ldrh	r2, [r7, #6]
1000075e:	429a      	cmp	r2, r3
10000760:	d314      	bcc.n	1000078c <Chip_Clock_FindBaseClock+0x54>
10000762:	4916      	ldr	r1, [pc, #88]	; (100007bc <Chip_Clock_FindBaseClock+0x84>)
10000764:	68ba      	ldr	r2, [r7, #8]
10000766:	4613      	mov	r3, r2
10000768:	005b      	lsls	r3, r3, #1
1000076a:	4413      	add	r3, r2
1000076c:	005b      	lsls	r3, r3, #1
1000076e:	440b      	add	r3, r1
10000770:	885b      	ldrh	r3, [r3, #2]
10000772:	88fa      	ldrh	r2, [r7, #6]
10000774:	429a      	cmp	r2, r3
10000776:	d809      	bhi.n	1000078c <Chip_Clock_FindBaseClock+0x54>
10000778:	4910      	ldr	r1, [pc, #64]	; (100007bc <Chip_Clock_FindBaseClock+0x84>)
1000077a:	68ba      	ldr	r2, [r7, #8]
1000077c:	4613      	mov	r3, r2
1000077e:	005b      	lsls	r3, r3, #1
10000780:	4413      	add	r3, r2
10000782:	005b      	lsls	r3, r3, #1
10000784:	440b      	add	r3, r1
10000786:	791b      	ldrb	r3, [r3, #4]
10000788:	73fb      	strb	r3, [r7, #15]
1000078a:	e002      	b.n	10000792 <Chip_Clock_FindBaseClock+0x5a>
1000078c:	68bb      	ldr	r3, [r7, #8]
1000078e:	3301      	adds	r3, #1
10000790:	60bb      	str	r3, [r7, #8]
10000792:	7bfb      	ldrb	r3, [r7, #15]
10000794:	2b1c      	cmp	r3, #28
10000796:	d10a      	bne.n	100007ae <Chip_Clock_FindBaseClock+0x76>
10000798:	4908      	ldr	r1, [pc, #32]	; (100007bc <Chip_Clock_FindBaseClock+0x84>)
1000079a:	68ba      	ldr	r2, [r7, #8]
1000079c:	4613      	mov	r3, r2
1000079e:	005b      	lsls	r3, r3, #1
100007a0:	4413      	add	r3, r2
100007a2:	005b      	lsls	r3, r3, #1
100007a4:	440b      	add	r3, r1
100007a6:	791b      	ldrb	r3, [r3, #4]
100007a8:	7bfa      	ldrb	r2, [r7, #15]
100007aa:	429a      	cmp	r2, r3
100007ac:	d1ce      	bne.n	1000074c <Chip_Clock_FindBaseClock+0x14>
100007ae:	7bfb      	ldrb	r3, [r7, #15]
100007b0:	4618      	mov	r0, r3
100007b2:	3714      	adds	r7, #20
100007b4:	46bd      	mov	sp, r7
100007b6:	f85d 7b04 	ldr.w	r7, [sp], #4
100007ba:	4770      	bx	lr
100007bc:	100050b0 	.word	0x100050b0

100007c0 <Chip_Clock_EnableCrystal>:
100007c0:	b480      	push	{r7}
100007c2:	b083      	sub	sp, #12
100007c4:	af00      	add	r7, sp, #0
100007c6:	f44f 737a 	mov.w	r3, #1000	; 0x3e8
100007ca:	603b      	str	r3, [r7, #0]
100007cc:	4b14      	ldr	r3, [pc, #80]	; (10000820 <Chip_Clock_EnableCrystal+0x60>)
100007ce:	699b      	ldr	r3, [r3, #24]
100007d0:	607b      	str	r3, [r7, #4]
100007d2:	687b      	ldr	r3, [r7, #4]
100007d4:	f023 0302 	bic.w	r3, r3, #2
100007d8:	607b      	str	r3, [r7, #4]
100007da:	4b11      	ldr	r3, [pc, #68]	; (10000820 <Chip_Clock_EnableCrystal+0x60>)
100007dc:	699a      	ldr	r2, [r3, #24]
100007de:	687b      	ldr	r3, [r7, #4]
100007e0:	429a      	cmp	r2, r3
100007e2:	d002      	beq.n	100007ea <Chip_Clock_EnableCrystal+0x2a>
100007e4:	4a0e      	ldr	r2, [pc, #56]	; (10000820 <Chip_Clock_EnableCrystal+0x60>)
100007e6:	687b      	ldr	r3, [r7, #4]
100007e8:	6193      	str	r3, [r2, #24]
100007ea:	687b      	ldr	r3, [r7, #4]
100007ec:	f023 0301 	bic.w	r3, r3, #1
100007f0:	607b      	str	r3, [r7, #4]
100007f2:	4b0c      	ldr	r3, [pc, #48]	; (10000824 <Chip_Clock_EnableCrystal+0x64>)
100007f4:	681b      	ldr	r3, [r3, #0]
100007f6:	4a0c      	ldr	r2, [pc, #48]	; (10000828 <Chip_Clock_EnableCrystal+0x68>)
100007f8:	4293      	cmp	r3, r2
100007fa:	d903      	bls.n	10000804 <Chip_Clock_EnableCrystal+0x44>
100007fc:	687b      	ldr	r3, [r7, #4]
100007fe:	f043 0304 	orr.w	r3, r3, #4
10000802:	607b      	str	r3, [r7, #4]
10000804:	4a06      	ldr	r2, [pc, #24]	; (10000820 <Chip_Clock_EnableCrystal+0x60>)
10000806:	687b      	ldr	r3, [r7, #4]
10000808:	6193      	str	r3, [r2, #24]
1000080a:	bf00      	nop
1000080c:	683b      	ldr	r3, [r7, #0]
1000080e:	1e5a      	subs	r2, r3, #1
10000810:	603a      	str	r2, [r7, #0]
10000812:	2b00      	cmp	r3, #0
10000814:	d1fa      	bne.n	1000080c <Chip_Clock_EnableCrystal+0x4c>
10000816:	370c      	adds	r7, #12
10000818:	46bd      	mov	sp, r7
1000081a:	f85d 7b04 	ldr.w	r7, [sp], #4
1000081e:	4770      	bx	lr
10000820:	40050000 	.word	0x40050000
10000824:	10005080 	.word	0x10005080
10000828:	01312cff 	.word	0x01312cff

1000082c <Chip_Clock_SetupMainPLLHz>:
1000082c:	b580      	push	{r7, lr}
1000082e:	b08a      	sub	sp, #40	; 0x28
10000830:	af00      	add	r7, sp, #0
10000832:	60b9      	str	r1, [r7, #8]
10000834:	607a      	str	r2, [r7, #4]
10000836:	603b      	str	r3, [r7, #0]
10000838:	4603      	mov	r3, r0
1000083a:	73fb      	strb	r3, [r7, #15]
1000083c:	7bfb      	ldrb	r3, [r7, #15]
1000083e:	4618      	mov	r0, r3
10000840:	f000 f9f2 	bl	10000c28 <Chip_Clock_GetClockInputHz>
10000844:	61f8      	str	r0, [r7, #28]
10000846:	687b      	ldr	r3, [r7, #4]
10000848:	f1b3 3fff 	cmp.w	r3, #4294967295
1000084c:	d051      	beq.n	100008f2 <Chip_Clock_SetupMainPLLHz+0xc6>
1000084e:	687a      	ldr	r2, [r7, #4]
10000850:	69fb      	ldr	r3, [r7, #28]
10000852:	fbb2 f3f3 	udiv	r3, r2, r3
10000856:	627b      	str	r3, [r7, #36]	; 0x24
10000858:	69f8      	ldr	r0, [r7, #28]
1000085a:	6a79      	ldr	r1, [r7, #36]	; 0x24
1000085c:	68ba      	ldr	r2, [r7, #8]
1000085e:	683b      	ldr	r3, [r7, #0]
10000860:	f7ff ff26 	bl	100006b0 <Chip_Clock_TestMainPLLMultiplier>
10000864:	61b8      	str	r0, [r7, #24]
10000866:	6a7b      	ldr	r3, [r7, #36]	; 0x24
10000868:	3301      	adds	r3, #1
1000086a:	627b      	str	r3, [r7, #36]	; 0x24
1000086c:	69f8      	ldr	r0, [r7, #28]
1000086e:	6a79      	ldr	r1, [r7, #36]	; 0x24
10000870:	68ba      	ldr	r2, [r7, #8]
10000872:	683b      	ldr	r3, [r7, #0]
10000874:	f7ff ff1c 	bl	100006b0 <Chip_Clock_TestMainPLLMultiplier>
10000878:	6178      	str	r0, [r7, #20]
1000087a:	69bb      	ldr	r3, [r7, #24]
1000087c:	2b00      	cmp	r3, #0
1000087e:	d00c      	beq.n	1000089a <Chip_Clock_SetupMainPLLHz+0x6e>
10000880:	697b      	ldr	r3, [r7, #20]
10000882:	2b00      	cmp	r3, #0
10000884:	d109      	bne.n	1000089a <Chip_Clock_SetupMainPLLHz+0x6e>
10000886:	6a7b      	ldr	r3, [r7, #36]	; 0x24
10000888:	3b01      	subs	r3, #1
1000088a:	627b      	str	r3, [r7, #36]	; 0x24
1000088c:	7bfb      	ldrb	r3, [r7, #15]
1000088e:	4618      	mov	r0, r3
10000890:	6a79      	ldr	r1, [r7, #36]	; 0x24
10000892:	f000 f85f 	bl	10000954 <Chip_Clock_SetupMainPLLMult>
10000896:	4603      	mov	r3, r0
10000898:	e058      	b.n	1000094c <Chip_Clock_SetupMainPLLHz+0x120>
1000089a:	69bb      	ldr	r3, [r7, #24]
1000089c:	2b00      	cmp	r3, #0
1000089e:	d109      	bne.n	100008b4 <Chip_Clock_SetupMainPLLHz+0x88>
100008a0:	697b      	ldr	r3, [r7, #20]
100008a2:	2b00      	cmp	r3, #0
100008a4:	d006      	beq.n	100008b4 <Chip_Clock_SetupMainPLLHz+0x88>
100008a6:	7bfb      	ldrb	r3, [r7, #15]
100008a8:	4618      	mov	r0, r3
100008aa:	6a79      	ldr	r1, [r7, #36]	; 0x24
100008ac:	f000 f852 	bl	10000954 <Chip_Clock_SetupMainPLLMult>
100008b0:	4603      	mov	r3, r0
100008b2:	e04b      	b.n	1000094c <Chip_Clock_SetupMainPLLHz+0x120>
100008b4:	69bb      	ldr	r3, [r7, #24]
100008b6:	2b00      	cmp	r3, #0
100008b8:	d01b      	beq.n	100008f2 <Chip_Clock_SetupMainPLLHz+0xc6>
100008ba:	697b      	ldr	r3, [r7, #20]
100008bc:	2b00      	cmp	r3, #0
100008be:	d018      	beq.n	100008f2 <Chip_Clock_SetupMainPLLHz+0xc6>
100008c0:	687a      	ldr	r2, [r7, #4]
100008c2:	69bb      	ldr	r3, [r7, #24]
100008c4:	1ad2      	subs	r2, r2, r3
100008c6:	6979      	ldr	r1, [r7, #20]
100008c8:	687b      	ldr	r3, [r7, #4]
100008ca:	1acb      	subs	r3, r1, r3
100008cc:	429a      	cmp	r2, r3
100008ce:	d909      	bls.n	100008e4 <Chip_Clock_SetupMainPLLHz+0xb8>
100008d0:	6a7b      	ldr	r3, [r7, #36]	; 0x24
100008d2:	3b01      	subs	r3, #1
100008d4:	627b      	str	r3, [r7, #36]	; 0x24
100008d6:	7bfb      	ldrb	r3, [r7, #15]
100008d8:	4618      	mov	r0, r3
100008da:	6a79      	ldr	r1, [r7, #36]	; 0x24
100008dc:	f000 f83a 	bl	10000954 <Chip_Clock_SetupMainPLLMult>
100008e0:	4603      	mov	r3, r0
100008e2:	e033      	b.n	1000094c <Chip_Clock_SetupMainPLLHz+0x120>
100008e4:	7bfb      	ldrb	r3, [r7, #15]
100008e6:	4618      	mov	r0, r3
100008e8:	6a79      	ldr	r1, [r7, #36]	; 0x24
100008ea:	f000 f833 	bl	10000954 <Chip_Clock_SetupMainPLLMult>
100008ee:	4603      	mov	r3, r0
100008f0:	e02c      	b.n	1000094c <Chip_Clock_SetupMainPLLHz+0x120>
100008f2:	68ba      	ldr	r2, [r7, #8]
100008f4:	69fb      	ldr	r3, [r7, #28]
100008f6:	fbb2 f3f3 	udiv	r3, r2, r3
100008fa:	627b      	str	r3, [r7, #36]	; 0x24
100008fc:	683a      	ldr	r2, [r7, #0]
100008fe:	69fb      	ldr	r3, [r7, #28]
10000900:	fbb2 f3f3 	udiv	r3, r2, r3
10000904:	613b      	str	r3, [r7, #16]
10000906:	2300      	movs	r3, #0
10000908:	623b      	str	r3, [r7, #32]
1000090a:	69f8      	ldr	r0, [r7, #28]
1000090c:	6a79      	ldr	r1, [r7, #36]	; 0x24
1000090e:	68ba      	ldr	r2, [r7, #8]
10000910:	683b      	ldr	r3, [r7, #0]
10000912:	f7ff fecd 	bl	100006b0 <Chip_Clock_TestMainPLLMultiplier>
10000916:	61b8      	str	r0, [r7, #24]
10000918:	69bb      	ldr	r3, [r7, #24]
1000091a:	2b00      	cmp	r3, #0
1000091c:	d001      	beq.n	10000922 <Chip_Clock_SetupMainPLLHz+0xf6>
1000091e:	6a7b      	ldr	r3, [r7, #36]	; 0x24
10000920:	623b      	str	r3, [r7, #32]
10000922:	6a7a      	ldr	r2, [r7, #36]	; 0x24
10000924:	693b      	ldr	r3, [r7, #16]
10000926:	429a      	cmp	r2, r3
10000928:	d304      	bcc.n	10000934 <Chip_Clock_SetupMainPLLHz+0x108>
1000092a:	bf00      	nop
1000092c:	6a3b      	ldr	r3, [r7, #32]
1000092e:	2b00      	cmp	r3, #0
10000930:	d00b      	beq.n	1000094a <Chip_Clock_SetupMainPLLHz+0x11e>
10000932:	e003      	b.n	1000093c <Chip_Clock_SetupMainPLLHz+0x110>
10000934:	6a7b      	ldr	r3, [r7, #36]	; 0x24
10000936:	3301      	adds	r3, #1
10000938:	627b      	str	r3, [r7, #36]	; 0x24
1000093a:	e7e6      	b.n	1000090a <Chip_Clock_SetupMainPLLHz+0xde>
1000093c:	7bfb      	ldrb	r3, [r7, #15]
1000093e:	4618      	mov	r0, r3
10000940:	6a39      	ldr	r1, [r7, #32]
10000942:	f000 f807 	bl	10000954 <Chip_Clock_SetupMainPLLMult>
10000946:	4603      	mov	r3, r0
10000948:	e000      	b.n	1000094c <Chip_Clock_SetupMainPLLHz+0x120>
1000094a:	2300      	movs	r3, #0
1000094c:	4618      	mov	r0, r3
1000094e:	3728      	adds	r7, #40	; 0x28
10000950:	46bd      	mov	sp, r7
10000952:	bd80      	pop	{r7, pc}

10000954 <Chip_Clock_SetupMainPLLMult>:
10000954:	b580      	push	{r7, lr}
10000956:	b08a      	sub	sp, #40	; 0x28
10000958:	af00      	add	r7, sp, #0
1000095a:	4603      	mov	r3, r0
1000095c:	6039      	str	r1, [r7, #0]
1000095e:	71fb      	strb	r3, [r7, #7]
10000960:	23fa      	movs	r3, #250	; 0xfa
10000962:	60fb      	str	r3, [r7, #12]
10000964:	79fb      	ldrb	r3, [r7, #7]
10000966:	4618      	mov	r0, r3
10000968:	f000 f95e 	bl	10000c28 <Chip_Clock_GetClockInputHz>
1000096c:	61b8      	str	r0, [r7, #24]
1000096e:	2300      	movs	r3, #0
10000970:	617b      	str	r3, [r7, #20]
10000972:	2300      	movs	r3, #0
10000974:	613b      	str	r3, [r7, #16]
10000976:	2300      	movs	r3, #0
10000978:	627b      	str	r3, [r7, #36]	; 0x24
1000097a:	2301      	movs	r3, #1
1000097c:	623b      	str	r3, [r7, #32]
1000097e:	4b30      	ldr	r3, [pc, #192]	; (10000a40 <Chip_Clock_SetupMainPLLMult+0xec>)
10000980:	6c5b      	ldr	r3, [r3, #68]	; 0x44
10000982:	61fb      	str	r3, [r7, #28]
10000984:	69bb      	ldr	r3, [r7, #24]
10000986:	683a      	ldr	r2, [r7, #0]
10000988:	fb02 f303 	mul.w	r3, r2, r3
1000098c:	61bb      	str	r3, [r7, #24]
1000098e:	683b      	ldr	r3, [r7, #0]
10000990:	3b01      	subs	r3, #1
10000992:	617b      	str	r3, [r7, #20]
10000994:	69fb      	ldr	r3, [r7, #28]
10000996:	f023 53f8 	bic.w	r3, r3, #520093696	; 0x1f000000
1000099a:	61fb      	str	r3, [r7, #28]
1000099c:	79fb      	ldrb	r3, [r7, #7]
1000099e:	061b      	lsls	r3, r3, #24
100009a0:	461a      	mov	r2, r3
100009a2:	69fb      	ldr	r3, [r7, #28]
100009a4:	4313      	orrs	r3, r2
100009a6:	61fb      	str	r3, [r7, #28]
100009a8:	69fa      	ldr	r2, [r7, #28]
100009aa:	4b26      	ldr	r3, [pc, #152]	; (10000a44 <Chip_Clock_SetupMainPLLMult+0xf0>)
100009ac:	4013      	ands	r3, r2
100009ae:	61fb      	str	r3, [r7, #28]
100009b0:	69bb      	ldr	r3, [r7, #24]
100009b2:	4a25      	ldr	r2, [pc, #148]	; (10000a48 <Chip_Clock_SetupMainPLLMult+0xf4>)
100009b4:	4293      	cmp	r3, r2
100009b6:	d81c      	bhi.n	100009f2 <Chip_Clock_SetupMainPLLMult+0x9e>
100009b8:	e005      	b.n	100009c6 <Chip_Clock_SetupMainPLLMult+0x72>
100009ba:	6a7b      	ldr	r3, [r7, #36]	; 0x24
100009bc:	3301      	adds	r3, #1
100009be:	627b      	str	r3, [r7, #36]	; 0x24
100009c0:	6a3b      	ldr	r3, [r7, #32]
100009c2:	005b      	lsls	r3, r3, #1
100009c4:	623b      	str	r3, [r7, #32]
100009c6:	6a3b      	ldr	r3, [r7, #32]
100009c8:	69ba      	ldr	r2, [r7, #24]
100009ca:	fb02 f303 	mul.w	r3, r2, r3
100009ce:	005b      	lsls	r3, r3, #1
100009d0:	4a1d      	ldr	r2, [pc, #116]	; (10000a48 <Chip_Clock_SetupMainPLLMult+0xf4>)
100009d2:	4293      	cmp	r3, r2
100009d4:	d9f1      	bls.n	100009ba <Chip_Clock_SetupMainPLLMult+0x66>
100009d6:	697b      	ldr	r3, [r7, #20]
100009d8:	041a      	lsls	r2, r3, #16
100009da:	693b      	ldr	r3, [r7, #16]
100009dc:	031b      	lsls	r3, r3, #12
100009de:	431a      	orrs	r2, r3
100009e0:	6a7b      	ldr	r3, [r7, #36]	; 0x24
100009e2:	021b      	lsls	r3, r3, #8
100009e4:	431a      	orrs	r2, r3
100009e6:	69fb      	ldr	r3, [r7, #28]
100009e8:	4313      	orrs	r3, r2
100009ea:	f043 0340 	orr.w	r3, r3, #64	; 0x40
100009ee:	61fb      	str	r3, [r7, #28]
100009f0:	e015      	b.n	10000a1e <Chip_Clock_SetupMainPLLMult+0xca>
100009f2:	69bb      	ldr	r3, [r7, #24]
100009f4:	4a15      	ldr	r2, [pc, #84]	; (10000a4c <Chip_Clock_SetupMainPLLMult+0xf8>)
100009f6:	4293      	cmp	r3, r2
100009f8:	d80d      	bhi.n	10000a16 <Chip_Clock_SetupMainPLLMult+0xc2>
100009fa:	697b      	ldr	r3, [r7, #20]
100009fc:	041a      	lsls	r2, r3, #16
100009fe:	693b      	ldr	r3, [r7, #16]
10000a00:	031b      	lsls	r3, r3, #12
10000a02:	431a      	orrs	r2, r3
10000a04:	6a7b      	ldr	r3, [r7, #36]	; 0x24
10000a06:	021b      	lsls	r3, r3, #8
10000a08:	431a      	orrs	r2, r3
10000a0a:	69fb      	ldr	r3, [r7, #28]
10000a0c:	4313      	orrs	r3, r2
10000a0e:	f043 03c0 	orr.w	r3, r3, #192	; 0xc0
10000a12:	61fb      	str	r3, [r7, #28]
10000a14:	e003      	b.n	10000a1e <Chip_Clock_SetupMainPLLMult+0xca>
10000a16:	f000 f87b 	bl	10000b10 <Chip_Clock_DisableMainPLL>
10000a1a:	2300      	movs	r3, #0
10000a1c:	e00b      	b.n	10000a36 <Chip_Clock_SetupMainPLLMult+0xe2>
10000a1e:	4a08      	ldr	r2, [pc, #32]	; (10000a40 <Chip_Clock_SetupMainPLLMult+0xec>)
10000a20:	69fb      	ldr	r3, [r7, #28]
10000a22:	f023 0301 	bic.w	r3, r3, #1
10000a26:	6453      	str	r3, [r2, #68]	; 0x44
10000a28:	bf00      	nop
10000a2a:	68fb      	ldr	r3, [r7, #12]
10000a2c:	1e5a      	subs	r2, r3, #1
10000a2e:	60fa      	str	r2, [r7, #12]
10000a30:	2b00      	cmp	r3, #0
10000a32:	d1fa      	bne.n	10000a2a <Chip_Clock_SetupMainPLLMult+0xd6>
10000a34:	69bb      	ldr	r3, [r7, #24]
10000a36:	4618      	mov	r0, r3
10000a38:	3728      	adds	r7, #40	; 0x28
10000a3a:	46bd      	mov	sp, r7
10000a3c:	bd80      	pop	{r7, pc}
10000a3e:	bf00      	nop
10000a40:	40050000 	.word	0x40050000
10000a44:	ff00cc3d 	.word	0xff00cc3d
10000a48:	094c5eff 	.word	0x094c5eff
10000a4c:	1312cfff 	.word	0x1312cfff

10000a50 <Chip_Clock_GetMainPLLHz>:
10000a50:	b580      	push	{r7, lr}
10000a52:	b08c      	sub	sp, #48	; 0x30
10000a54:	af00      	add	r7, sp, #0
10000a56:	4b2c      	ldr	r3, [pc, #176]	; (10000b08 <Chip_Clock_GetMainPLLHz+0xb8>)
10000a58:	6c5b      	ldr	r3, [r3, #68]	; 0x44
10000a5a:	62fb      	str	r3, [r7, #44]	; 0x2c
10000a5c:	6afb      	ldr	r3, [r7, #44]	; 0x2c
10000a5e:	0e1b      	lsrs	r3, r3, #24
10000a60:	b2db      	uxtb	r3, r3
10000a62:	f003 030f 	and.w	r3, r3, #15
10000a66:	b2db      	uxtb	r3, r3
10000a68:	4618      	mov	r0, r3
10000a6a:	f000 f8dd 	bl	10000c28 <Chip_Clock_GetClockInputHz>
10000a6e:	62b8      	str	r0, [r7, #40]	; 0x28
10000a70:	4a26      	ldr	r2, [pc, #152]	; (10000b0c <Chip_Clock_GetMainPLLHz+0xbc>)
10000a72:	1d3b      	adds	r3, r7, #4
10000a74:	6810      	ldr	r0, [r2, #0]
10000a76:	6018      	str	r0, [r3, #0]
10000a78:	4b23      	ldr	r3, [pc, #140]	; (10000b08 <Chip_Clock_GetMainPLLHz+0xb8>)
10000a7a:	6c1b      	ldr	r3, [r3, #64]	; 0x40
10000a7c:	f003 0301 	and.w	r3, r3, #1
10000a80:	2b00      	cmp	r3, #0
10000a82:	d101      	bne.n	10000a88 <Chip_Clock_GetMainPLLHz+0x38>
10000a84:	2300      	movs	r3, #0
10000a86:	e03b      	b.n	10000b00 <Chip_Clock_GetMainPLLHz+0xb0>
10000a88:	6afb      	ldr	r3, [r7, #44]	; 0x2c
10000a8a:	0c1b      	lsrs	r3, r3, #16
10000a8c:	b2db      	uxtb	r3, r3
10000a8e:	627b      	str	r3, [r7, #36]	; 0x24
10000a90:	6afb      	ldr	r3, [r7, #44]	; 0x2c
10000a92:	0b1b      	lsrs	r3, r3, #12
10000a94:	f003 0303 	and.w	r3, r3, #3
10000a98:	623b      	str	r3, [r7, #32]
10000a9a:	6afb      	ldr	r3, [r7, #44]	; 0x2c
10000a9c:	0a1b      	lsrs	r3, r3, #8
10000a9e:	f003 0303 	and.w	r3, r3, #3
10000aa2:	61fb      	str	r3, [r7, #28]
10000aa4:	6afb      	ldr	r3, [r7, #44]	; 0x2c
10000aa6:	09db      	lsrs	r3, r3, #7
10000aa8:	f003 0301 	and.w	r3, r3, #1
10000aac:	61bb      	str	r3, [r7, #24]
10000aae:	6afb      	ldr	r3, [r7, #44]	; 0x2c
10000ab0:	099b      	lsrs	r3, r3, #6
10000ab2:	f003 0301 	and.w	r3, r3, #1
10000ab6:	617b      	str	r3, [r7, #20]
10000ab8:	6a7b      	ldr	r3, [r7, #36]	; 0x24
10000aba:	3301      	adds	r3, #1
10000abc:	613b      	str	r3, [r7, #16]
10000abe:	6a3b      	ldr	r3, [r7, #32]
10000ac0:	3301      	adds	r3, #1
10000ac2:	60fb      	str	r3, [r7, #12]
10000ac4:	1d3a      	adds	r2, r7, #4
10000ac6:	69fb      	ldr	r3, [r7, #28]
10000ac8:	4413      	add	r3, r2
10000aca:	781b      	ldrb	r3, [r3, #0]
10000acc:	60bb      	str	r3, [r7, #8]
10000ace:	69bb      	ldr	r3, [r7, #24]
10000ad0:	2b00      	cmp	r3, #0
10000ad2:	d102      	bne.n	10000ada <Chip_Clock_GetMainPLLHz+0x8a>
10000ad4:	697b      	ldr	r3, [r7, #20]
10000ad6:	2b00      	cmp	r3, #0
10000ad8:	d007      	beq.n	10000aea <Chip_Clock_GetMainPLLHz+0x9a>
10000ada:	6aba      	ldr	r2, [r7, #40]	; 0x28
10000adc:	68fb      	ldr	r3, [r7, #12]
10000ade:	fbb2 f3f3 	udiv	r3, r2, r3
10000ae2:	693a      	ldr	r2, [r7, #16]
10000ae4:	fb02 f303 	mul.w	r3, r2, r3
10000ae8:	e00a      	b.n	10000b00 <Chip_Clock_GetMainPLLHz+0xb0>
10000aea:	68bb      	ldr	r3, [r7, #8]
10000aec:	005b      	lsls	r3, r3, #1
10000aee:	693a      	ldr	r2, [r7, #16]
10000af0:	fbb2 f3f3 	udiv	r3, r2, r3
10000af4:	6ab9      	ldr	r1, [r7, #40]	; 0x28
10000af6:	68fa      	ldr	r2, [r7, #12]
10000af8:	fbb1 f2f2 	udiv	r2, r1, r2
10000afc:	fb02 f303 	mul.w	r3, r2, r3
10000b00:	4618      	mov	r0, r3
10000b02:	3730      	adds	r7, #48	; 0x30
10000b04:	46bd      	mov	sp, r7
10000b06:	bd80      	pop	{r7, pc}
10000b08:	40050000 	.word	0x40050000
10000b0c:	1000511c 	.word	0x1000511c

10000b10 <Chip_Clock_DisableMainPLL>:
10000b10:	b480      	push	{r7}
10000b12:	af00      	add	r7, sp, #0
10000b14:	4a04      	ldr	r2, [pc, #16]	; (10000b28 <Chip_Clock_DisableMainPLL+0x18>)
10000b16:	4b04      	ldr	r3, [pc, #16]	; (10000b28 <Chip_Clock_DisableMainPLL+0x18>)
10000b18:	6c5b      	ldr	r3, [r3, #68]	; 0x44
10000b1a:	f043 0301 	orr.w	r3, r3, #1
10000b1e:	6453      	str	r3, [r2, #68]	; 0x44
10000b20:	46bd      	mov	sp, r7
10000b22:	f85d 7b04 	ldr.w	r7, [sp], #4
10000b26:	4770      	bx	lr
10000b28:	40050000 	.word	0x40050000

10000b2c <Chip_Clock_SetDivider>:
10000b2c:	b480      	push	{r7}
10000b2e:	b085      	sub	sp, #20
10000b30:	af00      	add	r7, sp, #0
10000b32:	4603      	mov	r3, r0
10000b34:	603a      	str	r2, [r7, #0]
10000b36:	71fb      	strb	r3, [r7, #7]
10000b38:	460b      	mov	r3, r1
10000b3a:	71bb      	strb	r3, [r7, #6]
10000b3c:	4a1a      	ldr	r2, [pc, #104]	; (10000ba8 <Chip_Clock_SetDivider+0x7c>)
10000b3e:	79fb      	ldrb	r3, [r7, #7]
10000b40:	3312      	adds	r3, #18
10000b42:	f852 3023 	ldr.w	r3, [r2, r3, lsl #2]
10000b46:	60fb      	str	r3, [r7, #12]
10000b48:	683b      	ldr	r3, [r7, #0]
10000b4a:	3b01      	subs	r3, #1
10000b4c:	603b      	str	r3, [r7, #0]
10000b4e:	79bb      	ldrb	r3, [r7, #6]
10000b50:	2b11      	cmp	r3, #17
10000b52:	d01c      	beq.n	10000b8e <Chip_Clock_SetDivider+0x62>
10000b54:	79fb      	ldrb	r3, [r7, #7]
10000b56:	4a15      	ldr	r2, [pc, #84]	; (10000bac <Chip_Clock_SetDivider+0x80>)
10000b58:	5cd3      	ldrb	r3, [r2, r3]
10000b5a:	009b      	lsls	r3, r3, #2
10000b5c:	f043 53f8 	orr.w	r3, r3, #520093696	; 0x1f000000
10000b60:	f043 0301 	orr.w	r3, r3, #1
10000b64:	43db      	mvns	r3, r3
10000b66:	461a      	mov	r2, r3
10000b68:	68fb      	ldr	r3, [r7, #12]
10000b6a:	4013      	ands	r3, r2
10000b6c:	60fb      	str	r3, [r7, #12]
10000b6e:	480e      	ldr	r0, [pc, #56]	; (10000ba8 <Chip_Clock_SetDivider+0x7c>)
10000b70:	79fb      	ldrb	r3, [r7, #7]
10000b72:	79ba      	ldrb	r2, [r7, #6]
10000b74:	0612      	lsls	r2, r2, #24
10000b76:	4611      	mov	r1, r2
10000b78:	68fa      	ldr	r2, [r7, #12]
10000b7a:	4311      	orrs	r1, r2
10000b7c:	683a      	ldr	r2, [r7, #0]
10000b7e:	0092      	lsls	r2, r2, #2
10000b80:	430a      	orrs	r2, r1
10000b82:	f442 6200 	orr.w	r2, r2, #2048	; 0x800
10000b86:	3312      	adds	r3, #18
10000b88:	f840 2023 	str.w	r2, [r0, r3, lsl #2]
10000b8c:	e007      	b.n	10000b9e <Chip_Clock_SetDivider+0x72>
10000b8e:	4906      	ldr	r1, [pc, #24]	; (10000ba8 <Chip_Clock_SetDivider+0x7c>)
10000b90:	79fb      	ldrb	r3, [r7, #7]
10000b92:	68fa      	ldr	r2, [r7, #12]
10000b94:	f042 0201 	orr.w	r2, r2, #1
10000b98:	3312      	adds	r3, #18
10000b9a:	f841 2023 	str.w	r2, [r1, r3, lsl #2]
10000b9e:	3714      	adds	r7, #20
10000ba0:	46bd      	mov	sp, r7
10000ba2:	f85d 7b04 	ldr.w	r7, [sp], #4
10000ba6:	4770      	bx	lr
10000ba8:	40050000 	.word	0x40050000
10000bac:	10005120 	.word	0x10005120

10000bb0 <Chip_Clock_GetDividerSource>:
10000bb0:	b480      	push	{r7}
10000bb2:	b085      	sub	sp, #20
10000bb4:	af00      	add	r7, sp, #0
10000bb6:	4603      	mov	r3, r0
10000bb8:	71fb      	strb	r3, [r7, #7]
10000bba:	4a0c      	ldr	r2, [pc, #48]	; (10000bec <Chip_Clock_GetDividerSource+0x3c>)
10000bbc:	79fb      	ldrb	r3, [r7, #7]
10000bbe:	3312      	adds	r3, #18
10000bc0:	f852 3023 	ldr.w	r3, [r2, r3, lsl #2]
10000bc4:	60fb      	str	r3, [r7, #12]
10000bc6:	68fb      	ldr	r3, [r7, #12]
10000bc8:	f003 0301 	and.w	r3, r3, #1
10000bcc:	2b00      	cmp	r3, #0
10000bce:	d001      	beq.n	10000bd4 <Chip_Clock_GetDividerSource+0x24>
10000bd0:	2311      	movs	r3, #17
10000bd2:	e005      	b.n	10000be0 <Chip_Clock_GetDividerSource+0x30>
10000bd4:	68fb      	ldr	r3, [r7, #12]
10000bd6:	0e1b      	lsrs	r3, r3, #24
10000bd8:	b2db      	uxtb	r3, r3
10000bda:	f003 031f 	and.w	r3, r3, #31
10000bde:	b2db      	uxtb	r3, r3
10000be0:	4618      	mov	r0, r3
10000be2:	3714      	adds	r7, #20
10000be4:	46bd      	mov	sp, r7
10000be6:	f85d 7b04 	ldr.w	r7, [sp], #4
10000bea:	4770      	bx	lr
10000bec:	40050000 	.word	0x40050000

10000bf0 <Chip_Clock_GetDividerDivisor>:
10000bf0:	b480      	push	{r7}
10000bf2:	b083      	sub	sp, #12
10000bf4:	af00      	add	r7, sp, #0
10000bf6:	4603      	mov	r3, r0
10000bf8:	71fb      	strb	r3, [r7, #7]
10000bfa:	4a09      	ldr	r2, [pc, #36]	; (10000c20 <Chip_Clock_GetDividerDivisor+0x30>)
10000bfc:	79fb      	ldrb	r3, [r7, #7]
10000bfe:	3312      	adds	r3, #18
10000c00:	f852 3023 	ldr.w	r3, [r2, r3, lsl #2]
10000c04:	089b      	lsrs	r3, r3, #2
10000c06:	b2da      	uxtb	r2, r3
10000c08:	79fb      	ldrb	r3, [r7, #7]
10000c0a:	4906      	ldr	r1, [pc, #24]	; (10000c24 <Chip_Clock_GetDividerDivisor+0x34>)
10000c0c:	5ccb      	ldrb	r3, [r1, r3]
10000c0e:	4013      	ands	r3, r2
10000c10:	b2db      	uxtb	r3, r3
10000c12:	4618      	mov	r0, r3
10000c14:	370c      	adds	r7, #12
10000c16:	46bd      	mov	sp, r7
10000c18:	f85d 7b04 	ldr.w	r7, [sp], #4
10000c1c:	4770      	bx	lr
10000c1e:	bf00      	nop
10000c20:	40050000 	.word	0x40050000
10000c24:	10005120 	.word	0x10005120

10000c28 <Chip_Clock_GetClockInputHz>:
10000c28:	b580      	push	{r7, lr}
10000c2a:	b084      	sub	sp, #16
10000c2c:	af00      	add	r7, sp, #0
10000c2e:	4603      	mov	r3, r0
10000c30:	71fb      	strb	r3, [r7, #7]
10000c32:	2300      	movs	r3, #0
10000c34:	60fb      	str	r3, [r7, #12]
10000c36:	79fb      	ldrb	r3, [r7, #7]
10000c38:	2b11      	cmp	r3, #17
10000c3a:	f200 8080 	bhi.w	10000d3e <Chip_Clock_GetClockInputHz+0x116>
10000c3e:	a201      	add	r2, pc, #4	; (adr r2, 10000c44 <Chip_Clock_GetClockInputHz+0x1c>)
10000c40:	f852 f023 	ldr.w	pc, [r2, r3, lsl #2]
10000c44:	10000c8d 	.word	0x10000c8d
10000c48:	10000c95 	.word	0x10000c95
10000c4c:	10000c9b 	.word	0x10000c9b
10000c50:	10000cb1 	.word	0x10000cb1
10000c54:	10000ccb 	.word	0x10000ccb
10000c58:	10000d3f 	.word	0x10000d3f
10000c5c:	10000cd3 	.word	0x10000cd3
10000c60:	10000cdb 	.word	0x10000cdb
10000c64:	10000ce3 	.word	0x10000ce3
10000c68:	10000ceb 	.word	0x10000ceb
10000c6c:	10000d3f 	.word	0x10000d3f
10000c70:	10000d3f 	.word	0x10000d3f
10000c74:	10000cf3 	.word	0x10000cf3
10000c78:	10000d01 	.word	0x10000d01
10000c7c:	10000d0f 	.word	0x10000d0f
10000c80:	10000d1d 	.word	0x10000d1d
10000c84:	10000d2b 	.word	0x10000d2b
10000c88:	10000d39 	.word	0x10000d39
10000c8c:	f44f 4300 	mov.w	r3, #32768	; 0x8000
10000c90:	60fb      	str	r3, [r7, #12]
10000c92:	e055      	b.n	10000d40 <Chip_Clock_GetClockInputHz+0x118>
10000c94:	4b2d      	ldr	r3, [pc, #180]	; (10000d4c <Chip_Clock_GetClockInputHz+0x124>)
10000c96:	60fb      	str	r3, [r7, #12]
10000c98:	e052      	b.n	10000d40 <Chip_Clock_GetClockInputHz+0x118>
10000c9a:	4b2d      	ldr	r3, [pc, #180]	; (10000d50 <Chip_Clock_GetClockInputHz+0x128>)
10000c9c:	f8d3 312c 	ldr.w	r3, [r3, #300]	; 0x12c
10000ca0:	f003 0307 	and.w	r3, r3, #7
10000ca4:	2b04      	cmp	r3, #4
10000ca6:	d002      	beq.n	10000cae <Chip_Clock_GetClockInputHz+0x86>
10000ca8:	4b2a      	ldr	r3, [pc, #168]	; (10000d54 <Chip_Clock_GetClockInputHz+0x12c>)
10000caa:	60fb      	str	r3, [r7, #12]
10000cac:	e048      	b.n	10000d40 <Chip_Clock_GetClockInputHz+0x118>
10000cae:	e047      	b.n	10000d40 <Chip_Clock_GetClockInputHz+0x118>
10000cb0:	4b27      	ldr	r3, [pc, #156]	; (10000d50 <Chip_Clock_GetClockInputHz+0x128>)
10000cb2:	f8d3 312c 	ldr.w	r3, [r3, #300]	; 0x12c
10000cb6:	f003 0307 	and.w	r3, r3, #7
10000cba:	2b04      	cmp	r3, #4
10000cbc:	d002      	beq.n	10000cc4 <Chip_Clock_GetClockInputHz+0x9c>
10000cbe:	4b25      	ldr	r3, [pc, #148]	; (10000d54 <Chip_Clock_GetClockInputHz+0x12c>)
10000cc0:	60fb      	str	r3, [r7, #12]
10000cc2:	e03d      	b.n	10000d40 <Chip_Clock_GetClockInputHz+0x118>
10000cc4:	4b24      	ldr	r3, [pc, #144]	; (10000d58 <Chip_Clock_GetClockInputHz+0x130>)
10000cc6:	60fb      	str	r3, [r7, #12]
10000cc8:	e03a      	b.n	10000d40 <Chip_Clock_GetClockInputHz+0x118>
10000cca:	4b24      	ldr	r3, [pc, #144]	; (10000d5c <Chip_Clock_GetClockInputHz+0x134>)
10000ccc:	681b      	ldr	r3, [r3, #0]
10000cce:	60fb      	str	r3, [r7, #12]
10000cd0:	e036      	b.n	10000d40 <Chip_Clock_GetClockInputHz+0x118>
10000cd2:	4b23      	ldr	r3, [pc, #140]	; (10000d60 <Chip_Clock_GetClockInputHz+0x138>)
10000cd4:	681b      	ldr	r3, [r3, #0]
10000cd6:	60fb      	str	r3, [r7, #12]
10000cd8:	e032      	b.n	10000d40 <Chip_Clock_GetClockInputHz+0x118>
10000cda:	4b22      	ldr	r3, [pc, #136]	; (10000d64 <Chip_Clock_GetClockInputHz+0x13c>)
10000cdc:	681b      	ldr	r3, [r3, #0]
10000cde:	60fb      	str	r3, [r7, #12]
10000ce0:	e02e      	b.n	10000d40 <Chip_Clock_GetClockInputHz+0x118>
10000ce2:	4b20      	ldr	r3, [pc, #128]	; (10000d64 <Chip_Clock_GetClockInputHz+0x13c>)
10000ce4:	685b      	ldr	r3, [r3, #4]
10000ce6:	60fb      	str	r3, [r7, #12]
10000ce8:	e02a      	b.n	10000d40 <Chip_Clock_GetClockInputHz+0x118>
10000cea:	f7ff feb1 	bl	10000a50 <Chip_Clock_GetMainPLLHz>
10000cee:	60f8      	str	r0, [r7, #12]
10000cf0:	e026      	b.n	10000d40 <Chip_Clock_GetClockInputHz+0x118>
10000cf2:	79fb      	ldrb	r3, [r7, #7]
10000cf4:	4618      	mov	r0, r3
10000cf6:	2100      	movs	r1, #0
10000cf8:	f7ff fcfe 	bl	100006f8 <Chip_Clock_GetDivRate>
10000cfc:	60f8      	str	r0, [r7, #12]
10000cfe:	e01f      	b.n	10000d40 <Chip_Clock_GetClockInputHz+0x118>
10000d00:	79fb      	ldrb	r3, [r7, #7]
10000d02:	4618      	mov	r0, r3
10000d04:	2101      	movs	r1, #1
10000d06:	f7ff fcf7 	bl	100006f8 <Chip_Clock_GetDivRate>
10000d0a:	60f8      	str	r0, [r7, #12]
10000d0c:	e018      	b.n	10000d40 <Chip_Clock_GetClockInputHz+0x118>
10000d0e:	79fb      	ldrb	r3, [r7, #7]
10000d10:	4618      	mov	r0, r3
10000d12:	2102      	movs	r1, #2
10000d14:	f7ff fcf0 	bl	100006f8 <Chip_Clock_GetDivRate>
10000d18:	60f8      	str	r0, [r7, #12]
10000d1a:	e011      	b.n	10000d40 <Chip_Clock_GetClockInputHz+0x118>
10000d1c:	79fb      	ldrb	r3, [r7, #7]
10000d1e:	4618      	mov	r0, r3
10000d20:	2103      	movs	r1, #3
10000d22:	f7ff fce9 	bl	100006f8 <Chip_Clock_GetDivRate>
10000d26:	60f8      	str	r0, [r7, #12]
10000d28:	e00a      	b.n	10000d40 <Chip_Clock_GetClockInputHz+0x118>
10000d2a:	79fb      	ldrb	r3, [r7, #7]
10000d2c:	4618      	mov	r0, r3
10000d2e:	2104      	movs	r1, #4
10000d30:	f7ff fce2 	bl	100006f8 <Chip_Clock_GetDivRate>
10000d34:	60f8      	str	r0, [r7, #12]
10000d36:	e003      	b.n	10000d40 <Chip_Clock_GetClockInputHz+0x118>
10000d38:	2300      	movs	r3, #0
10000d3a:	60fb      	str	r3, [r7, #12]
10000d3c:	e000      	b.n	10000d40 <Chip_Clock_GetClockInputHz+0x118>
10000d3e:	bf00      	nop
10000d40:	68fb      	ldr	r3, [r7, #12]
10000d42:	4618      	mov	r0, r3
10000d44:	3710      	adds	r7, #16
10000d46:	46bd      	mov	sp, r7
10000d48:	bd80      	pop	{r7, pc}
10000d4a:	bf00      	nop
10000d4c:	00b71b00 	.word	0x00b71b00
10000d50:	40043000 	.word	0x40043000
10000d54:	017d7840 	.word	0x017d7840
10000d58:	02faf080 	.word	0x02faf080
10000d5c:	1000507c 	.word	0x1000507c
10000d60:	10005080 	.word	0x10005080
10000d64:	1000530c 	.word	0x1000530c

10000d68 <Chip_Clock_GetBaseClocktHz>:
10000d68:	b580      	push	{r7, lr}
10000d6a:	b082      	sub	sp, #8
10000d6c:	af00      	add	r7, sp, #0
10000d6e:	4603      	mov	r3, r0
10000d70:	71fb      	strb	r3, [r7, #7]
10000d72:	79fb      	ldrb	r3, [r7, #7]
10000d74:	4618      	mov	r0, r3
10000d76:	f000 f857 	bl	10000e28 <Chip_Clock_GetBaseClock>
10000d7a:	4603      	mov	r3, r0
10000d7c:	4618      	mov	r0, r3
10000d7e:	f7ff ff53 	bl	10000c28 <Chip_Clock_GetClockInputHz>
10000d82:	4603      	mov	r3, r0
10000d84:	4618      	mov	r0, r3
10000d86:	3708      	adds	r7, #8
10000d88:	46bd      	mov	sp, r7
10000d8a:	bd80      	pop	{r7, pc}

10000d8c <Chip_Clock_SetBaseClock>:
10000d8c:	b490      	push	{r4, r7}
10000d8e:	b084      	sub	sp, #16
10000d90:	af00      	add	r7, sp, #0
10000d92:	4604      	mov	r4, r0
10000d94:	4608      	mov	r0, r1
10000d96:	4611      	mov	r1, r2
10000d98:	461a      	mov	r2, r3
10000d9a:	4623      	mov	r3, r4
10000d9c:	71fb      	strb	r3, [r7, #7]
10000d9e:	4603      	mov	r3, r0
10000da0:	71bb      	strb	r3, [r7, #6]
10000da2:	460b      	mov	r3, r1
10000da4:	717b      	strb	r3, [r7, #5]
10000da6:	4613      	mov	r3, r2
10000da8:	713b      	strb	r3, [r7, #4]
10000daa:	4a1d      	ldr	r2, [pc, #116]	; (10000e20 <Chip_Clock_SetBaseClock+0x94>)
10000dac:	79fb      	ldrb	r3, [r7, #7]
10000dae:	3316      	adds	r3, #22
10000db0:	009b      	lsls	r3, r3, #2
10000db2:	4413      	add	r3, r2
10000db4:	685b      	ldr	r3, [r3, #4]
10000db6:	60fb      	str	r3, [r7, #12]
10000db8:	79fb      	ldrb	r3, [r7, #7]
10000dba:	2b1b      	cmp	r3, #27
10000dbc:	d822      	bhi.n	10000e04 <Chip_Clock_SetBaseClock+0x78>
10000dbe:	79bb      	ldrb	r3, [r7, #6]
10000dc0:	2b11      	cmp	r3, #17
10000dc2:	d028      	beq.n	10000e16 <Chip_Clock_SetBaseClock+0x8a>
10000dc4:	68fa      	ldr	r2, [r7, #12]
10000dc6:	4b17      	ldr	r3, [pc, #92]	; (10000e24 <Chip_Clock_SetBaseClock+0x98>)
10000dc8:	4013      	ands	r3, r2
10000dca:	60fb      	str	r3, [r7, #12]
10000dcc:	797b      	ldrb	r3, [r7, #5]
10000dce:	2b00      	cmp	r3, #0
10000dd0:	d003      	beq.n	10000dda <Chip_Clock_SetBaseClock+0x4e>
10000dd2:	68fb      	ldr	r3, [r7, #12]
10000dd4:	f443 6300 	orr.w	r3, r3, #2048	; 0x800
10000dd8:	60fb      	str	r3, [r7, #12]
10000dda:	793b      	ldrb	r3, [r7, #4]
10000ddc:	2b00      	cmp	r3, #0
10000dde:	d003      	beq.n	10000de8 <Chip_Clock_SetBaseClock+0x5c>
10000de0:	68fb      	ldr	r3, [r7, #12]
10000de2:	f043 0301 	orr.w	r3, r3, #1
10000de6:	60fb      	str	r3, [r7, #12]
10000de8:	79bb      	ldrb	r3, [r7, #6]
10000dea:	061b      	lsls	r3, r3, #24
10000dec:	461a      	mov	r2, r3
10000dee:	68fb      	ldr	r3, [r7, #12]
10000df0:	4313      	orrs	r3, r2
10000df2:	60fb      	str	r3, [r7, #12]
10000df4:	4a0a      	ldr	r2, [pc, #40]	; (10000e20 <Chip_Clock_SetBaseClock+0x94>)
10000df6:	79fb      	ldrb	r3, [r7, #7]
10000df8:	3316      	adds	r3, #22
10000dfa:	009b      	lsls	r3, r3, #2
10000dfc:	4413      	add	r3, r2
10000dfe:	68fa      	ldr	r2, [r7, #12]
10000e00:	605a      	str	r2, [r3, #4]
10000e02:	e008      	b.n	10000e16 <Chip_Clock_SetBaseClock+0x8a>
10000e04:	4906      	ldr	r1, [pc, #24]	; (10000e20 <Chip_Clock_SetBaseClock+0x94>)
10000e06:	79fb      	ldrb	r3, [r7, #7]
10000e08:	68fa      	ldr	r2, [r7, #12]
10000e0a:	f042 0201 	orr.w	r2, r2, #1
10000e0e:	3316      	adds	r3, #22
10000e10:	009b      	lsls	r3, r3, #2
10000e12:	440b      	add	r3, r1
10000e14:	605a      	str	r2, [r3, #4]
10000e16:	3710      	adds	r7, #16
10000e18:	46bd      	mov	sp, r7
10000e1a:	bc90      	pop	{r4, r7}
10000e1c:	4770      	bx	lr
10000e1e:	bf00      	nop
10000e20:	40050000 	.word	0x40050000
10000e24:	e0fff7fe 	.word	0xe0fff7fe

10000e28 <Chip_Clock_GetBaseClock>:
10000e28:	b480      	push	{r7}
10000e2a:	b085      	sub	sp, #20
10000e2c:	af00      	add	r7, sp, #0
10000e2e:	4603      	mov	r3, r0
10000e30:	71fb      	strb	r3, [r7, #7]
10000e32:	79fb      	ldrb	r3, [r7, #7]
10000e34:	2b1b      	cmp	r3, #27
10000e36:	d901      	bls.n	10000e3c <Chip_Clock_GetBaseClock+0x14>
10000e38:	2311      	movs	r3, #17
10000e3a:	e013      	b.n	10000e64 <Chip_Clock_GetBaseClock+0x3c>
10000e3c:	4a0c      	ldr	r2, [pc, #48]	; (10000e70 <Chip_Clock_GetBaseClock+0x48>)
10000e3e:	79fb      	ldrb	r3, [r7, #7]
10000e40:	3316      	adds	r3, #22
10000e42:	009b      	lsls	r3, r3, #2
10000e44:	4413      	add	r3, r2
10000e46:	685b      	ldr	r3, [r3, #4]
10000e48:	60fb      	str	r3, [r7, #12]
10000e4a:	68fb      	ldr	r3, [r7, #12]
10000e4c:	f003 0301 	and.w	r3, r3, #1
10000e50:	2b00      	cmp	r3, #0
10000e52:	d001      	beq.n	10000e58 <Chip_Clock_GetBaseClock+0x30>
10000e54:	2311      	movs	r3, #17
10000e56:	e005      	b.n	10000e64 <Chip_Clock_GetBaseClock+0x3c>
10000e58:	68fb      	ldr	r3, [r7, #12]
10000e5a:	0e1b      	lsrs	r3, r3, #24
10000e5c:	b2db      	uxtb	r3, r3
10000e5e:	f003 031f 	and.w	r3, r3, #31
10000e62:	b2db      	uxtb	r3, r3
10000e64:	4618      	mov	r0, r3
10000e66:	3714      	adds	r7, #20
10000e68:	46bd      	mov	sp, r7
10000e6a:	f85d 7b04 	ldr.w	r7, [sp], #4
10000e6e:	4770      	bx	lr
10000e70:	40050000 	.word	0x40050000

10000e74 <Chip_Clock_Enable>:
10000e74:	b480      	push	{r7}
10000e76:	b083      	sub	sp, #12
10000e78:	af00      	add	r7, sp, #0
10000e7a:	4603      	mov	r3, r0
10000e7c:	80fb      	strh	r3, [r7, #6]
10000e7e:	88fb      	ldrh	r3, [r7, #6]
10000e80:	f5b3 7fa1 	cmp.w	r3, #322	; 0x142
10000e84:	d310      	bcc.n	10000ea8 <Chip_Clock_Enable+0x34>
10000e86:	4911      	ldr	r1, [pc, #68]	; (10000ecc <Chip_Clock_Enable+0x58>)
10000e88:	88fb      	ldrh	r3, [r7, #6]
10000e8a:	f5a3 73a1 	sub.w	r3, r3, #322	; 0x142
10000e8e:	480f      	ldr	r0, [pc, #60]	; (10000ecc <Chip_Clock_Enable+0x58>)
10000e90:	88fa      	ldrh	r2, [r7, #6]
10000e92:	f5a2 72a1 	sub.w	r2, r2, #322	; 0x142
10000e96:	3220      	adds	r2, #32
10000e98:	f850 2032 	ldr.w	r2, [r0, r2, lsl #3]
10000e9c:	f042 0201 	orr.w	r2, r2, #1
10000ea0:	3320      	adds	r3, #32
10000ea2:	f841 2033 	str.w	r2, [r1, r3, lsl #3]
10000ea6:	e00b      	b.n	10000ec0 <Chip_Clock_Enable+0x4c>
10000ea8:	4909      	ldr	r1, [pc, #36]	; (10000ed0 <Chip_Clock_Enable+0x5c>)
10000eaa:	88fb      	ldrh	r3, [r7, #6]
10000eac:	4808      	ldr	r0, [pc, #32]	; (10000ed0 <Chip_Clock_Enable+0x5c>)
10000eae:	88fa      	ldrh	r2, [r7, #6]
10000eb0:	3220      	adds	r2, #32
10000eb2:	f850 2032 	ldr.w	r2, [r0, r2, lsl #3]
10000eb6:	f042 0201 	orr.w	r2, r2, #1
10000eba:	3320      	adds	r3, #32
10000ebc:	f841 2033 	str.w	r2, [r1, r3, lsl #3]
10000ec0:	370c      	adds	r7, #12
10000ec2:	46bd      	mov	sp, r7
10000ec4:	f85d 7b04 	ldr.w	r7, [sp], #4
10000ec8:	4770      	bx	lr
10000eca:	bf00      	nop
10000ecc:	40052000 	.word	0x40052000
10000ed0:	40051000 	.word	0x40051000

10000ed4 <Chip_Clock_GetRate>:
10000ed4:	b580      	push	{r7, lr}
10000ed6:	b086      	sub	sp, #24
10000ed8:	af00      	add	r7, sp, #0
10000eda:	4603      	mov	r3, r0
10000edc:	80fb      	strh	r3, [r7, #6]
10000ede:	88fb      	ldrh	r3, [r7, #6]
10000ee0:	f5b3 7fa1 	cmp.w	r3, #322	; 0x142
10000ee4:	d308      	bcc.n	10000ef8 <Chip_Clock_GetRate+0x24>
10000ee6:	4a1b      	ldr	r2, [pc, #108]	; (10000f54 <Chip_Clock_GetRate+0x80>)
10000ee8:	88fb      	ldrh	r3, [r7, #6]
10000eea:	f5a3 73a1 	sub.w	r3, r3, #322	; 0x142
10000eee:	3320      	adds	r3, #32
10000ef0:	f852 3033 	ldr.w	r3, [r2, r3, lsl #3]
10000ef4:	617b      	str	r3, [r7, #20]
10000ef6:	e005      	b.n	10000f04 <Chip_Clock_GetRate+0x30>
10000ef8:	4a17      	ldr	r2, [pc, #92]	; (10000f58 <Chip_Clock_GetRate+0x84>)
10000efa:	88fb      	ldrh	r3, [r7, #6]
10000efc:	3320      	adds	r3, #32
10000efe:	f852 3033 	ldr.w	r3, [r2, r3, lsl #3]
10000f02:	617b      	str	r3, [r7, #20]
10000f04:	697b      	ldr	r3, [r7, #20]
10000f06:	f003 0301 	and.w	r3, r3, #1
10000f0a:	2b00      	cmp	r3, #0
10000f0c:	d01b      	beq.n	10000f46 <Chip_Clock_GetRate+0x72>
10000f0e:	88fb      	ldrh	r3, [r7, #6]
10000f10:	4618      	mov	r0, r3
10000f12:	f7ff fc11 	bl	10000738 <Chip_Clock_FindBaseClock>
10000f16:	4603      	mov	r3, r0
10000f18:	72fb      	strb	r3, [r7, #11]
10000f1a:	7afb      	ldrb	r3, [r7, #11]
10000f1c:	4618      	mov	r0, r3
10000f1e:	f7ff ff23 	bl	10000d68 <Chip_Clock_GetBaseClocktHz>
10000f22:	60f8      	str	r0, [r7, #12]
10000f24:	697b      	ldr	r3, [r7, #20]
10000f26:	095b      	lsrs	r3, r3, #5
10000f28:	f003 0307 	and.w	r3, r3, #7
10000f2c:	2b00      	cmp	r3, #0
10000f2e:	d102      	bne.n	10000f36 <Chip_Clock_GetRate+0x62>
10000f30:	2301      	movs	r3, #1
10000f32:	613b      	str	r3, [r7, #16]
10000f34:	e001      	b.n	10000f3a <Chip_Clock_GetRate+0x66>
10000f36:	2302      	movs	r3, #2
10000f38:	613b      	str	r3, [r7, #16]
10000f3a:	68fa      	ldr	r2, [r7, #12]
10000f3c:	693b      	ldr	r3, [r7, #16]
10000f3e:	fbb2 f3f3 	udiv	r3, r2, r3
10000f42:	60fb      	str	r3, [r7, #12]
10000f44:	e001      	b.n	10000f4a <Chip_Clock_GetRate+0x76>
10000f46:	2300      	movs	r3, #0
10000f48:	60fb      	str	r3, [r7, #12]
10000f4a:	68fb      	ldr	r3, [r7, #12]
10000f4c:	4618      	mov	r0, r3
10000f4e:	3718      	adds	r7, #24
10000f50:	46bd      	mov	sp, r7
10000f52:	bd80      	pop	{r7, pc}
10000f54:	40052000 	.word	0x40052000
10000f58:	40051000 	.word	0x40051000

10000f5c <fpuInit>:
10000f5c:	b480      	push	{r7}
10000f5e:	b089      	sub	sp, #36	; 0x24
10000f60:	af00      	add	r7, sp, #0
10000f62:	4b16      	ldr	r3, [pc, #88]	; (10000fbc <fpuInit+0x60>)
10000f64:	61fb      	str	r3, [r7, #28]
10000f66:	4b16      	ldr	r3, [pc, #88]	; (10000fc0 <fpuInit+0x64>)
10000f68:	61bb      	str	r3, [r7, #24]
10000f6a:	4b16      	ldr	r3, [pc, #88]	; (10000fc4 <fpuInit+0x68>)
10000f6c:	617b      	str	r3, [r7, #20]
10000f6e:	2300      	movs	r3, #0
10000f70:	74fb      	strb	r3, [r7, #19]
10000f72:	69bb      	ldr	r3, [r7, #24]
10000f74:	681b      	ldr	r3, [r3, #0]
10000f76:	60bb      	str	r3, [r7, #8]
10000f78:	697b      	ldr	r3, [r7, #20]
10000f7a:	681b      	ldr	r3, [r3, #0]
10000f7c:	607b      	str	r3, [r7, #4]
10000f7e:	68bb      	ldr	r3, [r7, #8]
10000f80:	4a11      	ldr	r2, [pc, #68]	; (10000fc8 <fpuInit+0x6c>)
10000f82:	4293      	cmp	r3, r2
10000f84:	d105      	bne.n	10000f92 <fpuInit+0x36>
10000f86:	687b      	ldr	r3, [r7, #4]
10000f88:	4a10      	ldr	r2, [pc, #64]	; (10000fcc <fpuInit+0x70>)
10000f8a:	4293      	cmp	r3, r2
10000f8c:	d101      	bne.n	10000f92 <fpuInit+0x36>
10000f8e:	2301      	movs	r3, #1
10000f90:	e000      	b.n	10000f94 <fpuInit+0x38>
10000f92:	2300      	movs	r3, #0
10000f94:	74fb      	strb	r3, [r7, #19]
10000f96:	7cfb      	ldrb	r3, [r7, #19]
10000f98:	2b00      	cmp	r3, #0
10000f9a:	d009      	beq.n	10000fb0 <fpuInit+0x54>
10000f9c:	69fb      	ldr	r3, [r7, #28]
10000f9e:	681b      	ldr	r3, [r3, #0]
10000fa0:	60fb      	str	r3, [r7, #12]
10000fa2:	68fb      	ldr	r3, [r7, #12]
10000fa4:	f443 0370 	orr.w	r3, r3, #15728640	; 0xf00000
10000fa8:	60fb      	str	r3, [r7, #12]
10000faa:	68fa      	ldr	r2, [r7, #12]
10000fac:	69fb      	ldr	r3, [r7, #28]
10000fae:	601a      	str	r2, [r3, #0]
10000fb0:	3724      	adds	r7, #36	; 0x24
10000fb2:	46bd      	mov	sp, r7
10000fb4:	f85d 7b04 	ldr.w	r7, [sp], #4
10000fb8:	4770      	bx	lr
10000fba:	bf00      	nop
10000fbc:	e000ed88 	.word	0xe000ed88
10000fc0:	e000ef40 	.word	0xe000ef40
10000fc4:	e000ef44 	.word	0xe000ef44
10000fc8:	10110021 	.word	0x10110021
10000fcc:	11000011 	.word	0x11000011

10000fd0 <Chip_GPIO_Init>:
10000fd0:	b480      	push	{r7}
10000fd2:	b083      	sub	sp, #12
10000fd4:	af00      	add	r7, sp, #0
10000fd6:	6078      	str	r0, [r7, #4]
10000fd8:	370c      	adds	r7, #12
10000fda:	46bd      	mov	sp, r7
10000fdc:	f85d 7b04 	ldr.w	r7, [sp], #4
10000fe0:	4770      	bx	lr
10000fe2:	bf00      	nop

10000fe4 <Chip_SetupCoreClock>:
10000fe4:	b590      	push	{r4, r7, lr}
10000fe6:	b085      	sub	sp, #20
10000fe8:	af00      	add	r7, sp, #0
10000fea:	4603      	mov	r3, r0
10000fec:	6039      	str	r1, [r7, #0]
10000fee:	71fb      	strb	r3, [r7, #7]
10000ff0:	4613      	mov	r3, r2
10000ff2:	71bb      	strb	r3, [r7, #6]
10000ff4:	79fb      	ldrb	r3, [r7, #7]
10000ff6:	2b06      	cmp	r3, #6
10000ff8:	d101      	bne.n	10000ffe <Chip_SetupCoreClock+0x1a>
10000ffa:	f7ff fbe1 	bl	100007c0 <Chip_Clock_EnableCrystal>
10000ffe:	79fb      	ldrb	r3, [r7, #7]
10001000:	2004      	movs	r0, #4
10001002:	4619      	mov	r1, r3
10001004:	2201      	movs	r2, #1
10001006:	2300      	movs	r3, #0
10001008:	f7ff fec0 	bl	10000d8c <Chip_Clock_SetBaseClock>
1000100c:	683b      	ldr	r3, [r7, #0]
1000100e:	4a1f      	ldr	r2, [pc, #124]	; (1000108c <Chip_SetupCoreClock+0xa8>)
10001010:	4293      	cmp	r3, r2
10001012:	d90c      	bls.n	1000102e <Chip_SetupCoreClock+0x4a>
10001014:	79fb      	ldrb	r3, [r7, #7]
10001016:	4618      	mov	r0, r3
10001018:	491d      	ldr	r1, [pc, #116]	; (10001090 <Chip_SetupCoreClock+0xac>)
1000101a:	4a1c      	ldr	r2, [pc, #112]	; (1000108c <Chip_SetupCoreClock+0xa8>)
1000101c:	4b1b      	ldr	r3, [pc, #108]	; (1000108c <Chip_SetupCoreClock+0xa8>)
1000101e:	f7ff fc05 	bl	1000082c <Chip_Clock_SetupMainPLLHz>
10001022:	2004      	movs	r0, #4
10001024:	2109      	movs	r1, #9
10001026:	2201      	movs	r2, #1
10001028:	2300      	movs	r3, #0
1000102a:	f7ff feaf 	bl	10000d8c <Chip_Clock_SetBaseClock>
1000102e:	4b19      	ldr	r3, [pc, #100]	; (10001094 <Chip_SetupCoreClock+0xb0>)
10001030:	681b      	ldr	r3, [r3, #0]
10001032:	79fa      	ldrb	r2, [r7, #7]
10001034:	4610      	mov	r0, r2
10001036:	4619      	mov	r1, r3
10001038:	683a      	ldr	r2, [r7, #0]
1000103a:	683b      	ldr	r3, [r7, #0]
1000103c:	f7ff fbf6 	bl	1000082c <Chip_Clock_SetupMainPLLHz>
10001040:	79bb      	ldrb	r3, [r7, #6]
10001042:	2b00      	cmp	r3, #0
10001044:	d01e      	beq.n	10001084 <Chip_SetupCoreClock+0xa0>
10001046:	2300      	movs	r3, #0
10001048:	60fb      	str	r3, [r7, #12]
1000104a:	e018      	b.n	1000107e <Chip_SetupCoreClock+0x9a>
1000104c:	4a12      	ldr	r2, [pc, #72]	; (10001098 <Chip_SetupCoreClock+0xb4>)
1000104e:	68fb      	ldr	r3, [r7, #12]
10001050:	f812 0023 	ldrb.w	r0, [r2, r3, lsl #2]
10001054:	4a10      	ldr	r2, [pc, #64]	; (10001098 <Chip_SetupCoreClock+0xb4>)
10001056:	68fb      	ldr	r3, [r7, #12]
10001058:	009b      	lsls	r3, r3, #2
1000105a:	4413      	add	r3, r2
1000105c:	7859      	ldrb	r1, [r3, #1]
1000105e:	4a0e      	ldr	r2, [pc, #56]	; (10001098 <Chip_SetupCoreClock+0xb4>)
10001060:	68fb      	ldr	r3, [r7, #12]
10001062:	009b      	lsls	r3, r3, #2
10001064:	4413      	add	r3, r2
10001066:	789c      	ldrb	r4, [r3, #2]
10001068:	4a0b      	ldr	r2, [pc, #44]	; (10001098 <Chip_SetupCoreClock+0xb4>)
1000106a:	68fb      	ldr	r3, [r7, #12]
1000106c:	009b      	lsls	r3, r3, #2
1000106e:	4413      	add	r3, r2
10001070:	78db      	ldrb	r3, [r3, #3]
10001072:	4622      	mov	r2, r4
10001074:	f7ff fe8a 	bl	10000d8c <Chip_Clock_SetBaseClock>
10001078:	68fb      	ldr	r3, [r7, #12]
1000107a:	3301      	adds	r3, #1
1000107c:	60fb      	str	r3, [r7, #12]
1000107e:	68fb      	ldr	r3, [r7, #12]
10001080:	2b11      	cmp	r3, #17
10001082:	d9e3      	bls.n	1000104c <Chip_SetupCoreClock+0x68>
10001084:	3714      	adds	r7, #20
10001086:	46bd      	mov	sp, r7
10001088:	bd90      	pop	{r4, r7, pc}
1000108a:	bf00      	nop
1000108c:	068e7780 	.word	0x068e7780
10001090:	00b71b00 	.word	0x00b71b00
10001094:	10005080 	.word	0x10005080
10001098:	10005128 	.word	0x10005128

1000109c <Chip_TIMER_GetClockIndex>:
1000109c:	b480      	push	{r7}
1000109e:	b085      	sub	sp, #20
100010a0:	af00      	add	r7, sp, #0
100010a2:	6078      	str	r0, [r7, #4]
100010a4:	687b      	ldr	r3, [r7, #4]
100010a6:	4a0e      	ldr	r2, [pc, #56]	; (100010e0 <Chip_TIMER_GetClockIndex+0x44>)
100010a8:	4293      	cmp	r3, r2
100010aa:	d102      	bne.n	100010b2 <Chip_TIMER_GetClockIndex+0x16>
100010ac:	23a4      	movs	r3, #164	; 0xa4
100010ae:	81fb      	strh	r3, [r7, #14]
100010b0:	e00f      	b.n	100010d2 <Chip_TIMER_GetClockIndex+0x36>
100010b2:	687b      	ldr	r3, [r7, #4]
100010b4:	4a0b      	ldr	r2, [pc, #44]	; (100010e4 <Chip_TIMER_GetClockIndex+0x48>)
100010b6:	4293      	cmp	r3, r2
100010b8:	d102      	bne.n	100010c0 <Chip_TIMER_GetClockIndex+0x24>
100010ba:	23a3      	movs	r3, #163	; 0xa3
100010bc:	81fb      	strh	r3, [r7, #14]
100010be:	e008      	b.n	100010d2 <Chip_TIMER_GetClockIndex+0x36>
100010c0:	687b      	ldr	r3, [r7, #4]
100010c2:	4a09      	ldr	r2, [pc, #36]	; (100010e8 <Chip_TIMER_GetClockIndex+0x4c>)
100010c4:	4293      	cmp	r3, r2
100010c6:	d102      	bne.n	100010ce <Chip_TIMER_GetClockIndex+0x32>
100010c8:	2385      	movs	r3, #133	; 0x85
100010ca:	81fb      	strh	r3, [r7, #14]
100010cc:	e001      	b.n	100010d2 <Chip_TIMER_GetClockIndex+0x36>
100010ce:	2384      	movs	r3, #132	; 0x84
100010d0:	81fb      	strh	r3, [r7, #14]
100010d2:	89fb      	ldrh	r3, [r7, #14]
100010d4:	4618      	mov	r0, r3
100010d6:	3714      	adds	r7, #20
100010d8:	46bd      	mov	sp, r7
100010da:	f85d 7b04 	ldr.w	r7, [sp], #4
100010de:	4770      	bx	lr
100010e0:	400c4000 	.word	0x400c4000
100010e4:	400c3000 	.word	0x400c3000
100010e8:	40085000 	.word	0x40085000

100010ec <Chip_TIMER_Init>:
100010ec:	b580      	push	{r7, lr}
100010ee:	b082      	sub	sp, #8
100010f0:	af00      	add	r7, sp, #0
100010f2:	6078      	str	r0, [r7, #4]
100010f4:	6878      	ldr	r0, [r7, #4]
100010f6:	f7ff ffd1 	bl	1000109c <Chip_TIMER_GetClockIndex>
100010fa:	4603      	mov	r3, r0
100010fc:	4618      	mov	r0, r3
100010fe:	f7ff feb9 	bl	10000e74 <Chip_Clock_Enable>
10001102:	3708      	adds	r7, #8
10001104:	46bd      	mov	sp, r7
10001106:	bd80      	pop	{r7, pc}

10001108 <Chip_TIMER_Reset>:
10001108:	b480      	push	{r7}
1000110a:	b085      	sub	sp, #20
1000110c:	af00      	add	r7, sp, #0
1000110e:	6078      	str	r0, [r7, #4]
10001110:	687b      	ldr	r3, [r7, #4]
10001112:	685b      	ldr	r3, [r3, #4]
10001114:	60fb      	str	r3, [r7, #12]
10001116:	687b      	ldr	r3, [r7, #4]
10001118:	2200      	movs	r2, #0
1000111a:	605a      	str	r2, [r3, #4]
1000111c:	687b      	ldr	r3, [r7, #4]
1000111e:	2201      	movs	r2, #1
10001120:	609a      	str	r2, [r3, #8]
10001122:	687b      	ldr	r3, [r7, #4]
10001124:	2202      	movs	r2, #2
10001126:	605a      	str	r2, [r3, #4]
10001128:	bf00      	nop
1000112a:	687b      	ldr	r3, [r7, #4]
1000112c:	689b      	ldr	r3, [r3, #8]
1000112e:	2b00      	cmp	r3, #0
10001130:	d1fb      	bne.n	1000112a <Chip_TIMER_Reset+0x22>
10001132:	687b      	ldr	r3, [r7, #4]
10001134:	68fa      	ldr	r2, [r7, #12]
10001136:	605a      	str	r2, [r3, #4]
10001138:	3714      	adds	r7, #20
1000113a:	46bd      	mov	sp, r7
1000113c:	f85d 7b04 	ldr.w	r7, [sp], #4
10001140:	4770      	bx	lr
10001142:	bf00      	nop

10001144 <__main>:
10001144:	b508      	push	{r3, lr}
10001146:	2000      	movs	r0, #0
10001148:	4601      	mov	r1, r0
1000114a:	4602      	mov	r2, r0
1000114c:	f001 f958 	bl	10002400 <_initio>
10001150:	e8bd 4008 	ldmia.w	sp!, {r3, lr}
10001154:	f7ff b8d4 	b.w	10000300 <main>

10001158 <fp_round>:
10001158:	b480      	push	{r7}
1000115a:	b087      	sub	sp, #28
1000115c:	af00      	add	r7, sp, #0
1000115e:	6078      	str	r0, [r7, #4]
10001160:	6039      	str	r1, [r7, #0]
10001162:	683b      	ldr	r3, [r7, #0]
10001164:	687a      	ldr	r2, [r7, #4]
10001166:	4413      	add	r3, r2
10001168:	617b      	str	r3, [r7, #20]
1000116a:	697b      	ldr	r3, [r7, #20]
1000116c:	781b      	ldrb	r3, [r3, #0]
1000116e:	60bb      	str	r3, [r7, #8]
10001170:	68bb      	ldr	r3, [r7, #8]
10001172:	2b00      	cmp	r3, #0
10001174:	d101      	bne.n	1000117a <fp_round+0x22>
10001176:	2300      	movs	r3, #0
10001178:	e046      	b.n	10001208 <fp_round+0xb0>
1000117a:	68bb      	ldr	r3, [r7, #8]
1000117c:	2b34      	cmp	r3, #52	; 0x34
1000117e:	dc01      	bgt.n	10001184 <fp_round+0x2c>
10001180:	2300      	movs	r3, #0
10001182:	e041      	b.n	10001208 <fp_round+0xb0>
10001184:	68bb      	ldr	r3, [r7, #8]
10001186:	2b35      	cmp	r3, #53	; 0x35
10001188:	d10f      	bne.n	100011aa <fp_round+0x52>
1000118a:	697b      	ldr	r3, [r7, #20]
1000118c:	613b      	str	r3, [r7, #16]
1000118e:	693b      	ldr	r3, [r7, #16]
10001190:	3301      	adds	r3, #1
10001192:	613b      	str	r3, [r7, #16]
10001194:	693b      	ldr	r3, [r7, #16]
10001196:	781b      	ldrb	r3, [r3, #0]
10001198:	60bb      	str	r3, [r7, #8]
1000119a:	68bb      	ldr	r3, [r7, #8]
1000119c:	2b30      	cmp	r3, #48	; 0x30
1000119e:	d0f6      	beq.n	1000118e <fp_round+0x36>
100011a0:	68bb      	ldr	r3, [r7, #8]
100011a2:	2b00      	cmp	r3, #0
100011a4:	d101      	bne.n	100011aa <fp_round+0x52>
100011a6:	2300      	movs	r3, #0
100011a8:	e02e      	b.n	10001208 <fp_round+0xb0>
100011aa:	697b      	ldr	r3, [r7, #20]
100011ac:	3b01      	subs	r3, #1
100011ae:	617b      	str	r3, [r7, #20]
100011b0:	697b      	ldr	r3, [r7, #20]
100011b2:	781b      	ldrb	r3, [r3, #0]
100011b4:	60bb      	str	r3, [r7, #8]
100011b6:	68bb      	ldr	r3, [r7, #8]
100011b8:	2b39      	cmp	r3, #57	; 0x39
100011ba:	d103      	bne.n	100011c4 <fp_round+0x6c>
100011bc:	697b      	ldr	r3, [r7, #20]
100011be:	2230      	movs	r2, #48	; 0x30
100011c0:	701a      	strb	r2, [r3, #0]
100011c2:	e00b      	b.n	100011dc <fp_round+0x84>
100011c4:	68bb      	ldr	r3, [r7, #8]
100011c6:	b2db      	uxtb	r3, r3
100011c8:	3301      	adds	r3, #1
100011ca:	b2da      	uxtb	r2, r3
100011cc:	697b      	ldr	r3, [r7, #20]
100011ce:	701a      	strb	r2, [r3, #0]
100011d0:	bf00      	nop
100011d2:	687b      	ldr	r3, [r7, #4]
100011d4:	781b      	ldrb	r3, [r3, #0]
100011d6:	2b30      	cmp	r3, #48	; 0x30
100011d8:	d015      	beq.n	10001206 <fp_round+0xae>
100011da:	e000      	b.n	100011de <fp_round+0x86>
100011dc:	e7e5      	b.n	100011aa <fp_round+0x52>
100011de:	683b      	ldr	r3, [r7, #0]
100011e0:	60fb      	str	r3, [r7, #12]
100011e2:	e00b      	b.n	100011fc <fp_round+0xa4>
100011e4:	68fb      	ldr	r3, [r7, #12]
100011e6:	3301      	adds	r3, #1
100011e8:	687a      	ldr	r2, [r7, #4]
100011ea:	4413      	add	r3, r2
100011ec:	68fa      	ldr	r2, [r7, #12]
100011ee:	6879      	ldr	r1, [r7, #4]
100011f0:	440a      	add	r2, r1
100011f2:	7812      	ldrb	r2, [r2, #0]
100011f4:	701a      	strb	r2, [r3, #0]
100011f6:	68fb      	ldr	r3, [r7, #12]
100011f8:	3b01      	subs	r3, #1
100011fa:	60fb      	str	r3, [r7, #12]
100011fc:	68fb      	ldr	r3, [r7, #12]
100011fe:	2b00      	cmp	r3, #0
10001200:	daf0      	bge.n	100011e4 <fp_round+0x8c>
10001202:	2301      	movs	r3, #1
10001204:	e000      	b.n	10001208 <fp_round+0xb0>
10001206:	2300      	movs	r3, #0
10001208:	4618      	mov	r0, r3
1000120a:	371c      	adds	r7, #28
1000120c:	46bd      	mov	sp, r7
1000120e:	f85d 7b04 	ldr.w	r7, [sp], #4
10001212:	4770      	bx	lr

10001214 <pr_dec>:
10001214:	b480      	push	{r7}
10001216:	b087      	sub	sp, #28
10001218:	af00      	add	r7, sp, #0
1000121a:	60f8      	str	r0, [r7, #12]
1000121c:	60b9      	str	r1, [r7, #8]
1000121e:	607a      	str	r2, [r7, #4]
10001220:	e01c      	b.n	1000125c <pr_dec+0x48>
10001222:	68fb      	ldr	r3, [r7, #12]
10001224:	4a12      	ldr	r2, [pc, #72]	; (10001270 <pr_dec+0x5c>)
10001226:	fb82 1203 	smull	r1, r2, r2, r3
1000122a:	1092      	asrs	r2, r2, #2
1000122c:	17db      	asrs	r3, r3, #31
1000122e:	1ad3      	subs	r3, r2, r3
10001230:	617b      	str	r3, [r7, #20]
10001232:	68ba      	ldr	r2, [r7, #8]
10001234:	1e53      	subs	r3, r2, #1
10001236:	60bb      	str	r3, [r7, #8]
10001238:	68fb      	ldr	r3, [r7, #12]
1000123a:	b2d9      	uxtb	r1, r3
1000123c:	697b      	ldr	r3, [r7, #20]
1000123e:	b2db      	uxtb	r3, r3
10001240:	4618      	mov	r0, r3
10001242:	0140      	lsls	r0, r0, #5
10001244:	1ac0      	subs	r0, r0, r3
10001246:	0080      	lsls	r0, r0, #2
10001248:	1ac3      	subs	r3, r0, r3
1000124a:	005b      	lsls	r3, r3, #1
1000124c:	b2db      	uxtb	r3, r3
1000124e:	440b      	add	r3, r1
10001250:	b2db      	uxtb	r3, r3
10001252:	3330      	adds	r3, #48	; 0x30
10001254:	b2db      	uxtb	r3, r3
10001256:	7013      	strb	r3, [r2, #0]
10001258:	697b      	ldr	r3, [r7, #20]
1000125a:	60fb      	str	r3, [r7, #12]
1000125c:	687b      	ldr	r3, [r7, #4]
1000125e:	1e5a      	subs	r2, r3, #1
10001260:	607a      	str	r2, [r7, #4]
10001262:	2b00      	cmp	r3, #0
10001264:	dcdd      	bgt.n	10001222 <pr_dec+0xe>
10001266:	371c      	adds	r7, #28
10001268:	46bd      	mov	sp, r7
1000126a:	f85d 7b04 	ldr.w	r7, [sp], #4
1000126e:	4770      	bx	lr
10001270:	66666667 	.word	0x66666667
10001274:	00000000 	.word	0x00000000

10001278 <fp_digits>:
10001278:	b5b0      	push	{r4, r5, r7, lr}
1000127a:	b0a8      	sub	sp, #160	; 0xa0
1000127c:	af00      	add	r7, sp, #0
1000127e:	60f8      	str	r0, [r7, #12]
10001280:	ed87 0b00 	vstr	d0, [r7]
10001284:	2300      	movs	r3, #0
10001286:	f8c7 308c 	str.w	r3, [r7, #140]	; 0x8c
1000128a:	e9d7 0100 	ldrd	r0, r1, [r7]
1000128e:	f04f 0200 	mov.w	r2, #0
10001292:	f04f 0300 	mov.w	r3, #0
10001296:	f003 fdf8 	bl	10004e8a <__aeabi_dcmplt>
1000129a:	4603      	mov	r3, r0
1000129c:	2b00      	cmp	r3, #0
1000129e:	d008      	beq.n	100012b2 <fp_digits+0x3a>
100012a0:	683b      	ldr	r3, [r7, #0]
100012a2:	603b      	str	r3, [r7, #0]
100012a4:	687b      	ldr	r3, [r7, #4]
100012a6:	f083 4300 	eor.w	r3, r3, #2147483648	; 0x80000000
100012aa:	607b      	str	r3, [r7, #4]
100012ac:	2301      	movs	r3, #1
100012ae:	f8c7 308c 	str.w	r3, [r7, #140]	; 0x8c
100012b2:	e9d7 0100 	ldrd	r0, r1, [r7]
100012b6:	f04f 0200 	mov.w	r2, #0
100012ba:	f04f 0300 	mov.w	r3, #0
100012be:	f003 fdcc 	bl	10004e5a <__aeabi_dcmpeq>
100012c2:	4603      	mov	r3, r0
100012c4:	2b00      	cmp	r3, #0
100012c6:	d00f      	beq.n	100012e8 <fp_digits+0x70>
100012c8:	2300      	movs	r3, #0
100012ca:	f8c7 3094 	str.w	r3, [r7, #148]	; 0x94
100012ce:	f8d7 3094 	ldr.w	r3, [r7, #148]	; 0x94
100012d2:	f8c7 3098 	str.w	r3, [r7, #152]	; 0x98
100012d6:	f8d7 3098 	ldr.w	r3, [r7, #152]	; 0x98
100012da:	f8c7 309c 	str.w	r3, [r7, #156]	; 0x9c
100012de:	f06f 0304 	mvn.w	r3, #4
100012e2:	f8c7 3090 	str.w	r3, [r7, #144]	; 0x90
100012e6:	e35b      	b.n	100019a0 <fp_digits+0x728>
100012e8:	f107 032c 	add.w	r3, r7, #44	; 0x2c
100012ec:	ed97 0b00 	vldr	d0, [r7]
100012f0:	4618      	mov	r0, r3
100012f2:	f002 fe43 	bl	10003f7c <_frexpl>
100012f6:	eeb0 7a40 	vmov.f32	s14, s0
100012fa:	eef0 7a60 	vmov.f32	s15, s1
100012fe:	ed87 7b16 	vstr	d7, [r7, #88]	; 0x58
10001302:	6afb      	ldr	r3, [r7, #44]	; 0x2c
10001304:	f240 122d 	movw	r2, #301	; 0x12d
10001308:	fb02 f303 	mul.w	r3, r2, r3
1000130c:	f5a3 53ab 	sub.w	r3, r3, #5472	; 0x1560
10001310:	3b1c      	subs	r3, #28
10001312:	4aa1      	ldr	r2, [pc, #644]	; (10001598 <fp_digits+0x320>)
10001314:	fb82 1203 	smull	r1, r2, r2, r3
10001318:	1192      	asrs	r2, r2, #6
1000131a:	17db      	asrs	r3, r3, #31
1000131c:	1ad3      	subs	r3, r2, r3
1000131e:	f8c7 3090 	str.w	r3, [r7, #144]	; 0x90
10001322:	6afb      	ldr	r3, [r7, #44]	; 0x2c
10001324:	f8d7 2090 	ldr.w	r2, [r7, #144]	; 0x90
10001328:	1ad3      	subs	r3, r2, r3
1000132a:	ed9f 0b93 	vldr	d0, [pc, #588]	; 10001578 <fp_digits+0x300>
1000132e:	4618      	mov	r0, r3
10001330:	f002 fe82 	bl	10004038 <_ldexpl>
10001334:	eeb0 7a40 	vmov.f32	s14, s0
10001338:	eef0 7a60 	vmov.f32	s15, s1
1000133c:	ed87 7b0c 	vstr	d7, [r7, #48]	; 0x30
10001340:	f8d7 3090 	ldr.w	r3, [r7, #144]	; 0x90
10001344:	f8c7 3088 	str.w	r3, [r7, #136]	; 0x88
10001348:	f8d7 3088 	ldr.w	r3, [r7, #136]	; 0x88
1000134c:	2b00      	cmp	r3, #0
1000134e:	da0a      	bge.n	10001366 <fp_digits+0xee>
10001350:	f8d7 3088 	ldr.w	r3, [r7, #136]	; 0x88
10001354:	425b      	negs	r3, r3
10001356:	f8c7 3088 	str.w	r3, [r7, #136]	; 0x88
1000135a:	a389      	add	r3, pc, #548	; (adr r3, 10001580 <fp_digits+0x308>)
1000135c:	e9d3 2300 	ldrd	r2, r3, [r3]
10001360:	e9c7 2310 	strd	r2, r3, [r7, #64]	; 0x40
10001364:	e004      	b.n	10001370 <fp_digits+0xf8>
10001366:	f04f 0200 	mov.w	r2, #0
1000136a:	4b8c      	ldr	r3, [pc, #560]	; (1000159c <fp_digits+0x324>)
1000136c:	e9c7 2310 	strd	r2, r3, [r7, #64]	; 0x40
10001370:	f8d7 3088 	ldr.w	r3, [r7, #136]	; 0x88
10001374:	2b00      	cmp	r3, #0
10001376:	d024      	beq.n	100013c2 <fp_digits+0x14a>
10001378:	f8d7 3088 	ldr.w	r3, [r7, #136]	; 0x88
1000137c:	f003 0301 	and.w	r3, r3, #1
10001380:	2b00      	cmp	r3, #0
10001382:	d00e      	beq.n	100013a2 <fp_digits+0x12a>
10001384:	e9d7 0110 	ldrd	r0, r1, [r7, #64]	; 0x40
10001388:	e9d7 230c 	ldrd	r2, r3, [r7, #48]	; 0x30
1000138c:	f003 fa82 	bl	10004894 <__aeabi_dmul>
10001390:	4602      	mov	r2, r0
10001392:	460b      	mov	r3, r1
10001394:	e9c7 230c 	strd	r2, r3, [r7, #48]	; 0x30
10001398:	f8d7 3088 	ldr.w	r3, [r7, #136]	; 0x88
1000139c:	2b01      	cmp	r3, #1
1000139e:	d100      	bne.n	100013a2 <fp_digits+0x12a>
100013a0:	e00f      	b.n	100013c2 <fp_digits+0x14a>
100013a2:	e9d7 0110 	ldrd	r0, r1, [r7, #64]	; 0x40
100013a6:	e9d7 2310 	ldrd	r2, r3, [r7, #64]	; 0x40
100013aa:	f003 fa73 	bl	10004894 <__aeabi_dmul>
100013ae:	4602      	mov	r2, r0
100013b0:	460b      	mov	r3, r1
100013b2:	e9c7 2310 	strd	r2, r3, [r7, #64]	; 0x40
100013b6:	f8d7 3088 	ldr.w	r3, [r7, #136]	; 0x88
100013ba:	105b      	asrs	r3, r3, #1
100013bc:	f8c7 3088 	str.w	r3, [r7, #136]	; 0x88
100013c0:	e7da      	b.n	10001378 <fp_digits+0x100>
100013c2:	e9d7 0116 	ldrd	r0, r1, [r7, #88]	; 0x58
100013c6:	e9d7 230c 	ldrd	r2, r3, [r7, #48]	; 0x30
100013ca:	f003 faeb 	bl	100049a4 <__aeabi_ddiv>
100013ce:	4602      	mov	r2, r0
100013d0:	460b      	mov	r3, r1
100013d2:	e9c7 2314 	strd	r2, r3, [r7, #80]	; 0x50
100013d6:	e01e      	b.n	10001416 <fp_digits+0x19e>
100013d8:	e9d7 2314 	ldrd	r2, r3, [r7, #80]	; 0x50
100013dc:	4610      	mov	r0, r2
100013de:	4619      	mov	r1, r3
100013e0:	f04f 0200 	mov.w	r2, #0
100013e4:	4b6e      	ldr	r3, [pc, #440]	; (100015a0 <fp_digits+0x328>)
100013e6:	f003 fa55 	bl	10004894 <__aeabi_dmul>
100013ea:	4602      	mov	r2, r0
100013ec:	460b      	mov	r3, r1
100013ee:	e9c7 2314 	strd	r2, r3, [r7, #80]	; 0x50
100013f2:	f8d7 3090 	ldr.w	r3, [r7, #144]	; 0x90
100013f6:	3b01      	subs	r3, #1
100013f8:	f8c7 3090 	str.w	r3, [r7, #144]	; 0x90
100013fc:	e9d7 230c 	ldrd	r2, r3, [r7, #48]	; 0x30
10001400:	4610      	mov	r0, r2
10001402:	4619      	mov	r1, r3
10001404:	f04f 0200 	mov.w	r2, #0
10001408:	4b65      	ldr	r3, [pc, #404]	; (100015a0 <fp_digits+0x328>)
1000140a:	f003 facb 	bl	100049a4 <__aeabi_ddiv>
1000140e:	4602      	mov	r2, r0
10001410:	460b      	mov	r3, r1
10001412:	e9c7 230c 	strd	r2, r3, [r7, #48]	; 0x30
10001416:	e9d7 2314 	ldrd	r2, r3, [r7, #80]	; 0x50
1000141a:	4610      	mov	r0, r2
1000141c:	4619      	mov	r1, r3
1000141e:	a35a      	add	r3, pc, #360	; (adr r3, 10001588 <fp_digits+0x310>)
10001420:	e9d3 2300 	ldrd	r2, r3, [r3]
10001424:	f003 fd31 	bl	10004e8a <__aeabi_dcmplt>
10001428:	4603      	mov	r3, r0
1000142a:	2b00      	cmp	r3, #0
1000142c:	d1d4      	bne.n	100013d8 <fp_digits+0x160>
1000142e:	e01e      	b.n	1000146e <fp_digits+0x1f6>
10001430:	e9d7 2314 	ldrd	r2, r3, [r7, #80]	; 0x50
10001434:	4610      	mov	r0, r2
10001436:	4619      	mov	r1, r3
10001438:	f04f 0200 	mov.w	r2, #0
1000143c:	4b58      	ldr	r3, [pc, #352]	; (100015a0 <fp_digits+0x328>)
1000143e:	f003 fab1 	bl	100049a4 <__aeabi_ddiv>
10001442:	4602      	mov	r2, r0
10001444:	460b      	mov	r3, r1
10001446:	e9c7 2314 	strd	r2, r3, [r7, #80]	; 0x50
1000144a:	f8d7 3090 	ldr.w	r3, [r7, #144]	; 0x90
1000144e:	3301      	adds	r3, #1
10001450:	f8c7 3090 	str.w	r3, [r7, #144]	; 0x90
10001454:	e9d7 230c 	ldrd	r2, r3, [r7, #48]	; 0x30
10001458:	4610      	mov	r0, r2
1000145a:	4619      	mov	r1, r3
1000145c:	f04f 0200 	mov.w	r2, #0
10001460:	4b4f      	ldr	r3, [pc, #316]	; (100015a0 <fp_digits+0x328>)
10001462:	f003 fa17 	bl	10004894 <__aeabi_dmul>
10001466:	4602      	mov	r2, r0
10001468:	460b      	mov	r3, r1
1000146a:	e9c7 230c 	strd	r2, r3, [r7, #48]	; 0x30
1000146e:	e9d7 2314 	ldrd	r2, r3, [r7, #80]	; 0x50
10001472:	4610      	mov	r0, r2
10001474:	4619      	mov	r1, r3
10001476:	a346      	add	r3, pc, #280	; (adr r3, 10001590 <fp_digits+0x318>)
10001478:	e9d3 2300 	ldrd	r2, r3, [r3]
1000147c:	f003 fd58 	bl	10004f30 <__aeabi_dcmpge>
10001480:	4603      	mov	r3, r0
10001482:	2b00      	cmp	r3, #0
10001484:	d1d4      	bne.n	10001430 <fp_digits+0x1b8>
10001486:	e9d7 2314 	ldrd	r2, r3, [r7, #80]	; 0x50
1000148a:	4610      	mov	r0, r2
1000148c:	4619      	mov	r1, r3
1000148e:	f003 fc99 	bl	10004dc4 <__aeabi_d2iz>
10001492:	4603      	mov	r3, r0
10001494:	f8c7 309c 	str.w	r3, [r7, #156]	; 0x9c
10001498:	f8d7 009c 	ldr.w	r0, [r7, #156]	; 0x9c
1000149c:	f003 fcd5 	bl	10004e4a <__aeabi_i2d>
100014a0:	6afb      	ldr	r3, [r7, #44]	; 0x2c
100014a2:	f8d7 2090 	ldr.w	r2, [r7, #144]	; 0x90
100014a6:	1ad3      	subs	r3, r2, r3
100014a8:	ec41 0b10 	vmov	d0, r0, r1
100014ac:	4618      	mov	r0, r3
100014ae:	f002 fdc3 	bl	10004038 <_ldexpl>
100014b2:	eeb0 7a40 	vmov.f32	s14, s0
100014b6:	eef0 7a60 	vmov.f32	s15, s1
100014ba:	ed87 7b14 	vstr	d7, [r7, #80]	; 0x50
100014be:	f04f 0200 	mov.w	r2, #0
100014c2:	f04f 0300 	mov.w	r3, #0
100014c6:	e9c7 2312 	strd	r2, r3, [r7, #72]	; 0x48
100014ca:	f8d7 3090 	ldr.w	r3, [r7, #144]	; 0x90
100014ce:	f8c7 3088 	str.w	r3, [r7, #136]	; 0x88
100014d2:	f8d7 3088 	ldr.w	r3, [r7, #136]	; 0x88
100014d6:	2b00      	cmp	r3, #0
100014d8:	da66      	bge.n	100015a8 <fp_digits+0x330>
100014da:	f8d7 3088 	ldr.w	r3, [r7, #136]	; 0x88
100014de:	425b      	negs	r3, r3
100014e0:	f8c7 3088 	str.w	r3, [r7, #136]	; 0x88
100014e4:	a326      	add	r3, pc, #152	; (adr r3, 10001580 <fp_digits+0x308>)
100014e6:	e9d3 2300 	ldrd	r2, r3, [r3]
100014ea:	e9c7 2310 	strd	r2, r3, [r7, #64]	; 0x40
100014ee:	f04f 0200 	mov.w	r2, #0
100014f2:	f04f 0300 	mov.w	r3, #0
100014f6:	e9c7 230e 	strd	r2, r3, [r7, #56]	; 0x38
100014fa:	e9d7 2310 	ldrd	r2, r3, [r7, #64]	; 0x40
100014fe:	e9c7 2308 	strd	r2, r3, [r7, #32]
10001502:	2300      	movs	r3, #0
10001504:	623b      	str	r3, [r7, #32]
10001506:	e9d7 0110 	ldrd	r0, r1, [r7, #64]	; 0x40
1000150a:	e9d7 2308 	ldrd	r2, r3, [r7, #32]
1000150e:	f003 fae9 	bl	10004ae4 <__aeabi_dsub>
10001512:	4602      	mov	r2, r0
10001514:	460b      	mov	r3, r1
10001516:	e9c7 2320 	strd	r2, r3, [r7, #128]	; 0x80
1000151a:	e9d7 230e 	ldrd	r2, r3, [r7, #56]	; 0x38
1000151e:	4610      	mov	r0, r2
10001520:	4619      	mov	r1, r3
10001522:	e9d7 2320 	ldrd	r2, r3, [r7, #128]	; 0x80
10001526:	f003 fbb9 	bl	10004c9c <__aeabi_dadd>
1000152a:	4602      	mov	r2, r0
1000152c:	460b      	mov	r3, r1
1000152e:	e9c7 230e 	strd	r2, r3, [r7, #56]	; 0x38
10001532:	e9d7 2308 	ldrd	r2, r3, [r7, #32]
10001536:	e9c7 2310 	strd	r2, r3, [r7, #64]	; 0x40
1000153a:	e9d7 2310 	ldrd	r2, r3, [r7, #64]	; 0x40
1000153e:	4610      	mov	r0, r2
10001540:	4619      	mov	r1, r3
10001542:	f04f 0200 	mov.w	r2, #0
10001546:	4b15      	ldr	r3, [pc, #84]	; (1000159c <fp_digits+0x324>)
10001548:	f003 f9a4 	bl	10004894 <__aeabi_dmul>
1000154c:	4602      	mov	r2, r0
1000154e:	460b      	mov	r3, r1
10001550:	f04f 0000 	mov.w	r0, #0
10001554:	4913      	ldr	r1, [pc, #76]	; (100015a4 <fp_digits+0x32c>)
10001556:	f003 fac5 	bl	10004ae4 <__aeabi_dsub>
1000155a:	4602      	mov	r2, r0
1000155c:	460b      	mov	r3, r1
1000155e:	4610      	mov	r0, r2
10001560:	4619      	mov	r1, r3
10001562:	f04f 0200 	mov.w	r2, #0
10001566:	4b0d      	ldr	r3, [pc, #52]	; (1000159c <fp_digits+0x324>)
10001568:	f003 fa1c 	bl	100049a4 <__aeabi_ddiv>
1000156c:	4602      	mov	r2, r0
1000156e:	460b      	mov	r3, r1
10001570:	e9c7 230e 	strd	r2, r3, [r7, #56]	; 0x38
10001574:	e023      	b.n	100015be <fp_digits+0x346>
10001576:	bf00      	nop
10001578:	00000000 	.word	0x00000000
1000157c:	3ff00000 	.word	0x3ff00000
10001580:	9999999a 	.word	0x9999999a
10001584:	3fc99999 	.word	0x3fc99999
10001588:	00000000 	.word	0x00000000
1000158c:	40f86a00 	.word	0x40f86a00
10001590:	00000000 	.word	0x00000000
10001594:	412e8480 	.word	0x412e8480
10001598:	10624dd3 	.word	0x10624dd3
1000159c:	40140000 	.word	0x40140000
100015a0:	40240000 	.word	0x40240000
100015a4:	3ff00000 	.word	0x3ff00000
100015a8:	f04f 0200 	mov.w	r2, #0
100015ac:	4ba8      	ldr	r3, [pc, #672]	; (10001850 <fp_digits+0x5d8>)
100015ae:	e9c7 2310 	strd	r2, r3, [r7, #64]	; 0x40
100015b2:	f04f 0200 	mov.w	r2, #0
100015b6:	f04f 0300 	mov.w	r3, #0
100015ba:	e9c7 230e 	strd	r2, r3, [r7, #56]	; 0x38
100015be:	f8d7 3088 	ldr.w	r3, [r7, #136]	; 0x88
100015c2:	2b00      	cmp	r3, #0
100015c4:	f000 80a1 	beq.w	1000170a <fp_digits+0x492>
100015c8:	f8d7 3088 	ldr.w	r3, [r7, #136]	; 0x88
100015cc:	f003 0301 	and.w	r3, r3, #1
100015d0:	2b00      	cmp	r3, #0
100015d2:	d050      	beq.n	10001676 <fp_digits+0x3fe>
100015d4:	e9d7 0114 	ldrd	r0, r1, [r7, #80]	; 0x50
100015d8:	e9d7 230e 	ldrd	r2, r3, [r7, #56]	; 0x38
100015dc:	f003 f95a 	bl	10004894 <__aeabi_dmul>
100015e0:	4602      	mov	r2, r0
100015e2:	460b      	mov	r3, r1
100015e4:	4614      	mov	r4, r2
100015e6:	461d      	mov	r5, r3
100015e8:	e9d7 0110 	ldrd	r0, r1, [r7, #64]	; 0x40
100015ec:	e9d7 230e 	ldrd	r2, r3, [r7, #56]	; 0x38
100015f0:	f003 fb54 	bl	10004c9c <__aeabi_dadd>
100015f4:	4602      	mov	r2, r0
100015f6:	460b      	mov	r3, r1
100015f8:	4610      	mov	r0, r2
100015fa:	4619      	mov	r1, r3
100015fc:	e9d7 2312 	ldrd	r2, r3, [r7, #72]	; 0x48
10001600:	f003 f948 	bl	10004894 <__aeabi_dmul>
10001604:	4602      	mov	r2, r0
10001606:	460b      	mov	r3, r1
10001608:	4620      	mov	r0, r4
1000160a:	4629      	mov	r1, r5
1000160c:	f003 fb46 	bl	10004c9c <__aeabi_dadd>
10001610:	4602      	mov	r2, r0
10001612:	460b      	mov	r3, r1
10001614:	e9c7 2312 	strd	r2, r3, [r7, #72]	; 0x48
10001618:	e9d7 0110 	ldrd	r0, r1, [r7, #64]	; 0x40
1000161c:	e9d7 2314 	ldrd	r2, r3, [r7, #80]	; 0x50
10001620:	f003 f938 	bl	10004894 <__aeabi_dmul>
10001624:	4602      	mov	r2, r0
10001626:	460b      	mov	r3, r1
10001628:	e9c7 2314 	strd	r2, r3, [r7, #80]	; 0x50
1000162c:	e9d7 2314 	ldrd	r2, r3, [r7, #80]	; 0x50
10001630:	e9c7 2306 	strd	r2, r3, [r7, #24]
10001634:	2300      	movs	r3, #0
10001636:	61bb      	str	r3, [r7, #24]
10001638:	e9d7 0114 	ldrd	r0, r1, [r7, #80]	; 0x50
1000163c:	e9d7 2306 	ldrd	r2, r3, [r7, #24]
10001640:	f003 fa50 	bl	10004ae4 <__aeabi_dsub>
10001644:	4602      	mov	r2, r0
10001646:	460b      	mov	r3, r1
10001648:	e9c7 231c 	strd	r2, r3, [r7, #112]	; 0x70
1000164c:	e9d7 2312 	ldrd	r2, r3, [r7, #72]	; 0x48
10001650:	4610      	mov	r0, r2
10001652:	4619      	mov	r1, r3
10001654:	e9d7 231c 	ldrd	r2, r3, [r7, #112]	; 0x70
10001658:	f003 fb20 	bl	10004c9c <__aeabi_dadd>
1000165c:	4602      	mov	r2, r0
1000165e:	460b      	mov	r3, r1
10001660:	e9c7 2312 	strd	r2, r3, [r7, #72]	; 0x48
10001664:	e9d7 2306 	ldrd	r2, r3, [r7, #24]
10001668:	e9c7 2314 	strd	r2, r3, [r7, #80]	; 0x50
1000166c:	f8d7 3088 	ldr.w	r3, [r7, #136]	; 0x88
10001670:	2b01      	cmp	r3, #1
10001672:	d100      	bne.n	10001676 <fp_digits+0x3fe>
10001674:	e049      	b.n	1000170a <fp_digits+0x492>
10001676:	e9d7 2310 	ldrd	r2, r3, [r7, #64]	; 0x40
1000167a:	4610      	mov	r0, r2
1000167c:	4619      	mov	r1, r3
1000167e:	f003 fb0d 	bl	10004c9c <__aeabi_dadd>
10001682:	4602      	mov	r2, r0
10001684:	460b      	mov	r3, r1
10001686:	4610      	mov	r0, r2
10001688:	4619      	mov	r1, r3
1000168a:	e9d7 230e 	ldrd	r2, r3, [r7, #56]	; 0x38
1000168e:	f003 fb05 	bl	10004c9c <__aeabi_dadd>
10001692:	4602      	mov	r2, r0
10001694:	460b      	mov	r3, r1
10001696:	4610      	mov	r0, r2
10001698:	4619      	mov	r1, r3
1000169a:	e9d7 230e 	ldrd	r2, r3, [r7, #56]	; 0x38
1000169e:	f003 f8f9 	bl	10004894 <__aeabi_dmul>
100016a2:	4602      	mov	r2, r0
100016a4:	460b      	mov	r3, r1
100016a6:	e9c7 230e 	strd	r2, r3, [r7, #56]	; 0x38
100016aa:	e9d7 0110 	ldrd	r0, r1, [r7, #64]	; 0x40
100016ae:	e9d7 2310 	ldrd	r2, r3, [r7, #64]	; 0x40
100016b2:	f003 f8ef 	bl	10004894 <__aeabi_dmul>
100016b6:	4602      	mov	r2, r0
100016b8:	460b      	mov	r3, r1
100016ba:	e9c7 2310 	strd	r2, r3, [r7, #64]	; 0x40
100016be:	e9d7 2310 	ldrd	r2, r3, [r7, #64]	; 0x40
100016c2:	e9c7 2304 	strd	r2, r3, [r7, #16]
100016c6:	2300      	movs	r3, #0
100016c8:	613b      	str	r3, [r7, #16]
100016ca:	e9d7 0110 	ldrd	r0, r1, [r7, #64]	; 0x40
100016ce:	e9d7 2304 	ldrd	r2, r3, [r7, #16]
100016d2:	f003 fa07 	bl	10004ae4 <__aeabi_dsub>
100016d6:	4602      	mov	r2, r0
100016d8:	460b      	mov	r3, r1
100016da:	e9c7 231e 	strd	r2, r3, [r7, #120]	; 0x78
100016de:	e9d7 230e 	ldrd	r2, r3, [r7, #56]	; 0x38
100016e2:	4610      	mov	r0, r2
100016e4:	4619      	mov	r1, r3
100016e6:	e9d7 231e 	ldrd	r2, r3, [r7, #120]	; 0x78
100016ea:	f003 fad7 	bl	10004c9c <__aeabi_dadd>
100016ee:	4602      	mov	r2, r0
100016f0:	460b      	mov	r3, r1
100016f2:	e9c7 230e 	strd	r2, r3, [r7, #56]	; 0x38
100016f6:	e9d7 2304 	ldrd	r2, r3, [r7, #16]
100016fa:	e9c7 2310 	strd	r2, r3, [r7, #64]	; 0x40
100016fe:	f8d7 3088 	ldr.w	r3, [r7, #136]	; 0x88
10001702:	105b      	asrs	r3, r3, #1
10001704:	f8c7 3088 	str.w	r3, [r7, #136]	; 0x88
10001708:	e75e      	b.n	100015c8 <fp_digits+0x350>
1000170a:	e9d7 0114 	ldrd	r0, r1, [r7, #80]	; 0x50
1000170e:	e9d7 2316 	ldrd	r2, r3, [r7, #88]	; 0x58
10001712:	f003 fbe3 	bl	10004edc <__aeabi_dcmple>
10001716:	4603      	mov	r3, r0
10001718:	2b00      	cmp	r3, #0
1000171a:	d057      	beq.n	100017cc <fp_digits+0x554>
1000171c:	bf00      	nop
1000171e:	e9d7 2314 	ldrd	r2, r3, [r7, #80]	; 0x50
10001722:	e9d7 0116 	ldrd	r0, r1, [r7, #88]	; 0x58
10001726:	f003 f9dd 	bl	10004ae4 <__aeabi_dsub>
1000172a:	4602      	mov	r2, r0
1000172c:	460b      	mov	r3, r1
1000172e:	e9c7 2316 	strd	r2, r3, [r7, #88]	; 0x58
10001732:	e9d7 2312 	ldrd	r2, r3, [r7, #72]	; 0x48
10001736:	e9d7 0116 	ldrd	r0, r1, [r7, #88]	; 0x58
1000173a:	f003 f9d3 	bl	10004ae4 <__aeabi_dsub>
1000173e:	4602      	mov	r2, r0
10001740:	460b      	mov	r3, r1
10001742:	e9c7 2316 	strd	r2, r3, [r7, #88]	; 0x58
10001746:	e9d7 230c 	ldrd	r2, r3, [r7, #48]	; 0x30
1000174a:	e9d7 0116 	ldrd	r0, r1, [r7, #88]	; 0x58
1000174e:	f003 f929 	bl	100049a4 <__aeabi_ddiv>
10001752:	4602      	mov	r2, r0
10001754:	460b      	mov	r3, r1
10001756:	e9c7 2316 	strd	r2, r3, [r7, #88]	; 0x58
1000175a:	e9d7 2316 	ldrd	r2, r3, [r7, #88]	; 0x58
1000175e:	4610      	mov	r0, r2
10001760:	4619      	mov	r1, r3
10001762:	a339      	add	r3, pc, #228	; (adr r3, 10001848 <fp_digits+0x5d0>)
10001764:	e9d3 2300 	ldrd	r2, r3, [r3]
10001768:	f003 f894 	bl	10004894 <__aeabi_dmul>
1000176c:	4602      	mov	r2, r0
1000176e:	460b      	mov	r3, r1
10001770:	e9c7 2316 	strd	r2, r3, [r7, #88]	; 0x58
10001774:	e9d7 2316 	ldrd	r2, r3, [r7, #88]	; 0x58
10001778:	4610      	mov	r0, r2
1000177a:	4619      	mov	r1, r3
1000177c:	f003 fb22 	bl	10004dc4 <__aeabi_d2iz>
10001780:	4603      	mov	r3, r0
10001782:	f8c7 3098 	str.w	r3, [r7, #152]	; 0x98
10001786:	e9d7 4516 	ldrd	r4, r5, [r7, #88]	; 0x58
1000178a:	f8d7 0098 	ldr.w	r0, [r7, #152]	; 0x98
1000178e:	f003 fb5c 	bl	10004e4a <__aeabi_i2d>
10001792:	4602      	mov	r2, r0
10001794:	460b      	mov	r3, r1
10001796:	4620      	mov	r0, r4
10001798:	4629      	mov	r1, r5
1000179a:	f003 f9a3 	bl	10004ae4 <__aeabi_dsub>
1000179e:	4602      	mov	r2, r0
100017a0:	460b      	mov	r3, r1
100017a2:	4610      	mov	r0, r2
100017a4:	4619      	mov	r1, r3
100017a6:	a328      	add	r3, pc, #160	; (adr r3, 10001848 <fp_digits+0x5d0>)
100017a8:	e9d3 2300 	ldrd	r2, r3, [r3]
100017ac:	f003 f872 	bl	10004894 <__aeabi_dmul>
100017b0:	4602      	mov	r2, r0
100017b2:	460b      	mov	r3, r1
100017b4:	e9c7 2316 	strd	r2, r3, [r7, #88]	; 0x58
100017b8:	e9d7 2316 	ldrd	r2, r3, [r7, #88]	; 0x58
100017bc:	4610      	mov	r0, r2
100017be:	4619      	mov	r1, r3
100017c0:	f003 fb00 	bl	10004dc4 <__aeabi_d2iz>
100017c4:	4603      	mov	r3, r0
100017c6:	f8c7 3094 	str.w	r3, [r7, #148]	; 0x94
100017ca:	e012      	b.n	100017f2 <fp_digits+0x57a>
100017cc:	f8d7 309c 	ldr.w	r3, [r7, #156]	; 0x9c
100017d0:	3b01      	subs	r3, #1
100017d2:	f8c7 309c 	str.w	r3, [r7, #156]	; 0x9c
100017d6:	e65f      	b.n	10001498 <fp_digits+0x220>
100017d8:	f8d7 3094 	ldr.w	r3, [r7, #148]	; 0x94
100017dc:	f503 2374 	add.w	r3, r3, #999424	; 0xf4000
100017e0:	f503 7310 	add.w	r3, r3, #576	; 0x240
100017e4:	f8c7 3094 	str.w	r3, [r7, #148]	; 0x94
100017e8:	f8d7 3098 	ldr.w	r3, [r7, #152]	; 0x98
100017ec:	3b01      	subs	r3, #1
100017ee:	f8c7 3098 	str.w	r3, [r7, #152]	; 0x98
100017f2:	f8d7 3094 	ldr.w	r3, [r7, #148]	; 0x94
100017f6:	2b00      	cmp	r3, #0
100017f8:	dbee      	blt.n	100017d8 <fp_digits+0x560>
100017fa:	e00c      	b.n	10001816 <fp_digits+0x59e>
100017fc:	f8d7 3094 	ldr.w	r3, [r7, #148]	; 0x94
10001800:	f5a3 2374 	sub.w	r3, r3, #999424	; 0xf4000
10001804:	f5a3 7310 	sub.w	r3, r3, #576	; 0x240
10001808:	f8c7 3094 	str.w	r3, [r7, #148]	; 0x94
1000180c:	f8d7 3098 	ldr.w	r3, [r7, #152]	; 0x98
10001810:	3301      	adds	r3, #1
10001812:	f8c7 3098 	str.w	r3, [r7, #152]	; 0x98
10001816:	f8d7 3094 	ldr.w	r3, [r7, #148]	; 0x94
1000181a:	4a0e      	ldr	r2, [pc, #56]	; (10001854 <fp_digits+0x5dc>)
1000181c:	4293      	cmp	r3, r2
1000181e:	dced      	bgt.n	100017fc <fp_digits+0x584>
10001820:	e00c      	b.n	1000183c <fp_digits+0x5c4>
10001822:	f8d7 3098 	ldr.w	r3, [r7, #152]	; 0x98
10001826:	f503 2374 	add.w	r3, r3, #999424	; 0xf4000
1000182a:	f503 7310 	add.w	r3, r3, #576	; 0x240
1000182e:	f8c7 3098 	str.w	r3, [r7, #152]	; 0x98
10001832:	f8d7 309c 	ldr.w	r3, [r7, #156]	; 0x9c
10001836:	3b01      	subs	r3, #1
10001838:	f8c7 309c 	str.w	r3, [r7, #156]	; 0x9c
1000183c:	f8d7 3098 	ldr.w	r3, [r7, #152]	; 0x98
10001840:	2b00      	cmp	r3, #0
10001842:	dbee      	blt.n	10001822 <fp_digits+0x5aa>
10001844:	e015      	b.n	10001872 <fp_digits+0x5fa>
10001846:	bf00      	nop
10001848:	00000000 	.word	0x00000000
1000184c:	412e8480 	.word	0x412e8480
10001850:	40140000 	.word	0x40140000
10001854:	000f423f 	.word	0x000f423f
10001858:	f8d7 3098 	ldr.w	r3, [r7, #152]	; 0x98
1000185c:	f5a3 2374 	sub.w	r3, r3, #999424	; 0xf4000
10001860:	f5a3 7310 	sub.w	r3, r3, #576	; 0x240
10001864:	f8c7 3098 	str.w	r3, [r7, #152]	; 0x98
10001868:	f8d7 309c 	ldr.w	r3, [r7, #156]	; 0x9c
1000186c:	3301      	adds	r3, #1
1000186e:	f8c7 309c 	str.w	r3, [r7, #156]	; 0x9c
10001872:	f8d7 3098 	ldr.w	r3, [r7, #152]	; 0x98
10001876:	4a61      	ldr	r2, [pc, #388]	; (100019fc <fp_digits+0x784>)
10001878:	4293      	cmp	r3, r2
1000187a:	dced      	bgt.n	10001858 <fp_digits+0x5e0>
1000187c:	f8d7 309c 	ldr.w	r3, [r7, #156]	; 0x9c
10001880:	4a5f      	ldr	r2, [pc, #380]	; (10001a00 <fp_digits+0x788>)
10001882:	4293      	cmp	r3, r2
10001884:	dc3f      	bgt.n	10001906 <fp_digits+0x68e>
10001886:	f8d7 3098 	ldr.w	r3, [r7, #152]	; 0x98
1000188a:	4a5e      	ldr	r2, [pc, #376]	; (10001a04 <fp_digits+0x78c>)
1000188c:	fb82 1203 	smull	r1, r2, r2, r3
10001890:	1352      	asrs	r2, r2, #13
10001892:	17db      	asrs	r3, r3, #31
10001894:	1ad3      	subs	r3, r2, r3
10001896:	66fb      	str	r3, [r7, #108]	; 0x6c
10001898:	f8d7 209c 	ldr.w	r2, [r7, #156]	; 0x9c
1000189c:	4613      	mov	r3, r2
1000189e:	009b      	lsls	r3, r3, #2
100018a0:	4413      	add	r3, r2
100018a2:	005b      	lsls	r3, r3, #1
100018a4:	461a      	mov	r2, r3
100018a6:	6efb      	ldr	r3, [r7, #108]	; 0x6c
100018a8:	4413      	add	r3, r2
100018aa:	f8c7 309c 	str.w	r3, [r7, #156]	; 0x9c
100018ae:	f8d7 3094 	ldr.w	r3, [r7, #148]	; 0x94
100018b2:	4a54      	ldr	r2, [pc, #336]	; (10001a04 <fp_digits+0x78c>)
100018b4:	fb82 1203 	smull	r1, r2, r2, r3
100018b8:	1352      	asrs	r2, r2, #13
100018ba:	17db      	asrs	r3, r3, #31
100018bc:	1ad3      	subs	r3, r2, r3
100018be:	66bb      	str	r3, [r7, #104]	; 0x68
100018c0:	6efb      	ldr	r3, [r7, #108]	; 0x6c
100018c2:	4a51      	ldr	r2, [pc, #324]	; (10001a08 <fp_digits+0x790>)
100018c4:	fb02 f203 	mul.w	r2, r2, r3
100018c8:	f8d7 3098 	ldr.w	r3, [r7, #152]	; 0x98
100018cc:	441a      	add	r2, r3
100018ce:	4613      	mov	r3, r2
100018d0:	009b      	lsls	r3, r3, #2
100018d2:	4413      	add	r3, r2
100018d4:	005b      	lsls	r3, r3, #1
100018d6:	461a      	mov	r2, r3
100018d8:	6ebb      	ldr	r3, [r7, #104]	; 0x68
100018da:	4413      	add	r3, r2
100018dc:	f8c7 3098 	str.w	r3, [r7, #152]	; 0x98
100018e0:	6ebb      	ldr	r3, [r7, #104]	; 0x68
100018e2:	4a49      	ldr	r2, [pc, #292]	; (10001a08 <fp_digits+0x790>)
100018e4:	fb02 f203 	mul.w	r2, r2, r3
100018e8:	f8d7 3094 	ldr.w	r3, [r7, #148]	; 0x94
100018ec:	441a      	add	r2, r3
100018ee:	4613      	mov	r3, r2
100018f0:	009b      	lsls	r3, r3, #2
100018f2:	4413      	add	r3, r2
100018f4:	005b      	lsls	r3, r3, #1
100018f6:	f8c7 3094 	str.w	r3, [r7, #148]	; 0x94
100018fa:	f8d7 3090 	ldr.w	r3, [r7, #144]	; 0x90
100018fe:	3b01      	subs	r3, #1
10001900:	f8c7 3090 	str.w	r3, [r7, #144]	; 0x90
10001904:	e04c      	b.n	100019a0 <fp_digits+0x728>
10001906:	f8d7 309c 	ldr.w	r3, [r7, #156]	; 0x9c
1000190a:	4a3c      	ldr	r2, [pc, #240]	; (100019fc <fp_digits+0x784>)
1000190c:	4293      	cmp	r3, r2
1000190e:	dd47      	ble.n	100019a0 <fp_digits+0x728>
10001910:	f8d7 309c 	ldr.w	r3, [r7, #156]	; 0x9c
10001914:	4a3d      	ldr	r2, [pc, #244]	; (10001a0c <fp_digits+0x794>)
10001916:	fb82 1203 	smull	r1, r2, r2, r3
1000191a:	1092      	asrs	r2, r2, #2
1000191c:	17db      	asrs	r3, r3, #31
1000191e:	1ad3      	subs	r3, r2, r3
10001920:	667b      	str	r3, [r7, #100]	; 0x64
10001922:	6e7b      	ldr	r3, [r7, #100]	; 0x64
10001924:	f06f 0209 	mvn.w	r2, #9
10001928:	fb02 f203 	mul.w	r2, r2, r3
1000192c:	f8d7 309c 	ldr.w	r3, [r7, #156]	; 0x9c
10001930:	4413      	add	r3, r2
10001932:	4a37      	ldr	r2, [pc, #220]	; (10001a10 <fp_digits+0x798>)
10001934:	fb02 f303 	mul.w	r3, r2, r3
10001938:	f8d7 2098 	ldr.w	r2, [r7, #152]	; 0x98
1000193c:	4413      	add	r3, r2
1000193e:	f8c7 3098 	str.w	r3, [r7, #152]	; 0x98
10001942:	6e7b      	ldr	r3, [r7, #100]	; 0x64
10001944:	f8c7 309c 	str.w	r3, [r7, #156]	; 0x9c
10001948:	f8d7 3098 	ldr.w	r3, [r7, #152]	; 0x98
1000194c:	4a2f      	ldr	r2, [pc, #188]	; (10001a0c <fp_digits+0x794>)
1000194e:	fb82 1203 	smull	r1, r2, r2, r3
10001952:	1092      	asrs	r2, r2, #2
10001954:	17db      	asrs	r3, r3, #31
10001956:	1ad3      	subs	r3, r2, r3
10001958:	663b      	str	r3, [r7, #96]	; 0x60
1000195a:	6e3b      	ldr	r3, [r7, #96]	; 0x60
1000195c:	f06f 0209 	mvn.w	r2, #9
10001960:	fb02 f203 	mul.w	r2, r2, r3
10001964:	f8d7 3098 	ldr.w	r3, [r7, #152]	; 0x98
10001968:	4413      	add	r3, r2
1000196a:	4a29      	ldr	r2, [pc, #164]	; (10001a10 <fp_digits+0x798>)
1000196c:	fb02 f303 	mul.w	r3, r2, r3
10001970:	f8d7 2094 	ldr.w	r2, [r7, #148]	; 0x94
10001974:	4413      	add	r3, r2
10001976:	f8c7 3094 	str.w	r3, [r7, #148]	; 0x94
1000197a:	6e3b      	ldr	r3, [r7, #96]	; 0x60
1000197c:	f8c7 3098 	str.w	r3, [r7, #152]	; 0x98
10001980:	f8d7 3094 	ldr.w	r3, [r7, #148]	; 0x94
10001984:	3305      	adds	r3, #5
10001986:	4a21      	ldr	r2, [pc, #132]	; (10001a0c <fp_digits+0x794>)
10001988:	fb82 1203 	smull	r1, r2, r2, r3
1000198c:	1092      	asrs	r2, r2, #2
1000198e:	17db      	asrs	r3, r3, #31
10001990:	1ad3      	subs	r3, r2, r3
10001992:	f8c7 3094 	str.w	r3, [r7, #148]	; 0x94
10001996:	f8d7 3090 	ldr.w	r3, [r7, #144]	; 0x90
1000199a:	3301      	adds	r3, #1
1000199c:	f8c7 3090 	str.w	r3, [r7, #144]	; 0x90
100019a0:	68fb      	ldr	r3, [r7, #12]
100019a2:	2230      	movs	r2, #48	; 0x30
100019a4:	701a      	strb	r2, [r3, #0]
100019a6:	68fb      	ldr	r3, [r7, #12]
100019a8:	3306      	adds	r3, #6
100019aa:	f8d7 009c 	ldr.w	r0, [r7, #156]	; 0x9c
100019ae:	4619      	mov	r1, r3
100019b0:	2206      	movs	r2, #6
100019b2:	f7ff fc2f 	bl	10001214 <pr_dec>
100019b6:	68fb      	ldr	r3, [r7, #12]
100019b8:	330c      	adds	r3, #12
100019ba:	f8d7 0098 	ldr.w	r0, [r7, #152]	; 0x98
100019be:	4619      	mov	r1, r3
100019c0:	2206      	movs	r2, #6
100019c2:	f7ff fc27 	bl	10001214 <pr_dec>
100019c6:	68fb      	ldr	r3, [r7, #12]
100019c8:	3312      	adds	r3, #18
100019ca:	f8d7 0094 	ldr.w	r0, [r7, #148]	; 0x94
100019ce:	4619      	mov	r1, r3
100019d0:	2206      	movs	r2, #6
100019d2:	f7ff fc1f 	bl	10001214 <pr_dec>
100019d6:	68fb      	ldr	r3, [r7, #12]
100019d8:	3313      	adds	r3, #19
100019da:	2230      	movs	r2, #48	; 0x30
100019dc:	701a      	strb	r2, [r3, #0]
100019de:	68fb      	ldr	r3, [r7, #12]
100019e0:	3314      	adds	r3, #20
100019e2:	2200      	movs	r2, #0
100019e4:	701a      	strb	r2, [r3, #0]
100019e6:	f8d7 3090 	ldr.w	r3, [r7, #144]	; 0x90
100019ea:	3305      	adds	r3, #5
100019ec:	009a      	lsls	r2, r3, #2
100019ee:	f8d7 308c 	ldr.w	r3, [r7, #140]	; 0x8c
100019f2:	4313      	orrs	r3, r2
100019f4:	4618      	mov	r0, r3
100019f6:	37a0      	adds	r7, #160	; 0xa0
100019f8:	46bd      	mov	sp, r7
100019fa:	bdb0      	pop	{r4, r5, r7, pc}
100019fc:	000f423f 	.word	0x000f423f
10001a00:	0001869f 	.word	0x0001869f
10001a04:	14f8b589 	.word	0x14f8b589
10001a08:	fffe7960 	.word	0xfffe7960
10001a0c:	66666667 	.word	0x66666667
10001a10:	000f4240 	.word	0x000f4240
10001a14:	f3af 8000 	nop.w

10001a18 <fp_addexp>:
10001a18:	b480      	push	{r7}
10001a1a:	b089      	sub	sp, #36	; 0x24
10001a1c:	af00      	add	r7, sp, #0
10001a1e:	60f8      	str	r0, [r7, #12]
10001a20:	60b9      	str	r1, [r7, #8]
10001a22:	607a      	str	r2, [r7, #4]
10001a24:	603b      	str	r3, [r7, #0]
10001a26:	68bb      	ldr	r3, [r7, #8]
10001a28:	1c5a      	adds	r2, r3, #1
10001a2a:	60ba      	str	r2, [r7, #8]
10001a2c:	461a      	mov	r2, r3
10001a2e:	68fb      	ldr	r3, [r7, #12]
10001a30:	4413      	add	r3, r2
10001a32:	683a      	ldr	r2, [r7, #0]
10001a34:	b2d2      	uxtb	r2, r2
10001a36:	701a      	strb	r2, [r3, #0]
10001a38:	687b      	ldr	r3, [r7, #4]
10001a3a:	2b00      	cmp	r3, #0
10001a3c:	da0b      	bge.n	10001a56 <fp_addexp+0x3e>
10001a3e:	687b      	ldr	r3, [r7, #4]
10001a40:	425b      	negs	r3, r3
10001a42:	607b      	str	r3, [r7, #4]
10001a44:	68bb      	ldr	r3, [r7, #8]
10001a46:	1c5a      	adds	r2, r3, #1
10001a48:	60ba      	str	r2, [r7, #8]
10001a4a:	461a      	mov	r2, r3
10001a4c:	68fb      	ldr	r3, [r7, #12]
10001a4e:	4413      	add	r3, r2
10001a50:	222d      	movs	r2, #45	; 0x2d
10001a52:	701a      	strb	r2, [r3, #0]
10001a54:	e007      	b.n	10001a66 <fp_addexp+0x4e>
10001a56:	68bb      	ldr	r3, [r7, #8]
10001a58:	1c5a      	adds	r2, r3, #1
10001a5a:	60ba      	str	r2, [r7, #8]
10001a5c:	461a      	mov	r2, r3
10001a5e:	68fb      	ldr	r3, [r7, #12]
10001a60:	4413      	add	r3, r2
10001a62:	222b      	movs	r2, #43	; 0x2b
10001a64:	701a      	strb	r2, [r3, #0]
10001a66:	687b      	ldr	r3, [r7, #4]
10001a68:	f5b3 7f7a 	cmp.w	r3, #1000	; 0x3e8
10001a6c:	db19      	blt.n	10001aa2 <fp_addexp+0x8a>
10001a6e:	687b      	ldr	r3, [r7, #4]
10001a70:	4a33      	ldr	r2, [pc, #204]	; (10001b40 <fp_addexp+0x128>)
10001a72:	fb82 1203 	smull	r1, r2, r2, r3
10001a76:	1192      	asrs	r2, r2, #6
10001a78:	17db      	asrs	r3, r3, #31
10001a7a:	1ad3      	subs	r3, r2, r3
10001a7c:	61fb      	str	r3, [r7, #28]
10001a7e:	68bb      	ldr	r3, [r7, #8]
10001a80:	1c5a      	adds	r2, r3, #1
10001a82:	60ba      	str	r2, [r7, #8]
10001a84:	461a      	mov	r2, r3
10001a86:	68fb      	ldr	r3, [r7, #12]
10001a88:	4413      	add	r3, r2
10001a8a:	69fa      	ldr	r2, [r7, #28]
10001a8c:	b2d2      	uxtb	r2, r2
10001a8e:	3230      	adds	r2, #48	; 0x30
10001a90:	b2d2      	uxtb	r2, r2
10001a92:	701a      	strb	r2, [r3, #0]
10001a94:	69fb      	ldr	r3, [r7, #28]
10001a96:	4a2b      	ldr	r2, [pc, #172]	; (10001b44 <fp_addexp+0x12c>)
10001a98:	fb02 f303 	mul.w	r3, r2, r3
10001a9c:	687a      	ldr	r2, [r7, #4]
10001a9e:	4413      	add	r3, r2
10001aa0:	607b      	str	r3, [r7, #4]
10001aa2:	687b      	ldr	r3, [r7, #4]
10001aa4:	2b63      	cmp	r3, #99	; 0x63
10001aa6:	dd1a      	ble.n	10001ade <fp_addexp+0xc6>
10001aa8:	687b      	ldr	r3, [r7, #4]
10001aaa:	4a27      	ldr	r2, [pc, #156]	; (10001b48 <fp_addexp+0x130>)
10001aac:	fb82 1203 	smull	r1, r2, r2, r3
10001ab0:	1152      	asrs	r2, r2, #5
10001ab2:	17db      	asrs	r3, r3, #31
10001ab4:	1ad3      	subs	r3, r2, r3
10001ab6:	61bb      	str	r3, [r7, #24]
10001ab8:	68bb      	ldr	r3, [r7, #8]
10001aba:	1c5a      	adds	r2, r3, #1
10001abc:	60ba      	str	r2, [r7, #8]
10001abe:	461a      	mov	r2, r3
10001ac0:	68fb      	ldr	r3, [r7, #12]
10001ac2:	4413      	add	r3, r2
10001ac4:	69ba      	ldr	r2, [r7, #24]
10001ac6:	b2d2      	uxtb	r2, r2
10001ac8:	3230      	adds	r2, #48	; 0x30
10001aca:	b2d2      	uxtb	r2, r2
10001acc:	701a      	strb	r2, [r3, #0]
10001ace:	69bb      	ldr	r3, [r7, #24]
10001ad0:	f06f 0263 	mvn.w	r2, #99	; 0x63
10001ad4:	fb02 f303 	mul.w	r3, r2, r3
10001ad8:	687a      	ldr	r2, [r7, #4]
10001ada:	4413      	add	r3, r2
10001adc:	607b      	str	r3, [r7, #4]
10001ade:	687b      	ldr	r3, [r7, #4]
10001ae0:	4a1a      	ldr	r2, [pc, #104]	; (10001b4c <fp_addexp+0x134>)
10001ae2:	fb82 1203 	smull	r1, r2, r2, r3
10001ae6:	1092      	asrs	r2, r2, #2
10001ae8:	17db      	asrs	r3, r3, #31
10001aea:	1ad3      	subs	r3, r2, r3
10001aec:	617b      	str	r3, [r7, #20]
10001aee:	68bb      	ldr	r3, [r7, #8]
10001af0:	1c5a      	adds	r2, r3, #1
10001af2:	60ba      	str	r2, [r7, #8]
10001af4:	461a      	mov	r2, r3
10001af6:	68fb      	ldr	r3, [r7, #12]
10001af8:	4413      	add	r3, r2
10001afa:	697a      	ldr	r2, [r7, #20]
10001afc:	b2d2      	uxtb	r2, r2
10001afe:	3230      	adds	r2, #48	; 0x30
10001b00:	b2d2      	uxtb	r2, r2
10001b02:	701a      	strb	r2, [r3, #0]
10001b04:	68bb      	ldr	r3, [r7, #8]
10001b06:	1c5a      	adds	r2, r3, #1
10001b08:	60ba      	str	r2, [r7, #8]
10001b0a:	461a      	mov	r2, r3
10001b0c:	68fb      	ldr	r3, [r7, #12]
10001b0e:	441a      	add	r2, r3
10001b10:	687b      	ldr	r3, [r7, #4]
10001b12:	b2d9      	uxtb	r1, r3
10001b14:	697b      	ldr	r3, [r7, #20]
10001b16:	b2db      	uxtb	r3, r3
10001b18:	4618      	mov	r0, r3
10001b1a:	0140      	lsls	r0, r0, #5
10001b1c:	1ac0      	subs	r0, r0, r3
10001b1e:	0080      	lsls	r0, r0, #2
10001b20:	1ac3      	subs	r3, r0, r3
10001b22:	005b      	lsls	r3, r3, #1
10001b24:	b2db      	uxtb	r3, r3
10001b26:	440b      	add	r3, r1
10001b28:	b2db      	uxtb	r3, r3
10001b2a:	3330      	adds	r3, #48	; 0x30
10001b2c:	b2db      	uxtb	r3, r3
10001b2e:	7013      	strb	r3, [r2, #0]
10001b30:	68bb      	ldr	r3, [r7, #8]
10001b32:	4618      	mov	r0, r3
10001b34:	3724      	adds	r7, #36	; 0x24
10001b36:	46bd      	mov	sp, r7
10001b38:	f85d 7b04 	ldr.w	r7, [sp], #4
10001b3c:	4770      	bx	lr
10001b3e:	bf00      	nop
10001b40:	10624dd3 	.word	0x10624dd3
10001b44:	fffffc18 	.word	0xfffffc18
10001b48:	51eb851f 	.word	0x51eb851f
10001b4c:	66666667 	.word	0x66666667

10001b50 <lose_trailing_zeros>:
10001b50:	b480      	push	{r7}
10001b52:	b085      	sub	sp, #20
10001b54:	af00      	add	r7, sp, #0
10001b56:	6078      	str	r0, [r7, #4]
10001b58:	6039      	str	r1, [r7, #0]
10001b5a:	e002      	b.n	10001b62 <lose_trailing_zeros+0x12>
10001b5c:	683b      	ldr	r3, [r7, #0]
10001b5e:	3b01      	subs	r3, #1
10001b60:	603b      	str	r3, [r7, #0]
10001b62:	683b      	ldr	r3, [r7, #0]
10001b64:	3b01      	subs	r3, #1
10001b66:	687a      	ldr	r2, [r7, #4]
10001b68:	4413      	add	r3, r2
10001b6a:	781b      	ldrb	r3, [r3, #0]
10001b6c:	60fb      	str	r3, [r7, #12]
10001b6e:	68fb      	ldr	r3, [r7, #12]
10001b70:	2b30      	cmp	r3, #48	; 0x30
10001b72:	d0f3      	beq.n	10001b5c <lose_trailing_zeros+0xc>
10001b74:	68fb      	ldr	r3, [r7, #12]
10001b76:	2b3e      	cmp	r3, #62	; 0x3e
10001b78:	d0f0      	beq.n	10001b5c <lose_trailing_zeros+0xc>
10001b7a:	683b      	ldr	r3, [r7, #0]
10001b7c:	3b01      	subs	r3, #1
10001b7e:	687a      	ldr	r2, [r7, #4]
10001b80:	4413      	add	r3, r2
10001b82:	781b      	ldrb	r3, [r3, #0]
10001b84:	2b2e      	cmp	r3, #46	; 0x2e
10001b86:	d102      	bne.n	10001b8e <lose_trailing_zeros+0x3e>
10001b88:	683b      	ldr	r3, [r7, #0]
10001b8a:	3b01      	subs	r3, #1
10001b8c:	603b      	str	r3, [r7, #0]
10001b8e:	683b      	ldr	r3, [r7, #0]
10001b90:	4618      	mov	r0, r3
10001b92:	3714      	adds	r7, #20
10001b94:	46bd      	mov	sp, r7
10001b96:	f85d 7b04 	ldr.w	r7, [sp], #4
10001b9a:	4770      	bx	lr

10001b9c <fp_display>:
10001b9c:	b5b0      	push	{r4, r5, r7, lr}
10001b9e:	b098      	sub	sp, #96	; 0x60
10001ba0:	af04      	add	r7, sp, #16
10001ba2:	60f8      	str	r0, [r7, #12]
10001ba4:	60b9      	str	r1, [r7, #8]
10001ba6:	607a      	str	r2, [r7, #4]
10001ba8:	603b      	str	r3, [r7, #0]
10001baa:	2300      	movs	r3, #0
10001bac:	64fb      	str	r3, [r7, #76]	; 0x4c
10001bae:	68bb      	ldr	r3, [r7, #8]
10001bb0:	e9d3 2300 	ldrd	r2, r3, [r3]
10001bb4:	e9c7 230a 	strd	r2, r3, [r7, #40]	; 0x28
10001bb8:	2300      	movs	r3, #0
10001bba:	64bb      	str	r3, [r7, #72]	; 0x48
10001bbc:	e9d7 230a 	ldrd	r2, r3, [r7, #40]	; 0x28
10001bc0:	e9c7 2304 	strd	r2, r3, [r7, #16]
10001bc4:	8afa      	ldrh	r2, [r7, #22]
10001bc6:	f647 73f0 	movw	r3, #32752	; 0x7ff0
10001bca:	4013      	ands	r3, r2
10001bcc:	b29b      	uxth	r3, r3
10001bce:	f647 72f0 	movw	r2, #32752	; 0x7ff0
10001bd2:	4293      	cmp	r3, r2
10001bd4:	d142      	bne.n	10001c5c <fp_display+0xc0>
10001bd6:	687b      	ldr	r3, [r7, #4]
10001bd8:	3303      	adds	r3, #3
10001bda:	2200      	movs	r2, #0
10001bdc:	701a      	strb	r2, [r3, #0]
10001bde:	697b      	ldr	r3, [r7, #20]
10001be0:	f3c3 0313 	ubfx	r3, r3, #0, #20
10001be4:	461a      	mov	r2, r3
10001be6:	693b      	ldr	r3, [r7, #16]
10001be8:	4313      	orrs	r3, r2
10001bea:	2b00      	cmp	r3, #0
10001bec:	d126      	bne.n	10001c3c <fp_display+0xa0>
10001bee:	687b      	ldr	r3, [r7, #4]
10001bf0:	2269      	movs	r2, #105	; 0x69
10001bf2:	701a      	strb	r2, [r3, #0]
10001bf4:	687b      	ldr	r3, [r7, #4]
10001bf6:	3301      	adds	r3, #1
10001bf8:	226e      	movs	r2, #110	; 0x6e
10001bfa:	701a      	strb	r2, [r3, #0]
10001bfc:	687b      	ldr	r3, [r7, #4]
10001bfe:	3302      	adds	r3, #2
10001c00:	2266      	movs	r2, #102	; 0x66
10001c02:	701a      	strb	r2, [r3, #0]
10001c04:	7dfb      	ldrb	r3, [r7, #23]
10001c06:	f023 037f 	bic.w	r3, r3, #127	; 0x7f
10001c0a:	b2db      	uxtb	r3, r3
10001c0c:	2b00      	cmp	r3, #0
10001c0e:	d003      	beq.n	10001c18 <fp_display+0x7c>
10001c10:	6e3b      	ldr	r3, [r7, #96]	; 0x60
10001c12:	4aa6      	ldr	r2, [pc, #664]	; (10001eac <fp_display+0x310>)
10001c14:	601a      	str	r2, [r3, #0]
10001c16:	e01f      	b.n	10001c58 <fp_display+0xbc>
10001c18:	683b      	ldr	r3, [r7, #0]
10001c1a:	f003 0302 	and.w	r3, r3, #2
10001c1e:	2b00      	cmp	r3, #0
10001c20:	d108      	bne.n	10001c34 <fp_display+0x98>
10001c22:	683b      	ldr	r3, [r7, #0]
10001c24:	f003 0304 	and.w	r3, r3, #4
10001c28:	2b00      	cmp	r3, #0
10001c2a:	d001      	beq.n	10001c30 <fp_display+0x94>
10001c2c:	4ba0      	ldr	r3, [pc, #640]	; (10001eb0 <fp_display+0x314>)
10001c2e:	e002      	b.n	10001c36 <fp_display+0x9a>
10001c30:	4ba0      	ldr	r3, [pc, #640]	; (10001eb4 <fp_display+0x318>)
10001c32:	e000      	b.n	10001c36 <fp_display+0x9a>
10001c34:	4ba0      	ldr	r3, [pc, #640]	; (10001eb8 <fp_display+0x31c>)
10001c36:	6e3a      	ldr	r2, [r7, #96]	; 0x60
10001c38:	6013      	str	r3, [r2, #0]
10001c3a:	e00d      	b.n	10001c58 <fp_display+0xbc>
10001c3c:	687b      	ldr	r3, [r7, #4]
10001c3e:	226e      	movs	r2, #110	; 0x6e
10001c40:	701a      	strb	r2, [r3, #0]
10001c42:	687b      	ldr	r3, [r7, #4]
10001c44:	3301      	adds	r3, #1
10001c46:	2261      	movs	r2, #97	; 0x61
10001c48:	701a      	strb	r2, [r3, #0]
10001c4a:	687b      	ldr	r3, [r7, #4]
10001c4c:	3302      	adds	r3, #2
10001c4e:	226e      	movs	r2, #110	; 0x6e
10001c50:	701a      	strb	r2, [r3, #0]
10001c52:	6e3b      	ldr	r3, [r7, #96]	; 0x60
10001c54:	4a97      	ldr	r2, [pc, #604]	; (10001eb4 <fp_display+0x318>)
10001c56:	601a      	str	r2, [r3, #0]
10001c58:	2303      	movs	r3, #3
10001c5a:	e310      	b.n	1000227e <fp_display+0x6e2>
10001c5c:	68fb      	ldr	r3, [r7, #12]
10001c5e:	2b61      	cmp	r3, #97	; 0x61
10001c60:	d008      	beq.n	10001c74 <fp_display+0xd8>
10001c62:	68fb      	ldr	r3, [r7, #12]
10001c64:	2b41      	cmp	r3, #65	; 0x41
10001c66:	d005      	beq.n	10001c74 <fp_display+0xd8>
10001c68:	6878      	ldr	r0, [r7, #4]
10001c6a:	ed97 0b0a 	vldr	d0, [r7, #40]	; 0x28
10001c6e:	f7ff fb03 	bl	10001278 <fp_digits>
10001c72:	64b8      	str	r0, [r7, #72]	; 0x48
10001c74:	6cbb      	ldr	r3, [r7, #72]	; 0x48
10001c76:	f003 0301 	and.w	r3, r3, #1
10001c7a:	2b00      	cmp	r3, #0
10001c7c:	d003      	beq.n	10001c86 <fp_display+0xea>
10001c7e:	6e3b      	ldr	r3, [r7, #96]	; 0x60
10001c80:	4a8a      	ldr	r2, [pc, #552]	; (10001eac <fp_display+0x310>)
10001c82:	601a      	str	r2, [r3, #0]
10001c84:	e010      	b.n	10001ca8 <fp_display+0x10c>
10001c86:	683b      	ldr	r3, [r7, #0]
10001c88:	f003 0302 	and.w	r3, r3, #2
10001c8c:	2b00      	cmp	r3, #0
10001c8e:	d108      	bne.n	10001ca2 <fp_display+0x106>
10001c90:	683b      	ldr	r3, [r7, #0]
10001c92:	f003 0304 	and.w	r3, r3, #4
10001c96:	2b00      	cmp	r3, #0
10001c98:	d001      	beq.n	10001c9e <fp_display+0x102>
10001c9a:	4b85      	ldr	r3, [pc, #532]	; (10001eb0 <fp_display+0x314>)
10001c9c:	e002      	b.n	10001ca4 <fp_display+0x108>
10001c9e:	4b85      	ldr	r3, [pc, #532]	; (10001eb4 <fp_display+0x318>)
10001ca0:	e000      	b.n	10001ca4 <fp_display+0x108>
10001ca2:	4b85      	ldr	r3, [pc, #532]	; (10001eb8 <fp_display+0x31c>)
10001ca4:	6e3a      	ldr	r2, [r7, #96]	; 0x60
10001ca6:	6013      	str	r3, [r2, #0]
10001ca8:	6cbb      	ldr	r3, [r7, #72]	; 0x48
10001caa:	f003 0302 	and.w	r3, r3, #2
10001cae:	2b00      	cmp	r3, #0
10001cb0:	d001      	beq.n	10001cb6 <fp_display+0x11a>
10001cb2:	2303      	movs	r3, #3
10001cb4:	e2e3      	b.n	1000227e <fp_display+0x6e2>
10001cb6:	6cbb      	ldr	r3, [r7, #72]	; 0x48
10001cb8:	f023 0301 	bic.w	r3, r3, #1
10001cbc:	2b00      	cmp	r3, #0
10001cbe:	da00      	bge.n	10001cc2 <fp_display+0x126>
10001cc0:	3303      	adds	r3, #3
10001cc2:	109b      	asrs	r3, r3, #2
10001cc4:	64bb      	str	r3, [r7, #72]	; 0x48
10001cc6:	68fb      	ldr	r3, [r7, #12]
10001cc8:	3b41      	subs	r3, #65	; 0x41
10001cca:	2b26      	cmp	r3, #38	; 0x26
10001ccc:	f200 829e 	bhi.w	1000220c <fp_display+0x670>
10001cd0:	a201      	add	r2, pc, #4	; (adr r2, 10001cd8 <fp_display+0x13c>)
10001cd2:	f852 f023 	ldr.w	pc, [r2, r3, lsl #2]
10001cd6:	bf00      	nop
10001cd8:	10001d75 	.word	0x10001d75
10001cdc:	1000220d 	.word	0x1000220d
10001ce0:	1000220d 	.word	0x1000220d
10001ce4:	1000220d 	.word	0x1000220d
10001ce8:	10001e45 	.word	0x10001e45
10001cec:	1000220d 	.word	0x1000220d
10001cf0:	10002211 	.word	0x10002211
10001cf4:	1000220d 	.word	0x1000220d
10001cf8:	1000220d 	.word	0x1000220d
10001cfc:	1000220d 	.word	0x1000220d
10001d00:	1000220d 	.word	0x1000220d
10001d04:	1000220d 	.word	0x1000220d
10001d08:	1000220d 	.word	0x1000220d
10001d0c:	1000220d 	.word	0x1000220d
10001d10:	1000220d 	.word	0x1000220d
10001d14:	1000220d 	.word	0x1000220d
10001d18:	1000220d 	.word	0x1000220d
10001d1c:	1000220d 	.word	0x1000220d
10001d20:	1000220d 	.word	0x1000220d
10001d24:	1000220d 	.word	0x1000220d
10001d28:	1000220d 	.word	0x1000220d
10001d2c:	1000220d 	.word	0x1000220d
10001d30:	1000220d 	.word	0x1000220d
10001d34:	1000220d 	.word	0x1000220d
10001d38:	1000220d 	.word	0x1000220d
10001d3c:	1000220d 	.word	0x1000220d
10001d40:	1000220d 	.word	0x1000220d
10001d44:	1000220d 	.word	0x1000220d
10001d48:	1000220d 	.word	0x1000220d
10001d4c:	1000220d 	.word	0x1000220d
10001d50:	1000220d 	.word	0x1000220d
10001d54:	1000220d 	.word	0x1000220d
10001d58:	10001d75 	.word	0x10001d75
10001d5c:	1000220d 	.word	0x1000220d
10001d60:	1000220d 	.word	0x1000220d
10001d64:	1000220d 	.word	0x1000220d
10001d68:	10001e45 	.word	0x10001e45
10001d6c:	10001f1d 	.word	0x10001f1d
10001d70:	10002211 	.word	0x10002211
10001d74:	697b      	ldr	r3, [r7, #20]
10001d76:	f3c3 0313 	ubfx	r3, r3, #0, #20
10001d7a:	461a      	mov	r2, r3
10001d7c:	f04f 0300 	mov.w	r3, #0
10001d80:	0015      	movs	r5, r2
10001d82:	2400      	movs	r4, #0
10001d84:	693b      	ldr	r3, [r7, #16]
10001d86:	461a      	mov	r2, r3
10001d88:	f04f 0300 	mov.w	r3, #0
10001d8c:	ea42 0204 	orr.w	r2, r2, r4
10001d90:	ea43 0305 	orr.w	r3, r3, r5
10001d94:	e9c7 2308 	strd	r2, r3, [r7, #32]
10001d98:	8afb      	ldrh	r3, [r7, #22]
10001d9a:	f3c3 130a 	ubfx	r3, r3, #4, #11
10001d9e:	b29b      	uxth	r3, r3
10001da0:	61fb      	str	r3, [r7, #28]
10001da2:	69fb      	ldr	r3, [r7, #28]
10001da4:	f2a3 33ff 	subw	r3, r3, #1023	; 0x3ff
10001da8:	647b      	str	r3, [r7, #68]	; 0x44
10001daa:	69fb      	ldr	r3, [r7, #28]
10001dac:	2b00      	cmp	r3, #0
10001dae:	d105      	bne.n	10001dbc <fp_display+0x220>
10001db0:	e9d7 2308 	ldrd	r2, r3, [r7, #32]
10001db4:	4313      	orrs	r3, r2
10001db6:	d101      	bne.n	10001dbc <fp_display+0x220>
10001db8:	2300      	movs	r3, #0
10001dba:	647b      	str	r3, [r7, #68]	; 0x44
10001dbc:	6e7b      	ldr	r3, [r7, #100]	; 0x64
10001dbe:	681b      	ldr	r3, [r3, #0]
10001dc0:	2b00      	cmp	r3, #0
10001dc2:	d118      	bne.n	10001df6 <fp_display+0x25a>
10001dc4:	683b      	ldr	r3, [r7, #0]
10001dc6:	f003 0308 	and.w	r3, r3, #8
10001dca:	2b00      	cmp	r3, #0
10001dcc:	d113      	bne.n	10001df6 <fp_display+0x25a>
10001dce:	68fb      	ldr	r3, [r7, #12]
10001dd0:	2b61      	cmp	r3, #97	; 0x61
10001dd2:	d101      	bne.n	10001dd8 <fp_display+0x23c>
10001dd4:	4a39      	ldr	r2, [pc, #228]	; (10001ebc <fp_display+0x320>)
10001dd6:	e000      	b.n	10001dda <fp_display+0x23e>
10001dd8:	4a39      	ldr	r2, [pc, #228]	; (10001ec0 <fp_display+0x324>)
10001dda:	69fb      	ldr	r3, [r7, #28]
10001ddc:	2b00      	cmp	r3, #0
10001dde:	d101      	bne.n	10001de4 <fp_display+0x248>
10001de0:	2330      	movs	r3, #48	; 0x30
10001de2:	e000      	b.n	10001de6 <fp_display+0x24a>
10001de4:	2331      	movs	r3, #49	; 0x31
10001de6:	6878      	ldr	r0, [r7, #4]
10001de8:	4611      	mov	r1, r2
10001dea:	461a      	mov	r2, r3
10001dec:	6c7b      	ldr	r3, [r7, #68]	; 0x44
10001dee:	f000 fa87 	bl	10002300 <sprintf>
10001df2:	64f8      	str	r0, [r7, #76]	; 0x4c
10001df4:	e019      	b.n	10001e2a <fp_display+0x28e>
10001df6:	68fb      	ldr	r3, [r7, #12]
10001df8:	2b61      	cmp	r3, #97	; 0x61
10001dfa:	d101      	bne.n	10001e00 <fp_display+0x264>
10001dfc:	4931      	ldr	r1, [pc, #196]	; (10001ec4 <fp_display+0x328>)
10001dfe:	e000      	b.n	10001e02 <fp_display+0x266>
10001e00:	4931      	ldr	r1, [pc, #196]	; (10001ec8 <fp_display+0x32c>)
10001e02:	69fb      	ldr	r3, [r7, #28]
10001e04:	2b00      	cmp	r3, #0
10001e06:	d101      	bne.n	10001e0c <fp_display+0x270>
10001e08:	2530      	movs	r5, #48	; 0x30
10001e0a:	e000      	b.n	10001e0e <fp_display+0x272>
10001e0c:	2531      	movs	r5, #49	; 0x31
10001e0e:	6e7b      	ldr	r3, [r7, #100]	; 0x64
10001e10:	681c      	ldr	r4, [r3, #0]
10001e12:	e9d7 2308 	ldrd	r2, r3, [r7, #32]
10001e16:	e9cd 2300 	strd	r2, r3, [sp]
10001e1a:	6c7b      	ldr	r3, [r7, #68]	; 0x44
10001e1c:	9302      	str	r3, [sp, #8]
10001e1e:	6878      	ldr	r0, [r7, #4]
10001e20:	462a      	mov	r2, r5
10001e22:	4623      	mov	r3, r4
10001e24:	f000 fa6c 	bl	10002300 <sprintf>
10001e28:	64f8      	str	r0, [r7, #76]	; 0x4c
10001e2a:	7dfb      	ldrb	r3, [r7, #23]
10001e2c:	f023 037f 	bic.w	r3, r3, #127	; 0x7f
10001e30:	b2db      	uxtb	r3, r3
10001e32:	2b00      	cmp	r3, #0
10001e34:	d101      	bne.n	10001e3a <fp_display+0x29e>
10001e36:	4a1f      	ldr	r2, [pc, #124]	; (10001eb4 <fp_display+0x318>)
10001e38:	e000      	b.n	10001e3c <fp_display+0x2a0>
10001e3a:	4a1c      	ldr	r2, [pc, #112]	; (10001eac <fp_display+0x310>)
10001e3c:	6e3b      	ldr	r3, [r7, #96]	; 0x60
10001e3e:	601a      	str	r2, [r3, #0]
10001e40:	6cfb      	ldr	r3, [r7, #76]	; 0x4c
10001e42:	e21c      	b.n	1000227e <fp_display+0x6e2>
10001e44:	6e7b      	ldr	r3, [r7, #100]	; 0x64
10001e46:	681b      	ldr	r3, [r3, #0]
10001e48:	2b11      	cmp	r3, #17
10001e4a:	dd08      	ble.n	10001e5e <fp_display+0x2c2>
10001e4c:	6e7b      	ldr	r3, [r7, #100]	; 0x64
10001e4e:	681b      	ldr	r3, [r3, #0]
10001e50:	f1a3 0211 	sub.w	r2, r3, #17
10001e54:	6efb      	ldr	r3, [r7, #108]	; 0x6c
10001e56:	601a      	str	r2, [r3, #0]
10001e58:	6e7b      	ldr	r3, [r7, #100]	; 0x64
10001e5a:	2211      	movs	r2, #17
10001e5c:	601a      	str	r2, [r3, #0]
10001e5e:	6e7b      	ldr	r3, [r7, #100]	; 0x64
10001e60:	681b      	ldr	r3, [r3, #0]
10001e62:	3302      	adds	r3, #2
10001e64:	64fb      	str	r3, [r7, #76]	; 0x4c
10001e66:	683b      	ldr	r3, [r7, #0]
10001e68:	f403 6300 	and.w	r3, r3, #2048	; 0x800
10001e6c:	2b00      	cmp	r3, #0
10001e6e:	d107      	bne.n	10001e80 <fp_display+0x2e4>
10001e70:	6878      	ldr	r0, [r7, #4]
10001e72:	6cf9      	ldr	r1, [r7, #76]	; 0x4c
10001e74:	f7ff f970 	bl	10001158 <fp_round>
10001e78:	4602      	mov	r2, r0
10001e7a:	6cbb      	ldr	r3, [r7, #72]	; 0x48
10001e7c:	4413      	add	r3, r2
10001e7e:	64bb      	str	r3, [r7, #72]	; 0x48
10001e80:	687b      	ldr	r3, [r7, #4]
10001e82:	785a      	ldrb	r2, [r3, #1]
10001e84:	687b      	ldr	r3, [r7, #4]
10001e86:	701a      	strb	r2, [r3, #0]
10001e88:	6e7b      	ldr	r3, [r7, #100]	; 0x64
10001e8a:	681b      	ldr	r3, [r3, #0]
10001e8c:	2b00      	cmp	r3, #0
10001e8e:	d11d      	bne.n	10001ecc <fp_display+0x330>
10001e90:	683b      	ldr	r3, [r7, #0]
10001e92:	f003 0308 	and.w	r3, r3, #8
10001e96:	2b00      	cmp	r3, #0
10001e98:	d118      	bne.n	10001ecc <fp_display+0x330>
10001e9a:	683b      	ldr	r3, [r7, #0]
10001e9c:	f403 6300 	and.w	r3, r3, #2048	; 0x800
10001ea0:	2b00      	cmp	r3, #0
10001ea2:	d113      	bne.n	10001ecc <fp_display+0x330>
10001ea4:	2301      	movs	r3, #1
10001ea6:	64fb      	str	r3, [r7, #76]	; 0x4c
10001ea8:	e014      	b.n	10001ed4 <fp_display+0x338>
10001eaa:	bf00      	nop
10001eac:	10005170 	.word	0x10005170
10001eb0:	10005174 	.word	0x10005174
10001eb4:	10005178 	.word	0x10005178
10001eb8:	1000517c 	.word	0x1000517c
10001ebc:	10005180 	.word	0x10005180
10001ec0:	10005188 	.word	0x10005188
10001ec4:	10005190 	.word	0x10005190
10001ec8:	100051a0 	.word	0x100051a0
10001ecc:	687b      	ldr	r3, [r7, #4]
10001ece:	3301      	adds	r3, #1
10001ed0:	222e      	movs	r2, #46	; 0x2e
10001ed2:	701a      	strb	r2, [r3, #0]
10001ed4:	6efb      	ldr	r3, [r7, #108]	; 0x6c
10001ed6:	681b      	ldr	r3, [r3, #0]
10001ed8:	2b00      	cmp	r3, #0
10001eda:	dd07      	ble.n	10001eec <fp_display+0x350>
10001edc:	6cfb      	ldr	r3, [r7, #76]	; 0x4c
10001ede:	1c5a      	adds	r2, r3, #1
10001ee0:	64fa      	str	r2, [r7, #76]	; 0x4c
10001ee2:	461a      	mov	r2, r3
10001ee4:	687b      	ldr	r3, [r7, #4]
10001ee6:	4413      	add	r3, r2
10001ee8:	223e      	movs	r2, #62	; 0x3e
10001eea:	701a      	strb	r2, [r3, #0]
10001eec:	683b      	ldr	r3, [r7, #0]
10001eee:	f403 6300 	and.w	r3, r3, #2048	; 0x800
10001ef2:	2b00      	cmp	r3, #0
10001ef4:	d009      	beq.n	10001f0a <fp_display+0x36e>
10001ef6:	683b      	ldr	r3, [r7, #0]
10001ef8:	f003 0308 	and.w	r3, r3, #8
10001efc:	2b00      	cmp	r3, #0
10001efe:	d104      	bne.n	10001f0a <fp_display+0x36e>
10001f00:	6878      	ldr	r0, [r7, #4]
10001f02:	6cf9      	ldr	r1, [r7, #76]	; 0x4c
10001f04:	f7ff fe24 	bl	10001b50 <lose_trailing_zeros>
10001f08:	64f8      	str	r0, [r7, #76]	; 0x4c
10001f0a:	6878      	ldr	r0, [r7, #4]
10001f0c:	6cf9      	ldr	r1, [r7, #76]	; 0x4c
10001f0e:	6cba      	ldr	r2, [r7, #72]	; 0x48
10001f10:	68fb      	ldr	r3, [r7, #12]
10001f12:	f7ff fd81 	bl	10001a18 <fp_addexp>
10001f16:	64f8      	str	r0, [r7, #76]	; 0x4c
10001f18:	6cfb      	ldr	r3, [r7, #76]	; 0x4c
10001f1a:	e1b0      	b.n	1000227e <fp_display+0x6e2>
10001f1c:	6cbb      	ldr	r3, [r7, #72]	; 0x48
10001f1e:	2b00      	cmp	r3, #0
10001f20:	f280 80a0 	bge.w	10002064 <fp_display+0x4c8>
10001f24:	6cbb      	ldr	r3, [r7, #72]	; 0x48
10001f26:	425b      	negs	r3, r3
10001f28:	64bb      	str	r3, [r7, #72]	; 0x48
10001f2a:	6e7b      	ldr	r3, [r7, #100]	; 0x64
10001f2c:	681b      	ldr	r3, [r3, #0]
10001f2e:	1c5a      	adds	r2, r3, #1
10001f30:	6cbb      	ldr	r3, [r7, #72]	; 0x48
10001f32:	429a      	cmp	r2, r3
10001f34:	da16      	bge.n	10001f64 <fp_display+0x3c8>
10001f36:	2300      	movs	r3, #0
10001f38:	64fb      	str	r3, [r7, #76]	; 0x4c
10001f3a:	6cfb      	ldr	r3, [r7, #76]	; 0x4c
10001f3c:	1c5a      	adds	r2, r3, #1
10001f3e:	64fa      	str	r2, [r7, #76]	; 0x4c
10001f40:	461a      	mov	r2, r3
10001f42:	687b      	ldr	r3, [r7, #4]
10001f44:	4413      	add	r3, r2
10001f46:	2230      	movs	r2, #48	; 0x30
10001f48:	701a      	strb	r2, [r3, #0]
10001f4a:	6cfb      	ldr	r3, [r7, #76]	; 0x4c
10001f4c:	1c5a      	adds	r2, r3, #1
10001f4e:	64fa      	str	r2, [r7, #76]	; 0x4c
10001f50:	461a      	mov	r2, r3
10001f52:	687b      	ldr	r3, [r7, #4]
10001f54:	4413      	add	r3, r2
10001f56:	222e      	movs	r2, #46	; 0x2e
10001f58:	701a      	strb	r2, [r3, #0]
10001f5a:	6e7b      	ldr	r3, [r7, #100]	; 0x64
10001f5c:	681a      	ldr	r2, [r3, #0]
10001f5e:	6efb      	ldr	r3, [r7, #108]	; 0x6c
10001f60:	601a      	str	r2, [r3, #0]
10001f62:	e071      	b.n	10002048 <fp_display+0x4ac>
10001f64:	6e7b      	ldr	r3, [r7, #100]	; 0x64
10001f66:	681a      	ldr	r2, [r3, #0]
10001f68:	6cbb      	ldr	r3, [r7, #72]	; 0x48
10001f6a:	1ad3      	subs	r3, r2, r3
10001f6c:	3302      	adds	r3, #2
10001f6e:	64fb      	str	r3, [r7, #76]	; 0x4c
10001f70:	6cfb      	ldr	r3, [r7, #76]	; 0x4c
10001f72:	2b12      	cmp	r3, #18
10001f74:	dd06      	ble.n	10001f84 <fp_display+0x3e8>
10001f76:	6cfb      	ldr	r3, [r7, #76]	; 0x4c
10001f78:	f1a3 0213 	sub.w	r2, r3, #19
10001f7c:	6efb      	ldr	r3, [r7, #108]	; 0x6c
10001f7e:	601a      	str	r2, [r3, #0]
10001f80:	2313      	movs	r3, #19
10001f82:	64fb      	str	r3, [r7, #76]	; 0x4c
10001f84:	683b      	ldr	r3, [r7, #0]
10001f86:	f403 6300 	and.w	r3, r3, #2048	; 0x800
10001f8a:	2b00      	cmp	r3, #0
10001f8c:	d10c      	bne.n	10001fa8 <fp_display+0x40c>
10001f8e:	6878      	ldr	r0, [r7, #4]
10001f90:	6cf9      	ldr	r1, [r7, #76]	; 0x4c
10001f92:	f7ff f8e1 	bl	10001158 <fp_round>
10001f96:	4603      	mov	r3, r0
10001f98:	2b00      	cmp	r3, #0
10001f9a:	d005      	beq.n	10001fa8 <fp_display+0x40c>
10001f9c:	6cbb      	ldr	r3, [r7, #72]	; 0x48
10001f9e:	3b01      	subs	r3, #1
10001fa0:	64bb      	str	r3, [r7, #72]	; 0x48
10001fa2:	6cfb      	ldr	r3, [r7, #76]	; 0x4c
10001fa4:	3301      	adds	r3, #1
10001fa6:	64fb      	str	r3, [r7, #76]	; 0x4c
10001fa8:	6cbb      	ldr	r3, [r7, #72]	; 0x48
10001faa:	2b00      	cmp	r3, #0
10001fac:	d108      	bne.n	10001fc0 <fp_display+0x424>
10001fae:	687b      	ldr	r3, [r7, #4]
10001fb0:	785a      	ldrb	r2, [r3, #1]
10001fb2:	687b      	ldr	r3, [r7, #4]
10001fb4:	701a      	strb	r2, [r3, #0]
10001fb6:	687b      	ldr	r3, [r7, #4]
10001fb8:	3301      	adds	r3, #1
10001fba:	222e      	movs	r2, #46	; 0x2e
10001fbc:	701a      	strb	r2, [r3, #0]
10001fbe:	e043      	b.n	10002048 <fp_display+0x4ac>
10001fc0:	6cbb      	ldr	r3, [r7, #72]	; 0x48
10001fc2:	2b01      	cmp	r3, #1
10001fc4:	d11c      	bne.n	10002000 <fp_display+0x464>
10001fc6:	6cfb      	ldr	r3, [r7, #76]	; 0x4c
10001fc8:	643b      	str	r3, [r7, #64]	; 0x40
10001fca:	e00b      	b.n	10001fe4 <fp_display+0x448>
10001fcc:	6c3b      	ldr	r3, [r7, #64]	; 0x40
10001fce:	3301      	adds	r3, #1
10001fd0:	687a      	ldr	r2, [r7, #4]
10001fd2:	4413      	add	r3, r2
10001fd4:	6c3a      	ldr	r2, [r7, #64]	; 0x40
10001fd6:	6879      	ldr	r1, [r7, #4]
10001fd8:	440a      	add	r2, r1
10001fda:	7812      	ldrb	r2, [r2, #0]
10001fdc:	701a      	strb	r2, [r3, #0]
10001fde:	6c3b      	ldr	r3, [r7, #64]	; 0x40
10001fe0:	3b01      	subs	r3, #1
10001fe2:	643b      	str	r3, [r7, #64]	; 0x40
10001fe4:	6c3b      	ldr	r3, [r7, #64]	; 0x40
10001fe6:	2b00      	cmp	r3, #0
10001fe8:	dcf0      	bgt.n	10001fcc <fp_display+0x430>
10001fea:	6cfb      	ldr	r3, [r7, #76]	; 0x4c
10001fec:	3301      	adds	r3, #1
10001fee:	64fb      	str	r3, [r7, #76]	; 0x4c
10001ff0:	687b      	ldr	r3, [r7, #4]
10001ff2:	2230      	movs	r2, #48	; 0x30
10001ff4:	701a      	strb	r2, [r3, #0]
10001ff6:	687b      	ldr	r3, [r7, #4]
10001ff8:	3301      	adds	r3, #1
10001ffa:	222e      	movs	r2, #46	; 0x2e
10001ffc:	701a      	strb	r2, [r3, #0]
10001ffe:	e023      	b.n	10002048 <fp_display+0x4ac>
10002000:	6cfb      	ldr	r3, [r7, #76]	; 0x4c
10002002:	63fb      	str	r3, [r7, #60]	; 0x3c
10002004:	e00b      	b.n	1000201e <fp_display+0x482>
10002006:	6bfb      	ldr	r3, [r7, #60]	; 0x3c
10002008:	3302      	adds	r3, #2
1000200a:	687a      	ldr	r2, [r7, #4]
1000200c:	4413      	add	r3, r2
1000200e:	6bfa      	ldr	r2, [r7, #60]	; 0x3c
10002010:	6879      	ldr	r1, [r7, #4]
10002012:	440a      	add	r2, r1
10002014:	7812      	ldrb	r2, [r2, #0]
10002016:	701a      	strb	r2, [r3, #0]
10002018:	6bfb      	ldr	r3, [r7, #60]	; 0x3c
1000201a:	3b01      	subs	r3, #1
1000201c:	63fb      	str	r3, [r7, #60]	; 0x3c
1000201e:	6bfb      	ldr	r3, [r7, #60]	; 0x3c
10002020:	2b00      	cmp	r3, #0
10002022:	dcf0      	bgt.n	10002006 <fp_display+0x46a>
10002024:	6cfb      	ldr	r3, [r7, #76]	; 0x4c
10002026:	3302      	adds	r3, #2
10002028:	64fb      	str	r3, [r7, #76]	; 0x4c
1000202a:	687b      	ldr	r3, [r7, #4]
1000202c:	2230      	movs	r2, #48	; 0x30
1000202e:	701a      	strb	r2, [r3, #0]
10002030:	687b      	ldr	r3, [r7, #4]
10002032:	3301      	adds	r3, #1
10002034:	222e      	movs	r2, #46	; 0x2e
10002036:	701a      	strb	r2, [r3, #0]
10002038:	687b      	ldr	r3, [r7, #4]
1000203a:	3302      	adds	r3, #2
1000203c:	223c      	movs	r2, #60	; 0x3c
1000203e:	701a      	strb	r2, [r3, #0]
10002040:	6cbb      	ldr	r3, [r7, #72]	; 0x48
10002042:	1e5a      	subs	r2, r3, #1
10002044:	6ebb      	ldr	r3, [r7, #104]	; 0x68
10002046:	601a      	str	r2, [r3, #0]
10002048:	6efb      	ldr	r3, [r7, #108]	; 0x6c
1000204a:	681b      	ldr	r3, [r3, #0]
1000204c:	2b00      	cmp	r3, #0
1000204e:	f340 80bf 	ble.w	100021d0 <fp_display+0x634>
10002052:	6cfb      	ldr	r3, [r7, #76]	; 0x4c
10002054:	1c5a      	adds	r2, r3, #1
10002056:	64fa      	str	r2, [r7, #76]	; 0x4c
10002058:	461a      	mov	r2, r3
1000205a:	687b      	ldr	r3, [r7, #4]
1000205c:	4413      	add	r3, r2
1000205e:	223e      	movs	r2, #62	; 0x3e
10002060:	701a      	strb	r2, [r3, #0]
10002062:	e0b5      	b.n	100021d0 <fp_display+0x634>
10002064:	6e7b      	ldr	r3, [r7, #100]	; 0x64
10002066:	681a      	ldr	r2, [r3, #0]
10002068:	6cbb      	ldr	r3, [r7, #72]	; 0x48
1000206a:	4413      	add	r3, r2
1000206c:	3302      	adds	r3, #2
1000206e:	64fb      	str	r3, [r7, #76]	; 0x4c
10002070:	6cfb      	ldr	r3, [r7, #76]	; 0x4c
10002072:	2b12      	cmp	r3, #18
10002074:	f340 8081 	ble.w	1000217a <fp_display+0x5de>
10002078:	2313      	movs	r3, #19
1000207a:	64fb      	str	r3, [r7, #76]	; 0x4c
1000207c:	683b      	ldr	r3, [r7, #0]
1000207e:	f403 6300 	and.w	r3, r3, #2048	; 0x800
10002082:	2b00      	cmp	r3, #0
10002084:	d10c      	bne.n	100020a0 <fp_display+0x504>
10002086:	6878      	ldr	r0, [r7, #4]
10002088:	6cf9      	ldr	r1, [r7, #76]	; 0x4c
1000208a:	f7ff f865 	bl	10001158 <fp_round>
1000208e:	4603      	mov	r3, r0
10002090:	2b00      	cmp	r3, #0
10002092:	d005      	beq.n	100020a0 <fp_display+0x504>
10002094:	6cbb      	ldr	r3, [r7, #72]	; 0x48
10002096:	3301      	adds	r3, #1
10002098:	64bb      	str	r3, [r7, #72]	; 0x48
1000209a:	6cfb      	ldr	r3, [r7, #76]	; 0x4c
1000209c:	3301      	adds	r3, #1
1000209e:	64fb      	str	r3, [r7, #76]	; 0x4c
100020a0:	6cfb      	ldr	r3, [r7, #76]	; 0x4c
100020a2:	1e5a      	subs	r2, r3, #1
100020a4:	6cbb      	ldr	r3, [r7, #72]	; 0x48
100020a6:	429a      	cmp	r2, r3
100020a8:	dd2d      	ble.n	10002106 <fp_display+0x56a>
100020aa:	2300      	movs	r3, #0
100020ac:	63bb      	str	r3, [r7, #56]	; 0x38
100020ae:	e00b      	b.n	100020c8 <fp_display+0x52c>
100020b0:	6bbb      	ldr	r3, [r7, #56]	; 0x38
100020b2:	687a      	ldr	r2, [r7, #4]
100020b4:	4413      	add	r3, r2
100020b6:	6bba      	ldr	r2, [r7, #56]	; 0x38
100020b8:	3201      	adds	r2, #1
100020ba:	6879      	ldr	r1, [r7, #4]
100020bc:	440a      	add	r2, r1
100020be:	7812      	ldrb	r2, [r2, #0]
100020c0:	701a      	strb	r2, [r3, #0]
100020c2:	6bbb      	ldr	r3, [r7, #56]	; 0x38
100020c4:	3301      	adds	r3, #1
100020c6:	63bb      	str	r3, [r7, #56]	; 0x38
100020c8:	6bba      	ldr	r2, [r7, #56]	; 0x38
100020ca:	6cbb      	ldr	r3, [r7, #72]	; 0x48
100020cc:	429a      	cmp	r2, r3
100020ce:	ddef      	ble.n	100020b0 <fp_display+0x514>
100020d0:	6cbb      	ldr	r3, [r7, #72]	; 0x48
100020d2:	3301      	adds	r3, #1
100020d4:	687a      	ldr	r2, [r7, #4]
100020d6:	4413      	add	r3, r2
100020d8:	222e      	movs	r2, #46	; 0x2e
100020da:	701a      	strb	r2, [r3, #0]
100020dc:	6e7b      	ldr	r3, [r7, #100]	; 0x64
100020de:	681a      	ldr	r2, [r3, #0]
100020e0:	6cbb      	ldr	r3, [r7, #72]	; 0x48
100020e2:	4413      	add	r3, r2
100020e4:	f1a3 0211 	sub.w	r2, r3, #17
100020e8:	6efb      	ldr	r3, [r7, #108]	; 0x6c
100020ea:	601a      	str	r2, [r3, #0]
100020ec:	6efb      	ldr	r3, [r7, #108]	; 0x6c
100020ee:	681b      	ldr	r3, [r3, #0]
100020f0:	2b00      	cmp	r3, #0
100020f2:	d06d      	beq.n	100021d0 <fp_display+0x634>
100020f4:	6cfb      	ldr	r3, [r7, #76]	; 0x4c
100020f6:	1c5a      	adds	r2, r3, #1
100020f8:	64fa      	str	r2, [r7, #76]	; 0x4c
100020fa:	461a      	mov	r2, r3
100020fc:	687b      	ldr	r3, [r7, #4]
100020fe:	4413      	add	r3, r2
10002100:	223e      	movs	r2, #62	; 0x3e
10002102:	701a      	strb	r2, [r3, #0]
10002104:	e064      	b.n	100021d0 <fp_display+0x634>
10002106:	2300      	movs	r3, #0
10002108:	637b      	str	r3, [r7, #52]	; 0x34
1000210a:	e00b      	b.n	10002124 <fp_display+0x588>
1000210c:	6b7b      	ldr	r3, [r7, #52]	; 0x34
1000210e:	687a      	ldr	r2, [r7, #4]
10002110:	4413      	add	r3, r2
10002112:	6b7a      	ldr	r2, [r7, #52]	; 0x34
10002114:	3201      	adds	r2, #1
10002116:	6879      	ldr	r1, [r7, #4]
10002118:	440a      	add	r2, r1
1000211a:	7812      	ldrb	r2, [r2, #0]
1000211c:	701a      	strb	r2, [r3, #0]
1000211e:	6b7b      	ldr	r3, [r7, #52]	; 0x34
10002120:	3301      	adds	r3, #1
10002122:	637b      	str	r3, [r7, #52]	; 0x34
10002124:	6cfb      	ldr	r3, [r7, #76]	; 0x4c
10002126:	1e5a      	subs	r2, r3, #1
10002128:	6b7b      	ldr	r3, [r7, #52]	; 0x34
1000212a:	429a      	cmp	r2, r3
1000212c:	dcee      	bgt.n	1000210c <fp_display+0x570>
1000212e:	6cfb      	ldr	r3, [r7, #76]	; 0x4c
10002130:	3b01      	subs	r3, #1
10002132:	687a      	ldr	r2, [r7, #4]
10002134:	4413      	add	r3, r2
10002136:	223c      	movs	r2, #60	; 0x3c
10002138:	701a      	strb	r2, [r3, #0]
1000213a:	6cba      	ldr	r2, [r7, #72]	; 0x48
1000213c:	6cfb      	ldr	r3, [r7, #76]	; 0x4c
1000213e:	1ad3      	subs	r3, r2, r3
10002140:	1c9a      	adds	r2, r3, #2
10002142:	6ebb      	ldr	r3, [r7, #104]	; 0x68
10002144:	601a      	str	r2, [r3, #0]
10002146:	6cfb      	ldr	r3, [r7, #76]	; 0x4c
10002148:	1c5a      	adds	r2, r3, #1
1000214a:	64fa      	str	r2, [r7, #76]	; 0x4c
1000214c:	461a      	mov	r2, r3
1000214e:	687b      	ldr	r3, [r7, #4]
10002150:	4413      	add	r3, r2
10002152:	222e      	movs	r2, #46	; 0x2e
10002154:	701a      	strb	r2, [r3, #0]
10002156:	6e7b      	ldr	r3, [r7, #100]	; 0x64
10002158:	681b      	ldr	r3, [r3, #0]
1000215a:	2b00      	cmp	r3, #0
1000215c:	d00c      	beq.n	10002178 <fp_display+0x5dc>
1000215e:	6e7b      	ldr	r3, [r7, #100]	; 0x64
10002160:	681a      	ldr	r2, [r3, #0]
10002162:	6efb      	ldr	r3, [r7, #108]	; 0x6c
10002164:	601a      	str	r2, [r3, #0]
10002166:	6cfb      	ldr	r3, [r7, #76]	; 0x4c
10002168:	1c5a      	adds	r2, r3, #1
1000216a:	64fa      	str	r2, [r7, #76]	; 0x4c
1000216c:	461a      	mov	r2, r3
1000216e:	687b      	ldr	r3, [r7, #4]
10002170:	4413      	add	r3, r2
10002172:	223e      	movs	r2, #62	; 0x3e
10002174:	701a      	strb	r2, [r3, #0]
10002176:	e02b      	b.n	100021d0 <fp_display+0x634>
10002178:	e02a      	b.n	100021d0 <fp_display+0x634>
1000217a:	683b      	ldr	r3, [r7, #0]
1000217c:	f403 6300 	and.w	r3, r3, #2048	; 0x800
10002180:	2b00      	cmp	r3, #0
10002182:	d10c      	bne.n	1000219e <fp_display+0x602>
10002184:	6878      	ldr	r0, [r7, #4]
10002186:	6cf9      	ldr	r1, [r7, #76]	; 0x4c
10002188:	f7fe ffe6 	bl	10001158 <fp_round>
1000218c:	4603      	mov	r3, r0
1000218e:	2b00      	cmp	r3, #0
10002190:	d005      	beq.n	1000219e <fp_display+0x602>
10002192:	6cbb      	ldr	r3, [r7, #72]	; 0x48
10002194:	3301      	adds	r3, #1
10002196:	64bb      	str	r3, [r7, #72]	; 0x48
10002198:	6cfb      	ldr	r3, [r7, #76]	; 0x4c
1000219a:	3301      	adds	r3, #1
1000219c:	64fb      	str	r3, [r7, #76]	; 0x4c
1000219e:	2300      	movs	r3, #0
100021a0:	633b      	str	r3, [r7, #48]	; 0x30
100021a2:	e00b      	b.n	100021bc <fp_display+0x620>
100021a4:	6b3b      	ldr	r3, [r7, #48]	; 0x30
100021a6:	687a      	ldr	r2, [r7, #4]
100021a8:	4413      	add	r3, r2
100021aa:	6b3a      	ldr	r2, [r7, #48]	; 0x30
100021ac:	3201      	adds	r2, #1
100021ae:	6879      	ldr	r1, [r7, #4]
100021b0:	440a      	add	r2, r1
100021b2:	7812      	ldrb	r2, [r2, #0]
100021b4:	701a      	strb	r2, [r3, #0]
100021b6:	6b3b      	ldr	r3, [r7, #48]	; 0x30
100021b8:	3301      	adds	r3, #1
100021ba:	633b      	str	r3, [r7, #48]	; 0x30
100021bc:	6b3a      	ldr	r2, [r7, #48]	; 0x30
100021be:	6cbb      	ldr	r3, [r7, #72]	; 0x48
100021c0:	429a      	cmp	r2, r3
100021c2:	ddef      	ble.n	100021a4 <fp_display+0x608>
100021c4:	6cbb      	ldr	r3, [r7, #72]	; 0x48
100021c6:	3301      	adds	r3, #1
100021c8:	687a      	ldr	r2, [r7, #4]
100021ca:	4413      	add	r3, r2
100021cc:	222e      	movs	r2, #46	; 0x2e
100021ce:	701a      	strb	r2, [r3, #0]
100021d0:	683b      	ldr	r3, [r7, #0]
100021d2:	f403 6300 	and.w	r3, r3, #2048	; 0x800
100021d6:	2b00      	cmp	r3, #0
100021d8:	d00a      	beq.n	100021f0 <fp_display+0x654>
100021da:	683b      	ldr	r3, [r7, #0]
100021dc:	f003 0308 	and.w	r3, r3, #8
100021e0:	2b00      	cmp	r3, #0
100021e2:	d111      	bne.n	10002208 <fp_display+0x66c>
100021e4:	6878      	ldr	r0, [r7, #4]
100021e6:	6cf9      	ldr	r1, [r7, #76]	; 0x4c
100021e8:	f7ff fcb2 	bl	10001b50 <lose_trailing_zeros>
100021ec:	64f8      	str	r0, [r7, #76]	; 0x4c
100021ee:	e00b      	b.n	10002208 <fp_display+0x66c>
100021f0:	6e7b      	ldr	r3, [r7, #100]	; 0x64
100021f2:	681b      	ldr	r3, [r3, #0]
100021f4:	2b00      	cmp	r3, #0
100021f6:	d107      	bne.n	10002208 <fp_display+0x66c>
100021f8:	683b      	ldr	r3, [r7, #0]
100021fa:	f003 0308 	and.w	r3, r3, #8
100021fe:	2b00      	cmp	r3, #0
10002200:	d102      	bne.n	10002208 <fp_display+0x66c>
10002202:	6cfb      	ldr	r3, [r7, #76]	; 0x4c
10002204:	3b01      	subs	r3, #1
10002206:	64fb      	str	r3, [r7, #76]	; 0x4c
10002208:	6cfb      	ldr	r3, [r7, #76]	; 0x4c
1000220a:	e038      	b.n	1000227e <fp_display+0x6e2>
1000220c:	2367      	movs	r3, #103	; 0x67
1000220e:	60fb      	str	r3, [r7, #12]
10002210:	683b      	ldr	r3, [r7, #0]
10002212:	f443 6300 	orr.w	r3, r3, #2048	; 0x800
10002216:	603b      	str	r3, [r7, #0]
10002218:	6e7b      	ldr	r3, [r7, #100]	; 0x64
1000221a:	681b      	ldr	r3, [r3, #0]
1000221c:	2b00      	cmp	r3, #0
1000221e:	dc02      	bgt.n	10002226 <fp_display+0x68a>
10002220:	6e7b      	ldr	r3, [r7, #100]	; 0x64
10002222:	2201      	movs	r2, #1
10002224:	601a      	str	r2, [r3, #0]
10002226:	6e7b      	ldr	r3, [r7, #100]	; 0x64
10002228:	681b      	ldr	r3, [r3, #0]
1000222a:	2b11      	cmp	r3, #17
1000222c:	dc03      	bgt.n	10002236 <fp_display+0x69a>
1000222e:	6e7b      	ldr	r3, [r7, #100]	; 0x64
10002230:	681b      	ldr	r3, [r3, #0]
10002232:	3301      	adds	r3, #1
10002234:	e000      	b.n	10002238 <fp_display+0x69c>
10002236:	2312      	movs	r3, #18
10002238:	64fb      	str	r3, [r7, #76]	; 0x4c
1000223a:	6878      	ldr	r0, [r7, #4]
1000223c:	6cf9      	ldr	r1, [r7, #76]	; 0x4c
1000223e:	f7fe ff8b 	bl	10001158 <fp_round>
10002242:	4602      	mov	r2, r0
10002244:	6cbb      	ldr	r3, [r7, #72]	; 0x48
10002246:	4413      	add	r3, r2
10002248:	64bb      	str	r3, [r7, #72]	; 0x48
1000224a:	6e7b      	ldr	r3, [r7, #100]	; 0x64
1000224c:	681a      	ldr	r2, [r3, #0]
1000224e:	6cbb      	ldr	r3, [r7, #72]	; 0x48
10002250:	429a      	cmp	r2, r3
10002252:	dd0b      	ble.n	1000226c <fp_display+0x6d0>
10002254:	6cbb      	ldr	r3, [r7, #72]	; 0x48
10002256:	f113 0f04 	cmn.w	r3, #4
1000225a:	db07      	blt.n	1000226c <fp_display+0x6d0>
1000225c:	6e7b      	ldr	r3, [r7, #100]	; 0x64
1000225e:	681a      	ldr	r2, [r3, #0]
10002260:	6cbb      	ldr	r3, [r7, #72]	; 0x48
10002262:	43db      	mvns	r3, r3
10002264:	441a      	add	r2, r3
10002266:	6e7b      	ldr	r3, [r7, #100]	; 0x64
10002268:	601a      	str	r2, [r3, #0]
1000226a:	e657      	b.n	10001f1c <fp_display+0x380>
1000226c:	6e7b      	ldr	r3, [r7, #100]	; 0x64
1000226e:	681b      	ldr	r3, [r3, #0]
10002270:	1e5a      	subs	r2, r3, #1
10002272:	6e7b      	ldr	r3, [r7, #100]	; 0x64
10002274:	601a      	str	r2, [r3, #0]
10002276:	68fb      	ldr	r3, [r7, #12]
10002278:	3b02      	subs	r3, #2
1000227a:	60fb      	str	r3, [r7, #12]
1000227c:	e5e2      	b.n	10001e44 <fp_display+0x2a8>
1000227e:	4618      	mov	r0, r3
10002280:	3750      	adds	r7, #80	; 0x50
10002282:	46bd      	mov	sp, r7
10002284:	bdb0      	pop	{r4, r5, r7, pc}
10002286:	bf00      	nop

10002288 <printf>:
10002288:	b40f      	push	{r0, r1, r2, r3}
1000228a:	b580      	push	{r7, lr}
1000228c:	b084      	sub	sp, #16
1000228e:	af00      	add	r7, sp, #0
10002290:	f107 031c 	add.w	r3, r7, #28
10002294:	607b      	str	r3, [r7, #4]
10002296:	f107 0308 	add.w	r3, r7, #8
1000229a:	4618      	mov	r0, r3
1000229c:	2101      	movs	r1, #1
1000229e:	69ba      	ldr	r2, [r7, #24]
100022a0:	687b      	ldr	r3, [r7, #4]
100022a2:	f000 f86f 	bl	10002384 <vsnprintf>
100022a6:	60f8      	str	r0, [r7, #12]
100022a8:	68fb      	ldr	r3, [r7, #12]
100022aa:	2b00      	cmp	r3, #0
100022ac:	dd1e      	ble.n	100022ec <printf+0x64>
100022ae:	68fb      	ldr	r3, [r7, #12]
100022b0:	3301      	adds	r3, #1
100022b2:	4618      	mov	r0, r3
100022b4:	f001 ff74 	bl	100041a0 <malloc>
100022b8:	4603      	mov	r3, r0
100022ba:	60bb      	str	r3, [r7, #8]
100022bc:	68bb      	ldr	r3, [r7, #8]
100022be:	2b00      	cmp	r3, #0
100022c0:	d014      	beq.n	100022ec <printf+0x64>
100022c2:	68ba      	ldr	r2, [r7, #8]
100022c4:	68fb      	ldr	r3, [r7, #12]
100022c6:	3301      	adds	r3, #1
100022c8:	4610      	mov	r0, r2
100022ca:	4619      	mov	r1, r3
100022cc:	69ba      	ldr	r2, [r7, #24]
100022ce:	687b      	ldr	r3, [r7, #4]
100022d0:	f000 f858 	bl	10002384 <vsnprintf>
100022d4:	4b09      	ldr	r3, [pc, #36]	; (100022fc <printf+0x74>)
100022d6:	6bda      	ldr	r2, [r3, #60]	; 0x3c
100022d8:	68bb      	ldr	r3, [r7, #8]
100022da:	4610      	mov	r0, r2
100022dc:	4619      	mov	r1, r3
100022de:	68fa      	ldr	r2, [r7, #12]
100022e0:	f002 fe94 	bl	1000500c <__sys_write>
100022e4:	68bb      	ldr	r3, [r7, #8]
100022e6:	4618      	mov	r0, r3
100022e8:	f002 f836 	bl	10004358 <free>
100022ec:	68fb      	ldr	r3, [r7, #12]
100022ee:	4618      	mov	r0, r3
100022f0:	3710      	adds	r7, #16
100022f2:	46bd      	mov	sp, r7
100022f4:	e8bd 4080 	ldmia.w	sp!, {r7, lr}
100022f8:	b004      	add	sp, #16
100022fa:	4770      	bx	lr
100022fc:	10005320 	.word	0x10005320

10002300 <sprintf>:
10002300:	b40e      	push	{r1, r2, r3}
10002302:	b580      	push	{r7, lr}
10002304:	b093      	sub	sp, #76	; 0x4c
10002306:	af04      	add	r7, sp, #16
10002308:	6078      	str	r0, [r7, #4]
1000230a:	f107 0348 	add.w	r3, r7, #72	; 0x48
1000230e:	60bb      	str	r3, [r7, #8]
10002310:	f107 030c 	add.w	r3, r7, #12
10002314:	4618      	mov	r0, r3
10002316:	2100      	movs	r1, #0
10002318:	2228      	movs	r2, #40	; 0x28
1000231a:	f001 fc17 	bl	10003b4c <memset>
1000231e:	230a      	movs	r3, #10
10002320:	61bb      	str	r3, [r7, #24]
10002322:	687b      	ldr	r3, [r7, #4]
10002324:	60fb      	str	r3, [r7, #12]
10002326:	f06f 4300 	mvn.w	r3, #2147483648	; 0x80000000
1000232a:	617b      	str	r3, [r7, #20]
1000232c:	f107 020c 	add.w	r2, r7, #12
10002330:	6c7b      	ldr	r3, [r7, #68]	; 0x44
10002332:	9300      	str	r3, [sp, #0]
10002334:	68bb      	ldr	r3, [r7, #8]
10002336:	9301      	str	r3, [sp, #4]
10002338:	4b11      	ldr	r3, [pc, #68]	; (10002380 <sprintf+0x80>)
1000233a:	9302      	str	r3, [sp, #8]
1000233c:	4610      	mov	r0, r2
1000233e:	f04f 32ff 	mov.w	r2, #4294967295
10002342:	f06f 4300 	mvn.w	r3, #2147483648	; 0x80000000
10002346:	f000 fc99 	bl	10002c7c <__vfprintf>
1000234a:	6378      	str	r0, [r7, #52]	; 0x34
1000234c:	697b      	ldr	r3, [r7, #20]
1000234e:	3b01      	subs	r3, #1
10002350:	617b      	str	r3, [r7, #20]
10002352:	697b      	ldr	r3, [r7, #20]
10002354:	2b00      	cmp	r3, #0
10002356:	db05      	blt.n	10002364 <sprintf+0x64>
10002358:	68fb      	ldr	r3, [r7, #12]
1000235a:	1c5a      	adds	r2, r3, #1
1000235c:	60fa      	str	r2, [r7, #12]
1000235e:	2200      	movs	r2, #0
10002360:	701a      	strb	r2, [r3, #0]
10002362:	e005      	b.n	10002370 <sprintf+0x70>
10002364:	f107 030c 	add.w	r3, r7, #12
10002368:	2000      	movs	r0, #0
1000236a:	4619      	mov	r1, r3
1000236c:	f001 fc34 	bl	10003bd8 <__flsbuf>
10002370:	6b7b      	ldr	r3, [r7, #52]	; 0x34
10002372:	4618      	mov	r0, r3
10002374:	373c      	adds	r7, #60	; 0x3c
10002376:	46bd      	mov	sp, r7
10002378:	e8bd 4080 	ldmia.w	sp!, {r7, lr}
1000237c:	b003      	add	sp, #12
1000237e:	4770      	bx	lr
10002380:	10001b9d 	.word	0x10001b9d

10002384 <vsnprintf>:
10002384:	b580      	push	{r7, lr}
10002386:	b094      	sub	sp, #80	; 0x50
10002388:	af04      	add	r7, sp, #16
1000238a:	60f8      	str	r0, [r7, #12]
1000238c:	60b9      	str	r1, [r7, #8]
1000238e:	607a      	str	r2, [r7, #4]
10002390:	603b      	str	r3, [r7, #0]
10002392:	f107 0314 	add.w	r3, r7, #20
10002396:	4618      	mov	r0, r3
10002398:	2100      	movs	r1, #0
1000239a:	2228      	movs	r2, #40	; 0x28
1000239c:	f001 fbd6 	bl	10003b4c <memset>
100023a0:	230a      	movs	r3, #10
100023a2:	623b      	str	r3, [r7, #32]
100023a4:	68fb      	ldr	r3, [r7, #12]
100023a6:	617b      	str	r3, [r7, #20]
100023a8:	f06f 4300 	mvn.w	r3, #2147483648	; 0x80000000
100023ac:	61fb      	str	r3, [r7, #28]
100023ae:	68bb      	ldr	r3, [r7, #8]
100023b0:	3b01      	subs	r3, #1
100023b2:	461a      	mov	r2, r3
100023b4:	f04f 0300 	mov.w	r3, #0
100023b8:	f107 0014 	add.w	r0, r7, #20
100023bc:	6879      	ldr	r1, [r7, #4]
100023be:	9100      	str	r1, [sp, #0]
100023c0:	6839      	ldr	r1, [r7, #0]
100023c2:	9101      	str	r1, [sp, #4]
100023c4:	490d      	ldr	r1, [pc, #52]	; (100023fc <vsnprintf+0x78>)
100023c6:	9102      	str	r1, [sp, #8]
100023c8:	f000 fc58 	bl	10002c7c <__vfprintf>
100023cc:	63f8      	str	r0, [r7, #60]	; 0x3c
100023ce:	69fb      	ldr	r3, [r7, #28]
100023d0:	3b01      	subs	r3, #1
100023d2:	61fb      	str	r3, [r7, #28]
100023d4:	69fb      	ldr	r3, [r7, #28]
100023d6:	2b00      	cmp	r3, #0
100023d8:	db05      	blt.n	100023e6 <vsnprintf+0x62>
100023da:	697b      	ldr	r3, [r7, #20]
100023dc:	1c5a      	adds	r2, r3, #1
100023de:	617a      	str	r2, [r7, #20]
100023e0:	2200      	movs	r2, #0
100023e2:	701a      	strb	r2, [r3, #0]
100023e4:	e005      	b.n	100023f2 <vsnprintf+0x6e>
100023e6:	f107 0314 	add.w	r3, r7, #20
100023ea:	2000      	movs	r0, #0
100023ec:	4619      	mov	r1, r3
100023ee:	f001 fbf3 	bl	10003bd8 <__flsbuf>
100023f2:	6bfb      	ldr	r3, [r7, #60]	; 0x3c
100023f4:	4618      	mov	r0, r3
100023f6:	3740      	adds	r7, #64	; 0x40
100023f8:	46bd      	mov	sp, r7
100023fa:	bd80      	pop	{r7, pc}
100023fc:	10001b9d 	.word	0x10001b9d

10002400 <_initio>:
10002400:	b580      	push	{r7, lr}
10002402:	b086      	sub	sp, #24
10002404:	af00      	add	r7, sp, #0
10002406:	60f8      	str	r0, [r7, #12]
10002408:	60b9      	str	r1, [r7, #8]
1000240a:	607a      	str	r2, [r7, #4]
1000240c:	482b      	ldr	r0, [pc, #172]	; (100024bc <_initio+0xbc>)
1000240e:	2100      	movs	r1, #0
10002410:	f44f 72a0 	mov.w	r2, #320	; 0x140
10002414:	f001 fb9a 	bl	10003b4c <memset>
10002418:	20c0      	movs	r0, #192	; 0xc0
1000241a:	f001 ffd5 	bl	100043c8 <_Csys_alloc>
1000241e:	4602      	mov	r2, r0
10002420:	4b27      	ldr	r3, [pc, #156]	; (100024c0 <_initio+0xc0>)
10002422:	601a      	str	r2, [r3, #0]
10002424:	4b26      	ldr	r3, [pc, #152]	; (100024c0 <_initio+0xc0>)
10002426:	681b      	ldr	r3, [r3, #0]
10002428:	4618      	mov	r0, r3
1000242a:	2100      	movs	r1, #0
1000242c:	22c0      	movs	r2, #192	; 0xc0
1000242e:	f001 fb8d 	bl	10003b4c <memset>
10002432:	2300      	movs	r3, #0
10002434:	617b      	str	r3, [r7, #20]
10002436:	e013      	b.n	10002460 <_initio+0x60>
10002438:	4b21      	ldr	r3, [pc, #132]	; (100024c0 <_initio+0xc0>)
1000243a:	6819      	ldr	r1, [r3, #0]
1000243c:	697a      	ldr	r2, [r7, #20]
1000243e:	4613      	mov	r3, r2
10002440:	005b      	lsls	r3, r3, #1
10002442:	4413      	add	r3, r2
10002444:	00db      	lsls	r3, r3, #3
10002446:	4419      	add	r1, r3
10002448:	481c      	ldr	r0, [pc, #112]	; (100024bc <_initio+0xbc>)
1000244a:	697a      	ldr	r2, [r7, #20]
1000244c:	4613      	mov	r3, r2
1000244e:	009b      	lsls	r3, r3, #2
10002450:	4413      	add	r3, r2
10002452:	00db      	lsls	r3, r3, #3
10002454:	4403      	add	r3, r0
10002456:	3320      	adds	r3, #32
10002458:	6059      	str	r1, [r3, #4]
1000245a:	697b      	ldr	r3, [r7, #20]
1000245c:	3301      	adds	r3, #1
1000245e:	617b      	str	r3, [r7, #20]
10002460:	697b      	ldr	r3, [r7, #20]
10002462:	2b07      	cmp	r3, #7
10002464:	dde8      	ble.n	10002438 <_initio+0x38>
10002466:	2000      	movs	r0, #0
10002468:	4916      	ldr	r1, [pc, #88]	; (100024c4 <_initio+0xc4>)
1000246a:	4a14      	ldr	r2, [pc, #80]	; (100024bc <_initio+0xbc>)
1000246c:	f001 fce0 	bl	10003e30 <_fdopen>
10002470:	4812      	ldr	r0, [pc, #72]	; (100024bc <_initio+0xbc>)
10002472:	2100      	movs	r1, #0
10002474:	f44f 6280 	mov.w	r2, #1024	; 0x400
10002478:	f44f 5380 	mov.w	r3, #4096	; 0x1000
1000247c:	f001 fa8e 	bl	1000399c <setvbuf>
10002480:	2001      	movs	r0, #1
10002482:	4911      	ldr	r1, [pc, #68]	; (100024c8 <_initio+0xc8>)
10002484:	4a11      	ldr	r2, [pc, #68]	; (100024cc <_initio+0xcc>)
10002486:	f001 fcd3 	bl	10003e30 <_fdopen>
1000248a:	4810      	ldr	r0, [pc, #64]	; (100024cc <_initio+0xcc>)
1000248c:	2100      	movs	r1, #0
1000248e:	f44f 6280 	mov.w	r2, #1024	; 0x400
10002492:	f44f 5380 	mov.w	r3, #4096	; 0x1000
10002496:	f001 fa81 	bl	1000399c <setvbuf>
1000249a:	2002      	movs	r0, #2
1000249c:	490a      	ldr	r1, [pc, #40]	; (100024c8 <_initio+0xc8>)
1000249e:	4a0c      	ldr	r2, [pc, #48]	; (100024d0 <_initio+0xd0>)
100024a0:	f001 fcc6 	bl	10003e30 <_fdopen>
100024a4:	480a      	ldr	r0, [pc, #40]	; (100024d0 <_initio+0xd0>)
100024a6:	2100      	movs	r1, #0
100024a8:	f44f 6280 	mov.w	r2, #1024	; 0x400
100024ac:	f44f 5380 	mov.w	r3, #4096	; 0x1000
100024b0:	f001 fa74 	bl	1000399c <setvbuf>
100024b4:	3718      	adds	r7, #24
100024b6:	46bd      	mov	sp, r7
100024b8:	bd80      	pop	{r7, pc}
100024ba:	bf00      	nop
100024bc:	10005320 	.word	0x10005320
100024c0:	1000531c 	.word	0x1000531c
100024c4:	100051b0 	.word	0x100051b0
100024c8:	100051b4 	.word	0x100051b4
100024cc:	10005348 	.word	0x10005348
100024d0:	10005370 	.word	0x10005370

100024d4 <DivideBy10>:
100024d4:	e92d 0fb0 	stmdb	sp!, {r4, r5, r7, r8, r9, sl, fp}
100024d8:	b091      	sub	sp, #68	; 0x44
100024da:	af00      	add	r7, sp, #0
100024dc:	e9c7 010a 	strd	r0, r1, [r7, #40]	; 0x28
100024e0:	e9d7 230a 	ldrd	r2, r3, [r7, #40]	; 0x28
100024e4:	0859      	lsrs	r1, r3, #1
100024e6:	ea4f 0032 	mov.w	r0, r2, rrx
100024ea:	e9d7 230a 	ldrd	r2, r3, [r7, #40]	; 0x28
100024ee:	0894      	lsrs	r4, r2, #2
100024f0:	ea44 7483 	orr.w	r4, r4, r3, lsl #30
100024f4:	089d      	lsrs	r5, r3, #2
100024f6:	1902      	adds	r2, r0, r4
100024f8:	eb41 0305 	adc.w	r3, r1, r5
100024fc:	e9c7 230e 	strd	r2, r3, [r7, #56]	; 0x38
10002500:	e9d7 230e 	ldrd	r2, r3, [r7, #56]	; 0x38
10002504:	ea4f 1812 	mov.w	r8, r2, lsr #4
10002508:	ea48 7803 	orr.w	r8, r8, r3, lsl #28
1000250c:	ea4f 1913 	mov.w	r9, r3, lsr #4
10002510:	e9d7 230e 	ldrd	r2, r3, [r7, #56]	; 0x38
10002514:	eb12 0208 	adds.w	r2, r2, r8
10002518:	eb43 0309 	adc.w	r3, r3, r9
1000251c:	e9c7 230e 	strd	r2, r3, [r7, #56]	; 0x38
10002520:	e9d7 230e 	ldrd	r2, r3, [r7, #56]	; 0x38
10002524:	0a11      	lsrs	r1, r2, #8
10002526:	6239      	str	r1, [r7, #32]
10002528:	6a39      	ldr	r1, [r7, #32]
1000252a:	ea41 6103 	orr.w	r1, r1, r3, lsl #24
1000252e:	6239      	str	r1, [r7, #32]
10002530:	0a1b      	lsrs	r3, r3, #8
10002532:	627b      	str	r3, [r7, #36]	; 0x24
10002534:	e9d7 230e 	ldrd	r2, r3, [r7, #56]	; 0x38
10002538:	e9d7 0108 	ldrd	r0, r1, [r7, #32]
1000253c:	1880      	adds	r0, r0, r2
1000253e:	eb41 0103 	adc.w	r1, r1, r3
10002542:	4602      	mov	r2, r0
10002544:	460b      	mov	r3, r1
10002546:	e9c7 230e 	strd	r2, r3, [r7, #56]	; 0x38
1000254a:	e9d7 230e 	ldrd	r2, r3, [r7, #56]	; 0x38
1000254e:	0c11      	lsrs	r1, r2, #16
10002550:	61b9      	str	r1, [r7, #24]
10002552:	69b9      	ldr	r1, [r7, #24]
10002554:	ea41 4103 	orr.w	r1, r1, r3, lsl #16
10002558:	61b9      	str	r1, [r7, #24]
1000255a:	0c1b      	lsrs	r3, r3, #16
1000255c:	61fb      	str	r3, [r7, #28]
1000255e:	e9d7 230e 	ldrd	r2, r3, [r7, #56]	; 0x38
10002562:	e9d7 0106 	ldrd	r0, r1, [r7, #24]
10002566:	1880      	adds	r0, r0, r2
10002568:	eb41 0103 	adc.w	r1, r1, r3
1000256c:	4602      	mov	r2, r0
1000256e:	460b      	mov	r3, r1
10002570:	e9c7 230e 	strd	r2, r3, [r7, #56]	; 0x38
10002574:	e9d7 230e 	ldrd	r2, r3, [r7, #56]	; 0x38
10002578:	001b      	movs	r3, r3
1000257a:	603b      	str	r3, [r7, #0]
1000257c:	2300      	movs	r3, #0
1000257e:	607b      	str	r3, [r7, #4]
10002580:	e9d7 230e 	ldrd	r2, r3, [r7, #56]	; 0x38
10002584:	e9d7 0100 	ldrd	r0, r1, [r7]
10002588:	1880      	adds	r0, r0, r2
1000258a:	eb41 0103 	adc.w	r1, r1, r3
1000258e:	4602      	mov	r2, r0
10002590:	460b      	mov	r3, r1
10002592:	e9c7 230e 	strd	r2, r3, [r7, #56]	; 0x38
10002596:	e9d7 230e 	ldrd	r2, r3, [r7, #56]	; 0x38
1000259a:	08d1      	lsrs	r1, r2, #3
1000259c:	6139      	str	r1, [r7, #16]
1000259e:	6939      	ldr	r1, [r7, #16]
100025a0:	ea41 7143 	orr.w	r1, r1, r3, lsl #29
100025a4:	6139      	str	r1, [r7, #16]
100025a6:	08db      	lsrs	r3, r3, #3
100025a8:	617b      	str	r3, [r7, #20]
100025aa:	e9d7 2304 	ldrd	r2, r3, [r7, #16]
100025ae:	e9c7 230e 	strd	r2, r3, [r7, #56]	; 0x38
100025b2:	e9d7 230e 	ldrd	r2, r3, [r7, #56]	; 0x38
100025b6:	1892      	adds	r2, r2, r2
100025b8:	eb43 0303 	adc.w	r3, r3, r3
100025bc:	0099      	lsls	r1, r3, #2
100025be:	60f9      	str	r1, [r7, #12]
100025c0:	68f9      	ldr	r1, [r7, #12]
100025c2:	ea41 7192 	orr.w	r1, r1, r2, lsr #30
100025c6:	60f9      	str	r1, [r7, #12]
100025c8:	0091      	lsls	r1, r2, #2
100025ca:	60b9      	str	r1, [r7, #8]
100025cc:	e9d7 0102 	ldrd	r0, r1, [r7, #8]
100025d0:	1880      	adds	r0, r0, r2
100025d2:	eb41 0103 	adc.w	r1, r1, r3
100025d6:	4602      	mov	r2, r0
100025d8:	460b      	mov	r3, r1
100025da:	e9d7 010a 	ldrd	r0, r1, [r7, #40]	; 0x28
100025de:	1a82      	subs	r2, r0, r2
100025e0:	eb61 0303 	sbc.w	r3, r1, r3
100025e4:	e9c7 230c 	strd	r2, r3, [r7, #48]	; 0x30
100025e8:	e9d7 230c 	ldrd	r2, r3, [r7, #48]	; 0x30
100025ec:	3206      	adds	r2, #6
100025ee:	f143 0300 	adc.w	r3, r3, #0
100025f2:	ea4f 1a12 	mov.w	sl, r2, lsr #4
100025f6:	ea4a 7a03 	orr.w	sl, sl, r3, lsl #28
100025fa:	ea4f 1b13 	mov.w	fp, r3, lsr #4
100025fe:	e9d7 230e 	ldrd	r2, r3, [r7, #56]	; 0x38
10002602:	eb12 020a 	adds.w	r2, r2, sl
10002606:	eb43 030b 	adc.w	r3, r3, fp
1000260a:	4610      	mov	r0, r2
1000260c:	4619      	mov	r1, r3
1000260e:	3744      	adds	r7, #68	; 0x44
10002610:	46bd      	mov	sp, r7
10002612:	e8bd 0fb0 	ldmia.w	sp!, {r4, r5, r7, r8, r9, sl, fp}
10002616:	4770      	bx	lr

10002618 <printf_display>:
10002618:	e92d 43b0 	stmdb	sp!, {r4, r5, r7, r8, r9, lr}
1000261c:	b09c      	sub	sp, #112	; 0x70
1000261e:	af04      	add	r7, sp, #16
10002620:	60f8      	str	r0, [r7, #12]
10002622:	e9c7 2300 	strd	r2, r3, [r7]
10002626:	2300      	movs	r3, #0
10002628:	65fb      	str	r3, [r7, #92]	; 0x5c
1000262a:	2300      	movs	r3, #0
1000262c:	65bb      	str	r3, [r7, #88]	; 0x58
1000262e:	f04f 33ff 	mov.w	r3, #4294967295
10002632:	637b      	str	r3, [r7, #52]	; 0x34
10002634:	f04f 33ff 	mov.w	r3, #4294967295
10002638:	633b      	str	r3, [r7, #48]	; 0x30
1000263a:	2300      	movs	r3, #0
1000263c:	657b      	str	r3, [r7, #84]	; 0x54
1000263e:	e008      	b.n	10002652 <printf_display+0x3a>
10002640:	f107 0210 	add.w	r2, r7, #16
10002644:	6d7b      	ldr	r3, [r7, #84]	; 0x54
10002646:	4413      	add	r3, r2
10002648:	2255      	movs	r2, #85	; 0x55
1000264a:	701a      	strb	r2, [r3, #0]
1000264c:	6d7b      	ldr	r3, [r7, #84]	; 0x54
1000264e:	3301      	adds	r3, #1
10002650:	657b      	str	r3, [r7, #84]	; 0x54
10002652:	6d7b      	ldr	r3, [r7, #84]	; 0x54
10002654:	2b1f      	cmp	r3, #31
10002656:	d9f3      	bls.n	10002640 <printf_display+0x28>
10002658:	6fbb      	ldr	r3, [r7, #120]	; 0x78
1000265a:	f403 6382 	and.w	r3, r3, #1040	; 0x410
1000265e:	2b00      	cmp	r3, #0
10002660:	d102      	bne.n	10002668 <printf_display+0x50>
10002662:	2301      	movs	r3, #1
10002664:	f8c7 3080 	str.w	r3, [r7, #128]	; 0x80
10002668:	6ffb      	ldr	r3, [r7, #124]	; 0x7c
1000266a:	3b41      	subs	r3, #65	; 0x41
1000266c:	2b37      	cmp	r3, #55	; 0x37
1000266e:	f200 80e9 	bhi.w	10002844 <printf_display+0x22c>
10002672:	a201      	add	r2, pc, #4	; (adr r2, 10002678 <printf_display+0x60>)
10002674:	f852 f023 	ldr.w	pc, [r2, r3, lsl #2]
10002678:	10002817 	.word	0x10002817
1000267c:	10002845 	.word	0x10002845
10002680:	10002845 	.word	0x10002845
10002684:	10002845 	.word	0x10002845
10002688:	10002817 	.word	0x10002817
1000268c:	10002845 	.word	0x10002845
10002690:	10002817 	.word	0x10002817
10002694:	10002845 	.word	0x10002845
10002698:	10002845 	.word	0x10002845
1000269c:	10002845 	.word	0x10002845
100026a0:	10002845 	.word	0x10002845
100026a4:	10002845 	.word	0x10002845
100026a8:	10002845 	.word	0x10002845
100026ac:	10002845 	.word	0x10002845
100026b0:	10002845 	.word	0x10002845
100026b4:	10002845 	.word	0x10002845
100026b8:	10002845 	.word	0x10002845
100026bc:	10002845 	.word	0x10002845
100026c0:	10002845 	.word	0x10002845
100026c4:	10002845 	.word	0x10002845
100026c8:	10002845 	.word	0x10002845
100026cc:	10002845 	.word	0x10002845
100026d0:	10002845 	.word	0x10002845
100026d4:	1000278d 	.word	0x1000278d
100026d8:	10002845 	.word	0x10002845
100026dc:	10002845 	.word	0x10002845
100026e0:	10002845 	.word	0x10002845
100026e4:	10002845 	.word	0x10002845
100026e8:	10002845 	.word	0x10002845
100026ec:	10002845 	.word	0x10002845
100026f0:	10002845 	.word	0x10002845
100026f4:	10002845 	.word	0x10002845
100026f8:	10002817 	.word	0x10002817
100026fc:	10002845 	.word	0x10002845
10002700:	10002845 	.word	0x10002845
10002704:	1000280d 	.word	0x1000280d
10002708:	10002817 	.word	0x10002817
1000270c:	10002817 	.word	0x10002817
10002710:	10002817 	.word	0x10002817
10002714:	10002845 	.word	0x10002845
10002718:	1000280d 	.word	0x1000280d
1000271c:	10002845 	.word	0x10002845
10002720:	10002845 	.word	0x10002845
10002724:	10002845 	.word	0x10002845
10002728:	10002845 	.word	0x10002845
1000272c:	10002845 	.word	0x10002845
10002730:	100027c5 	.word	0x100027c5
10002734:	1000278d 	.word	0x1000278d
10002738:	10002845 	.word	0x10002845
1000273c:	10002845 	.word	0x10002845
10002740:	10002845 	.word	0x10002845
10002744:	10002845 	.word	0x10002845
10002748:	1000280d 	.word	0x1000280d
1000274c:	10002845 	.word	0x10002845
10002750:	10002845 	.word	0x10002845
10002754:	1000278d 	.word	0x1000278d
10002758:	6dbb      	ldr	r3, [r7, #88]	; 0x58
1000275a:	1c5a      	adds	r2, r3, #1
1000275c:	65ba      	str	r2, [r7, #88]	; 0x58
1000275e:	f8d7 2088 	ldr.w	r2, [r7, #136]	; 0x88
10002762:	f002 020f 	and.w	r2, r2, #15
10002766:	f8d7 1098 	ldr.w	r1, [r7, #152]	; 0x98
1000276a:	440a      	add	r2, r1
1000276c:	7812      	ldrb	r2, [r2, #0]
1000276e:	f107 0160 	add.w	r1, r7, #96	; 0x60
10002772:	440b      	add	r3, r1
10002774:	f803 2c50 	strb.w	r2, [r3, #-80]
10002778:	e9d7 2322 	ldrd	r2, r3, [r7, #136]	; 0x88
1000277c:	ea4f 1812 	mov.w	r8, r2, lsr #4
10002780:	ea48 7803 	orr.w	r8, r8, r3, lsl #28
10002784:	ea4f 1913 	mov.w	r9, r3, lsr #4
10002788:	e9c7 8922 	strd	r8, r9, [r7, #136]	; 0x88
1000278c:	e9d7 2322 	ldrd	r2, r3, [r7, #136]	; 0x88
10002790:	4313      	orrs	r3, r2
10002792:	d1e1      	bne.n	10002758 <printf_display+0x140>
10002794:	e056      	b.n	10002844 <printf_display+0x22c>
10002796:	6dbb      	ldr	r3, [r7, #88]	; 0x58
10002798:	1c5a      	adds	r2, r3, #1
1000279a:	65ba      	str	r2, [r7, #88]	; 0x58
1000279c:	f897 2088 	ldrb.w	r2, [r7, #136]	; 0x88
100027a0:	f002 0207 	and.w	r2, r2, #7
100027a4:	b2d2      	uxtb	r2, r2
100027a6:	3230      	adds	r2, #48	; 0x30
100027a8:	b2d2      	uxtb	r2, r2
100027aa:	f107 0160 	add.w	r1, r7, #96	; 0x60
100027ae:	440b      	add	r3, r1
100027b0:	f803 2c50 	strb.w	r2, [r3, #-80]
100027b4:	e9d7 2322 	ldrd	r2, r3, [r7, #136]	; 0x88
100027b8:	08d4      	lsrs	r4, r2, #3
100027ba:	ea44 7443 	orr.w	r4, r4, r3, lsl #29
100027be:	08dd      	lsrs	r5, r3, #3
100027c0:	e9c7 4522 	strd	r4, r5, [r7, #136]	; 0x88
100027c4:	e9d7 2322 	ldrd	r2, r3, [r7, #136]	; 0x88
100027c8:	4313      	orrs	r3, r2
100027ca:	d1e4      	bne.n	10002796 <printf_display+0x17e>
100027cc:	e03a      	b.n	10002844 <printf_display+0x22c>
100027ce:	e9d7 0122 	ldrd	r0, r1, [r7, #136]	; 0x88
100027d2:	f7ff fe7f 	bl	100024d4 <DivideBy10>
100027d6:	e9c7 0112 	strd	r0, r1, [r7, #72]	; 0x48
100027da:	6dbb      	ldr	r3, [r7, #88]	; 0x58
100027dc:	1c5a      	adds	r2, r3, #1
100027de:	65ba      	str	r2, [r7, #88]	; 0x58
100027e0:	f897 1088 	ldrb.w	r1, [r7, #136]	; 0x88
100027e4:	f897 2048 	ldrb.w	r2, [r7, #72]	; 0x48
100027e8:	4610      	mov	r0, r2
100027ea:	0080      	lsls	r0, r0, #2
100027ec:	4402      	add	r2, r0
100027ee:	0052      	lsls	r2, r2, #1
100027f0:	b2d2      	uxtb	r2, r2
100027f2:	1a8a      	subs	r2, r1, r2
100027f4:	b2d2      	uxtb	r2, r2
100027f6:	3230      	adds	r2, #48	; 0x30
100027f8:	b2d2      	uxtb	r2, r2
100027fa:	f107 0160 	add.w	r1, r7, #96	; 0x60
100027fe:	440b      	add	r3, r1
10002800:	f803 2c50 	strb.w	r2, [r3, #-80]
10002804:	e9d7 2312 	ldrd	r2, r3, [r7, #72]	; 0x48
10002808:	e9c7 2322 	strd	r2, r3, [r7, #136]	; 0x88
1000280c:	e9d7 2322 	ldrd	r2, r3, [r7, #136]	; 0x88
10002810:	4313      	orrs	r3, r2
10002812:	d1dc      	bne.n	100027ce <printf_display+0x1b6>
10002814:	e016      	b.n	10002844 <printf_display+0x22c>
10002816:	f107 0210 	add.w	r2, r7, #16
1000281a:	f107 0394 	add.w	r3, r7, #148	; 0x94
1000281e:	9300      	str	r3, [sp, #0]
10002820:	f107 0380 	add.w	r3, r7, #128	; 0x80
10002824:	9301      	str	r3, [sp, #4]
10002826:	f107 0334 	add.w	r3, r7, #52	; 0x34
1000282a:	9302      	str	r3, [sp, #8]
1000282c:	f107 0330 	add.w	r3, r7, #48	; 0x30
10002830:	9303      	str	r3, [sp, #12]
10002832:	f8d7 4090 	ldr.w	r4, [r7, #144]	; 0x90
10002836:	6ff8      	ldr	r0, [r7, #124]	; 0x7c
10002838:	f8d7 109c 	ldr.w	r1, [r7, #156]	; 0x9c
1000283c:	6fbb      	ldr	r3, [r7, #120]	; 0x78
1000283e:	47a0      	blx	r4
10002840:	65b8      	str	r0, [r7, #88]	; 0x58
10002842:	bf00      	nop
10002844:	6fbb      	ldr	r3, [r7, #120]	; 0x78
10002846:	f403 6380 	and.w	r3, r3, #1024	; 0x400
1000284a:	2b00      	cmp	r3, #0
1000284c:	d014      	beq.n	10002878 <printf_display+0x260>
1000284e:	2300      	movs	r3, #0
10002850:	f8c7 3080 	str.w	r3, [r7, #128]	; 0x80
10002854:	6b7b      	ldr	r3, [r7, #52]	; 0x34
10002856:	2b00      	cmp	r3, #0
10002858:	dd03      	ble.n	10002862 <printf_display+0x24a>
1000285a:	6b7b      	ldr	r3, [r7, #52]	; 0x34
1000285c:	3b01      	subs	r3, #1
1000285e:	f8c7 3080 	str.w	r3, [r7, #128]	; 0x80
10002862:	6b3b      	ldr	r3, [r7, #48]	; 0x30
10002864:	2b00      	cmp	r3, #0
10002866:	dd14      	ble.n	10002892 <printf_display+0x27a>
10002868:	6b3b      	ldr	r3, [r7, #48]	; 0x30
1000286a:	1e5a      	subs	r2, r3, #1
1000286c:	f8d7 3080 	ldr.w	r3, [r7, #128]	; 0x80
10002870:	4413      	add	r3, r2
10002872:	f8c7 3080 	str.w	r3, [r7, #128]	; 0x80
10002876:	e00c      	b.n	10002892 <printf_display+0x27a>
10002878:	f8d7 2080 	ldr.w	r2, [r7, #128]	; 0x80
1000287c:	6dbb      	ldr	r3, [r7, #88]	; 0x58
1000287e:	1ad3      	subs	r3, r2, r3
10002880:	f8c7 3080 	str.w	r3, [r7, #128]	; 0x80
10002884:	f8d7 3080 	ldr.w	r3, [r7, #128]	; 0x80
10002888:	2b00      	cmp	r3, #0
1000288a:	da02      	bge.n	10002892 <printf_display+0x27a>
1000288c:	2300      	movs	r3, #0
1000288e:	f8c7 3080 	str.w	r3, [r7, #128]	; 0x80
10002892:	f8d7 2080 	ldr.w	r2, [r7, #128]	; 0x80
10002896:	6dbb      	ldr	r3, [r7, #88]	; 0x58
10002898:	4413      	add	r3, r2
1000289a:	461c      	mov	r4, r3
1000289c:	f8d7 3094 	ldr.w	r3, [r7, #148]	; 0x94
100028a0:	4618      	mov	r0, r3
100028a2:	f001 f8ff 	bl	10003aa4 <strlen>
100028a6:	4603      	mov	r3, r0
100028a8:	4423      	add	r3, r4
100028aa:	f8d7 2084 	ldr.w	r2, [r7, #132]	; 0x84
100028ae:	1ad3      	subs	r3, r2, r3
100028b0:	f8c7 3084 	str.w	r3, [r7, #132]	; 0x84
100028b4:	6fbb      	ldr	r3, [r7, #120]	; 0x78
100028b6:	f403 7300 	and.w	r3, r3, #512	; 0x200
100028ba:	2b00      	cmp	r3, #0
100028bc:	d13c      	bne.n	10002938 <printf_display+0x320>
100028be:	6fbb      	ldr	r3, [r7, #120]	; 0x78
100028c0:	f003 0301 	and.w	r3, r3, #1
100028c4:	2b00      	cmp	r3, #0
100028c6:	d137      	bne.n	10002938 <printf_display+0x320>
100028c8:	6fbb      	ldr	r3, [r7, #120]	; 0x78
100028ca:	f403 7300 	and.w	r3, r3, #512	; 0x200
100028ce:	2b00      	cmp	r3, #0
100028d0:	d001      	beq.n	100028d6 <printf_display+0x2be>
100028d2:	2330      	movs	r3, #48	; 0x30
100028d4:	e000      	b.n	100028d8 <printf_display+0x2c0>
100028d6:	2320      	movs	r3, #32
100028d8:	f887 3047 	strb.w	r3, [r7, #71]	; 0x47
100028dc:	e023      	b.n	10002926 <printf_display+0x30e>
100028de:	6dfb      	ldr	r3, [r7, #92]	; 0x5c
100028e0:	1c5a      	adds	r2, r3, #1
100028e2:	65fa      	str	r2, [r7, #92]	; 0x5c
100028e4:	4618      	mov	r0, r3
100028e6:	ea4f 71e0 	mov.w	r1, r0, asr #31
100028ea:	e9d7 2300 	ldrd	r2, r3, [r7]
100028ee:	4290      	cmp	r0, r2
100028f0:	eb71 0303 	sbcs.w	r3, r1, r3
100028f4:	da17      	bge.n	10002926 <printf_display+0x30e>
100028f6:	68fb      	ldr	r3, [r7, #12]
100028f8:	689b      	ldr	r3, [r3, #8]
100028fa:	1e5a      	subs	r2, r3, #1
100028fc:	68fb      	ldr	r3, [r7, #12]
100028fe:	609a      	str	r2, [r3, #8]
10002900:	68fb      	ldr	r3, [r7, #12]
10002902:	689b      	ldr	r3, [r3, #8]
10002904:	2b00      	cmp	r3, #0
10002906:	db08      	blt.n	1000291a <printf_display+0x302>
10002908:	68fb      	ldr	r3, [r7, #12]
1000290a:	681b      	ldr	r3, [r3, #0]
1000290c:	1c59      	adds	r1, r3, #1
1000290e:	68fa      	ldr	r2, [r7, #12]
10002910:	6011      	str	r1, [r2, #0]
10002912:	f897 2047 	ldrb.w	r2, [r7, #71]	; 0x47
10002916:	701a      	strb	r2, [r3, #0]
10002918:	e005      	b.n	10002926 <printf_display+0x30e>
1000291a:	f897 3047 	ldrb.w	r3, [r7, #71]	; 0x47
1000291e:	4618      	mov	r0, r3
10002920:	68f9      	ldr	r1, [r7, #12]
10002922:	f001 f959 	bl	10003bd8 <__flsbuf>
10002926:	f8d7 3084 	ldr.w	r3, [r7, #132]	; 0x84
1000292a:	3b01      	subs	r3, #1
1000292c:	f8c7 3084 	str.w	r3, [r7, #132]	; 0x84
10002930:	f8d7 3084 	ldr.w	r3, [r7, #132]	; 0x84
10002934:	2b00      	cmp	r3, #0
10002936:	dad2      	bge.n	100028de <printf_display+0x2c6>
10002938:	e021      	b.n	1000297e <printf_display+0x366>
1000293a:	6dfb      	ldr	r3, [r7, #92]	; 0x5c
1000293c:	1c5a      	adds	r2, r3, #1
1000293e:	65fa      	str	r2, [r7, #92]	; 0x5c
10002940:	4618      	mov	r0, r3
10002942:	ea4f 71e0 	mov.w	r1, r0, asr #31
10002946:	e9d7 2300 	ldrd	r2, r3, [r7]
1000294a:	4290      	cmp	r0, r2
1000294c:	eb71 0303 	sbcs.w	r3, r1, r3
10002950:	da15      	bge.n	1000297e <printf_display+0x366>
10002952:	68fb      	ldr	r3, [r7, #12]
10002954:	689b      	ldr	r3, [r3, #8]
10002956:	1e5a      	subs	r2, r3, #1
10002958:	68fb      	ldr	r3, [r7, #12]
1000295a:	609a      	str	r2, [r3, #8]
1000295c:	68fb      	ldr	r3, [r7, #12]
1000295e:	689b      	ldr	r3, [r3, #8]
10002960:	2b00      	cmp	r3, #0
10002962:	db08      	blt.n	10002976 <printf_display+0x35e>
10002964:	68fb      	ldr	r3, [r7, #12]
10002966:	681b      	ldr	r3, [r3, #0]
10002968:	1c59      	adds	r1, r3, #1
1000296a:	68fa      	ldr	r2, [r7, #12]
1000296c:	6011      	str	r1, [r2, #0]
1000296e:	6c3a      	ldr	r2, [r7, #64]	; 0x40
10002970:	b2d2      	uxtb	r2, r2
10002972:	701a      	strb	r2, [r3, #0]
10002974:	e003      	b.n	1000297e <printf_display+0x366>
10002976:	6c38      	ldr	r0, [r7, #64]	; 0x40
10002978:	68f9      	ldr	r1, [r7, #12]
1000297a:	f001 f92d 	bl	10003bd8 <__flsbuf>
1000297e:	f8d7 3094 	ldr.w	r3, [r7, #148]	; 0x94
10002982:	1c5a      	adds	r2, r3, #1
10002984:	f8c7 2094 	str.w	r2, [r7, #148]	; 0x94
10002988:	781b      	ldrb	r3, [r3, #0]
1000298a:	643b      	str	r3, [r7, #64]	; 0x40
1000298c:	6c3b      	ldr	r3, [r7, #64]	; 0x40
1000298e:	2b00      	cmp	r3, #0
10002990:	d1d3      	bne.n	1000293a <printf_display+0x322>
10002992:	6fbb      	ldr	r3, [r7, #120]	; 0x78
10002994:	f003 0301 	and.w	r3, r3, #1
10002998:	2b00      	cmp	r3, #0
1000299a:	d137      	bne.n	10002a0c <printf_display+0x3f4>
1000299c:	6fbb      	ldr	r3, [r7, #120]	; 0x78
1000299e:	f403 7300 	and.w	r3, r3, #512	; 0x200
100029a2:	2b00      	cmp	r3, #0
100029a4:	d001      	beq.n	100029aa <printf_display+0x392>
100029a6:	2330      	movs	r3, #48	; 0x30
100029a8:	e000      	b.n	100029ac <printf_display+0x394>
100029aa:	2320      	movs	r3, #32
100029ac:	f887 303f 	strb.w	r3, [r7, #63]	; 0x3f
100029b0:	e023      	b.n	100029fa <printf_display+0x3e2>
100029b2:	6dfb      	ldr	r3, [r7, #92]	; 0x5c
100029b4:	1c5a      	adds	r2, r3, #1
100029b6:	65fa      	str	r2, [r7, #92]	; 0x5c
100029b8:	4618      	mov	r0, r3
100029ba:	ea4f 71e0 	mov.w	r1, r0, asr #31
100029be:	e9d7 2300 	ldrd	r2, r3, [r7]
100029c2:	4290      	cmp	r0, r2
100029c4:	eb71 0303 	sbcs.w	r3, r1, r3
100029c8:	da17      	bge.n	100029fa <printf_display+0x3e2>
100029ca:	68fb      	ldr	r3, [r7, #12]
100029cc:	689b      	ldr	r3, [r3, #8]
100029ce:	1e5a      	subs	r2, r3, #1
100029d0:	68fb      	ldr	r3, [r7, #12]
100029d2:	609a      	str	r2, [r3, #8]
100029d4:	68fb      	ldr	r3, [r7, #12]
100029d6:	689b      	ldr	r3, [r3, #8]
100029d8:	2b00      	cmp	r3, #0
100029da:	db08      	blt.n	100029ee <printf_display+0x3d6>
100029dc:	68fb      	ldr	r3, [r7, #12]
100029de:	681b      	ldr	r3, [r3, #0]
100029e0:	1c59      	adds	r1, r3, #1
100029e2:	68fa      	ldr	r2, [r7, #12]
100029e4:	6011      	str	r1, [r2, #0]
100029e6:	f897 203f 	ldrb.w	r2, [r7, #63]	; 0x3f
100029ea:	701a      	strb	r2, [r3, #0]
100029ec:	e005      	b.n	100029fa <printf_display+0x3e2>
100029ee:	f897 303f 	ldrb.w	r3, [r7, #63]	; 0x3f
100029f2:	4618      	mov	r0, r3
100029f4:	68f9      	ldr	r1, [r7, #12]
100029f6:	f001 f8ef 	bl	10003bd8 <__flsbuf>
100029fa:	f8d7 3084 	ldr.w	r3, [r7, #132]	; 0x84
100029fe:	3b01      	subs	r3, #1
10002a00:	f8c7 3084 	str.w	r3, [r7, #132]	; 0x84
10002a04:	f8d7 3084 	ldr.w	r3, [r7, #132]	; 0x84
10002a08:	2b00      	cmp	r3, #0
10002a0a:	dad2      	bge.n	100029b2 <printf_display+0x39a>
10002a0c:	6fbb      	ldr	r3, [r7, #120]	; 0x78
10002a0e:	f403 6380 	and.w	r3, r3, #1024	; 0x400
10002a12:	2b00      	cmp	r3, #0
10002a14:	f000 808c 	beq.w	10002b30 <printf_display+0x518>
10002a18:	2300      	movs	r3, #0
10002a1a:	653b      	str	r3, [r7, #80]	; 0x50
10002a1c:	e082      	b.n	10002b24 <printf_display+0x50c>
10002a1e:	f107 0210 	add.w	r2, r7, #16
10002a22:	6d3b      	ldr	r3, [r7, #80]	; 0x50
10002a24:	4413      	add	r3, r2
10002a26:	781b      	ldrb	r3, [r3, #0]
10002a28:	63bb      	str	r3, [r7, #56]	; 0x38
10002a2a:	6bbb      	ldr	r3, [r7, #56]	; 0x38
10002a2c:	2b3c      	cmp	r3, #60	; 0x3c
10002a2e:	d023      	beq.n	10002a78 <printf_display+0x460>
10002a30:	2b3e      	cmp	r3, #62	; 0x3e
10002a32:	d049      	beq.n	10002ac8 <printf_display+0x4b0>
10002a34:	e04f      	b.n	10002ad6 <printf_display+0x4be>
10002a36:	6dfb      	ldr	r3, [r7, #92]	; 0x5c
10002a38:	1c5a      	adds	r2, r3, #1
10002a3a:	65fa      	str	r2, [r7, #92]	; 0x5c
10002a3c:	4618      	mov	r0, r3
10002a3e:	ea4f 71e0 	mov.w	r1, r0, asr #31
10002a42:	e9d7 2300 	ldrd	r2, r3, [r7]
10002a46:	4290      	cmp	r0, r2
10002a48:	eb71 0303 	sbcs.w	r3, r1, r3
10002a4c:	da14      	bge.n	10002a78 <printf_display+0x460>
10002a4e:	68fb      	ldr	r3, [r7, #12]
10002a50:	689b      	ldr	r3, [r3, #8]
10002a52:	1e5a      	subs	r2, r3, #1
10002a54:	68fb      	ldr	r3, [r7, #12]
10002a56:	609a      	str	r2, [r3, #8]
10002a58:	68fb      	ldr	r3, [r7, #12]
10002a5a:	689b      	ldr	r3, [r3, #8]
10002a5c:	2b00      	cmp	r3, #0
10002a5e:	db07      	blt.n	10002a70 <printf_display+0x458>
10002a60:	68fb      	ldr	r3, [r7, #12]
10002a62:	681b      	ldr	r3, [r3, #0]
10002a64:	1c59      	adds	r1, r3, #1
10002a66:	68fa      	ldr	r2, [r7, #12]
10002a68:	6011      	str	r1, [r2, #0]
10002a6a:	2230      	movs	r2, #48	; 0x30
10002a6c:	701a      	strb	r2, [r3, #0]
10002a6e:	e003      	b.n	10002a78 <printf_display+0x460>
10002a70:	2030      	movs	r0, #48	; 0x30
10002a72:	68f9      	ldr	r1, [r7, #12]
10002a74:	f001 f8b0 	bl	10003bd8 <__flsbuf>
10002a78:	6b7b      	ldr	r3, [r7, #52]	; 0x34
10002a7a:	3b01      	subs	r3, #1
10002a7c:	637b      	str	r3, [r7, #52]	; 0x34
10002a7e:	6b7b      	ldr	r3, [r7, #52]	; 0x34
10002a80:	2b00      	cmp	r3, #0
10002a82:	dad8      	bge.n	10002a36 <printf_display+0x41e>
10002a84:	e04b      	b.n	10002b1e <printf_display+0x506>
10002a86:	6dfb      	ldr	r3, [r7, #92]	; 0x5c
10002a88:	1c5a      	adds	r2, r3, #1
10002a8a:	65fa      	str	r2, [r7, #92]	; 0x5c
10002a8c:	4618      	mov	r0, r3
10002a8e:	ea4f 71e0 	mov.w	r1, r0, asr #31
10002a92:	e9d7 2300 	ldrd	r2, r3, [r7]
10002a96:	4290      	cmp	r0, r2
10002a98:	eb71 0303 	sbcs.w	r3, r1, r3
10002a9c:	da14      	bge.n	10002ac8 <printf_display+0x4b0>
10002a9e:	68fb      	ldr	r3, [r7, #12]
10002aa0:	689b      	ldr	r3, [r3, #8]
10002aa2:	1e5a      	subs	r2, r3, #1
10002aa4:	68fb      	ldr	r3, [r7, #12]
10002aa6:	609a      	str	r2, [r3, #8]
10002aa8:	68fb      	ldr	r3, [r7, #12]
10002aaa:	689b      	ldr	r3, [r3, #8]
10002aac:	2b00      	cmp	r3, #0
10002aae:	db07      	blt.n	10002ac0 <printf_display+0x4a8>
10002ab0:	68fb      	ldr	r3, [r7, #12]
10002ab2:	681b      	ldr	r3, [r3, #0]
10002ab4:	1c59      	adds	r1, r3, #1
10002ab6:	68fa      	ldr	r2, [r7, #12]
10002ab8:	6011      	str	r1, [r2, #0]
10002aba:	2230      	movs	r2, #48	; 0x30
10002abc:	701a      	strb	r2, [r3, #0]
10002abe:	e003      	b.n	10002ac8 <printf_display+0x4b0>
10002ac0:	2030      	movs	r0, #48	; 0x30
10002ac2:	68f9      	ldr	r1, [r7, #12]
10002ac4:	f001 f888 	bl	10003bd8 <__flsbuf>
10002ac8:	6b3b      	ldr	r3, [r7, #48]	; 0x30
10002aca:	3b01      	subs	r3, #1
10002acc:	633b      	str	r3, [r7, #48]	; 0x30
10002ace:	6b3b      	ldr	r3, [r7, #48]	; 0x30
10002ad0:	2b00      	cmp	r3, #0
10002ad2:	dad8      	bge.n	10002a86 <printf_display+0x46e>
10002ad4:	e023      	b.n	10002b1e <printf_display+0x506>
10002ad6:	6dfb      	ldr	r3, [r7, #92]	; 0x5c
10002ad8:	1c5a      	adds	r2, r3, #1
10002ada:	65fa      	str	r2, [r7, #92]	; 0x5c
10002adc:	4618      	mov	r0, r3
10002ade:	ea4f 71e0 	mov.w	r1, r0, asr #31
10002ae2:	e9d7 2300 	ldrd	r2, r3, [r7]
10002ae6:	4290      	cmp	r0, r2
10002ae8:	eb71 0303 	sbcs.w	r3, r1, r3
10002aec:	da16      	bge.n	10002b1c <printf_display+0x504>
10002aee:	68fb      	ldr	r3, [r7, #12]
10002af0:	689b      	ldr	r3, [r3, #8]
10002af2:	1e5a      	subs	r2, r3, #1
10002af4:	68fb      	ldr	r3, [r7, #12]
10002af6:	609a      	str	r2, [r3, #8]
10002af8:	68fb      	ldr	r3, [r7, #12]
10002afa:	689b      	ldr	r3, [r3, #8]
10002afc:	2b00      	cmp	r3, #0
10002afe:	db08      	blt.n	10002b12 <printf_display+0x4fa>
10002b00:	68fb      	ldr	r3, [r7, #12]
10002b02:	681b      	ldr	r3, [r3, #0]
10002b04:	1c59      	adds	r1, r3, #1
10002b06:	68fa      	ldr	r2, [r7, #12]
10002b08:	6011      	str	r1, [r2, #0]
10002b0a:	6bba      	ldr	r2, [r7, #56]	; 0x38
10002b0c:	b2d2      	uxtb	r2, r2
10002b0e:	701a      	strb	r2, [r3, #0]
10002b10:	e004      	b.n	10002b1c <printf_display+0x504>
10002b12:	6bb8      	ldr	r0, [r7, #56]	; 0x38
10002b14:	68f9      	ldr	r1, [r7, #12]
10002b16:	f001 f85f 	bl	10003bd8 <__flsbuf>
10002b1a:	e7ff      	b.n	10002b1c <printf_display+0x504>
10002b1c:	bf00      	nop
10002b1e:	6d3b      	ldr	r3, [r7, #80]	; 0x50
10002b20:	3301      	adds	r3, #1
10002b22:	653b      	str	r3, [r7, #80]	; 0x50
10002b24:	6d3a      	ldr	r2, [r7, #80]	; 0x50
10002b26:	6dbb      	ldr	r3, [r7, #88]	; 0x58
10002b28:	429a      	cmp	r2, r3
10002b2a:	f6ff af78 	blt.w	10002a1e <printf_display+0x406>
10002b2e:	e05a      	b.n	10002be6 <printf_display+0x5ce>
10002b30:	e020      	b.n	10002b74 <printf_display+0x55c>
10002b32:	6dfb      	ldr	r3, [r7, #92]	; 0x5c
10002b34:	1c5a      	adds	r2, r3, #1
10002b36:	65fa      	str	r2, [r7, #92]	; 0x5c
10002b38:	4618      	mov	r0, r3
10002b3a:	ea4f 71e0 	mov.w	r1, r0, asr #31
10002b3e:	e9d7 2300 	ldrd	r2, r3, [r7]
10002b42:	4290      	cmp	r0, r2
10002b44:	eb71 0303 	sbcs.w	r3, r1, r3
10002b48:	da14      	bge.n	10002b74 <printf_display+0x55c>
10002b4a:	68fb      	ldr	r3, [r7, #12]
10002b4c:	689b      	ldr	r3, [r3, #8]
10002b4e:	1e5a      	subs	r2, r3, #1
10002b50:	68fb      	ldr	r3, [r7, #12]
10002b52:	609a      	str	r2, [r3, #8]
10002b54:	68fb      	ldr	r3, [r7, #12]
10002b56:	689b      	ldr	r3, [r3, #8]
10002b58:	2b00      	cmp	r3, #0
10002b5a:	db07      	blt.n	10002b6c <printf_display+0x554>
10002b5c:	68fb      	ldr	r3, [r7, #12]
10002b5e:	681b      	ldr	r3, [r3, #0]
10002b60:	1c59      	adds	r1, r3, #1
10002b62:	68fa      	ldr	r2, [r7, #12]
10002b64:	6011      	str	r1, [r2, #0]
10002b66:	2230      	movs	r2, #48	; 0x30
10002b68:	701a      	strb	r2, [r3, #0]
10002b6a:	e003      	b.n	10002b74 <printf_display+0x55c>
10002b6c:	2030      	movs	r0, #48	; 0x30
10002b6e:	68f9      	ldr	r1, [r7, #12]
10002b70:	f001 f832 	bl	10003bd8 <__flsbuf>
10002b74:	f8d7 3080 	ldr.w	r3, [r7, #128]	; 0x80
10002b78:	3b01      	subs	r3, #1
10002b7a:	f8c7 3080 	str.w	r3, [r7, #128]	; 0x80
10002b7e:	f8d7 3080 	ldr.w	r3, [r7, #128]	; 0x80
10002b82:	2b00      	cmp	r3, #0
10002b84:	dad5      	bge.n	10002b32 <printf_display+0x51a>
10002b86:	e029      	b.n	10002bdc <printf_display+0x5c4>
10002b88:	6dfb      	ldr	r3, [r7, #92]	; 0x5c
10002b8a:	1c5a      	adds	r2, r3, #1
10002b8c:	65fa      	str	r2, [r7, #92]	; 0x5c
10002b8e:	4618      	mov	r0, r3
10002b90:	ea4f 71e0 	mov.w	r1, r0, asr #31
10002b94:	e9d7 2300 	ldrd	r2, r3, [r7]
10002b98:	4290      	cmp	r0, r2
10002b9a:	eb71 0303 	sbcs.w	r3, r1, r3
10002b9e:	da1d      	bge.n	10002bdc <printf_display+0x5c4>
10002ba0:	68fb      	ldr	r3, [r7, #12]
10002ba2:	689b      	ldr	r3, [r3, #8]
10002ba4:	1e5a      	subs	r2, r3, #1
10002ba6:	68fb      	ldr	r3, [r7, #12]
10002ba8:	609a      	str	r2, [r3, #8]
10002baa:	68fb      	ldr	r3, [r7, #12]
10002bac:	689b      	ldr	r3, [r3, #8]
10002bae:	2b00      	cmp	r3, #0
10002bb0:	db0b      	blt.n	10002bca <printf_display+0x5b2>
10002bb2:	68fb      	ldr	r3, [r7, #12]
10002bb4:	681b      	ldr	r3, [r3, #0]
10002bb6:	1c59      	adds	r1, r3, #1
10002bb8:	68fa      	ldr	r2, [r7, #12]
10002bba:	6011      	str	r1, [r2, #0]
10002bbc:	f107 0110 	add.w	r1, r7, #16
10002bc0:	6dba      	ldr	r2, [r7, #88]	; 0x58
10002bc2:	440a      	add	r2, r1
10002bc4:	7812      	ldrb	r2, [r2, #0]
10002bc6:	701a      	strb	r2, [r3, #0]
10002bc8:	e008      	b.n	10002bdc <printf_display+0x5c4>
10002bca:	f107 0210 	add.w	r2, r7, #16
10002bce:	6dbb      	ldr	r3, [r7, #88]	; 0x58
10002bd0:	4413      	add	r3, r2
10002bd2:	781b      	ldrb	r3, [r3, #0]
10002bd4:	4618      	mov	r0, r3
10002bd6:	68f9      	ldr	r1, [r7, #12]
10002bd8:	f000 fffe 	bl	10003bd8 <__flsbuf>
10002bdc:	6dbb      	ldr	r3, [r7, #88]	; 0x58
10002bde:	1e5a      	subs	r2, r3, #1
10002be0:	65ba      	str	r2, [r7, #88]	; 0x58
10002be2:	2b00      	cmp	r3, #0
10002be4:	dcd0      	bgt.n	10002b88 <printf_display+0x570>
10002be6:	6fbb      	ldr	r3, [r7, #120]	; 0x78
10002be8:	f003 0301 	and.w	r3, r3, #1
10002bec:	2b00      	cmp	r3, #0
10002bee:	d02a      	beq.n	10002c46 <printf_display+0x62e>
10002bf0:	e020      	b.n	10002c34 <printf_display+0x61c>
10002bf2:	6dfb      	ldr	r3, [r7, #92]	; 0x5c
10002bf4:	1c5a      	adds	r2, r3, #1
10002bf6:	65fa      	str	r2, [r7, #92]	; 0x5c
10002bf8:	4618      	mov	r0, r3
10002bfa:	ea4f 71e0 	mov.w	r1, r0, asr #31
10002bfe:	e9d7 2300 	ldrd	r2, r3, [r7]
10002c02:	4290      	cmp	r0, r2
10002c04:	eb71 0303 	sbcs.w	r3, r1, r3
10002c08:	da14      	bge.n	10002c34 <printf_display+0x61c>
10002c0a:	68fb      	ldr	r3, [r7, #12]
10002c0c:	689b      	ldr	r3, [r3, #8]
10002c0e:	1e5a      	subs	r2, r3, #1
10002c10:	68fb      	ldr	r3, [r7, #12]
10002c12:	609a      	str	r2, [r3, #8]
10002c14:	68fb      	ldr	r3, [r7, #12]
10002c16:	689b      	ldr	r3, [r3, #8]
10002c18:	2b00      	cmp	r3, #0
10002c1a:	db07      	blt.n	10002c2c <printf_display+0x614>
10002c1c:	68fb      	ldr	r3, [r7, #12]
10002c1e:	681b      	ldr	r3, [r3, #0]
10002c20:	1c59      	adds	r1, r3, #1
10002c22:	68fa      	ldr	r2, [r7, #12]
10002c24:	6011      	str	r1, [r2, #0]
10002c26:	2220      	movs	r2, #32
10002c28:	701a      	strb	r2, [r3, #0]
10002c2a:	e003      	b.n	10002c34 <printf_display+0x61c>
10002c2c:	2020      	movs	r0, #32
10002c2e:	68f9      	ldr	r1, [r7, #12]
10002c30:	f000 ffd2 	bl	10003bd8 <__flsbuf>
10002c34:	f8d7 3084 	ldr.w	r3, [r7, #132]	; 0x84
10002c38:	3b01      	subs	r3, #1
10002c3a:	f8c7 3084 	str.w	r3, [r7, #132]	; 0x84
10002c3e:	f8d7 3084 	ldr.w	r3, [r7, #132]	; 0x84
10002c42:	2b00      	cmp	r3, #0
10002c44:	dad5      	bge.n	10002bf2 <printf_display+0x5da>
10002c46:	6dfb      	ldr	r3, [r7, #92]	; 0x5c
10002c48:	4618      	mov	r0, r3
10002c4a:	3760      	adds	r7, #96	; 0x60
10002c4c:	46bd      	mov	sp, r7
10002c4e:	e8bd 83b0 	ldmia.w	sp!, {r4, r5, r7, r8, r9, pc}
10002c52:	bf00      	nop

10002c54 <pr_isdigit>:
10002c54:	b480      	push	{r7}
10002c56:	b083      	sub	sp, #12
10002c58:	af00      	add	r7, sp, #0
10002c5a:	4603      	mov	r3, r0
10002c5c:	71fb      	strb	r3, [r7, #7]
10002c5e:	79fb      	ldrb	r3, [r7, #7]
10002c60:	2b2f      	cmp	r3, #47	; 0x2f
10002c62:	d904      	bls.n	10002c6e <pr_isdigit+0x1a>
10002c64:	79fb      	ldrb	r3, [r7, #7]
10002c66:	2b39      	cmp	r3, #57	; 0x39
10002c68:	d801      	bhi.n	10002c6e <pr_isdigit+0x1a>
10002c6a:	2301      	movs	r3, #1
10002c6c:	e000      	b.n	10002c70 <pr_isdigit+0x1c>
10002c6e:	2300      	movs	r3, #0
10002c70:	4618      	mov	r0, r3
10002c72:	370c      	adds	r7, #12
10002c74:	46bd      	mov	sp, r7
10002c76:	f85d 7b04 	ldr.w	r7, [sp], #4
10002c7a:	4770      	bx	lr

10002c7c <__vfprintf>:
10002c7c:	b5b0      	push	{r4, r5, r7, lr}
10002c7e:	b0ac      	sub	sp, #176	; 0xb0
10002c80:	af0a      	add	r7, sp, #40	; 0x28
10002c82:	60f8      	str	r0, [r7, #12]
10002c84:	e9c7 2300 	strd	r2, r3, [r7]
10002c88:	2300      	movs	r3, #0
10002c8a:	f8c7 3080 	str.w	r3, [r7, #128]	; 0x80
10002c8e:	f000 be72 	b.w	10003976 <__vfprintf+0xcfa>
10002c92:	f8d7 3084 	ldr.w	r3, [r7, #132]	; 0x84
10002c96:	2b25      	cmp	r3, #37	; 0x25
10002c98:	d029      	beq.n	10002cee <__vfprintf+0x72>
10002c9a:	f8d7 3080 	ldr.w	r3, [r7, #128]	; 0x80
10002c9e:	1c5a      	adds	r2, r3, #1
10002ca0:	f8c7 2080 	str.w	r2, [r7, #128]	; 0x80
10002ca4:	4618      	mov	r0, r3
10002ca6:	ea4f 71e0 	mov.w	r1, r0, asr #31
10002caa:	e9d7 2300 	ldrd	r2, r3, [r7]
10002cae:	4290      	cmp	r0, r2
10002cb0:	eb71 0303 	sbcs.w	r3, r1, r3
10002cb4:	f280 865f 	bge.w	10003976 <__vfprintf+0xcfa>
10002cb8:	68fb      	ldr	r3, [r7, #12]
10002cba:	689b      	ldr	r3, [r3, #8]
10002cbc:	1e5a      	subs	r2, r3, #1
10002cbe:	68fb      	ldr	r3, [r7, #12]
10002cc0:	609a      	str	r2, [r3, #8]
10002cc2:	68fb      	ldr	r3, [r7, #12]
10002cc4:	689b      	ldr	r3, [r3, #8]
10002cc6:	2b00      	cmp	r3, #0
10002cc8:	db0a      	blt.n	10002ce0 <__vfprintf+0x64>
10002cca:	68fb      	ldr	r3, [r7, #12]
10002ccc:	681b      	ldr	r3, [r3, #0]
10002cce:	1c59      	adds	r1, r3, #1
10002cd0:	68fa      	ldr	r2, [r7, #12]
10002cd2:	6011      	str	r1, [r2, #0]
10002cd4:	f8d7 2084 	ldr.w	r2, [r7, #132]	; 0x84
10002cd8:	b2d2      	uxtb	r2, r2
10002cda:	701a      	strb	r2, [r3, #0]
10002cdc:	f000 be4b 	b.w	10003976 <__vfprintf+0xcfa>
10002ce0:	f8d7 0084 	ldr.w	r0, [r7, #132]	; 0x84
10002ce4:	68f9      	ldr	r1, [r7, #12]
10002ce6:	f000 ff77 	bl	10003bd8 <__flsbuf>
10002cea:	f000 be44 	b.w	10003976 <__vfprintf+0xcfa>
10002cee:	2300      	movs	r3, #0
10002cf0:	67fb      	str	r3, [r7, #124]	; 0x7c
10002cf2:	2300      	movs	r3, #0
10002cf4:	67bb      	str	r3, [r7, #120]	; 0x78
10002cf6:	2300      	movs	r3, #0
10002cf8:	677b      	str	r3, [r7, #116]	; 0x74
10002cfa:	2300      	movs	r3, #0
10002cfc:	66fb      	str	r3, [r7, #108]	; 0x6c
10002cfe:	f8d7 3098 	ldr.w	r3, [r7, #152]	; 0x98
10002d02:	1c5a      	adds	r2, r3, #1
10002d04:	f8c7 2098 	str.w	r2, [r7, #152]	; 0x98
10002d08:	781b      	ldrb	r3, [r3, #0]
10002d0a:	f8c7 3084 	str.w	r3, [r7, #132]	; 0x84
10002d0e:	f8d7 3084 	ldr.w	r3, [r7, #132]	; 0x84
10002d12:	3b20      	subs	r3, #32
10002d14:	2b10      	cmp	r3, #16
10002d16:	d83e      	bhi.n	10002d96 <__vfprintf+0x11a>
10002d18:	a201      	add	r2, pc, #4	; (adr r2, 10002d20 <__vfprintf+0xa4>)
10002d1a:	f852 f023 	ldr.w	pc, [r2, r3, lsl #2]
10002d1e:	bf00      	nop
10002d20:	10002d79 	.word	0x10002d79
10002d24:	10002d97 	.word	0x10002d97
10002d28:	10002d97 	.word	0x10002d97
10002d2c:	10002d83 	.word	0x10002d83
10002d30:	10002d97 	.word	0x10002d97
10002d34:	10002d97 	.word	0x10002d97
10002d38:	10002d97 	.word	0x10002d97
10002d3c:	10002d97 	.word	0x10002d97
10002d40:	10002d97 	.word	0x10002d97
10002d44:	10002d97 	.word	0x10002d97
10002d48:	10002d97 	.word	0x10002d97
10002d4c:	10002d6f 	.word	0x10002d6f
10002d50:	10002d97 	.word	0x10002d97
10002d54:	10002d65 	.word	0x10002d65
10002d58:	10002d97 	.word	0x10002d97
10002d5c:	10002d97 	.word	0x10002d97
10002d60:	10002d8d 	.word	0x10002d8d
10002d64:	6ffb      	ldr	r3, [r7, #124]	; 0x7c
10002d66:	f043 0301 	orr.w	r3, r3, #1
10002d6a:	67fb      	str	r3, [r7, #124]	; 0x7c
10002d6c:	e01c      	b.n	10002da8 <__vfprintf+0x12c>
10002d6e:	6ffb      	ldr	r3, [r7, #124]	; 0x7c
10002d70:	f043 0302 	orr.w	r3, r3, #2
10002d74:	67fb      	str	r3, [r7, #124]	; 0x7c
10002d76:	e017      	b.n	10002da8 <__vfprintf+0x12c>
10002d78:	6ffb      	ldr	r3, [r7, #124]	; 0x7c
10002d7a:	f043 0304 	orr.w	r3, r3, #4
10002d7e:	67fb      	str	r3, [r7, #124]	; 0x7c
10002d80:	e012      	b.n	10002da8 <__vfprintf+0x12c>
10002d82:	6ffb      	ldr	r3, [r7, #124]	; 0x7c
10002d84:	f043 0308 	orr.w	r3, r3, #8
10002d88:	67fb      	str	r3, [r7, #124]	; 0x7c
10002d8a:	e00d      	b.n	10002da8 <__vfprintf+0x12c>
10002d8c:	6ffb      	ldr	r3, [r7, #124]	; 0x7c
10002d8e:	f443 7300 	orr.w	r3, r3, #512	; 0x200
10002d92:	67fb      	str	r3, [r7, #124]	; 0x7c
10002d94:	e008      	b.n	10002da8 <__vfprintf+0x12c>
10002d96:	bf00      	nop
10002d98:	bf00      	nop
10002d9a:	2300      	movs	r3, #0
10002d9c:	65fb      	str	r3, [r7, #92]	; 0x5c
10002d9e:	f8d7 3084 	ldr.w	r3, [r7, #132]	; 0x84
10002da2:	2b2a      	cmp	r3, #42	; 0x2a
10002da4:	d11b      	bne.n	10002dde <__vfprintf+0x162>
10002da6:	e000      	b.n	10002daa <__vfprintf+0x12e>
10002da8:	e7a9      	b.n	10002cfe <__vfprintf+0x82>
10002daa:	f8d7 309c 	ldr.w	r3, [r7, #156]	; 0x9c
10002dae:	1d1a      	adds	r2, r3, #4
10002db0:	f8c7 209c 	str.w	r2, [r7, #156]	; 0x9c
10002db4:	681b      	ldr	r3, [r3, #0]
10002db6:	65fb      	str	r3, [r7, #92]	; 0x5c
10002db8:	6dfb      	ldr	r3, [r7, #92]	; 0x5c
10002dba:	2b00      	cmp	r3, #0
10002dbc:	da06      	bge.n	10002dcc <__vfprintf+0x150>
10002dbe:	6dfb      	ldr	r3, [r7, #92]	; 0x5c
10002dc0:	425b      	negs	r3, r3
10002dc2:	65fb      	str	r3, [r7, #92]	; 0x5c
10002dc4:	6ffb      	ldr	r3, [r7, #124]	; 0x7c
10002dc6:	f083 0301 	eor.w	r3, r3, #1
10002dca:	67fb      	str	r3, [r7, #124]	; 0x7c
10002dcc:	f8d7 3098 	ldr.w	r3, [r7, #152]	; 0x98
10002dd0:	1c5a      	adds	r2, r3, #1
10002dd2:	f8c7 2098 	str.w	r2, [r7, #152]	; 0x98
10002dd6:	781b      	ldrb	r3, [r3, #0]
10002dd8:	f8c7 3084 	str.w	r3, [r7, #132]	; 0x84
10002ddc:	e01c      	b.n	10002e18 <__vfprintf+0x19c>
10002dde:	e012      	b.n	10002e06 <__vfprintf+0x18a>
10002de0:	6dfa      	ldr	r2, [r7, #92]	; 0x5c
10002de2:	4613      	mov	r3, r2
10002de4:	009b      	lsls	r3, r3, #2
10002de6:	4413      	add	r3, r2
10002de8:	005b      	lsls	r3, r3, #1
10002dea:	461a      	mov	r2, r3
10002dec:	f8d7 3084 	ldr.w	r3, [r7, #132]	; 0x84
10002df0:	3b30      	subs	r3, #48	; 0x30
10002df2:	4413      	add	r3, r2
10002df4:	65fb      	str	r3, [r7, #92]	; 0x5c
10002df6:	f8d7 3098 	ldr.w	r3, [r7, #152]	; 0x98
10002dfa:	1c5a      	adds	r2, r3, #1
10002dfc:	f8c7 2098 	str.w	r2, [r7, #152]	; 0x98
10002e00:	781b      	ldrb	r3, [r3, #0]
10002e02:	f8c7 3084 	str.w	r3, [r7, #132]	; 0x84
10002e06:	f8d7 3084 	ldr.w	r3, [r7, #132]	; 0x84
10002e0a:	b2db      	uxtb	r3, r3
10002e0c:	4618      	mov	r0, r3
10002e0e:	f7ff ff21 	bl	10002c54 <pr_isdigit>
10002e12:	4603      	mov	r3, r0
10002e14:	2b00      	cmp	r3, #0
10002e16:	d1e3      	bne.n	10002de0 <__vfprintf+0x164>
10002e18:	6dfb      	ldr	r3, [r7, #92]	; 0x5c
10002e1a:	ea23 73e3 	bic.w	r3, r3, r3, asr #31
10002e1e:	67bb      	str	r3, [r7, #120]	; 0x78
10002e20:	f8d7 3084 	ldr.w	r3, [r7, #132]	; 0x84
10002e24:	2b2e      	cmp	r3, #46	; 0x2e
10002e26:	d143      	bne.n	10002eb0 <__vfprintf+0x234>
10002e28:	2300      	movs	r3, #0
10002e2a:	65bb      	str	r3, [r7, #88]	; 0x58
10002e2c:	f8d7 3098 	ldr.w	r3, [r7, #152]	; 0x98
10002e30:	1c5a      	adds	r2, r3, #1
10002e32:	f8c7 2098 	str.w	r2, [r7, #152]	; 0x98
10002e36:	781b      	ldrb	r3, [r3, #0]
10002e38:	f8c7 3084 	str.w	r3, [r7, #132]	; 0x84
10002e3c:	f8d7 3084 	ldr.w	r3, [r7, #132]	; 0x84
10002e40:	2b2a      	cmp	r3, #42	; 0x2a
10002e42:	d10f      	bne.n	10002e64 <__vfprintf+0x1e8>
10002e44:	f8d7 309c 	ldr.w	r3, [r7, #156]	; 0x9c
10002e48:	1d1a      	adds	r2, r3, #4
10002e4a:	f8c7 209c 	str.w	r2, [r7, #156]	; 0x9c
10002e4e:	681b      	ldr	r3, [r3, #0]
10002e50:	65bb      	str	r3, [r7, #88]	; 0x58
10002e52:	f8d7 3098 	ldr.w	r3, [r7, #152]	; 0x98
10002e56:	1c5a      	adds	r2, r3, #1
10002e58:	f8c7 2098 	str.w	r2, [r7, #152]	; 0x98
10002e5c:	781b      	ldrb	r3, [r3, #0]
10002e5e:	f8c7 3084 	str.w	r3, [r7, #132]	; 0x84
10002e62:	e01c      	b.n	10002e9e <__vfprintf+0x222>
10002e64:	e012      	b.n	10002e8c <__vfprintf+0x210>
10002e66:	6dba      	ldr	r2, [r7, #88]	; 0x58
10002e68:	4613      	mov	r3, r2
10002e6a:	009b      	lsls	r3, r3, #2
10002e6c:	4413      	add	r3, r2
10002e6e:	005b      	lsls	r3, r3, #1
10002e70:	461a      	mov	r2, r3
10002e72:	f8d7 3084 	ldr.w	r3, [r7, #132]	; 0x84
10002e76:	3b30      	subs	r3, #48	; 0x30
10002e78:	4413      	add	r3, r2
10002e7a:	65bb      	str	r3, [r7, #88]	; 0x58
10002e7c:	f8d7 3098 	ldr.w	r3, [r7, #152]	; 0x98
10002e80:	1c5a      	adds	r2, r3, #1
10002e82:	f8c7 2098 	str.w	r2, [r7, #152]	; 0x98
10002e86:	781b      	ldrb	r3, [r3, #0]
10002e88:	f8c7 3084 	str.w	r3, [r7, #132]	; 0x84
10002e8c:	f8d7 3084 	ldr.w	r3, [r7, #132]	; 0x84
10002e90:	b2db      	uxtb	r3, r3
10002e92:	4618      	mov	r0, r3
10002e94:	f7ff fede 	bl	10002c54 <pr_isdigit>
10002e98:	4603      	mov	r3, r0
10002e9a:	2b00      	cmp	r3, #0
10002e9c:	d1e3      	bne.n	10002e66 <__vfprintf+0x1ea>
10002e9e:	6dbb      	ldr	r3, [r7, #88]	; 0x58
10002ea0:	2b00      	cmp	r3, #0
10002ea2:	db05      	blt.n	10002eb0 <__vfprintf+0x234>
10002ea4:	6ffb      	ldr	r3, [r7, #124]	; 0x7c
10002ea6:	f043 0310 	orr.w	r3, r3, #16
10002eaa:	67fb      	str	r3, [r7, #124]	; 0x7c
10002eac:	6dbb      	ldr	r3, [r7, #88]	; 0x58
10002eae:	677b      	str	r3, [r7, #116]	; 0x74
10002eb0:	f8d7 3084 	ldr.w	r3, [r7, #132]	; 0x84
10002eb4:	2b6c      	cmp	r3, #108	; 0x6c
10002eb6:	d11c      	bne.n	10002ef2 <__vfprintf+0x276>
10002eb8:	f8d7 3098 	ldr.w	r3, [r7, #152]	; 0x98
10002ebc:	1c5a      	adds	r2, r3, #1
10002ebe:	f8c7 2098 	str.w	r2, [r7, #152]	; 0x98
10002ec2:	781b      	ldrb	r3, [r3, #0]
10002ec4:	f8c7 3084 	str.w	r3, [r7, #132]	; 0x84
10002ec8:	f8d7 3084 	ldr.w	r3, [r7, #132]	; 0x84
10002ecc:	2b6c      	cmp	r3, #108	; 0x6c
10002ece:	d10c      	bne.n	10002eea <__vfprintf+0x26e>
10002ed0:	f8d7 3098 	ldr.w	r3, [r7, #152]	; 0x98
10002ed4:	1c5a      	adds	r2, r3, #1
10002ed6:	f8c7 2098 	str.w	r2, [r7, #152]	; 0x98
10002eda:	781b      	ldrb	r3, [r3, #0]
10002edc:	f8c7 3084 	str.w	r3, [r7, #132]	; 0x84
10002ee0:	6ffb      	ldr	r3, [r7, #124]	; 0x7c
10002ee2:	f043 0360 	orr.w	r3, r3, #96	; 0x60
10002ee6:	67fb      	str	r3, [r7, #124]	; 0x7c
10002ee8:	e003      	b.n	10002ef2 <__vfprintf+0x276>
10002eea:	6ffb      	ldr	r3, [r7, #124]	; 0x7c
10002eec:	f043 0320 	orr.w	r3, r3, #32
10002ef0:	67fb      	str	r3, [r7, #124]	; 0x7c
10002ef2:	f8d7 3084 	ldr.w	r3, [r7, #132]	; 0x84
10002ef6:	2b4c      	cmp	r3, #76	; 0x4c
10002ef8:	d003      	beq.n	10002f02 <__vfprintf+0x286>
10002efa:	f8d7 3084 	ldr.w	r3, [r7, #132]	; 0x84
10002efe:	2b71      	cmp	r3, #113	; 0x71
10002f00:	d10c      	bne.n	10002f1c <__vfprintf+0x2a0>
10002f02:	f8d7 3098 	ldr.w	r3, [r7, #152]	; 0x98
10002f06:	1c5a      	adds	r2, r3, #1
10002f08:	f8c7 2098 	str.w	r2, [r7, #152]	; 0x98
10002f0c:	781b      	ldrb	r3, [r3, #0]
10002f0e:	f8c7 3084 	str.w	r3, [r7, #132]	; 0x84
10002f12:	6ffb      	ldr	r3, [r7, #124]	; 0x7c
10002f14:	f043 0360 	orr.w	r3, r3, #96	; 0x60
10002f18:	67fb      	str	r3, [r7, #124]	; 0x7c
10002f1a:	e04b      	b.n	10002fb4 <__vfprintf+0x338>
10002f1c:	f8d7 3084 	ldr.w	r3, [r7, #132]	; 0x84
10002f20:	2b68      	cmp	r3, #104	; 0x68
10002f22:	d11d      	bne.n	10002f60 <__vfprintf+0x2e4>
10002f24:	f8d7 3098 	ldr.w	r3, [r7, #152]	; 0x98
10002f28:	1c5a      	adds	r2, r3, #1
10002f2a:	f8c7 2098 	str.w	r2, [r7, #152]	; 0x98
10002f2e:	781b      	ldrb	r3, [r3, #0]
10002f30:	f8c7 3084 	str.w	r3, [r7, #132]	; 0x84
10002f34:	f8d7 3084 	ldr.w	r3, [r7, #132]	; 0x84
10002f38:	2b68      	cmp	r3, #104	; 0x68
10002f3a:	d10c      	bne.n	10002f56 <__vfprintf+0x2da>
10002f3c:	6ffb      	ldr	r3, [r7, #124]	; 0x7c
10002f3e:	f443 7380 	orr.w	r3, r3, #256	; 0x100
10002f42:	67fb      	str	r3, [r7, #124]	; 0x7c
10002f44:	f8d7 3098 	ldr.w	r3, [r7, #152]	; 0x98
10002f48:	1c5a      	adds	r2, r3, #1
10002f4a:	f8c7 2098 	str.w	r2, [r7, #152]	; 0x98
10002f4e:	781b      	ldrb	r3, [r3, #0]
10002f50:	f8c7 3084 	str.w	r3, [r7, #132]	; 0x84
10002f54:	e02e      	b.n	10002fb4 <__vfprintf+0x338>
10002f56:	6ffb      	ldr	r3, [r7, #124]	; 0x7c
10002f58:	f043 0380 	orr.w	r3, r3, #128	; 0x80
10002f5c:	67fb      	str	r3, [r7, #124]	; 0x7c
10002f5e:	e029      	b.n	10002fb4 <__vfprintf+0x338>
10002f60:	f8d7 3084 	ldr.w	r3, [r7, #132]	; 0x84
10002f64:	2b6a      	cmp	r3, #106	; 0x6a
10002f66:	d10c      	bne.n	10002f82 <__vfprintf+0x306>
10002f68:	6ffb      	ldr	r3, [r7, #124]	; 0x7c
10002f6a:	f043 0340 	orr.w	r3, r3, #64	; 0x40
10002f6e:	67fb      	str	r3, [r7, #124]	; 0x7c
10002f70:	f8d7 3098 	ldr.w	r3, [r7, #152]	; 0x98
10002f74:	1c5a      	adds	r2, r3, #1
10002f76:	f8c7 2098 	str.w	r2, [r7, #152]	; 0x98
10002f7a:	781b      	ldrb	r3, [r3, #0]
10002f7c:	f8c7 3084 	str.w	r3, [r7, #132]	; 0x84
10002f80:	e018      	b.n	10002fb4 <__vfprintf+0x338>
10002f82:	f8d7 3084 	ldr.w	r3, [r7, #132]	; 0x84
10002f86:	2b7a      	cmp	r3, #122	; 0x7a
10002f88:	d108      	bne.n	10002f9c <__vfprintf+0x320>
10002f8a:	f8d7 3098 	ldr.w	r3, [r7, #152]	; 0x98
10002f8e:	1c5a      	adds	r2, r3, #1
10002f90:	f8c7 2098 	str.w	r2, [r7, #152]	; 0x98
10002f94:	781b      	ldrb	r3, [r3, #0]
10002f96:	f8c7 3084 	str.w	r3, [r7, #132]	; 0x84
10002f9a:	e00b      	b.n	10002fb4 <__vfprintf+0x338>
10002f9c:	f8d7 3084 	ldr.w	r3, [r7, #132]	; 0x84
10002fa0:	2b74      	cmp	r3, #116	; 0x74
10002fa2:	d107      	bne.n	10002fb4 <__vfprintf+0x338>
10002fa4:	f8d7 3098 	ldr.w	r3, [r7, #152]	; 0x98
10002fa8:	1c5a      	adds	r2, r3, #1
10002faa:	f8c7 2098 	str.w	r2, [r7, #152]	; 0x98
10002fae:	781b      	ldrb	r3, [r3, #0]
10002fb0:	f8c7 3084 	str.w	r3, [r7, #132]	; 0x84
10002fb4:	f8d7 3084 	ldr.w	r3, [r7, #132]	; 0x84
10002fb8:	2b78      	cmp	r3, #120	; 0x78
10002fba:	f200 80fd 	bhi.w	100031b8 <__vfprintf+0x53c>
10002fbe:	a201      	add	r2, pc, #4	; (adr r2, 10002fc4 <__vfprintf+0x348>)
10002fc0:	f852 f023 	ldr.w	pc, [r2, r3, lsl #2]
10002fc4:	100032e3 	.word	0x100032e3
10002fc8:	100031b9 	.word	0x100031b9
10002fcc:	100031b9 	.word	0x100031b9
10002fd0:	100031b9 	.word	0x100031b9
10002fd4:	100031b9 	.word	0x100031b9
10002fd8:	100031b9 	.word	0x100031b9
10002fdc:	100031b9 	.word	0x100031b9
10002fe0:	100031b9 	.word	0x100031b9
10002fe4:	100031b9 	.word	0x100031b9
10002fe8:	100031b9 	.word	0x100031b9
10002fec:	100031b9 	.word	0x100031b9
10002ff0:	100031b9 	.word	0x100031b9
10002ff4:	100031b9 	.word	0x100031b9
10002ff8:	100031b9 	.word	0x100031b9
10002ffc:	100031b9 	.word	0x100031b9
10003000:	100031b9 	.word	0x100031b9
10003004:	100031b9 	.word	0x100031b9
10003008:	100031b9 	.word	0x100031b9
1000300c:	100031b9 	.word	0x100031b9
10003010:	100031b9 	.word	0x100031b9
10003014:	100031b9 	.word	0x100031b9
10003018:	100031b9 	.word	0x100031b9
1000301c:	100031b9 	.word	0x100031b9
10003020:	100031b9 	.word	0x100031b9
10003024:	100031b9 	.word	0x100031b9
10003028:	100031b9 	.word	0x100031b9
1000302c:	100031b9 	.word	0x100031b9
10003030:	100031b9 	.word	0x100031b9
10003034:	100031b9 	.word	0x100031b9
10003038:	100031b9 	.word	0x100031b9
1000303c:	100031b9 	.word	0x100031b9
10003040:	100031b9 	.word	0x100031b9
10003044:	100031b9 	.word	0x100031b9
10003048:	100031b9 	.word	0x100031b9
1000304c:	100031b9 	.word	0x100031b9
10003050:	100031b9 	.word	0x100031b9
10003054:	100031b9 	.word	0x100031b9
10003058:	100031b9 	.word	0x100031b9
1000305c:	100031b9 	.word	0x100031b9
10003060:	100031b9 	.word	0x100031b9
10003064:	100031b9 	.word	0x100031b9
10003068:	100031b9 	.word	0x100031b9
1000306c:	100031b9 	.word	0x100031b9
10003070:	100031b9 	.word	0x100031b9
10003074:	100031b9 	.word	0x100031b9
10003078:	100031b9 	.word	0x100031b9
1000307c:	100031b9 	.word	0x100031b9
10003080:	100031b9 	.word	0x100031b9
10003084:	100031b9 	.word	0x100031b9
10003088:	100031b9 	.word	0x100031b9
1000308c:	100031b9 	.word	0x100031b9
10003090:	100031b9 	.word	0x100031b9
10003094:	100031b9 	.word	0x100031b9
10003098:	100031b9 	.word	0x100031b9
1000309c:	100031b9 	.word	0x100031b9
100030a0:	100031b9 	.word	0x100031b9
100030a4:	100031b9 	.word	0x100031b9
100030a8:	100031b9 	.word	0x100031b9
100030ac:	100031b9 	.word	0x100031b9
100030b0:	100031b9 	.word	0x100031b9
100030b4:	100031b9 	.word	0x100031b9
100030b8:	100031b9 	.word	0x100031b9
100030bc:	100031b9 	.word	0x100031b9
100030c0:	100031b9 	.word	0x100031b9
100030c4:	100031b9 	.word	0x100031b9
100030c8:	10003873 	.word	0x10003873
100030cc:	100031b9 	.word	0x100031b9
100030d0:	100031b9 	.word	0x100031b9
100030d4:	100031b9 	.word	0x100031b9
100030d8:	10003889 	.word	0x10003889
100030dc:	100031b9 	.word	0x100031b9
100030e0:	10003889 	.word	0x10003889
100030e4:	100031b9 	.word	0x100031b9
100030e8:	100031b9 	.word	0x100031b9
100030ec:	100031b9 	.word	0x100031b9
100030f0:	100031b9 	.word	0x100031b9
100030f4:	100031b9 	.word	0x100031b9
100030f8:	100031b9 	.word	0x100031b9
100030fc:	100031b9 	.word	0x100031b9
10003100:	100031b9 	.word	0x100031b9
10003104:	100031b9 	.word	0x100031b9
10003108:	100031b9 	.word	0x100031b9
1000310c:	100031b9 	.word	0x100031b9
10003110:	100031b9 	.word	0x100031b9
10003114:	100031b9 	.word	0x100031b9
10003118:	100031b9 	.word	0x100031b9
1000311c:	100031b9 	.word	0x100031b9
10003120:	100031b9 	.word	0x100031b9
10003124:	1000351d 	.word	0x1000351d
10003128:	100031b9 	.word	0x100031b9
1000312c:	100031b9 	.word	0x100031b9
10003130:	100031b9 	.word	0x100031b9
10003134:	100031b9 	.word	0x100031b9
10003138:	100031b9 	.word	0x100031b9
1000313c:	100031b9 	.word	0x100031b9
10003140:	100031b9 	.word	0x100031b9
10003144:	100031b9 	.word	0x100031b9
10003148:	10003873 	.word	0x10003873
1000314c:	100031b9 	.word	0x100031b9
10003150:	100031a9 	.word	0x100031a9
10003154:	100037a7 	.word	0x100037a7
10003158:	10003889 	.word	0x10003889
1000315c:	10003889 	.word	0x10003889
10003160:	10003889 	.word	0x10003889
10003164:	100031b9 	.word	0x100031b9
10003168:	100037a7 	.word	0x100037a7
1000316c:	100031b9 	.word	0x100031b9
10003170:	100031b9 	.word	0x100031b9
10003174:	100031b9 	.word	0x100031b9
10003178:	100031b9 	.word	0x100031b9
1000317c:	100032ef 	.word	0x100032ef
10003180:	10003689 	.word	0x10003689
10003184:	10003669 	.word	0x10003669
10003188:	100031b9 	.word	0x100031b9
1000318c:	100031b9 	.word	0x100031b9
10003190:	1000339d 	.word	0x1000339d
10003194:	100031b9 	.word	0x100031b9
10003198:	1000371f 	.word	0x1000371f
1000319c:	100031b9 	.word	0x100031b9
100031a0:	100031b9 	.word	0x100031b9
100031a4:	100035b7 	.word	0x100035b7
100031a8:	f8d7 309c 	ldr.w	r3, [r7, #156]	; 0x9c
100031ac:	1d1a      	adds	r2, r3, #4
100031ae:	f8c7 209c 	str.w	r2, [r7, #156]	; 0x9c
100031b2:	681b      	ldr	r3, [r3, #0]
100031b4:	f8c7 3084 	str.w	r3, [r7, #132]	; 0x84
100031b8:	6fbb      	ldr	r3, [r7, #120]	; 0x78
100031ba:	3b01      	subs	r3, #1
100031bc:	67bb      	str	r3, [r7, #120]	; 0x78
100031be:	6ffb      	ldr	r3, [r7, #124]	; 0x7c
100031c0:	f003 0301 	and.w	r3, r3, #1
100031c4:	2b00      	cmp	r3, #0
100031c6:	d136      	bne.n	10003236 <__vfprintf+0x5ba>
100031c8:	6ffb      	ldr	r3, [r7, #124]	; 0x7c
100031ca:	f403 7300 	and.w	r3, r3, #512	; 0x200
100031ce:	2b00      	cmp	r3, #0
100031d0:	d001      	beq.n	100031d6 <__vfprintf+0x55a>
100031d2:	2330      	movs	r3, #48	; 0x30
100031d4:	e000      	b.n	100031d8 <__vfprintf+0x55c>
100031d6:	2320      	movs	r3, #32
100031d8:	f887 303f 	strb.w	r3, [r7, #63]	; 0x3f
100031dc:	e025      	b.n	1000322a <__vfprintf+0x5ae>
100031de:	f8d7 3080 	ldr.w	r3, [r7, #128]	; 0x80
100031e2:	1c5a      	adds	r2, r3, #1
100031e4:	f8c7 2080 	str.w	r2, [r7, #128]	; 0x80
100031e8:	4618      	mov	r0, r3
100031ea:	ea4f 71e0 	mov.w	r1, r0, asr #31
100031ee:	e9d7 2300 	ldrd	r2, r3, [r7]
100031f2:	4290      	cmp	r0, r2
100031f4:	eb71 0303 	sbcs.w	r3, r1, r3
100031f8:	da17      	bge.n	1000322a <__vfprintf+0x5ae>
100031fa:	68fb      	ldr	r3, [r7, #12]
100031fc:	689b      	ldr	r3, [r3, #8]
100031fe:	1e5a      	subs	r2, r3, #1
10003200:	68fb      	ldr	r3, [r7, #12]
10003202:	609a      	str	r2, [r3, #8]
10003204:	68fb      	ldr	r3, [r7, #12]
10003206:	689b      	ldr	r3, [r3, #8]
10003208:	2b00      	cmp	r3, #0
1000320a:	db08      	blt.n	1000321e <__vfprintf+0x5a2>
1000320c:	68fb      	ldr	r3, [r7, #12]
1000320e:	681b      	ldr	r3, [r3, #0]
10003210:	1c59      	adds	r1, r3, #1
10003212:	68fa      	ldr	r2, [r7, #12]
10003214:	6011      	str	r1, [r2, #0]
10003216:	f897 203f 	ldrb.w	r2, [r7, #63]	; 0x3f
1000321a:	701a      	strb	r2, [r3, #0]
1000321c:	e005      	b.n	1000322a <__vfprintf+0x5ae>
1000321e:	f897 303f 	ldrb.w	r3, [r7, #63]	; 0x3f
10003222:	4618      	mov	r0, r3
10003224:	68f9      	ldr	r1, [r7, #12]
10003226:	f000 fcd7 	bl	10003bd8 <__flsbuf>
1000322a:	6fbb      	ldr	r3, [r7, #120]	; 0x78
1000322c:	3b01      	subs	r3, #1
1000322e:	67bb      	str	r3, [r7, #120]	; 0x78
10003230:	6fbb      	ldr	r3, [r7, #120]	; 0x78
10003232:	2b00      	cmp	r3, #0
10003234:	dad3      	bge.n	100031de <__vfprintf+0x562>
10003236:	f8d7 3080 	ldr.w	r3, [r7, #128]	; 0x80
1000323a:	1c5a      	adds	r2, r3, #1
1000323c:	f8c7 2080 	str.w	r2, [r7, #128]	; 0x80
10003240:	4618      	mov	r0, r3
10003242:	ea4f 71e0 	mov.w	r1, r0, asr #31
10003246:	e9d7 2300 	ldrd	r2, r3, [r7]
1000324a:	4290      	cmp	r0, r2
1000324c:	eb71 0303 	sbcs.w	r3, r1, r3
10003250:	da17      	bge.n	10003282 <__vfprintf+0x606>
10003252:	68fb      	ldr	r3, [r7, #12]
10003254:	689b      	ldr	r3, [r3, #8]
10003256:	1e5a      	subs	r2, r3, #1
10003258:	68fb      	ldr	r3, [r7, #12]
1000325a:	609a      	str	r2, [r3, #8]
1000325c:	68fb      	ldr	r3, [r7, #12]
1000325e:	689b      	ldr	r3, [r3, #8]
10003260:	2b00      	cmp	r3, #0
10003262:	db09      	blt.n	10003278 <__vfprintf+0x5fc>
10003264:	68fb      	ldr	r3, [r7, #12]
10003266:	681b      	ldr	r3, [r3, #0]
10003268:	1c59      	adds	r1, r3, #1
1000326a:	68fa      	ldr	r2, [r7, #12]
1000326c:	6011      	str	r1, [r2, #0]
1000326e:	f8d7 2084 	ldr.w	r2, [r7, #132]	; 0x84
10003272:	b2d2      	uxtb	r2, r2
10003274:	701a      	strb	r2, [r3, #0]
10003276:	e004      	b.n	10003282 <__vfprintf+0x606>
10003278:	f8d7 0084 	ldr.w	r0, [r7, #132]	; 0x84
1000327c:	68f9      	ldr	r1, [r7, #12]
1000327e:	f000 fcab 	bl	10003bd8 <__flsbuf>
10003282:	6ffb      	ldr	r3, [r7, #124]	; 0x7c
10003284:	f003 0301 	and.w	r3, r3, #1
10003288:	2b00      	cmp	r3, #0
1000328a:	d029      	beq.n	100032e0 <__vfprintf+0x664>
1000328c:	e022      	b.n	100032d4 <__vfprintf+0x658>
1000328e:	f8d7 3080 	ldr.w	r3, [r7, #128]	; 0x80
10003292:	1c5a      	adds	r2, r3, #1
10003294:	f8c7 2080 	str.w	r2, [r7, #128]	; 0x80
10003298:	4618      	mov	r0, r3
1000329a:	ea4f 71e0 	mov.w	r1, r0, asr #31
1000329e:	e9d7 2300 	ldrd	r2, r3, [r7]
100032a2:	4290      	cmp	r0, r2
100032a4:	eb71 0303 	sbcs.w	r3, r1, r3
100032a8:	da14      	bge.n	100032d4 <__vfprintf+0x658>
100032aa:	68fb      	ldr	r3, [r7, #12]
100032ac:	689b      	ldr	r3, [r3, #8]
100032ae:	1e5a      	subs	r2, r3, #1
100032b0:	68fb      	ldr	r3, [r7, #12]
100032b2:	609a      	str	r2, [r3, #8]
100032b4:	68fb      	ldr	r3, [r7, #12]
100032b6:	689b      	ldr	r3, [r3, #8]
100032b8:	2b00      	cmp	r3, #0
100032ba:	db07      	blt.n	100032cc <__vfprintf+0x650>
100032bc:	68fb      	ldr	r3, [r7, #12]
100032be:	681b      	ldr	r3, [r3, #0]
100032c0:	1c59      	adds	r1, r3, #1
100032c2:	68fa      	ldr	r2, [r7, #12]
100032c4:	6011      	str	r1, [r2, #0]
100032c6:	2220      	movs	r2, #32
100032c8:	701a      	strb	r2, [r3, #0]
100032ca:	e003      	b.n	100032d4 <__vfprintf+0x658>
100032cc:	2020      	movs	r0, #32
100032ce:	68f9      	ldr	r1, [r7, #12]
100032d0:	f000 fc82 	bl	10003bd8 <__flsbuf>
100032d4:	6fbb      	ldr	r3, [r7, #120]	; 0x78
100032d6:	3b01      	subs	r3, #1
100032d8:	67bb      	str	r3, [r7, #120]	; 0x78
100032da:	6fbb      	ldr	r3, [r7, #120]	; 0x78
100032dc:	2b00      	cmp	r3, #0
100032de:	dad6      	bge.n	1000328e <__vfprintf+0x612>
100032e0:	e349      	b.n	10003976 <__vfprintf+0xcfa>
100032e2:	f8d7 3098 	ldr.w	r3, [r7, #152]	; 0x98
100032e6:	3b01      	subs	r3, #1
100032e8:	f8c7 3098 	str.w	r3, [r7, #152]	; 0x98
100032ec:	e343      	b.n	10003976 <__vfprintf+0xcfa>
100032ee:	6ffb      	ldr	r3, [r7, #124]	; 0x7c
100032f0:	f003 0340 	and.w	r3, r3, #64	; 0x40
100032f4:	2b00      	cmp	r3, #0
100032f6:	d00f      	beq.n	10003318 <__vfprintf+0x69c>
100032f8:	f8d7 309c 	ldr.w	r3, [r7, #156]	; 0x9c
100032fc:	1d1a      	adds	r2, r3, #4
100032fe:	f8c7 209c 	str.w	r2, [r7, #156]	; 0x9c
10003302:	681b      	ldr	r3, [r3, #0]
10003304:	63bb      	str	r3, [r7, #56]	; 0x38
10003306:	f8d7 3080 	ldr.w	r3, [r7, #128]	; 0x80
1000330a:	461a      	mov	r2, r3
1000330c:	ea4f 73e2 	mov.w	r3, r2, asr #31
10003310:	6bb9      	ldr	r1, [r7, #56]	; 0x38
10003312:	e9c1 2300 	strd	r2, r3, [r1]
10003316:	e040      	b.n	1000339a <__vfprintf+0x71e>
10003318:	6ffb      	ldr	r3, [r7, #124]	; 0x7c
1000331a:	f003 0320 	and.w	r3, r3, #32
1000331e:	2b00      	cmp	r3, #0
10003320:	d00b      	beq.n	1000333a <__vfprintf+0x6be>
10003322:	f8d7 309c 	ldr.w	r3, [r7, #156]	; 0x9c
10003326:	1d1a      	adds	r2, r3, #4
10003328:	f8c7 209c 	str.w	r2, [r7, #156]	; 0x9c
1000332c:	681b      	ldr	r3, [r3, #0]
1000332e:	637b      	str	r3, [r7, #52]	; 0x34
10003330:	6b7b      	ldr	r3, [r7, #52]	; 0x34
10003332:	f8d7 2080 	ldr.w	r2, [r7, #128]	; 0x80
10003336:	601a      	str	r2, [r3, #0]
10003338:	e02f      	b.n	1000339a <__vfprintf+0x71e>
1000333a:	6ffb      	ldr	r3, [r7, #124]	; 0x7c
1000333c:	f403 7380 	and.w	r3, r3, #256	; 0x100
10003340:	2b00      	cmp	r3, #0
10003342:	d00c      	beq.n	1000335e <__vfprintf+0x6e2>
10003344:	f8d7 309c 	ldr.w	r3, [r7, #156]	; 0x9c
10003348:	1d1a      	adds	r2, r3, #4
1000334a:	f8c7 209c 	str.w	r2, [r7, #156]	; 0x9c
1000334e:	681b      	ldr	r3, [r3, #0]
10003350:	633b      	str	r3, [r7, #48]	; 0x30
10003352:	f8d7 3080 	ldr.w	r3, [r7, #128]	; 0x80
10003356:	b2da      	uxtb	r2, r3
10003358:	6b3b      	ldr	r3, [r7, #48]	; 0x30
1000335a:	701a      	strb	r2, [r3, #0]
1000335c:	e01d      	b.n	1000339a <__vfprintf+0x71e>
1000335e:	6ffb      	ldr	r3, [r7, #124]	; 0x7c
10003360:	f003 0380 	and.w	r3, r3, #128	; 0x80
10003364:	2b00      	cmp	r3, #0
10003366:	d00c      	beq.n	10003382 <__vfprintf+0x706>
10003368:	f8d7 309c 	ldr.w	r3, [r7, #156]	; 0x9c
1000336c:	1d1a      	adds	r2, r3, #4
1000336e:	f8c7 209c 	str.w	r2, [r7, #156]	; 0x9c
10003372:	681b      	ldr	r3, [r3, #0]
10003374:	62fb      	str	r3, [r7, #44]	; 0x2c
10003376:	f8d7 3080 	ldr.w	r3, [r7, #128]	; 0x80
1000337a:	b29a      	uxth	r2, r3
1000337c:	6afb      	ldr	r3, [r7, #44]	; 0x2c
1000337e:	801a      	strh	r2, [r3, #0]
10003380:	e00b      	b.n	1000339a <__vfprintf+0x71e>
10003382:	f8d7 309c 	ldr.w	r3, [r7, #156]	; 0x9c
10003386:	1d1a      	adds	r2, r3, #4
10003388:	f8c7 209c 	str.w	r2, [r7, #156]	; 0x9c
1000338c:	681b      	ldr	r3, [r3, #0]
1000338e:	62bb      	str	r3, [r7, #40]	; 0x28
10003390:	6abb      	ldr	r3, [r7, #40]	; 0x28
10003392:	f8d7 2080 	ldr.w	r2, [r7, #128]	; 0x80
10003396:	601a      	str	r2, [r3, #0]
10003398:	e2ed      	b.n	10003976 <__vfprintf+0xcfa>
1000339a:	e2ec      	b.n	10003976 <__vfprintf+0xcfa>
1000339c:	f8d7 309c 	ldr.w	r3, [r7, #156]	; 0x9c
100033a0:	1d1a      	adds	r2, r3, #4
100033a2:	f8c7 209c 	str.w	r2, [r7, #156]	; 0x9c
100033a6:	681b      	ldr	r3, [r3, #0]
100033a8:	657b      	str	r3, [r7, #84]	; 0x54
100033aa:	6d7b      	ldr	r3, [r7, #84]	; 0x54
100033ac:	2b00      	cmp	r3, #0
100033ae:	d101      	bne.n	100033b4 <__vfprintf+0x738>
100033b0:	4ba7      	ldr	r3, [pc, #668]	; (10003650 <__vfprintf+0x9d4>)
100033b2:	657b      	str	r3, [r7, #84]	; 0x54
100033b4:	6d78      	ldr	r0, [r7, #84]	; 0x54
100033b6:	f000 fb75 	bl	10003aa4 <strlen>
100033ba:	4603      	mov	r3, r0
100033bc:	64fb      	str	r3, [r7, #76]	; 0x4c
100033be:	6ffb      	ldr	r3, [r7, #124]	; 0x7c
100033c0:	f003 0310 	and.w	r3, r3, #16
100033c4:	2b00      	cmp	r3, #0
100033c6:	d005      	beq.n	100033d4 <__vfprintf+0x758>
100033c8:	6f7a      	ldr	r2, [r7, #116]	; 0x74
100033ca:	6cfb      	ldr	r3, [r7, #76]	; 0x4c
100033cc:	429a      	cmp	r2, r3
100033ce:	da01      	bge.n	100033d4 <__vfprintf+0x758>
100033d0:	6f7b      	ldr	r3, [r7, #116]	; 0x74
100033d2:	64fb      	str	r3, [r7, #76]	; 0x4c
100033d4:	6fba      	ldr	r2, [r7, #120]	; 0x78
100033d6:	6cfb      	ldr	r3, [r7, #76]	; 0x4c
100033d8:	1ad3      	subs	r3, r2, r3
100033da:	67bb      	str	r3, [r7, #120]	; 0x78
100033dc:	6ffb      	ldr	r3, [r7, #124]	; 0x7c
100033de:	f003 0301 	and.w	r3, r3, #1
100033e2:	2b00      	cmp	r3, #0
100033e4:	d136      	bne.n	10003454 <__vfprintf+0x7d8>
100033e6:	6ffb      	ldr	r3, [r7, #124]	; 0x7c
100033e8:	f403 7300 	and.w	r3, r3, #512	; 0x200
100033ec:	2b00      	cmp	r3, #0
100033ee:	d001      	beq.n	100033f4 <__vfprintf+0x778>
100033f0:	2330      	movs	r3, #48	; 0x30
100033f2:	e000      	b.n	100033f6 <__vfprintf+0x77a>
100033f4:	2320      	movs	r3, #32
100033f6:	f887 3027 	strb.w	r3, [r7, #39]	; 0x27
100033fa:	e025      	b.n	10003448 <__vfprintf+0x7cc>
100033fc:	f8d7 3080 	ldr.w	r3, [r7, #128]	; 0x80
10003400:	1c5a      	adds	r2, r3, #1
10003402:	f8c7 2080 	str.w	r2, [r7, #128]	; 0x80
10003406:	4618      	mov	r0, r3
10003408:	ea4f 71e0 	mov.w	r1, r0, asr #31
1000340c:	e9d7 2300 	ldrd	r2, r3, [r7]
10003410:	4290      	cmp	r0, r2
10003412:	eb71 0303 	sbcs.w	r3, r1, r3
10003416:	da17      	bge.n	10003448 <__vfprintf+0x7cc>
10003418:	68fb      	ldr	r3, [r7, #12]
1000341a:	689b      	ldr	r3, [r3, #8]
1000341c:	1e5a      	subs	r2, r3, #1
1000341e:	68fb      	ldr	r3, [r7, #12]
10003420:	609a      	str	r2, [r3, #8]
10003422:	68fb      	ldr	r3, [r7, #12]
10003424:	689b      	ldr	r3, [r3, #8]
10003426:	2b00      	cmp	r3, #0
10003428:	db08      	blt.n	1000343c <__vfprintf+0x7c0>
1000342a:	68fb      	ldr	r3, [r7, #12]
1000342c:	681b      	ldr	r3, [r3, #0]
1000342e:	1c59      	adds	r1, r3, #1
10003430:	68fa      	ldr	r2, [r7, #12]
10003432:	6011      	str	r1, [r2, #0]
10003434:	f897 2027 	ldrb.w	r2, [r7, #39]	; 0x27
10003438:	701a      	strb	r2, [r3, #0]
1000343a:	e005      	b.n	10003448 <__vfprintf+0x7cc>
1000343c:	f897 3027 	ldrb.w	r3, [r7, #39]	; 0x27
10003440:	4618      	mov	r0, r3
10003442:	68f9      	ldr	r1, [r7, #12]
10003444:	f000 fbc8 	bl	10003bd8 <__flsbuf>
10003448:	6fbb      	ldr	r3, [r7, #120]	; 0x78
1000344a:	3b01      	subs	r3, #1
1000344c:	67bb      	str	r3, [r7, #120]	; 0x78
1000344e:	6fbb      	ldr	r3, [r7, #120]	; 0x78
10003450:	2b00      	cmp	r3, #0
10003452:	dad3      	bge.n	100033fc <__vfprintf+0x780>
10003454:	2300      	movs	r3, #0
10003456:	653b      	str	r3, [r7, #80]	; 0x50
10003458:	e02c      	b.n	100034b4 <__vfprintf+0x838>
1000345a:	f8d7 3080 	ldr.w	r3, [r7, #128]	; 0x80
1000345e:	1c5a      	adds	r2, r3, #1
10003460:	f8c7 2080 	str.w	r2, [r7, #128]	; 0x80
10003464:	4618      	mov	r0, r3
10003466:	ea4f 71e0 	mov.w	r1, r0, asr #31
1000346a:	e9d7 2300 	ldrd	r2, r3, [r7]
1000346e:	4290      	cmp	r0, r2
10003470:	eb71 0303 	sbcs.w	r3, r1, r3
10003474:	da1b      	bge.n	100034ae <__vfprintf+0x832>
10003476:	68fb      	ldr	r3, [r7, #12]
10003478:	689b      	ldr	r3, [r3, #8]
1000347a:	1e5a      	subs	r2, r3, #1
1000347c:	68fb      	ldr	r3, [r7, #12]
1000347e:	609a      	str	r2, [r3, #8]
10003480:	68fb      	ldr	r3, [r7, #12]
10003482:	689b      	ldr	r3, [r3, #8]
10003484:	2b00      	cmp	r3, #0
10003486:	db0a      	blt.n	1000349e <__vfprintf+0x822>
10003488:	68fb      	ldr	r3, [r7, #12]
1000348a:	681b      	ldr	r3, [r3, #0]
1000348c:	1c59      	adds	r1, r3, #1
1000348e:	68fa      	ldr	r2, [r7, #12]
10003490:	6011      	str	r1, [r2, #0]
10003492:	6d3a      	ldr	r2, [r7, #80]	; 0x50
10003494:	6d79      	ldr	r1, [r7, #84]	; 0x54
10003496:	440a      	add	r2, r1
10003498:	7812      	ldrb	r2, [r2, #0]
1000349a:	701a      	strb	r2, [r3, #0]
1000349c:	e007      	b.n	100034ae <__vfprintf+0x832>
1000349e:	6d3b      	ldr	r3, [r7, #80]	; 0x50
100034a0:	6d7a      	ldr	r2, [r7, #84]	; 0x54
100034a2:	4413      	add	r3, r2
100034a4:	781b      	ldrb	r3, [r3, #0]
100034a6:	4618      	mov	r0, r3
100034a8:	68f9      	ldr	r1, [r7, #12]
100034aa:	f000 fb95 	bl	10003bd8 <__flsbuf>
100034ae:	6d3b      	ldr	r3, [r7, #80]	; 0x50
100034b0:	3301      	adds	r3, #1
100034b2:	653b      	str	r3, [r7, #80]	; 0x50
100034b4:	6d3a      	ldr	r2, [r7, #80]	; 0x50
100034b6:	6cfb      	ldr	r3, [r7, #76]	; 0x4c
100034b8:	429a      	cmp	r2, r3
100034ba:	dbce      	blt.n	1000345a <__vfprintf+0x7de>
100034bc:	6ffb      	ldr	r3, [r7, #124]	; 0x7c
100034be:	f003 0301 	and.w	r3, r3, #1
100034c2:	2b00      	cmp	r3, #0
100034c4:	d029      	beq.n	1000351a <__vfprintf+0x89e>
100034c6:	e022      	b.n	1000350e <__vfprintf+0x892>
100034c8:	f8d7 3080 	ldr.w	r3, [r7, #128]	; 0x80
100034cc:	1c5a      	adds	r2, r3, #1
100034ce:	f8c7 2080 	str.w	r2, [r7, #128]	; 0x80
100034d2:	4618      	mov	r0, r3
100034d4:	ea4f 71e0 	mov.w	r1, r0, asr #31
100034d8:	e9d7 2300 	ldrd	r2, r3, [r7]
100034dc:	4290      	cmp	r0, r2
100034de:	eb71 0303 	sbcs.w	r3, r1, r3
100034e2:	da14      	bge.n	1000350e <__vfprintf+0x892>
100034e4:	68fb      	ldr	r3, [r7, #12]
100034e6:	689b      	ldr	r3, [r3, #8]
100034e8:	1e5a      	subs	r2, r3, #1
100034ea:	68fb      	ldr	r3, [r7, #12]
100034ec:	609a      	str	r2, [r3, #8]
100034ee:	68fb      	ldr	r3, [r7, #12]
100034f0:	689b      	ldr	r3, [r3, #8]
100034f2:	2b00      	cmp	r3, #0
100034f4:	db07      	blt.n	10003506 <__vfprintf+0x88a>
100034f6:	68fb      	ldr	r3, [r7, #12]
100034f8:	681b      	ldr	r3, [r3, #0]
100034fa:	1c59      	adds	r1, r3, #1
100034fc:	68fa      	ldr	r2, [r7, #12]
100034fe:	6011      	str	r1, [r2, #0]
10003500:	2220      	movs	r2, #32
10003502:	701a      	strb	r2, [r3, #0]
10003504:	e003      	b.n	1000350e <__vfprintf+0x892>
10003506:	2020      	movs	r0, #32
10003508:	68f9      	ldr	r1, [r7, #12]
1000350a:	f000 fb65 	bl	10003bd8 <__flsbuf>
1000350e:	6fbb      	ldr	r3, [r7, #120]	; 0x78
10003510:	3b01      	subs	r3, #1
10003512:	67bb      	str	r3, [r7, #120]	; 0x78
10003514:	6fbb      	ldr	r3, [r7, #120]	; 0x78
10003516:	2b00      	cmp	r3, #0
10003518:	dad6      	bge.n	100034c8 <__vfprintf+0x84c>
1000351a:	e22c      	b.n	10003976 <__vfprintf+0xcfa>
1000351c:	6ffb      	ldr	r3, [r7, #124]	; 0x7c
1000351e:	f003 0340 	and.w	r3, r3, #64	; 0x40
10003522:	2b00      	cmp	r3, #0
10003524:	d00d      	beq.n	10003542 <__vfprintf+0x8c6>
10003526:	f8d7 309c 	ldr.w	r3, [r7, #156]	; 0x9c
1000352a:	3307      	adds	r3, #7
1000352c:	f023 0307 	bic.w	r3, r3, #7
10003530:	f103 0208 	add.w	r2, r3, #8
10003534:	f8c7 209c 	str.w	r2, [r7, #156]	; 0x9c
10003538:	e9d3 2300 	ldrd	r2, r3, [r3]
1000353c:	e9c7 2318 	strd	r2, r3, [r7, #96]	; 0x60
10003540:	e00a      	b.n	10003558 <__vfprintf+0x8dc>
10003542:	f8d7 309c 	ldr.w	r3, [r7, #156]	; 0x9c
10003546:	1d1a      	adds	r2, r3, #4
10003548:	f8c7 209c 	str.w	r2, [r7, #156]	; 0x9c
1000354c:	681b      	ldr	r3, [r3, #0]
1000354e:	461a      	mov	r2, r3
10003550:	f04f 0300 	mov.w	r3, #0
10003554:	e9c7 2318 	strd	r2, r3, [r7, #96]	; 0x60
10003558:	6ffb      	ldr	r3, [r7, #124]	; 0x7c
1000355a:	f003 0380 	and.w	r3, r3, #128	; 0x80
1000355e:	2b00      	cmp	r3, #0
10003560:	d007      	beq.n	10003572 <__vfprintf+0x8f6>
10003562:	f8b7 3060 	ldrh.w	r3, [r7, #96]	; 0x60
10003566:	b29a      	uxth	r2, r3
10003568:	f04f 0300 	mov.w	r3, #0
1000356c:	e9c7 2318 	strd	r2, r3, [r7, #96]	; 0x60
10003570:	e00b      	b.n	1000358a <__vfprintf+0x90e>
10003572:	6ffb      	ldr	r3, [r7, #124]	; 0x7c
10003574:	f403 7380 	and.w	r3, r3, #256	; 0x100
10003578:	2b00      	cmp	r3, #0
1000357a:	d006      	beq.n	1000358a <__vfprintf+0x90e>
1000357c:	f897 3060 	ldrb.w	r3, [r7, #96]	; 0x60
10003580:	b2da      	uxtb	r2, r3
10003582:	f04f 0300 	mov.w	r3, #0
10003586:	e9c7 2318 	strd	r2, r3, [r7, #96]	; 0x60
1000358a:	4b32      	ldr	r3, [pc, #200]	; (10003654 <__vfprintf+0x9d8>)
1000358c:	66fb      	str	r3, [r7, #108]	; 0x6c
1000358e:	6ffb      	ldr	r3, [r7, #124]	; 0x7c
10003590:	f003 0308 	and.w	r3, r3, #8
10003594:	2b00      	cmp	r3, #0
10003596:	d001      	beq.n	1000359c <__vfprintf+0x920>
10003598:	4b2f      	ldr	r3, [pc, #188]	; (10003658 <__vfprintf+0x9dc>)
1000359a:	e000      	b.n	1000359e <__vfprintf+0x922>
1000359c:	4b2f      	ldr	r3, [pc, #188]	; (1000365c <__vfprintf+0x9e0>)
1000359e:	673b      	str	r3, [r7, #112]	; 0x70
100035a0:	6ffb      	ldr	r3, [r7, #124]	; 0x7c
100035a2:	f003 0310 	and.w	r3, r3, #16
100035a6:	2b00      	cmp	r3, #0
100035a8:	d004      	beq.n	100035b4 <__vfprintf+0x938>
100035aa:	6ffb      	ldr	r3, [r7, #124]	; 0x7c
100035ac:	f423 7300 	bic.w	r3, r3, #512	; 0x200
100035b0:	67fb      	str	r3, [r7, #124]	; 0x7c
100035b2:	e1b1      	b.n	10003918 <__vfprintf+0xc9c>
100035b4:	e1b0      	b.n	10003918 <__vfprintf+0xc9c>
100035b6:	6ffb      	ldr	r3, [r7, #124]	; 0x7c
100035b8:	f003 0340 	and.w	r3, r3, #64	; 0x40
100035bc:	2b00      	cmp	r3, #0
100035be:	d00d      	beq.n	100035dc <__vfprintf+0x960>
100035c0:	f8d7 309c 	ldr.w	r3, [r7, #156]	; 0x9c
100035c4:	3307      	adds	r3, #7
100035c6:	f023 0307 	bic.w	r3, r3, #7
100035ca:	f103 0208 	add.w	r2, r3, #8
100035ce:	f8c7 209c 	str.w	r2, [r7, #156]	; 0x9c
100035d2:	e9d3 2300 	ldrd	r2, r3, [r3]
100035d6:	e9c7 2318 	strd	r2, r3, [r7, #96]	; 0x60
100035da:	e00a      	b.n	100035f2 <__vfprintf+0x976>
100035dc:	f8d7 309c 	ldr.w	r3, [r7, #156]	; 0x9c
100035e0:	1d1a      	adds	r2, r3, #4
100035e2:	f8c7 209c 	str.w	r2, [r7, #156]	; 0x9c
100035e6:	681b      	ldr	r3, [r3, #0]
100035e8:	461a      	mov	r2, r3
100035ea:	f04f 0300 	mov.w	r3, #0
100035ee:	e9c7 2318 	strd	r2, r3, [r7, #96]	; 0x60
100035f2:	6ffb      	ldr	r3, [r7, #124]	; 0x7c
100035f4:	f003 0380 	and.w	r3, r3, #128	; 0x80
100035f8:	2b00      	cmp	r3, #0
100035fa:	d007      	beq.n	1000360c <__vfprintf+0x990>
100035fc:	f8b7 3060 	ldrh.w	r3, [r7, #96]	; 0x60
10003600:	b29a      	uxth	r2, r3
10003602:	f04f 0300 	mov.w	r3, #0
10003606:	e9c7 2318 	strd	r2, r3, [r7, #96]	; 0x60
1000360a:	e00b      	b.n	10003624 <__vfprintf+0x9a8>
1000360c:	6ffb      	ldr	r3, [r7, #124]	; 0x7c
1000360e:	f403 7380 	and.w	r3, r3, #256	; 0x100
10003612:	2b00      	cmp	r3, #0
10003614:	d006      	beq.n	10003624 <__vfprintf+0x9a8>
10003616:	f897 3060 	ldrb.w	r3, [r7, #96]	; 0x60
1000361a:	b2da      	uxtb	r2, r3
1000361c:	f04f 0300 	mov.w	r3, #0
10003620:	e9c7 2318 	strd	r2, r3, [r7, #96]	; 0x60
10003624:	4b0e      	ldr	r3, [pc, #56]	; (10003660 <__vfprintf+0x9e4>)
10003626:	66fb      	str	r3, [r7, #108]	; 0x6c
10003628:	6ffb      	ldr	r3, [r7, #124]	; 0x7c
1000362a:	f003 0308 	and.w	r3, r3, #8
1000362e:	2b00      	cmp	r3, #0
10003630:	d001      	beq.n	10003636 <__vfprintf+0x9ba>
10003632:	4b0c      	ldr	r3, [pc, #48]	; (10003664 <__vfprintf+0x9e8>)
10003634:	e000      	b.n	10003638 <__vfprintf+0x9bc>
10003636:	4b09      	ldr	r3, [pc, #36]	; (1000365c <__vfprintf+0x9e0>)
10003638:	673b      	str	r3, [r7, #112]	; 0x70
1000363a:	6ffb      	ldr	r3, [r7, #124]	; 0x7c
1000363c:	f003 0310 	and.w	r3, r3, #16
10003640:	2b00      	cmp	r3, #0
10003642:	d004      	beq.n	1000364e <__vfprintf+0x9d2>
10003644:	6ffb      	ldr	r3, [r7, #124]	; 0x7c
10003646:	f423 7300 	bic.w	r3, r3, #512	; 0x200
1000364a:	67fb      	str	r3, [r7, #124]	; 0x7c
1000364c:	e164      	b.n	10003918 <__vfprintf+0xc9c>
1000364e:	e163      	b.n	10003918 <__vfprintf+0xc9c>
10003650:	100051b8 	.word	0x100051b8
10003654:	100051c0 	.word	0x100051c0
10003658:	100051d4 	.word	0x100051d4
1000365c:	100051d8 	.word	0x100051d8
10003660:	100051dc 	.word	0x100051dc
10003664:	100051f0 	.word	0x100051f0
10003668:	f8d7 309c 	ldr.w	r3, [r7, #156]	; 0x9c
1000366c:	1d1a      	adds	r2, r3, #4
1000366e:	f8c7 209c 	str.w	r2, [r7, #156]	; 0x9c
10003672:	681b      	ldr	r3, [r3, #0]
10003674:	461a      	mov	r2, r3
10003676:	f04f 0300 	mov.w	r3, #0
1000367a:	e9c7 2318 	strd	r2, r3, [r7, #96]	; 0x60
1000367e:	4b91      	ldr	r3, [pc, #580]	; (100038c4 <__vfprintf+0xc48>)
10003680:	66fb      	str	r3, [r7, #108]	; 0x6c
10003682:	4b91      	ldr	r3, [pc, #580]	; (100038c8 <__vfprintf+0xc4c>)
10003684:	673b      	str	r3, [r7, #112]	; 0x70
10003686:	e147      	b.n	10003918 <__vfprintf+0xc9c>
10003688:	6ffb      	ldr	r3, [r7, #124]	; 0x7c
1000368a:	f003 0340 	and.w	r3, r3, #64	; 0x40
1000368e:	2b00      	cmp	r3, #0
10003690:	d00d      	beq.n	100036ae <__vfprintf+0xa32>
10003692:	f8d7 309c 	ldr.w	r3, [r7, #156]	; 0x9c
10003696:	3307      	adds	r3, #7
10003698:	f023 0307 	bic.w	r3, r3, #7
1000369c:	f103 0208 	add.w	r2, r3, #8
100036a0:	f8c7 209c 	str.w	r2, [r7, #156]	; 0x9c
100036a4:	e9d3 2300 	ldrd	r2, r3, [r3]
100036a8:	e9c7 2318 	strd	r2, r3, [r7, #96]	; 0x60
100036ac:	e00a      	b.n	100036c4 <__vfprintf+0xa48>
100036ae:	f8d7 309c 	ldr.w	r3, [r7, #156]	; 0x9c
100036b2:	1d1a      	adds	r2, r3, #4
100036b4:	f8c7 209c 	str.w	r2, [r7, #156]	; 0x9c
100036b8:	681b      	ldr	r3, [r3, #0]
100036ba:	461a      	mov	r2, r3
100036bc:	f04f 0300 	mov.w	r3, #0
100036c0:	e9c7 2318 	strd	r2, r3, [r7, #96]	; 0x60
100036c4:	6ffb      	ldr	r3, [r7, #124]	; 0x7c
100036c6:	f003 0380 	and.w	r3, r3, #128	; 0x80
100036ca:	2b00      	cmp	r3, #0
100036cc:	d007      	beq.n	100036de <__vfprintf+0xa62>
100036ce:	f8b7 3060 	ldrh.w	r3, [r7, #96]	; 0x60
100036d2:	b29a      	uxth	r2, r3
100036d4:	f04f 0300 	mov.w	r3, #0
100036d8:	e9c7 2318 	strd	r2, r3, [r7, #96]	; 0x60
100036dc:	e00b      	b.n	100036f6 <__vfprintf+0xa7a>
100036de:	6ffb      	ldr	r3, [r7, #124]	; 0x7c
100036e0:	f403 7380 	and.w	r3, r3, #256	; 0x100
100036e4:	2b00      	cmp	r3, #0
100036e6:	d006      	beq.n	100036f6 <__vfprintf+0xa7a>
100036e8:	f897 3060 	ldrb.w	r3, [r7, #96]	; 0x60
100036ec:	b2da      	uxtb	r2, r3
100036ee:	f04f 0300 	mov.w	r3, #0
100036f2:	e9c7 2318 	strd	r2, r3, [r7, #96]	; 0x60
100036f6:	6ffb      	ldr	r3, [r7, #124]	; 0x7c
100036f8:	f003 0308 	and.w	r3, r3, #8
100036fc:	2b00      	cmp	r3, #0
100036fe:	d001      	beq.n	10003704 <__vfprintf+0xa88>
10003700:	4b72      	ldr	r3, [pc, #456]	; (100038cc <__vfprintf+0xc50>)
10003702:	e000      	b.n	10003706 <__vfprintf+0xa8a>
10003704:	4b72      	ldr	r3, [pc, #456]	; (100038d0 <__vfprintf+0xc54>)
10003706:	673b      	str	r3, [r7, #112]	; 0x70
10003708:	6ffb      	ldr	r3, [r7, #124]	; 0x7c
1000370a:	f003 0310 	and.w	r3, r3, #16
1000370e:	2b00      	cmp	r3, #0
10003710:	d004      	beq.n	1000371c <__vfprintf+0xaa0>
10003712:	6ffb      	ldr	r3, [r7, #124]	; 0x7c
10003714:	f423 7300 	bic.w	r3, r3, #512	; 0x200
10003718:	67fb      	str	r3, [r7, #124]	; 0x7c
1000371a:	e0fd      	b.n	10003918 <__vfprintf+0xc9c>
1000371c:	e0fc      	b.n	10003918 <__vfprintf+0xc9c>
1000371e:	6ffb      	ldr	r3, [r7, #124]	; 0x7c
10003720:	f003 0340 	and.w	r3, r3, #64	; 0x40
10003724:	2b00      	cmp	r3, #0
10003726:	d00d      	beq.n	10003744 <__vfprintf+0xac8>
10003728:	f8d7 309c 	ldr.w	r3, [r7, #156]	; 0x9c
1000372c:	3307      	adds	r3, #7
1000372e:	f023 0307 	bic.w	r3, r3, #7
10003732:	f103 0208 	add.w	r2, r3, #8
10003736:	f8c7 209c 	str.w	r2, [r7, #156]	; 0x9c
1000373a:	e9d3 2300 	ldrd	r2, r3, [r3]
1000373e:	e9c7 2318 	strd	r2, r3, [r7, #96]	; 0x60
10003742:	e00a      	b.n	1000375a <__vfprintf+0xade>
10003744:	f8d7 309c 	ldr.w	r3, [r7, #156]	; 0x9c
10003748:	1d1a      	adds	r2, r3, #4
1000374a:	f8c7 209c 	str.w	r2, [r7, #156]	; 0x9c
1000374e:	681b      	ldr	r3, [r3, #0]
10003750:	461a      	mov	r2, r3
10003752:	f04f 0300 	mov.w	r3, #0
10003756:	e9c7 2318 	strd	r2, r3, [r7, #96]	; 0x60
1000375a:	6ffb      	ldr	r3, [r7, #124]	; 0x7c
1000375c:	f003 0380 	and.w	r3, r3, #128	; 0x80
10003760:	2b00      	cmp	r3, #0
10003762:	d007      	beq.n	10003774 <__vfprintf+0xaf8>
10003764:	f8b7 3060 	ldrh.w	r3, [r7, #96]	; 0x60
10003768:	b29a      	uxth	r2, r3
1000376a:	f04f 0300 	mov.w	r3, #0
1000376e:	e9c7 2318 	strd	r2, r3, [r7, #96]	; 0x60
10003772:	e00b      	b.n	1000378c <__vfprintf+0xb10>
10003774:	6ffb      	ldr	r3, [r7, #124]	; 0x7c
10003776:	f403 7380 	and.w	r3, r3, #256	; 0x100
1000377a:	2b00      	cmp	r3, #0
1000377c:	d006      	beq.n	1000378c <__vfprintf+0xb10>
1000377e:	f897 3060 	ldrb.w	r3, [r7, #96]	; 0x60
10003782:	b2da      	uxtb	r2, r3
10003784:	f04f 0300 	mov.w	r3, #0
10003788:	e9c7 2318 	strd	r2, r3, [r7, #96]	; 0x60
1000378c:	4b50      	ldr	r3, [pc, #320]	; (100038d0 <__vfprintf+0xc54>)
1000378e:	673b      	str	r3, [r7, #112]	; 0x70
10003790:	6ffb      	ldr	r3, [r7, #124]	; 0x7c
10003792:	f003 0310 	and.w	r3, r3, #16
10003796:	2b00      	cmp	r3, #0
10003798:	d004      	beq.n	100037a4 <__vfprintf+0xb28>
1000379a:	6ffb      	ldr	r3, [r7, #124]	; 0x7c
1000379c:	f423 7300 	bic.w	r3, r3, #512	; 0x200
100037a0:	67fb      	str	r3, [r7, #124]	; 0x7c
100037a2:	e0b9      	b.n	10003918 <__vfprintf+0xc9c>
100037a4:	e0b8      	b.n	10003918 <__vfprintf+0xc9c>
100037a6:	6ffb      	ldr	r3, [r7, #124]	; 0x7c
100037a8:	f003 0340 	and.w	r3, r3, #64	; 0x40
100037ac:	2b00      	cmp	r3, #0
100037ae:	d00d      	beq.n	100037cc <__vfprintf+0xb50>
100037b0:	f8d7 309c 	ldr.w	r3, [r7, #156]	; 0x9c
100037b4:	3307      	adds	r3, #7
100037b6:	f023 0307 	bic.w	r3, r3, #7
100037ba:	f103 0208 	add.w	r2, r3, #8
100037be:	f8c7 209c 	str.w	r2, [r7, #156]	; 0x9c
100037c2:	e9d3 2300 	ldrd	r2, r3, [r3]
100037c6:	e9c7 2310 	strd	r2, r3, [r7, #64]	; 0x40
100037ca:	e00a      	b.n	100037e2 <__vfprintf+0xb66>
100037cc:	f8d7 309c 	ldr.w	r3, [r7, #156]	; 0x9c
100037d0:	1d1a      	adds	r2, r3, #4
100037d2:	f8c7 209c 	str.w	r2, [r7, #156]	; 0x9c
100037d6:	681b      	ldr	r3, [r3, #0]
100037d8:	461a      	mov	r2, r3
100037da:	ea4f 73e2 	mov.w	r3, r2, asr #31
100037de:	e9c7 2310 	strd	r2, r3, [r7, #64]	; 0x40
100037e2:	6ffb      	ldr	r3, [r7, #124]	; 0x7c
100037e4:	f003 0380 	and.w	r3, r3, #128	; 0x80
100037e8:	2b00      	cmp	r3, #0
100037ea:	d007      	beq.n	100037fc <__vfprintf+0xb80>
100037ec:	f8b7 3040 	ldrh.w	r3, [r7, #64]	; 0x40
100037f0:	b21a      	sxth	r2, r3
100037f2:	ea4f 73e2 	mov.w	r3, r2, asr #31
100037f6:	e9c7 2310 	strd	r2, r3, [r7, #64]	; 0x40
100037fa:	e00b      	b.n	10003814 <__vfprintf+0xb98>
100037fc:	6ffb      	ldr	r3, [r7, #124]	; 0x7c
100037fe:	f403 7380 	and.w	r3, r3, #256	; 0x100
10003802:	2b00      	cmp	r3, #0
10003804:	d006      	beq.n	10003814 <__vfprintf+0xb98>
10003806:	f897 3040 	ldrb.w	r3, [r7, #64]	; 0x40
1000380a:	b25a      	sxtb	r2, r3
1000380c:	ea4f 73e2 	mov.w	r3, r2, asr #31
10003810:	e9c7 2310 	strd	r2, r3, [r7, #64]	; 0x40
10003814:	e9d7 2310 	ldrd	r2, r3, [r7, #64]	; 0x40
10003818:	2a00      	cmp	r2, #0
1000381a:	f173 0300 	sbcs.w	r3, r3, #0
1000381e:	da09      	bge.n	10003834 <__vfprintf+0xbb8>
10003820:	e9d7 2310 	ldrd	r2, r3, [r7, #64]	; 0x40
10003824:	4252      	negs	r2, r2
10003826:	eb63 0343 	sbc.w	r3, r3, r3, lsl #1
1000382a:	e9c7 2318 	strd	r2, r3, [r7, #96]	; 0x60
1000382e:	4b29      	ldr	r3, [pc, #164]	; (100038d4 <__vfprintf+0xc58>)
10003830:	673b      	str	r3, [r7, #112]	; 0x70
10003832:	e013      	b.n	1000385c <__vfprintf+0xbe0>
10003834:	e9d7 2310 	ldrd	r2, r3, [r7, #64]	; 0x40
10003838:	e9c7 2318 	strd	r2, r3, [r7, #96]	; 0x60
1000383c:	6ffb      	ldr	r3, [r7, #124]	; 0x7c
1000383e:	f003 0302 	and.w	r3, r3, #2
10003842:	2b00      	cmp	r3, #0
10003844:	d108      	bne.n	10003858 <__vfprintf+0xbdc>
10003846:	6ffb      	ldr	r3, [r7, #124]	; 0x7c
10003848:	f003 0304 	and.w	r3, r3, #4
1000384c:	2b00      	cmp	r3, #0
1000384e:	d001      	beq.n	10003854 <__vfprintf+0xbd8>
10003850:	4b21      	ldr	r3, [pc, #132]	; (100038d8 <__vfprintf+0xc5c>)
10003852:	e002      	b.n	1000385a <__vfprintf+0xbde>
10003854:	4b1e      	ldr	r3, [pc, #120]	; (100038d0 <__vfprintf+0xc54>)
10003856:	e000      	b.n	1000385a <__vfprintf+0xbde>
10003858:	4b20      	ldr	r3, [pc, #128]	; (100038dc <__vfprintf+0xc60>)
1000385a:	673b      	str	r3, [r7, #112]	; 0x70
1000385c:	6ffb      	ldr	r3, [r7, #124]	; 0x7c
1000385e:	f003 0310 	and.w	r3, r3, #16
10003862:	2b00      	cmp	r3, #0
10003864:	d004      	beq.n	10003870 <__vfprintf+0xbf4>
10003866:	6ffb      	ldr	r3, [r7, #124]	; 0x7c
10003868:	f423 7300 	bic.w	r3, r3, #512	; 0x200
1000386c:	67fb      	str	r3, [r7, #124]	; 0x7c
1000386e:	e053      	b.n	10003918 <__vfprintf+0xc9c>
10003870:	e052      	b.n	10003918 <__vfprintf+0xc9c>
10003872:	6ffb      	ldr	r3, [r7, #124]	; 0x7c
10003874:	f003 0310 	and.w	r3, r3, #16
10003878:	2b00      	cmp	r3, #0
1000387a:	d105      	bne.n	10003888 <__vfprintf+0xc0c>
1000387c:	230d      	movs	r3, #13
1000387e:	677b      	str	r3, [r7, #116]	; 0x74
10003880:	6ffb      	ldr	r3, [r7, #124]	; 0x7c
10003882:	f043 0310 	orr.w	r3, r3, #16
10003886:	67fb      	str	r3, [r7, #124]	; 0x7c
10003888:	6ffb      	ldr	r3, [r7, #124]	; 0x7c
1000388a:	f443 6380 	orr.w	r3, r3, #1024	; 0x400
1000388e:	67fb      	str	r3, [r7, #124]	; 0x7c
10003890:	6ffb      	ldr	r3, [r7, #124]	; 0x7c
10003892:	f003 0310 	and.w	r3, r3, #16
10003896:	2b00      	cmp	r3, #0
10003898:	d101      	bne.n	1000389e <__vfprintf+0xc22>
1000389a:	2306      	movs	r3, #6
1000389c:	677b      	str	r3, [r7, #116]	; 0x74
1000389e:	6ffb      	ldr	r3, [r7, #124]	; 0x7c
100038a0:	f003 0320 	and.w	r3, r3, #32
100038a4:	2b00      	cmp	r3, #0
100038a6:	d01b      	beq.n	100038e0 <__vfprintf+0xc64>
100038a8:	f8d7 309c 	ldr.w	r3, [r7, #156]	; 0x9c
100038ac:	3307      	adds	r3, #7
100038ae:	f023 0307 	bic.w	r3, r3, #7
100038b2:	f103 0208 	add.w	r2, r3, #8
100038b6:	f8c7 209c 	str.w	r2, [r7, #156]	; 0x9c
100038ba:	e9d3 2300 	ldrd	r2, r3, [r3]
100038be:	e9c7 2306 	strd	r2, r3, [r7, #24]
100038c2:	e01e      	b.n	10003902 <__vfprintf+0xc86>
100038c4:	100051dc 	.word	0x100051dc
100038c8:	100051f0 	.word	0x100051f0
100038cc:	100051f4 	.word	0x100051f4
100038d0:	100051d8 	.word	0x100051d8
100038d4:	100051f8 	.word	0x100051f8
100038d8:	100051fc 	.word	0x100051fc
100038dc:	10005200 	.word	0x10005200
100038e0:	f8d7 309c 	ldr.w	r3, [r7, #156]	; 0x9c
100038e4:	3307      	adds	r3, #7
100038e6:	f023 0307 	bic.w	r3, r3, #7
100038ea:	f103 0208 	add.w	r2, r3, #8
100038ee:	f8c7 209c 	str.w	r2, [r7, #156]	; 0x9c
100038f2:	e9d3 2300 	ldrd	r2, r3, [r3]
100038f6:	e9c7 2304 	strd	r2, r3, [r7, #16]
100038fa:	e9d7 2304 	ldrd	r2, r3, [r7, #16]
100038fe:	e9c7 2306 	strd	r2, r3, [r7, #24]
10003902:	2300      	movs	r3, #0
10003904:	673b      	str	r3, [r7, #112]	; 0x70
10003906:	2300      	movs	r3, #0
10003908:	66fb      	str	r3, [r7, #108]	; 0x6c
1000390a:	f04f 0200 	mov.w	r2, #0
1000390e:	f04f 0300 	mov.w	r3, #0
10003912:	e9c7 2318 	strd	r2, r3, [r7, #96]	; 0x60
10003916:	bf00      	nop
10003918:	f8d7 3080 	ldr.w	r3, [r7, #128]	; 0x80
1000391c:	461a      	mov	r2, r3
1000391e:	ea4f 73e2 	mov.w	r3, r2, asr #31
10003922:	e9d7 0100 	ldrd	r0, r1, [r7]
10003926:	1a80      	subs	r0, r0, r2
10003928:	eb61 0103 	sbc.w	r1, r1, r3
1000392c:	4604      	mov	r4, r0
1000392e:	460d      	mov	r5, r1
10003930:	6ffb      	ldr	r3, [r7, #124]	; 0x7c
10003932:	9300      	str	r3, [sp, #0]
10003934:	f8d7 3084 	ldr.w	r3, [r7, #132]	; 0x84
10003938:	9301      	str	r3, [sp, #4]
1000393a:	6f7b      	ldr	r3, [r7, #116]	; 0x74
1000393c:	9302      	str	r3, [sp, #8]
1000393e:	6fbb      	ldr	r3, [r7, #120]	; 0x78
10003940:	9303      	str	r3, [sp, #12]
10003942:	e9d7 2318 	ldrd	r2, r3, [r7, #96]	; 0x60
10003946:	e9cd 2304 	strd	r2, r3, [sp, #16]
1000394a:	f8d7 30a0 	ldr.w	r3, [r7, #160]	; 0xa0
1000394e:	9306      	str	r3, [sp, #24]
10003950:	6f3b      	ldr	r3, [r7, #112]	; 0x70
10003952:	9307      	str	r3, [sp, #28]
10003954:	6efb      	ldr	r3, [r7, #108]	; 0x6c
10003956:	9308      	str	r3, [sp, #32]
10003958:	f107 0318 	add.w	r3, r7, #24
1000395c:	9309      	str	r3, [sp, #36]	; 0x24
1000395e:	68f8      	ldr	r0, [r7, #12]
10003960:	4622      	mov	r2, r4
10003962:	462b      	mov	r3, r5
10003964:	f7fe fe58 	bl	10002618 <printf_display>
10003968:	4602      	mov	r2, r0
1000396a:	f8d7 3080 	ldr.w	r3, [r7, #128]	; 0x80
1000396e:	4413      	add	r3, r2
10003970:	f8c7 3080 	str.w	r3, [r7, #128]	; 0x80
10003974:	bf00      	nop
10003976:	f8d7 3098 	ldr.w	r3, [r7, #152]	; 0x98
1000397a:	1c5a      	adds	r2, r3, #1
1000397c:	f8c7 2098 	str.w	r2, [r7, #152]	; 0x98
10003980:	781b      	ldrb	r3, [r3, #0]
10003982:	f8c7 3084 	str.w	r3, [r7, #132]	; 0x84
10003986:	f8d7 3084 	ldr.w	r3, [r7, #132]	; 0x84
1000398a:	2b00      	cmp	r3, #0
1000398c:	f47f a981 	bne.w	10002c92 <__vfprintf+0x16>
10003990:	f8d7 3080 	ldr.w	r3, [r7, #128]	; 0x80
10003994:	4618      	mov	r0, r3
10003996:	3788      	adds	r7, #136	; 0x88
10003998:	46bd      	mov	sp, r7
1000399a:	bdb0      	pop	{r4, r5, r7, pc}

1000399c <setvbuf>:
1000399c:	b480      	push	{r7}
1000399e:	b087      	sub	sp, #28
100039a0:	af00      	add	r7, sp, #0
100039a2:	60f8      	str	r0, [r7, #12]
100039a4:	60b9      	str	r1, [r7, #8]
100039a6:	607a      	str	r2, [r7, #4]
100039a8:	603b      	str	r3, [r7, #0]
100039aa:	68fb      	ldr	r3, [r7, #12]
100039ac:	68db      	ldr	r3, [r3, #12]
100039ae:	613b      	str	r3, [r7, #16]
100039b0:	68bb      	ldr	r3, [r7, #8]
100039b2:	617b      	str	r3, [r7, #20]
100039b4:	693b      	ldr	r3, [r7, #16]
100039b6:	f003 0303 	and.w	r3, r3, #3
100039ba:	2b00      	cmp	r3, #0
100039bc:	d101      	bne.n	100039c2 <setvbuf+0x26>
100039be:	2301      	movs	r3, #1
100039c0:	e02a      	b.n	10003a18 <setvbuf+0x7c>
100039c2:	687b      	ldr	r3, [r7, #4]
100039c4:	f5b3 7f00 	cmp.w	r3, #512	; 0x200
100039c8:	d00d      	beq.n	100039e6 <setvbuf+0x4a>
100039ca:	f5b3 6f80 	cmp.w	r3, #1024	; 0x400
100039ce:	d004      	beq.n	100039da <setvbuf+0x3e>
100039d0:	f5b3 7f80 	cmp.w	r3, #256	; 0x100
100039d4:	d007      	beq.n	100039e6 <setvbuf+0x4a>
100039d6:	2301      	movs	r3, #1
100039d8:	e01e      	b.n	10003a18 <setvbuf+0x7c>
100039da:	68fb      	ldr	r3, [r7, #12]
100039dc:	6a5b      	ldr	r3, [r3, #36]	; 0x24
100039de:	617b      	str	r3, [r7, #20]
100039e0:	2301      	movs	r3, #1
100039e2:	603b      	str	r3, [r7, #0]
100039e4:	e007      	b.n	100039f6 <setvbuf+0x5a>
100039e6:	683b      	ldr	r3, [r7, #0]
100039e8:	3b01      	subs	r3, #1
100039ea:	4a0e      	ldr	r2, [pc, #56]	; (10003a24 <setvbuf+0x88>)
100039ec:	4293      	cmp	r3, r2
100039ee:	d901      	bls.n	100039f4 <setvbuf+0x58>
100039f0:	2301      	movs	r3, #1
100039f2:	e011      	b.n	10003a18 <setvbuf+0x7c>
100039f4:	bf00      	nop
100039f6:	68fb      	ldr	r3, [r7, #12]
100039f8:	697a      	ldr	r2, [r7, #20]
100039fa:	611a      	str	r2, [r3, #16]
100039fc:	68fb      	ldr	r3, [r7, #12]
100039fe:	691a      	ldr	r2, [r3, #16]
10003a00:	68fb      	ldr	r3, [r7, #12]
10003a02:	601a      	str	r2, [r3, #0]
10003a04:	683a      	ldr	r2, [r7, #0]
10003a06:	68fb      	ldr	r3, [r7, #12]
10003a08:	61da      	str	r2, [r3, #28]
10003a0a:	68fb      	ldr	r3, [r7, #12]
10003a0c:	68da      	ldr	r2, [r3, #12]
10003a0e:	687b      	ldr	r3, [r7, #4]
10003a10:	431a      	orrs	r2, r3
10003a12:	68fb      	ldr	r3, [r7, #12]
10003a14:	60da      	str	r2, [r3, #12]
10003a16:	2300      	movs	r3, #0
10003a18:	4618      	mov	r0, r3
10003a1a:	371c      	adds	r7, #28
10003a1c:	46bd      	mov	sp, r7
10003a1e:	f85d 7b04 	ldr.w	r7, [sp], #4
10003a22:	4770      	bx	lr
10003a24:	00fffffe 	.word	0x00fffffe

10003a28 <rand>:
10003a28:	b480      	push	{r7}
10003a2a:	b083      	sub	sp, #12
10003a2c:	af00      	add	r7, sp, #0
10003a2e:	4b1a      	ldr	r3, [pc, #104]	; (10003a98 <rand+0x70>)
10003a30:	681b      	ldr	r3, [r3, #0]
10003a32:	4a1a      	ldr	r2, [pc, #104]	; (10003a9c <rand+0x74>)
10003a34:	6812      	ldr	r2, [r2, #0]
10003a36:	491a      	ldr	r1, [pc, #104]	; (10003aa0 <rand+0x78>)
10003a38:	f851 2022 	ldr.w	r2, [r1, r2, lsl #2]
10003a3c:	4918      	ldr	r1, [pc, #96]	; (10003aa0 <rand+0x78>)
10003a3e:	f841 2023 	str.w	r2, [r1, r3, lsl #2]
10003a42:	4a17      	ldr	r2, [pc, #92]	; (10003aa0 <rand+0x78>)
10003a44:	f852 3023 	ldr.w	r3, [r2, r3, lsl #2]
10003a48:	607b      	str	r3, [r7, #4]
10003a4a:	4b14      	ldr	r3, [pc, #80]	; (10003a9c <rand+0x74>)
10003a4c:	681b      	ldr	r3, [r3, #0]
10003a4e:	3b01      	subs	r3, #1
10003a50:	4a12      	ldr	r2, [pc, #72]	; (10003a9c <rand+0x74>)
10003a52:	6013      	str	r3, [r2, #0]
10003a54:	4b11      	ldr	r3, [pc, #68]	; (10003a9c <rand+0x74>)
10003a56:	681b      	ldr	r3, [r3, #0]
10003a58:	2b00      	cmp	r3, #0
10003a5a:	d108      	bne.n	10003a6e <rand+0x46>
10003a5c:	4b0f      	ldr	r3, [pc, #60]	; (10003a9c <rand+0x74>)
10003a5e:	2236      	movs	r2, #54	; 0x36
10003a60:	601a      	str	r2, [r3, #0]
10003a62:	4b0d      	ldr	r3, [pc, #52]	; (10003a98 <rand+0x70>)
10003a64:	681b      	ldr	r3, [r3, #0]
10003a66:	3b01      	subs	r3, #1
10003a68:	4a0b      	ldr	r2, [pc, #44]	; (10003a98 <rand+0x70>)
10003a6a:	6013      	str	r3, [r2, #0]
10003a6c:	e00b      	b.n	10003a86 <rand+0x5e>
10003a6e:	4b0a      	ldr	r3, [pc, #40]	; (10003a98 <rand+0x70>)
10003a70:	681b      	ldr	r3, [r3, #0]
10003a72:	3b01      	subs	r3, #1
10003a74:	4a08      	ldr	r2, [pc, #32]	; (10003a98 <rand+0x70>)
10003a76:	6013      	str	r3, [r2, #0]
10003a78:	4b07      	ldr	r3, [pc, #28]	; (10003a98 <rand+0x70>)
10003a7a:	681b      	ldr	r3, [r3, #0]
10003a7c:	2b00      	cmp	r3, #0
10003a7e:	d102      	bne.n	10003a86 <rand+0x5e>
10003a80:	4b05      	ldr	r3, [pc, #20]	; (10003a98 <rand+0x70>)
10003a82:	2236      	movs	r2, #54	; 0x36
10003a84:	601a      	str	r2, [r3, #0]
10003a86:	687b      	ldr	r3, [r7, #4]
10003a88:	f023 4300 	bic.w	r3, r3, #2147483648	; 0x80000000
10003a8c:	4618      	mov	r0, r3
10003a8e:	370c      	adds	r7, #12
10003a90:	46bd      	mov	sp, r7
10003a92:	f85d 7b04 	ldr.w	r7, [sp], #4
10003a96:	4770      	bx	lr
10003a98:	10005308 	.word	0x10005308
10003a9c:	10005304 	.word	0x10005304
10003aa0:	10005228 	.word	0x10005228

10003aa4 <strlen>:
10003aa4:	b480      	push	{r7}
10003aa6:	b087      	sub	sp, #28
10003aa8:	af00      	add	r7, sp, #0
10003aaa:	6078      	str	r0, [r7, #4]
10003aac:	687b      	ldr	r3, [r7, #4]
10003aae:	3301      	adds	r3, #1
10003ab0:	617b      	str	r3, [r7, #20]
10003ab2:	e009      	b.n	10003ac8 <strlen+0x24>
10003ab4:	687b      	ldr	r3, [r7, #4]
10003ab6:	1c5a      	adds	r2, r3, #1
10003ab8:	607a      	str	r2, [r7, #4]
10003aba:	781b      	ldrb	r3, [r3, #0]
10003abc:	2b00      	cmp	r3, #0
10003abe:	d103      	bne.n	10003ac8 <strlen+0x24>
10003ac0:	687a      	ldr	r2, [r7, #4]
10003ac2:	697b      	ldr	r3, [r7, #20]
10003ac4:	1ad3      	subs	r3, r2, r3
10003ac6:	e03b      	b.n	10003b40 <strlen+0x9c>
10003ac8:	687b      	ldr	r3, [r7, #4]
10003aca:	f003 0303 	and.w	r3, r3, #3
10003ace:	2b00      	cmp	r3, #0
10003ad0:	d1f0      	bne.n	10003ab4 <strlen+0x10>
10003ad2:	f04f 3301 	mov.w	r3, #16843009	; 0x1010101
10003ad6:	613b      	str	r3, [r7, #16]
10003ad8:	693b      	ldr	r3, [r7, #16]
10003ada:	01db      	lsls	r3, r3, #7
10003adc:	60fb      	str	r3, [r7, #12]
10003ade:	e002      	b.n	10003ae6 <strlen+0x42>
10003ae0:	687b      	ldr	r3, [r7, #4]
10003ae2:	3304      	adds	r3, #4
10003ae4:	607b      	str	r3, [r7, #4]
10003ae6:	687b      	ldr	r3, [r7, #4]
10003ae8:	681b      	ldr	r3, [r3, #0]
10003aea:	60bb      	str	r3, [r7, #8]
10003aec:	68ba      	ldr	r2, [r7, #8]
10003aee:	693b      	ldr	r3, [r7, #16]
10003af0:	1ad2      	subs	r2, r2, r3
10003af2:	68bb      	ldr	r3, [r7, #8]
10003af4:	43db      	mvns	r3, r3
10003af6:	401a      	ands	r2, r3
10003af8:	68fb      	ldr	r3, [r7, #12]
10003afa:	4013      	ands	r3, r2
10003afc:	2b00      	cmp	r3, #0
10003afe:	d0ef      	beq.n	10003ae0 <strlen+0x3c>
10003b00:	68bb      	ldr	r3, [r7, #8]
10003b02:	b2db      	uxtb	r3, r3
10003b04:	2b00      	cmp	r3, #0
10003b06:	d015      	beq.n	10003b34 <strlen+0x90>
10003b08:	68bb      	ldr	r3, [r7, #8]
10003b0a:	f403 437f 	and.w	r3, r3, #65280	; 0xff00
10003b0e:	2b00      	cmp	r3, #0
10003b10:	d00c      	beq.n	10003b2c <strlen+0x88>
10003b12:	68bb      	ldr	r3, [r7, #8]
10003b14:	f403 037f 	and.w	r3, r3, #16711680	; 0xff0000
10003b18:	2b00      	cmp	r3, #0
10003b1a:	d003      	beq.n	10003b24 <strlen+0x80>
10003b1c:	687b      	ldr	r3, [r7, #4]
10003b1e:	3304      	adds	r3, #4
10003b20:	607b      	str	r3, [r7, #4]
10003b22:	e00a      	b.n	10003b3a <strlen+0x96>
10003b24:	687b      	ldr	r3, [r7, #4]
10003b26:	3303      	adds	r3, #3
10003b28:	607b      	str	r3, [r7, #4]
10003b2a:	e006      	b.n	10003b3a <strlen+0x96>
10003b2c:	687b      	ldr	r3, [r7, #4]
10003b2e:	3302      	adds	r3, #2
10003b30:	607b      	str	r3, [r7, #4]
10003b32:	e002      	b.n	10003b3a <strlen+0x96>
10003b34:	687b      	ldr	r3, [r7, #4]
10003b36:	3301      	adds	r3, #1
10003b38:	607b      	str	r3, [r7, #4]
10003b3a:	687a      	ldr	r2, [r7, #4]
10003b3c:	697b      	ldr	r3, [r7, #20]
10003b3e:	1ad3      	subs	r3, r2, r3
10003b40:	4618      	mov	r0, r3
10003b42:	371c      	adds	r7, #28
10003b44:	46bd      	mov	sp, r7
10003b46:	f85d 7b04 	ldr.w	r7, [sp], #4
10003b4a:	4770      	bx	lr

10003b4c <memset>:
10003b4c:	b580      	push	{r7, lr}
10003b4e:	b084      	sub	sp, #16
10003b50:	af00      	add	r7, sp, #0
10003b52:	60f8      	str	r0, [r7, #12]
10003b54:	60b9      	str	r1, [r7, #8]
10003b56:	607a      	str	r2, [r7, #4]
10003b58:	68f8      	ldr	r0, [r7, #12]
10003b5a:	68b9      	ldr	r1, [r7, #8]
10003b5c:	687a      	ldr	r2, [r7, #4]
10003b5e:	f001 fa11 	bl	10004f84 <__aeabi_lowlevel_memset>
10003b62:	4603      	mov	r3, r0
10003b64:	4618      	mov	r0, r3
10003b66:	3710      	adds	r7, #16
10003b68:	46bd      	mov	sp, r7
10003b6a:	bd80      	pop	{r7, pc}

10003b6c <_deferredlazyseek>:
10003b6c:	b580      	push	{r7, lr}
10003b6e:	b082      	sub	sp, #8
10003b70:	af00      	add	r7, sp, #0
10003b72:	6078      	str	r0, [r7, #4]
10003b74:	687b      	ldr	r3, [r7, #4]
10003b76:	68db      	ldr	r3, [r3, #12]
10003b78:	f023 0220 	bic.w	r2, r3, #32
10003b7c:	687b      	ldr	r3, [r7, #4]
10003b7e:	60da      	str	r2, [r3, #12]
10003b80:	687b      	ldr	r3, [r7, #4]
10003b82:	699a      	ldr	r2, [r3, #24]
10003b84:	687b      	ldr	r3, [r7, #4]
10003b86:	6a5b      	ldr	r3, [r3, #36]	; 0x24
10003b88:	685b      	ldr	r3, [r3, #4]
10003b8a:	429a      	cmp	r2, r3
10003b8c:	d019      	beq.n	10003bc2 <_deferredlazyseek+0x56>
10003b8e:	6878      	ldr	r0, [r7, #4]
10003b90:	f000 f9a6 	bl	10003ee0 <_fflush>
10003b94:	687b      	ldr	r3, [r7, #4]
10003b96:	68db      	ldr	r3, [r3, #12]
10003b98:	f423 5340 	bic.w	r3, r3, #12288	; 0x3000
10003b9c:	f023 0310 	bic.w	r3, r3, #16
10003ba0:	f043 0210 	orr.w	r2, r3, #16
10003ba4:	687b      	ldr	r3, [r7, #4]
10003ba6:	60da      	str	r2, [r3, #12]
10003ba8:	687b      	ldr	r3, [r7, #4]
10003baa:	6a5b      	ldr	r3, [r3, #36]	; 0x24
10003bac:	685a      	ldr	r2, [r3, #4]
10003bae:	687b      	ldr	r3, [r7, #4]
10003bb0:	619a      	str	r2, [r3, #24]
10003bb2:	687b      	ldr	r3, [r7, #4]
10003bb4:	6a5b      	ldr	r3, [r3, #36]	; 0x24
10003bb6:	687a      	ldr	r2, [r7, #4]
10003bb8:	6912      	ldr	r2, [r2, #16]
10003bba:	609a      	str	r2, [r3, #8]
10003bbc:	689a      	ldr	r2, [r3, #8]
10003bbe:	687b      	ldr	r3, [r7, #4]
10003bc0:	601a      	str	r2, [r3, #0]
10003bc2:	687b      	ldr	r3, [r7, #4]
10003bc4:	68db      	ldr	r3, [r3, #12]
10003bc6:	f423 4380 	bic.w	r3, r3, #16384	; 0x4000
10003bca:	f023 0340 	bic.w	r3, r3, #64	; 0x40
10003bce:	687a      	ldr	r2, [r7, #4]
10003bd0:	60d3      	str	r3, [r2, #12]
10003bd2:	3708      	adds	r7, #8
10003bd4:	46bd      	mov	sp, r7
10003bd6:	bd80      	pop	{r7, pc}

10003bd8 <__flsbuf>:
10003bd8:	b580      	push	{r7, lr}
10003bda:	b088      	sub	sp, #32
10003bdc:	af00      	add	r7, sp, #0
10003bde:	6078      	str	r0, [r7, #4]
10003be0:	6039      	str	r1, [r7, #0]
10003be2:	683b      	ldr	r3, [r7, #0]
10003be4:	68db      	ldr	r3, [r3, #12]
10003be6:	f423 2200 	bic.w	r2, r3, #524288	; 0x80000
10003bea:	683b      	ldr	r3, [r7, #0]
10003bec:	60da      	str	r2, [r3, #12]
10003bee:	683b      	ldr	r3, [r7, #0]
10003bf0:	68db      	ldr	r3, [r3, #12]
10003bf2:	f003 0320 	and.w	r3, r3, #32
10003bf6:	2b00      	cmp	r3, #0
10003bf8:	d002      	beq.n	10003c00 <__flsbuf+0x28>
10003bfa:	6838      	ldr	r0, [r7, #0]
10003bfc:	f7ff ffb6 	bl	10003b6c <_deferredlazyseek>
10003c00:	683b      	ldr	r3, [r7, #0]
10003c02:	689b      	ldr	r3, [r3, #8]
10003c04:	f1b3 3fff 	cmp.w	r3, #4294967295
10003c08:	da1c      	bge.n	10003c44 <__flsbuf+0x6c>
10003c0a:	683b      	ldr	r3, [r7, #0]
10003c0c:	68db      	ldr	r3, [r3, #12]
10003c0e:	f403 7300 	and.w	r3, r3, #512	; 0x200
10003c12:	2b00      	cmp	r3, #0
10003c14:	d116      	bne.n	10003c44 <__flsbuf+0x6c>
10003c16:	683b      	ldr	r3, [r7, #0]
10003c18:	689a      	ldr	r2, [r3, #8]
10003c1a:	f06f 0301 	mvn.w	r3, #1
10003c1e:	1a9b      	subs	r3, r3, r2
10003c20:	683a      	ldr	r2, [r7, #0]
10003c22:	6093      	str	r3, [r2, #8]
10003c24:	683b      	ldr	r3, [r7, #0]
10003c26:	68db      	ldr	r3, [r3, #12]
10003c28:	f443 3290 	orr.w	r2, r3, #73728	; 0x12000
10003c2c:	683b      	ldr	r3, [r7, #0]
10003c2e:	60da      	str	r2, [r3, #12]
10003c30:	683b      	ldr	r3, [r7, #0]
10003c32:	681b      	ldr	r3, [r3, #0]
10003c34:	1c59      	adds	r1, r3, #1
10003c36:	683a      	ldr	r2, [r7, #0]
10003c38:	6011      	str	r1, [r2, #0]
10003c3a:	687a      	ldr	r2, [r7, #4]
10003c3c:	b2d2      	uxtb	r2, r2
10003c3e:	701a      	strb	r2, [r3, #0]
10003c40:	781b      	ldrb	r3, [r3, #0]
10003c42:	e0f1      	b.n	10003e28 <__flsbuf+0x250>
10003c44:	683b      	ldr	r3, [r7, #0]
10003c46:	68db      	ldr	r3, [r3, #12]
10003c48:	61fb      	str	r3, [r7, #28]
10003c4a:	69fa      	ldr	r2, [r7, #28]
10003c4c:	f241 038a 	movw	r3, #4234	; 0x108a
10003c50:	4013      	ands	r3, r2
10003c52:	2b02      	cmp	r3, #2
10003c54:	d00b      	beq.n	10003c6e <__flsbuf+0x96>
10003c56:	683b      	ldr	r3, [r7, #0]
10003c58:	2200      	movs	r2, #0
10003c5a:	609a      	str	r2, [r3, #8]
10003c5c:	683b      	ldr	r3, [r7, #0]
10003c5e:	68db      	ldr	r3, [r3, #12]
10003c60:	f043 0280 	orr.w	r2, r3, #128	; 0x80
10003c64:	683b      	ldr	r3, [r7, #0]
10003c66:	60da      	str	r2, [r3, #12]
10003c68:	f04f 33ff 	mov.w	r3, #4294967295
10003c6c:	e0dc      	b.n	10003e28 <__flsbuf+0x250>
10003c6e:	69fa      	ldr	r2, [r7, #28]
10003c70:	f24a 0310 	movw	r3, #40976	; 0xa010
10003c74:	4013      	ands	r3, r2
10003c76:	f5b3 4f00 	cmp.w	r3, #32768	; 0x8000
10003c7a:	d110      	bne.n	10003c9e <__flsbuf+0xc6>
10003c7c:	6838      	ldr	r0, [r7, #0]
10003c7e:	2100      	movs	r1, #0
10003c80:	2202      	movs	r2, #2
10003c82:	f000 fc3f 	bl	10004504 <fseek>
10003c86:	683b      	ldr	r3, [r7, #0]
10003c88:	68db      	ldr	r3, [r3, #12]
10003c8a:	f003 0320 	and.w	r3, r3, #32
10003c8e:	2b00      	cmp	r3, #0
10003c90:	d002      	beq.n	10003c98 <__flsbuf+0xc0>
10003c92:	6838      	ldr	r0, [r7, #0]
10003c94:	f7ff ff6a 	bl	10003b6c <_deferredlazyseek>
10003c98:	683b      	ldr	r3, [r7, #0]
10003c9a:	68db      	ldr	r3, [r3, #12]
10003c9c:	61fb      	str	r3, [r7, #28]
10003c9e:	69fb      	ldr	r3, [r7, #28]
10003ca0:	f443 3390 	orr.w	r3, r3, #73728	; 0x12000
10003ca4:	61fb      	str	r3, [r7, #28]
10003ca6:	683b      	ldr	r3, [r7, #0]
10003ca8:	69fa      	ldr	r2, [r7, #28]
10003caa:	60da      	str	r2, [r3, #12]
10003cac:	69fb      	ldr	r3, [r7, #28]
10003cae:	f403 6370 	and.w	r3, r3, #3840	; 0xf00
10003cb2:	2b00      	cmp	r3, #0
10003cb4:	d139      	bne.n	10003d2a <__flsbuf+0x152>
10003cb6:	683b      	ldr	r3, [r7, #0]
10003cb8:	695b      	ldr	r3, [r3, #20]
10003cba:	4618      	mov	r0, r3
10003cbc:	f001 f98e 	bl	10004fdc <__sys_istty>
10003cc0:	4603      	mov	r3, r0
10003cc2:	2b00      	cmp	r3, #0
10003cc4:	d018      	beq.n	10003cf8 <__flsbuf+0x120>
10003cc6:	69fb      	ldr	r3, [r7, #28]
10003cc8:	f403 6380 	and.w	r3, r3, #1024	; 0x400
10003ccc:	2b00      	cmp	r3, #0
10003cce:	d013      	beq.n	10003cf8 <__flsbuf+0x120>
10003cd0:	683b      	ldr	r3, [r7, #0]
10003cd2:	6a5b      	ldr	r3, [r3, #36]	; 0x24
10003cd4:	461a      	mov	r2, r3
10003cd6:	683b      	ldr	r3, [r7, #0]
10003cd8:	611a      	str	r2, [r3, #16]
10003cda:	683b      	ldr	r3, [r7, #0]
10003cdc:	691a      	ldr	r2, [r3, #16]
10003cde:	683b      	ldr	r3, [r7, #0]
10003ce0:	601a      	str	r2, [r3, #0]
10003ce2:	683b      	ldr	r3, [r7, #0]
10003ce4:	2201      	movs	r2, #1
10003ce6:	61da      	str	r2, [r3, #28]
10003ce8:	69fb      	ldr	r3, [r7, #28]
10003cea:	f443 6380 	orr.w	r3, r3, #1024	; 0x400
10003cee:	61fb      	str	r3, [r7, #28]
10003cf0:	683b      	ldr	r3, [r7, #0]
10003cf2:	69fa      	ldr	r2, [r7, #28]
10003cf4:	60da      	str	r2, [r3, #12]
10003cf6:	e018      	b.n	10003d2a <__flsbuf+0x152>
10003cf8:	f44f 5080 	mov.w	r0, #4096	; 0x1000
10003cfc:	f000 fb64 	bl	100043c8 <_Csys_alloc>
10003d00:	4602      	mov	r2, r0
10003d02:	683b      	ldr	r3, [r7, #0]
10003d04:	611a      	str	r2, [r3, #16]
10003d06:	683b      	ldr	r3, [r7, #0]
10003d08:	691a      	ldr	r2, [r3, #16]
10003d0a:	683b      	ldr	r3, [r7, #0]
10003d0c:	601a      	str	r2, [r3, #0]
10003d0e:	683b      	ldr	r3, [r7, #0]
10003d10:	f44f 5280 	mov.w	r2, #4096	; 0x1000
10003d14:	61da      	str	r2, [r3, #28]
10003d16:	69fb      	ldr	r3, [r7, #28]
10003d18:	f443 6300 	orr.w	r3, r3, #2048	; 0x800
10003d1c:	61fb      	str	r3, [r7, #28]
10003d1e:	69fb      	ldr	r3, [r7, #28]
10003d20:	683a      	ldr	r2, [r7, #0]
10003d22:	68d2      	ldr	r2, [r2, #12]
10003d24:	431a      	orrs	r2, r3
10003d26:	683b      	ldr	r3, [r7, #0]
10003d28:	60da      	str	r2, [r3, #12]
10003d2a:	69fb      	ldr	r3, [r7, #28]
10003d2c:	f403 6310 	and.w	r3, r3, #2304	; 0x900
10003d30:	2b00      	cmp	r3, #0
10003d32:	d035      	beq.n	10003da0 <__flsbuf+0x1c8>
10003d34:	683b      	ldr	r3, [r7, #0]
10003d36:	691b      	ldr	r3, [r3, #16]
10003d38:	61bb      	str	r3, [r7, #24]
10003d3a:	683b      	ldr	r3, [r7, #0]
10003d3c:	681a      	ldr	r2, [r3, #0]
10003d3e:	683b      	ldr	r3, [r7, #0]
10003d40:	6a5b      	ldr	r3, [r3, #36]	; 0x24
10003d42:	689b      	ldr	r3, [r3, #8]
10003d44:	4293      	cmp	r3, r2
10003d46:	bf38      	it	cc
10003d48:	4613      	movcc	r3, r2
10003d4a:	461a      	mov	r2, r3
10003d4c:	69bb      	ldr	r3, [r7, #24]
10003d4e:	1ad3      	subs	r3, r2, r3
10003d50:	617b      	str	r3, [r7, #20]
10003d52:	697b      	ldr	r3, [r7, #20]
10003d54:	2b00      	cmp	r3, #0
10003d56:	d00a      	beq.n	10003d6e <__flsbuf+0x196>
10003d58:	69b8      	ldr	r0, [r7, #24]
10003d5a:	6979      	ldr	r1, [r7, #20]
10003d5c:	683a      	ldr	r2, [r7, #0]
10003d5e:	f000 f9b9 	bl	100040d4 <_Cwritebuf>
10003d62:	4603      	mov	r3, r0
10003d64:	2b00      	cmp	r3, #0
10003d66:	d002      	beq.n	10003d6e <__flsbuf+0x196>
10003d68:	f04f 33ff 	mov.w	r3, #4294967295
10003d6c:	e05c      	b.n	10003e28 <__flsbuf+0x250>
10003d6e:	683b      	ldr	r3, [r7, #0]
10003d70:	6a5b      	ldr	r3, [r3, #36]	; 0x24
10003d72:	69ba      	ldr	r2, [r7, #24]
10003d74:	3201      	adds	r2, #1
10003d76:	609a      	str	r2, [r3, #8]
10003d78:	689a      	ldr	r2, [r3, #8]
10003d7a:	683b      	ldr	r3, [r7, #0]
10003d7c:	601a      	str	r2, [r3, #0]
10003d7e:	683b      	ldr	r3, [r7, #0]
10003d80:	69db      	ldr	r3, [r3, #28]
10003d82:	1e5a      	subs	r2, r3, #1
10003d84:	683b      	ldr	r3, [r7, #0]
10003d86:	609a      	str	r2, [r3, #8]
10003d88:	683b      	ldr	r3, [r7, #0]
10003d8a:	6a5b      	ldr	r3, [r3, #36]	; 0x24
10003d8c:	683a      	ldr	r2, [r7, #0]
10003d8e:	69d2      	ldr	r2, [r2, #28]
10003d90:	60da      	str	r2, [r3, #12]
10003d92:	687b      	ldr	r3, [r7, #4]
10003d94:	b2da      	uxtb	r2, r3
10003d96:	69bb      	ldr	r3, [r7, #24]
10003d98:	701a      	strb	r2, [r3, #0]
10003d9a:	69bb      	ldr	r3, [r7, #24]
10003d9c:	781b      	ldrb	r3, [r3, #0]
10003d9e:	e043      	b.n	10003e28 <__flsbuf+0x250>
10003da0:	683b      	ldr	r3, [r7, #0]
10003da2:	691b      	ldr	r3, [r3, #16]
10003da4:	613b      	str	r3, [r7, #16]
10003da6:	683b      	ldr	r3, [r7, #0]
10003da8:	681b      	ldr	r3, [r3, #0]
10003daa:	1c59      	adds	r1, r3, #1
10003dac:	683a      	ldr	r2, [r7, #0]
10003dae:	6011      	str	r1, [r2, #0]
10003db0:	687a      	ldr	r2, [r7, #4]
10003db2:	b2d2      	uxtb	r2, r2
10003db4:	701a      	strb	r2, [r3, #0]
10003db6:	683b      	ldr	r3, [r7, #0]
10003db8:	681a      	ldr	r2, [r3, #0]
10003dba:	683b      	ldr	r3, [r7, #0]
10003dbc:	6a5b      	ldr	r3, [r3, #36]	; 0x24
10003dbe:	689b      	ldr	r3, [r3, #8]
10003dc0:	4293      	cmp	r3, r2
10003dc2:	bf38      	it	cc
10003dc4:	4613      	movcc	r3, r2
10003dc6:	461a      	mov	r2, r3
10003dc8:	693b      	ldr	r3, [r7, #16]
10003dca:	1ad3      	subs	r3, r2, r3
10003dcc:	60fb      	str	r3, [r7, #12]
10003dce:	683b      	ldr	r3, [r7, #0]
10003dd0:	6a5b      	ldr	r3, [r3, #36]	; 0x24
10003dd2:	683a      	ldr	r2, [r7, #0]
10003dd4:	69d2      	ldr	r2, [r2, #28]
10003dd6:	60da      	str	r2, [r3, #12]
10003dd8:	69fb      	ldr	r3, [r7, #28]
10003dda:	f403 6380 	and.w	r3, r3, #1024	; 0x400
10003dde:	2b00      	cmp	r3, #0
10003de0:	d108      	bne.n	10003df4 <__flsbuf+0x21c>
10003de2:	687b      	ldr	r3, [r7, #4]
10003de4:	b2db      	uxtb	r3, r3
10003de6:	2b0a      	cmp	r3, #10
10003de8:	d004      	beq.n	10003df4 <__flsbuf+0x21c>
10003dea:	683b      	ldr	r3, [r7, #0]
10003dec:	69da      	ldr	r2, [r3, #28]
10003dee:	68fb      	ldr	r3, [r7, #12]
10003df0:	429a      	cmp	r2, r3
10003df2:	dc17      	bgt.n	10003e24 <__flsbuf+0x24c>
10003df4:	683b      	ldr	r3, [r7, #0]
10003df6:	6a5b      	ldr	r3, [r3, #36]	; 0x24
10003df8:	693a      	ldr	r2, [r7, #16]
10003dfa:	609a      	str	r2, [r3, #8]
10003dfc:	689a      	ldr	r2, [r3, #8]
10003dfe:	683b      	ldr	r3, [r7, #0]
10003e00:	601a      	str	r2, [r3, #0]
10003e02:	683b      	ldr	r3, [r7, #0]
10003e04:	2200      	movs	r2, #0
10003e06:	609a      	str	r2, [r3, #8]
10003e08:	6938      	ldr	r0, [r7, #16]
10003e0a:	68f9      	ldr	r1, [r7, #12]
10003e0c:	683a      	ldr	r2, [r7, #0]
10003e0e:	f000 f961 	bl	100040d4 <_Cwritebuf>
10003e12:	4603      	mov	r3, r0
10003e14:	2b00      	cmp	r3, #0
10003e16:	d102      	bne.n	10003e1e <__flsbuf+0x246>
10003e18:	687b      	ldr	r3, [r7, #4]
10003e1a:	b2db      	uxtb	r3, r3
10003e1c:	e004      	b.n	10003e28 <__flsbuf+0x250>
10003e1e:	f04f 33ff 	mov.w	r3, #4294967295
10003e22:	e001      	b.n	10003e28 <__flsbuf+0x250>
10003e24:	687b      	ldr	r3, [r7, #4]
10003e26:	b2db      	uxtb	r3, r3
10003e28:	4618      	mov	r0, r3
10003e2a:	3720      	adds	r7, #32
10003e2c:	46bd      	mov	sp, r7
10003e2e:	bd80      	pop	{r7, pc}

10003e30 <_fdopen>:
10003e30:	b580      	push	{r7, lr}
10003e32:	b086      	sub	sp, #24
10003e34:	af00      	add	r7, sp, #0
10003e36:	60f8      	str	r0, [r7, #12]
10003e38:	60b9      	str	r1, [r7, #8]
10003e3a:	607a      	str	r2, [r7, #4]
10003e3c:	6878      	ldr	r0, [r7, #4]
10003e3e:	f000 fadf 	bl	10004400 <fclose>
10003e42:	68bb      	ldr	r3, [r7, #8]
10003e44:	1c5a      	adds	r2, r3, #1
10003e46:	60ba      	str	r2, [r7, #8]
10003e48:	781b      	ldrb	r3, [r3, #0]
10003e4a:	2b72      	cmp	r3, #114	; 0x72
10003e4c:	d005      	beq.n	10003e5a <_fdopen+0x2a>
10003e4e:	2b77      	cmp	r3, #119	; 0x77
10003e50:	d008      	beq.n	10003e64 <_fdopen+0x34>
10003e52:	2b61      	cmp	r3, #97	; 0x61
10003e54:	d00b      	beq.n	10003e6e <_fdopen+0x3e>
10003e56:	2300      	movs	r3, #0
10003e58:	e03d      	b.n	10003ed6 <_fdopen+0xa6>
10003e5a:	2301      	movs	r3, #1
10003e5c:	617b      	str	r3, [r7, #20]
10003e5e:	2300      	movs	r3, #0
10003e60:	613b      	str	r3, [r7, #16]
10003e62:	e00a      	b.n	10003e7a <_fdopen+0x4a>
10003e64:	2302      	movs	r3, #2
10003e66:	617b      	str	r3, [r7, #20]
10003e68:	2304      	movs	r3, #4
10003e6a:	613b      	str	r3, [r7, #16]
10003e6c:	e005      	b.n	10003e7a <_fdopen+0x4a>
10003e6e:	f248 0302 	movw	r3, #32770	; 0x8002
10003e72:	617b      	str	r3, [r7, #20]
10003e74:	2308      	movs	r3, #8
10003e76:	613b      	str	r3, [r7, #16]
10003e78:	bf00      	nop
10003e7a:	68bb      	ldr	r3, [r7, #8]
10003e7c:	1c5a      	adds	r2, r3, #1
10003e7e:	60ba      	str	r2, [r7, #8]
10003e80:	781b      	ldrb	r3, [r3, #0]
10003e82:	2b2b      	cmp	r3, #43	; 0x2b
10003e84:	d00e      	beq.n	10003ea4 <_fdopen+0x74>
10003e86:	2b62      	cmp	r3, #98	; 0x62
10003e88:	d015      	beq.n	10003eb6 <_fdopen+0x86>
10003e8a:	bf00      	nop
10003e8c:	687b      	ldr	r3, [r7, #4]
10003e8e:	697a      	ldr	r2, [r7, #20]
10003e90:	60da      	str	r2, [r3, #12]
10003e92:	687b      	ldr	r3, [r7, #4]
10003e94:	68fa      	ldr	r2, [r7, #12]
10003e96:	615a      	str	r2, [r3, #20]
10003e98:	693b      	ldr	r3, [r7, #16]
10003e9a:	f003 0308 	and.w	r3, r3, #8
10003e9e:	2b00      	cmp	r3, #0
10003ea0:	d018      	beq.n	10003ed4 <_fdopen+0xa4>
10003ea2:	e012      	b.n	10003eca <_fdopen+0x9a>
10003ea4:	697b      	ldr	r3, [r7, #20]
10003ea6:	f043 0303 	orr.w	r3, r3, #3
10003eaa:	617b      	str	r3, [r7, #20]
10003eac:	693b      	ldr	r3, [r7, #16]
10003eae:	f043 0302 	orr.w	r3, r3, #2
10003eb2:	613b      	str	r3, [r7, #16]
10003eb4:	e008      	b.n	10003ec8 <_fdopen+0x98>
10003eb6:	697b      	ldr	r3, [r7, #20]
10003eb8:	f043 0304 	orr.w	r3, r3, #4
10003ebc:	617b      	str	r3, [r7, #20]
10003ebe:	693b      	ldr	r3, [r7, #16]
10003ec0:	f043 0301 	orr.w	r3, r3, #1
10003ec4:	613b      	str	r3, [r7, #16]
10003ec6:	bf00      	nop
10003ec8:	e7d7      	b.n	10003e7a <_fdopen+0x4a>
10003eca:	6878      	ldr	r0, [r7, #4]
10003ecc:	2100      	movs	r1, #0
10003ece:	2202      	movs	r2, #2
10003ed0:	f000 fb18 	bl	10004504 <fseek>
10003ed4:	687b      	ldr	r3, [r7, #4]
10003ed6:	4618      	mov	r0, r3
10003ed8:	3718      	adds	r7, #24
10003eda:	46bd      	mov	sp, r7
10003edc:	bd80      	pop	{r7, pc}
10003ede:	bf00      	nop

10003ee0 <_fflush>:
10003ee0:	b580      	push	{r7, lr}
10003ee2:	b084      	sub	sp, #16
10003ee4:	af00      	add	r7, sp, #0
10003ee6:	6078      	str	r0, [r7, #4]
10003ee8:	687b      	ldr	r3, [r7, #4]
10003eea:	691b      	ldr	r3, [r3, #16]
10003eec:	60fb      	str	r3, [r7, #12]
10003eee:	687b      	ldr	r3, [r7, #4]
10003ef0:	681a      	ldr	r2, [r3, #0]
10003ef2:	687b      	ldr	r3, [r7, #4]
10003ef4:	6a5b      	ldr	r3, [r3, #36]	; 0x24
10003ef6:	689b      	ldr	r3, [r3, #8]
10003ef8:	4293      	cmp	r3, r2
10003efa:	bf38      	it	cc
10003efc:	4613      	movcc	r3, r2
10003efe:	60bb      	str	r3, [r7, #8]
10003f00:	687b      	ldr	r3, [r7, #4]
10003f02:	68db      	ldr	r3, [r3, #12]
10003f04:	f423 2200 	bic.w	r2, r3, #524288	; 0x80000
10003f08:	687b      	ldr	r3, [r7, #4]
10003f0a:	60da      	str	r2, [r3, #12]
10003f0c:	687b      	ldr	r3, [r7, #4]
10003f0e:	68db      	ldr	r3, [r3, #12]
10003f10:	f003 0382 	and.w	r3, r3, #130	; 0x82
10003f14:	2b02      	cmp	r3, #2
10003f16:	d002      	beq.n	10003f1e <_fflush+0x3e>
10003f18:	f04f 33ff 	mov.w	r3, #4294967295
10003f1c:	e02a      	b.n	10003f74 <_fflush+0x94>
10003f1e:	687b      	ldr	r3, [r7, #4]
10003f20:	68db      	ldr	r3, [r3, #12]
10003f22:	f403 3380 	and.w	r3, r3, #65536	; 0x10000
10003f26:	2b00      	cmp	r3, #0
10003f28:	d023      	beq.n	10003f72 <_fflush+0x92>
10003f2a:	68ba      	ldr	r2, [r7, #8]
10003f2c:	68fb      	ldr	r3, [r7, #12]
10003f2e:	429a      	cmp	r2, r3
10003f30:	d00d      	beq.n	10003f4e <_fflush+0x6e>
10003f32:	68ba      	ldr	r2, [r7, #8]
10003f34:	68fb      	ldr	r3, [r7, #12]
10003f36:	1ad3      	subs	r3, r2, r3
10003f38:	68f8      	ldr	r0, [r7, #12]
10003f3a:	4619      	mov	r1, r3
10003f3c:	687a      	ldr	r2, [r7, #4]
10003f3e:	f000 f8c9 	bl	100040d4 <_Cwritebuf>
10003f42:	4603      	mov	r3, r0
10003f44:	2b00      	cmp	r3, #0
10003f46:	d002      	beq.n	10003f4e <_fflush+0x6e>
10003f48:	f04f 33ff 	mov.w	r3, #4294967295
10003f4c:	e012      	b.n	10003f74 <_fflush+0x94>
10003f4e:	687b      	ldr	r3, [r7, #4]
10003f50:	6a5b      	ldr	r3, [r3, #36]	; 0x24
10003f52:	68fa      	ldr	r2, [r7, #12]
10003f54:	60ba      	str	r2, [r7, #8]
10003f56:	68ba      	ldr	r2, [r7, #8]
10003f58:	609a      	str	r2, [r3, #8]
10003f5a:	689a      	ldr	r2, [r3, #8]
10003f5c:	687b      	ldr	r3, [r7, #4]
10003f5e:	601a      	str	r2, [r3, #0]
10003f60:	687b      	ldr	r3, [r7, #4]
10003f62:	2200      	movs	r2, #0
10003f64:	609a      	str	r2, [r3, #8]
10003f66:	687b      	ldr	r3, [r7, #4]
10003f68:	68db      	ldr	r3, [r3, #12]
10003f6a:	f423 3280 	bic.w	r2, r3, #65536	; 0x10000
10003f6e:	687b      	ldr	r3, [r7, #4]
10003f70:	60da      	str	r2, [r3, #12]
10003f72:	2300      	movs	r3, #0
10003f74:	4618      	mov	r0, r3
10003f76:	3710      	adds	r7, #16
10003f78:	46bd      	mov	sp, r7
10003f7a:	bd80      	pop	{r7, pc}

10003f7c <_frexpl>:
10003f7c:	b580      	push	{r7, lr}
10003f7e:	b088      	sub	sp, #32
10003f80:	af00      	add	r7, sp, #0
10003f82:	ed87 0b02 	vstr	d0, [r7, #8]
10003f86:	6078      	str	r0, [r7, #4]
10003f88:	e9d7 0102 	ldrd	r0, r1, [r7, #8]
10003f8c:	f04f 0200 	mov.w	r2, #0
10003f90:	f04f 0300 	mov.w	r3, #0
10003f94:	f000 ff61 	bl	10004e5a <__aeabi_dcmpeq>
10003f98:	4603      	mov	r3, r0
10003f9a:	2b00      	cmp	r3, #0
10003f9c:	d007      	beq.n	10003fae <_frexpl+0x32>
10003f9e:	687b      	ldr	r3, [r7, #4]
10003fa0:	2200      	movs	r2, #0
10003fa2:	601a      	str	r2, [r3, #0]
10003fa4:	f04f 0200 	mov.w	r2, #0
10003fa8:	f04f 0300 	mov.w	r3, #0
10003fac:	e038      	b.n	10004020 <_frexpl+0xa4>
10003fae:	e9d7 2302 	ldrd	r2, r3, [r7, #8]
10003fb2:	e9c7 2304 	strd	r2, r3, [r7, #16]
10003fb6:	8afb      	ldrh	r3, [r7, #22]
10003fb8:	f3c3 130a 	ubfx	r3, r3, #4, #11
10003fbc:	b29b      	uxth	r3, r3
10003fbe:	f2a3 33fe 	subw	r3, r3, #1022	; 0x3fe
10003fc2:	61fb      	str	r3, [r7, #28]
10003fc4:	69fb      	ldr	r3, [r7, #28]
10003fc6:	4a1b      	ldr	r2, [pc, #108]	; (10004034 <_frexpl+0xb8>)
10003fc8:	4293      	cmp	r3, r2
10003fca:	d11e      	bne.n	1000400a <_frexpl+0x8e>
10003fcc:	697b      	ldr	r3, [r7, #20]
10003fce:	f3c3 0313 	ubfx	r3, r3, #0, #20
10003fd2:	f403 2300 	and.w	r3, r3, #524288	; 0x80000
10003fd6:	61bb      	str	r3, [r7, #24]
10003fd8:	697b      	ldr	r3, [r7, #20]
10003fda:	f3c3 0313 	ubfx	r3, r3, #0, #20
10003fde:	005b      	lsls	r3, r3, #1
10003fe0:	461a      	mov	r2, r3
10003fe2:	693b      	ldr	r3, [r7, #16]
10003fe4:	0fdb      	lsrs	r3, r3, #31
10003fe6:	4313      	orrs	r3, r2
10003fe8:	f3c3 0213 	ubfx	r2, r3, #0, #20
10003fec:	697b      	ldr	r3, [r7, #20]
10003fee:	f362 0313 	bfi	r3, r2, #0, #20
10003ff2:	617b      	str	r3, [r7, #20]
10003ff4:	693b      	ldr	r3, [r7, #16]
10003ff6:	005b      	lsls	r3, r3, #1
10003ff8:	613b      	str	r3, [r7, #16]
10003ffa:	69bb      	ldr	r3, [r7, #24]
10003ffc:	2b00      	cmp	r3, #0
10003ffe:	d000      	beq.n	10004002 <_frexpl+0x86>
10004000:	e003      	b.n	1000400a <_frexpl+0x8e>
10004002:	69fb      	ldr	r3, [r7, #28]
10004004:	3b01      	subs	r3, #1
10004006:	61fb      	str	r3, [r7, #28]
10004008:	e7e0      	b.n	10003fcc <_frexpl+0x50>
1000400a:	687b      	ldr	r3, [r7, #4]
1000400c:	69fa      	ldr	r2, [r7, #28]
1000400e:	601a      	str	r2, [r3, #0]
10004010:	8afb      	ldrh	r3, [r7, #22]
10004012:	f240 32fe 	movw	r2, #1022	; 0x3fe
10004016:	f362 130e 	bfi	r3, r2, #4, #11
1000401a:	82fb      	strh	r3, [r7, #22]
1000401c:	e9d7 2304 	ldrd	r2, r3, [r7, #16]
10004020:	ec43 2b17 	vmov	d7, r2, r3
10004024:	eeb0 0a47 	vmov.f32	s0, s14
10004028:	eef0 0a67 	vmov.f32	s1, s15
1000402c:	3720      	adds	r7, #32
1000402e:	46bd      	mov	sp, r7
10004030:	bd80      	pop	{r7, pc}
10004032:	bf00      	nop
10004034:	fffffc02 	.word	0xfffffc02

10004038 <_ldexpl>:
10004038:	b580      	push	{r7, lr}
1000403a:	b088      	sub	sp, #32
1000403c:	af00      	add	r7, sp, #0
1000403e:	ed87 0b02 	vstr	d0, [r7, #8]
10004042:	6078      	str	r0, [r7, #4]
10004044:	e9d7 0102 	ldrd	r0, r1, [r7, #8]
10004048:	f04f 0200 	mov.w	r2, #0
1000404c:	f04f 0300 	mov.w	r3, #0
10004050:	f000 ff03 	bl	10004e5a <__aeabi_dcmpeq>
10004054:	4603      	mov	r3, r0
10004056:	2b00      	cmp	r3, #0
10004058:	d004      	beq.n	10004064 <_ldexpl+0x2c>
1000405a:	f04f 0200 	mov.w	r2, #0
1000405e:	f04f 0300 	mov.w	r3, #0
10004062:	e02a      	b.n	100040ba <_ldexpl+0x82>
10004064:	e9d7 2302 	ldrd	r2, r3, [r7, #8]
10004068:	e9c7 2304 	strd	r2, r3, [r7, #16]
1000406c:	8afb      	ldrh	r3, [r7, #22]
1000406e:	f3c3 130a 	ubfx	r3, r3, #4, #11
10004072:	b29b      	uxth	r3, r3
10004074:	461a      	mov	r2, r3
10004076:	687b      	ldr	r3, [r7, #4]
10004078:	4413      	add	r3, r2
1000407a:	61fb      	str	r3, [r7, #28]
1000407c:	69fb      	ldr	r3, [r7, #28]
1000407e:	f240 72fe 	movw	r2, #2046	; 0x7fe
10004082:	4293      	cmp	r3, r2
10004084:	dd06      	ble.n	10004094 <_ldexpl+0x5c>
10004086:	4b11      	ldr	r3, [pc, #68]	; (100040cc <_ldexpl+0x94>)
10004088:	2222      	movs	r2, #34	; 0x22
1000408a:	601a      	str	r2, [r3, #0]
1000408c:	4b10      	ldr	r3, [pc, #64]	; (100040d0 <_ldexpl+0x98>)
1000408e:	e9d3 2300 	ldrd	r2, r3, [r3]
10004092:	e012      	b.n	100040ba <_ldexpl+0x82>
10004094:	69fb      	ldr	r3, [r7, #28]
10004096:	2b00      	cmp	r3, #0
10004098:	dc04      	bgt.n	100040a4 <_ldexpl+0x6c>
1000409a:	f04f 0200 	mov.w	r2, #0
1000409e:	f04f 0300 	mov.w	r3, #0
100040a2:	e00a      	b.n	100040ba <_ldexpl+0x82>
100040a4:	69fb      	ldr	r3, [r7, #28]
100040a6:	b29b      	uxth	r3, r3
100040a8:	f3c3 030a 	ubfx	r3, r3, #0, #11
100040ac:	b29a      	uxth	r2, r3
100040ae:	8afb      	ldrh	r3, [r7, #22]
100040b0:	f362 130e 	bfi	r3, r2, #4, #11
100040b4:	82fb      	strh	r3, [r7, #22]
100040b6:	e9d7 2304 	ldrd	r2, r3, [r7, #16]
100040ba:	ec43 2b17 	vmov	d7, r2, r3
100040be:	eeb0 0a47 	vmov.f32	s0, s14
100040c2:	eef0 0a67 	vmov.f32	s1, s15
100040c6:	3720      	adds	r7, #32
100040c8:	46bd      	mov	sp, r7
100040ca:	bd80      	pop	{r7, pc}
100040cc:	10005314 	.word	0x10005314
100040d0:	10005220 	.word	0x10005220

100040d4 <_Cwritebuf>:
100040d4:	b580      	push	{r7, lr}
100040d6:	b088      	sub	sp, #32
100040d8:	af00      	add	r7, sp, #0
100040da:	60f8      	str	r0, [r7, #12]
100040dc:	60b9      	str	r1, [r7, #8]
100040de:	607a      	str	r2, [r7, #4]
100040e0:	687b      	ldr	r3, [r7, #4]
100040e2:	695b      	ldr	r3, [r3, #20]
100040e4:	61bb      	str	r3, [r7, #24]
100040e6:	687b      	ldr	r3, [r7, #4]
100040e8:	68db      	ldr	r3, [r3, #12]
100040ea:	61fb      	str	r3, [r7, #28]
100040ec:	69fb      	ldr	r3, [r7, #28]
100040ee:	f403 1380 	and.w	r3, r3, #1048576	; 0x100000
100040f2:	2b00      	cmp	r3, #0
100040f4:	d009      	beq.n	1000410a <_Cwritebuf+0x36>
100040f6:	69fb      	ldr	r3, [r7, #28]
100040f8:	f043 0310 	orr.w	r3, r3, #16
100040fc:	61fb      	str	r3, [r7, #28]
100040fe:	69b8      	ldr	r0, [r7, #24]
10004100:	f000 ff66 	bl	10004fd0 <__sys_flen>
10004104:	4602      	mov	r2, r0
10004106:	687b      	ldr	r3, [r7, #4]
10004108:	619a      	str	r2, [r3, #24]
1000410a:	69fa      	ldr	r2, [r7, #28]
1000410c:	4b23      	ldr	r3, [pc, #140]	; (1000419c <_Cwritebuf+0xc8>)
1000410e:	4013      	ands	r3, r2
10004110:	2b00      	cmp	r3, #0
10004112:	d01a      	beq.n	1000414a <_Cwritebuf+0x76>
10004114:	687b      	ldr	r3, [r7, #4]
10004116:	699b      	ldr	r3, [r3, #24]
10004118:	69b8      	ldr	r0, [r7, #24]
1000411a:	4619      	mov	r1, r3
1000411c:	f000 ff6a 	bl	10004ff4 <__sys_seek>
10004120:	4603      	mov	r3, r0
10004122:	2b00      	cmp	r3, #0
10004124:	da08      	bge.n	10004138 <_Cwritebuf+0x64>
10004126:	687b      	ldr	r3, [r7, #4]
10004128:	68db      	ldr	r3, [r3, #12]
1000412a:	f043 0280 	orr.w	r2, r3, #128	; 0x80
1000412e:	687b      	ldr	r3, [r7, #4]
10004130:	60da      	str	r2, [r3, #12]
10004132:	f04f 33ff 	mov.w	r3, #4294967295
10004136:	e02d      	b.n	10004194 <_Cwritebuf+0xc0>
10004138:	69fb      	ldr	r3, [r7, #28]
1000413a:	f423 3300 	bic.w	r3, r3, #131072	; 0x20000
1000413e:	f023 0310 	bic.w	r3, r3, #16
10004142:	61fb      	str	r3, [r7, #28]
10004144:	687b      	ldr	r3, [r7, #4]
10004146:	69fa      	ldr	r2, [r7, #28]
10004148:	60da      	str	r2, [r3, #12]
1000414a:	69b8      	ldr	r0, [r7, #24]
1000414c:	68f9      	ldr	r1, [r7, #12]
1000414e:	68ba      	ldr	r2, [r7, #8]
10004150:	f000 ff5c 	bl	1000500c <__sys_write>
10004154:	4602      	mov	r2, r0
10004156:	68bb      	ldr	r3, [r7, #8]
10004158:	429a      	cmp	r2, r3
1000415a:	d101      	bne.n	10004160 <_Cwritebuf+0x8c>
1000415c:	2300      	movs	r3, #0
1000415e:	e001      	b.n	10004164 <_Cwritebuf+0x90>
10004160:	f04f 33ff 	mov.w	r3, #4294967295
10004164:	617b      	str	r3, [r7, #20]
10004166:	687b      	ldr	r3, [r7, #4]
10004168:	699a      	ldr	r2, [r3, #24]
1000416a:	697b      	ldr	r3, [r7, #20]
1000416c:	f023 4300 	bic.w	r3, r3, #2147483648	; 0x80000000
10004170:	68b9      	ldr	r1, [r7, #8]
10004172:	1acb      	subs	r3, r1, r3
10004174:	441a      	add	r2, r3
10004176:	687b      	ldr	r3, [r7, #4]
10004178:	619a      	str	r2, [r3, #24]
1000417a:	697b      	ldr	r3, [r7, #20]
1000417c:	2b00      	cmp	r3, #0
1000417e:	d008      	beq.n	10004192 <_Cwritebuf+0xbe>
10004180:	687b      	ldr	r3, [r7, #4]
10004182:	68db      	ldr	r3, [r3, #12]
10004184:	f043 0280 	orr.w	r2, r3, #128	; 0x80
10004188:	687b      	ldr	r3, [r7, #4]
1000418a:	60da      	str	r2, [r3, #12]
1000418c:	f04f 33ff 	mov.w	r3, #4294967295
10004190:	e000      	b.n	10004194 <_Cwritebuf+0xc0>
10004192:	2300      	movs	r3, #0
10004194:	4618      	mov	r0, r3
10004196:	3720      	adds	r7, #32
10004198:	46bd      	mov	sp, r7
1000419a:	bd80      	pop	{r7, pc}
1000419c:	00020010 	.word	0x00020010

100041a0 <malloc>:
100041a0:	b580      	push	{r7, lr}
100041a2:	b08a      	sub	sp, #40	; 0x28
100041a4:	af00      	add	r7, sp, #0
100041a6:	6078      	str	r0, [r7, #4]
100041a8:	4b6a      	ldr	r3, [pc, #424]	; (10004354 <malloc+0x1b4>)
100041aa:	681b      	ldr	r3, [r3, #0]
100041ac:	627b      	str	r3, [r7, #36]	; 0x24
100041ae:	2300      	movs	r3, #0
100041b0:	623b      	str	r3, [r7, #32]
100041b2:	687b      	ldr	r3, [r7, #4]
100041b4:	3303      	adds	r3, #3
100041b6:	089b      	lsrs	r3, r3, #2
100041b8:	61bb      	str	r3, [r7, #24]
100041ba:	687b      	ldr	r3, [r7, #4]
100041bc:	2b00      	cmp	r3, #0
100041be:	d101      	bne.n	100041c4 <malloc+0x24>
100041c0:	2300      	movs	r3, #0
100041c2:	e0c2      	b.n	1000434a <malloc+0x1aa>
100041c4:	e096      	b.n	100042f4 <malloc+0x154>
100041c6:	6a7b      	ldr	r3, [r7, #36]	; 0x24
100041c8:	681b      	ldr	r3, [r3, #0]
100041ca:	f1b3 5f80 	cmp.w	r3, #268435456	; 0x10000000
100041ce:	f040 808c 	bne.w	100042ea <malloc+0x14a>
100041d2:	2300      	movs	r3, #0
100041d4:	61fb      	str	r3, [r7, #28]
100041d6:	6a7b      	ldr	r3, [r7, #36]	; 0x24
100041d8:	689b      	ldr	r3, [r3, #8]
100041da:	2b00      	cmp	r3, #0
100041dc:	d019      	beq.n	10004212 <malloc+0x72>
100041de:	6a7b      	ldr	r3, [r7, #36]	; 0x24
100041e0:	689b      	ldr	r3, [r3, #8]
100041e2:	681b      	ldr	r3, [r3, #0]
100041e4:	f1b3 5f80 	cmp.w	r3, #268435456	; 0x10000000
100041e8:	d110      	bne.n	1000420c <malloc+0x6c>
100041ea:	6a7b      	ldr	r3, [r7, #36]	; 0x24
100041ec:	685b      	ldr	r3, [r3, #4]
100041ee:	461a      	mov	r2, r3
100041f0:	6a7b      	ldr	r3, [r7, #36]	; 0x24
100041f2:	689b      	ldr	r3, [r3, #8]
100041f4:	685b      	ldr	r3, [r3, #4]
100041f6:	4413      	add	r3, r2
100041f8:	3303      	adds	r3, #3
100041fa:	461a      	mov	r2, r3
100041fc:	6a7b      	ldr	r3, [r7, #36]	; 0x24
100041fe:	605a      	str	r2, [r3, #4]
10004200:	6a7b      	ldr	r3, [r7, #36]	; 0x24
10004202:	689b      	ldr	r3, [r3, #8]
10004204:	689a      	ldr	r2, [r3, #8]
10004206:	6a7b      	ldr	r3, [r7, #36]	; 0x24
10004208:	609a      	str	r2, [r3, #8]
1000420a:	e004      	b.n	10004216 <malloc+0x76>
1000420c:	2301      	movs	r3, #1
1000420e:	61fb      	str	r3, [r7, #28]
10004210:	e001      	b.n	10004216 <malloc+0x76>
10004212:	2301      	movs	r3, #1
10004214:	61fb      	str	r3, [r7, #28]
10004216:	69fb      	ldr	r3, [r7, #28]
10004218:	2b00      	cmp	r3, #0
1000421a:	d0dc      	beq.n	100041d6 <malloc+0x36>
1000421c:	6a7b      	ldr	r3, [r7, #36]	; 0x24
1000421e:	685a      	ldr	r2, [r3, #4]
10004220:	69bb      	ldr	r3, [r7, #24]
10004222:	429a      	cmp	r2, r3
10004224:	db0f      	blt.n	10004246 <malloc+0xa6>
10004226:	6a7b      	ldr	r3, [r7, #36]	; 0x24
10004228:	685a      	ldr	r2, [r3, #4]
1000422a:	69bb      	ldr	r3, [r7, #24]
1000422c:	3304      	adds	r3, #4
1000422e:	429a      	cmp	r2, r3
10004230:	da09      	bge.n	10004246 <malloc+0xa6>
10004232:	6a7b      	ldr	r3, [r7, #36]	; 0x24
10004234:	f04f 5200 	mov.w	r2, #536870912	; 0x20000000
10004238:	601a      	str	r2, [r3, #0]
1000423a:	6a7b      	ldr	r3, [r7, #36]	; 0x24
1000423c:	3308      	adds	r3, #8
1000423e:	3304      	adds	r3, #4
10004240:	617b      	str	r3, [r7, #20]
10004242:	697b      	ldr	r3, [r7, #20]
10004244:	e081      	b.n	1000434a <malloc+0x1aa>
10004246:	6a7b      	ldr	r3, [r7, #36]	; 0x24
10004248:	685b      	ldr	r3, [r3, #4]
1000424a:	461a      	mov	r2, r3
1000424c:	69bb      	ldr	r3, [r7, #24]
1000424e:	330a      	adds	r3, #10
10004250:	429a      	cmp	r2, r3
10004252:	d929      	bls.n	100042a8 <malloc+0x108>
10004254:	6a7b      	ldr	r3, [r7, #36]	; 0x24
10004256:	685a      	ldr	r2, [r3, #4]
10004258:	69bb      	ldr	r3, [r7, #24]
1000425a:	1ad3      	subs	r3, r2, r3
1000425c:	3b03      	subs	r3, #3
1000425e:	613b      	str	r3, [r7, #16]
10004260:	6a7b      	ldr	r3, [r7, #36]	; 0x24
10004262:	69ba      	ldr	r2, [r7, #24]
10004264:	605a      	str	r2, [r3, #4]
10004266:	6a7b      	ldr	r3, [r7, #36]	; 0x24
10004268:	f04f 5200 	mov.w	r2, #536870912	; 0x20000000
1000426c:	601a      	str	r2, [r3, #0]
1000426e:	6a7b      	ldr	r3, [r7, #36]	; 0x24
10004270:	689b      	ldr	r3, [r3, #8]
10004272:	60fb      	str	r3, [r7, #12]
10004274:	6a7b      	ldr	r3, [r7, #36]	; 0x24
10004276:	3308      	adds	r3, #8
10004278:	3304      	adds	r3, #4
1000427a:	617b      	str	r3, [r7, #20]
1000427c:	69bb      	ldr	r3, [r7, #24]
1000427e:	009b      	lsls	r3, r3, #2
10004280:	461a      	mov	r2, r3
10004282:	697b      	ldr	r3, [r7, #20]
10004284:	441a      	add	r2, r3
10004286:	6a7b      	ldr	r3, [r7, #36]	; 0x24
10004288:	609a      	str	r2, [r3, #8]
1000428a:	6a7b      	ldr	r3, [r7, #36]	; 0x24
1000428c:	689b      	ldr	r3, [r3, #8]
1000428e:	627b      	str	r3, [r7, #36]	; 0x24
10004290:	6a7b      	ldr	r3, [r7, #36]	; 0x24
10004292:	f04f 5280 	mov.w	r2, #268435456	; 0x10000000
10004296:	601a      	str	r2, [r3, #0]
10004298:	6a7b      	ldr	r3, [r7, #36]	; 0x24
1000429a:	693a      	ldr	r2, [r7, #16]
1000429c:	605a      	str	r2, [r3, #4]
1000429e:	68fa      	ldr	r2, [r7, #12]
100042a0:	6a7b      	ldr	r3, [r7, #36]	; 0x24
100042a2:	609a      	str	r2, [r3, #8]
100042a4:	697b      	ldr	r3, [r7, #20]
100042a6:	e050      	b.n	1000434a <malloc+0x1aa>
100042a8:	6a7b      	ldr	r3, [r7, #36]	; 0x24
100042aa:	689b      	ldr	r3, [r3, #8]
100042ac:	2b00      	cmp	r3, #0
100042ae:	d11c      	bne.n	100042ea <malloc+0x14a>
100042b0:	6a7b      	ldr	r3, [r7, #36]	; 0x24
100042b2:	685b      	ldr	r3, [r3, #4]
100042b4:	009b      	lsls	r3, r3, #2
100042b6:	461a      	mov	r2, r3
100042b8:	687b      	ldr	r3, [r7, #4]
100042ba:	1a9b      	subs	r3, r3, r2
100042bc:	4618      	mov	r0, r3
100042be:	f000 fa65 	bl	1000478c <_sbrk>
100042c2:	6178      	str	r0, [r7, #20]
100042c4:	697b      	ldr	r3, [r7, #20]
100042c6:	f1b3 3fff 	cmp.w	r3, #4294967295
100042ca:	d101      	bne.n	100042d0 <malloc+0x130>
100042cc:	2300      	movs	r3, #0
100042ce:	e03c      	b.n	1000434a <malloc+0x1aa>
100042d0:	6a7b      	ldr	r3, [r7, #36]	; 0x24
100042d2:	f04f 5200 	mov.w	r2, #536870912	; 0x20000000
100042d6:	601a      	str	r2, [r3, #0]
100042d8:	6a7b      	ldr	r3, [r7, #36]	; 0x24
100042da:	69ba      	ldr	r2, [r7, #24]
100042dc:	605a      	str	r2, [r3, #4]
100042de:	6a7b      	ldr	r3, [r7, #36]	; 0x24
100042e0:	3308      	adds	r3, #8
100042e2:	3304      	adds	r3, #4
100042e4:	617b      	str	r3, [r7, #20]
100042e6:	697b      	ldr	r3, [r7, #20]
100042e8:	e02f      	b.n	1000434a <malloc+0x1aa>
100042ea:	6a7b      	ldr	r3, [r7, #36]	; 0x24
100042ec:	623b      	str	r3, [r7, #32]
100042ee:	6a7b      	ldr	r3, [r7, #36]	; 0x24
100042f0:	689b      	ldr	r3, [r3, #8]
100042f2:	627b      	str	r3, [r7, #36]	; 0x24
100042f4:	6a7b      	ldr	r3, [r7, #36]	; 0x24
100042f6:	2b00      	cmp	r3, #0
100042f8:	f47f af65 	bne.w	100041c6 <malloc+0x26>
100042fc:	687b      	ldr	r3, [r7, #4]
100042fe:	330c      	adds	r3, #12
10004300:	4618      	mov	r0, r3
10004302:	f000 fa43 	bl	1000478c <_sbrk>
10004306:	6278      	str	r0, [r7, #36]	; 0x24
10004308:	6a7b      	ldr	r3, [r7, #36]	; 0x24
1000430a:	f1b3 3fff 	cmp.w	r3, #4294967295
1000430e:	d101      	bne.n	10004314 <malloc+0x174>
10004310:	2300      	movs	r3, #0
10004312:	e01a      	b.n	1000434a <malloc+0x1aa>
10004314:	6a7b      	ldr	r3, [r7, #36]	; 0x24
10004316:	f04f 5200 	mov.w	r2, #536870912	; 0x20000000
1000431a:	601a      	str	r2, [r3, #0]
1000431c:	6a7b      	ldr	r3, [r7, #36]	; 0x24
1000431e:	69ba      	ldr	r2, [r7, #24]
10004320:	605a      	str	r2, [r3, #4]
10004322:	6a7b      	ldr	r3, [r7, #36]	; 0x24
10004324:	2200      	movs	r2, #0
10004326:	609a      	str	r2, [r3, #8]
10004328:	6a3b      	ldr	r3, [r7, #32]
1000432a:	2b00      	cmp	r3, #0
1000432c:	d103      	bne.n	10004336 <malloc+0x196>
1000432e:	4a09      	ldr	r2, [pc, #36]	; (10004354 <malloc+0x1b4>)
10004330:	6a7b      	ldr	r3, [r7, #36]	; 0x24
10004332:	6013      	str	r3, [r2, #0]
10004334:	e004      	b.n	10004340 <malloc+0x1a0>
10004336:	6a3b      	ldr	r3, [r7, #32]
10004338:	60bb      	str	r3, [r7, #8]
1000433a:	68bb      	ldr	r3, [r7, #8]
1000433c:	6a7a      	ldr	r2, [r7, #36]	; 0x24
1000433e:	609a      	str	r2, [r3, #8]
10004340:	6a7b      	ldr	r3, [r7, #36]	; 0x24
10004342:	3308      	adds	r3, #8
10004344:	3304      	adds	r3, #4
10004346:	617b      	str	r3, [r7, #20]
10004348:	697b      	ldr	r3, [r7, #20]
1000434a:	4618      	mov	r0, r3
1000434c:	3728      	adds	r7, #40	; 0x28
1000434e:	46bd      	mov	sp, r7
10004350:	bd80      	pop	{r7, pc}
10004352:	bf00      	nop
10004354:	10005460 	.word	0x10005460

10004358 <free>:
10004358:	b480      	push	{r7}
1000435a:	b085      	sub	sp, #20
1000435c:	af00      	add	r7, sp, #0
1000435e:	6078      	str	r0, [r7, #4]
10004360:	687b      	ldr	r3, [r7, #4]
10004362:	2b00      	cmp	r3, #0
10004364:	d02b      	beq.n	100043be <free+0x66>
10004366:	687b      	ldr	r3, [r7, #4]
10004368:	3b0c      	subs	r3, #12
1000436a:	60bb      	str	r3, [r7, #8]
1000436c:	68bb      	ldr	r3, [r7, #8]
1000436e:	f04f 5280 	mov.w	r2, #268435456	; 0x10000000
10004372:	601a      	str	r2, [r3, #0]
10004374:	2300      	movs	r3, #0
10004376:	60fb      	str	r3, [r7, #12]
10004378:	68bb      	ldr	r3, [r7, #8]
1000437a:	689b      	ldr	r3, [r3, #8]
1000437c:	2b00      	cmp	r3, #0
1000437e:	d019      	beq.n	100043b4 <free+0x5c>
10004380:	68bb      	ldr	r3, [r7, #8]
10004382:	689b      	ldr	r3, [r3, #8]
10004384:	681b      	ldr	r3, [r3, #0]
10004386:	f1b3 5f80 	cmp.w	r3, #268435456	; 0x10000000
1000438a:	d110      	bne.n	100043ae <free+0x56>
1000438c:	68bb      	ldr	r3, [r7, #8]
1000438e:	685b      	ldr	r3, [r3, #4]
10004390:	461a      	mov	r2, r3
10004392:	68bb      	ldr	r3, [r7, #8]
10004394:	689b      	ldr	r3, [r3, #8]
10004396:	685b      	ldr	r3, [r3, #4]
10004398:	4413      	add	r3, r2
1000439a:	3303      	adds	r3, #3
1000439c:	461a      	mov	r2, r3
1000439e:	68bb      	ldr	r3, [r7, #8]
100043a0:	605a      	str	r2, [r3, #4]
100043a2:	68bb      	ldr	r3, [r7, #8]
100043a4:	689b      	ldr	r3, [r3, #8]
100043a6:	689a      	ldr	r2, [r3, #8]
100043a8:	68bb      	ldr	r3, [r7, #8]
100043aa:	609a      	str	r2, [r3, #8]
100043ac:	e004      	b.n	100043b8 <free+0x60>
100043ae:	2301      	movs	r3, #1
100043b0:	60fb      	str	r3, [r7, #12]
100043b2:	e001      	b.n	100043b8 <free+0x60>
100043b4:	2301      	movs	r3, #1
100043b6:	60fb      	str	r3, [r7, #12]
100043b8:	68fb      	ldr	r3, [r7, #12]
100043ba:	2b00      	cmp	r3, #0
100043bc:	d0dc      	beq.n	10004378 <free+0x20>
100043be:	3714      	adds	r7, #20
100043c0:	46bd      	mov	sp, r7
100043c2:	f85d 7b04 	ldr.w	r7, [sp], #4
100043c6:	4770      	bx	lr

100043c8 <_Csys_alloc>:
100043c8:	b580      	push	{r7, lr}
100043ca:	b084      	sub	sp, #16
100043cc:	af00      	add	r7, sp, #0
100043ce:	6078      	str	r0, [r7, #4]
100043d0:	6878      	ldr	r0, [r7, #4]
100043d2:	f7ff fee5 	bl	100041a0 <malloc>
100043d6:	60f8      	str	r0, [r7, #12]
100043d8:	68fb      	ldr	r3, [r7, #12]
100043da:	2b00      	cmp	r3, #0
100043dc:	d001      	beq.n	100043e2 <_Csys_alloc+0x1a>
100043de:	68fb      	ldr	r3, [r7, #12]
100043e0:	e007      	b.n	100043f2 <_Csys_alloc+0x2a>
100043e2:	2000      	movs	r0, #0
100043e4:	4905      	ldr	r1, [pc, #20]	; (100043fc <_Csys_alloc+0x34>)
100043e6:	2217      	movs	r2, #23
100043e8:	f000 fe10 	bl	1000500c <__sys_write>
100043ec:	f000 fde4 	bl	10004fb8 <__exit>
100043f0:	2300      	movs	r3, #0
100043f2:	4618      	mov	r0, r3
100043f4:	3710      	adds	r7, #16
100043f6:	46bd      	mov	sp, r7
100043f8:	bd80      	pop	{r7, pc}
100043fa:	bf00      	nop
100043fc:	10005204 	.word	0x10005204

10004400 <fclose>:
10004400:	b580      	push	{r7, lr}
10004402:	b08e      	sub	sp, #56	; 0x38
10004404:	af00      	add	r7, sp, #0
10004406:	6078      	str	r0, [r7, #4]
10004408:	687b      	ldr	r3, [r7, #4]
1000440a:	695b      	ldr	r3, [r3, #20]
1000440c:	637b      	str	r3, [r7, #52]	; 0x34
1000440e:	687b      	ldr	r3, [r7, #4]
10004410:	691b      	ldr	r3, [r3, #16]
10004412:	633b      	str	r3, [r7, #48]	; 0x30
10004414:	687b      	ldr	r3, [r7, #4]
10004416:	68db      	ldr	r3, [r3, #12]
10004418:	62fb      	str	r3, [r7, #44]	; 0x2c
1000441a:	687b      	ldr	r3, [r7, #4]
1000441c:	6a5b      	ldr	r3, [r3, #36]	; 0x24
1000441e:	62bb      	str	r3, [r7, #40]	; 0x28
10004420:	6afb      	ldr	r3, [r7, #44]	; 0x2c
10004422:	f003 0303 	and.w	r3, r3, #3
10004426:	2b00      	cmp	r3, #0
10004428:	d102      	bne.n	10004430 <fclose+0x30>
1000442a:	f04f 33ff 	mov.w	r3, #4294967295
1000442e:	e036      	b.n	1000449e <fclose+0x9e>
10004430:	6afb      	ldr	r3, [r7, #44]	; 0x2c
10004432:	f003 0308 	and.w	r3, r3, #8
10004436:	2b00      	cmp	r3, #0
10004438:	d121      	bne.n	1000447e <fclose+0x7e>
1000443a:	6878      	ldr	r0, [r7, #4]
1000443c:	f000 f834 	bl	100044a8 <fflush>
10004440:	6b78      	ldr	r0, [r7, #52]	; 0x34
10004442:	f000 fdbf 	bl	10004fc4 <__sys_close>
10004446:	6afb      	ldr	r3, [r7, #44]	; 0x2c
10004448:	f403 6300 	and.w	r3, r3, #2048	; 0x800
1000444c:	2b00      	cmp	r3, #0
1000444e:	d002      	beq.n	10004456 <fclose+0x56>
10004450:	6b38      	ldr	r0, [r7, #48]	; 0x30
10004452:	f7ff ff81 	bl	10004358 <free>
10004456:	6afb      	ldr	r3, [r7, #44]	; 0x2c
10004458:	0d9b      	lsrs	r3, r3, #22
1000445a:	059b      	lsls	r3, r3, #22
1000445c:	f113 4fa5 	cmn.w	r3, #1384120320	; 0x52800000
10004460:	d10d      	bne.n	1000447e <fclose+0x7e>
10004462:	687b      	ldr	r3, [r7, #4]
10004464:	6a1b      	ldr	r3, [r3, #32]
10004466:	f107 0208 	add.w	r2, r7, #8
1000446a:	4610      	mov	r0, r2
1000446c:	4619      	mov	r1, r3
1000446e:	2220      	movs	r2, #32
10004470:	f000 fdc6 	bl	10005000 <__sys_tmpnam>
10004474:	f107 0308 	add.w	r3, r7, #8
10004478:	4618      	mov	r0, r3
1000447a:	f000 f975 	bl	10004768 <remove>
1000447e:	687b      	ldr	r3, [r7, #4]
10004480:	6a5b      	ldr	r3, [r3, #36]	; 0x24
10004482:	4618      	mov	r0, r3
10004484:	2100      	movs	r1, #0
10004486:	2218      	movs	r2, #24
10004488:	f7ff fb60 	bl	10003b4c <memset>
1000448c:	6878      	ldr	r0, [r7, #4]
1000448e:	2100      	movs	r1, #0
10004490:	2228      	movs	r2, #40	; 0x28
10004492:	f7ff fb5b 	bl	10003b4c <memset>
10004496:	687b      	ldr	r3, [r7, #4]
10004498:	6aba      	ldr	r2, [r7, #40]	; 0x28
1000449a:	625a      	str	r2, [r3, #36]	; 0x24
1000449c:	2300      	movs	r3, #0
1000449e:	4618      	mov	r0, r3
100044a0:	3738      	adds	r7, #56	; 0x38
100044a2:	46bd      	mov	sp, r7
100044a4:	bd80      	pop	{r7, pc}
100044a6:	bf00      	nop

100044a8 <fflush>:
100044a8:	b580      	push	{r7, lr}
100044aa:	b084      	sub	sp, #16
100044ac:	af00      	add	r7, sp, #0
100044ae:	6078      	str	r0, [r7, #4]
100044b0:	2300      	movs	r3, #0
100044b2:	60fb      	str	r3, [r7, #12]
100044b4:	687b      	ldr	r3, [r7, #4]
100044b6:	2b00      	cmp	r3, #0
100044b8:	d004      	beq.n	100044c4 <fflush+0x1c>
100044ba:	6878      	ldr	r0, [r7, #4]
100044bc:	f000 f996 	bl	100047ec <_do_fflush>
100044c0:	60f8      	str	r0, [r7, #12]
100044c2:	e018      	b.n	100044f6 <fflush+0x4e>
100044c4:	2300      	movs	r3, #0
100044c6:	60bb      	str	r3, [r7, #8]
100044c8:	e012      	b.n	100044f0 <fflush+0x48>
100044ca:	68ba      	ldr	r2, [r7, #8]
100044cc:	4613      	mov	r3, r2
100044ce:	009b      	lsls	r3, r3, #2
100044d0:	4413      	add	r3, r2
100044d2:	00db      	lsls	r3, r3, #3
100044d4:	4a0a      	ldr	r2, [pc, #40]	; (10004500 <fflush+0x58>)
100044d6:	4413      	add	r3, r2
100044d8:	4618      	mov	r0, r3
100044da:	f000 f987 	bl	100047ec <_do_fflush>
100044de:	4603      	mov	r3, r0
100044e0:	2b00      	cmp	r3, #0
100044e2:	d002      	beq.n	100044ea <fflush+0x42>
100044e4:	f04f 33ff 	mov.w	r3, #4294967295
100044e8:	60fb      	str	r3, [r7, #12]
100044ea:	68bb      	ldr	r3, [r7, #8]
100044ec:	3301      	adds	r3, #1
100044ee:	60bb      	str	r3, [r7, #8]
100044f0:	68bb      	ldr	r3, [r7, #8]
100044f2:	2b07      	cmp	r3, #7
100044f4:	dde9      	ble.n	100044ca <fflush+0x22>
100044f6:	68fb      	ldr	r3, [r7, #12]
100044f8:	4618      	mov	r0, r3
100044fa:	3710      	adds	r7, #16
100044fc:	46bd      	mov	sp, r7
100044fe:	bd80      	pop	{r7, pc}
10004500:	10005320 	.word	0x10005320

10004504 <fseek>:
10004504:	b580      	push	{r7, lr}
10004506:	b088      	sub	sp, #32
10004508:	af00      	add	r7, sp, #0
1000450a:	60f8      	str	r0, [r7, #12]
1000450c:	60b9      	str	r1, [r7, #8]
1000450e:	607a      	str	r2, [r7, #4]
10004510:	68fb      	ldr	r3, [r7, #12]
10004512:	695b      	ldr	r3, [r3, #20]
10004514:	613b      	str	r3, [r7, #16]
10004516:	68fb      	ldr	r3, [r7, #12]
10004518:	68db      	ldr	r3, [r3, #12]
1000451a:	61fb      	str	r3, [r7, #28]
1000451c:	69fa      	ldr	r2, [r7, #28]
1000451e:	4b6d      	ldr	r3, [pc, #436]	; (100046d4 <fseek+0x1d0>)
10004520:	4013      	ands	r3, r2
10004522:	2b00      	cmp	r3, #0
10004524:	d005      	beq.n	10004532 <fseek+0x2e>
10004526:	6938      	ldr	r0, [r7, #16]
10004528:	f000 fd58 	bl	10004fdc <__sys_istty>
1000452c:	4603      	mov	r3, r0
1000452e:	2b00      	cmp	r3, #0
10004530:	d001      	beq.n	10004536 <fseek+0x32>
10004532:	2302      	movs	r3, #2
10004534:	e0ca      	b.n	100046cc <fseek+0x1c8>
10004536:	687b      	ldr	r3, [r7, #4]
10004538:	2b01      	cmp	r3, #1
1000453a:	d004      	beq.n	10004546 <fseek+0x42>
1000453c:	2b02      	cmp	r3, #2
1000453e:	d00a      	beq.n	10004556 <fseek+0x52>
10004540:	2b00      	cmp	r3, #0
10004542:	d044      	beq.n	100045ce <fseek+0xca>
10004544:	e041      	b.n	100045ca <fseek+0xc6>
10004546:	68f8      	ldr	r0, [r7, #12]
10004548:	f000 f8c6 	bl	100046d8 <ftell>
1000454c:	4602      	mov	r2, r0
1000454e:	68bb      	ldr	r3, [r7, #8]
10004550:	4413      	add	r3, r2
10004552:	60bb      	str	r3, [r7, #8]
10004554:	e03c      	b.n	100045d0 <fseek+0xcc>
10004556:	6938      	ldr	r0, [r7, #16]
10004558:	f000 fd3a 	bl	10004fd0 <__sys_flen>
1000455c:	61b8      	str	r0, [r7, #24]
1000455e:	69bb      	ldr	r3, [r7, #24]
10004560:	2b00      	cmp	r3, #0
10004562:	da07      	bge.n	10004574 <fseek+0x70>
10004564:	68fb      	ldr	r3, [r7, #12]
10004566:	68db      	ldr	r3, [r3, #12]
10004568:	f043 0280 	orr.w	r2, r3, #128	; 0x80
1000456c:	68fb      	ldr	r3, [r7, #12]
1000456e:	60da      	str	r2, [r3, #12]
10004570:	2301      	movs	r3, #1
10004572:	e0ab      	b.n	100046cc <fseek+0x1c8>
10004574:	68fb      	ldr	r3, [r7, #12]
10004576:	681a      	ldr	r2, [r3, #0]
10004578:	68fb      	ldr	r3, [r7, #12]
1000457a:	6a5b      	ldr	r3, [r3, #36]	; 0x24
1000457c:	689b      	ldr	r3, [r3, #8]
1000457e:	4293      	cmp	r3, r2
10004580:	bf38      	it	cc
10004582:	4613      	movcc	r3, r2
10004584:	68fa      	ldr	r2, [r7, #12]
10004586:	6992      	ldr	r2, [r2, #24]
10004588:	4413      	add	r3, r2
1000458a:	461a      	mov	r2, r3
1000458c:	68fb      	ldr	r3, [r7, #12]
1000458e:	691b      	ldr	r3, [r3, #16]
10004590:	1ad3      	subs	r3, r2, r3
10004592:	617b      	str	r3, [r7, #20]
10004594:	68fb      	ldr	r3, [r7, #12]
10004596:	68db      	ldr	r3, [r3, #12]
10004598:	f003 0320 	and.w	r3, r3, #32
1000459c:	2b00      	cmp	r3, #0
1000459e:	d009      	beq.n	100045b4 <fseek+0xb0>
100045a0:	68fb      	ldr	r3, [r7, #12]
100045a2:	6a5b      	ldr	r3, [r3, #36]	; 0x24
100045a4:	685a      	ldr	r2, [r3, #4]
100045a6:	697b      	ldr	r3, [r7, #20]
100045a8:	429a      	cmp	r2, r3
100045aa:	dd03      	ble.n	100045b4 <fseek+0xb0>
100045ac:	68fb      	ldr	r3, [r7, #12]
100045ae:	6a5b      	ldr	r3, [r3, #36]	; 0x24
100045b0:	685b      	ldr	r3, [r3, #4]
100045b2:	617b      	str	r3, [r7, #20]
100045b4:	697a      	ldr	r2, [r7, #20]
100045b6:	69bb      	ldr	r3, [r7, #24]
100045b8:	429a      	cmp	r2, r3
100045ba:	dd01      	ble.n	100045c0 <fseek+0xbc>
100045bc:	697b      	ldr	r3, [r7, #20]
100045be:	61bb      	str	r3, [r7, #24]
100045c0:	68ba      	ldr	r2, [r7, #8]
100045c2:	69bb      	ldr	r3, [r7, #24]
100045c4:	4413      	add	r3, r2
100045c6:	60bb      	str	r3, [r7, #8]
100045c8:	e002      	b.n	100045d0 <fseek+0xcc>
100045ca:	2302      	movs	r3, #2
100045cc:	e07e      	b.n	100046cc <fseek+0x1c8>
100045ce:	bf00      	nop
100045d0:	68bb      	ldr	r3, [r7, #8]
100045d2:	2b00      	cmp	r3, #0
100045d4:	da01      	bge.n	100045da <fseek+0xd6>
100045d6:	2302      	movs	r3, #2
100045d8:	e078      	b.n	100046cc <fseek+0x1c8>
100045da:	69fb      	ldr	r3, [r7, #28]
100045dc:	f403 5300 	and.w	r3, r3, #8192	; 0x2000
100045e0:	2b00      	cmp	r3, #0
100045e2:	d00b      	beq.n	100045fc <fseek+0xf8>
100045e4:	68fb      	ldr	r3, [r7, #12]
100045e6:	6a5b      	ldr	r3, [r3, #36]	; 0x24
100045e8:	689a      	ldr	r2, [r3, #8]
100045ea:	68fb      	ldr	r3, [r7, #12]
100045ec:	681b      	ldr	r3, [r3, #0]
100045ee:	429a      	cmp	r2, r3
100045f0:	d204      	bcs.n	100045fc <fseek+0xf8>
100045f2:	68fb      	ldr	r3, [r7, #12]
100045f4:	6a5b      	ldr	r3, [r3, #36]	; 0x24
100045f6:	68fa      	ldr	r2, [r7, #12]
100045f8:	6812      	ldr	r2, [r2, #0]
100045fa:	609a      	str	r2, [r3, #8]
100045fc:	68fb      	ldr	r3, [r7, #12]
100045fe:	699a      	ldr	r2, [r3, #24]
10004600:	68bb      	ldr	r3, [r7, #8]
10004602:	429a      	cmp	r2, r3
10004604:	dc1a      	bgt.n	1000463c <fseek+0x138>
10004606:	68fb      	ldr	r3, [r7, #12]
10004608:	681a      	ldr	r2, [r3, #0]
1000460a:	68fb      	ldr	r3, [r7, #12]
1000460c:	6a5b      	ldr	r3, [r3, #36]	; 0x24
1000460e:	689b      	ldr	r3, [r3, #8]
10004610:	4293      	cmp	r3, r2
10004612:	bf38      	it	cc
10004614:	4613      	movcc	r3, r2
10004616:	68fa      	ldr	r2, [r7, #12]
10004618:	6992      	ldr	r2, [r2, #24]
1000461a:	4413      	add	r3, r2
1000461c:	461a      	mov	r2, r3
1000461e:	68fb      	ldr	r3, [r7, #12]
10004620:	691b      	ldr	r3, [r3, #16]
10004622:	1ad2      	subs	r2, r2, r3
10004624:	68bb      	ldr	r3, [r7, #8]
10004626:	429a      	cmp	r2, r3
10004628:	db08      	blt.n	1000463c <fseek+0x138>
1000462a:	68fb      	ldr	r3, [r7, #12]
1000462c:	699a      	ldr	r2, [r3, #24]
1000462e:	68fb      	ldr	r3, [r7, #12]
10004630:	6a5b      	ldr	r3, [r3, #36]	; 0x24
10004632:	68db      	ldr	r3, [r3, #12]
10004634:	441a      	add	r2, r3
10004636:	68bb      	ldr	r3, [r7, #8]
10004638:	429a      	cmp	r2, r3
1000463a:	dc0f      	bgt.n	1000465c <fseek+0x158>
1000463c:	69fb      	ldr	r3, [r7, #28]
1000463e:	f043 0320 	orr.w	r3, r3, #32
10004642:	61fb      	str	r3, [r7, #28]
10004644:	68fb      	ldr	r3, [r7, #12]
10004646:	2200      	movs	r2, #0
10004648:	609a      	str	r2, [r3, #8]
1000464a:	68fb      	ldr	r3, [r7, #12]
1000464c:	689a      	ldr	r2, [r3, #8]
1000464e:	68fb      	ldr	r3, [r7, #12]
10004650:	605a      	str	r2, [r3, #4]
10004652:	68fb      	ldr	r3, [r7, #12]
10004654:	6a5b      	ldr	r3, [r3, #36]	; 0x24
10004656:	68ba      	ldr	r2, [r7, #8]
10004658:	605a      	str	r2, [r3, #4]
1000465a:	e02f      	b.n	100046bc <fseek+0x1b8>
1000465c:	68fb      	ldr	r3, [r7, #12]
1000465e:	699b      	ldr	r3, [r3, #24]
10004660:	68ba      	ldr	r2, [r7, #8]
10004662:	1ad3      	subs	r3, r2, r3
10004664:	60bb      	str	r3, [r7, #8]
10004666:	69fb      	ldr	r3, [r7, #28]
10004668:	f003 0302 	and.w	r3, r3, #2
1000466c:	2b00      	cmp	r3, #0
1000466e:	d006      	beq.n	1000467e <fseek+0x17a>
10004670:	68fb      	ldr	r3, [r7, #12]
10004672:	6a5b      	ldr	r3, [r3, #36]	; 0x24
10004674:	68db      	ldr	r3, [r3, #12]
10004676:	68ba      	ldr	r2, [r7, #8]
10004678:	1ad2      	subs	r2, r2, r3
1000467a:	68fb      	ldr	r3, [r7, #12]
1000467c:	609a      	str	r2, [r3, #8]
1000467e:	69fb      	ldr	r3, [r7, #28]
10004680:	f003 0301 	and.w	r3, r3, #1
10004684:	2b00      	cmp	r3, #0
10004686:	d00f      	beq.n	100046a8 <fseek+0x1a4>
10004688:	68fb      	ldr	r3, [r7, #12]
1000468a:	691b      	ldr	r3, [r3, #16]
1000468c:	4619      	mov	r1, r3
1000468e:	68fb      	ldr	r3, [r7, #12]
10004690:	681a      	ldr	r2, [r3, #0]
10004692:	68fb      	ldr	r3, [r7, #12]
10004694:	6a5b      	ldr	r3, [r3, #36]	; 0x24
10004696:	689b      	ldr	r3, [r3, #8]
10004698:	4293      	cmp	r3, r2
1000469a:	bf38      	it	cc
1000469c:	4613      	movcc	r3, r2
1000469e:	1aca      	subs	r2, r1, r3
100046a0:	68bb      	ldr	r3, [r7, #8]
100046a2:	441a      	add	r2, r3
100046a4:	68fb      	ldr	r3, [r7, #12]
100046a6:	605a      	str	r2, [r3, #4]
100046a8:	68fb      	ldr	r3, [r7, #12]
100046aa:	691a      	ldr	r2, [r3, #16]
100046ac:	68bb      	ldr	r3, [r7, #8]
100046ae:	441a      	add	r2, r3
100046b0:	68fb      	ldr	r3, [r7, #12]
100046b2:	601a      	str	r2, [r3, #0]
100046b4:	69fb      	ldr	r3, [r7, #28]
100046b6:	f023 0320 	bic.w	r3, r3, #32
100046ba:	61fb      	str	r3, [r7, #28]
100046bc:	69fb      	ldr	r3, [r7, #28]
100046be:	f423 2303 	bic.w	r3, r3, #536576	; 0x83000
100046c2:	f023 0340 	bic.w	r3, r3, #64	; 0x40
100046c6:	68fa      	ldr	r2, [r7, #12]
100046c8:	60d3      	str	r3, [r2, #12]
100046ca:	2300      	movs	r3, #0
100046cc:	4618      	mov	r0, r3
100046ce:	3720      	adds	r7, #32
100046d0:	46bd      	mov	sp, r7
100046d2:	bd80      	pop	{r7, pc}
100046d4:	00100003 	.word	0x00100003

100046d8 <ftell>:
100046d8:	b480      	push	{r7}
100046da:	b083      	sub	sp, #12
100046dc:	af00      	add	r7, sp, #0
100046de:	6078      	str	r0, [r7, #4]
100046e0:	687b      	ldr	r3, [r7, #4]
100046e2:	68db      	ldr	r3, [r3, #12]
100046e4:	f003 0303 	and.w	r3, r3, #3
100046e8:	2b00      	cmp	r3, #0
100046ea:	d105      	bne.n	100046f8 <ftell+0x20>
100046ec:	4b1d      	ldr	r3, [pc, #116]	; (10004764 <ftell+0x8c>)
100046ee:	2221      	movs	r2, #33	; 0x21
100046f0:	601a      	str	r2, [r3, #0]
100046f2:	f04f 33ff 	mov.w	r3, #4294967295
100046f6:	e02f      	b.n	10004758 <ftell+0x80>
100046f8:	687b      	ldr	r3, [r7, #4]
100046fa:	68db      	ldr	r3, [r3, #12]
100046fc:	f403 2300 	and.w	r3, r3, #524288	; 0x80000
10004700:	2b00      	cmp	r3, #0
10004702:	d015      	beq.n	10004730 <ftell+0x58>
10004704:	687b      	ldr	r3, [r7, #4]
10004706:	68db      	ldr	r3, [r3, #12]
10004708:	f003 0320 	and.w	r3, r3, #32
1000470c:	2b00      	cmp	r3, #0
1000470e:	d004      	beq.n	1000471a <ftell+0x42>
10004710:	687b      	ldr	r3, [r7, #4]
10004712:	6a5b      	ldr	r3, [r3, #36]	; 0x24
10004714:	685b      	ldr	r3, [r3, #4]
10004716:	3b01      	subs	r3, #1
10004718:	e01e      	b.n	10004758 <ftell+0x80>
1000471a:	687b      	ldr	r3, [r7, #4]
1000471c:	681b      	ldr	r3, [r3, #0]
1000471e:	687a      	ldr	r2, [r7, #4]
10004720:	6992      	ldr	r2, [r2, #24]
10004722:	4413      	add	r3, r2
10004724:	461a      	mov	r2, r3
10004726:	687b      	ldr	r3, [r7, #4]
10004728:	691b      	ldr	r3, [r3, #16]
1000472a:	1ad3      	subs	r3, r2, r3
1000472c:	3b01      	subs	r3, #1
1000472e:	e013      	b.n	10004758 <ftell+0x80>
10004730:	687b      	ldr	r3, [r7, #4]
10004732:	68db      	ldr	r3, [r3, #12]
10004734:	f003 0320 	and.w	r3, r3, #32
10004738:	2b00      	cmp	r3, #0
1000473a:	d003      	beq.n	10004744 <ftell+0x6c>
1000473c:	687b      	ldr	r3, [r7, #4]
1000473e:	6a5b      	ldr	r3, [r3, #36]	; 0x24
10004740:	685b      	ldr	r3, [r3, #4]
10004742:	e008      	b.n	10004756 <ftell+0x7e>
10004744:	687b      	ldr	r3, [r7, #4]
10004746:	681b      	ldr	r3, [r3, #0]
10004748:	687a      	ldr	r2, [r7, #4]
1000474a:	6992      	ldr	r2, [r2, #24]
1000474c:	4413      	add	r3, r2
1000474e:	461a      	mov	r2, r3
10004750:	687b      	ldr	r3, [r7, #4]
10004752:	691b      	ldr	r3, [r3, #16]
10004754:	1ad3      	subs	r3, r2, r3
10004756:	bf00      	nop
10004758:	4618      	mov	r0, r3
1000475a:	370c      	adds	r7, #12
1000475c:	46bd      	mov	sp, r7
1000475e:	f85d 7b04 	ldr.w	r7, [sp], #4
10004762:	4770      	bx	lr
10004764:	10005314 	.word	0x10005314

10004768 <remove>:
10004768:	b580      	push	{r7, lr}
1000476a:	b082      	sub	sp, #8
1000476c:	af00      	add	r7, sp, #0
1000476e:	6078      	str	r0, [r7, #4]
10004770:	6878      	ldr	r0, [r7, #4]
10004772:	f7ff f997 	bl	10003aa4 <strlen>
10004776:	4603      	mov	r3, r0
10004778:	6878      	ldr	r0, [r7, #4]
1000477a:	4619      	mov	r1, r3
1000477c:	f000 fc34 	bl	10004fe8 <__sys_remove>
10004780:	4603      	mov	r3, r0
10004782:	4618      	mov	r0, r3
10004784:	3708      	adds	r7, #8
10004786:	46bd      	mov	sp, r7
10004788:	bd80      	pop	{r7, pc}
1000478a:	bf00      	nop

1000478c <_sbrk>:
1000478c:	b580      	push	{r7, lr}
1000478e:	b084      	sub	sp, #16
10004790:	af00      	add	r7, sp, #0
10004792:	6078      	str	r0, [r7, #4]
10004794:	4b12      	ldr	r3, [pc, #72]	; (100047e0 <_sbrk+0x54>)
10004796:	681b      	ldr	r3, [r3, #0]
10004798:	2b00      	cmp	r3, #0
1000479a:	d102      	bne.n	100047a2 <_sbrk+0x16>
1000479c:	4b10      	ldr	r3, [pc, #64]	; (100047e0 <_sbrk+0x54>)
1000479e:	4a11      	ldr	r2, [pc, #68]	; (100047e4 <_sbrk+0x58>)
100047a0:	601a      	str	r2, [r3, #0]
100047a2:	4b0f      	ldr	r3, [pc, #60]	; (100047e0 <_sbrk+0x54>)
100047a4:	681b      	ldr	r3, [r3, #0]
100047a6:	60fb      	str	r3, [r7, #12]
100047a8:	4b0d      	ldr	r3, [pc, #52]	; (100047e0 <_sbrk+0x54>)
100047aa:	681a      	ldr	r2, [r3, #0]
100047ac:	687b      	ldr	r3, [r7, #4]
100047ae:	3303      	adds	r3, #3
100047b0:	f023 0303 	bic.w	r3, r3, #3
100047b4:	4413      	add	r3, r2
100047b6:	60bb      	str	r3, [r7, #8]
100047b8:	68b8      	ldr	r0, [r7, #8]
100047ba:	f000 f855 	bl	10004868 <__check_heap_overflow>
100047be:	4603      	mov	r3, r0
100047c0:	2b00      	cmp	r3, #0
100047c2:	d104      	bne.n	100047ce <_sbrk+0x42>
100047c4:	4a06      	ldr	r2, [pc, #24]	; (100047e0 <_sbrk+0x54>)
100047c6:	68bb      	ldr	r3, [r7, #8]
100047c8:	6013      	str	r3, [r2, #0]
100047ca:	68fb      	ldr	r3, [r7, #12]
100047cc:	e004      	b.n	100047d8 <_sbrk+0x4c>
100047ce:	4b06      	ldr	r3, [pc, #24]	; (100047e8 <_sbrk+0x5c>)
100047d0:	220c      	movs	r2, #12
100047d2:	601a      	str	r2, [r3, #0]
100047d4:	f04f 33ff 	mov.w	r3, #4294967295
100047d8:	4618      	mov	r0, r3
100047da:	3710      	adds	r7, #16
100047dc:	46bd      	mov	sp, r7
100047de:	bd80      	pop	{r7, pc}
100047e0:	10005464 	.word	0x10005464
100047e4:	10005468 	.word	0x10005468
100047e8:	10005314 	.word	0x10005314

100047ec <_do_fflush>:
100047ec:	b580      	push	{r7, lr}
100047ee:	b084      	sub	sp, #16
100047f0:	af00      	add	r7, sp, #0
100047f2:	6078      	str	r0, [r7, #4]
100047f4:	687b      	ldr	r3, [r7, #4]
100047f6:	68db      	ldr	r3, [r3, #12]
100047f8:	f003 0303 	and.w	r3, r3, #3
100047fc:	2b00      	cmp	r3, #0
100047fe:	d02d      	beq.n	1000485c <_do_fflush+0x70>
10004800:	687b      	ldr	r3, [r7, #4]
10004802:	68db      	ldr	r3, [r3, #12]
10004804:	f003 0320 	and.w	r3, r3, #32
10004808:	2b00      	cmp	r3, #0
1000480a:	d003      	beq.n	10004814 <_do_fflush+0x28>
1000480c:	687b      	ldr	r3, [r7, #4]
1000480e:	6a5b      	ldr	r3, [r3, #36]	; 0x24
10004810:	685b      	ldr	r3, [r3, #4]
10004812:	e008      	b.n	10004826 <_do_fflush+0x3a>
10004814:	687b      	ldr	r3, [r7, #4]
10004816:	681b      	ldr	r3, [r3, #0]
10004818:	687a      	ldr	r2, [r7, #4]
1000481a:	6992      	ldr	r2, [r2, #24]
1000481c:	4413      	add	r3, r2
1000481e:	461a      	mov	r2, r3
10004820:	687b      	ldr	r3, [r7, #4]
10004822:	691b      	ldr	r3, [r3, #16]
10004824:	1ad3      	subs	r3, r2, r3
10004826:	60fb      	str	r3, [r7, #12]
10004828:	687b      	ldr	r3, [r7, #4]
1000482a:	68db      	ldr	r3, [r3, #12]
1000482c:	f003 0320 	and.w	r3, r3, #32
10004830:	2b00      	cmp	r3, #0
10004832:	d002      	beq.n	1000483a <_do_fflush+0x4e>
10004834:	6878      	ldr	r0, [r7, #4]
10004836:	f7ff f999 	bl	10003b6c <_deferredlazyseek>
1000483a:	687b      	ldr	r3, [r7, #4]
1000483c:	68db      	ldr	r3, [r3, #12]
1000483e:	f423 5240 	bic.w	r2, r3, #12288	; 0x3000
10004842:	687b      	ldr	r3, [r7, #4]
10004844:	60da      	str	r2, [r3, #12]
10004846:	6878      	ldr	r0, [r7, #4]
10004848:	f7ff fb4a 	bl	10003ee0 <_fflush>
1000484c:	60b8      	str	r0, [r7, #8]
1000484e:	6878      	ldr	r0, [r7, #4]
10004850:	68f9      	ldr	r1, [r7, #12]
10004852:	2200      	movs	r2, #0
10004854:	f7ff fe56 	bl	10004504 <fseek>
10004858:	68bb      	ldr	r3, [r7, #8]
1000485a:	e000      	b.n	1000485e <_do_fflush+0x72>
1000485c:	2300      	movs	r3, #0
1000485e:	4618      	mov	r0, r3
10004860:	3710      	adds	r7, #16
10004862:	46bd      	mov	sp, r7
10004864:	bd80      	pop	{r7, pc}
10004866:	bf00      	nop

10004868 <__check_heap_overflow>:
10004868:	b480      	push	{r7}
1000486a:	b083      	sub	sp, #12
1000486c:	af00      	add	r7, sp, #0
1000486e:	6078      	str	r0, [r7, #4]
10004870:	4b07      	ldr	r3, [pc, #28]	; (10004890 <__check_heap_overflow+0x28>)
10004872:	2b00      	cmp	r3, #0
10004874:	d005      	beq.n	10004882 <__check_heap_overflow+0x1a>
10004876:	687b      	ldr	r3, [r7, #4]
10004878:	4a05      	ldr	r2, [pc, #20]	; (10004890 <__check_heap_overflow+0x28>)
1000487a:	4293      	cmp	r3, r2
1000487c:	d301      	bcc.n	10004882 <__check_heap_overflow+0x1a>
1000487e:	2301      	movs	r3, #1
10004880:	e000      	b.n	10004884 <__check_heap_overflow+0x1c>
10004882:	2300      	movs	r3, #0
10004884:	4618      	mov	r0, r3
10004886:	370c      	adds	r7, #12
10004888:	46bd      	mov	sp, r7
1000488a:	f85d 7b04 	ldr.w	r7, [sp], #4
1000488e:	4770      	bx	lr
10004890:	00000000 	.word	0x00000000

10004894 <__aeabi_dmul>:
10004894:	e92d 43f0 	stmdb	sp!, {r4, r5, r6, r7, r8, r9, lr}
10004898:	f3c1 550a 	ubfx	r5, r1, #20, #11
1000489c:	461c      	mov	r4, r3
1000489e:	404b      	eors	r3, r1
100048a0:	2d00      	cmp	r5, #0
100048a2:	d059      	beq.n	10004958 <__aeabi_dmul+0xc4>
100048a4:	f240 77ff 	movw	r7, #2047	; 0x7ff
100048a8:	42bd      	cmp	r5, r7
100048aa:	d055      	beq.n	10004958 <__aeabi_dmul+0xc4>
100048ac:	f3c4 560a 	ubfx	r6, r4, #20, #11
100048b0:	2e00      	cmp	r6, #0
100048b2:	d051      	beq.n	10004958 <__aeabi_dmul+0xc4>
100048b4:	42be      	cmp	r6, r7
100048b6:	d04f      	beq.n	10004958 <__aeabi_dmul+0xc4>
100048b8:	f3c1 0113 	ubfx	r1, r1, #0, #20
100048bc:	f441 1180 	orr.w	r1, r1, #1048576	; 0x100000
100048c0:	ea4f 28c2 	mov.w	r8, r2, lsl #11
100048c4:	ea4f 5e52 	mov.w	lr, r2, lsr #21
100048c8:	eb06 0c05 	add.w	ip, r6, r5
100048cc:	ea4e 2ec4 	orr.w	lr, lr, r4, lsl #11
100048d0:	fba1 4508 	umull	r4, r5, r1, r8
100048d4:	fba8 8900 	umull	r8, r9, r8, r0
100048d8:	eb14 0609 	adds.w	r6, r4, r9
100048dc:	f04f 0700 	mov.w	r7, #0
100048e0:	f04e 4e00 	orr.w	lr, lr, #2147483648	; 0x80000000
100048e4:	f147 0700 	adc.w	r7, r7, #0
100048e8:	fbe0 670e 	umlal	r6, r7, r0, lr
100048ec:	462c      	mov	r4, r5
100048ee:	19e4      	adds	r4, r4, r7
100048f0:	f04f 0500 	mov.w	r5, #0
100048f4:	f145 0500 	adc.w	r5, r5, #0
100048f8:	fbe1 450e 	umlal	r4, r5, r1, lr
100048fc:	f5b5 1f80 	cmp.w	r5, #1048576	; 0x100000
10004900:	f003 4300 	and.w	r3, r3, #2147483648	; 0x80000000
10004904:	ea46 0698 	orr.w	r6, r6, r8, lsr #2
10004908:	d208      	bcs.n	1000491c <__aeabi_dmul+0x88>
1000490a:	1924      	adds	r4, r4, r4
1000490c:	ea4f 72d6 	mov.w	r2, r6, lsr #31
10004910:	f5ac 6c80 	sub.w	ip, ip, #1024	; 0x400
10004914:	416d      	adcs	r5, r5
10004916:	4314      	orrs	r4, r2
10004918:	0076      	lsls	r6, r6, #1
1000491a:	e001      	b.n	10004920 <__aeabi_dmul+0x8c>
1000491c:	f2ac 3cff 	subw	ip, ip, #1023	; 0x3ff
10004920:	0ff2      	lsrs	r2, r6, #31
10004922:	18a4      	adds	r4, r4, r2
10004924:	f145 0500 	adc.w	r5, r5, #0
10004928:	f240 71fd 	movw	r1, #2045	; 0x7fd
1000492c:	f1b6 4f00 	cmp.w	r6, #2147483648	; 0x80000000
10004930:	4622      	mov	r2, r4
10004932:	bf08      	it	eq
10004934:	f024 0201 	biceq.w	r2, r4, #1
10004938:	458c      	cmp	ip, r1
1000493a:	d805      	bhi.n	10004948 <__aeabi_dmul+0xb4>
1000493c:	432b      	orrs	r3, r5
1000493e:	eb03 510c 	add.w	r1, r3, ip, lsl #20
10004942:	4610      	mov	r0, r2
10004944:	e8bd 83f0 	ldmia.w	sp!, {r4, r5, r6, r7, r8, r9, pc}
10004948:	f1bc 0f00 	cmp.w	ip, #0
1000494c:	db0e      	blt.n	1000496c <__aeabi_dmul+0xd8>
1000494e:	f043 43ff 	orr.w	r3, r3, #2139095040	; 0x7f800000
10004952:	f443 03e0 	orr.w	r3, r3, #7340032	; 0x700000
10004956:	e009      	b.n	1000496c <__aeabi_dmul+0xd8>
10004958:	0049      	lsls	r1, r1, #1
1000495a:	f511 1f00 	cmn.w	r1, #2097152	; 0x200000
1000495e:	f003 4300 	and.w	r3, r3, #2147483648	; 0x80000000
10004962:	d207      	bcs.n	10004974 <__aeabi_dmul+0xe0>
10004964:	0062      	lsls	r2, r4, #1
10004966:	f512 1f00 	cmn.w	r2, #2097152	; 0x200000
1000496a:	d204      	bcs.n	10004976 <__aeabi_dmul+0xe2>
1000496c:	2000      	movs	r0, #0
1000496e:	4619      	mov	r1, r3
10004970:	e8bd 83f0 	ldmia.w	sp!, {r4, r5, r6, r7, r8, r9, pc}
10004974:	d109      	bne.n	1000498a <__aeabi_dmul+0xf6>
10004976:	0064      	lsls	r4, r4, #1
10004978:	f514 1f00 	cmn.w	r4, #2097152	; 0x200000
1000497c:	d805      	bhi.n	1000498a <__aeabi_dmul+0xf6>
1000497e:	0d49      	lsrs	r1, r1, #21
10004980:	0549      	lsls	r1, r1, #21
10004982:	b111      	cbz	r1, 1000498a <__aeabi_dmul+0xf6>
10004984:	0d64      	lsrs	r4, r4, #21
10004986:	0564      	lsls	r4, r4, #21
10004988:	b91c      	cbnz	r4, 10004992 <__aeabi_dmul+0xfe>
1000498a:	2000      	movs	r0, #0
1000498c:	4904      	ldr	r1, [pc, #16]	; (100049a0 <__aeabi_dmul+0x10c>)
1000498e:	e8bd 83f0 	ldmia.w	sp!, {r4, r5, r6, r7, r8, r9, pc}
10004992:	f043 43ff 	orr.w	r3, r3, #2139095040	; 0x7f800000
10004996:	2000      	movs	r0, #0
10004998:	f443 01e0 	orr.w	r1, r3, #7340032	; 0x700000
1000499c:	e8bd 83f0 	ldmia.w	sp!, {r4, r5, r6, r7, r8, r9, pc}
100049a0:	7ff80000 	.word	0x7ff80000

100049a4 <__aeabi_ddiv>:
100049a4:	e92d 43f0 	stmdb	sp!, {r4, r5, r6, r7, r8, r9, lr}
100049a8:	461d      	mov	r5, r3
100049aa:	f3c1 570a 	ubfx	r7, r1, #20, #11
100049ae:	460b      	mov	r3, r1
100049b0:	462e      	mov	r6, r5
100049b2:	2f00      	cmp	r7, #0
100049b4:	d058      	beq.n	10004a68 <__aeabi_ddiv+0xc4>
100049b6:	f240 74ff 	movw	r4, #2047	; 0x7ff
100049ba:	42a7      	cmp	r7, r4
100049bc:	d054      	beq.n	10004a68 <__aeabi_ddiv+0xc4>
100049be:	f3c5 510a 	ubfx	r1, r5, #20, #11
100049c2:	2900      	cmp	r1, #0
100049c4:	d050      	beq.n	10004a68 <__aeabi_ddiv+0xc4>
100049c6:	42a1      	cmp	r1, r4
100049c8:	d04e      	beq.n	10004a68 <__aeabi_ddiv+0xc4>
100049ca:	0d44      	lsrs	r4, r0, #21
100049cc:	1a7f      	subs	r7, r7, r1
100049ce:	ea85 0103 	eor.w	r1, r5, r3
100049d2:	ea44 23c3 	orr.w	r3, r4, r3, lsl #11
100049d6:	f043 4500 	orr.w	r5, r3, #2147483648	; 0x80000000
100049da:	0d53      	lsrs	r3, r2, #21
100049dc:	ea43 23c6 	orr.w	r3, r3, r6, lsl #11
100049e0:	f043 4900 	orr.w	r9, r3, #2147483648	; 0x80000000
100049e4:	02c4      	lsls	r4, r0, #11
100049e6:	ea4f 28c2 	mov.w	r8, r2, lsl #11
100049ea:	454d      	cmp	r5, r9
100049ec:	bf08      	it	eq
100049ee:	4544      	cmpeq	r4, r8
100049f0:	d202      	bcs.n	100049f8 <__aeabi_ddiv+0x54>
100049f2:	f207 30fd 	addw	r0, r7, #1021	; 0x3fd
100049f6:	e004      	b.n	10004a02 <__aeabi_ddiv+0x5e>
100049f8:	086d      	lsrs	r5, r5, #1
100049fa:	ea4f 0434 	mov.w	r4, r4, rrx
100049fe:	f207 30fe 	addw	r0, r7, #1022	; 0x3fe
10004a02:	ea5f 0759 	movs.w	r7, r9, lsr #1
10004a06:	ea4f 0638 	mov.w	r6, r8, rrx
10004a0a:	2335      	movs	r3, #53	; 0x35
10004a0c:	2200      	movs	r2, #0
10004a0e:	42bd      	cmp	r5, r7
10004a10:	bf08      	it	eq
10004a12:	42b4      	cmpeq	r4, r6
10004a14:	ea4f 0242 	mov.w	r2, r2, lsl #1
10004a18:	d304      	bcc.n	10004a24 <__aeabi_ddiv+0x80>
10004a1a:	1ba4      	subs	r4, r4, r6
10004a1c:	eb65 0507 	sbc.w	r5, r5, r7
10004a20:	f042 0201 	orr.w	r2, r2, #1
10004a24:	1924      	adds	r4, r4, r4
10004a26:	416d      	adcs	r5, r5
10004a28:	2b21      	cmp	r3, #33	; 0x21
10004a2a:	bf08      	it	eq
10004a2c:	4696      	moveq	lr, r2
10004a2e:	3b01      	subs	r3, #1
10004a30:	d1ed      	bne.n	10004a0e <__aeabi_ddiv+0x6a>
10004a32:	42bd      	cmp	r5, r7
10004a34:	bf08      	it	eq
10004a36:	42b4      	cmpeq	r4, r6
10004a38:	d303      	bcc.n	10004a42 <__aeabi_ddiv+0x9e>
10004a3a:	3201      	adds	r2, #1
10004a3c:	bf08      	it	eq
10004a3e:	f10e 0e01 	addeq.w	lr, lr, #1
10004a42:	f001 4300 	and.w	r3, r1, #2147483648	; 0x80000000
10004a46:	f240 71fd 	movw	r1, #2045	; 0x7fd
10004a4a:	4288      	cmp	r0, r1
10004a4c:	d804      	bhi.n	10004a58 <__aeabi_ddiv+0xb4>
10004a4e:	eb03 5300 	add.w	r3, r3, r0, lsl #20
10004a52:	eb03 010e 	add.w	r1, r3, lr
10004a56:	e022      	b.n	10004a9e <__aeabi_ddiv+0xfa>
10004a58:	2800      	cmp	r0, #0
10004a5a:	bfa4      	itt	ge
10004a5c:	f043 43ff 	orrge.w	r3, r3, #2139095040	; 0x7f800000
10004a60:	f443 03e0 	orrge.w	r3, r3, #7340032	; 0x700000
10004a64:	2000      	movs	r0, #0
10004a66:	e034      	b.n	10004ad2 <__aeabi_ddiv+0x12e>
10004a68:	0059      	lsls	r1, r3, #1
10004a6a:	f511 1f00 	cmn.w	r1, #2097152	; 0x200000
10004a6e:	d803      	bhi.n	10004a78 <__aeabi_ddiv+0xd4>
10004a70:	0070      	lsls	r0, r6, #1
10004a72:	f510 1f00 	cmn.w	r0, #2097152	; 0x200000
10004a76:	d901      	bls.n	10004a7c <__aeabi_ddiv+0xd8>
10004a78:	2000      	movs	r0, #0
10004a7a:	e02d      	b.n	10004ad8 <__aeabi_ddiv+0x134>
10004a7c:	ea46 0203 	orr.w	r2, r6, r3
10004a80:	f3c2 520a 	ubfx	r2, r2, #20, #11
10004a84:	0554      	lsls	r4, r2, #21
10004a86:	b91a      	cbnz	r2, 10004a90 <__aeabi_ddiv+0xec>
10004a88:	4915      	ldr	r1, [pc, #84]	; (10004ae0 <__aeabi_ddiv+0x13c>)
10004a8a:	4620      	mov	r0, r4
10004a8c:	e8bd 83f0 	ldmia.w	sp!, {r4, r5, r6, r7, r8, r9, pc}
10004a90:	0d4a      	lsrs	r2, r1, #21
10004a92:	4073      	eors	r3, r6
10004a94:	0552      	lsls	r2, r2, #21
10004a96:	f003 4300 	and.w	r3, r3, #2147483648	; 0x80000000
10004a9a:	b91a      	cbnz	r2, 10004aa4 <__aeabi_ddiv+0x100>
10004a9c:	4619      	mov	r1, r3
10004a9e:	4610      	mov	r0, r2
10004aa0:	e8bd 83f0 	ldmia.w	sp!, {r4, r5, r6, r7, r8, r9, pc}
10004aa4:	0d42      	lsrs	r2, r0, #21
10004aa6:	0552      	lsls	r2, r2, #21
10004aa8:	b922      	cbnz	r2, 10004ab4 <__aeabi_ddiv+0x110>
10004aaa:	f043 43ff 	orr.w	r3, r3, #2139095040	; 0x7f800000
10004aae:	f443 01e0 	orr.w	r1, r3, #7340032	; 0x700000
10004ab2:	e7f4      	b.n	10004a9e <__aeabi_ddiv+0xfa>
10004ab4:	f510 1f00 	cmn.w	r0, #2097152	; 0x200000
10004ab8:	d006      	beq.n	10004ac8 <__aeabi_ddiv+0x124>
10004aba:	f043 43ff 	orr.w	r3, r3, #2139095040	; 0x7f800000
10004abe:	2000      	movs	r0, #0
10004ac0:	f443 01e0 	orr.w	r1, r3, #7340032	; 0x700000
10004ac4:	e8bd 83f0 	ldmia.w	sp!, {r4, r5, r6, r7, r8, r9, pc}
10004ac8:	f511 1f00 	cmn.w	r1, #2097152	; 0x200000
10004acc:	f04f 0000 	mov.w	r0, #0
10004ad0:	d002      	beq.n	10004ad8 <__aeabi_ddiv+0x134>
10004ad2:	4619      	mov	r1, r3
10004ad4:	e8bd 83f0 	ldmia.w	sp!, {r4, r5, r6, r7, r8, r9, pc}
10004ad8:	4901      	ldr	r1, [pc, #4]	; (10004ae0 <__aeabi_ddiv+0x13c>)
10004ada:	e8bd 83f0 	ldmia.w	sp!, {r4, r5, r6, r7, r8, r9, pc}
10004ade:	bf00      	nop
10004ae0:	7ff80000 	.word	0x7ff80000

10004ae4 <__aeabi_dsub>:
10004ae4:	b5f0      	push	{r4, r5, r6, r7, lr}
10004ae6:	461f      	mov	r7, r3
10004ae8:	404b      	eors	r3, r1
10004aea:	460c      	mov	r4, r1
10004aec:	4605      	mov	r5, r0
10004aee:	4696      	mov	lr, r2
10004af0:	d505      	bpl.n	10004afe <__aeabi_dsub+0x1a>
10004af2:	f107 4300 	add.w	r3, r7, #2147483648	; 0x80000000
10004af6:	e8bd 40f0 	ldmia.w	sp!, {r4, r5, r6, r7, lr}
10004afa:	f000 b8cf 	b.w	10004c9c <__aeabi_dadd>
10004afe:	42b9      	cmp	r1, r7
10004b00:	d303      	bcc.n	10004b0a <__aeabi_dsub+0x26>
10004b02:	4290      	cmp	r0, r2
10004b04:	d80b      	bhi.n	10004b1e <__aeabi_dsub+0x3a>
10004b06:	42b9      	cmp	r1, r7
10004b08:	d109      	bne.n	10004b1e <__aeabi_dsub+0x3a>
10004b0a:	f103 4300 	add.w	r3, r3, #2147483648	; 0x80000000
10004b0e:	405c      	eors	r4, r3
10004b10:	405f      	eors	r7, r3
10004b12:	ea8e 0305 	eor.w	r3, lr, r5
10004b16:	ea8e 0e03 	eor.w	lr, lr, r3
10004b1a:	ea8e 0503 	eor.w	r5, lr, r3
10004b1e:	0d26      	lsrs	r6, r4, #20
10004b20:	f426 6300 	bic.w	r3, r6, #2048	; 0x800
10004b24:	f240 71ff 	movw	r1, #2047	; 0x7ff
10004b28:	428b      	cmp	r3, r1
10004b2a:	eba6 5217 	sub.w	r2, r6, r7, lsr #20
10004b2e:	f000 80a5 	beq.w	10004c7c <__aeabi_dsub+0x198>
10004b32:	429a      	cmp	r2, r3
10004b34:	f000 809b 	beq.w	10004c6e <__aeabi_dsub+0x18a>
10004b38:	f3c4 0113 	ubfx	r1, r4, #0, #20
10004b3c:	f3c7 0313 	ubfx	r3, r7, #0, #20
10004b40:	2a1f      	cmp	r2, #31
10004b42:	f441 1180 	orr.w	r1, r1, #1048576	; 0x100000
10004b46:	f443 1380 	orr.w	r3, r3, #1048576	; 0x100000
10004b4a:	d852      	bhi.n	10004bf2 <__aeabi_dsub+0x10e>
10004b4c:	fa23 f002 	lsr.w	r0, r3, r2
10004b50:	1a09      	subs	r1, r1, r0
10004b52:	fa2e f002 	lsr.w	r0, lr, r2
10004b56:	f1c2 0220 	rsb	r2, r2, #32
10004b5a:	4093      	lsls	r3, r2
10004b5c:	4318      	orrs	r0, r3
10004b5e:	1a28      	subs	r0, r5, r0
10004b60:	42a8      	cmp	r0, r5
10004b62:	bf88      	it	hi
10004b64:	f101 31ff 	addhi.w	r1, r1, #4294967295
10004b68:	fa1e f302 	lsls.w	r3, lr, r2
10004b6c:	d004      	beq.n	10004b78 <__aeabi_dsub+0x94>
10004b6e:	425b      	negs	r3, r3
10004b70:	1e45      	subs	r5, r0, #1
10004b72:	b910      	cbnz	r0, 10004b7a <__aeabi_dsub+0x96>
10004b74:	3901      	subs	r1, #1
10004b76:	e000      	b.n	10004b7a <__aeabi_dsub+0x96>
10004b78:	4605      	mov	r5, r0
10004b7a:	f411 1fc0 	tst.w	r1, #1572864	; 0x180000
10004b7e:	d157      	bne.n	10004c30 <__aeabi_dsub+0x14c>
10004b80:	0fea      	lsrs	r2, r5, #31
10004b82:	0fdb      	lsrs	r3, r3, #31
10004b84:	ea42 0241 	orr.w	r2, r2, r1, lsl #1
10004b88:	ea43 0345 	orr.w	r3, r3, r5, lsl #1
10004b8c:	ea53 0402 	orrs.w	r4, r3, r2
10004b90:	d001      	beq.n	10004b96 <__aeabi_dsub+0xb2>
10004b92:	1eb4      	subs	r4, r6, #2
10004b94:	e002      	b.n	10004b9c <__aeabi_dsub+0xb8>
10004b96:	4621      	mov	r1, r4
10004b98:	4620      	mov	r0, r4
10004b9a:	bdf0      	pop	{r4, r5, r6, r7, pc}
10004b9c:	0b51      	lsrs	r1, r2, #13
10004b9e:	d105      	bne.n	10004bac <__aeabi_dsub+0xc8>
10004ba0:	0e19      	lsrs	r1, r3, #24
10004ba2:	ea41 2202 	orr.w	r2, r1, r2, lsl #8
10004ba6:	021b      	lsls	r3, r3, #8
10004ba8:	3c08      	subs	r4, #8
10004baa:	e7f7      	b.n	10004b9c <__aeabi_dsub+0xb8>
10004bac:	0c51      	lsrs	r1, r2, #17
10004bae:	bf01      	itttt	eq
10004bb0:	0f19      	lsreq	r1, r3, #28
10004bb2:	ea41 1202 	orreq.w	r2, r1, r2, lsl #4
10004bb6:	011b      	lsleq	r3, r3, #4
10004bb8:	3c04      	subeq	r4, #4
10004bba:	0cd1      	lsrs	r1, r2, #19
10004bbc:	bf01      	itttt	eq
10004bbe:	0f99      	lsreq	r1, r3, #30
10004bc0:	ea41 0282 	orreq.w	r2, r1, r2, lsl #2
10004bc4:	009b      	lsleq	r3, r3, #2
10004bc6:	3c02      	subeq	r4, #2
10004bc8:	0d11      	lsrs	r1, r2, #20
10004bca:	bf04      	itt	eq
10004bcc:	0fd9      	lsreq	r1, r3, #31
10004bce:	f104 34ff 	addeq.w	r4, r4, #4294967295
10004bd2:	ea4f 26d6 	mov.w	r6, r6, lsr #11
10004bd6:	bf04      	itt	eq
10004bd8:	ea41 0242 	orreq.w	r2, r1, r2, lsl #1
10004bdc:	005b      	lsleq	r3, r3, #1
10004bde:	ebb6 2fd4 	cmp.w	r6, r4, lsr #11
10004be2:	f04f 0000 	mov.w	r0, #0
10004be6:	bf06      	itte	eq
10004be8:	eb02 5104 	addeq.w	r1, r2, r4, lsl #20
10004bec:	4618      	moveq	r0, r3
10004bee:	07f1      	lslne	r1, r6, #31
10004bf0:	bdf0      	pop	{r4, r5, r6, r7, pc}
10004bf2:	2a35      	cmp	r2, #53	; 0x35
10004bf4:	d81c      	bhi.n	10004c30 <__aeabi_dsub+0x14c>
10004bf6:	f1a2 0420 	sub.w	r4, r2, #32
10004bfa:	fa23 f004 	lsr.w	r0, r3, r4
10004bfe:	f1c2 0240 	rsb	r2, r2, #64	; 0x40
10004c02:	1a28      	subs	r0, r5, r0
10004c04:	42a8      	cmp	r0, r5
10004c06:	fa03 f302 	lsl.w	r3, r3, r2
10004c0a:	fa2e f204 	lsr.w	r2, lr, r4
10004c0e:	bf88      	it	hi
10004c10:	f101 31ff 	addhi.w	r1, r1, #4294967295
10004c14:	4313      	orrs	r3, r2
10004c16:	ea5f 620e 	movs.w	r2, lr, lsl #24
10004c1a:	d002      	beq.n	10004c22 <__aeabi_dsub+0x13e>
10004c1c:	f043 03ff 	orr.w	r3, r3, #255	; 0xff
10004c20:	e000      	b.n	10004c24 <__aeabi_dsub+0x140>
10004c22:	b123      	cbz	r3, 10004c2e <__aeabi_dsub+0x14a>
10004c24:	425b      	negs	r3, r3
10004c26:	1e45      	subs	r5, r0, #1
10004c28:	b910      	cbnz	r0, 10004c30 <__aeabi_dsub+0x14c>
10004c2a:	3901      	subs	r1, #1
10004c2c:	e000      	b.n	10004c30 <__aeabi_dsub+0x14c>
10004c2e:	4605      	mov	r5, r0
10004c30:	02ca      	lsls	r2, r1, #11
10004c32:	d40c      	bmi.n	10004c4e <__aeabi_dsub+0x16a>
10004c34:	3e01      	subs	r6, #1
10004c36:	0572      	lsls	r2, r6, #21
10004c38:	d007      	beq.n	10004c4a <__aeabi_dsub+0x166>
10004c3a:	0fea      	lsrs	r2, r5, #31
10004c3c:	ea42 0141 	orr.w	r1, r2, r1, lsl #1
10004c40:	0fda      	lsrs	r2, r3, #31
10004c42:	ea42 0545 	orr.w	r5, r2, r5, lsl #1
10004c46:	005b      	lsls	r3, r3, #1
10004c48:	e001      	b.n	10004c4e <__aeabi_dsub+0x16a>
10004c4a:	0531      	lsls	r1, r6, #20
10004c4c:	e01e      	b.n	10004c8c <__aeabi_dsub+0x1a8>
10004c4e:	2b00      	cmp	r3, #0
10004c50:	f421 1280 	bic.w	r2, r1, #1048576	; 0x100000
10004c54:	ea4f 5606 	mov.w	r6, r6, lsl #20
10004c58:	da07      	bge.n	10004c6a <__aeabi_dsub+0x186>
10004c5a:	3501      	adds	r5, #1
10004c5c:	bf08      	it	eq
10004c5e:	3201      	addeq	r2, #1
10004c60:	f1b3 4f00 	cmp.w	r3, #2147483648	; 0x80000000
10004c64:	bf08      	it	eq
10004c66:	f025 0501 	biceq.w	r5, r5, #1
10004c6a:	1991      	adds	r1, r2, r6
10004c6c:	e011      	b.n	10004c92 <__aeabi_dsub+0x1ae>
10004c6e:	f240 73fe 	movw	r3, #2046	; 0x7fe
10004c72:	429a      	cmp	r2, r3
10004c74:	d802      	bhi.n	10004c7c <__aeabi_dsub+0x198>
10004c76:	b95a      	cbnz	r2, 10004c90 <__aeabi_dsub+0x1ac>
10004c78:	4611      	mov	r1, r2
10004c7a:	e007      	b.n	10004c8c <__aeabi_dsub+0x1a8>
10004c7c:	0323      	lsls	r3, r4, #12
10004c7e:	f04f 0000 	mov.w	r0, #0
10004c82:	d001      	beq.n	10004c88 <__aeabi_dsub+0x1a4>
10004c84:	4904      	ldr	r1, [pc, #16]	; (10004c98 <__aeabi_dsub+0x1b4>)
10004c86:	bdf0      	pop	{r4, r5, r6, r7, pc}
10004c88:	b912      	cbnz	r2, 10004c90 <__aeabi_dsub+0x1ac>
10004c8a:	4903      	ldr	r1, [pc, #12]	; (10004c98 <__aeabi_dsub+0x1b4>)
10004c8c:	4610      	mov	r0, r2
10004c8e:	bdf0      	pop	{r4, r5, r6, r7, pc}
10004c90:	4621      	mov	r1, r4
10004c92:	4628      	mov	r0, r5
10004c94:	bdf0      	pop	{r4, r5, r6, r7, pc}
10004c96:	bf00      	nop
10004c98:	7ff80000 	.word	0x7ff80000

10004c9c <__aeabi_dadd>:
10004c9c:	e92d 43f0 	stmdb	sp!, {r4, r5, r6, r7, r8, r9, lr}
10004ca0:	461f      	mov	r7, r3
10004ca2:	463d      	mov	r5, r7
10004ca4:	4616      	mov	r6, r2
10004ca6:	4617      	mov	r7, r2
10004ca8:	ea95 0201 	eors.w	r2, r5, r1
10004cac:	460c      	mov	r4, r1
10004cae:	4603      	mov	r3, r0
10004cb0:	d506      	bpl.n	10004cc0 <__aeabi_dadd+0x24>
10004cb2:	f105 4300 	add.w	r3, r5, #2147483648	; 0x80000000
10004cb6:	4632      	mov	r2, r6
10004cb8:	e8bd 43f0 	ldmia.w	sp!, {r4, r5, r6, r7, r8, r9, lr}
10004cbc:	f7ff bf12 	b.w	10004ae4 <__aeabi_dsub>
10004cc0:	42a9      	cmp	r1, r5
10004cc2:	bf3e      	ittt	cc
10004cc4:	4054      	eorcc	r4, r2
10004cc6:	4073      	eorcc	r3, r6
10004cc8:	4055      	eorcc	r5, r2
10004cca:	ea4f 5214 	mov.w	r2, r4, lsr #20
10004cce:	bf38      	it	cc
10004cd0:	405f      	eorcc	r7, r3
10004cd2:	f422 6100 	bic.w	r1, r2, #2048	; 0x800
10004cd6:	f240 70ff 	movw	r0, #2047	; 0x7ff
10004cda:	bf38      	it	cc
10004cdc:	407b      	eorcc	r3, r7
10004cde:	4281      	cmp	r1, r0
10004ce0:	d063      	beq.n	10004daa <__aeabi_dadd+0x10e>
10004ce2:	eba2 5615 	sub.w	r6, r2, r5, lsr #20
10004ce6:	428e      	cmp	r6, r1
10004ce8:	d055      	beq.n	10004d96 <__aeabi_dadd+0xfa>
10004cea:	f3c4 0413 	ubfx	r4, r4, #0, #20
10004cee:	f3c5 0113 	ubfx	r1, r5, #0, #20
10004cf2:	2e1f      	cmp	r6, #31
10004cf4:	f444 1480 	orr.w	r4, r4, #1048576	; 0x100000
10004cf8:	f441 1180 	orr.w	r1, r1, #1048576	; 0x100000
10004cfc:	d80e      	bhi.n	10004d1c <__aeabi_dadd+0x80>
10004cfe:	fa21 f006 	lsr.w	r0, r1, r6
10004d02:	4404      	add	r4, r0
10004d04:	fa27 f006 	lsr.w	r0, r7, r6
10004d08:	f1c6 0620 	rsb	r6, r6, #32
10004d0c:	40b1      	lsls	r1, r6
10004d0e:	4301      	orrs	r1, r0
10004d10:	185b      	adds	r3, r3, r1
10004d12:	bf28      	it	cs
10004d14:	3401      	addcs	r4, #1
10004d16:	fa07 f106 	lsl.w	r1, r7, r6
10004d1a:	e014      	b.n	10004d46 <__aeabi_dadd+0xaa>
10004d1c:	2e35      	cmp	r6, #53	; 0x35
10004d1e:	d812      	bhi.n	10004d46 <__aeabi_dadd+0xaa>
10004d20:	f1a6 0020 	sub.w	r0, r6, #32
10004d24:	fa21 f500 	lsr.w	r5, r1, r0
10004d28:	f1c6 0640 	rsb	r6, r6, #64	; 0x40
10004d2c:	195b      	adds	r3, r3, r5
10004d2e:	fa27 f000 	lsr.w	r0, r7, r0
10004d32:	fa01 f106 	lsl.w	r1, r1, r6
10004d36:	ea41 0100 	orr.w	r1, r1, r0
10004d3a:	bf28      	it	cs
10004d3c:	3401      	addcs	r4, #1
10004d3e:	0638      	lsls	r0, r7, #24
10004d40:	bf18      	it	ne
10004d42:	f041 01ff 	orrne.w	r1, r1, #255	; 0xff
10004d46:	02a0      	lsls	r0, r4, #10
10004d48:	d516      	bpl.n	10004d78 <__aeabi_dadd+0xdc>
10004d4a:	3301      	adds	r3, #1
10004d4c:	bf08      	it	eq
10004d4e:	3401      	addeq	r4, #1
10004d50:	b909      	cbnz	r1, 10004d56 <__aeabi_dadd+0xba>
10004d52:	f023 0302 	bic.w	r3, r3, #2
10004d56:	0515      	lsls	r5, r2, #20
10004d58:	eb05 0554 	add.w	r5, r5, r4, lsr #1
10004d5c:	0069      	lsls	r1, r5, #1
10004d5e:	f511 1f00 	cmn.w	r1, #2097152	; 0x200000
10004d62:	bf37      	itett	cc
10004d64:	07e4      	lslcc	r4, r4, #31
10004d66:	3201      	addcs	r2, #1
10004d68:	4629      	movcc	r1, r5
10004d6a:	ea44 0053 	orrcc.w	r0, r4, r3, lsr #1
10004d6e:	bf24      	itt	cs
10004d70:	2000      	movcs	r0, #0
10004d72:	0511      	lslcs	r1, r2, #20
10004d74:	e8bd 83f0 	ldmia.w	sp!, {r4, r5, r6, r7, r8, r9, pc}
10004d78:	2900      	cmp	r1, #0
10004d7a:	f102 32ff 	add.w	r2, r2, #4294967295
10004d7e:	da07      	bge.n	10004d90 <__aeabi_dadd+0xf4>
10004d80:	3301      	adds	r3, #1
10004d82:	bf08      	it	eq
10004d84:	3401      	addeq	r4, #1
10004d86:	f1b1 4f00 	cmp.w	r1, #2147483648	; 0x80000000
10004d8a:	bf08      	it	eq
10004d8c:	f023 0301 	biceq.w	r3, r3, #1
10004d90:	eb04 5102 	add.w	r1, r4, r2, lsl #20
10004d94:	e011      	b.n	10004dba <__aeabi_dadd+0x11e>
10004d96:	f240 72fe 	movw	r2, #2046	; 0x7fe
10004d9a:	4296      	cmp	r6, r2
10004d9c:	d805      	bhi.n	10004daa <__aeabi_dadd+0x10e>
10004d9e:	b95e      	cbnz	r6, 10004db8 <__aeabi_dadd+0x11c>
10004da0:	f004 4100 	and.w	r1, r4, #2147483648	; 0x80000000
10004da4:	4630      	mov	r0, r6
10004da6:	e8bd 83f0 	ldmia.w	sp!, {r4, r5, r6, r7, r8, r9, pc}
10004daa:	0322      	lsls	r2, r4, #12
10004dac:	f04f 0000 	mov.w	r0, #0
10004db0:	d002      	beq.n	10004db8 <__aeabi_dadd+0x11c>
10004db2:	4903      	ldr	r1, [pc, #12]	; (10004dc0 <__aeabi_dadd+0x124>)
10004db4:	e8bd 83f0 	ldmia.w	sp!, {r4, r5, r6, r7, r8, r9, pc}
10004db8:	4621      	mov	r1, r4
10004dba:	4618      	mov	r0, r3
10004dbc:	e8bd 83f0 	ldmia.w	sp!, {r4, r5, r6, r7, r8, r9, pc}
10004dc0:	7ff80000 	.word	0x7ff80000

10004dc4 <__aeabi_d2iz>:
10004dc4:	02cb      	lsls	r3, r1, #11
10004dc6:	ea43 5050 	orr.w	r0, r3, r0, lsr #21
10004dca:	0d0b      	lsrs	r3, r1, #20
10004dcc:	f5c3 6383 	rsb	r3, r3, #1048	; 0x418
10004dd0:	3306      	adds	r3, #6
10004dd2:	f040 4000 	orr.w	r0, r0, #2147483648	; 0x80000000
10004dd6:	2bff      	cmp	r3, #255	; 0xff
10004dd8:	fa20 f003 	lsr.w	r0, r0, r3
10004ddc:	d911      	bls.n	10004e02 <__aeabi_d2iz+0x3e>
10004dde:	f413 6fe0 	tst.w	r3, #1792	; 0x700
10004de2:	d101      	bne.n	10004de8 <__aeabi_d2iz+0x24>
10004de4:	4240      	negs	r0, r0
10004de6:	4770      	bx	lr
10004de8:	f011 4080 	ands.w	r0, r1, #1073741824	; 0x40000000
10004dec:	d009      	beq.n	10004e02 <__aeabi_d2iz+0x3e>
10004dee:	004b      	lsls	r3, r1, #1
10004df0:	f513 1f00 	cmn.w	r3, #2097152	; 0x200000
10004df4:	d804      	bhi.n	10004e00 <__aeabi_d2iz+0x3c>
10004df6:	0fc8      	lsrs	r0, r1, #31
10004df8:	f100 4000 	add.w	r0, r0, #2147483648	; 0x80000000
10004dfc:	3801      	subs	r0, #1
10004dfe:	4770      	bx	lr
10004e00:	2000      	movs	r0, #0
10004e02:	4770      	bx	lr

10004e04 <__bhs_ui2d>:
10004e04:	b910      	cbnz	r0, 10004e0c <__bhs_ui2d+0x8>
10004e06:	4603      	mov	r3, r0
10004e08:	4602      	mov	r2, r0
10004e0a:	e01b      	b.n	10004e44 <__bhs_ui2d+0x40>
10004e0c:	0c03      	lsrs	r3, r0, #16
10004e0e:	bf0c      	ite	eq
10004e10:	0400      	lsleq	r0, r0, #16
10004e12:	f101 7180 	addne.w	r1, r1, #16777216	; 0x1000000
10004e16:	0e03      	lsrs	r3, r0, #24
10004e18:	bf0c      	ite	eq
10004e1a:	0200      	lsleq	r0, r0, #8
10004e1c:	f501 0100 	addne.w	r1, r1, #8388608	; 0x800000
10004e20:	0f03      	lsrs	r3, r0, #28
10004e22:	bf0c      	ite	eq
10004e24:	0100      	lsleq	r0, r0, #4
10004e26:	f501 0180 	addne.w	r1, r1, #4194304	; 0x400000
10004e2a:	0f83      	lsrs	r3, r0, #30
10004e2c:	bf0c      	ite	eq
10004e2e:	0080      	lsleq	r0, r0, #2
10004e30:	f501 1100 	addne.w	r1, r1, #2097152	; 0x200000
10004e34:	2800      	cmp	r0, #0
10004e36:	bfac      	ite	ge
10004e38:	0040      	lslge	r0, r0, #1
10004e3a:	f501 1180 	addlt.w	r1, r1, #1048576	; 0x100000
10004e3e:	eb01 23e0 	add.w	r3, r1, r0, asr #11
10004e42:	0542      	lsls	r2, r0, #21
10004e44:	4610      	mov	r0, r2
10004e46:	4619      	mov	r1, r3
10004e48:	4770      	bx	lr

10004e4a <__aeabi_i2d>:
10004e4a:	f010 4100 	ands.w	r1, r0, #2147483648	; 0x80000000
10004e4e:	bf18      	it	ne
10004e50:	4240      	negne	r0, r0
10004e52:	f101 4180 	add.w	r1, r1, #1073741824	; 0x40000000
10004e56:	f7ff bfd5 	b.w	10004e04 <__bhs_ui2d>

10004e5a <__aeabi_dcmpeq>:
10004e5a:	b510      	push	{r4, lr}
10004e5c:	460c      	mov	r4, r1
10004e5e:	4619      	mov	r1, r3
10004e60:	0063      	lsls	r3, r4, #1
10004e62:	ea53 0e00 	orrs.w	lr, r3, r0
10004e66:	d102      	bne.n	10004e6e <__aeabi_dcmpeq+0x14>
10004e68:	ea52 0e41 	orrs.w	lr, r2, r1, lsl #1
10004e6c:	d009      	beq.n	10004e82 <__aeabi_dcmpeq+0x28>
10004e6e:	428c      	cmp	r4, r1
10004e70:	d109      	bne.n	10004e86 <__aeabi_dcmpeq+0x2c>
10004e72:	4290      	cmp	r0, r2
10004e74:	d107      	bne.n	10004e86 <__aeabi_dcmpeq+0x2c>
10004e76:	f513 1f00 	cmn.w	r3, #2097152	; 0x200000
10004e7a:	bf8c      	ite	hi
10004e7c:	2000      	movhi	r0, #0
10004e7e:	2001      	movls	r0, #1
10004e80:	bd10      	pop	{r4, pc}
10004e82:	2001      	movs	r0, #1
10004e84:	bd10      	pop	{r4, pc}
10004e86:	2000      	movs	r0, #0
10004e88:	bd10      	pop	{r4, pc}

10004e8a <__aeabi_dcmplt>:
10004e8a:	b530      	push	{r4, r5, lr}
10004e8c:	460d      	mov	r5, r1
10004e8e:	461c      	mov	r4, r3
10004e90:	ea54 0305 	orrs.w	r3, r4, r5
10004e94:	4601      	mov	r1, r0
10004e96:	d408      	bmi.n	10004eaa <__aeabi_dcmplt+0x20>
10004e98:	0063      	lsls	r3, r4, #1
10004e9a:	f513 1f00 	cmn.w	r3, #2097152	; 0x200000
10004e9e:	d81b      	bhi.n	10004ed8 <__aeabi_dcmplt+0x4e>
10004ea0:	42ac      	cmp	r4, r5
10004ea2:	d817      	bhi.n	10004ed4 <__aeabi_dcmplt+0x4a>
10004ea4:	d118      	bne.n	10004ed8 <__aeabi_dcmplt+0x4e>
10004ea6:	4282      	cmp	r2, r0
10004ea8:	e010      	b.n	10004ecc <__aeabi_dcmplt+0x42>
10004eaa:	0068      	lsls	r0, r5, #1
10004eac:	f510 1f00 	cmn.w	r0, #2097152	; 0x200000
10004eb0:	d812      	bhi.n	10004ed8 <__aeabi_dcmplt+0x4e>
10004eb2:	0063      	lsls	r3, r4, #1
10004eb4:	f513 1f00 	cmn.w	r3, #2097152	; 0x200000
10004eb8:	d80e      	bhi.n	10004ed8 <__aeabi_dcmplt+0x4e>
10004eba:	4308      	orrs	r0, r1
10004ebc:	d102      	bne.n	10004ec4 <__aeabi_dcmplt+0x3a>
10004ebe:	ea53 0002 	orrs.w	r0, r3, r2
10004ec2:	d00a      	beq.n	10004eda <__aeabi_dcmplt+0x50>
10004ec4:	42a5      	cmp	r5, r4
10004ec6:	d805      	bhi.n	10004ed4 <__aeabi_dcmplt+0x4a>
10004ec8:	d106      	bne.n	10004ed8 <__aeabi_dcmplt+0x4e>
10004eca:	4291      	cmp	r1, r2
10004ecc:	bf94      	ite	ls
10004ece:	2000      	movls	r0, #0
10004ed0:	2001      	movhi	r0, #1
10004ed2:	bd30      	pop	{r4, r5, pc}
10004ed4:	2001      	movs	r0, #1
10004ed6:	bd30      	pop	{r4, r5, pc}
10004ed8:	2000      	movs	r0, #0
10004eda:	bd30      	pop	{r4, r5, pc}

10004edc <__aeabi_dcmple>:
10004edc:	b530      	push	{r4, r5, lr}
10004ede:	ea53 0401 	orrs.w	r4, r3, r1
10004ee2:	d40b      	bmi.n	10004efc <__aeabi_dcmple+0x20>
10004ee4:	005c      	lsls	r4, r3, #1
10004ee6:	f514 1f00 	cmn.w	r4, #2097152	; 0x200000
10004eea:	d81f      	bhi.n	10004f2c <__aeabi_dcmple+0x50>
10004eec:	428b      	cmp	r3, r1
10004eee:	d81b      	bhi.n	10004f28 <__aeabi_dcmple+0x4c>
10004ef0:	d11c      	bne.n	10004f2c <__aeabi_dcmple+0x50>
10004ef2:	4282      	cmp	r2, r0
10004ef4:	bf34      	ite	cc
10004ef6:	2000      	movcc	r0, #0
10004ef8:	2001      	movcs	r0, #1
10004efa:	bd30      	pop	{r4, r5, pc}
10004efc:	004d      	lsls	r5, r1, #1
10004efe:	f515 1f00 	cmn.w	r5, #2097152	; 0x200000
10004f02:	d813      	bhi.n	10004f2c <__aeabi_dcmple+0x50>
10004f04:	005c      	lsls	r4, r3, #1
10004f06:	f514 1f00 	cmn.w	r4, #2097152	; 0x200000
10004f0a:	d80f      	bhi.n	10004f2c <__aeabi_dcmple+0x50>
10004f0c:	4299      	cmp	r1, r3
10004f0e:	d80b      	bhi.n	10004f28 <__aeabi_dcmple+0x4c>
10004f10:	d101      	bne.n	10004f16 <__aeabi_dcmple+0x3a>
10004f12:	4290      	cmp	r0, r2
10004f14:	d208      	bcs.n	10004f28 <__aeabi_dcmple+0x4c>
10004f16:	ea55 0300 	orrs.w	r3, r5, r0
10004f1a:	d107      	bne.n	10004f2c <__aeabi_dcmple+0x50>
10004f1c:	ea54 0302 	orrs.w	r3, r4, r2
10004f20:	bf0c      	ite	eq
10004f22:	2001      	moveq	r0, #1
10004f24:	2000      	movne	r0, #0
10004f26:	bd30      	pop	{r4, r5, pc}
10004f28:	2001      	movs	r0, #1
10004f2a:	bd30      	pop	{r4, r5, pc}
10004f2c:	2000      	movs	r0, #0
10004f2e:	bd30      	pop	{r4, r5, pc}

10004f30 <__aeabi_dcmpge>:
10004f30:	b530      	push	{r4, r5, lr}
10004f32:	ea53 0401 	orrs.w	r4, r3, r1
10004f36:	ea4f 0441 	mov.w	r4, r1, lsl #1
10004f3a:	d40a      	bmi.n	10004f52 <__aeabi_dcmpge+0x22>
10004f3c:	f514 1f00 	cmn.w	r4, #2097152	; 0x200000
10004f40:	d81e      	bhi.n	10004f80 <__aeabi_dcmpge+0x50>
10004f42:	4299      	cmp	r1, r3
10004f44:	d81a      	bhi.n	10004f7c <__aeabi_dcmpge+0x4c>
10004f46:	d11b      	bne.n	10004f80 <__aeabi_dcmpge+0x50>
10004f48:	4290      	cmp	r0, r2
10004f4a:	bf34      	ite	cc
10004f4c:	2000      	movcc	r0, #0
10004f4e:	2001      	movcs	r0, #1
10004f50:	bd30      	pop	{r4, r5, pc}
10004f52:	f514 1f00 	cmn.w	r4, #2097152	; 0x200000
10004f56:	d813      	bhi.n	10004f80 <__aeabi_dcmpge+0x50>
10004f58:	005d      	lsls	r5, r3, #1
10004f5a:	f515 1f00 	cmn.w	r5, #2097152	; 0x200000
10004f5e:	d80f      	bhi.n	10004f80 <__aeabi_dcmpge+0x50>
10004f60:	428b      	cmp	r3, r1
10004f62:	d80b      	bhi.n	10004f7c <__aeabi_dcmpge+0x4c>
10004f64:	d101      	bne.n	10004f6a <__aeabi_dcmpge+0x3a>
10004f66:	4282      	cmp	r2, r0
10004f68:	d208      	bcs.n	10004f7c <__aeabi_dcmpge+0x4c>
10004f6a:	ea54 0300 	orrs.w	r3, r4, r0
10004f6e:	d107      	bne.n	10004f80 <__aeabi_dcmpge+0x50>
10004f70:	ea55 0302 	orrs.w	r3, r5, r2
10004f74:	bf0c      	ite	eq
10004f76:	2001      	moveq	r0, #1
10004f78:	2000      	movne	r0, #0
10004f7a:	bd30      	pop	{r4, r5, pc}
10004f7c:	2001      	movs	r0, #1
10004f7e:	bd30      	pop	{r4, r5, pc}
10004f80:	2000      	movs	r0, #0
10004f82:	bd30      	pop	{r4, r5, pc}

10004f84 <__aeabi_lowlevel_memset>:
10004f84:	4603      	mov	r3, r0
10004f86:	f013 0f03 	tst.w	r3, #3
10004f8a:	d10e      	bne.n	10004faa <memset1a>
10004f8c:	f001 01ff 	and.w	r1, r1, #255	; 0xff
10004f90:	ea41 2101 	orr.w	r1, r1, r1, lsl #8
10004f94:	ea41 4101 	orr.w	r1, r1, r1, lsl #16

10004f98 <__bhs_memset4>:
10004f98:	3a04      	subs	r2, #4

10004f9a <memset4>:
10004f9a:	bf24      	itt	cs
10004f9c:	f843 1b04 	strcs.w	r1, [r3], #4
10004fa0:	f1b2 0204 	subscs.w	r2, r2, #4
10004fa4:	d2f9      	bcs.n	10004f9a <memset4>

10004fa6 <memset1>:
10004fa6:	f102 0204 	add.w	r2, r2, #4

10004faa <memset1a>:
10004faa:	3a01      	subs	r2, #1
10004fac:	bf24      	itt	cs
10004fae:	f803 1b01 	strbcs.w	r1, [r3], #1
10004fb2:	e7fa      	bcs.n	10004faa <memset1a>
10004fb4:	4770      	bx	lr
	...

10004fb8 <__exit>:
10004fb8:	2018      	movs	r0, #24
10004fba:	4901      	ldr	r1, [pc, #4]	; (10004fc0 <__exit+0x8>)
10004fbc:	beab      	bkpt	0x00ab
10004fbe:	4770      	bx	lr
10004fc0:	00020026 	.word	0x00020026

10004fc4 <__sys_close>:
10004fc4:	b403      	push	{r0, r1}
10004fc6:	4669      	mov	r1, sp
10004fc8:	2002      	movs	r0, #2
10004fca:	beab      	bkpt	0x00ab
10004fcc:	b002      	add	sp, #8
10004fce:	4770      	bx	lr

10004fd0 <__sys_flen>:
10004fd0:	b403      	push	{r0, r1}
10004fd2:	4669      	mov	r1, sp
10004fd4:	200c      	movs	r0, #12
10004fd6:	beab      	bkpt	0x00ab
10004fd8:	b002      	add	sp, #8
10004fda:	4770      	bx	lr

10004fdc <__sys_istty>:
10004fdc:	b403      	push	{r0, r1}
10004fde:	4669      	mov	r1, sp
10004fe0:	2009      	movs	r0, #9
10004fe2:	beab      	bkpt	0x00ab
10004fe4:	b002      	add	sp, #8
10004fe6:	4770      	bx	lr

10004fe8 <__sys_remove>:
10004fe8:	b403      	push	{r0, r1}
10004fea:	4669      	mov	r1, sp
10004fec:	200e      	movs	r0, #14
10004fee:	beab      	bkpt	0x00ab
10004ff0:	b002      	add	sp, #8
10004ff2:	4770      	bx	lr

10004ff4 <__sys_seek>:
10004ff4:	b403      	push	{r0, r1}
10004ff6:	4669      	mov	r1, sp
10004ff8:	200a      	movs	r0, #10
10004ffa:	beab      	bkpt	0x00ab
10004ffc:	b002      	add	sp, #8
10004ffe:	4770      	bx	lr

10005000 <__sys_tmpnam>:
10005000:	b40f      	push	{r0, r1, r2, r3}
10005002:	4669      	mov	r1, sp
10005004:	200d      	movs	r0, #13
10005006:	beab      	bkpt	0x00ab
10005008:	b004      	add	sp, #16
1000500a:	4770      	bx	lr

1000500c <__sys_write>:
1000500c:	b40f      	push	{r0, r1, r2, r3}
1000500e:	4669      	mov	r1, sp
10005010:	2005      	movs	r0, #5
10005012:	beab      	bkpt	0x00ab
10005014:	b004      	add	sp, #16
10005016:	4770      	bx	lr
10005018:	00006925 	.word	0x00006925
1000501c:	74726f43 	.word	0x74726f43
10005020:	4d207865 	.word	0x4d207865
10005024:	65502034 	.word	0x65502034
10005028:	726f6672 	.word	0x726f6672
1000502c:	636e616d 	.word	0x636e616d
10005030:	65542065 	.word	0x65542065
10005034:	0d2e7473 	.word	0x0d2e7473
10005038:	0000000a 	.word	0x0000000a
1000503c:	6c697542 	.word	0x6c697542
10005040:	6f432064 	.word	0x6f432064
10005044:	6769666e 	.word	0x6769666e
10005048:	7325203a 	.word	0x7325203a
1000504c:	00000000 	.word	0x00000000
10005050:	20434347 	.word	0x20434347
10005054:	73726556 	.word	0x73726556
10005058:	3a6e6f69 	.word	0x3a6e6f69
1000505c:	2e642520 	.word	0x2e642520
10005060:	252e6425 	.word	0x252e6425
10005064:	000a0d64 	.word	0x000a0d64
10005068:	6c637943 	.word	0x6c637943
1000506c:	664f2065 	.word	0x664f2065
10005070:	74657366 	.word	0x74657366
10005074:	6425203a 	.word	0x6425203a
10005078:	00000000 	.word	0x00000000

1000507c <ExtRateIn>:
1000507c:	00000000                                ....

10005080 <OscRateIn>:
10005080:	00b71b00                                ....

10005084 <InitClkStates>:
10005084:	00010308 00010207 00010e0b 01010f03     ................

10005094 <spifipinmuxing>:
10005094:	00f30303 00f30403 00f30503 00f30603     ................
100050a4:	00f30703 00f30803                       ........

100050ac <pinmuxing>:
100050ac:	00580101                                ..X.

100050b0 <periph_to_base>:
100050b0:	00050000 0020000a 00090024 00400040     ...... .$...@.@.
100050c0:	00600005 000400a6 00c300c0 00e00002     ..`.............
100050d0:	000100e0 01000100 01200003 00060120     .......... . ...
100050e0:	01400140 0142000c 00190142 01620162     @.@...B.B...b.b.
100050f0:	01820013 00120182 01a201a2 01c20011     ................
10005100:	001001c2 01e201e2 0202000f 000e0202     ................
10005110:	02220222 0223000d 001c0223 08040201     "."...#.#.......
10005120:	0f0f0f03 000000ff                       ........

10005128 <InitClkStates>:
10005128:	00010100 00010909 0001090a 01010701     ................
10005138:	00010902 00010906 0101090c 0001090d     ................
10005148:	0001090e 0001090f 00010910 00010911     ................
10005158:	00010912 00010913 00011114 00011119     ................
10005168:	0001111a 0001111b 0000002d 00000020     ........-... ...
10005178:	00000000 0000002b 63257830 00642570     ....+...0x%cp%d.
10005188:	63255830 00642550 63257830 2a2e252e     0X%cP%d.0x%c.%.*
10005198:	70786c6c 00006425 63255830 2a2e252e     llxp%d..0X%c.%.*
100051a8:	50586c6c 00006425 00000072 00000077     llXP%d..r...w...
100051b8:	6c756e28 0000296c 33323130 37363534     (null)..01234567
100051c8:	42413938 46454443 00000000 00005830     89ABCDEF....0X..
100051d8:	00000000 33323130 37363534 62613938     ....0123456789ab
100051e8:	66656463 00000000 00007830 00000030     cdef....0x..0...
100051f8:	0000002d 00000020 0000002b 202a2a2a     -... ...+...*** 
10005208:	7973435f 6c615f73 20636f6c 6c696166     _Csys_alloc fail
10005218:	000a6465 00000000                       ed......

10005220 <__huge_vall>:
10005220:	ffffffff 7fefffff                       ........
